	.text
	.syntax unified
	.eabi_attribute	67, "2.09"	@ Tag_conformance
	.cpu	cortex-m4
	.eabi_attribute	6, 13	@ Tag_CPU_arch
	.eabi_attribute	7, 77	@ Tag_CPU_arch_profile
	.eabi_attribute	8, 0	@ Tag_ARM_ISA_use
	.eabi_attribute	9, 2	@ Tag_THUMB_ISA_use
	.fpu	fpv4-sp-d16
	.eabi_attribute	27, 1	@ Tag_ABI_HardFP_use
	.eabi_attribute	36, 1	@ Tag_FP_HP_extension
	.eabi_attribute	34, 1	@ Tag_CPU_unaligned_access
	.eabi_attribute	17, 1	@ Tag_ABI_PCS_GOT_use
	.eabi_attribute	20, 2	@ Tag_ABI_FP_denormal
	.eabi_attribute	21, 0	@ Tag_ABI_FP_exceptions
	.eabi_attribute	23, 1	@ Tag_ABI_FP_number_model
	.eabi_attribute	24, 1	@ Tag_ABI_align_needed
	.eabi_attribute	25, 1	@ Tag_ABI_align_preserved
	.eabi_attribute	28, 1	@ Tag_ABI_VFP_args
	.eabi_attribute	38, 1	@ Tag_ABI_FP_16bit_format
	.eabi_attribute	18, 2	@ Tag_ABI_PCS_wchar_t
	.eabi_attribute	26, 1	@ Tag_ABI_enum_size
	.eabi_attribute	14, 0	@ Tag_ABI_PCS_R9_use
	.file	"acim_estimator.cpp"
	.file	1 "D:\\ikingtec\\Robot\\ODrive\\Firmware\\MDK-ARM" "../../Firmware\\MotorControl/utils.hpp"
	.file	2 "D:\\Embed\\MDK\\MDK\\ARM\\ARMCompilerV621\\Bin\\..\\include\\libcxx" "variant"
	.file	3 "D:\\Embed\\MDK\\MDK\\ARM\\ARMCompilerV621\\Bin\\..\\include" "time.h"
	.file	4 "D:\\Embed\\MDK\\MDK\\ARM\\ARMCompilerV621\\Bin\\..\\include\\libcxx\\__utility" "in_place.h"
	.file	5 "D:\\Embed\\MDK\\MDK\\ARM\\ARMCompilerV621\\Bin\\..\\include\\libcxx" "optional"
	.file	6 "D:\\Embed\\MDK\\MDK\\ARM\\ARMCompilerV621\\Bin\\..\\include\\libcxx\\__tuple" "sfinae_helpers.h"
	.file	7 "D:\\Embed\\MDK\\MDK\\ARM\\ARMCompilerV621\\Bin\\..\\include\\libcxx\\__type_traits" "add_pointer.h"
	.file	8 "D:\\Embed\\MDK\\MDK\\ARM\\ARMCompilerV621\\Bin\\..\\include\\libcxx\\__utility" "pair.h"
	.section	.text._ZN13AcimEstimator6updateEj,"ax",%progbits
	.hidden	_ZN13AcimEstimator6updateEj     @ -- Begin function _ZN13AcimEstimator6updateEj
	.globl	_ZN13AcimEstimator6updateEj
	.p2align	2
	.type	_ZN13AcimEstimator6updateEj,%function
	.code	16                              @ @_ZN13AcimEstimator6updateEj
	.thumb_func
_ZN13AcimEstimator6updateEj:
.Lfunc_begin0:
	.file	9 "D:\\ikingtec\\Robot\\ODrive\\Firmware\\MDK-ARM" "../MotorControl/acim_estimator.cpp"
	.loc	9 5 0                           @ ../MotorControl/acim_estimator.cpp:5:0
	.fnstart
	.cfi_sections .debug_frame
	.cfi_startproc
@ %bb.0:
	.save	{r7, lr}
	push	{r7, lr}
	.cfi_def_cfa_offset 8
	.cfi_offset lr, -4
	.cfi_offset r7, -8
	.pad	#80
	sub	sp, #80
	.cfi_def_cfa_offset 88
	str	r0, [sp, #76]
	str	r1, [sp, #72]
	ldr	r0, [sp, #76]
.Ltmp0:
	.loc	9 6 40 prologue_end             @ ../MotorControl/acim_estimator.cpp:6:40
	str	r0, [sp, #8]                    @ 4-byte Spill
	add.w	r1, r0, #8
	add	r0, sp, #64
	.loc	9 6 57 is_stmt 0                @ ../MotorControl/acim_estimator.cpp:6:57
	str	r0, [sp, #12]                   @ 4-byte Spill
	bl	_ZN9InputPortIfE7presentEv
	ldr	r0, [sp, #8]                    @ 4-byte Reload
	.loc	9 7 44 is_stmt 1                @ ../MotorControl/acim_estimator.cpp:7:44
	add.w	r1, r0, #16
	add	r0, sp, #56
	.loc	9 7 65 is_stmt 0                @ ../MotorControl/acim_estimator.cpp:7:65
	bl	_ZN9InputPortIfE7presentEv
	ldr	r0, [sp, #8]                    @ 4-byte Reload
	.loc	9 8 34 is_stmt 1                @ ../MotorControl/acim_estimator.cpp:8:34
	add.w	r1, r0, #24
	add	r0, sp, #44
	.loc	9 8 43 is_stmt 0                @ ../MotorControl/acim_estimator.cpp:8:43
	bl	_ZN9InputPortINSt3__24pairIffEEE7presentEv
	ldr	r0, [sp, #12]                   @ 4-byte Reload
.Ltmp1:
	.loc	9 10 22 is_stmt 1               @ ../MotorControl/acim_estimator.cpp:10:22
	bl	_ZNKSt3__223__optional_storage_baseIfLb0EE9has_valueB7v180000Ev
	.loc	9 10 34 is_stmt 0               @ ../MotorControl/acim_estimator.cpp:10:34
	cbz	r0, .LBB0_3
	b	.LBB0_1
.LBB0_1:
	.loc	9 0 34                          @ ../MotorControl/acim_estimator.cpp:0:34
	add	r0, sp, #56
	.loc	9 10 54                         @ ../MotorControl/acim_estimator.cpp:10:54
	bl	_ZNKSt3__223__optional_storage_baseIfLb0EE9has_valueB7v180000Ev
	.loc	9 10 66                         @ ../MotorControl/acim_estimator.cpp:10:66
	cbz	r0, .LBB0_3
	b	.LBB0_2
.LBB0_2:
	.loc	9 0 66                          @ ../MotorControl/acim_estimator.cpp:0:66
	add	r0, sp, #44
	.loc	9 10 74                         @ ../MotorControl/acim_estimator.cpp:10:74
	bl	_ZNKSt3__223__optional_storage_baseINS_4pairIffEELb0EE9has_valueB7v180000Ev
.Ltmp2:
	.loc	9 10 9                          @ ../MotorControl/acim_estimator.cpp:10:9
	cbnz	r0, .LBB0_4
	b	.LBB0_3
.LBB0_3:
	.loc	9 0 9                           @ ../MotorControl/acim_estimator.cpp:0:9
	ldr	r1, [sp, #8]                    @ 4-byte Reload
	movs	r0, #0
.Ltmp3:
	.loc	9 11 17 is_stmt 1               @ ../MotorControl/acim_estimator.cpp:11:17
	strb.w	r0, [r1, #36]
	.loc	9 12 9                          @ ../MotorControl/acim_estimator.cpp:12:9
	b	.LBB0_10
.Ltmp4:
.LBB0_4:
	.loc	9 0 9 is_stmt 0                 @ ../MotorControl/acim_estimator.cpp:0:9
	add	r0, sp, #44
	.loc	9 15 21 is_stmt 1               @ ../MotorControl/acim_estimator.cpp:15:21
	bl	_ZNRSt3__28optionalINS_4pairIffEEEdeB7v180000Ev
	mov	r1, r0
	ldr	r0, [r1]
	ldr	r1, [r1, #4]
	str	r1, [sp, #40]
	str	r0, [sp, #36]
	add	r0, sp, #36
	.loc	9 15 11 is_stmt 0               @ ../MotorControl/acim_estimator.cpp:15:11
	str	r0, [sp, #4]                    @ 4-byte Spill
	bl	_ZNSt3__23getB7v180000ILj0EffEEONS_13tuple_elementIXT_ENS_4pairIT0_T1_EEE4typeEOS5_
	mov	r1, r0
	ldr	r0, [sp, #4]                    @ 4-byte Reload
	str	r1, [sp, #32]
	.loc	9 15 15                         @ ../MotorControl/acim_estimator.cpp:15:15
	bl	_ZNSt3__23getB7v180000ILj1EffEEONS_13tuple_elementIXT_ENS_4pairIT0_T1_EEE4typeEOS5_
	mov	r1, r0
	ldr	r0, [sp, #8]                    @ 4-byte Reload
	str	r1, [sp, #28]
	.loc	9 17 24 is_stmt 1               @ ../MotorControl/acim_estimator.cpp:17:24
	ldr	r1, [sp, #72]
	.loc	9 17 36 is_stmt 0               @ ../MotorControl/acim_estimator.cpp:17:36
	ldr	r2, [r0, #40]
	.loc	9 17 34                         @ ../MotorControl/acim_estimator.cpp:17:34
	subs	r1, r1, r2
	.loc	9 17 23                         @ ../MotorControl/acim_estimator.cpp:17:23
	vmov	s0, r1
	vcvt.f32.u32	s0, s0
	vldr	s2, .LCPI0_0
	.loc	9 17 53                         @ ../MotorControl/acim_estimator.cpp:17:53
	vdiv.f32	s0, s0, s2
	.loc	9 17 11                         @ ../MotorControl/acim_estimator.cpp:17:11
	vstr	s0, [sp, #24]
	.loc	9 18 23 is_stmt 1               @ ../MotorControl/acim_estimator.cpp:18:23
	ldr	r1, [sp, #72]
	.loc	9 18 21 is_stmt 0               @ ../MotorControl/acim_estimator.cpp:18:21
	str	r1, [r0, #40]
.Ltmp5:
	.loc	9 20 10 is_stmt 1               @ ../MotorControl/acim_estimator.cpp:20:10
	ldrb.w	r0, [r0, #36]
.Ltmp6:
	.loc	9 20 9 is_stmt 0                @ ../MotorControl/acim_estimator.cpp:20:9
	lsls	r0, r0, #31
	cbnz	r0, .LBB0_6
	b	.LBB0_5
.LBB0_5:
	.loc	9 0 9                           @ ../MotorControl/acim_estimator.cpp:0:9
	ldr	r1, [sp, #8]                    @ 4-byte Reload
	movs	r0, #0
.Ltmp7:
	.loc	9 22 21 is_stmt 1               @ ../MotorControl/acim_estimator.cpp:22:21
	str	r0, [r1, #44]
	.loc	9 23 23                         @ ../MotorControl/acim_estimator.cpp:23:23
	str	r0, [r1, #48]
	movs	r0, #1
	.loc	9 24 17                         @ ../MotorControl/acim_estimator.cpp:24:17
	strb.w	r0, [r1, #36]
	.loc	9 25 9                          @ ../MotorControl/acim_estimator.cpp:25:9
	b	.LBB0_10
.Ltmp8:
.LBB0_6:
	.loc	9 15 11                         @ ../MotorControl/acim_estimator.cpp:15:11
	ldr	r0, [sp, #8]                    @ 4-byte Reload
	ldr	r1, [sp, #32]
	.loc	9 33 50                         @ ../MotorControl/acim_estimator.cpp:33:50
	vldr	s2, [r1]
	.loc	9 33 33 is_stmt 0               @ ../MotorControl/acim_estimator.cpp:33:33
	vldr	s0, [r0, #4]
	.loc	9 33 55                         @ ../MotorControl/acim_estimator.cpp:33:55
	vldr	s4, [r0, #44]
	.loc	9 33 53                         @ ../MotorControl/acim_estimator.cpp:33:53
	vsub.f32	s2, s2, s4
	.loc	9 33 47                         @ ../MotorControl/acim_estimator.cpp:33:47
	vmul.f32	s0, s0, s2
	.loc	9 33 11                         @ ../MotorControl/acim_estimator.cpp:33:11
	vstr	s0, [sp, #20]
	.loc	9 34 20 is_stmt 1               @ ../MotorControl/acim_estimator.cpp:34:20
	vldr	s0, [sp, #20]
	.loc	9 34 34 is_stmt 0               @ ../MotorControl/acim_estimator.cpp:34:34
	vldr	s4, [sp, #24]
	.loc	9 34 17                         @ ../MotorControl/acim_estimator.cpp:34:17
	vldr	s2, [r0, #44]
	vmul.f32	s0, s0, s4
	vadd.f32	s0, s0, s2
	vstr	s0, [r0, #44]
	.loc	9 15 15 is_stmt 1               @ ../MotorControl/acim_estimator.cpp:15:15
	ldr	r1, [sp, #28]
	.loc	9 35 52                         @ ../MotorControl/acim_estimator.cpp:35:52
	vldr	s2, [r1]
	.loc	9 35 35 is_stmt 0               @ ../MotorControl/acim_estimator.cpp:35:35
	vldr	s0, [r0, #4]
	.loc	9 35 57                         @ ../MotorControl/acim_estimator.cpp:35:57
	vldr	s4, [r0, #44]
	.loc	9 35 55                         @ ../MotorControl/acim_estimator.cpp:35:55
	vdiv.f32	s2, s2, s4
	.loc	9 35 49                         @ ../MotorControl/acim_estimator.cpp:35:49
	vmul.f32	s0, s0, s2
	.loc	9 35 11                         @ ../MotorControl/acim_estimator.cpp:35:11
	vstr	s0, [sp, #16]
.Ltmp9:
	.loc	9 37 16 is_stmt 1               @ ../MotorControl/acim_estimator.cpp:37:16
	vldr	s0, [sp, #16]
	.loc	9 37 9 is_stmt 0                @ ../MotorControl/acim_estimator.cpp:37:9
	bl	_Z6is_nanf
	.loc	9 37 31                         @ ../MotorControl/acim_estimator.cpp:37:31
	cbnz	r0, .LBB0_8
	b	.LBB0_7
.LBB0_7:
	.loc	9 37 44                         @ ../MotorControl/acim_estimator.cpp:37:44
	vldr	s0, [sp, #16]
	.loc	9 37 35                         @ ../MotorControl/acim_estimator.cpp:37:35
	bl	_Z3absB7v180000f
	.loc	9 37 68                         @ ../MotorControl/acim_estimator.cpp:37:68
	vldr	s4, [sp, #24]
	vldr	s2, .LCPI0_1
	.loc	9 37 66                         @ ../MotorControl/acim_estimator.cpp:37:66
	vdiv.f32	s2, s2, s4
.Ltmp10:
	.loc	9 37 9                          @ ../MotorControl/acim_estimator.cpp:37:9
	vcmp.f32	s0, s2
	vmrs	APSR_nzcv, fpscr
	ble	.LBB0_9
	b	.LBB0_8
.LBB0_8:
	.loc	9 0 9                           @ ../MotorControl/acim_estimator.cpp:0:9
	movs	r0, #0
.Ltmp11:
	.loc	9 38 23 is_stmt 1               @ ../MotorControl/acim_estimator.cpp:38:23
	str	r0, [sp, #16]
	.loc	9 39 5                          @ ../MotorControl/acim_estimator.cpp:39:5
	b	.LBB0_9
.Ltmp12:
.LBB0_9:
	.loc	9 40 17                         @ ../MotorControl/acim_estimator.cpp:40:17
	ldr	r0, [sp, #8]                    @ 4-byte Reload
	vldr	s0, [sp, #16]
	.loc	9 40 5 is_stmt 0                @ ../MotorControl/acim_estimator.cpp:40:5
	adds	r0, #52
	.loc	9 40 15                         @ ../MotorControl/acim_estimator.cpp:40:15
	bl	_ZN10OutputPortIfEaSEf
	add	r0, sp, #56
	.loc	9 42 25 is_stmt 1               @ ../MotorControl/acim_estimator.cpp:42:25
	bl	_ZNRSt3__28optionalIfEdeB7v180000Ev
	mov	r1, r0
	ldr	r0, [sp, #8]                    @ 4-byte Reload
	vldr	s0, [r1]
	.loc	9 42 44 is_stmt 0               @ ../MotorControl/acim_estimator.cpp:42:44
	vldr	s2, [sp, #16]
	.loc	9 42 42                         @ ../MotorControl/acim_estimator.cpp:42:42
	vadd.f32	s0, s0, s2
	.loc	9 42 5                          @ ../MotorControl/acim_estimator.cpp:42:5
	adds	r0, #60
	.loc	9 42 23                         @ ../MotorControl/acim_estimator.cpp:42:23
	bl	_ZN10OutputPortIfEaSEf
	ldr	r0, [sp, #8]                    @ 4-byte Reload
	.loc	9 43 32 is_stmt 1               @ ../MotorControl/acim_estimator.cpp:43:32
	vldr	s2, [r0, #48]
	.loc	9 43 48 is_stmt 0               @ ../MotorControl/acim_estimator.cpp:43:48
	vldr	s0, [sp, #16]
	.loc	9 43 64                         @ ../MotorControl/acim_estimator.cpp:43:64
	vldr	s4, [sp, #24]
	.loc	9 43 46                         @ ../MotorControl/acim_estimator.cpp:43:46
	vmul.f32	s0, s0, s4
	vadd.f32	s0, s0, s2
	.loc	9 43 21                         @ ../MotorControl/acim_estimator.cpp:43:21
	bl	_Z10wrap_pm_pif
	ldr	r0, [sp, #8]                    @ 4-byte Reload
	.loc	9 43 19                         @ ../MotorControl/acim_estimator.cpp:43:19
	vstr	s0, [r0, #48]
	add	r0, sp, #64
	.loc	9 44 32 is_stmt 1               @ ../MotorControl/acim_estimator.cpp:44:32
	bl	_ZNRSt3__28optionalIfEdeB7v180000Ev
	mov	r1, r0
	ldr	r0, [sp, #8]                    @ 4-byte Reload
	vldr	s0, [r1]
	.loc	9 44 47 is_stmt 0               @ ../MotorControl/acim_estimator.cpp:44:47
	vldr	s2, [r0, #48]
	.loc	9 44 45                         @ ../MotorControl/acim_estimator.cpp:44:45
	vadd.f32	s0, s0, s2
	.loc	9 44 21                         @ ../MotorControl/acim_estimator.cpp:44:21
	bl	_Z10wrap_pm_pif
	ldr	r0, [sp, #8]                    @ 4-byte Reload
	.loc	9 44 5                          @ ../MotorControl/acim_estimator.cpp:44:5
	adds	r0, #68
	.loc	9 44 19                         @ ../MotorControl/acim_estimator.cpp:44:19
	bl	_ZN10OutputPortIfEaSEf
	.loc	9 45 1 is_stmt 1                @ ../MotorControl/acim_estimator.cpp:45:1
	b	.LBB0_10
.LBB0_10:
	.loc	9 45 1 epilogue_begin is_stmt 0 @ ../MotorControl/acim_estimator.cpp:45:1
	add	sp, #80
	pop	{r7, pc}
.Ltmp13:
	.p2align	2
@ %bb.11:
	.loc	9 0 1                           @ ../MotorControl/acim_estimator.cpp:0:1
.LCPI0_0:
	.long	0x4d2037a0                      @ float 1.68E+8
.LCPI0_1:
	.long	0x3dcccccd                      @ float 0.100000001
.Lfunc_end0:
	.size	_ZN13AcimEstimator6updateEj, .Lfunc_end0-_ZN13AcimEstimator6updateEj
	.cfi_endproc
	.file	10 "D:\\ikingtec\\Robot\\ODrive\\Firmware\\MDK-ARM" "../MotorControl/acim_estimator.hpp"
	.file	11 "D:\\ikingtec\\Robot\\ODrive\\Firmware\\MDK-ARM" "../MotorControl\\component.hpp"
	.file	12 "D:\\Embed\\MDK\\MDK\\ARM\\ARMCompilerV621\\Bin\\..\\include" "stdint.h"
	.cantunwind
	.fnend
                                        @ -- End function
	.section	.text._ZN9InputPortIfE7presentEv,"axG",%progbits,_ZN9InputPortIfE7presentEv,comdat
	.hidden	_ZN9InputPortIfE7presentEv      @ -- Begin function _ZN9InputPortIfE7presentEv
	.weak	_ZN9InputPortIfE7presentEv
	.p2align	2
	.type	_ZN9InputPortIfE7presentEv,%function
	.code	16                              @ @_ZN9InputPortIfE7presentEv
	.thumb_func
_ZN9InputPortIfE7presentEv:
.Lfunc_begin1:
	.loc	11 137 0 is_stmt 1              @ ../MotorControl\component.hpp:137:0
	.fnstart
	.cfi_startproc
@ %bb.0:
	.save	{r7, lr}
	push	{r7, lr}
	.cfi_def_cfa_offset 8
	.cfi_offset lr, -4
	.cfi_offset r7, -8
	.pad	#32
	sub	sp, #32
	.cfi_def_cfa_offset 40
	str	r0, [sp, #4]                    @ 4-byte Spill
	str	r1, [sp, #28]
	ldr	r0, [sp, #28]
.Ltmp14:
	.loc	11 138 22 prologue_end          @ ../MotorControl\component.hpp:138:22
	str	r0, [sp, #8]                    @ 4-byte Spill
	bl	_ZNKSt3__27variantIJfPfP10OutputPortIfEEE5indexB7v180000Ev
.Ltmp15:
	.loc	11 138 13 is_stmt 0             @ ../MotorControl\component.hpp:138:13
	cmp	r0, #2
	bne	.LBB1_5
	b	.LBB1_1
.LBB1_1:
.Ltmp16:
	.loc	11 139 34 is_stmt 1             @ ../MotorControl\component.hpp:139:34
	ldr	r0, [sp, #8]                    @ 4-byte Reload
	bl	_ZNSt3__23getB7v180000ILj2EJfPfP10OutputPortIfEEEERNS_19variant_alternativeIXT_ENS_7variantIJDpT0_EEEE4typeERS9_
	ldr	r0, [r0]
	.loc	11 139 28 is_stmt 0             @ ../MotorControl\component.hpp:139:28
	str	r0, [sp, #24]
	.loc	11 140 20 is_stmt 1             @ ../MotorControl\component.hpp:140:20
	ldr	r0, [sp, #24]
	cbz	r0, .LBB1_3
	b	.LBB1_2
.LBB1_2:
	.loc	11 140 26 is_stmt 0             @ ../MotorControl\component.hpp:140:26
	ldr	r0, [sp, #4]                    @ 4-byte Reload
	ldr	r1, [sp, #24]
	.loc	11 140 31                       @ ../MotorControl\component.hpp:140:31
	bl	_ZN10OutputPortIfE7presentEv
	.loc	11 140 20                       @ ../MotorControl\component.hpp:140:20
	b	.LBB1_4
.LBB1_3:
	.loc	11 140 43                       @ ../MotorControl\component.hpp:140:43
	ldr	r0, [sp, #4]                    @ 4-byte Reload
	bl	_ZNSt3__28optionalIfEC2B7v180000ENS_9nullopt_tE
	.loc	11 140 20                       @ ../MotorControl\component.hpp:140:20
	b	.LBB1_4
.LBB1_4:
	.loc	11 140 13                       @ ../MotorControl\component.hpp:140:13
	b	.LBB1_11
.Ltmp17:
.LBB1_5:
	.loc	11 141 29 is_stmt 1             @ ../MotorControl\component.hpp:141:29
	ldr	r0, [sp, #8]                    @ 4-byte Reload
	bl	_ZNKSt3__27variantIJfPfP10OutputPortIfEEE5indexB7v180000Ev
.Ltmp18:
	.loc	11 141 20 is_stmt 0             @ ../MotorControl\component.hpp:141:20
	cmp	r0, #1
	bne	.LBB1_10
	b	.LBB1_6
.LBB1_6:
.Ltmp19:
	.loc	11 142 22 is_stmt 1             @ ../MotorControl\component.hpp:142:22
	ldr	r0, [sp, #8]                    @ 4-byte Reload
	bl	_ZNSt3__23getB7v180000ILj1EJfPfP10OutputPortIfEEEERNS_19variant_alternativeIXT_ENS_7variantIJDpT0_EEEE4typeERS9_
	ldr	r0, [r0]
	.loc	11 142 16 is_stmt 0             @ ../MotorControl\component.hpp:142:16
	str	r0, [sp, #16]
	.loc	11 143 20 is_stmt 1             @ ../MotorControl\component.hpp:143:20
	ldr	r0, [sp, #16]
	cbz	r0, .LBB1_8
	b	.LBB1_7
.LBB1_7:
	.loc	11 143 46 is_stmt 0             @ ../MotorControl\component.hpp:143:46
	ldr	r0, [sp, #4]                    @ 4-byte Reload
	ldr	r1, [sp, #16]
	.loc	11 143 26                       @ ../MotorControl\component.hpp:143:26
	bl	_ZNSt3__213make_optionalB7v180000IRfEENS_8optionalIu7__decayIT_EEEOS3_
	.loc	11 143 20                       @ ../MotorControl\component.hpp:143:20
	b	.LBB1_9
.LBB1_8:
	.loc	11 143 53                       @ ../MotorControl\component.hpp:143:53
	ldr	r0, [sp, #4]                    @ 4-byte Reload
	bl	_ZNSt3__28optionalIfEC2B7v180000ENS_9nullopt_tE
	.loc	11 143 20                       @ ../MotorControl\component.hpp:143:20
	b	.LBB1_9
.LBB1_9:
	.loc	11 143 13                       @ ../MotorControl\component.hpp:143:13
	b	.LBB1_11
.Ltmp20:
.LBB1_10:
	.loc	11 145 20 is_stmt 1             @ ../MotorControl\component.hpp:145:20
	ldr	r0, [sp, #8]                    @ 4-byte Reload
	bl	_ZNSt3__23getB7v180000ILj0EJfPfP10OutputPortIfEEEERNS_19variant_alternativeIXT_ENS_7variantIJDpT0_EEEE4typeERS9_
	mov	r1, r0
	ldr	r0, [sp, #4]                    @ 4-byte Reload
	bl	_ZNSt3__28optionalIfEC2B7v180000IRfLi0EEEOT_
	.loc	11 145 13 is_stmt 0             @ ../MotorControl\component.hpp:145:13
	b	.LBB1_11
.Ltmp21:
.LBB1_11:
	.loc	11 147 5 epilogue_begin is_stmt 1 @ ../MotorControl\component.hpp:147:5
	add	sp, #32
	pop	{r7, pc}
.Ltmp22:
.Lfunc_end1:
	.size	_ZN9InputPortIfE7presentEv, .Lfunc_end1-_ZN9InputPortIfE7presentEv
	.cfi_endproc
	.cantunwind
	.fnend
                                        @ -- End function
	.section	.text._ZN9InputPortINSt3__24pairIffEEE7presentEv,"axG",%progbits,_ZN9InputPortINSt3__24pairIffEEE7presentEv,comdat
	.hidden	_ZN9InputPortINSt3__24pairIffEEE7presentEv @ -- Begin function _ZN9InputPortINSt3__24pairIffEEE7presentEv
	.weak	_ZN9InputPortINSt3__24pairIffEEE7presentEv
	.p2align	2
	.type	_ZN9InputPortINSt3__24pairIffEEE7presentEv,%function
	.code	16                              @ @_ZN9InputPortINSt3__24pairIffEEE7presentEv
	.thumb_func
_ZN9InputPortINSt3__24pairIffEEE7presentEv:
.Lfunc_begin2:
	.loc	11 137 0                        @ ../MotorControl\component.hpp:137:0
	.fnstart
	.cfi_startproc
@ %bb.0:
	.save	{r7, lr}
	push	{r7, lr}
	.cfi_def_cfa_offset 8
	.cfi_offset lr, -4
	.cfi_offset r7, -8
	.pad	#32
	sub	sp, #32
	.cfi_def_cfa_offset 40
	str	r0, [sp, #4]                    @ 4-byte Spill
	str	r1, [sp, #28]
	ldr	r0, [sp, #28]
.Ltmp23:
	.loc	11 138 22 prologue_end          @ ../MotorControl\component.hpp:138:22
	str	r0, [sp, #8]                    @ 4-byte Spill
	bl	_ZNKSt3__27variantIJNS_4pairIffEEPS2_P10OutputPortIS2_EEE5indexB7v180000Ev
.Ltmp24:
	.loc	11 138 13 is_stmt 0             @ ../MotorControl\component.hpp:138:13
	cmp	r0, #2
	bne	.LBB2_5
	b	.LBB2_1
.LBB2_1:
.Ltmp25:
	.loc	11 139 34 is_stmt 1             @ ../MotorControl\component.hpp:139:34
	ldr	r0, [sp, #8]                    @ 4-byte Reload
	bl	_ZNSt3__23getB7v180000ILj2EJNS_4pairIffEEPS2_P10OutputPortIS2_EEEERNS_19variant_alternativeIXT_ENS_7variantIJDpT0_EEEE4typeERSB_
	ldr	r0, [r0]
	.loc	11 139 28 is_stmt 0             @ ../MotorControl\component.hpp:139:28
	str	r0, [sp, #24]
	.loc	11 140 20 is_stmt 1             @ ../MotorControl\component.hpp:140:20
	ldr	r0, [sp, #24]
	cbz	r0, .LBB2_3
	b	.LBB2_2
.LBB2_2:
	.loc	11 140 26 is_stmt 0             @ ../MotorControl\component.hpp:140:26
	ldr	r0, [sp, #4]                    @ 4-byte Reload
	ldr	r1, [sp, #24]
	.loc	11 140 31                       @ ../MotorControl\component.hpp:140:31
	bl	_ZN10OutputPortINSt3__24pairIffEEE7presentEv
	.loc	11 140 20                       @ ../MotorControl\component.hpp:140:20
	b	.LBB2_4
.LBB2_3:
	.loc	11 140 43                       @ ../MotorControl\component.hpp:140:43
	ldr	r0, [sp, #4]                    @ 4-byte Reload
	bl	_ZNSt3__28optionalINS_4pairIffEEEC2B7v180000ENS_9nullopt_tE
	.loc	11 140 20                       @ ../MotorControl\component.hpp:140:20
	b	.LBB2_4
.LBB2_4:
	.loc	11 140 13                       @ ../MotorControl\component.hpp:140:13
	b	.LBB2_11
.Ltmp26:
.LBB2_5:
	.loc	11 141 29 is_stmt 1             @ ../MotorControl\component.hpp:141:29
	ldr	r0, [sp, #8]                    @ 4-byte Reload
	bl	_ZNKSt3__27variantIJNS_4pairIffEEPS2_P10OutputPortIS2_EEE5indexB7v180000Ev
.Ltmp27:
	.loc	11 141 20 is_stmt 0             @ ../MotorControl\component.hpp:141:20
	cmp	r0, #1
	bne	.LBB2_10
	b	.LBB2_6
.LBB2_6:
.Ltmp28:
	.loc	11 142 22 is_stmt 1             @ ../MotorControl\component.hpp:142:22
	ldr	r0, [sp, #8]                    @ 4-byte Reload
	bl	_ZNSt3__23getB7v180000ILj1EJNS_4pairIffEEPS2_P10OutputPortIS2_EEEERNS_19variant_alternativeIXT_ENS_7variantIJDpT0_EEEE4typeERSB_
	ldr	r0, [r0]
	.loc	11 142 16 is_stmt 0             @ ../MotorControl\component.hpp:142:16
	str	r0, [sp, #16]
	.loc	11 143 20 is_stmt 1             @ ../MotorControl\component.hpp:143:20
	ldr	r0, [sp, #16]
	cbz	r0, .LBB2_8
	b	.LBB2_7
.LBB2_7:
	.loc	11 143 46 is_stmt 0             @ ../MotorControl\component.hpp:143:46
	ldr	r0, [sp, #4]                    @ 4-byte Reload
	ldr	r1, [sp, #16]
	.loc	11 143 26                       @ ../MotorControl\component.hpp:143:26
	bl	_ZNSt3__213make_optionalB7v180000IRNS_4pairIffEEEENS_8optionalIu7__decayIT_EEEOS5_
	.loc	11 143 20                       @ ../MotorControl\component.hpp:143:20
	b	.LBB2_9
.LBB2_8:
	.loc	11 143 53                       @ ../MotorControl\component.hpp:143:53
	ldr	r0, [sp, #4]                    @ 4-byte Reload
	bl	_ZNSt3__28optionalINS_4pairIffEEEC2B7v180000ENS_9nullopt_tE
	.loc	11 143 20                       @ ../MotorControl\component.hpp:143:20
	b	.LBB2_9
.LBB2_9:
	.loc	11 143 13                       @ ../MotorControl\component.hpp:143:13
	b	.LBB2_11
.Ltmp29:
.LBB2_10:
	.loc	11 145 20 is_stmt 1             @ ../MotorControl\component.hpp:145:20
	ldr	r0, [sp, #8]                    @ 4-byte Reload
	bl	_ZNSt3__23getB7v180000ILj0EJNS_4pairIffEEPS2_P10OutputPortIS2_EEEERNS_19variant_alternativeIXT_ENS_7variantIJDpT0_EEEE4typeERSB_
	mov	r1, r0
	ldr	r0, [sp, #4]                    @ 4-byte Reload
	bl	_ZNSt3__28optionalINS_4pairIffEEEC2B7v180000IRS2_Li0EEEOT_
	.loc	11 145 13 is_stmt 0             @ ../MotorControl\component.hpp:145:13
	b	.LBB2_11
.Ltmp30:
.LBB2_11:
	.loc	11 147 5 epilogue_begin is_stmt 1 @ ../MotorControl\component.hpp:147:5
	add	sp, #32
	pop	{r7, pc}
.Ltmp31:
.Lfunc_end2:
	.size	_ZN9InputPortINSt3__24pairIffEEE7presentEv, .Lfunc_end2-_ZN9InputPortINSt3__24pairIffEEE7presentEv
	.cfi_endproc
	.cantunwind
	.fnend
                                        @ -- End function
	.section	.text._ZNKSt3__223__optional_storage_baseIfLb0EE9has_valueB7v180000Ev,"axG",%progbits,_ZNKSt3__223__optional_storage_baseIfLb0EE9has_valueB7v180000Ev,comdat
	.hidden	_ZNKSt3__223__optional_storage_baseIfLb0EE9has_valueB7v180000Ev @ -- Begin function _ZNKSt3__223__optional_storage_baseIfLb0EE9has_valueB7v180000Ev
	.weak	_ZNKSt3__223__optional_storage_baseIfLb0EE9has_valueB7v180000Ev
	.p2align	2
	.type	_ZNKSt3__223__optional_storage_baseIfLb0EE9has_valueB7v180000Ev,%function
	.code	16                              @ @_ZNKSt3__223__optional_storage_baseIfLb0EE9has_valueB7v180000Ev
	.thumb_func
_ZNKSt3__223__optional_storage_baseIfLb0EE9has_valueB7v180000Ev:
.Lfunc_begin3:
	.loc	5 386 0                         @ D:\Embed\MDK\MDK\ARM\ARMCompilerV621\Bin\..\include\libcxx\optional:386:0
	.fnstart
	.cfi_startproc
@ %bb.0:
	.pad	#4
	sub	sp, #4
	.cfi_def_cfa_offset 4
	str	r0, [sp]
	ldr	r0, [sp]
.Ltmp32:
	.loc	5 387 9 prologue_end            @ D:\Embed\MDK\MDK\ARM\ARMCompilerV621\Bin\..\include\libcxx\optional:387:9
	ldrb	r0, [r0, #4]
	and	r0, r0, #1
	.loc	5 387 9 epilogue_begin is_stmt 0 @ D:\Embed\MDK\MDK\ARM\ARMCompilerV621\Bin\..\include\libcxx\optional:387:9
	add	sp, #4
	bx	lr
.Ltmp33:
.Lfunc_end3:
	.size	_ZNKSt3__223__optional_storage_baseIfLb0EE9has_valueB7v180000Ev, .Lfunc_end3-_ZNKSt3__223__optional_storage_baseIfLb0EE9has_valueB7v180000Ev
	.cfi_endproc
	.cantunwind
	.fnend
                                        @ -- End function
	.section	.text._ZNKSt3__223__optional_storage_baseINS_4pairIffEELb0EE9has_valueB7v180000Ev,"axG",%progbits,_ZNKSt3__223__optional_storage_baseINS_4pairIffEELb0EE9has_valueB7v180000Ev,comdat
	.hidden	_ZNKSt3__223__optional_storage_baseINS_4pairIffEELb0EE9has_valueB7v180000Ev @ -- Begin function _ZNKSt3__223__optional_storage_baseINS_4pairIffEELb0EE9has_valueB7v180000Ev
	.weak	_ZNKSt3__223__optional_storage_baseINS_4pairIffEELb0EE9has_valueB7v180000Ev
	.p2align	2
	.type	_ZNKSt3__223__optional_storage_baseINS_4pairIffEELb0EE9has_valueB7v180000Ev,%function
	.code	16                              @ @_ZNKSt3__223__optional_storage_baseINS_4pairIffEELb0EE9has_valueB7v180000Ev
	.thumb_func
_ZNKSt3__223__optional_storage_baseINS_4pairIffEELb0EE9has_valueB7v180000Ev:
.Lfunc_begin4:
	.loc	5 386 0 is_stmt 1               @ D:\Embed\MDK\MDK\ARM\ARMCompilerV621\Bin\..\include\libcxx\optional:386:0
	.fnstart
	.cfi_startproc
@ %bb.0:
	.pad	#4
	sub	sp, #4
	.cfi_def_cfa_offset 4
	str	r0, [sp]
	ldr	r0, [sp]
.Ltmp34:
	.loc	5 387 9 prologue_end            @ D:\Embed\MDK\MDK\ARM\ARMCompilerV621\Bin\..\include\libcxx\optional:387:9
	ldrb	r0, [r0, #8]
	and	r0, r0, #1
	.loc	5 387 9 epilogue_begin is_stmt 0 @ D:\Embed\MDK\MDK\ARM\ARMCompilerV621\Bin\..\include\libcxx\optional:387:9
	add	sp, #4
	bx	lr
.Ltmp35:
.Lfunc_end4:
	.size	_ZNKSt3__223__optional_storage_baseINS_4pairIffEELb0EE9has_valueB7v180000Ev, .Lfunc_end4-_ZNKSt3__223__optional_storage_baseINS_4pairIffEELb0EE9has_valueB7v180000Ev
	.cfi_endproc
	.cantunwind
	.fnend
                                        @ -- End function
	.section	.text._ZNRSt3__28optionalINS_4pairIffEEEdeB7v180000Ev,"axG",%progbits,_ZNRSt3__28optionalINS_4pairIffEEEdeB7v180000Ev,comdat
	.hidden	_ZNRSt3__28optionalINS_4pairIffEEEdeB7v180000Ev @ -- Begin function _ZNRSt3__28optionalINS_4pairIffEEEdeB7v180000Ev
	.weak	_ZNRSt3__28optionalINS_4pairIffEEEdeB7v180000Ev
	.p2align	2
	.type	_ZNRSt3__28optionalINS_4pairIffEEEdeB7v180000Ev,%function
	.code	16                              @ @_ZNRSt3__28optionalINS_4pairIffEEEdeB7v180000Ev
	.thumb_func
_ZNRSt3__28optionalINS_4pairIffEEEdeB7v180000Ev:
.Lfunc_begin5:
	.loc	5 1026 0 is_stmt 1              @ D:\Embed\MDK\MDK\ARM\ARMCompilerV621\Bin\..\include\libcxx\optional:1026:0
	.fnstart
	.cfi_startproc
@ %bb.0:
	.save	{r7, lr}
	push	{r7, lr}
	.cfi_def_cfa_offset 8
	.cfi_offset lr, -4
	.cfi_offset r7, -8
	.pad	#8
	sub	sp, #8
	.cfi_def_cfa_offset 16
	str	r0, [sp, #4]
	ldr	r0, [sp, #4]
.Ltmp36:
	.loc	5 1028 22 prologue_end          @ D:\Embed\MDK\MDK\ARM\ARMCompilerV621\Bin\..\include\libcxx\optional:1028:22
	bl	_ZNRSt3__223__optional_storage_baseINS_4pairIffEELb0EE5__getB7v180000Ev
	.loc	5 1028 9 epilogue_begin is_stmt 0 @ D:\Embed\MDK\MDK\ARM\ARMCompilerV621\Bin\..\include\libcxx\optional:1028:9
	add	sp, #8
	pop	{r7, pc}
.Ltmp37:
.Lfunc_end5:
	.size	_ZNRSt3__28optionalINS_4pairIffEEEdeB7v180000Ev, .Lfunc_end5-_ZNRSt3__28optionalINS_4pairIffEEEdeB7v180000Ev
	.cfi_endproc
	.cantunwind
	.fnend
                                        @ -- End function
	.section	.text._ZNSt3__23getB7v180000ILj0EffEEONS_13tuple_elementIXT_ENS_4pairIT0_T1_EEE4typeEOS5_,"axG",%progbits,_ZNSt3__23getB7v180000ILj0EffEEONS_13tuple_elementIXT_ENS_4pairIT0_T1_EEE4typeEOS5_,comdat
	.hidden	_ZNSt3__23getB7v180000ILj0EffEEONS_13tuple_elementIXT_ENS_4pairIT0_T1_EEE4typeEOS5_ @ -- Begin function _ZNSt3__23getB7v180000ILj0EffEEONS_13tuple_elementIXT_ENS_4pairIT0_T1_EEE4typeEOS5_
	.weak	_ZNSt3__23getB7v180000ILj0EffEEONS_13tuple_elementIXT_ENS_4pairIT0_T1_EEE4typeEOS5_
	.p2align	2
	.type	_ZNSt3__23getB7v180000ILj0EffEEONS_13tuple_elementIXT_ENS_4pairIT0_T1_EEE4typeEOS5_,%function
	.code	16                              @ @_ZNSt3__23getB7v180000ILj0EffEEONS_13tuple_elementIXT_ENS_4pairIT0_T1_EEE4typeEOS5_
	.thumb_func
_ZNSt3__23getB7v180000ILj0EffEEONS_13tuple_elementIXT_ENS_4pairIT0_T1_EEE4typeEOS5_:
.Lfunc_begin6:
	.loc	8 808 0 is_stmt 1               @ D:\Embed\MDK\MDK\ARM\ARMCompilerV621\Bin\..\include\libcxx\__utility/pair.h:808:0
	.fnstart
	.cfi_startproc
@ %bb.0:
	.save	{r7, lr}
	push	{r7, lr}
	.cfi_def_cfa_offset 8
	.cfi_offset lr, -4
	.cfi_offset r7, -8
	.pad	#8
	sub	sp, #8
	.cfi_def_cfa_offset 16
	str	r0, [sp, #4]
.Ltmp38:
	.loc	8 809 43 prologue_end           @ D:\Embed\MDK\MDK\ARM\ARMCompilerV621\Bin\..\include\libcxx\__utility/pair.h:809:43
	ldr	r0, [sp, #4]
	.loc	8 809 12 is_stmt 0              @ D:\Embed\MDK\MDK\ARM\ARMCompilerV621\Bin\..\include\libcxx\__utility/pair.h:809:12
	bl	_ZNSt3__210__get_pairILj0EE3getB7v180000IffEEOT_ONS_4pairIS3_T0_EE
	.loc	8 809 5 epilogue_begin          @ D:\Embed\MDK\MDK\ARM\ARMCompilerV621\Bin\..\include\libcxx\__utility/pair.h:809:5
	add	sp, #8
	pop	{r7, pc}
.Ltmp39:
.Lfunc_end6:
	.size	_ZNSt3__23getB7v180000ILj0EffEEONS_13tuple_elementIXT_ENS_4pairIT0_T1_EEE4typeEOS5_, .Lfunc_end6-_ZNSt3__23getB7v180000ILj0EffEEONS_13tuple_elementIXT_ENS_4pairIT0_T1_EEE4typeEOS5_
	.cfi_endproc
	.cantunwind
	.fnend
                                        @ -- End function
	.section	.text._ZNSt3__23getB7v180000ILj1EffEEONS_13tuple_elementIXT_ENS_4pairIT0_T1_EEE4typeEOS5_,"axG",%progbits,_ZNSt3__23getB7v180000ILj1EffEEONS_13tuple_elementIXT_ENS_4pairIT0_T1_EEE4typeEOS5_,comdat
	.hidden	_ZNSt3__23getB7v180000ILj1EffEEONS_13tuple_elementIXT_ENS_4pairIT0_T1_EEE4typeEOS5_ @ -- Begin function _ZNSt3__23getB7v180000ILj1EffEEONS_13tuple_elementIXT_ENS_4pairIT0_T1_EEE4typeEOS5_
	.weak	_ZNSt3__23getB7v180000ILj1EffEEONS_13tuple_elementIXT_ENS_4pairIT0_T1_EEE4typeEOS5_
	.p2align	2
	.type	_ZNSt3__23getB7v180000ILj1EffEEONS_13tuple_elementIXT_ENS_4pairIT0_T1_EEE4typeEOS5_,%function
	.code	16                              @ @_ZNSt3__23getB7v180000ILj1EffEEONS_13tuple_elementIXT_ENS_4pairIT0_T1_EEE4typeEOS5_
	.thumb_func
_ZNSt3__23getB7v180000ILj1EffEEONS_13tuple_elementIXT_ENS_4pairIT0_T1_EEE4typeEOS5_:
.Lfunc_begin7:
	.loc	8 808 0 is_stmt 1               @ D:\Embed\MDK\MDK\ARM\ARMCompilerV621\Bin\..\include\libcxx\__utility/pair.h:808:0
	.fnstart
	.cfi_startproc
@ %bb.0:
	.save	{r7, lr}
	push	{r7, lr}
	.cfi_def_cfa_offset 8
	.cfi_offset lr, -4
	.cfi_offset r7, -8
	.pad	#8
	sub	sp, #8
	.cfi_def_cfa_offset 16
	str	r0, [sp, #4]
.Ltmp40:
	.loc	8 809 43 prologue_end           @ D:\Embed\MDK\MDK\ARM\ARMCompilerV621\Bin\..\include\libcxx\__utility/pair.h:809:43
	ldr	r0, [sp, #4]
	.loc	8 809 12 is_stmt 0              @ D:\Embed\MDK\MDK\ARM\ARMCompilerV621\Bin\..\include\libcxx\__utility/pair.h:809:12
	bl	_ZNSt3__210__get_pairILj1EE3getB7v180000IffEEOT0_ONS_4pairIT_S3_EE
	.loc	8 809 5 epilogue_begin          @ D:\Embed\MDK\MDK\ARM\ARMCompilerV621\Bin\..\include\libcxx\__utility/pair.h:809:5
	add	sp, #8
	pop	{r7, pc}
.Ltmp41:
.Lfunc_end7:
	.size	_ZNSt3__23getB7v180000ILj1EffEEONS_13tuple_elementIXT_ENS_4pairIT0_T1_EEE4typeEOS5_, .Lfunc_end7-_ZNSt3__23getB7v180000ILj1EffEEONS_13tuple_elementIXT_ENS_4pairIT0_T1_EEE4typeEOS5_
	.cfi_endproc
	.cantunwind
	.fnend
                                        @ -- End function
	.section	.text._Z6is_nanf,"axG",%progbits,_Z6is_nanf,comdat
	.hidden	_Z6is_nanf                      @ -- Begin function _Z6is_nanf
	.weak	_Z6is_nanf
	.p2align	2
	.type	_Z6is_nanf,%function
	.code	16                              @ @_Z6is_nanf
	.thumb_func
_Z6is_nanf:
.Lfunc_begin8:
	.loc	1 102 0 is_stmt 1               @ ../../Firmware\MotorControl/utils.hpp:102:0
	.fnstart
	.cfi_startproc
@ %bb.0:
	.pad	#4
	sub	sp, #4
	.cfi_def_cfa_offset 4
	vstr	s0, [sp]
.Ltmp42:
	.loc	1 103 28 prologue_end           @ ../../Firmware\MotorControl/utils.hpp:103:28
	ldr	r0, [sp]
	.loc	1 103 12 is_stmt 0              @ ../../Firmware\MotorControl/utils.hpp:103:12
	bic	r1, r0, #-2147483648
	movs	r0, #0
	cmp.w	r1, #2139095040
	it	gt
	movgt	r0, #1
	.loc	1 103 5 epilogue_begin          @ ../../Firmware\MotorControl/utils.hpp:103:5
	add	sp, #4
	bx	lr
.Ltmp43:
.Lfunc_end8:
	.size	_Z6is_nanf, .Lfunc_end8-_Z6is_nanf
	.cfi_endproc
	.cantunwind
	.fnend
                                        @ -- End function
	.section	.text._Z3absB7v180000f,"axG",%progbits,_Z3absB7v180000f,comdat
	.hidden	_Z3absB7v180000f                @ -- Begin function _Z3absB7v180000f
	.weak	_Z3absB7v180000f
	.p2align	2
	.type	_Z3absB7v180000f,%function
	.code	16                              @ @_Z3absB7v180000f
	.thumb_func
_Z3absB7v180000f:
.Lfunc_begin9:
	.file	13 "D:\\Embed\\MDK\\MDK\\ARM\\ARMCompilerV621\\Bin\\..\\include\\libcxx" "stdlib.h"
	.loc	13 122 0 is_stmt 1              @ D:\Embed\MDK\MDK\ARM\ARMCompilerV621\Bin\..\include\libcxx\stdlib.h:122:0
	.fnstart
	.cfi_startproc
@ %bb.0:
	.pad	#4
	sub	sp, #4
	.cfi_def_cfa_offset 4
	vstr	s0, [sp]
.Ltmp44:
	.loc	13 123 26 prologue_end          @ D:\Embed\MDK\MDK\ARM\ARMCompilerV621\Bin\..\include\libcxx\stdlib.h:123:26
	vldr	s0, [sp]
	.loc	13 123 10 is_stmt 0             @ D:\Embed\MDK\MDK\ARM\ARMCompilerV621\Bin\..\include\libcxx\stdlib.h:123:10
	vabs.f32	s0, s0
	.loc	13 123 3 epilogue_begin         @ D:\Embed\MDK\MDK\ARM\ARMCompilerV621\Bin\..\include\libcxx\stdlib.h:123:3
	add	sp, #4
	bx	lr
.Ltmp45:
.Lfunc_end9:
	.size	_Z3absB7v180000f, .Lfunc_end9-_Z3absB7v180000f
	.cfi_endproc
	.cantunwind
	.fnend
                                        @ -- End function
	.section	.text._ZN10OutputPortIfEaSEf,"axG",%progbits,_ZN10OutputPortIfEaSEf,comdat
	.hidden	_ZN10OutputPortIfEaSEf          @ -- Begin function _ZN10OutputPortIfEaSEf
	.weak	_ZN10OutputPortIfEaSEf
	.p2align	2
	.type	_ZN10OutputPortIfEaSEf,%function
	.code	16                              @ @_ZN10OutputPortIfEaSEf
	.thumb_func
_ZN10OutputPortIfEaSEf:
.Lfunc_begin10:
	.loc	11 52 0 is_stmt 1               @ ../MotorControl\component.hpp:52:0
	.fnstart
	.cfi_startproc
@ %bb.0:
	.pad	#8
	sub	sp, #8
	.cfi_def_cfa_offset 8
	str	r0, [sp, #4]
	vstr	s0, [sp]
	ldr	r1, [sp, #4]
.Ltmp46:
	.loc	11 53 20 prologue_end           @ ../MotorControl\component.hpp:53:20
	ldr	r0, [sp]
	.loc	11 53 18 is_stmt 0              @ ../MotorControl\component.hpp:53:18
	str	r0, [r1, #4]
	movs	r0, #0
	.loc	11 54 14 is_stmt 1              @ ../MotorControl\component.hpp:54:14
	str	r0, [r1]
	.loc	11 55 5 epilogue_begin          @ ../MotorControl\component.hpp:55:5
	add	sp, #8
	bx	lr
.Ltmp47:
.Lfunc_end10:
	.size	_ZN10OutputPortIfEaSEf, .Lfunc_end10-_ZN10OutputPortIfEaSEf
	.cfi_endproc
	.cantunwind
	.fnend
                                        @ -- End function
	.section	.text._ZNRSt3__28optionalIfEdeB7v180000Ev,"axG",%progbits,_ZNRSt3__28optionalIfEdeB7v180000Ev,comdat
	.hidden	_ZNRSt3__28optionalIfEdeB7v180000Ev @ -- Begin function _ZNRSt3__28optionalIfEdeB7v180000Ev
	.weak	_ZNRSt3__28optionalIfEdeB7v180000Ev
	.p2align	2
	.type	_ZNRSt3__28optionalIfEdeB7v180000Ev,%function
	.code	16                              @ @_ZNRSt3__28optionalIfEdeB7v180000Ev
	.thumb_func
_ZNRSt3__28optionalIfEdeB7v180000Ev:
.Lfunc_begin11:
	.loc	5 1026 0                        @ D:\Embed\MDK\MDK\ARM\ARMCompilerV621\Bin\..\include\libcxx\optional:1026:0
	.fnstart
	.cfi_startproc
@ %bb.0:
	.save	{r7, lr}
	push	{r7, lr}
	.cfi_def_cfa_offset 8
	.cfi_offset lr, -4
	.cfi_offset r7, -8
	.pad	#8
	sub	sp, #8
	.cfi_def_cfa_offset 16
	str	r0, [sp, #4]
	ldr	r0, [sp, #4]
.Ltmp48:
	.loc	5 1028 22 prologue_end          @ D:\Embed\MDK\MDK\ARM\ARMCompilerV621\Bin\..\include\libcxx\optional:1028:22
	bl	_ZNRSt3__223__optional_storage_baseIfLb0EE5__getB7v180000Ev
	.loc	5 1028 9 epilogue_begin is_stmt 0 @ D:\Embed\MDK\MDK\ARM\ARMCompilerV621\Bin\..\include\libcxx\optional:1028:9
	add	sp, #8
	pop	{r7, pc}
.Ltmp49:
.Lfunc_end11:
	.size	_ZNRSt3__28optionalIfEdeB7v180000Ev, .Lfunc_end11-_ZNRSt3__28optionalIfEdeB7v180000Ev
	.cfi_endproc
	.cantunwind
	.fnend
                                        @ -- End function
	.section	.text._Z10wrap_pm_pif,"axG",%progbits,_Z10wrap_pm_pif,comdat
	.hidden	_Z10wrap_pm_pif                 @ -- Begin function _Z10wrap_pm_pif
	.weak	_Z10wrap_pm_pif
	.p2align	2
	.type	_Z10wrap_pm_pif,%function
	.code	16                              @ @_Z10wrap_pm_pif
	.thumb_func
_Z10wrap_pm_pif:
.Lfunc_begin12:
	.loc	1 139 0 is_stmt 1               @ ../../Firmware\MotorControl/utils.hpp:139:0
	.fnstart
	.cfi_startproc
@ %bb.0:
	.save	{r7, lr}
	push	{r7, lr}
	.cfi_def_cfa_offset 8
	.cfi_offset lr, -4
	.cfi_offset r7, -8
	.pad	#8
	sub	sp, #8
	.cfi_def_cfa_offset 16
	vstr	s0, [sp, #4]
.Ltmp50:
	.loc	1 140 20 prologue_end           @ ../../Firmware\MotorControl/utils.hpp:140:20
	vldr	s0, [sp, #4]
	vldr	s1, .LCPI12_0
	.loc	1 140 12 is_stmt 0              @ ../../Firmware\MotorControl/utils.hpp:140:12
	bl	_Z7wrap_pmff
	.loc	1 140 5 epilogue_begin          @ ../../Firmware\MotorControl/utils.hpp:140:5
	add	sp, #8
	pop	{r7, pc}
.Ltmp51:
	.p2align	2
@ %bb.1:
	.loc	1 0 5                           @ ../../Firmware\MotorControl/utils.hpp:0:5
.LCPI12_0:
	.long	0x40c90fdb                      @ float 6.28318548
.Lfunc_end12:
	.size	_Z10wrap_pm_pif, .Lfunc_end12-_Z10wrap_pm_pif
	.cfi_endproc
	.cantunwind
	.fnend
                                        @ -- End function
	.section	.text._ZNRSt3__223__optional_storage_baseINS_4pairIffEELb0EE5__getB7v180000Ev,"axG",%progbits,_ZNRSt3__223__optional_storage_baseINS_4pairIffEELb0EE5__getB7v180000Ev,comdat
	.hidden	_ZNRSt3__223__optional_storage_baseINS_4pairIffEELb0EE5__getB7v180000Ev @ -- Begin function _ZNRSt3__223__optional_storage_baseINS_4pairIffEELb0EE5__getB7v180000Ev
	.weak	_ZNRSt3__223__optional_storage_baseINS_4pairIffEELb0EE5__getB7v180000Ev
	.p2align	2
	.type	_ZNRSt3__223__optional_storage_baseINS_4pairIffEELb0EE5__getB7v180000Ev,%function
	.code	16                              @ @_ZNRSt3__223__optional_storage_baseINS_4pairIffEELb0EE5__getB7v180000Ev
	.thumb_func
_ZNRSt3__223__optional_storage_baseINS_4pairIffEELb0EE5__getB7v180000Ev:
.Lfunc_begin13:
	.loc	5 392 0 is_stmt 1               @ D:\Embed\MDK\MDK\ARM\ARMCompilerV621\Bin\..\include\libcxx\optional:392:0
	.fnstart
	.cfi_startproc
@ %bb.0:
	.pad	#4
	sub	sp, #4
	.cfi_def_cfa_offset 4
	str	r0, [sp]
	ldr	r0, [sp]
.Ltmp52:
	.loc	5 393 9 prologue_end epilogue_begin @ D:\Embed\MDK\MDK\ARM\ARMCompilerV621\Bin\..\include\libcxx\optional:393:9
	add	sp, #4
	bx	lr
.Ltmp53:
.Lfunc_end13:
	.size	_ZNRSt3__223__optional_storage_baseINS_4pairIffEELb0EE5__getB7v180000Ev, .Lfunc_end13-_ZNRSt3__223__optional_storage_baseINS_4pairIffEELb0EE5__getB7v180000Ev
	.cfi_endproc
	.cantunwind
	.fnend
                                        @ -- End function
	.section	.text._ZNSt3__210__get_pairILj0EE3getB7v180000IffEEOT_ONS_4pairIS3_T0_EE,"axG",%progbits,_ZNSt3__210__get_pairILj0EE3getB7v180000IffEEOT_ONS_4pairIS3_T0_EE,comdat
	.hidden	_ZNSt3__210__get_pairILj0EE3getB7v180000IffEEOT_ONS_4pairIS3_T0_EE @ -- Begin function _ZNSt3__210__get_pairILj0EE3getB7v180000IffEEOT_ONS_4pairIS3_T0_EE
	.weak	_ZNSt3__210__get_pairILj0EE3getB7v180000IffEEOT_ONS_4pairIS3_T0_EE
	.p2align	2
	.type	_ZNSt3__210__get_pairILj0EE3getB7v180000IffEEOT_ONS_4pairIS3_T0_EE,%function
	.code	16                              @ @_ZNSt3__210__get_pairILj0EE3getB7v180000IffEEOT_ONS_4pairIS3_T0_EE
	.thumb_func
_ZNSt3__210__get_pairILj0EE3getB7v180000IffEEOT_ONS_4pairIS3_T0_EE:
.Lfunc_begin14:
	.loc	8 751 0                         @ D:\Embed\MDK\MDK\ARM\ARMCompilerV621\Bin\..\include\libcxx\__utility/pair.h:751:0
	.fnstart
	.cfi_startproc
@ %bb.0:
	.pad	#4
	sub	sp, #4
	.cfi_def_cfa_offset 4
	str	r0, [sp]
.Ltmp54:
	.loc	8 751 67 prologue_end           @ D:\Embed\MDK\MDK\ARM\ARMCompilerV621\Bin\..\include\libcxx\__utility/pair.h:751:67
	ldr	r0, [sp]
	.loc	8 751 42 epilogue_begin is_stmt 0 @ D:\Embed\MDK\MDK\ARM\ARMCompilerV621\Bin\..\include\libcxx\__utility/pair.h:751:42
	add	sp, #4
	bx	lr
.Ltmp55:
.Lfunc_end14:
	.size	_ZNSt3__210__get_pairILj0EE3getB7v180000IffEEOT_ONS_4pairIS3_T0_EE, .Lfunc_end14-_ZNSt3__210__get_pairILj0EE3getB7v180000IffEEOT_ONS_4pairIS3_T0_EE
	.cfi_endproc
	.cantunwind
	.fnend
                                        @ -- End function
	.section	.text._ZNSt3__210__get_pairILj1EE3getB7v180000IffEEOT0_ONS_4pairIT_S3_EE,"axG",%progbits,_ZNSt3__210__get_pairILj1EE3getB7v180000IffEEOT0_ONS_4pairIT_S3_EE,comdat
	.hidden	_ZNSt3__210__get_pairILj1EE3getB7v180000IffEEOT0_ONS_4pairIT_S3_EE @ -- Begin function _ZNSt3__210__get_pairILj1EE3getB7v180000IffEEOT0_ONS_4pairIT_S3_EE
	.weak	_ZNSt3__210__get_pairILj1EE3getB7v180000IffEEOT0_ONS_4pairIT_S3_EE
	.p2align	2
	.type	_ZNSt3__210__get_pairILj1EE3getB7v180000IffEEOT0_ONS_4pairIT_S3_EE,%function
	.code	16                              @ @_ZNSt3__210__get_pairILj1EE3getB7v180000IffEEOT0_ONS_4pairIT_S3_EE
	.thumb_func
_ZNSt3__210__get_pairILj1EE3getB7v180000IffEEOT0_ONS_4pairIT_S3_EE:
.Lfunc_begin15:
	.loc	8 779 0 is_stmt 1               @ D:\Embed\MDK\MDK\ARM\ARMCompilerV621\Bin\..\include\libcxx\__utility/pair.h:779:0
	.fnstart
	.cfi_startproc
@ %bb.0:
	.pad	#4
	sub	sp, #4
	.cfi_def_cfa_offset 4
	str	r0, [sp]
.Ltmp56:
	.loc	8 779 67 prologue_end           @ D:\Embed\MDK\MDK\ARM\ARMCompilerV621\Bin\..\include\libcxx\__utility/pair.h:779:67
	ldr	r0, [sp]
	.loc	8 779 71 is_stmt 0              @ D:\Embed\MDK\MDK\ARM\ARMCompilerV621\Bin\..\include\libcxx\__utility/pair.h:779:71
	adds	r0, #4
	.loc	8 779 42 epilogue_begin         @ D:\Embed\MDK\MDK\ARM\ARMCompilerV621\Bin\..\include\libcxx\__utility/pair.h:779:42
	add	sp, #4
	bx	lr
.Ltmp57:
.Lfunc_end15:
	.size	_ZNSt3__210__get_pairILj1EE3getB7v180000IffEEOT0_ONS_4pairIT_S3_EE, .Lfunc_end15-_ZNSt3__210__get_pairILj1EE3getB7v180000IffEEOT0_ONS_4pairIT_S3_EE
	.cfi_endproc
	.cantunwind
	.fnend
                                        @ -- End function
	.section	.text._ZNRSt3__223__optional_storage_baseIfLb0EE5__getB7v180000Ev,"axG",%progbits,_ZNRSt3__223__optional_storage_baseIfLb0EE5__getB7v180000Ev,comdat
	.hidden	_ZNRSt3__223__optional_storage_baseIfLb0EE5__getB7v180000Ev @ -- Begin function _ZNRSt3__223__optional_storage_baseIfLb0EE5__getB7v180000Ev
	.weak	_ZNRSt3__223__optional_storage_baseIfLb0EE5__getB7v180000Ev
	.p2align	2
	.type	_ZNRSt3__223__optional_storage_baseIfLb0EE5__getB7v180000Ev,%function
	.code	16                              @ @_ZNRSt3__223__optional_storage_baseIfLb0EE5__getB7v180000Ev
	.thumb_func
_ZNRSt3__223__optional_storage_baseIfLb0EE5__getB7v180000Ev:
.Lfunc_begin16:
	.loc	5 392 0 is_stmt 1               @ D:\Embed\MDK\MDK\ARM\ARMCompilerV621\Bin\..\include\libcxx\optional:392:0
	.fnstart
	.cfi_startproc
@ %bb.0:
	.pad	#4
	sub	sp, #4
	.cfi_def_cfa_offset 4
	str	r0, [sp]
	ldr	r0, [sp]
.Ltmp58:
	.loc	5 393 9 prologue_end epilogue_begin @ D:\Embed\MDK\MDK\ARM\ARMCompilerV621\Bin\..\include\libcxx\optional:393:9
	add	sp, #4
	bx	lr
.Ltmp59:
.Lfunc_end16:
	.size	_ZNRSt3__223__optional_storage_baseIfLb0EE5__getB7v180000Ev, .Lfunc_end16-_ZNRSt3__223__optional_storage_baseIfLb0EE5__getB7v180000Ev
	.cfi_endproc
	.cantunwind
	.fnend
                                        @ -- End function
	.section	.text._Z7wrap_pmff,"axG",%progbits,_Z7wrap_pmff,comdat
	.hidden	_Z7wrap_pmff                    @ -- Begin function _Z7wrap_pmff
	.weak	_Z7wrap_pmff
	.p2align	2
	.type	_Z7wrap_pmff,%function
	.code	16                              @ @_Z7wrap_pmff
	.thumb_func
_Z7wrap_pmff:
.Lfunc_begin17:
	.loc	1 123 0                         @ ../../Firmware\MotorControl/utils.hpp:123:0
	.fnstart
	.cfi_startproc
@ %bb.0:
	.save	{r7, lr}
	push	{r7, lr}
	.cfi_def_cfa_offset 8
	.cfi_offset lr, -4
	.cfi_offset r7, -8
	.pad	#16
	sub	sp, #16
	.cfi_def_cfa_offset 24
	vstr	s0, [sp, #12]
	vstr	s1, [sp, #8]
.Ltmp60:
	.loc	1 125 37 prologue_end           @ ../../Firmware\MotorControl/utils.hpp:125:37
	vldr	s0, [sp, #12]
	.loc	1 125 41 is_stmt 0              @ ../../Firmware\MotorControl/utils.hpp:125:41
	vldr	s2, [sp, #8]
	.loc	1 125 39                        @ ../../Firmware\MotorControl/utils.hpp:125:39
	vdiv.f32	s0, s0, s2
	.loc	1 125 27                        @ ../../Firmware\MotorControl/utils.hpp:125:27
	bl	_Z9round_intf
	vmov	s0, r0
	vcvt.f32.s32	s0, s0
	.loc	1 125 11                        @ ../../Firmware\MotorControl/utils.hpp:125:11
	vstr	s0, [sp, #4]
	.loc	1 129 12 is_stmt 1              @ ../../Firmware\MotorControl/utils.hpp:129:12
	vldr	s0, [sp, #12]
	.loc	1 129 16 is_stmt 0              @ ../../Firmware\MotorControl/utils.hpp:129:16
	vldr	s2, [sp, #4]
	.loc	1 129 25                        @ ../../Firmware\MotorControl/utils.hpp:129:25
	vldr	s4, [sp, #8]
	.loc	1 129 14                        @ ../../Firmware\MotorControl/utils.hpp:129:14
	vmul.f32	s2, s2, s4
	vsub.f32	s0, s0, s2
	.loc	1 129 5 epilogue_begin          @ ../../Firmware\MotorControl/utils.hpp:129:5
	add	sp, #16
	pop	{r7, pc}
.Ltmp61:
.Lfunc_end17:
	.size	_Z7wrap_pmff, .Lfunc_end17-_Z7wrap_pmff
	.cfi_endproc
	.cantunwind
	.fnend
                                        @ -- End function
	.section	.text._Z9round_intf,"axG",%progbits,_Z9round_intf,comdat
	.hidden	_Z9round_intf                   @ -- Begin function _Z9round_intf
	.weak	_Z9round_intf
	.p2align	2
	.type	_Z9round_intf,%function
	.code	16                              @ @_Z9round_intf
	.thumb_func
_Z9round_intf:
.Lfunc_begin18:
	.loc	1 108 0 is_stmt 1               @ ../../Firmware\MotorControl/utils.hpp:108:0
	.fnstart
	.cfi_startproc
@ %bb.0:
	.save	{r7, lr}
	push	{r7, lr}
	.cfi_def_cfa_offset 8
	.cfi_offset lr, -4
	.cfi_offset r7, -8
	.pad	#8
	sub	sp, #8
	.cfi_def_cfa_offset 16
	vstr	s0, [sp, #4]
.Ltmp62:
	.loc	1 116 27 prologue_end           @ ../../Firmware\MotorControl/utils.hpp:116:27
	vldr	s0, [sp, #4]
	.loc	1 116 17 is_stmt 0              @ ../../Firmware\MotorControl/utils.hpp:116:17
	bl	_ZNSt3__26__math9nearbyintB7v180000Ef
	vcvt.s32.f32	s0, s0
	vmov	r0, s0
	.loc	1 116 5 epilogue_begin          @ ../../Firmware\MotorControl/utils.hpp:116:5
	add	sp, #8
	pop	{r7, pc}
.Ltmp63:
.Lfunc_end18:
	.size	_Z9round_intf, .Lfunc_end18-_Z9round_intf
	.cfi_endproc
	.cantunwind
	.fnend
                                        @ -- End function
	.section	.text._ZNSt3__26__math9nearbyintB7v180000Ef,"axG",%progbits,_ZNSt3__26__math9nearbyintB7v180000Ef,comdat
	.hidden	_ZNSt3__26__math9nearbyintB7v180000Ef @ -- Begin function _ZNSt3__26__math9nearbyintB7v180000Ef
	.weak	_ZNSt3__26__math9nearbyintB7v180000Ef
	.p2align	2
	.type	_ZNSt3__26__math9nearbyintB7v180000Ef,%function
	.code	16                              @ @_ZNSt3__26__math9nearbyintB7v180000Ef
	.thumb_func
_ZNSt3__26__math9nearbyintB7v180000Ef:
.Lfunc_begin19:
	.file	14 "D:\\Embed\\MDK\\MDK\\ARM\\ARMCompilerV621\\Bin\\..\\include\\libcxx\\__math" "rounding_functions.h"
	.loc	14 150 0 is_stmt 1              @ D:\Embed\MDK\MDK\ARM\ARMCompilerV621\Bin\..\include\libcxx\__math/rounding_functions.h:150:0
	.fnstart
	.cfi_startproc
@ %bb.0:
	.save	{r7, lr}
	push	{r7, lr}
	.cfi_def_cfa_offset 8
	.cfi_offset lr, -4
	.cfi_offset r7, -8
	.pad	#8
	sub	sp, #8
	.cfi_def_cfa_offset 16
	vstr	s0, [sp, #4]
.Ltmp64:
	.loc	14 151 31 prologue_end          @ D:\Embed\MDK\MDK\ARM\ARMCompilerV621\Bin\..\include\libcxx\__math/rounding_functions.h:151:31
	vldr	s0, [sp, #4]
	.loc	14 151 10 is_stmt 0             @ D:\Embed\MDK\MDK\ARM\ARMCompilerV621\Bin\..\include\libcxx\__math/rounding_functions.h:151:10
	bl	__hardfp_nearbyintf
	.loc	14 151 3 epilogue_begin         @ D:\Embed\MDK\MDK\ARM\ARMCompilerV621\Bin\..\include\libcxx\__math/rounding_functions.h:151:3
	add	sp, #8
	pop	{r7, pc}
.Ltmp65:
.Lfunc_end19:
	.size	_ZNSt3__26__math9nearbyintB7v180000Ef, .Lfunc_end19-_ZNSt3__26__math9nearbyintB7v180000Ef
	.cfi_endproc
	.cantunwind
	.fnend
                                        @ -- End function
	.section	.text._ZNKSt3__27variantIJfPfP10OutputPortIfEEE5indexB7v180000Ev,"axG",%progbits,_ZNKSt3__27variantIJfPfP10OutputPortIfEEE5indexB7v180000Ev,comdat
	.hidden	_ZNKSt3__27variantIJfPfP10OutputPortIfEEE5indexB7v180000Ev @ -- Begin function _ZNKSt3__27variantIJfPfP10OutputPortIfEEE5indexB7v180000Ev
	.weak	_ZNKSt3__27variantIJfPfP10OutputPortIfEEE5indexB7v180000Ev
	.p2align	2
	.type	_ZNKSt3__27variantIJfPfP10OutputPortIfEEE5indexB7v180000Ev,%function
	.code	16                              @ @_ZNKSt3__27variantIJfPfP10OutputPortIfEEE5indexB7v180000Ev
	.thumb_func
_ZNKSt3__27variantIJfPfP10OutputPortIfEEE5indexB7v180000Ev:
.Lfunc_begin20:
	.loc	2 1474 0 is_stmt 1              @ D:\Embed\MDK\MDK\ARM\ARMCompilerV621\Bin\..\include\libcxx\variant:1474:0
	.fnstart
	.cfi_startproc
@ %bb.0:
	.save	{r7, lr}
	push	{r7, lr}
	.cfi_def_cfa_offset 8
	.cfi_offset lr, -4
	.cfi_offset r7, -8
	.pad	#8
	sub	sp, #8
	.cfi_def_cfa_offset 16
	str	r0, [sp, #4]
	ldr	r0, [sp, #4]
.Ltmp66:
	.loc	2 1474 60 prologue_end          @ D:\Embed\MDK\MDK\ARM\ARMCompilerV621\Bin\..\include\libcxx\variant:1474:60
	bl	_ZNKSt3__216__variant_detail6__baseILNS0_6_TraitE0EJfPfP10OutputPortIfEEE5indexB7v180000Ev
	.loc	2 1474 45 epilogue_begin is_stmt 0 @ D:\Embed\MDK\MDK\ARM\ARMCompilerV621\Bin\..\include\libcxx\variant:1474:45
	add	sp, #8
	pop	{r7, pc}
.Ltmp67:
.Lfunc_end20:
	.size	_ZNKSt3__27variantIJfPfP10OutputPortIfEEE5indexB7v180000Ev, .Lfunc_end20-_ZNKSt3__27variantIJfPfP10OutputPortIfEEE5indexB7v180000Ev
	.cfi_endproc
	.cantunwind
	.fnend
                                        @ -- End function
	.section	.text._ZNSt3__23getB7v180000ILj2EJfPfP10OutputPortIfEEEERNS_19variant_alternativeIXT_ENS_7variantIJDpT0_EEEE4typeERS9_,"axG",%progbits,_ZNSt3__23getB7v180000ILj2EJfPfP10OutputPortIfEEEERNS_19variant_alternativeIXT_ENS_7variantIJDpT0_EEEE4typeERS9_,comdat
	.hidden	_ZNSt3__23getB7v180000ILj2EJfPfP10OutputPortIfEEEERNS_19variant_alternativeIXT_ENS_7variantIJDpT0_EEEE4typeERS9_ @ -- Begin function _ZNSt3__23getB7v180000ILj2EJfPfP10OutputPortIfEEEERNS_19variant_alternativeIXT_ENS_7variantIJDpT0_EEEE4typeERS9_
	.weak	_ZNSt3__23getB7v180000ILj2EJfPfP10OutputPortIfEEEERNS_19variant_alternativeIXT_ENS_7variantIJDpT0_EEEE4typeERS9_
	.p2align	2
	.type	_ZNSt3__23getB7v180000ILj2EJfPfP10OutputPortIfEEEERNS_19variant_alternativeIXT_ENS_7variantIJDpT0_EEEE4typeERS9_,%function
	.code	16                              @ @_ZNSt3__23getB7v180000ILj2EJfPfP10OutputPortIfEEEERNS_19variant_alternativeIXT_ENS_7variantIJDpT0_EEEE4typeERS9_
	.thumb_func
_ZNSt3__23getB7v180000ILj2EJfPfP10OutputPortIfEEEERNS_19variant_alternativeIXT_ENS_7variantIJDpT0_EEEE4typeERS9_:
.Lfunc_begin21:
	.loc	2 1524 0 is_stmt 1              @ D:\Embed\MDK\MDK\ARM\ARMCompilerV621\Bin\..\include\libcxx\variant:1524:0
	.fnstart
	.cfi_startproc
@ %bb.0:
	.save	{r7, lr}
	push	{r7, lr}
	.cfi_def_cfa_offset 8
	.cfi_offset lr, -4
	.cfi_offset r7, -8
	.pad	#8
	sub	sp, #8
	.cfi_def_cfa_offset 16
	str	r0, [sp, #4]
.Ltmp68:
	.loc	2 1527 34 prologue_end          @ D:\Embed\MDK\MDK\ARM\ARMCompilerV621\Bin\..\include\libcxx\variant:1527:34
	ldr	r0, [sp, #4]
	.loc	2 1527 10 is_stmt 0             @ D:\Embed\MDK\MDK\ARM\ARMCompilerV621\Bin\..\include\libcxx\variant:1527:10
	bl	_ZNSt3__213__generic_getB7v180000ILj2ERNS_7variantIJfPfP10OutputPortIfEEEEEEODaOT0_
	.loc	2 1527 3 epilogue_begin         @ D:\Embed\MDK\MDK\ARM\ARMCompilerV621\Bin\..\include\libcxx\variant:1527:3
	add	sp, #8
	pop	{r7, pc}
.Ltmp69:
.Lfunc_end21:
	.size	_ZNSt3__23getB7v180000ILj2EJfPfP10OutputPortIfEEEERNS_19variant_alternativeIXT_ENS_7variantIJDpT0_EEEE4typeERS9_, .Lfunc_end21-_ZNSt3__23getB7v180000ILj2EJfPfP10OutputPortIfEEEERNS_19variant_alternativeIXT_ENS_7variantIJDpT0_EEEE4typeERS9_
	.cfi_endproc
	.cantunwind
	.fnend
                                        @ -- End function
	.section	.text._ZN10OutputPortIfE7presentEv,"axG",%progbits,_ZN10OutputPortIfE7presentEv,comdat
	.hidden	_ZN10OutputPortIfE7presentEv    @ -- Begin function _ZN10OutputPortIfE7presentEv
	.weak	_ZN10OutputPortIfE7presentEv
	.p2align	2
	.type	_ZN10OutputPortIfE7presentEv,%function
	.code	16                              @ @_ZN10OutputPortIfE7presentEv
	.thumb_func
_ZN10OutputPortIfE7presentEv:
.Lfunc_begin22:
	.loc	11 73 0 is_stmt 1               @ ../MotorControl\component.hpp:73:0
	.fnstart
	.cfi_startproc
@ %bb.0:
	.save	{r7, lr}
	push	{r7, lr}
	.cfi_def_cfa_offset 8
	.cfi_offset lr, -4
	.cfi_offset r7, -8
	.pad	#16
	sub	sp, #16
	.cfi_def_cfa_offset 24
	str	r0, [sp]                        @ 4-byte Spill
	str	r1, [sp, #12]
	ldr	r0, [sp, #12]
.Ltmp70:
	.loc	11 74 13 prologue_end           @ ../MotorControl\component.hpp:74:13
	str	r0, [sp, #4]                    @ 4-byte Spill
	ldr	r0, [r0]
.Ltmp71:
	.loc	11 74 13 is_stmt 0              @ ../MotorControl\component.hpp:74:13
	cbnz	r0, .LBB22_2
	b	.LBB22_1
.LBB22_1:
.Ltmp72:
	.loc	11 75 20 is_stmt 1              @ ../MotorControl\component.hpp:75:20
	ldr	r0, [sp]                        @ 4-byte Reload
	ldr	r1, [sp, #4]                    @ 4-byte Reload
	adds	r1, #4
	bl	_ZNSt3__28optionalIfEC2B7v180000IRfLi0EEEOT_
	.loc	11 75 13 is_stmt 0              @ ../MotorControl\component.hpp:75:13
	b	.LBB22_3
.Ltmp73:
.LBB22_2:
	.loc	11 77 20 is_stmt 1              @ ../MotorControl\component.hpp:77:20
	ldr	r0, [sp]                        @ 4-byte Reload
	bl	_ZNSt3__28optionalIfEC2B7v180000ENS_9nullopt_tE
	.loc	11 77 13 is_stmt 0              @ ../MotorControl\component.hpp:77:13
	b	.LBB22_3
.Ltmp74:
.LBB22_3:
	.loc	11 79 5 epilogue_begin is_stmt 1 @ ../MotorControl\component.hpp:79:5
	add	sp, #16
	pop	{r7, pc}
.Ltmp75:
.Lfunc_end22:
	.size	_ZN10OutputPortIfE7presentEv, .Lfunc_end22-_ZN10OutputPortIfE7presentEv
	.cfi_endproc
	.cantunwind
	.fnend
                                        @ -- End function
	.section	.text._ZNSt3__28optionalIfEC2B7v180000ENS_9nullopt_tE,"axG",%progbits,_ZNSt3__28optionalIfEC2B7v180000ENS_9nullopt_tE,comdat
	.hidden	_ZNSt3__28optionalIfEC2B7v180000ENS_9nullopt_tE @ -- Begin function _ZNSt3__28optionalIfEC2B7v180000ENS_9nullopt_tE
	.weak	_ZNSt3__28optionalIfEC2B7v180000ENS_9nullopt_tE
	.p2align	2
	.type	_ZNSt3__28optionalIfEC2B7v180000ENS_9nullopt_tE,%function
	.code	16                              @ @_ZNSt3__28optionalIfEC2B7v180000ENS_9nullopt_tE
	.thumb_func
_ZNSt3__28optionalIfEC2B7v180000ENS_9nullopt_tE:
.Lfunc_begin23:
	.loc	5 803 0                         @ D:\Embed\MDK\MDK\ARM\ARMCompilerV621\Bin\..\include\libcxx\optional:803:0
	.fnstart
	.cfi_startproc
@ %bb.0:
	.save	{r7, lr}
	push	{r7, lr}
	.cfi_def_cfa_offset 8
	.cfi_offset lr, -4
	.cfi_offset r7, -8
	.pad	#16
	sub	sp, #16
	.cfi_def_cfa_offset 24
	str	r0, [sp, #8]
	ldr	r0, [sp, #8]
.Ltmp76:
	.loc	5 803 41 prologue_end           @ D:\Embed\MDK\MDK\ARM\ARMCompilerV621\Bin\..\include\libcxx\optional:803:41
	str	r0, [sp, #4]                    @ 4-byte Spill
	bl	_ZNSt3__227__optional_move_assign_baseIfLb1EEC2Ev
	ldr	r0, [sp, #4]                    @ 4-byte Reload
	.loc	5 803 71 epilogue_begin is_stmt 0 @ D:\Embed\MDK\MDK\ARM\ARMCompilerV621\Bin\..\include\libcxx\optional:803:71
	add	sp, #16
	pop	{r7, pc}
.Ltmp77:
.Lfunc_end23:
	.size	_ZNSt3__28optionalIfEC2B7v180000ENS_9nullopt_tE, .Lfunc_end23-_ZNSt3__28optionalIfEC2B7v180000ENS_9nullopt_tE
	.cfi_endproc
	.cantunwind
	.fnend
                                        @ -- End function
	.section	.text._ZNSt3__23getB7v180000ILj1EJfPfP10OutputPortIfEEEERNS_19variant_alternativeIXT_ENS_7variantIJDpT0_EEEE4typeERS9_,"axG",%progbits,_ZNSt3__23getB7v180000ILj1EJfPfP10OutputPortIfEEEERNS_19variant_alternativeIXT_ENS_7variantIJDpT0_EEEE4typeERS9_,comdat
	.hidden	_ZNSt3__23getB7v180000ILj1EJfPfP10OutputPortIfEEEERNS_19variant_alternativeIXT_ENS_7variantIJDpT0_EEEE4typeERS9_ @ -- Begin function _ZNSt3__23getB7v180000ILj1EJfPfP10OutputPortIfEEEERNS_19variant_alternativeIXT_ENS_7variantIJDpT0_EEEE4typeERS9_
	.weak	_ZNSt3__23getB7v180000ILj1EJfPfP10OutputPortIfEEEERNS_19variant_alternativeIXT_ENS_7variantIJDpT0_EEEE4typeERS9_
	.p2align	2
	.type	_ZNSt3__23getB7v180000ILj1EJfPfP10OutputPortIfEEEERNS_19variant_alternativeIXT_ENS_7variantIJDpT0_EEEE4typeERS9_,%function
	.code	16                              @ @_ZNSt3__23getB7v180000ILj1EJfPfP10OutputPortIfEEEERNS_19variant_alternativeIXT_ENS_7variantIJDpT0_EEEE4typeERS9_
	.thumb_func
_ZNSt3__23getB7v180000ILj1EJfPfP10OutputPortIfEEEERNS_19variant_alternativeIXT_ENS_7variantIJDpT0_EEEE4typeERS9_:
.Lfunc_begin24:
	.loc	2 1524 0 is_stmt 1              @ D:\Embed\MDK\MDK\ARM\ARMCompilerV621\Bin\..\include\libcxx\variant:1524:0
	.fnstart
	.cfi_startproc
@ %bb.0:
	.save	{r7, lr}
	push	{r7, lr}
	.cfi_def_cfa_offset 8
	.cfi_offset lr, -4
	.cfi_offset r7, -8
	.pad	#8
	sub	sp, #8
	.cfi_def_cfa_offset 16
	str	r0, [sp, #4]
.Ltmp78:
	.loc	2 1527 34 prologue_end          @ D:\Embed\MDK\MDK\ARM\ARMCompilerV621\Bin\..\include\libcxx\variant:1527:34
	ldr	r0, [sp, #4]
	.loc	2 1527 10 is_stmt 0             @ D:\Embed\MDK\MDK\ARM\ARMCompilerV621\Bin\..\include\libcxx\variant:1527:10
	bl	_ZNSt3__213__generic_getB7v180000ILj1ERNS_7variantIJfPfP10OutputPortIfEEEEEEODaOT0_
	.loc	2 1527 3 epilogue_begin         @ D:\Embed\MDK\MDK\ARM\ARMCompilerV621\Bin\..\include\libcxx\variant:1527:3
	add	sp, #8
	pop	{r7, pc}
.Ltmp79:
.Lfunc_end24:
	.size	_ZNSt3__23getB7v180000ILj1EJfPfP10OutputPortIfEEEERNS_19variant_alternativeIXT_ENS_7variantIJDpT0_EEEE4typeERS9_, .Lfunc_end24-_ZNSt3__23getB7v180000ILj1EJfPfP10OutputPortIfEEEERNS_19variant_alternativeIXT_ENS_7variantIJDpT0_EEEE4typeERS9_
	.cfi_endproc
	.cantunwind
	.fnend
                                        @ -- End function
	.section	.text._ZNSt3__213make_optionalB7v180000IRfEENS_8optionalIu7__decayIT_EEEOS3_,"axG",%progbits,_ZNSt3__213make_optionalB7v180000IRfEENS_8optionalIu7__decayIT_EEEOS3_,comdat
	.hidden	_ZNSt3__213make_optionalB7v180000IRfEENS_8optionalIu7__decayIT_EEEOS3_ @ -- Begin function _ZNSt3__213make_optionalB7v180000IRfEENS_8optionalIu7__decayIT_EEEOS3_
	.weak	_ZNSt3__213make_optionalB7v180000IRfEENS_8optionalIu7__decayIT_EEEOS3_
	.p2align	2
	.type	_ZNSt3__213make_optionalB7v180000IRfEENS_8optionalIu7__decayIT_EEEOS3_,%function
	.code	16                              @ @_ZNSt3__213make_optionalB7v180000IRfEENS_8optionalIu7__decayIT_EEEOS3_
	.thumb_func
_ZNSt3__213make_optionalB7v180000IRfEENS_8optionalIu7__decayIT_EEEOS3_:
.Lfunc_begin25:
	.loc	5 1637 0 is_stmt 1              @ D:\Embed\MDK\MDK\ARM\ARMCompilerV621\Bin\..\include\libcxx\optional:1637:0
	.fnstart
	.cfi_startproc
@ %bb.0:
	.save	{r7, lr}
	push	{r7, lr}
	.cfi_def_cfa_offset 8
	.cfi_offset lr, -4
	.cfi_offset r7, -8
	.pad	#8
	sub	sp, #8
	.cfi_def_cfa_offset 16
	str	r1, [sp, #4]
.Ltmp80:
	.loc	5 1638 55 prologue_end          @ D:\Embed\MDK\MDK\ARM\ARMCompilerV621\Bin\..\include\libcxx\optional:1638:55
	ldr	r1, [sp, #4]
	.loc	5 1638 12 is_stmt 0             @ D:\Embed\MDK\MDK\ARM\ARMCompilerV621\Bin\..\include\libcxx\optional:1638:12
	bl	_ZNSt3__28optionalIfEC2B7v180000IRfLi0EEEOT_
	.loc	5 1638 5 epilogue_begin         @ D:\Embed\MDK\MDK\ARM\ARMCompilerV621\Bin\..\include\libcxx\optional:1638:5
	add	sp, #8
	pop	{r7, pc}
.Ltmp81:
.Lfunc_end25:
	.size	_ZNSt3__213make_optionalB7v180000IRfEENS_8optionalIu7__decayIT_EEEOS3_, .Lfunc_end25-_ZNSt3__213make_optionalB7v180000IRfEENS_8optionalIu7__decayIT_EEEOS3_
	.cfi_endproc
	.cantunwind
	.fnend
                                        @ -- End function
	.section	.text._ZNSt3__23getB7v180000ILj0EJfPfP10OutputPortIfEEEERNS_19variant_alternativeIXT_ENS_7variantIJDpT0_EEEE4typeERS9_,"axG",%progbits,_ZNSt3__23getB7v180000ILj0EJfPfP10OutputPortIfEEEERNS_19variant_alternativeIXT_ENS_7variantIJDpT0_EEEE4typeERS9_,comdat
	.hidden	_ZNSt3__23getB7v180000ILj0EJfPfP10OutputPortIfEEEERNS_19variant_alternativeIXT_ENS_7variantIJDpT0_EEEE4typeERS9_ @ -- Begin function _ZNSt3__23getB7v180000ILj0EJfPfP10OutputPortIfEEEERNS_19variant_alternativeIXT_ENS_7variantIJDpT0_EEEE4typeERS9_
	.weak	_ZNSt3__23getB7v180000ILj0EJfPfP10OutputPortIfEEEERNS_19variant_alternativeIXT_ENS_7variantIJDpT0_EEEE4typeERS9_
	.p2align	2
	.type	_ZNSt3__23getB7v180000ILj0EJfPfP10OutputPortIfEEEERNS_19variant_alternativeIXT_ENS_7variantIJDpT0_EEEE4typeERS9_,%function
	.code	16                              @ @_ZNSt3__23getB7v180000ILj0EJfPfP10OutputPortIfEEEERNS_19variant_alternativeIXT_ENS_7variantIJDpT0_EEEE4typeERS9_
	.thumb_func
_ZNSt3__23getB7v180000ILj0EJfPfP10OutputPortIfEEEERNS_19variant_alternativeIXT_ENS_7variantIJDpT0_EEEE4typeERS9_:
.Lfunc_begin26:
	.loc	2 1524 0 is_stmt 1              @ D:\Embed\MDK\MDK\ARM\ARMCompilerV621\Bin\..\include\libcxx\variant:1524:0
	.fnstart
	.cfi_startproc
@ %bb.0:
	.save	{r7, lr}
	push	{r7, lr}
	.cfi_def_cfa_offset 8
	.cfi_offset lr, -4
	.cfi_offset r7, -8
	.pad	#8
	sub	sp, #8
	.cfi_def_cfa_offset 16
	str	r0, [sp, #4]
.Ltmp82:
	.loc	2 1527 34 prologue_end          @ D:\Embed\MDK\MDK\ARM\ARMCompilerV621\Bin\..\include\libcxx\variant:1527:34
	ldr	r0, [sp, #4]
	.loc	2 1527 10 is_stmt 0             @ D:\Embed\MDK\MDK\ARM\ARMCompilerV621\Bin\..\include\libcxx\variant:1527:10
	bl	_ZNSt3__213__generic_getB7v180000ILj0ERNS_7variantIJfPfP10OutputPortIfEEEEEEODaOT0_
	.loc	2 1527 3 epilogue_begin         @ D:\Embed\MDK\MDK\ARM\ARMCompilerV621\Bin\..\include\libcxx\variant:1527:3
	add	sp, #8
	pop	{r7, pc}
.Ltmp83:
.Lfunc_end26:
	.size	_ZNSt3__23getB7v180000ILj0EJfPfP10OutputPortIfEEEERNS_19variant_alternativeIXT_ENS_7variantIJDpT0_EEEE4typeERS9_, .Lfunc_end26-_ZNSt3__23getB7v180000ILj0EJfPfP10OutputPortIfEEEERNS_19variant_alternativeIXT_ENS_7variantIJDpT0_EEEE4typeERS9_
	.cfi_endproc
	.cantunwind
	.fnend
                                        @ -- End function
	.section	.text._ZNSt3__28optionalIfEC2B7v180000IRfLi0EEEOT_,"axG",%progbits,_ZNSt3__28optionalIfEC2B7v180000IRfLi0EEEOT_,comdat
	.hidden	_ZNSt3__28optionalIfEC2B7v180000IRfLi0EEEOT_ @ -- Begin function _ZNSt3__28optionalIfEC2B7v180000IRfLi0EEEOT_
	.weak	_ZNSt3__28optionalIfEC2B7v180000IRfLi0EEEOT_
	.p2align	2
	.type	_ZNSt3__28optionalIfEC2B7v180000IRfLi0EEEOT_,%function
	.code	16                              @ @_ZNSt3__28optionalIfEC2B7v180000IRfLi0EEEOT_
	.thumb_func
_ZNSt3__28optionalIfEC2B7v180000IRfLi0EEEOT_:
.Lfunc_begin27:
	.loc	5 828 0 is_stmt 1               @ D:\Embed\MDK\MDK\ARM\ARMCompilerV621\Bin\..\include\libcxx\optional:828:0
	.fnstart
	.cfi_startproc
@ %bb.0:
	.save	{r7, lr}
	push	{r7, lr}
	.cfi_def_cfa_offset 8
	.cfi_offset lr, -4
	.cfi_offset r7, -8
	.pad	#16
	sub	sp, #16
	.cfi_def_cfa_offset 24
	str	r0, [sp, #12]
	str	r1, [sp, #8]
	ldr	r0, [sp, #12]
.Ltmp84:
	.loc	5 828 48 prologue_end           @ D:\Embed\MDK\MDK\ARM\ARMCompilerV621\Bin\..\include\libcxx\optional:828:48
	str	r0, [sp]                        @ 4-byte Spill
	ldr	r1, [sp, #8]
	.loc	5 828 11 is_stmt 0              @ D:\Embed\MDK\MDK\ARM\ARMCompilerV621\Bin\..\include\libcxx\optional:828:11
	bl	_ZNSt3__227__optional_move_assign_baseIfLb1EECI2NS_24__optional_destruct_baseIfLb1EEEIJRfEEENS_10in_place_tEDpOT_
	ldr	r0, [sp]                        @ 4-byte Reload
	.loc	5 828 55 epilogue_begin         @ D:\Embed\MDK\MDK\ARM\ARMCompilerV621\Bin\..\include\libcxx\optional:828:55
	add	sp, #16
	pop	{r7, pc}
.Ltmp85:
.Lfunc_end27:
	.size	_ZNSt3__28optionalIfEC2B7v180000IRfLi0EEEOT_, .Lfunc_end27-_ZNSt3__28optionalIfEC2B7v180000IRfLi0EEEOT_
	.cfi_endproc
	.cantunwind
	.fnend
                                        @ -- End function
	.section	.text._ZNKSt3__216__variant_detail6__baseILNS0_6_TraitE0EJfPfP10OutputPortIfEEE5indexB7v180000Ev,"axG",%progbits,_ZNKSt3__216__variant_detail6__baseILNS0_6_TraitE0EJfPfP10OutputPortIfEEE5indexB7v180000Ev,comdat
	.hidden	_ZNKSt3__216__variant_detail6__baseILNS0_6_TraitE0EJfPfP10OutputPortIfEEE5indexB7v180000Ev @ -- Begin function _ZNKSt3__216__variant_detail6__baseILNS0_6_TraitE0EJfPfP10OutputPortIfEEE5indexB7v180000Ev
	.weak	_ZNKSt3__216__variant_detail6__baseILNS0_6_TraitE0EJfPfP10OutputPortIfEEE5indexB7v180000Ev
	.p2align	2
	.type	_ZNKSt3__216__variant_detail6__baseILNS0_6_TraitE0EJfPfP10OutputPortIfEEE5indexB7v180000Ev,%function
	.code	16                              @ @_ZNKSt3__216__variant_detail6__baseILNS0_6_TraitE0EJfPfP10OutputPortIfEEE5indexB7v180000Ev
	.thumb_func
_ZNKSt3__216__variant_detail6__baseILNS0_6_TraitE0EJfPfP10OutputPortIfEEE5indexB7v180000Ev:
.Lfunc_begin28:
	.loc	2 820 0 is_stmt 1               @ D:\Embed\MDK\MDK\ARM\ARMCompilerV621\Bin\..\include\libcxx\variant:820:0
	.fnstart
	.cfi_startproc
@ %bb.0:
	.pad	#12
	sub	sp, #12
	.cfi_def_cfa_offset 12
	str	r0, [sp, #8]
	ldr	r0, [sp, #8]
.Ltmp86:
	.loc	2 821 12 prologue_end           @ D:\Embed\MDK\MDK\ARM\ARMCompilerV621\Bin\..\include\libcxx\variant:821:12
	str	r0, [sp, #4]                    @ 4-byte Spill
	ldrb	r0, [r0, #4]
	cmp	r0, #255
	bne	.LBB28_2
	b	.LBB28_1
.LBB28_1:
	.loc	2 0 12 is_stmt 0                @ D:\Embed\MDK\MDK\ARM\ARMCompilerV621\Bin\..\include\libcxx\variant:0:12
	mov.w	r0, #-1
	.loc	2 821 12                        @ D:\Embed\MDK\MDK\ARM\ARMCompilerV621\Bin\..\include\libcxx\variant:821:12
	str	r0, [sp]                        @ 4-byte Spill
	b	.LBB28_3
.LBB28_2:
	.loc	2 821 66                        @ D:\Embed\MDK\MDK\ARM\ARMCompilerV621\Bin\..\include\libcxx\variant:821:66
	ldr	r0, [sp, #4]                    @ 4-byte Reload
	ldrb	r0, [r0, #4]
	.loc	2 821 12                        @ D:\Embed\MDK\MDK\ARM\ARMCompilerV621\Bin\..\include\libcxx\variant:821:12
	str	r0, [sp]                        @ 4-byte Spill
	b	.LBB28_3
.LBB28_3:
	ldr	r0, [sp]                        @ 4-byte Reload
	.loc	2 821 5 epilogue_begin          @ D:\Embed\MDK\MDK\ARM\ARMCompilerV621\Bin\..\include\libcxx\variant:821:5
	add	sp, #12
	bx	lr
.Ltmp87:
.Lfunc_end28:
	.size	_ZNKSt3__216__variant_detail6__baseILNS0_6_TraitE0EJfPfP10OutputPortIfEEE5indexB7v180000Ev, .Lfunc_end28-_ZNKSt3__216__variant_detail6__baseILNS0_6_TraitE0EJfPfP10OutputPortIfEEE5indexB7v180000Ev
	.cfi_endproc
	.cantunwind
	.fnend
                                        @ -- End function
	.section	.text._ZNSt3__213__generic_getB7v180000ILj2ERNS_7variantIJfPfP10OutputPortIfEEEEEEODaOT0_,"axG",%progbits,_ZNSt3__213__generic_getB7v180000ILj2ERNS_7variantIJfPfP10OutputPortIfEEEEEEODaOT0_,comdat
	.hidden	_ZNSt3__213__generic_getB7v180000ILj2ERNS_7variantIJfPfP10OutputPortIfEEEEEEODaOT0_ @ -- Begin function _ZNSt3__213__generic_getB7v180000ILj2ERNS_7variantIJfPfP10OutputPortIfEEEEEEODaOT0_
	.weak	_ZNSt3__213__generic_getB7v180000ILj2ERNS_7variantIJfPfP10OutputPortIfEEEEEEODaOT0_
	.p2align	2
	.type	_ZNSt3__213__generic_getB7v180000ILj2ERNS_7variantIJfPfP10OutputPortIfEEEEEEODaOT0_,%function
	.code	16                              @ @_ZNSt3__213__generic_getB7v180000ILj2ERNS_7variantIJfPfP10OutputPortIfEEEEEEODaOT0_
	.thumb_func
_ZNSt3__213__generic_getB7v180000ILj2ERNS_7variantIJfPfP10OutputPortIfEEEEEEODaOT0_:
.Lfunc_begin29:
	.loc	2 1512 0 is_stmt 1              @ D:\Embed\MDK\MDK\ARM\ARMCompilerV621\Bin\..\include\libcxx\variant:1512:0
	.fnstart
	.cfi_startproc
@ %bb.0:
	.save	{r7, lr}
	push	{r7, lr}
	.cfi_def_cfa_offset 8
	.cfi_offset lr, -4
	.cfi_offset r7, -8
	.pad	#8
	sub	sp, #8
	.cfi_def_cfa_offset 16
	str	r0, [sp, #4]
.Ltmp88:
	.loc	2 1514 38 prologue_end          @ D:\Embed\MDK\MDK\ARM\ARMCompilerV621\Bin\..\include\libcxx\variant:1514:38
	ldr	r0, [sp, #4]
	.loc	2 1514 8 is_stmt 0              @ D:\Embed\MDK\MDK\ARM\ARMCompilerV621\Bin\..\include\libcxx\variant:1514:8
	bl	_ZNSt3__219__holds_alternativeB7v180000ILj2EJfPfP10OutputPortIfEEEEbRKNS_7variantIJDpT0_EEE
.Ltmp89:
	.loc	2 1514 7                        @ D:\Embed\MDK\MDK\ARM\ARMCompilerV621\Bin\..\include\libcxx\variant:1514:7
	cbnz	r0, .LBB29_2
	b	.LBB29_1
.LBB29_1:
.Ltmp90:
	.loc	2 1515 5 is_stmt 1              @ D:\Embed\MDK\MDK\ARM\ARMCompilerV621\Bin\..\include\libcxx\variant:1515:5
	bl	_ZNSt3__226__throw_bad_variant_accessB7v180000Ev
.Ltmp91:
.LBB29_2:
	.loc	2 1517 56                       @ D:\Embed\MDK\MDK\ARM\ARMCompilerV621\Bin\..\include\libcxx\variant:1517:56
	ldr	r0, [sp, #4]
	.loc	2 1517 10 is_stmt 0             @ D:\Embed\MDK\MDK\ARM\ARMCompilerV621\Bin\..\include\libcxx\variant:1517:10
	bl	_ZNSt3__216__variant_detail8__access9__variant9__get_altB7v180000ILj2ERNS_7variantIJfPfP10OutputPortIfEEEEEEODaOT0_
	.loc	2 1517 3 epilogue_begin         @ D:\Embed\MDK\MDK\ARM\ARMCompilerV621\Bin\..\include\libcxx\variant:1517:3
	add	sp, #8
	pop	{r7, pc}
.Ltmp92:
.Lfunc_end29:
	.size	_ZNSt3__213__generic_getB7v180000ILj2ERNS_7variantIJfPfP10OutputPortIfEEEEEEODaOT0_, .Lfunc_end29-_ZNSt3__213__generic_getB7v180000ILj2ERNS_7variantIJfPfP10OutputPortIfEEEEEEODaOT0_
	.cfi_endproc
	.cantunwind
	.fnend
                                        @ -- End function
	.section	.text._ZNSt3__219__holds_alternativeB7v180000ILj2EJfPfP10OutputPortIfEEEEbRKNS_7variantIJDpT0_EEE,"axG",%progbits,_ZNSt3__219__holds_alternativeB7v180000ILj2EJfPfP10OutputPortIfEEEEbRKNS_7variantIJDpT0_EEE,comdat
	.hidden	_ZNSt3__219__holds_alternativeB7v180000ILj2EJfPfP10OutputPortIfEEEEbRKNS_7variantIJDpT0_EEE @ -- Begin function _ZNSt3__219__holds_alternativeB7v180000ILj2EJfPfP10OutputPortIfEEEEbRKNS_7variantIJDpT0_EEE
	.weak	_ZNSt3__219__holds_alternativeB7v180000ILj2EJfPfP10OutputPortIfEEEEbRKNS_7variantIJDpT0_EEE
	.p2align	2
	.type	_ZNSt3__219__holds_alternativeB7v180000ILj2EJfPfP10OutputPortIfEEEEbRKNS_7variantIJDpT0_EEE,%function
	.code	16                              @ @_ZNSt3__219__holds_alternativeB7v180000ILj2EJfPfP10OutputPortIfEEEEbRKNS_7variantIJDpT0_EEE
	.thumb_func
_ZNSt3__219__holds_alternativeB7v180000ILj2EJfPfP10OutputPortIfEEEEbRKNS_7variantIJDpT0_EEE:
.Lfunc_begin30:
	.loc	2 1499 0 is_stmt 1              @ D:\Embed\MDK\MDK\ARM\ARMCompilerV621\Bin\..\include\libcxx\variant:1499:0
	.fnstart
	.cfi_startproc
@ %bb.0:
	.save	{r7, lr}
	push	{r7, lr}
	.cfi_def_cfa_offset 8
	.cfi_offset lr, -4
	.cfi_offset r7, -8
	.pad	#8
	sub	sp, #8
	.cfi_def_cfa_offset 16
	str	r0, [sp, #4]
.Ltmp93:
	.loc	2 1500 10 prologue_end          @ D:\Embed\MDK\MDK\ARM\ARMCompilerV621\Bin\..\include\libcxx\variant:1500:10
	ldr	r0, [sp, #4]
	.loc	2 1500 14 is_stmt 0             @ D:\Embed\MDK\MDK\ARM\ARMCompilerV621\Bin\..\include\libcxx\variant:1500:14
	bl	_ZNKSt3__27variantIJfPfP10OutputPortIfEEE5indexB7v180000Ev
	.loc	2 1500 22                       @ D:\Embed\MDK\MDK\ARM\ARMCompilerV621\Bin\..\include\libcxx\variant:1500:22
	subs	r0, #2
	clz	r0, r0
	lsrs	r0, r0, #5
	.loc	2 1500 3 epilogue_begin         @ D:\Embed\MDK\MDK\ARM\ARMCompilerV621\Bin\..\include\libcxx\variant:1500:3
	add	sp, #8
	pop	{r7, pc}
.Ltmp94:
.Lfunc_end30:
	.size	_ZNSt3__219__holds_alternativeB7v180000ILj2EJfPfP10OutputPortIfEEEEbRKNS_7variantIJDpT0_EEE, .Lfunc_end30-_ZNSt3__219__holds_alternativeB7v180000ILj2EJfPfP10OutputPortIfEEEEbRKNS_7variantIJDpT0_EEE
	.cfi_endproc
	.cantunwind
	.fnend
                                        @ -- End function
	.section	.text._ZNSt3__226__throw_bad_variant_accessB7v180000Ev,"axG",%progbits,_ZNSt3__226__throw_bad_variant_accessB7v180000Ev,comdat
	.hidden	_ZNSt3__226__throw_bad_variant_accessB7v180000Ev @ -- Begin function _ZNSt3__226__throw_bad_variant_accessB7v180000Ev
	.weak	_ZNSt3__226__throw_bad_variant_accessB7v180000Ev
	.p2align	2
	.type	_ZNSt3__226__throw_bad_variant_accessB7v180000Ev,%function
	.code	16                              @ @_ZNSt3__226__throw_bad_variant_accessB7v180000Ev
	.thumb_func
_ZNSt3__226__throw_bad_variant_accessB7v180000Ev:
.Lfunc_begin31:
	.fnstart
	.cfi_startproc
@ %bb.0:
	.loc	2 294 5 prologue_end is_stmt 1  @ D:\Embed\MDK\MDK\ARM\ARMCompilerV621\Bin\..\include\libcxx\variant:294:5
	movw	r0, :lower16:.L.str
	movt	r0, :upper16:.L.str
	bl	_ZNSt3__222__libcpp_verbose_abortEPKcz
.Ltmp95:
.Lfunc_end31:
	.size	_ZNSt3__226__throw_bad_variant_accessB7v180000Ev, .Lfunc_end31-_ZNSt3__226__throw_bad_variant_accessB7v180000Ev
	.cfi_endproc
	.cantunwind
	.fnend
                                        @ -- End function
	.section	.text._ZNSt3__216__variant_detail8__access9__variant9__get_altB7v180000ILj2ERNS_7variantIJfPfP10OutputPortIfEEEEEEODaOT0_,"axG",%progbits,_ZNSt3__216__variant_detail8__access9__variant9__get_altB7v180000ILj2ERNS_7variantIJfPfP10OutputPortIfEEEEEEODaOT0_,comdat
	.hidden	_ZNSt3__216__variant_detail8__access9__variant9__get_altB7v180000ILj2ERNS_7variantIJfPfP10OutputPortIfEEEEEEODaOT0_ @ -- Begin function _ZNSt3__216__variant_detail8__access9__variant9__get_altB7v180000ILj2ERNS_7variantIJfPfP10OutputPortIfEEEEEEODaOT0_
	.weak	_ZNSt3__216__variant_detail8__access9__variant9__get_altB7v180000ILj2ERNS_7variantIJfPfP10OutputPortIfEEEEEEODaOT0_
	.p2align	2
	.type	_ZNSt3__216__variant_detail8__access9__variant9__get_altB7v180000ILj2ERNS_7variantIJfPfP10OutputPortIfEEEEEEODaOT0_,%function
	.code	16                              @ @_ZNSt3__216__variant_detail8__access9__variant9__get_altB7v180000ILj2ERNS_7variantIJfPfP10OutputPortIfEEEEEEODaOT0_
	.thumb_func
_ZNSt3__216__variant_detail8__access9__variant9__get_altB7v180000ILj2ERNS_7variantIJfPfP10OutputPortIfEEEEEEODaOT0_:
.Lfunc_begin32:
	.loc	2 507 0                         @ D:\Embed\MDK\MDK\ARM\ARMCompilerV621\Bin\..\include\libcxx\variant:507:0
	.fnstart
	.cfi_startproc
@ %bb.0:
	.save	{r7, lr}
	push	{r7, lr}
	.cfi_def_cfa_offset 8
	.cfi_offset lr, -4
	.cfi_offset r7, -8
	.pad	#8
	sub	sp, #8
	.cfi_def_cfa_offset 16
	str	r0, [sp, #4]
.Ltmp96:
	.loc	2 508 55 prologue_end           @ D:\Embed\MDK\MDK\ARM\ARMCompilerV621\Bin\..\include\libcxx\variant:508:55
	ldr	r0, [sp, #4]
	.loc	2 508 12 is_stmt 0              @ D:\Embed\MDK\MDK\ARM\ARMCompilerV621\Bin\..\include\libcxx\variant:508:12
	bl	_ZNSt3__216__variant_detail8__access6__base9__get_altB7v180000ILj2ERNS0_6__implIJfPfP10OutputPortIfEEEEEEODaOT0_
	.loc	2 508 5 epilogue_begin          @ D:\Embed\MDK\MDK\ARM\ARMCompilerV621\Bin\..\include\libcxx\variant:508:5
	add	sp, #8
	pop	{r7, pc}
.Ltmp97:
.Lfunc_end32:
	.size	_ZNSt3__216__variant_detail8__access9__variant9__get_altB7v180000ILj2ERNS_7variantIJfPfP10OutputPortIfEEEEEEODaOT0_, .Lfunc_end32-_ZNSt3__216__variant_detail8__access9__variant9__get_altB7v180000ILj2ERNS_7variantIJfPfP10OutputPortIfEEEEEEODaOT0_
	.cfi_endproc
	.cantunwind
	.fnend
                                        @ -- End function
	.section	.text._ZNSt3__216__variant_detail8__access6__base9__get_altB7v180000ILj2ERNS0_6__implIJfPfP10OutputPortIfEEEEEEODaOT0_,"axG",%progbits,_ZNSt3__216__variant_detail8__access6__base9__get_altB7v180000ILj2ERNS0_6__implIJfPfP10OutputPortIfEEEEEEODaOT0_,comdat
	.hidden	_ZNSt3__216__variant_detail8__access6__base9__get_altB7v180000ILj2ERNS0_6__implIJfPfP10OutputPortIfEEEEEEODaOT0_ @ -- Begin function _ZNSt3__216__variant_detail8__access6__base9__get_altB7v180000ILj2ERNS0_6__implIJfPfP10OutputPortIfEEEEEEODaOT0_
	.weak	_ZNSt3__216__variant_detail8__access6__base9__get_altB7v180000ILj2ERNS0_6__implIJfPfP10OutputPortIfEEEEEEODaOT0_
	.p2align	2
	.type	_ZNSt3__216__variant_detail8__access6__base9__get_altB7v180000ILj2ERNS0_6__implIJfPfP10OutputPortIfEEEEEEODaOT0_,%function
	.code	16                              @ @_ZNSt3__216__variant_detail8__access6__base9__get_altB7v180000ILj2ERNS0_6__implIJfPfP10OutputPortIfEEEEEEODaOT0_
	.thumb_func
_ZNSt3__216__variant_detail8__access6__base9__get_altB7v180000ILj2ERNS0_6__implIJfPfP10OutputPortIfEEEEEEODaOT0_:
.Lfunc_begin33:
	.loc	2 498 0 is_stmt 1               @ D:\Embed\MDK\MDK\ARM\ARMCompilerV621\Bin\..\include\libcxx\variant:498:0
	.fnstart
	.cfi_startproc
@ %bb.0:
	.save	{r7, lr}
	push	{r7, lr}
	.cfi_def_cfa_offset 8
	.cfi_offset lr, -4
	.cfi_offset r7, -8
	.pad	#8
	sub	sp, #8
	.cfi_def_cfa_offset 16
	str	r0, [sp, #4]
.Ltmp98:
	.loc	2 499 51 prologue_end           @ D:\Embed\MDK\MDK\ARM\ARMCompilerV621\Bin\..\include\libcxx\variant:499:51
	ldr	r0, [sp, #4]
	.loc	2 499 12 is_stmt 0              @ D:\Embed\MDK\MDK\ARM\ARMCompilerV621\Bin\..\include\libcxx\variant:499:12
	bl	_ZNSt3__216__variant_detail8__access7__union9__get_altB7v180000IRNS0_7__unionILNS0_6_TraitE0ELj0EJfPfP10OutputPortIfEEEELj2EEEODaOT_NS_16in_place_index_tIXT0_EEE
	.loc	2 499 5 epilogue_begin          @ D:\Embed\MDK\MDK\ARM\ARMCompilerV621\Bin\..\include\libcxx\variant:499:5
	add	sp, #8
	pop	{r7, pc}
.Ltmp99:
.Lfunc_end33:
	.size	_ZNSt3__216__variant_detail8__access6__base9__get_altB7v180000ILj2ERNS0_6__implIJfPfP10OutputPortIfEEEEEEODaOT0_, .Lfunc_end33-_ZNSt3__216__variant_detail8__access6__base9__get_altB7v180000ILj2ERNS0_6__implIJfPfP10OutputPortIfEEEEEEODaOT0_
	.cfi_endproc
	.cantunwind
	.fnend
                                        @ -- End function
	.section	.text._ZNSt3__216__variant_detail8__access7__union9__get_altB7v180000IRNS0_7__unionILNS0_6_TraitE0ELj0EJfPfP10OutputPortIfEEEELj2EEEODaOT_NS_16in_place_index_tIXT0_EEE,"axG",%progbits,_ZNSt3__216__variant_detail8__access7__union9__get_altB7v180000IRNS0_7__unionILNS0_6_TraitE0ELj0EJfPfP10OutputPortIfEEEELj2EEEODaOT_NS_16in_place_index_tIXT0_EEE,comdat
	.hidden	_ZNSt3__216__variant_detail8__access7__union9__get_altB7v180000IRNS0_7__unionILNS0_6_TraitE0ELj0EJfPfP10OutputPortIfEEEELj2EEEODaOT_NS_16in_place_index_tIXT0_EEE @ -- Begin function _ZNSt3__216__variant_detail8__access7__union9__get_altB7v180000IRNS0_7__unionILNS0_6_TraitE0ELj0EJfPfP10OutputPortIfEEEELj2EEEODaOT_NS_16in_place_index_tIXT0_EEE
	.weak	_ZNSt3__216__variant_detail8__access7__union9__get_altB7v180000IRNS0_7__unionILNS0_6_TraitE0ELj0EJfPfP10OutputPortIfEEEELj2EEEODaOT_NS_16in_place_index_tIXT0_EEE
	.p2align	2
	.type	_ZNSt3__216__variant_detail8__access7__union9__get_altB7v180000IRNS0_7__unionILNS0_6_TraitE0ELj0EJfPfP10OutputPortIfEEEELj2EEEODaOT_NS_16in_place_index_tIXT0_EEE,%function
	.code	16                              @ @_ZNSt3__216__variant_detail8__access7__union9__get_altB7v180000IRNS0_7__unionILNS0_6_TraitE0ELj0EJfPfP10OutputPortIfEEEELj2EEEODaOT_NS_16in_place_index_tIXT0_EEE
	.thumb_func
_ZNSt3__216__variant_detail8__access7__union9__get_altB7v180000IRNS0_7__unionILNS0_6_TraitE0ELj0EJfPfP10OutputPortIfEEEELj2EEEODaOT_NS_16in_place_index_tIXT0_EEE:
.Lfunc_begin34:
	.loc	2 490 0 is_stmt 1               @ D:\Embed\MDK\MDK\ARM\ARMCompilerV621\Bin\..\include\libcxx\variant:490:0
	.fnstart
	.cfi_startproc
@ %bb.0:
	.save	{r7, lr}
	push	{r7, lr}
	.cfi_def_cfa_offset 8
	.cfi_offset lr, -4
	.cfi_offset r7, -8
	.pad	#16
	sub	sp, #16
	.cfi_def_cfa_offset 24
	str	r0, [sp, #8]
.Ltmp100:
	.loc	2 491 42 prologue_end           @ D:\Embed\MDK\MDK\ARM\ARMCompilerV621\Bin\..\include\libcxx\variant:491:42
	ldr	r0, [sp, #8]
	.loc	2 491 12 is_stmt 0              @ D:\Embed\MDK\MDK\ARM\ARMCompilerV621\Bin\..\include\libcxx\variant:491:12
	bl	_ZNSt3__216__variant_detail8__access7__union9__get_altB7v180000IRNS0_7__unionILNS0_6_TraitE0ELj1EJPfP10OutputPortIfEEEELj1EEEODaOT_NS_16in_place_index_tIXT0_EEE
	.loc	2 491 5 epilogue_begin          @ D:\Embed\MDK\MDK\ARM\ARMCompilerV621\Bin\..\include\libcxx\variant:491:5
	add	sp, #16
	pop	{r7, pc}
.Ltmp101:
.Lfunc_end34:
	.size	_ZNSt3__216__variant_detail8__access7__union9__get_altB7v180000IRNS0_7__unionILNS0_6_TraitE0ELj0EJfPfP10OutputPortIfEEEELj2EEEODaOT_NS_16in_place_index_tIXT0_EEE, .Lfunc_end34-_ZNSt3__216__variant_detail8__access7__union9__get_altB7v180000IRNS0_7__unionILNS0_6_TraitE0ELj0EJfPfP10OutputPortIfEEEELj2EEEODaOT_NS_16in_place_index_tIXT0_EEE
	.cfi_endproc
	.cantunwind
	.fnend
                                        @ -- End function
	.section	.text._ZNSt3__216__variant_detail8__access7__union9__get_altB7v180000IRNS0_7__unionILNS0_6_TraitE0ELj1EJPfP10OutputPortIfEEEELj1EEEODaOT_NS_16in_place_index_tIXT0_EEE,"axG",%progbits,_ZNSt3__216__variant_detail8__access7__union9__get_altB7v180000IRNS0_7__unionILNS0_6_TraitE0ELj1EJPfP10OutputPortIfEEEELj1EEEODaOT_NS_16in_place_index_tIXT0_EEE,comdat
	.hidden	_ZNSt3__216__variant_detail8__access7__union9__get_altB7v180000IRNS0_7__unionILNS0_6_TraitE0ELj1EJPfP10OutputPortIfEEEELj1EEEODaOT_NS_16in_place_index_tIXT0_EEE @ -- Begin function _ZNSt3__216__variant_detail8__access7__union9__get_altB7v180000IRNS0_7__unionILNS0_6_TraitE0ELj1EJPfP10OutputPortIfEEEELj1EEEODaOT_NS_16in_place_index_tIXT0_EEE
	.weak	_ZNSt3__216__variant_detail8__access7__union9__get_altB7v180000IRNS0_7__unionILNS0_6_TraitE0ELj1EJPfP10OutputPortIfEEEELj1EEEODaOT_NS_16in_place_index_tIXT0_EEE
	.p2align	2
	.type	_ZNSt3__216__variant_detail8__access7__union9__get_altB7v180000IRNS0_7__unionILNS0_6_TraitE0ELj1EJPfP10OutputPortIfEEEELj1EEEODaOT_NS_16in_place_index_tIXT0_EEE,%function
	.code	16                              @ @_ZNSt3__216__variant_detail8__access7__union9__get_altB7v180000IRNS0_7__unionILNS0_6_TraitE0ELj1EJPfP10OutputPortIfEEEELj1EEEODaOT_NS_16in_place_index_tIXT0_EEE
	.thumb_func
_ZNSt3__216__variant_detail8__access7__union9__get_altB7v180000IRNS0_7__unionILNS0_6_TraitE0ELj1EJPfP10OutputPortIfEEEELj1EEEODaOT_NS_16in_place_index_tIXT0_EEE:
.Lfunc_begin35:
	.loc	2 490 0 is_stmt 1               @ D:\Embed\MDK\MDK\ARM\ARMCompilerV621\Bin\..\include\libcxx\variant:490:0
	.fnstart
	.cfi_startproc
@ %bb.0:
	.save	{r7, lr}
	push	{r7, lr}
	.cfi_def_cfa_offset 8
	.cfi_offset lr, -4
	.cfi_offset r7, -8
	.pad	#16
	sub	sp, #16
	.cfi_def_cfa_offset 24
	str	r0, [sp, #8]
.Ltmp102:
	.loc	2 491 42 prologue_end           @ D:\Embed\MDK\MDK\ARM\ARMCompilerV621\Bin\..\include\libcxx\variant:491:42
	ldr	r0, [sp, #8]
	.loc	2 491 12 is_stmt 0              @ D:\Embed\MDK\MDK\ARM\ARMCompilerV621\Bin\..\include\libcxx\variant:491:12
	bl	_ZNSt3__216__variant_detail8__access7__union9__get_altB7v180000IRNS0_7__unionILNS0_6_TraitE0ELj2EJP10OutputPortIfEEEEEEODaOT_NS_16in_place_index_tILj0EEE
	.loc	2 491 5 epilogue_begin          @ D:\Embed\MDK\MDK\ARM\ARMCompilerV621\Bin\..\include\libcxx\variant:491:5
	add	sp, #16
	pop	{r7, pc}
.Ltmp103:
.Lfunc_end35:
	.size	_ZNSt3__216__variant_detail8__access7__union9__get_altB7v180000IRNS0_7__unionILNS0_6_TraitE0ELj1EJPfP10OutputPortIfEEEELj1EEEODaOT_NS_16in_place_index_tIXT0_EEE, .Lfunc_end35-_ZNSt3__216__variant_detail8__access7__union9__get_altB7v180000IRNS0_7__unionILNS0_6_TraitE0ELj1EJPfP10OutputPortIfEEEELj1EEEODaOT_NS_16in_place_index_tIXT0_EEE
	.cfi_endproc
	.cantunwind
	.fnend
                                        @ -- End function
	.section	.text._ZNSt3__216__variant_detail8__access7__union9__get_altB7v180000IRNS0_7__unionILNS0_6_TraitE0ELj2EJP10OutputPortIfEEEEEEODaOT_NS_16in_place_index_tILj0EEE,"axG",%progbits,_ZNSt3__216__variant_detail8__access7__union9__get_altB7v180000IRNS0_7__unionILNS0_6_TraitE0ELj2EJP10OutputPortIfEEEEEEODaOT_NS_16in_place_index_tILj0EEE,comdat
	.hidden	_ZNSt3__216__variant_detail8__access7__union9__get_altB7v180000IRNS0_7__unionILNS0_6_TraitE0ELj2EJP10OutputPortIfEEEEEEODaOT_NS_16in_place_index_tILj0EEE @ -- Begin function _ZNSt3__216__variant_detail8__access7__union9__get_altB7v180000IRNS0_7__unionILNS0_6_TraitE0ELj2EJP10OutputPortIfEEEEEEODaOT_NS_16in_place_index_tILj0EEE
	.weak	_ZNSt3__216__variant_detail8__access7__union9__get_altB7v180000IRNS0_7__unionILNS0_6_TraitE0ELj2EJP10OutputPortIfEEEEEEODaOT_NS_16in_place_index_tILj0EEE
	.p2align	2
	.type	_ZNSt3__216__variant_detail8__access7__union9__get_altB7v180000IRNS0_7__unionILNS0_6_TraitE0ELj2EJP10OutputPortIfEEEEEEODaOT_NS_16in_place_index_tILj0EEE,%function
	.code	16                              @ @_ZNSt3__216__variant_detail8__access7__union9__get_altB7v180000IRNS0_7__unionILNS0_6_TraitE0ELj2EJP10OutputPortIfEEEEEEODaOT_NS_16in_place_index_tILj0EEE
	.thumb_func
_ZNSt3__216__variant_detail8__access7__union9__get_altB7v180000IRNS0_7__unionILNS0_6_TraitE0ELj2EJP10OutputPortIfEEEEEEODaOT_NS_16in_place_index_tILj0EEE:
.Lfunc_begin36:
	.loc	2 484 0 is_stmt 1               @ D:\Embed\MDK\MDK\ARM\ARMCompilerV621\Bin\..\include\libcxx\variant:484:0
	.fnstart
	.cfi_startproc
@ %bb.0:
	.pad	#8
	sub	sp, #8
	.cfi_def_cfa_offset 8
	str	r0, [sp]
.Ltmp104:
	.loc	2 485 32 prologue_end           @ D:\Embed\MDK\MDK\ARM\ARMCompilerV621\Bin\..\include\libcxx\variant:485:32
	ldr	r0, [sp]
	.loc	2 485 5 epilogue_begin is_stmt 0 @ D:\Embed\MDK\MDK\ARM\ARMCompilerV621\Bin\..\include\libcxx\variant:485:5
	add	sp, #8
	bx	lr
.Ltmp105:
.Lfunc_end36:
	.size	_ZNSt3__216__variant_detail8__access7__union9__get_altB7v180000IRNS0_7__unionILNS0_6_TraitE0ELj2EJP10OutputPortIfEEEEEEODaOT_NS_16in_place_index_tILj0EEE, .Lfunc_end36-_ZNSt3__216__variant_detail8__access7__union9__get_altB7v180000IRNS0_7__unionILNS0_6_TraitE0ELj2EJP10OutputPortIfEEEEEEODaOT_NS_16in_place_index_tILj0EEE
	.cfi_endproc
	.cantunwind
	.fnend
                                        @ -- End function
	.section	.text._ZNSt3__227__optional_move_assign_baseIfLb1EEC2Ev,"axG",%progbits,_ZNSt3__227__optional_move_assign_baseIfLb1EEC2Ev,comdat
	.hidden	_ZNSt3__227__optional_move_assign_baseIfLb1EEC2Ev @ -- Begin function _ZNSt3__227__optional_move_assign_baseIfLb1EEC2Ev
	.weak	_ZNSt3__227__optional_move_assign_baseIfLb1EEC2Ev
	.p2align	2
	.type	_ZNSt3__227__optional_move_assign_baseIfLb1EEC2Ev,%function
	.code	16                              @ @_ZNSt3__227__optional_move_assign_baseIfLb1EEC2Ev
	.thumb_func
_ZNSt3__227__optional_move_assign_baseIfLb1EEC2Ev:
.Lfunc_begin37:
	.loc	5 638 0 is_stmt 1               @ D:\Embed\MDK\MDK\ARM\ARMCompilerV621\Bin\..\include\libcxx\optional:638:0
	.fnstart
	.cfi_startproc
@ %bb.0:
	.save	{r7, lr}
	push	{r7, lr}
	.cfi_def_cfa_offset 8
	.cfi_offset lr, -4
	.cfi_offset r7, -8
	.pad	#8
	sub	sp, #8
	.cfi_def_cfa_offset 16
	str	r0, [sp, #4]
	ldr	r0, [sp, #4]
.Ltmp106:
	.loc	5 638 8 prologue_end            @ D:\Embed\MDK\MDK\ARM\ARMCompilerV621\Bin\..\include\libcxx\optional:638:8
	str	r0, [sp]                        @ 4-byte Spill
	bl	_ZNSt3__227__optional_copy_assign_baseIfLb1EEC2Ev
	ldr	r0, [sp]                        @ 4-byte Reload
	.loc	5 638 8 epilogue_begin is_stmt 0 @ D:\Embed\MDK\MDK\ARM\ARMCompilerV621\Bin\..\include\libcxx\optional:638:8
	add	sp, #8
	pop	{r7, pc}
.Ltmp107:
.Lfunc_end37:
	.size	_ZNSt3__227__optional_move_assign_baseIfLb1EEC2Ev, .Lfunc_end37-_ZNSt3__227__optional_move_assign_baseIfLb1EEC2Ev
	.cfi_endproc
	.cantunwind
	.fnend
                                        @ -- End function
	.section	.text._ZNSt3__227__optional_copy_assign_baseIfLb1EEC2Ev,"axG",%progbits,_ZNSt3__227__optional_copy_assign_baseIfLb1EEC2Ev,comdat
	.hidden	_ZNSt3__227__optional_copy_assign_baseIfLb1EEC2Ev @ -- Begin function _ZNSt3__227__optional_copy_assign_baseIfLb1EEC2Ev
	.weak	_ZNSt3__227__optional_copy_assign_baseIfLb1EEC2Ev
	.p2align	2
	.type	_ZNSt3__227__optional_copy_assign_baseIfLb1EEC2Ev,%function
	.code	16                              @ @_ZNSt3__227__optional_copy_assign_baseIfLb1EEC2Ev
	.thumb_func
_ZNSt3__227__optional_copy_assign_baseIfLb1EEC2Ev:
.Lfunc_begin38:
	.loc	5 606 0 is_stmt 1               @ D:\Embed\MDK\MDK\ARM\ARMCompilerV621\Bin\..\include\libcxx\optional:606:0
	.fnstart
	.cfi_startproc
@ %bb.0:
	.save	{r7, lr}
	push	{r7, lr}
	.cfi_def_cfa_offset 8
	.cfi_offset lr, -4
	.cfi_offset r7, -8
	.pad	#8
	sub	sp, #8
	.cfi_def_cfa_offset 16
	str	r0, [sp, #4]
	ldr	r0, [sp, #4]
.Ltmp108:
	.loc	5 606 8 prologue_end            @ D:\Embed\MDK\MDK\ARM\ARMCompilerV621\Bin\..\include\libcxx\optional:606:8
	str	r0, [sp]                        @ 4-byte Spill
	bl	_ZNSt3__220__optional_move_baseIfLb1EEC2Ev
	ldr	r0, [sp]                        @ 4-byte Reload
	.loc	5 606 8 epilogue_begin is_stmt 0 @ D:\Embed\MDK\MDK\ARM\ARMCompilerV621\Bin\..\include\libcxx\optional:606:8
	add	sp, #8
	pop	{r7, pc}
.Ltmp109:
.Lfunc_end38:
	.size	_ZNSt3__227__optional_copy_assign_baseIfLb1EEC2Ev, .Lfunc_end38-_ZNSt3__227__optional_copy_assign_baseIfLb1EEC2Ev
	.cfi_endproc
	.cantunwind
	.fnend
                                        @ -- End function
	.section	.text._ZNSt3__220__optional_move_baseIfLb1EEC2Ev,"axG",%progbits,_ZNSt3__220__optional_move_baseIfLb1EEC2Ev,comdat
	.hidden	_ZNSt3__220__optional_move_baseIfLb1EEC2Ev @ -- Begin function _ZNSt3__220__optional_move_baseIfLb1EEC2Ev
	.weak	_ZNSt3__220__optional_move_baseIfLb1EEC2Ev
	.p2align	2
	.type	_ZNSt3__220__optional_move_baseIfLb1EEC2Ev,%function
	.code	16                              @ @_ZNSt3__220__optional_move_baseIfLb1EEC2Ev
	.thumb_func
_ZNSt3__220__optional_move_baseIfLb1EEC2Ev:
.Lfunc_begin39:
	.loc	5 573 0 is_stmt 1               @ D:\Embed\MDK\MDK\ARM\ARMCompilerV621\Bin\..\include\libcxx\optional:573:0
	.fnstart
	.cfi_startproc
@ %bb.0:
	.save	{r7, lr}
	push	{r7, lr}
	.cfi_def_cfa_offset 8
	.cfi_offset lr, -4
	.cfi_offset r7, -8
	.pad	#8
	sub	sp, #8
	.cfi_def_cfa_offset 16
	str	r0, [sp, #4]
	ldr	r0, [sp, #4]
.Ltmp110:
	.loc	5 573 8 prologue_end            @ D:\Embed\MDK\MDK\ARM\ARMCompilerV621\Bin\..\include\libcxx\optional:573:8
	str	r0, [sp]                        @ 4-byte Spill
	bl	_ZNSt3__220__optional_copy_baseIfLb1EEC2Ev
	ldr	r0, [sp]                        @ 4-byte Reload
	.loc	5 573 8 epilogue_begin is_stmt 0 @ D:\Embed\MDK\MDK\ARM\ARMCompilerV621\Bin\..\include\libcxx\optional:573:8
	add	sp, #8
	pop	{r7, pc}
.Ltmp111:
.Lfunc_end39:
	.size	_ZNSt3__220__optional_move_baseIfLb1EEC2Ev, .Lfunc_end39-_ZNSt3__220__optional_move_baseIfLb1EEC2Ev
	.cfi_endproc
	.cantunwind
	.fnend
                                        @ -- End function
	.section	.text._ZNSt3__220__optional_copy_baseIfLb1EEC2Ev,"axG",%progbits,_ZNSt3__220__optional_copy_baseIfLb1EEC2Ev,comdat
	.hidden	_ZNSt3__220__optional_copy_baseIfLb1EEC2Ev @ -- Begin function _ZNSt3__220__optional_copy_baseIfLb1EEC2Ev
	.weak	_ZNSt3__220__optional_copy_baseIfLb1EEC2Ev
	.p2align	2
	.type	_ZNSt3__220__optional_copy_baseIfLb1EEC2Ev,%function
	.code	16                              @ @_ZNSt3__220__optional_copy_baseIfLb1EEC2Ev
	.thumb_func
_ZNSt3__220__optional_copy_baseIfLb1EEC2Ev:
.Lfunc_begin40:
	.loc	5 545 0 is_stmt 1               @ D:\Embed\MDK\MDK\ARM\ARMCompilerV621\Bin\..\include\libcxx\optional:545:0
	.fnstart
	.cfi_startproc
@ %bb.0:
	.save	{r7, lr}
	push	{r7, lr}
	.cfi_def_cfa_offset 8
	.cfi_offset lr, -4
	.cfi_offset r7, -8
	.pad	#8
	sub	sp, #8
	.cfi_def_cfa_offset 16
	str	r0, [sp, #4]
	ldr	r0, [sp, #4]
.Ltmp112:
	.loc	5 545 8 prologue_end            @ D:\Embed\MDK\MDK\ARM\ARMCompilerV621\Bin\..\include\libcxx\optional:545:8
	str	r0, [sp]                        @ 4-byte Spill
	bl	_ZNSt3__223__optional_storage_baseIfLb0EEC2Ev
	ldr	r0, [sp]                        @ 4-byte Reload
	.loc	5 545 8 epilogue_begin is_stmt 0 @ D:\Embed\MDK\MDK\ARM\ARMCompilerV621\Bin\..\include\libcxx\optional:545:8
	add	sp, #8
	pop	{r7, pc}
.Ltmp113:
.Lfunc_end40:
	.size	_ZNSt3__220__optional_copy_baseIfLb1EEC2Ev, .Lfunc_end40-_ZNSt3__220__optional_copy_baseIfLb1EEC2Ev
	.cfi_endproc
	.cantunwind
	.fnend
                                        @ -- End function
	.section	.text._ZNSt3__223__optional_storage_baseIfLb0EEC2Ev,"axG",%progbits,_ZNSt3__223__optional_storage_baseIfLb0EEC2Ev,comdat
	.hidden	_ZNSt3__223__optional_storage_baseIfLb0EEC2Ev @ -- Begin function _ZNSt3__223__optional_storage_baseIfLb0EEC2Ev
	.weak	_ZNSt3__223__optional_storage_baseIfLb0EEC2Ev
	.p2align	2
	.type	_ZNSt3__223__optional_storage_baseIfLb0EEC2Ev,%function
	.code	16                              @ @_ZNSt3__223__optional_storage_baseIfLb0EEC2Ev
	.thumb_func
_ZNSt3__223__optional_storage_baseIfLb0EEC2Ev:
.Lfunc_begin41:
	.loc	5 378 0 is_stmt 1               @ D:\Embed\MDK\MDK\ARM\ARMCompilerV621\Bin\..\include\libcxx\optional:378:0
	.fnstart
	.cfi_startproc
@ %bb.0:
	.save	{r7, lr}
	push	{r7, lr}
	.cfi_def_cfa_offset 8
	.cfi_offset lr, -4
	.cfi_offset r7, -8
	.pad	#8
	sub	sp, #8
	.cfi_def_cfa_offset 16
	str	r0, [sp, #4]
	ldr	r0, [sp, #4]
.Ltmp114:
	.loc	5 378 8 prologue_end            @ D:\Embed\MDK\MDK\ARM\ARMCompilerV621\Bin\..\include\libcxx\optional:378:8
	str	r0, [sp]                        @ 4-byte Spill
	bl	_ZNSt3__224__optional_destruct_baseIfLb1EEC2B7v180000Ev
	ldr	r0, [sp]                        @ 4-byte Reload
	.loc	5 378 8 epilogue_begin is_stmt 0 @ D:\Embed\MDK\MDK\ARM\ARMCompilerV621\Bin\..\include\libcxx\optional:378:8
	add	sp, #8
	pop	{r7, pc}
.Ltmp115:
.Lfunc_end41:
	.size	_ZNSt3__223__optional_storage_baseIfLb0EEC2Ev, .Lfunc_end41-_ZNSt3__223__optional_storage_baseIfLb0EEC2Ev
	.cfi_endproc
	.cantunwind
	.fnend
                                        @ -- End function
	.section	.text._ZNSt3__224__optional_destruct_baseIfLb1EEC2B7v180000Ev,"axG",%progbits,_ZNSt3__224__optional_destruct_baseIfLb1EEC2B7v180000Ev,comdat
	.hidden	_ZNSt3__224__optional_destruct_baseIfLb1EEC2B7v180000Ev @ -- Begin function _ZNSt3__224__optional_destruct_baseIfLb1EEC2B7v180000Ev
	.weak	_ZNSt3__224__optional_destruct_baseIfLb1EEC2B7v180000Ev
	.p2align	2
	.type	_ZNSt3__224__optional_destruct_baseIfLb1EEC2B7v180000Ev,%function
	.code	16                              @ @_ZNSt3__224__optional_destruct_baseIfLb1EEC2B7v180000Ev
	.thumb_func
_ZNSt3__224__optional_destruct_baseIfLb1EEC2B7v180000Ev:
.Lfunc_begin42:
	.loc	5 352 0 is_stmt 1               @ D:\Embed\MDK\MDK\ARM\ARMCompilerV621\Bin\..\include\libcxx\optional:352:0
	.fnstart
	.cfi_startproc
@ %bb.0:
	.pad	#4
	sub	sp, #4
	.cfi_def_cfa_offset 4
	str	r0, [sp]
	ldr	r0, [sp]
	movs	r1, #0
.Ltmp116:
	.loc	5 351 12 prologue_end           @ D:\Embed\MDK\MDK\ARM\ARMCompilerV621\Bin\..\include\libcxx\optional:351:12
	strb	r1, [r0]
	.loc	5 352 12                        @ D:\Embed\MDK\MDK\ARM\ARMCompilerV621\Bin\..\include\libcxx\optional:352:12
	strb	r1, [r0, #4]
	.loc	5 352 31 epilogue_begin is_stmt 0 @ D:\Embed\MDK\MDK\ARM\ARMCompilerV621\Bin\..\include\libcxx\optional:352:31
	add	sp, #4
	bx	lr
.Ltmp117:
.Lfunc_end42:
	.size	_ZNSt3__224__optional_destruct_baseIfLb1EEC2B7v180000Ev, .Lfunc_end42-_ZNSt3__224__optional_destruct_baseIfLb1EEC2B7v180000Ev
	.cfi_endproc
	.cantunwind
	.fnend
                                        @ -- End function
	.section	.text._ZNSt3__213__generic_getB7v180000ILj1ERNS_7variantIJfPfP10OutputPortIfEEEEEEODaOT0_,"axG",%progbits,_ZNSt3__213__generic_getB7v180000ILj1ERNS_7variantIJfPfP10OutputPortIfEEEEEEODaOT0_,comdat
	.hidden	_ZNSt3__213__generic_getB7v180000ILj1ERNS_7variantIJfPfP10OutputPortIfEEEEEEODaOT0_ @ -- Begin function _ZNSt3__213__generic_getB7v180000ILj1ERNS_7variantIJfPfP10OutputPortIfEEEEEEODaOT0_
	.weak	_ZNSt3__213__generic_getB7v180000ILj1ERNS_7variantIJfPfP10OutputPortIfEEEEEEODaOT0_
	.p2align	2
	.type	_ZNSt3__213__generic_getB7v180000ILj1ERNS_7variantIJfPfP10OutputPortIfEEEEEEODaOT0_,%function
	.code	16                              @ @_ZNSt3__213__generic_getB7v180000ILj1ERNS_7variantIJfPfP10OutputPortIfEEEEEEODaOT0_
	.thumb_func
_ZNSt3__213__generic_getB7v180000ILj1ERNS_7variantIJfPfP10OutputPortIfEEEEEEODaOT0_:
.Lfunc_begin43:
	.loc	2 1512 0 is_stmt 1              @ D:\Embed\MDK\MDK\ARM\ARMCompilerV621\Bin\..\include\libcxx\variant:1512:0
	.fnstart
	.cfi_startproc
@ %bb.0:
	.save	{r7, lr}
	push	{r7, lr}
	.cfi_def_cfa_offset 8
	.cfi_offset lr, -4
	.cfi_offset r7, -8
	.pad	#8
	sub	sp, #8
	.cfi_def_cfa_offset 16
	str	r0, [sp, #4]
.Ltmp118:
	.loc	2 1514 38 prologue_end          @ D:\Embed\MDK\MDK\ARM\ARMCompilerV621\Bin\..\include\libcxx\variant:1514:38
	ldr	r0, [sp, #4]
	.loc	2 1514 8 is_stmt 0              @ D:\Embed\MDK\MDK\ARM\ARMCompilerV621\Bin\..\include\libcxx\variant:1514:8
	bl	_ZNSt3__219__holds_alternativeB7v180000ILj1EJfPfP10OutputPortIfEEEEbRKNS_7variantIJDpT0_EEE
.Ltmp119:
	.loc	2 1514 7                        @ D:\Embed\MDK\MDK\ARM\ARMCompilerV621\Bin\..\include\libcxx\variant:1514:7
	cbnz	r0, .LBB43_2
	b	.LBB43_1
.LBB43_1:
.Ltmp120:
	.loc	2 1515 5 is_stmt 1              @ D:\Embed\MDK\MDK\ARM\ARMCompilerV621\Bin\..\include\libcxx\variant:1515:5
	bl	_ZNSt3__226__throw_bad_variant_accessB7v180000Ev
.Ltmp121:
.LBB43_2:
	.loc	2 1517 56                       @ D:\Embed\MDK\MDK\ARM\ARMCompilerV621\Bin\..\include\libcxx\variant:1517:56
	ldr	r0, [sp, #4]
	.loc	2 1517 10 is_stmt 0             @ D:\Embed\MDK\MDK\ARM\ARMCompilerV621\Bin\..\include\libcxx\variant:1517:10
	bl	_ZNSt3__216__variant_detail8__access9__variant9__get_altB7v180000ILj1ERNS_7variantIJfPfP10OutputPortIfEEEEEEODaOT0_
	.loc	2 1517 3 epilogue_begin         @ D:\Embed\MDK\MDK\ARM\ARMCompilerV621\Bin\..\include\libcxx\variant:1517:3
	add	sp, #8
	pop	{r7, pc}
.Ltmp122:
.Lfunc_end43:
	.size	_ZNSt3__213__generic_getB7v180000ILj1ERNS_7variantIJfPfP10OutputPortIfEEEEEEODaOT0_, .Lfunc_end43-_ZNSt3__213__generic_getB7v180000ILj1ERNS_7variantIJfPfP10OutputPortIfEEEEEEODaOT0_
	.cfi_endproc
	.cantunwind
	.fnend
                                        @ -- End function
	.section	.text._ZNSt3__219__holds_alternativeB7v180000ILj1EJfPfP10OutputPortIfEEEEbRKNS_7variantIJDpT0_EEE,"axG",%progbits,_ZNSt3__219__holds_alternativeB7v180000ILj1EJfPfP10OutputPortIfEEEEbRKNS_7variantIJDpT0_EEE,comdat
	.hidden	_ZNSt3__219__holds_alternativeB7v180000ILj1EJfPfP10OutputPortIfEEEEbRKNS_7variantIJDpT0_EEE @ -- Begin function _ZNSt3__219__holds_alternativeB7v180000ILj1EJfPfP10OutputPortIfEEEEbRKNS_7variantIJDpT0_EEE
	.weak	_ZNSt3__219__holds_alternativeB7v180000ILj1EJfPfP10OutputPortIfEEEEbRKNS_7variantIJDpT0_EEE
	.p2align	2
	.type	_ZNSt3__219__holds_alternativeB7v180000ILj1EJfPfP10OutputPortIfEEEEbRKNS_7variantIJDpT0_EEE,%function
	.code	16                              @ @_ZNSt3__219__holds_alternativeB7v180000ILj1EJfPfP10OutputPortIfEEEEbRKNS_7variantIJDpT0_EEE
	.thumb_func
_ZNSt3__219__holds_alternativeB7v180000ILj1EJfPfP10OutputPortIfEEEEbRKNS_7variantIJDpT0_EEE:
.Lfunc_begin44:
	.loc	2 1499 0 is_stmt 1              @ D:\Embed\MDK\MDK\ARM\ARMCompilerV621\Bin\..\include\libcxx\variant:1499:0
	.fnstart
	.cfi_startproc
@ %bb.0:
	.save	{r7, lr}
	push	{r7, lr}
	.cfi_def_cfa_offset 8
	.cfi_offset lr, -4
	.cfi_offset r7, -8
	.pad	#8
	sub	sp, #8
	.cfi_def_cfa_offset 16
	str	r0, [sp, #4]
.Ltmp123:
	.loc	2 1500 10 prologue_end          @ D:\Embed\MDK\MDK\ARM\ARMCompilerV621\Bin\..\include\libcxx\variant:1500:10
	ldr	r0, [sp, #4]
	.loc	2 1500 14 is_stmt 0             @ D:\Embed\MDK\MDK\ARM\ARMCompilerV621\Bin\..\include\libcxx\variant:1500:14
	bl	_ZNKSt3__27variantIJfPfP10OutputPortIfEEE5indexB7v180000Ev
	.loc	2 1500 22                       @ D:\Embed\MDK\MDK\ARM\ARMCompilerV621\Bin\..\include\libcxx\variant:1500:22
	subs	r0, #1
	clz	r0, r0
	lsrs	r0, r0, #5
	.loc	2 1500 3 epilogue_begin         @ D:\Embed\MDK\MDK\ARM\ARMCompilerV621\Bin\..\include\libcxx\variant:1500:3
	add	sp, #8
	pop	{r7, pc}
.Ltmp124:
.Lfunc_end44:
	.size	_ZNSt3__219__holds_alternativeB7v180000ILj1EJfPfP10OutputPortIfEEEEbRKNS_7variantIJDpT0_EEE, .Lfunc_end44-_ZNSt3__219__holds_alternativeB7v180000ILj1EJfPfP10OutputPortIfEEEEbRKNS_7variantIJDpT0_EEE
	.cfi_endproc
	.cantunwind
	.fnend
                                        @ -- End function
	.section	.text._ZNSt3__216__variant_detail8__access9__variant9__get_altB7v180000ILj1ERNS_7variantIJfPfP10OutputPortIfEEEEEEODaOT0_,"axG",%progbits,_ZNSt3__216__variant_detail8__access9__variant9__get_altB7v180000ILj1ERNS_7variantIJfPfP10OutputPortIfEEEEEEODaOT0_,comdat
	.hidden	_ZNSt3__216__variant_detail8__access9__variant9__get_altB7v180000ILj1ERNS_7variantIJfPfP10OutputPortIfEEEEEEODaOT0_ @ -- Begin function _ZNSt3__216__variant_detail8__access9__variant9__get_altB7v180000ILj1ERNS_7variantIJfPfP10OutputPortIfEEEEEEODaOT0_
	.weak	_ZNSt3__216__variant_detail8__access9__variant9__get_altB7v180000ILj1ERNS_7variantIJfPfP10OutputPortIfEEEEEEODaOT0_
	.p2align	2
	.type	_ZNSt3__216__variant_detail8__access9__variant9__get_altB7v180000ILj1ERNS_7variantIJfPfP10OutputPortIfEEEEEEODaOT0_,%function
	.code	16                              @ @_ZNSt3__216__variant_detail8__access9__variant9__get_altB7v180000ILj1ERNS_7variantIJfPfP10OutputPortIfEEEEEEODaOT0_
	.thumb_func
_ZNSt3__216__variant_detail8__access9__variant9__get_altB7v180000ILj1ERNS_7variantIJfPfP10OutputPortIfEEEEEEODaOT0_:
.Lfunc_begin45:
	.loc	2 507 0 is_stmt 1               @ D:\Embed\MDK\MDK\ARM\ARMCompilerV621\Bin\..\include\libcxx\variant:507:0
	.fnstart
	.cfi_startproc
@ %bb.0:
	.save	{r7, lr}
	push	{r7, lr}
	.cfi_def_cfa_offset 8
	.cfi_offset lr, -4
	.cfi_offset r7, -8
	.pad	#8
	sub	sp, #8
	.cfi_def_cfa_offset 16
	str	r0, [sp, #4]
.Ltmp125:
	.loc	2 508 55 prologue_end           @ D:\Embed\MDK\MDK\ARM\ARMCompilerV621\Bin\..\include\libcxx\variant:508:55
	ldr	r0, [sp, #4]
	.loc	2 508 12 is_stmt 0              @ D:\Embed\MDK\MDK\ARM\ARMCompilerV621\Bin\..\include\libcxx\variant:508:12
	bl	_ZNSt3__216__variant_detail8__access6__base9__get_altB7v180000ILj1ERNS0_6__implIJfPfP10OutputPortIfEEEEEEODaOT0_
	.loc	2 508 5 epilogue_begin          @ D:\Embed\MDK\MDK\ARM\ARMCompilerV621\Bin\..\include\libcxx\variant:508:5
	add	sp, #8
	pop	{r7, pc}
.Ltmp126:
.Lfunc_end45:
	.size	_ZNSt3__216__variant_detail8__access9__variant9__get_altB7v180000ILj1ERNS_7variantIJfPfP10OutputPortIfEEEEEEODaOT0_, .Lfunc_end45-_ZNSt3__216__variant_detail8__access9__variant9__get_altB7v180000ILj1ERNS_7variantIJfPfP10OutputPortIfEEEEEEODaOT0_
	.cfi_endproc
	.cantunwind
	.fnend
                                        @ -- End function
	.section	.text._ZNSt3__216__variant_detail8__access6__base9__get_altB7v180000ILj1ERNS0_6__implIJfPfP10OutputPortIfEEEEEEODaOT0_,"axG",%progbits,_ZNSt3__216__variant_detail8__access6__base9__get_altB7v180000ILj1ERNS0_6__implIJfPfP10OutputPortIfEEEEEEODaOT0_,comdat
	.hidden	_ZNSt3__216__variant_detail8__access6__base9__get_altB7v180000ILj1ERNS0_6__implIJfPfP10OutputPortIfEEEEEEODaOT0_ @ -- Begin function _ZNSt3__216__variant_detail8__access6__base9__get_altB7v180000ILj1ERNS0_6__implIJfPfP10OutputPortIfEEEEEEODaOT0_
	.weak	_ZNSt3__216__variant_detail8__access6__base9__get_altB7v180000ILj1ERNS0_6__implIJfPfP10OutputPortIfEEEEEEODaOT0_
	.p2align	2
	.type	_ZNSt3__216__variant_detail8__access6__base9__get_altB7v180000ILj1ERNS0_6__implIJfPfP10OutputPortIfEEEEEEODaOT0_,%function
	.code	16                              @ @_ZNSt3__216__variant_detail8__access6__base9__get_altB7v180000ILj1ERNS0_6__implIJfPfP10OutputPortIfEEEEEEODaOT0_
	.thumb_func
_ZNSt3__216__variant_detail8__access6__base9__get_altB7v180000ILj1ERNS0_6__implIJfPfP10OutputPortIfEEEEEEODaOT0_:
.Lfunc_begin46:
	.loc	2 498 0 is_stmt 1               @ D:\Embed\MDK\MDK\ARM\ARMCompilerV621\Bin\..\include\libcxx\variant:498:0
	.fnstart
	.cfi_startproc
@ %bb.0:
	.save	{r7, lr}
	push	{r7, lr}
	.cfi_def_cfa_offset 8
	.cfi_offset lr, -4
	.cfi_offset r7, -8
	.pad	#8
	sub	sp, #8
	.cfi_def_cfa_offset 16
	str	r0, [sp, #4]
.Ltmp127:
	.loc	2 499 51 prologue_end           @ D:\Embed\MDK\MDK\ARM\ARMCompilerV621\Bin\..\include\libcxx\variant:499:51
	ldr	r0, [sp, #4]
	.loc	2 499 12 is_stmt 0              @ D:\Embed\MDK\MDK\ARM\ARMCompilerV621\Bin\..\include\libcxx\variant:499:12
	bl	_ZNSt3__216__variant_detail8__access7__union9__get_altB7v180000IRNS0_7__unionILNS0_6_TraitE0ELj0EJfPfP10OutputPortIfEEEELj1EEEODaOT_NS_16in_place_index_tIXT0_EEE
	.loc	2 499 5 epilogue_begin          @ D:\Embed\MDK\MDK\ARM\ARMCompilerV621\Bin\..\include\libcxx\variant:499:5
	add	sp, #8
	pop	{r7, pc}
.Ltmp128:
.Lfunc_end46:
	.size	_ZNSt3__216__variant_detail8__access6__base9__get_altB7v180000ILj1ERNS0_6__implIJfPfP10OutputPortIfEEEEEEODaOT0_, .Lfunc_end46-_ZNSt3__216__variant_detail8__access6__base9__get_altB7v180000ILj1ERNS0_6__implIJfPfP10OutputPortIfEEEEEEODaOT0_
	.cfi_endproc
	.cantunwind
	.fnend
                                        @ -- End function
	.section	.text._ZNSt3__216__variant_detail8__access7__union9__get_altB7v180000IRNS0_7__unionILNS0_6_TraitE0ELj0EJfPfP10OutputPortIfEEEELj1EEEODaOT_NS_16in_place_index_tIXT0_EEE,"axG",%progbits,_ZNSt3__216__variant_detail8__access7__union9__get_altB7v180000IRNS0_7__unionILNS0_6_TraitE0ELj0EJfPfP10OutputPortIfEEEELj1EEEODaOT_NS_16in_place_index_tIXT0_EEE,comdat
	.hidden	_ZNSt3__216__variant_detail8__access7__union9__get_altB7v180000IRNS0_7__unionILNS0_6_TraitE0ELj0EJfPfP10OutputPortIfEEEELj1EEEODaOT_NS_16in_place_index_tIXT0_EEE @ -- Begin function _ZNSt3__216__variant_detail8__access7__union9__get_altB7v180000IRNS0_7__unionILNS0_6_TraitE0ELj0EJfPfP10OutputPortIfEEEELj1EEEODaOT_NS_16in_place_index_tIXT0_EEE
	.weak	_ZNSt3__216__variant_detail8__access7__union9__get_altB7v180000IRNS0_7__unionILNS0_6_TraitE0ELj0EJfPfP10OutputPortIfEEEELj1EEEODaOT_NS_16in_place_index_tIXT0_EEE
	.p2align	2
	.type	_ZNSt3__216__variant_detail8__access7__union9__get_altB7v180000IRNS0_7__unionILNS0_6_TraitE0ELj0EJfPfP10OutputPortIfEEEELj1EEEODaOT_NS_16in_place_index_tIXT0_EEE,%function
	.code	16                              @ @_ZNSt3__216__variant_detail8__access7__union9__get_altB7v180000IRNS0_7__unionILNS0_6_TraitE0ELj0EJfPfP10OutputPortIfEEEELj1EEEODaOT_NS_16in_place_index_tIXT0_EEE
	.thumb_func
_ZNSt3__216__variant_detail8__access7__union9__get_altB7v180000IRNS0_7__unionILNS0_6_TraitE0ELj0EJfPfP10OutputPortIfEEEELj1EEEODaOT_NS_16in_place_index_tIXT0_EEE:
.Lfunc_begin47:
	.loc	2 490 0 is_stmt 1               @ D:\Embed\MDK\MDK\ARM\ARMCompilerV621\Bin\..\include\libcxx\variant:490:0
	.fnstart
	.cfi_startproc
@ %bb.0:
	.save	{r7, lr}
	push	{r7, lr}
	.cfi_def_cfa_offset 8
	.cfi_offset lr, -4
	.cfi_offset r7, -8
	.pad	#16
	sub	sp, #16
	.cfi_def_cfa_offset 24
	str	r0, [sp, #8]
.Ltmp129:
	.loc	2 491 42 prologue_end           @ D:\Embed\MDK\MDK\ARM\ARMCompilerV621\Bin\..\include\libcxx\variant:491:42
	ldr	r0, [sp, #8]
	.loc	2 491 12 is_stmt 0              @ D:\Embed\MDK\MDK\ARM\ARMCompilerV621\Bin\..\include\libcxx\variant:491:12
	bl	_ZNSt3__216__variant_detail8__access7__union9__get_altB7v180000IRNS0_7__unionILNS0_6_TraitE0ELj1EJPfP10OutputPortIfEEEEEEODaOT_NS_16in_place_index_tILj0EEE
	.loc	2 491 5 epilogue_begin          @ D:\Embed\MDK\MDK\ARM\ARMCompilerV621\Bin\..\include\libcxx\variant:491:5
	add	sp, #16
	pop	{r7, pc}
.Ltmp130:
.Lfunc_end47:
	.size	_ZNSt3__216__variant_detail8__access7__union9__get_altB7v180000IRNS0_7__unionILNS0_6_TraitE0ELj0EJfPfP10OutputPortIfEEEELj1EEEODaOT_NS_16in_place_index_tIXT0_EEE, .Lfunc_end47-_ZNSt3__216__variant_detail8__access7__union9__get_altB7v180000IRNS0_7__unionILNS0_6_TraitE0ELj0EJfPfP10OutputPortIfEEEELj1EEEODaOT_NS_16in_place_index_tIXT0_EEE
	.cfi_endproc
	.cantunwind
	.fnend
                                        @ -- End function
	.section	.text._ZNSt3__216__variant_detail8__access7__union9__get_altB7v180000IRNS0_7__unionILNS0_6_TraitE0ELj1EJPfP10OutputPortIfEEEEEEODaOT_NS_16in_place_index_tILj0EEE,"axG",%progbits,_ZNSt3__216__variant_detail8__access7__union9__get_altB7v180000IRNS0_7__unionILNS0_6_TraitE0ELj1EJPfP10OutputPortIfEEEEEEODaOT_NS_16in_place_index_tILj0EEE,comdat
	.hidden	_ZNSt3__216__variant_detail8__access7__union9__get_altB7v180000IRNS0_7__unionILNS0_6_TraitE0ELj1EJPfP10OutputPortIfEEEEEEODaOT_NS_16in_place_index_tILj0EEE @ -- Begin function _ZNSt3__216__variant_detail8__access7__union9__get_altB7v180000IRNS0_7__unionILNS0_6_TraitE0ELj1EJPfP10OutputPortIfEEEEEEODaOT_NS_16in_place_index_tILj0EEE
	.weak	_ZNSt3__216__variant_detail8__access7__union9__get_altB7v180000IRNS0_7__unionILNS0_6_TraitE0ELj1EJPfP10OutputPortIfEEEEEEODaOT_NS_16in_place_index_tILj0EEE
	.p2align	2
	.type	_ZNSt3__216__variant_detail8__access7__union9__get_altB7v180000IRNS0_7__unionILNS0_6_TraitE0ELj1EJPfP10OutputPortIfEEEEEEODaOT_NS_16in_place_index_tILj0EEE,%function
	.code	16                              @ @_ZNSt3__216__variant_detail8__access7__union9__get_altB7v180000IRNS0_7__unionILNS0_6_TraitE0ELj1EJPfP10OutputPortIfEEEEEEODaOT_NS_16in_place_index_tILj0EEE
	.thumb_func
_ZNSt3__216__variant_detail8__access7__union9__get_altB7v180000IRNS0_7__unionILNS0_6_TraitE0ELj1EJPfP10OutputPortIfEEEEEEODaOT_NS_16in_place_index_tILj0EEE:
.Lfunc_begin48:
	.loc	2 484 0 is_stmt 1               @ D:\Embed\MDK\MDK\ARM\ARMCompilerV621\Bin\..\include\libcxx\variant:484:0
	.fnstart
	.cfi_startproc
@ %bb.0:
	.pad	#8
	sub	sp, #8
	.cfi_def_cfa_offset 8
	str	r0, [sp]
.Ltmp131:
	.loc	2 485 32 prologue_end           @ D:\Embed\MDK\MDK\ARM\ARMCompilerV621\Bin\..\include\libcxx\variant:485:32
	ldr	r0, [sp]
	.loc	2 485 5 epilogue_begin is_stmt 0 @ D:\Embed\MDK\MDK\ARM\ARMCompilerV621\Bin\..\include\libcxx\variant:485:5
	add	sp, #8
	bx	lr
.Ltmp132:
.Lfunc_end48:
	.size	_ZNSt3__216__variant_detail8__access7__union9__get_altB7v180000IRNS0_7__unionILNS0_6_TraitE0ELj1EJPfP10OutputPortIfEEEEEEODaOT_NS_16in_place_index_tILj0EEE, .Lfunc_end48-_ZNSt3__216__variant_detail8__access7__union9__get_altB7v180000IRNS0_7__unionILNS0_6_TraitE0ELj1EJPfP10OutputPortIfEEEEEEODaOT_NS_16in_place_index_tILj0EEE
	.cfi_endproc
	.cantunwind
	.fnend
                                        @ -- End function
	.section	.text._ZNSt3__213__generic_getB7v180000ILj0ERNS_7variantIJfPfP10OutputPortIfEEEEEEODaOT0_,"axG",%progbits,_ZNSt3__213__generic_getB7v180000ILj0ERNS_7variantIJfPfP10OutputPortIfEEEEEEODaOT0_,comdat
	.hidden	_ZNSt3__213__generic_getB7v180000ILj0ERNS_7variantIJfPfP10OutputPortIfEEEEEEODaOT0_ @ -- Begin function _ZNSt3__213__generic_getB7v180000ILj0ERNS_7variantIJfPfP10OutputPortIfEEEEEEODaOT0_
	.weak	_ZNSt3__213__generic_getB7v180000ILj0ERNS_7variantIJfPfP10OutputPortIfEEEEEEODaOT0_
	.p2align	2
	.type	_ZNSt3__213__generic_getB7v180000ILj0ERNS_7variantIJfPfP10OutputPortIfEEEEEEODaOT0_,%function
	.code	16                              @ @_ZNSt3__213__generic_getB7v180000ILj0ERNS_7variantIJfPfP10OutputPortIfEEEEEEODaOT0_
	.thumb_func
_ZNSt3__213__generic_getB7v180000ILj0ERNS_7variantIJfPfP10OutputPortIfEEEEEEODaOT0_:
.Lfunc_begin49:
	.loc	2 1512 0 is_stmt 1              @ D:\Embed\MDK\MDK\ARM\ARMCompilerV621\Bin\..\include\libcxx\variant:1512:0
	.fnstart
	.cfi_startproc
@ %bb.0:
	.save	{r7, lr}
	push	{r7, lr}
	.cfi_def_cfa_offset 8
	.cfi_offset lr, -4
	.cfi_offset r7, -8
	.pad	#8
	sub	sp, #8
	.cfi_def_cfa_offset 16
	str	r0, [sp, #4]
.Ltmp133:
	.loc	2 1514 38 prologue_end          @ D:\Embed\MDK\MDK\ARM\ARMCompilerV621\Bin\..\include\libcxx\variant:1514:38
	ldr	r0, [sp, #4]
	.loc	2 1514 8 is_stmt 0              @ D:\Embed\MDK\MDK\ARM\ARMCompilerV621\Bin\..\include\libcxx\variant:1514:8
	bl	_ZNSt3__219__holds_alternativeB7v180000ILj0EJfPfP10OutputPortIfEEEEbRKNS_7variantIJDpT0_EEE
.Ltmp134:
	.loc	2 1514 7                        @ D:\Embed\MDK\MDK\ARM\ARMCompilerV621\Bin\..\include\libcxx\variant:1514:7
	cbnz	r0, .LBB49_2
	b	.LBB49_1
.LBB49_1:
.Ltmp135:
	.loc	2 1515 5 is_stmt 1              @ D:\Embed\MDK\MDK\ARM\ARMCompilerV621\Bin\..\include\libcxx\variant:1515:5
	bl	_ZNSt3__226__throw_bad_variant_accessB7v180000Ev
.Ltmp136:
.LBB49_2:
	.loc	2 1517 56                       @ D:\Embed\MDK\MDK\ARM\ARMCompilerV621\Bin\..\include\libcxx\variant:1517:56
	ldr	r0, [sp, #4]
	.loc	2 1517 10 is_stmt 0             @ D:\Embed\MDK\MDK\ARM\ARMCompilerV621\Bin\..\include\libcxx\variant:1517:10
	bl	_ZNSt3__216__variant_detail8__access9__variant9__get_altB7v180000ILj0ERNS_7variantIJfPfP10OutputPortIfEEEEEEODaOT0_
	.loc	2 1517 3 epilogue_begin         @ D:\Embed\MDK\MDK\ARM\ARMCompilerV621\Bin\..\include\libcxx\variant:1517:3
	add	sp, #8
	pop	{r7, pc}
.Ltmp137:
.Lfunc_end49:
	.size	_ZNSt3__213__generic_getB7v180000ILj0ERNS_7variantIJfPfP10OutputPortIfEEEEEEODaOT0_, .Lfunc_end49-_ZNSt3__213__generic_getB7v180000ILj0ERNS_7variantIJfPfP10OutputPortIfEEEEEEODaOT0_
	.cfi_endproc
	.cantunwind
	.fnend
                                        @ -- End function
	.section	.text._ZNSt3__219__holds_alternativeB7v180000ILj0EJfPfP10OutputPortIfEEEEbRKNS_7variantIJDpT0_EEE,"axG",%progbits,_ZNSt3__219__holds_alternativeB7v180000ILj0EJfPfP10OutputPortIfEEEEbRKNS_7variantIJDpT0_EEE,comdat
	.hidden	_ZNSt3__219__holds_alternativeB7v180000ILj0EJfPfP10OutputPortIfEEEEbRKNS_7variantIJDpT0_EEE @ -- Begin function _ZNSt3__219__holds_alternativeB7v180000ILj0EJfPfP10OutputPortIfEEEEbRKNS_7variantIJDpT0_EEE
	.weak	_ZNSt3__219__holds_alternativeB7v180000ILj0EJfPfP10OutputPortIfEEEEbRKNS_7variantIJDpT0_EEE
	.p2align	2
	.type	_ZNSt3__219__holds_alternativeB7v180000ILj0EJfPfP10OutputPortIfEEEEbRKNS_7variantIJDpT0_EEE,%function
	.code	16                              @ @_ZNSt3__219__holds_alternativeB7v180000ILj0EJfPfP10OutputPortIfEEEEbRKNS_7variantIJDpT0_EEE
	.thumb_func
_ZNSt3__219__holds_alternativeB7v180000ILj0EJfPfP10OutputPortIfEEEEbRKNS_7variantIJDpT0_EEE:
.Lfunc_begin50:
	.loc	2 1499 0 is_stmt 1              @ D:\Embed\MDK\MDK\ARM\ARMCompilerV621\Bin\..\include\libcxx\variant:1499:0
	.fnstart
	.cfi_startproc
@ %bb.0:
	.save	{r7, lr}
	push	{r7, lr}
	.cfi_def_cfa_offset 8
	.cfi_offset lr, -4
	.cfi_offset r7, -8
	.pad	#8
	sub	sp, #8
	.cfi_def_cfa_offset 16
	str	r0, [sp, #4]
.Ltmp138:
	.loc	2 1500 10 prologue_end          @ D:\Embed\MDK\MDK\ARM\ARMCompilerV621\Bin\..\include\libcxx\variant:1500:10
	ldr	r0, [sp, #4]
	.loc	2 1500 14 is_stmt 0             @ D:\Embed\MDK\MDK\ARM\ARMCompilerV621\Bin\..\include\libcxx\variant:1500:14
	bl	_ZNKSt3__27variantIJfPfP10OutputPortIfEEE5indexB7v180000Ev
	.loc	2 1500 22                       @ D:\Embed\MDK\MDK\ARM\ARMCompilerV621\Bin\..\include\libcxx\variant:1500:22
	clz	r0, r0
	lsrs	r0, r0, #5
	.loc	2 1500 3 epilogue_begin         @ D:\Embed\MDK\MDK\ARM\ARMCompilerV621\Bin\..\include\libcxx\variant:1500:3
	add	sp, #8
	pop	{r7, pc}
.Ltmp139:
.Lfunc_end50:
	.size	_ZNSt3__219__holds_alternativeB7v180000ILj0EJfPfP10OutputPortIfEEEEbRKNS_7variantIJDpT0_EEE, .Lfunc_end50-_ZNSt3__219__holds_alternativeB7v180000ILj0EJfPfP10OutputPortIfEEEEbRKNS_7variantIJDpT0_EEE
	.cfi_endproc
	.cantunwind
	.fnend
                                        @ -- End function
	.section	.text._ZNSt3__216__variant_detail8__access9__variant9__get_altB7v180000ILj0ERNS_7variantIJfPfP10OutputPortIfEEEEEEODaOT0_,"axG",%progbits,_ZNSt3__216__variant_detail8__access9__variant9__get_altB7v180000ILj0ERNS_7variantIJfPfP10OutputPortIfEEEEEEODaOT0_,comdat
	.hidden	_ZNSt3__216__variant_detail8__access9__variant9__get_altB7v180000ILj0ERNS_7variantIJfPfP10OutputPortIfEEEEEEODaOT0_ @ -- Begin function _ZNSt3__216__variant_detail8__access9__variant9__get_altB7v180000ILj0ERNS_7variantIJfPfP10OutputPortIfEEEEEEODaOT0_
	.weak	_ZNSt3__216__variant_detail8__access9__variant9__get_altB7v180000ILj0ERNS_7variantIJfPfP10OutputPortIfEEEEEEODaOT0_
	.p2align	2
	.type	_ZNSt3__216__variant_detail8__access9__variant9__get_altB7v180000ILj0ERNS_7variantIJfPfP10OutputPortIfEEEEEEODaOT0_,%function
	.code	16                              @ @_ZNSt3__216__variant_detail8__access9__variant9__get_altB7v180000ILj0ERNS_7variantIJfPfP10OutputPortIfEEEEEEODaOT0_
	.thumb_func
_ZNSt3__216__variant_detail8__access9__variant9__get_altB7v180000ILj0ERNS_7variantIJfPfP10OutputPortIfEEEEEEODaOT0_:
.Lfunc_begin51:
	.loc	2 507 0 is_stmt 1               @ D:\Embed\MDK\MDK\ARM\ARMCompilerV621\Bin\..\include\libcxx\variant:507:0
	.fnstart
	.cfi_startproc
@ %bb.0:
	.save	{r7, lr}
	push	{r7, lr}
	.cfi_def_cfa_offset 8
	.cfi_offset lr, -4
	.cfi_offset r7, -8
	.pad	#8
	sub	sp, #8
	.cfi_def_cfa_offset 16
	str	r0, [sp, #4]
.Ltmp140:
	.loc	2 508 55 prologue_end           @ D:\Embed\MDK\MDK\ARM\ARMCompilerV621\Bin\..\include\libcxx\variant:508:55
	ldr	r0, [sp, #4]
	.loc	2 508 12 is_stmt 0              @ D:\Embed\MDK\MDK\ARM\ARMCompilerV621\Bin\..\include\libcxx\variant:508:12
	bl	_ZNSt3__216__variant_detail8__access6__base9__get_altB7v180000ILj0ERNS0_6__implIJfPfP10OutputPortIfEEEEEEODaOT0_
	.loc	2 508 5 epilogue_begin          @ D:\Embed\MDK\MDK\ARM\ARMCompilerV621\Bin\..\include\libcxx\variant:508:5
	add	sp, #8
	pop	{r7, pc}
.Ltmp141:
.Lfunc_end51:
	.size	_ZNSt3__216__variant_detail8__access9__variant9__get_altB7v180000ILj0ERNS_7variantIJfPfP10OutputPortIfEEEEEEODaOT0_, .Lfunc_end51-_ZNSt3__216__variant_detail8__access9__variant9__get_altB7v180000ILj0ERNS_7variantIJfPfP10OutputPortIfEEEEEEODaOT0_
	.cfi_endproc
	.cantunwind
	.fnend
                                        @ -- End function
	.section	.text._ZNSt3__216__variant_detail8__access6__base9__get_altB7v180000ILj0ERNS0_6__implIJfPfP10OutputPortIfEEEEEEODaOT0_,"axG",%progbits,_ZNSt3__216__variant_detail8__access6__base9__get_altB7v180000ILj0ERNS0_6__implIJfPfP10OutputPortIfEEEEEEODaOT0_,comdat
	.hidden	_ZNSt3__216__variant_detail8__access6__base9__get_altB7v180000ILj0ERNS0_6__implIJfPfP10OutputPortIfEEEEEEODaOT0_ @ -- Begin function _ZNSt3__216__variant_detail8__access6__base9__get_altB7v180000ILj0ERNS0_6__implIJfPfP10OutputPortIfEEEEEEODaOT0_
	.weak	_ZNSt3__216__variant_detail8__access6__base9__get_altB7v180000ILj0ERNS0_6__implIJfPfP10OutputPortIfEEEEEEODaOT0_
	.p2align	2
	.type	_ZNSt3__216__variant_detail8__access6__base9__get_altB7v180000ILj0ERNS0_6__implIJfPfP10OutputPortIfEEEEEEODaOT0_,%function
	.code	16                              @ @_ZNSt3__216__variant_detail8__access6__base9__get_altB7v180000ILj0ERNS0_6__implIJfPfP10OutputPortIfEEEEEEODaOT0_
	.thumb_func
_ZNSt3__216__variant_detail8__access6__base9__get_altB7v180000ILj0ERNS0_6__implIJfPfP10OutputPortIfEEEEEEODaOT0_:
.Lfunc_begin52:
	.loc	2 498 0 is_stmt 1               @ D:\Embed\MDK\MDK\ARM\ARMCompilerV621\Bin\..\include\libcxx\variant:498:0
	.fnstart
	.cfi_startproc
@ %bb.0:
	.save	{r7, lr}
	push	{r7, lr}
	.cfi_def_cfa_offset 8
	.cfi_offset lr, -4
	.cfi_offset r7, -8
	.pad	#8
	sub	sp, #8
	.cfi_def_cfa_offset 16
	str	r0, [sp, #4]
.Ltmp142:
	.loc	2 499 51 prologue_end           @ D:\Embed\MDK\MDK\ARM\ARMCompilerV621\Bin\..\include\libcxx\variant:499:51
	ldr	r0, [sp, #4]
	.loc	2 499 12 is_stmt 0              @ D:\Embed\MDK\MDK\ARM\ARMCompilerV621\Bin\..\include\libcxx\variant:499:12
	bl	_ZNSt3__216__variant_detail8__access7__union9__get_altB7v180000IRNS0_7__unionILNS0_6_TraitE0ELj0EJfPfP10OutputPortIfEEEEEEODaOT_NS_16in_place_index_tILj0EEE
	.loc	2 499 5 epilogue_begin          @ D:\Embed\MDK\MDK\ARM\ARMCompilerV621\Bin\..\include\libcxx\variant:499:5
	add	sp, #8
	pop	{r7, pc}
.Ltmp143:
.Lfunc_end52:
	.size	_ZNSt3__216__variant_detail8__access6__base9__get_altB7v180000ILj0ERNS0_6__implIJfPfP10OutputPortIfEEEEEEODaOT0_, .Lfunc_end52-_ZNSt3__216__variant_detail8__access6__base9__get_altB7v180000ILj0ERNS0_6__implIJfPfP10OutputPortIfEEEEEEODaOT0_
	.cfi_endproc
	.cantunwind
	.fnend
                                        @ -- End function
	.section	.text._ZNSt3__216__variant_detail8__access7__union9__get_altB7v180000IRNS0_7__unionILNS0_6_TraitE0ELj0EJfPfP10OutputPortIfEEEEEEODaOT_NS_16in_place_index_tILj0EEE,"axG",%progbits,_ZNSt3__216__variant_detail8__access7__union9__get_altB7v180000IRNS0_7__unionILNS0_6_TraitE0ELj0EJfPfP10OutputPortIfEEEEEEODaOT_NS_16in_place_index_tILj0EEE,comdat
	.hidden	_ZNSt3__216__variant_detail8__access7__union9__get_altB7v180000IRNS0_7__unionILNS0_6_TraitE0ELj0EJfPfP10OutputPortIfEEEEEEODaOT_NS_16in_place_index_tILj0EEE @ -- Begin function _ZNSt3__216__variant_detail8__access7__union9__get_altB7v180000IRNS0_7__unionILNS0_6_TraitE0ELj0EJfPfP10OutputPortIfEEEEEEODaOT_NS_16in_place_index_tILj0EEE
	.weak	_ZNSt3__216__variant_detail8__access7__union9__get_altB7v180000IRNS0_7__unionILNS0_6_TraitE0ELj0EJfPfP10OutputPortIfEEEEEEODaOT_NS_16in_place_index_tILj0EEE
	.p2align	2
	.type	_ZNSt3__216__variant_detail8__access7__union9__get_altB7v180000IRNS0_7__unionILNS0_6_TraitE0ELj0EJfPfP10OutputPortIfEEEEEEODaOT_NS_16in_place_index_tILj0EEE,%function
	.code	16                              @ @_ZNSt3__216__variant_detail8__access7__union9__get_altB7v180000IRNS0_7__unionILNS0_6_TraitE0ELj0EJfPfP10OutputPortIfEEEEEEODaOT_NS_16in_place_index_tILj0EEE
	.thumb_func
_ZNSt3__216__variant_detail8__access7__union9__get_altB7v180000IRNS0_7__unionILNS0_6_TraitE0ELj0EJfPfP10OutputPortIfEEEEEEODaOT_NS_16in_place_index_tILj0EEE:
.Lfunc_begin53:
	.loc	2 484 0 is_stmt 1               @ D:\Embed\MDK\MDK\ARM\ARMCompilerV621\Bin\..\include\libcxx\variant:484:0
	.fnstart
	.cfi_startproc
@ %bb.0:
	.pad	#8
	sub	sp, #8
	.cfi_def_cfa_offset 8
	str	r0, [sp]
.Ltmp144:
	.loc	2 485 32 prologue_end           @ D:\Embed\MDK\MDK\ARM\ARMCompilerV621\Bin\..\include\libcxx\variant:485:32
	ldr	r0, [sp]
	.loc	2 485 5 epilogue_begin is_stmt 0 @ D:\Embed\MDK\MDK\ARM\ARMCompilerV621\Bin\..\include\libcxx\variant:485:5
	add	sp, #8
	bx	lr
.Ltmp145:
.Lfunc_end53:
	.size	_ZNSt3__216__variant_detail8__access7__union9__get_altB7v180000IRNS0_7__unionILNS0_6_TraitE0ELj0EJfPfP10OutputPortIfEEEEEEODaOT_NS_16in_place_index_tILj0EEE, .Lfunc_end53-_ZNSt3__216__variant_detail8__access7__union9__get_altB7v180000IRNS0_7__unionILNS0_6_TraitE0ELj0EJfPfP10OutputPortIfEEEEEEODaOT_NS_16in_place_index_tILj0EEE
	.cfi_endproc
	.cantunwind
	.fnend
                                        @ -- End function
	.section	.text._ZNSt3__227__optional_move_assign_baseIfLb1EECI2NS_24__optional_destruct_baseIfLb1EEEIJRfEEENS_10in_place_tEDpOT_,"axG",%progbits,_ZNSt3__227__optional_move_assign_baseIfLb1EECI2NS_24__optional_destruct_baseIfLb1EEEIJRfEEENS_10in_place_tEDpOT_,comdat
	.hidden	_ZNSt3__227__optional_move_assign_baseIfLb1EECI2NS_24__optional_destruct_baseIfLb1EEEIJRfEEENS_10in_place_tEDpOT_ @ -- Begin function _ZNSt3__227__optional_move_assign_baseIfLb1EECI2NS_24__optional_destruct_baseIfLb1EEEIJRfEEENS_10in_place_tEDpOT_
	.weak	_ZNSt3__227__optional_move_assign_baseIfLb1EECI2NS_24__optional_destruct_baseIfLb1EEEIJRfEEENS_10in_place_tEDpOT_
	.p2align	2
	.type	_ZNSt3__227__optional_move_assign_baseIfLb1EECI2NS_24__optional_destruct_baseIfLb1EEEIJRfEEENS_10in_place_tEDpOT_,%function
	.code	16                              @ @_ZNSt3__227__optional_move_assign_baseIfLb1EECI2NS_24__optional_destruct_baseIfLb1EEEIJRfEEENS_10in_place_tEDpOT_
	.thumb_func
_ZNSt3__227__optional_move_assign_baseIfLb1EECI2NS_24__optional_destruct_baseIfLb1EEEIJRfEEENS_10in_place_tEDpOT_:
.Lfunc_begin54:
	.loc	5 640 0 is_stmt 1               @ D:\Embed\MDK\MDK\ARM\ARMCompilerV621\Bin\..\include\libcxx\optional:640:0
	.fnstart
	.cfi_startproc
@ %bb.0:
	.save	{r7, lr}
	push	{r7, lr}
	.cfi_def_cfa_offset 8
	.cfi_offset lr, -4
	.cfi_offset r7, -8
	.pad	#16
	sub	sp, #16
	.cfi_def_cfa_offset 24
	str	r0, [sp, #8]
	str	r1, [sp, #4]
	ldr	r0, [sp, #8]
.Ltmp146:
	.loc	5 640 45 prologue_end           @ D:\Embed\MDK\MDK\ARM\ARMCompilerV621\Bin\..\include\libcxx\optional:640:45
	str	r0, [sp]                        @ 4-byte Spill
	ldr	r1, [sp, #4]
	bl	_ZNSt3__227__optional_copy_assign_baseIfLb1EECI2NS_24__optional_destruct_baseIfLb1EEEIJRfEEENS_10in_place_tEDpOT_
	ldr	r0, [sp]                        @ 4-byte Reload
	.loc	5 640 45 epilogue_begin is_stmt 0 @ D:\Embed\MDK\MDK\ARM\ARMCompilerV621\Bin\..\include\libcxx\optional:640:45
	add	sp, #16
	pop	{r7, pc}
.Ltmp147:
.Lfunc_end54:
	.size	_ZNSt3__227__optional_move_assign_baseIfLb1EECI2NS_24__optional_destruct_baseIfLb1EEEIJRfEEENS_10in_place_tEDpOT_, .Lfunc_end54-_ZNSt3__227__optional_move_assign_baseIfLb1EECI2NS_24__optional_destruct_baseIfLb1EEEIJRfEEENS_10in_place_tEDpOT_
	.cfi_endproc
	.cantunwind
	.fnend
                                        @ -- End function
	.section	.text._ZNSt3__227__optional_copy_assign_baseIfLb1EECI2NS_24__optional_destruct_baseIfLb1EEEIJRfEEENS_10in_place_tEDpOT_,"axG",%progbits,_ZNSt3__227__optional_copy_assign_baseIfLb1EECI2NS_24__optional_destruct_baseIfLb1EEEIJRfEEENS_10in_place_tEDpOT_,comdat
	.hidden	_ZNSt3__227__optional_copy_assign_baseIfLb1EECI2NS_24__optional_destruct_baseIfLb1EEEIJRfEEENS_10in_place_tEDpOT_ @ -- Begin function _ZNSt3__227__optional_copy_assign_baseIfLb1EECI2NS_24__optional_destruct_baseIfLb1EEEIJRfEEENS_10in_place_tEDpOT_
	.weak	_ZNSt3__227__optional_copy_assign_baseIfLb1EECI2NS_24__optional_destruct_baseIfLb1EEEIJRfEEENS_10in_place_tEDpOT_
	.p2align	2
	.type	_ZNSt3__227__optional_copy_assign_baseIfLb1EECI2NS_24__optional_destruct_baseIfLb1EEEIJRfEEENS_10in_place_tEDpOT_,%function
	.code	16                              @ @_ZNSt3__227__optional_copy_assign_baseIfLb1EECI2NS_24__optional_destruct_baseIfLb1EEEIJRfEEENS_10in_place_tEDpOT_
	.thumb_func
_ZNSt3__227__optional_copy_assign_baseIfLb1EECI2NS_24__optional_destruct_baseIfLb1EEEIJRfEEENS_10in_place_tEDpOT_:
.Lfunc_begin55:
	.loc	5 608 0 is_stmt 1               @ D:\Embed\MDK\MDK\ARM\ARMCompilerV621\Bin\..\include\libcxx\optional:608:0
	.fnstart
	.cfi_startproc
@ %bb.0:
	.save	{r7, lr}
	push	{r7, lr}
	.cfi_def_cfa_offset 8
	.cfi_offset lr, -4
	.cfi_offset r7, -8
	.pad	#16
	sub	sp, #16
	.cfi_def_cfa_offset 24
	str	r0, [sp, #8]
	str	r1, [sp, #4]
	ldr	r0, [sp, #8]
.Ltmp148:
	.loc	5 608 38 prologue_end           @ D:\Embed\MDK\MDK\ARM\ARMCompilerV621\Bin\..\include\libcxx\optional:608:38
	str	r0, [sp]                        @ 4-byte Spill
	ldr	r1, [sp, #4]
	bl	_ZNSt3__220__optional_move_baseIfLb1EECI2NS_24__optional_destruct_baseIfLb1EEEIJRfEEENS_10in_place_tEDpOT_
	ldr	r0, [sp]                        @ 4-byte Reload
	.loc	5 608 38 epilogue_begin is_stmt 0 @ D:\Embed\MDK\MDK\ARM\ARMCompilerV621\Bin\..\include\libcxx\optional:608:38
	add	sp, #16
	pop	{r7, pc}
.Ltmp149:
.Lfunc_end55:
	.size	_ZNSt3__227__optional_copy_assign_baseIfLb1EECI2NS_24__optional_destruct_baseIfLb1EEEIJRfEEENS_10in_place_tEDpOT_, .Lfunc_end55-_ZNSt3__227__optional_copy_assign_baseIfLb1EECI2NS_24__optional_destruct_baseIfLb1EEEIJRfEEENS_10in_place_tEDpOT_
	.cfi_endproc
	.cantunwind
	.fnend
                                        @ -- End function
	.section	.text._ZNSt3__220__optional_move_baseIfLb1EECI2NS_24__optional_destruct_baseIfLb1EEEIJRfEEENS_10in_place_tEDpOT_,"axG",%progbits,_ZNSt3__220__optional_move_baseIfLb1EECI2NS_24__optional_destruct_baseIfLb1EEEIJRfEEENS_10in_place_tEDpOT_,comdat
	.hidden	_ZNSt3__220__optional_move_baseIfLb1EECI2NS_24__optional_destruct_baseIfLb1EEEIJRfEEENS_10in_place_tEDpOT_ @ -- Begin function _ZNSt3__220__optional_move_baseIfLb1EECI2NS_24__optional_destruct_baseIfLb1EEEIJRfEEENS_10in_place_tEDpOT_
	.weak	_ZNSt3__220__optional_move_baseIfLb1EECI2NS_24__optional_destruct_baseIfLb1EEEIJRfEEENS_10in_place_tEDpOT_
	.p2align	2
	.type	_ZNSt3__220__optional_move_baseIfLb1EECI2NS_24__optional_destruct_baseIfLb1EEEIJRfEEENS_10in_place_tEDpOT_,%function
	.code	16                              @ @_ZNSt3__220__optional_move_baseIfLb1EECI2NS_24__optional_destruct_baseIfLb1EEEIJRfEEENS_10in_place_tEDpOT_
	.thumb_func
_ZNSt3__220__optional_move_baseIfLb1EECI2NS_24__optional_destruct_baseIfLb1EEEIJRfEEENS_10in_place_tEDpOT_:
.Lfunc_begin56:
	.loc	5 575 0 is_stmt 1               @ D:\Embed\MDK\MDK\ARM\ARMCompilerV621\Bin\..\include\libcxx\optional:575:0
	.fnstart
	.cfi_startproc
@ %bb.0:
	.save	{r7, lr}
	push	{r7, lr}
	.cfi_def_cfa_offset 8
	.cfi_offset lr, -4
	.cfi_offset r7, -8
	.pad	#16
	sub	sp, #16
	.cfi_def_cfa_offset 24
	str	r0, [sp, #8]
	str	r1, [sp, #4]
	ldr	r0, [sp, #8]
.Ltmp150:
	.loc	5 575 38 prologue_end           @ D:\Embed\MDK\MDK\ARM\ARMCompilerV621\Bin\..\include\libcxx\optional:575:38
	str	r0, [sp]                        @ 4-byte Spill
	ldr	r1, [sp, #4]
	bl	_ZNSt3__220__optional_copy_baseIfLb1EECI2NS_24__optional_destruct_baseIfLb1EEEIJRfEEENS_10in_place_tEDpOT_
	ldr	r0, [sp]                        @ 4-byte Reload
	.loc	5 575 38 epilogue_begin is_stmt 0 @ D:\Embed\MDK\MDK\ARM\ARMCompilerV621\Bin\..\include\libcxx\optional:575:38
	add	sp, #16
	pop	{r7, pc}
.Ltmp151:
.Lfunc_end56:
	.size	_ZNSt3__220__optional_move_baseIfLb1EECI2NS_24__optional_destruct_baseIfLb1EEEIJRfEEENS_10in_place_tEDpOT_, .Lfunc_end56-_ZNSt3__220__optional_move_baseIfLb1EECI2NS_24__optional_destruct_baseIfLb1EEEIJRfEEENS_10in_place_tEDpOT_
	.cfi_endproc
	.cantunwind
	.fnend
                                        @ -- End function
	.section	.text._ZNSt3__220__optional_copy_baseIfLb1EECI2NS_24__optional_destruct_baseIfLb1EEEIJRfEEENS_10in_place_tEDpOT_,"axG",%progbits,_ZNSt3__220__optional_copy_baseIfLb1EECI2NS_24__optional_destruct_baseIfLb1EEEIJRfEEENS_10in_place_tEDpOT_,comdat
	.hidden	_ZNSt3__220__optional_copy_baseIfLb1EECI2NS_24__optional_destruct_baseIfLb1EEEIJRfEEENS_10in_place_tEDpOT_ @ -- Begin function _ZNSt3__220__optional_copy_baseIfLb1EECI2NS_24__optional_destruct_baseIfLb1EEEIJRfEEENS_10in_place_tEDpOT_
	.weak	_ZNSt3__220__optional_copy_baseIfLb1EECI2NS_24__optional_destruct_baseIfLb1EEEIJRfEEENS_10in_place_tEDpOT_
	.p2align	2
	.type	_ZNSt3__220__optional_copy_baseIfLb1EECI2NS_24__optional_destruct_baseIfLb1EEEIJRfEEENS_10in_place_tEDpOT_,%function
	.code	16                              @ @_ZNSt3__220__optional_copy_baseIfLb1EECI2NS_24__optional_destruct_baseIfLb1EEEIJRfEEENS_10in_place_tEDpOT_
	.thumb_func
_ZNSt3__220__optional_copy_baseIfLb1EECI2NS_24__optional_destruct_baseIfLb1EEEIJRfEEENS_10in_place_tEDpOT_:
.Lfunc_begin57:
	.loc	5 547 0 is_stmt 1               @ D:\Embed\MDK\MDK\ARM\ARMCompilerV621\Bin\..\include\libcxx\optional:547:0
	.fnstart
	.cfi_startproc
@ %bb.0:
	.save	{r7, lr}
	push	{r7, lr}
	.cfi_def_cfa_offset 8
	.cfi_offset lr, -4
	.cfi_offset r7, -8
	.pad	#16
	sub	sp, #16
	.cfi_def_cfa_offset 24
	str	r0, [sp, #8]
	str	r1, [sp, #4]
	ldr	r0, [sp, #8]
.Ltmp152:
	.loc	5 547 41 prologue_end           @ D:\Embed\MDK\MDK\ARM\ARMCompilerV621\Bin\..\include\libcxx\optional:547:41
	str	r0, [sp]                        @ 4-byte Spill
	ldr	r1, [sp, #4]
	bl	_ZNSt3__223__optional_storage_baseIfLb0EECI2NS_24__optional_destruct_baseIfLb1EEEIJRfEEENS_10in_place_tEDpOT_
	ldr	r0, [sp]                        @ 4-byte Reload
	.loc	5 547 41 epilogue_begin is_stmt 0 @ D:\Embed\MDK\MDK\ARM\ARMCompilerV621\Bin\..\include\libcxx\optional:547:41
	add	sp, #16
	pop	{r7, pc}
.Ltmp153:
.Lfunc_end57:
	.size	_ZNSt3__220__optional_copy_baseIfLb1EECI2NS_24__optional_destruct_baseIfLb1EEEIJRfEEENS_10in_place_tEDpOT_, .Lfunc_end57-_ZNSt3__220__optional_copy_baseIfLb1EECI2NS_24__optional_destruct_baseIfLb1EEEIJRfEEENS_10in_place_tEDpOT_
	.cfi_endproc
	.cantunwind
	.fnend
                                        @ -- End function
	.section	.text._ZNSt3__223__optional_storage_baseIfLb0EECI2NS_24__optional_destruct_baseIfLb1EEEIJRfEEENS_10in_place_tEDpOT_,"axG",%progbits,_ZNSt3__223__optional_storage_baseIfLb0EECI2NS_24__optional_destruct_baseIfLb1EEEIJRfEEENS_10in_place_tEDpOT_,comdat
	.hidden	_ZNSt3__223__optional_storage_baseIfLb0EECI2NS_24__optional_destruct_baseIfLb1EEEIJRfEEENS_10in_place_tEDpOT_ @ -- Begin function _ZNSt3__223__optional_storage_baseIfLb0EECI2NS_24__optional_destruct_baseIfLb1EEEIJRfEEENS_10in_place_tEDpOT_
	.weak	_ZNSt3__223__optional_storage_baseIfLb0EECI2NS_24__optional_destruct_baseIfLb1EEEIJRfEEENS_10in_place_tEDpOT_
	.p2align	2
	.type	_ZNSt3__223__optional_storage_baseIfLb0EECI2NS_24__optional_destruct_baseIfLb1EEEIJRfEEENS_10in_place_tEDpOT_,%function
	.code	16                              @ @_ZNSt3__223__optional_storage_baseIfLb0EECI2NS_24__optional_destruct_baseIfLb1EEEIJRfEEENS_10in_place_tEDpOT_
	.thumb_func
_ZNSt3__223__optional_storage_baseIfLb0EECI2NS_24__optional_destruct_baseIfLb1EEEIJRfEEENS_10in_place_tEDpOT_:
.Lfunc_begin58:
	.loc	5 382 0 is_stmt 1               @ D:\Embed\MDK\MDK\ARM\ARMCompilerV621\Bin\..\include\libcxx\optional:382:0
	.fnstart
	.cfi_startproc
@ %bb.0:
	.save	{r7, lr}
	push	{r7, lr}
	.cfi_def_cfa_offset 8
	.cfi_offset lr, -4
	.cfi_offset r7, -8
	.pad	#16
	sub	sp, #16
	.cfi_def_cfa_offset 24
	str	r0, [sp, #8]
	str	r1, [sp, #4]
	ldr	r0, [sp, #8]
.Ltmp154:
	.loc	5 382 19 prologue_end           @ D:\Embed\MDK\MDK\ARM\ARMCompilerV621\Bin\..\include\libcxx\optional:382:19
	str	r0, [sp]                        @ 4-byte Spill
	ldr	r1, [sp, #4]
	bl	_ZNSt3__224__optional_destruct_baseIfLb1EEC2B7v180000IJRfEEENS_10in_place_tEDpOT_
	ldr	r0, [sp]                        @ 4-byte Reload
	.loc	5 382 19 epilogue_begin is_stmt 0 @ D:\Embed\MDK\MDK\ARM\ARMCompilerV621\Bin\..\include\libcxx\optional:382:19
	add	sp, #16
	pop	{r7, pc}
.Ltmp155:
.Lfunc_end58:
	.size	_ZNSt3__223__optional_storage_baseIfLb0EECI2NS_24__optional_destruct_baseIfLb1EEEIJRfEEENS_10in_place_tEDpOT_, .Lfunc_end58-_ZNSt3__223__optional_storage_baseIfLb0EECI2NS_24__optional_destruct_baseIfLb1EEEIJRfEEENS_10in_place_tEDpOT_
	.cfi_endproc
	.cantunwind
	.fnend
                                        @ -- End function
	.section	.text._ZNSt3__224__optional_destruct_baseIfLb1EEC2B7v180000IJRfEEENS_10in_place_tEDpOT_,"axG",%progbits,_ZNSt3__224__optional_destruct_baseIfLb1EEC2B7v180000IJRfEEENS_10in_place_tEDpOT_,comdat
	.hidden	_ZNSt3__224__optional_destruct_baseIfLb1EEC2B7v180000IJRfEEENS_10in_place_tEDpOT_ @ -- Begin function _ZNSt3__224__optional_destruct_baseIfLb1EEC2B7v180000IJRfEEENS_10in_place_tEDpOT_
	.weak	_ZNSt3__224__optional_destruct_baseIfLb1EEC2B7v180000IJRfEEENS_10in_place_tEDpOT_
	.p2align	2
	.type	_ZNSt3__224__optional_destruct_baseIfLb1EEC2B7v180000IJRfEEENS_10in_place_tEDpOT_,%function
	.code	16                              @ @_ZNSt3__224__optional_destruct_baseIfLb1EEC2B7v180000IJRfEEENS_10in_place_tEDpOT_
	.thumb_func
_ZNSt3__224__optional_destruct_baseIfLb1EEC2B7v180000IJRfEEENS_10in_place_tEDpOT_:
.Lfunc_begin59:
	.loc	5 358 0 is_stmt 1               @ D:\Embed\MDK\MDK\ARM\ARMCompilerV621\Bin\..\include\libcxx\optional:358:0
	.fnstart
	.cfi_startproc
@ %bb.0:
	.pad	#12
	sub	sp, #12
	.cfi_def_cfa_offset 12
	str	r0, [sp, #4]
	str	r1, [sp]
	ldr	r0, [sp, #4]
.Ltmp156:
	.loc	5 357 41 prologue_end           @ D:\Embed\MDK\MDK\ARM\ARMCompilerV621\Bin\..\include\libcxx\optional:357:41
	ldr	r1, [sp]
	.loc	5 357 19 is_stmt 0              @ D:\Embed\MDK\MDK\ARM\ARMCompilerV621\Bin\..\include\libcxx\optional:357:19
	ldr	r1, [r1]
	.loc	5 357 12                        @ D:\Embed\MDK\MDK\ARM\ARMCompilerV621\Bin\..\include\libcxx\optional:357:12
	str	r1, [r0]
	movs	r1, #1
	.loc	5 358 12 is_stmt 1              @ D:\Embed\MDK\MDK\ARM\ARMCompilerV621\Bin\..\include\libcxx\optional:358:12
	strb	r1, [r0, #4]
	.loc	5 358 30 epilogue_begin is_stmt 0 @ D:\Embed\MDK\MDK\ARM\ARMCompilerV621\Bin\..\include\libcxx\optional:358:30
	add	sp, #12
	bx	lr
.Ltmp157:
.Lfunc_end59:
	.size	_ZNSt3__224__optional_destruct_baseIfLb1EEC2B7v180000IJRfEEENS_10in_place_tEDpOT_, .Lfunc_end59-_ZNSt3__224__optional_destruct_baseIfLb1EEC2B7v180000IJRfEEENS_10in_place_tEDpOT_
	.cfi_endproc
	.cantunwind
	.fnend
                                        @ -- End function
	.section	.text._ZNKSt3__27variantIJNS_4pairIffEEPS2_P10OutputPortIS2_EEE5indexB7v180000Ev,"axG",%progbits,_ZNKSt3__27variantIJNS_4pairIffEEPS2_P10OutputPortIS2_EEE5indexB7v180000Ev,comdat
	.hidden	_ZNKSt3__27variantIJNS_4pairIffEEPS2_P10OutputPortIS2_EEE5indexB7v180000Ev @ -- Begin function _ZNKSt3__27variantIJNS_4pairIffEEPS2_P10OutputPortIS2_EEE5indexB7v180000Ev
	.weak	_ZNKSt3__27variantIJNS_4pairIffEEPS2_P10OutputPortIS2_EEE5indexB7v180000Ev
	.p2align	2
	.type	_ZNKSt3__27variantIJNS_4pairIffEEPS2_P10OutputPortIS2_EEE5indexB7v180000Ev,%function
	.code	16                              @ @_ZNKSt3__27variantIJNS_4pairIffEEPS2_P10OutputPortIS2_EEE5indexB7v180000Ev
	.thumb_func
_ZNKSt3__27variantIJNS_4pairIffEEPS2_P10OutputPortIS2_EEE5indexB7v180000Ev:
.Lfunc_begin60:
	.loc	2 1474 0 is_stmt 1              @ D:\Embed\MDK\MDK\ARM\ARMCompilerV621\Bin\..\include\libcxx\variant:1474:0
	.fnstart
	.cfi_startproc
@ %bb.0:
	.save	{r7, lr}
	push	{r7, lr}
	.cfi_def_cfa_offset 8
	.cfi_offset lr, -4
	.cfi_offset r7, -8
	.pad	#8
	sub	sp, #8
	.cfi_def_cfa_offset 16
	str	r0, [sp, #4]
	ldr	r0, [sp, #4]
.Ltmp158:
	.loc	2 1474 60 prologue_end          @ D:\Embed\MDK\MDK\ARM\ARMCompilerV621\Bin\..\include\libcxx\variant:1474:60
	bl	_ZNKSt3__216__variant_detail6__baseILNS0_6_TraitE0EJNS_4pairIffEEPS4_P10OutputPortIS4_EEE5indexB7v180000Ev
	.loc	2 1474 45 epilogue_begin is_stmt 0 @ D:\Embed\MDK\MDK\ARM\ARMCompilerV621\Bin\..\include\libcxx\variant:1474:45
	add	sp, #8
	pop	{r7, pc}
.Ltmp159:
.Lfunc_end60:
	.size	_ZNKSt3__27variantIJNS_4pairIffEEPS2_P10OutputPortIS2_EEE5indexB7v180000Ev, .Lfunc_end60-_ZNKSt3__27variantIJNS_4pairIffEEPS2_P10OutputPortIS2_EEE5indexB7v180000Ev
	.cfi_endproc
	.cantunwind
	.fnend
                                        @ -- End function
	.section	.text._ZNSt3__23getB7v180000ILj2EJNS_4pairIffEEPS2_P10OutputPortIS2_EEEERNS_19variant_alternativeIXT_ENS_7variantIJDpT0_EEEE4typeERSB_,"axG",%progbits,_ZNSt3__23getB7v180000ILj2EJNS_4pairIffEEPS2_P10OutputPortIS2_EEEERNS_19variant_alternativeIXT_ENS_7variantIJDpT0_EEEE4typeERSB_,comdat
	.hidden	_ZNSt3__23getB7v180000ILj2EJNS_4pairIffEEPS2_P10OutputPortIS2_EEEERNS_19variant_alternativeIXT_ENS_7variantIJDpT0_EEEE4typeERSB_ @ -- Begin function _ZNSt3__23getB7v180000ILj2EJNS_4pairIffEEPS2_P10OutputPortIS2_EEEERNS_19variant_alternativeIXT_ENS_7variantIJDpT0_EEEE4typeERSB_
	.weak	_ZNSt3__23getB7v180000ILj2EJNS_4pairIffEEPS2_P10OutputPortIS2_EEEERNS_19variant_alternativeIXT_ENS_7variantIJDpT0_EEEE4typeERSB_
	.p2align	2
	.type	_ZNSt3__23getB7v180000ILj2EJNS_4pairIffEEPS2_P10OutputPortIS2_EEEERNS_19variant_alternativeIXT_ENS_7variantIJDpT0_EEEE4typeERSB_,%function
	.code	16                              @ @_ZNSt3__23getB7v180000ILj2EJNS_4pairIffEEPS2_P10OutputPortIS2_EEEERNS_19variant_alternativeIXT_ENS_7variantIJDpT0_EEEE4typeERSB_
	.thumb_func
_ZNSt3__23getB7v180000ILj2EJNS_4pairIffEEPS2_P10OutputPortIS2_EEEERNS_19variant_alternativeIXT_ENS_7variantIJDpT0_EEEE4typeERSB_:
.Lfunc_begin61:
	.loc	2 1524 0 is_stmt 1              @ D:\Embed\MDK\MDK\ARM\ARMCompilerV621\Bin\..\include\libcxx\variant:1524:0
	.fnstart
	.cfi_startproc
@ %bb.0:
	.save	{r7, lr}
	push	{r7, lr}
	.cfi_def_cfa_offset 8
	.cfi_offset lr, -4
	.cfi_offset r7, -8
	.pad	#8
	sub	sp, #8
	.cfi_def_cfa_offset 16
	str	r0, [sp, #4]
.Ltmp160:
	.loc	2 1527 34 prologue_end          @ D:\Embed\MDK\MDK\ARM\ARMCompilerV621\Bin\..\include\libcxx\variant:1527:34
	ldr	r0, [sp, #4]
	.loc	2 1527 10 is_stmt 0             @ D:\Embed\MDK\MDK\ARM\ARMCompilerV621\Bin\..\include\libcxx\variant:1527:10
	bl	_ZNSt3__213__generic_getB7v180000ILj2ERNS_7variantIJNS_4pairIffEEPS3_P10OutputPortIS3_EEEEEEODaOT0_
	.loc	2 1527 3 epilogue_begin         @ D:\Embed\MDK\MDK\ARM\ARMCompilerV621\Bin\..\include\libcxx\variant:1527:3
	add	sp, #8
	pop	{r7, pc}
.Ltmp161:
.Lfunc_end61:
	.size	_ZNSt3__23getB7v180000ILj2EJNS_4pairIffEEPS2_P10OutputPortIS2_EEEERNS_19variant_alternativeIXT_ENS_7variantIJDpT0_EEEE4typeERSB_, .Lfunc_end61-_ZNSt3__23getB7v180000ILj2EJNS_4pairIffEEPS2_P10OutputPortIS2_EEEERNS_19variant_alternativeIXT_ENS_7variantIJDpT0_EEEE4typeERSB_
	.cfi_endproc
	.cantunwind
	.fnend
                                        @ -- End function
	.section	.text._ZN10OutputPortINSt3__24pairIffEEE7presentEv,"axG",%progbits,_ZN10OutputPortINSt3__24pairIffEEE7presentEv,comdat
	.hidden	_ZN10OutputPortINSt3__24pairIffEEE7presentEv @ -- Begin function _ZN10OutputPortINSt3__24pairIffEEE7presentEv
	.weak	_ZN10OutputPortINSt3__24pairIffEEE7presentEv
	.p2align	2
	.type	_ZN10OutputPortINSt3__24pairIffEEE7presentEv,%function
	.code	16                              @ @_ZN10OutputPortINSt3__24pairIffEEE7presentEv
	.thumb_func
_ZN10OutputPortINSt3__24pairIffEEE7presentEv:
.Lfunc_begin62:
	.loc	11 73 0 is_stmt 1               @ ../MotorControl\component.hpp:73:0
	.fnstart
	.cfi_startproc
@ %bb.0:
	.save	{r7, lr}
	push	{r7, lr}
	.cfi_def_cfa_offset 8
	.cfi_offset lr, -4
	.cfi_offset r7, -8
	.pad	#16
	sub	sp, #16
	.cfi_def_cfa_offset 24
	str	r0, [sp]                        @ 4-byte Spill
	str	r1, [sp, #12]
	ldr	r0, [sp, #12]
.Ltmp162:
	.loc	11 74 13 prologue_end           @ ../MotorControl\component.hpp:74:13
	str	r0, [sp, #4]                    @ 4-byte Spill
	ldr	r0, [r0]
.Ltmp163:
	.loc	11 74 13 is_stmt 0              @ ../MotorControl\component.hpp:74:13
	cbnz	r0, .LBB62_2
	b	.LBB62_1
.LBB62_1:
.Ltmp164:
	.loc	11 75 20 is_stmt 1              @ ../MotorControl\component.hpp:75:20
	ldr	r0, [sp]                        @ 4-byte Reload
	ldr	r1, [sp, #4]                    @ 4-byte Reload
	adds	r1, #4
	bl	_ZNSt3__28optionalINS_4pairIffEEEC2B7v180000IRS2_Li0EEEOT_
	.loc	11 75 13 is_stmt 0              @ ../MotorControl\component.hpp:75:13
	b	.LBB62_3
.Ltmp165:
.LBB62_2:
	.loc	11 77 20 is_stmt 1              @ ../MotorControl\component.hpp:77:20
	ldr	r0, [sp]                        @ 4-byte Reload
	bl	_ZNSt3__28optionalINS_4pairIffEEEC2B7v180000ENS_9nullopt_tE
	.loc	11 77 13 is_stmt 0              @ ../MotorControl\component.hpp:77:13
	b	.LBB62_3
.Ltmp166:
.LBB62_3:
	.loc	11 79 5 epilogue_begin is_stmt 1 @ ../MotorControl\component.hpp:79:5
	add	sp, #16
	pop	{r7, pc}
.Ltmp167:
.Lfunc_end62:
	.size	_ZN10OutputPortINSt3__24pairIffEEE7presentEv, .Lfunc_end62-_ZN10OutputPortINSt3__24pairIffEEE7presentEv
	.cfi_endproc
	.cantunwind
	.fnend
                                        @ -- End function
	.section	.text._ZNSt3__28optionalINS_4pairIffEEEC2B7v180000ENS_9nullopt_tE,"axG",%progbits,_ZNSt3__28optionalINS_4pairIffEEEC2B7v180000ENS_9nullopt_tE,comdat
	.hidden	_ZNSt3__28optionalINS_4pairIffEEEC2B7v180000ENS_9nullopt_tE @ -- Begin function _ZNSt3__28optionalINS_4pairIffEEEC2B7v180000ENS_9nullopt_tE
	.weak	_ZNSt3__28optionalINS_4pairIffEEEC2B7v180000ENS_9nullopt_tE
	.p2align	2
	.type	_ZNSt3__28optionalINS_4pairIffEEEC2B7v180000ENS_9nullopt_tE,%function
	.code	16                              @ @_ZNSt3__28optionalINS_4pairIffEEEC2B7v180000ENS_9nullopt_tE
	.thumb_func
_ZNSt3__28optionalINS_4pairIffEEEC2B7v180000ENS_9nullopt_tE:
.Lfunc_begin63:
	.loc	5 803 0                         @ D:\Embed\MDK\MDK\ARM\ARMCompilerV621\Bin\..\include\libcxx\optional:803:0
	.fnstart
	.cfi_startproc
@ %bb.0:
	.save	{r7, lr}
	push	{r7, lr}
	.cfi_def_cfa_offset 8
	.cfi_offset lr, -4
	.cfi_offset r7, -8
	.pad	#16
	sub	sp, #16
	.cfi_def_cfa_offset 24
	str	r0, [sp, #8]
	ldr	r0, [sp, #8]
.Ltmp168:
	.loc	5 803 41 prologue_end           @ D:\Embed\MDK\MDK\ARM\ARMCompilerV621\Bin\..\include\libcxx\optional:803:41
	str	r0, [sp, #4]                    @ 4-byte Spill
	bl	_ZNSt3__227__optional_move_assign_baseINS_4pairIffEELb0EEC2B7v180000Ev
	ldr	r0, [sp, #4]                    @ 4-byte Reload
	.loc	5 803 71 epilogue_begin is_stmt 0 @ D:\Embed\MDK\MDK\ARM\ARMCompilerV621\Bin\..\include\libcxx\optional:803:71
	add	sp, #16
	pop	{r7, pc}
.Ltmp169:
.Lfunc_end63:
	.size	_ZNSt3__28optionalINS_4pairIffEEEC2B7v180000ENS_9nullopt_tE, .Lfunc_end63-_ZNSt3__28optionalINS_4pairIffEEEC2B7v180000ENS_9nullopt_tE
	.cfi_endproc
	.cantunwind
	.fnend
                                        @ -- End function
	.section	.text._ZNSt3__23getB7v180000ILj1EJNS_4pairIffEEPS2_P10OutputPortIS2_EEEERNS_19variant_alternativeIXT_ENS_7variantIJDpT0_EEEE4typeERSB_,"axG",%progbits,_ZNSt3__23getB7v180000ILj1EJNS_4pairIffEEPS2_P10OutputPortIS2_EEEERNS_19variant_alternativeIXT_ENS_7variantIJDpT0_EEEE4typeERSB_,comdat
	.hidden	_ZNSt3__23getB7v180000ILj1EJNS_4pairIffEEPS2_P10OutputPortIS2_EEEERNS_19variant_alternativeIXT_ENS_7variantIJDpT0_EEEE4typeERSB_ @ -- Begin function _ZNSt3__23getB7v180000ILj1EJNS_4pairIffEEPS2_P10OutputPortIS2_EEEERNS_19variant_alternativeIXT_ENS_7variantIJDpT0_EEEE4typeERSB_
	.weak	_ZNSt3__23getB7v180000ILj1EJNS_4pairIffEEPS2_P10OutputPortIS2_EEEERNS_19variant_alternativeIXT_ENS_7variantIJDpT0_EEEE4typeERSB_
	.p2align	2
	.type	_ZNSt3__23getB7v180000ILj1EJNS_4pairIffEEPS2_P10OutputPortIS2_EEEERNS_19variant_alternativeIXT_ENS_7variantIJDpT0_EEEE4typeERSB_,%function
	.code	16                              @ @_ZNSt3__23getB7v180000ILj1EJNS_4pairIffEEPS2_P10OutputPortIS2_EEEERNS_19variant_alternativeIXT_ENS_7variantIJDpT0_EEEE4typeERSB_
	.thumb_func
_ZNSt3__23getB7v180000ILj1EJNS_4pairIffEEPS2_P10OutputPortIS2_EEEERNS_19variant_alternativeIXT_ENS_7variantIJDpT0_EEEE4typeERSB_:
.Lfunc_begin64:
	.loc	2 1524 0 is_stmt 1              @ D:\Embed\MDK\MDK\ARM\ARMCompilerV621\Bin\..\include\libcxx\variant:1524:0
	.fnstart
	.cfi_startproc
@ %bb.0:
	.save	{r7, lr}
	push	{r7, lr}
	.cfi_def_cfa_offset 8
	.cfi_offset lr, -4
	.cfi_offset r7, -8
	.pad	#8
	sub	sp, #8
	.cfi_def_cfa_offset 16
	str	r0, [sp, #4]
.Ltmp170:
	.loc	2 1527 34 prologue_end          @ D:\Embed\MDK\MDK\ARM\ARMCompilerV621\Bin\..\include\libcxx\variant:1527:34
	ldr	r0, [sp, #4]
	.loc	2 1527 10 is_stmt 0             @ D:\Embed\MDK\MDK\ARM\ARMCompilerV621\Bin\..\include\libcxx\variant:1527:10
	bl	_ZNSt3__213__generic_getB7v180000ILj1ERNS_7variantIJNS_4pairIffEEPS3_P10OutputPortIS3_EEEEEEODaOT0_
	.loc	2 1527 3 epilogue_begin         @ D:\Embed\MDK\MDK\ARM\ARMCompilerV621\Bin\..\include\libcxx\variant:1527:3
	add	sp, #8
	pop	{r7, pc}
.Ltmp171:
.Lfunc_end64:
	.size	_ZNSt3__23getB7v180000ILj1EJNS_4pairIffEEPS2_P10OutputPortIS2_EEEERNS_19variant_alternativeIXT_ENS_7variantIJDpT0_EEEE4typeERSB_, .Lfunc_end64-_ZNSt3__23getB7v180000ILj1EJNS_4pairIffEEPS2_P10OutputPortIS2_EEEERNS_19variant_alternativeIXT_ENS_7variantIJDpT0_EEEE4typeERSB_
	.cfi_endproc
	.cantunwind
	.fnend
                                        @ -- End function
	.section	.text._ZNSt3__213make_optionalB7v180000IRNS_4pairIffEEEENS_8optionalIu7__decayIT_EEEOS5_,"axG",%progbits,_ZNSt3__213make_optionalB7v180000IRNS_4pairIffEEEENS_8optionalIu7__decayIT_EEEOS5_,comdat
	.hidden	_ZNSt3__213make_optionalB7v180000IRNS_4pairIffEEEENS_8optionalIu7__decayIT_EEEOS5_ @ -- Begin function _ZNSt3__213make_optionalB7v180000IRNS_4pairIffEEEENS_8optionalIu7__decayIT_EEEOS5_
	.weak	_ZNSt3__213make_optionalB7v180000IRNS_4pairIffEEEENS_8optionalIu7__decayIT_EEEOS5_
	.p2align	2
	.type	_ZNSt3__213make_optionalB7v180000IRNS_4pairIffEEEENS_8optionalIu7__decayIT_EEEOS5_,%function
	.code	16                              @ @_ZNSt3__213make_optionalB7v180000IRNS_4pairIffEEEENS_8optionalIu7__decayIT_EEEOS5_
	.thumb_func
_ZNSt3__213make_optionalB7v180000IRNS_4pairIffEEEENS_8optionalIu7__decayIT_EEEOS5_:
.Lfunc_begin65:
	.loc	5 1637 0 is_stmt 1              @ D:\Embed\MDK\MDK\ARM\ARMCompilerV621\Bin\..\include\libcxx\optional:1637:0
	.fnstart
	.cfi_startproc
@ %bb.0:
	.save	{r7, lr}
	push	{r7, lr}
	.cfi_def_cfa_offset 8
	.cfi_offset lr, -4
	.cfi_offset r7, -8
	.pad	#8
	sub	sp, #8
	.cfi_def_cfa_offset 16
	str	r1, [sp, #4]
.Ltmp172:
	.loc	5 1638 55 prologue_end          @ D:\Embed\MDK\MDK\ARM\ARMCompilerV621\Bin\..\include\libcxx\optional:1638:55
	ldr	r1, [sp, #4]
	.loc	5 1638 12 is_stmt 0             @ D:\Embed\MDK\MDK\ARM\ARMCompilerV621\Bin\..\include\libcxx\optional:1638:12
	bl	_ZNSt3__28optionalINS_4pairIffEEEC2B7v180000IRS2_Li0EEEOT_
	.loc	5 1638 5 epilogue_begin         @ D:\Embed\MDK\MDK\ARM\ARMCompilerV621\Bin\..\include\libcxx\optional:1638:5
	add	sp, #8
	pop	{r7, pc}
.Ltmp173:
.Lfunc_end65:
	.size	_ZNSt3__213make_optionalB7v180000IRNS_4pairIffEEEENS_8optionalIu7__decayIT_EEEOS5_, .Lfunc_end65-_ZNSt3__213make_optionalB7v180000IRNS_4pairIffEEEENS_8optionalIu7__decayIT_EEEOS5_
	.cfi_endproc
	.cantunwind
	.fnend
                                        @ -- End function
	.section	.text._ZNSt3__23getB7v180000ILj0EJNS_4pairIffEEPS2_P10OutputPortIS2_EEEERNS_19variant_alternativeIXT_ENS_7variantIJDpT0_EEEE4typeERSB_,"axG",%progbits,_ZNSt3__23getB7v180000ILj0EJNS_4pairIffEEPS2_P10OutputPortIS2_EEEERNS_19variant_alternativeIXT_ENS_7variantIJDpT0_EEEE4typeERSB_,comdat
	.hidden	_ZNSt3__23getB7v180000ILj0EJNS_4pairIffEEPS2_P10OutputPortIS2_EEEERNS_19variant_alternativeIXT_ENS_7variantIJDpT0_EEEE4typeERSB_ @ -- Begin function _ZNSt3__23getB7v180000ILj0EJNS_4pairIffEEPS2_P10OutputPortIS2_EEEERNS_19variant_alternativeIXT_ENS_7variantIJDpT0_EEEE4typeERSB_
	.weak	_ZNSt3__23getB7v180000ILj0EJNS_4pairIffEEPS2_P10OutputPortIS2_EEEERNS_19variant_alternativeIXT_ENS_7variantIJDpT0_EEEE4typeERSB_
	.p2align	2
	.type	_ZNSt3__23getB7v180000ILj0EJNS_4pairIffEEPS2_P10OutputPortIS2_EEEERNS_19variant_alternativeIXT_ENS_7variantIJDpT0_EEEE4typeERSB_,%function
	.code	16                              @ @_ZNSt3__23getB7v180000ILj0EJNS_4pairIffEEPS2_P10OutputPortIS2_EEEERNS_19variant_alternativeIXT_ENS_7variantIJDpT0_EEEE4typeERSB_
	.thumb_func
_ZNSt3__23getB7v180000ILj0EJNS_4pairIffEEPS2_P10OutputPortIS2_EEEERNS_19variant_alternativeIXT_ENS_7variantIJDpT0_EEEE4typeERSB_:
.Lfunc_begin66:
	.loc	2 1524 0 is_stmt 1              @ D:\Embed\MDK\MDK\ARM\ARMCompilerV621\Bin\..\include\libcxx\variant:1524:0
	.fnstart
	.cfi_startproc
@ %bb.0:
	.save	{r7, lr}
	push	{r7, lr}
	.cfi_def_cfa_offset 8
	.cfi_offset lr, -4
	.cfi_offset r7, -8
	.pad	#8
	sub	sp, #8
	.cfi_def_cfa_offset 16
	str	r0, [sp, #4]
.Ltmp174:
	.loc	2 1527 34 prologue_end          @ D:\Embed\MDK\MDK\ARM\ARMCompilerV621\Bin\..\include\libcxx\variant:1527:34
	ldr	r0, [sp, #4]
	.loc	2 1527 10 is_stmt 0             @ D:\Embed\MDK\MDK\ARM\ARMCompilerV621\Bin\..\include\libcxx\variant:1527:10
	bl	_ZNSt3__213__generic_getB7v180000ILj0ERNS_7variantIJNS_4pairIffEEPS3_P10OutputPortIS3_EEEEEEODaOT0_
	.loc	2 1527 3 epilogue_begin         @ D:\Embed\MDK\MDK\ARM\ARMCompilerV621\Bin\..\include\libcxx\variant:1527:3
	add	sp, #8
	pop	{r7, pc}
.Ltmp175:
.Lfunc_end66:
	.size	_ZNSt3__23getB7v180000ILj0EJNS_4pairIffEEPS2_P10OutputPortIS2_EEEERNS_19variant_alternativeIXT_ENS_7variantIJDpT0_EEEE4typeERSB_, .Lfunc_end66-_ZNSt3__23getB7v180000ILj0EJNS_4pairIffEEPS2_P10OutputPortIS2_EEEERNS_19variant_alternativeIXT_ENS_7variantIJDpT0_EEEE4typeERSB_
	.cfi_endproc
	.cantunwind
	.fnend
                                        @ -- End function
	.section	.text._ZNSt3__28optionalINS_4pairIffEEEC2B7v180000IRS2_Li0EEEOT_,"axG",%progbits,_ZNSt3__28optionalINS_4pairIffEEEC2B7v180000IRS2_Li0EEEOT_,comdat
	.hidden	_ZNSt3__28optionalINS_4pairIffEEEC2B7v180000IRS2_Li0EEEOT_ @ -- Begin function _ZNSt3__28optionalINS_4pairIffEEEC2B7v180000IRS2_Li0EEEOT_
	.weak	_ZNSt3__28optionalINS_4pairIffEEEC2B7v180000IRS2_Li0EEEOT_
	.p2align	2
	.type	_ZNSt3__28optionalINS_4pairIffEEEC2B7v180000IRS2_Li0EEEOT_,%function
	.code	16                              @ @_ZNSt3__28optionalINS_4pairIffEEEC2B7v180000IRS2_Li0EEEOT_
	.thumb_func
_ZNSt3__28optionalINS_4pairIffEEEC2B7v180000IRS2_Li0EEEOT_:
.Lfunc_begin67:
	.loc	5 828 0 is_stmt 1               @ D:\Embed\MDK\MDK\ARM\ARMCompilerV621\Bin\..\include\libcxx\optional:828:0
	.fnstart
	.cfi_startproc
@ %bb.0:
	.save	{r7, lr}
	push	{r7, lr}
	.cfi_def_cfa_offset 8
	.cfi_offset lr, -4
	.cfi_offset r7, -8
	.pad	#16
	sub	sp, #16
	.cfi_def_cfa_offset 24
	str	r0, [sp, #12]
	str	r1, [sp, #8]
	ldr	r0, [sp, #12]
.Ltmp176:
	.loc	5 828 48 prologue_end           @ D:\Embed\MDK\MDK\ARM\ARMCompilerV621\Bin\..\include\libcxx\optional:828:48
	str	r0, [sp]                        @ 4-byte Spill
	ldr	r1, [sp, #8]
	.loc	5 828 11 is_stmt 0              @ D:\Embed\MDK\MDK\ARM\ARMCompilerV621\Bin\..\include\libcxx\optional:828:11
	bl	_ZNSt3__227__optional_move_assign_baseINS_4pairIffEELb0EECI2NS_24__optional_destruct_baseIS2_Lb1EEEIJRS2_EEENS_10in_place_tEDpOT_
	ldr	r0, [sp]                        @ 4-byte Reload
	.loc	5 828 55 epilogue_begin         @ D:\Embed\MDK\MDK\ARM\ARMCompilerV621\Bin\..\include\libcxx\optional:828:55
	add	sp, #16
	pop	{r7, pc}
.Ltmp177:
.Lfunc_end67:
	.size	_ZNSt3__28optionalINS_4pairIffEEEC2B7v180000IRS2_Li0EEEOT_, .Lfunc_end67-_ZNSt3__28optionalINS_4pairIffEEEC2B7v180000IRS2_Li0EEEOT_
	.cfi_endproc
	.cantunwind
	.fnend
                                        @ -- End function
	.section	.text._ZNKSt3__216__variant_detail6__baseILNS0_6_TraitE0EJNS_4pairIffEEPS4_P10OutputPortIS4_EEE5indexB7v180000Ev,"axG",%progbits,_ZNKSt3__216__variant_detail6__baseILNS0_6_TraitE0EJNS_4pairIffEEPS4_P10OutputPortIS4_EEE5indexB7v180000Ev,comdat
	.hidden	_ZNKSt3__216__variant_detail6__baseILNS0_6_TraitE0EJNS_4pairIffEEPS4_P10OutputPortIS4_EEE5indexB7v180000Ev @ -- Begin function _ZNKSt3__216__variant_detail6__baseILNS0_6_TraitE0EJNS_4pairIffEEPS4_P10OutputPortIS4_EEE5indexB7v180000Ev
	.weak	_ZNKSt3__216__variant_detail6__baseILNS0_6_TraitE0EJNS_4pairIffEEPS4_P10OutputPortIS4_EEE5indexB7v180000Ev
	.p2align	2
	.type	_ZNKSt3__216__variant_detail6__baseILNS0_6_TraitE0EJNS_4pairIffEEPS4_P10OutputPortIS4_EEE5indexB7v180000Ev,%function
	.code	16                              @ @_ZNKSt3__216__variant_detail6__baseILNS0_6_TraitE0EJNS_4pairIffEEPS4_P10OutputPortIS4_EEE5indexB7v180000Ev
	.thumb_func
_ZNKSt3__216__variant_detail6__baseILNS0_6_TraitE0EJNS_4pairIffEEPS4_P10OutputPortIS4_EEE5indexB7v180000Ev:
.Lfunc_begin68:
	.loc	2 820 0 is_stmt 1               @ D:\Embed\MDK\MDK\ARM\ARMCompilerV621\Bin\..\include\libcxx\variant:820:0
	.fnstart
	.cfi_startproc
@ %bb.0:
	.pad	#12
	sub	sp, #12
	.cfi_def_cfa_offset 12
	str	r0, [sp, #8]
	ldr	r0, [sp, #8]
.Ltmp178:
	.loc	2 821 12 prologue_end           @ D:\Embed\MDK\MDK\ARM\ARMCompilerV621\Bin\..\include\libcxx\variant:821:12
	str	r0, [sp, #4]                    @ 4-byte Spill
	ldrb	r0, [r0, #8]
	cmp	r0, #255
	bne	.LBB68_2
	b	.LBB68_1
.LBB68_1:
	.loc	2 0 12 is_stmt 0                @ D:\Embed\MDK\MDK\ARM\ARMCompilerV621\Bin\..\include\libcxx\variant:0:12
	mov.w	r0, #-1
	.loc	2 821 12                        @ D:\Embed\MDK\MDK\ARM\ARMCompilerV621\Bin\..\include\libcxx\variant:821:12
	str	r0, [sp]                        @ 4-byte Spill
	b	.LBB68_3
.LBB68_2:
	.loc	2 821 66                        @ D:\Embed\MDK\MDK\ARM\ARMCompilerV621\Bin\..\include\libcxx\variant:821:66
	ldr	r0, [sp, #4]                    @ 4-byte Reload
	ldrb	r0, [r0, #8]
	.loc	2 821 12                        @ D:\Embed\MDK\MDK\ARM\ARMCompilerV621\Bin\..\include\libcxx\variant:821:12
	str	r0, [sp]                        @ 4-byte Spill
	b	.LBB68_3
.LBB68_3:
	ldr	r0, [sp]                        @ 4-byte Reload
	.loc	2 821 5 epilogue_begin          @ D:\Embed\MDK\MDK\ARM\ARMCompilerV621\Bin\..\include\libcxx\variant:821:5
	add	sp, #12
	bx	lr
.Ltmp179:
.Lfunc_end68:
	.size	_ZNKSt3__216__variant_detail6__baseILNS0_6_TraitE0EJNS_4pairIffEEPS4_P10OutputPortIS4_EEE5indexB7v180000Ev, .Lfunc_end68-_ZNKSt3__216__variant_detail6__baseILNS0_6_TraitE0EJNS_4pairIffEEPS4_P10OutputPortIS4_EEE5indexB7v180000Ev
	.cfi_endproc
	.cantunwind
	.fnend
                                        @ -- End function
	.section	.text._ZNSt3__213__generic_getB7v180000ILj2ERNS_7variantIJNS_4pairIffEEPS3_P10OutputPortIS3_EEEEEEODaOT0_,"axG",%progbits,_ZNSt3__213__generic_getB7v180000ILj2ERNS_7variantIJNS_4pairIffEEPS3_P10OutputPortIS3_EEEEEEODaOT0_,comdat
	.hidden	_ZNSt3__213__generic_getB7v180000ILj2ERNS_7variantIJNS_4pairIffEEPS3_P10OutputPortIS3_EEEEEEODaOT0_ @ -- Begin function _ZNSt3__213__generic_getB7v180000ILj2ERNS_7variantIJNS_4pairIffEEPS3_P10OutputPortIS3_EEEEEEODaOT0_
	.weak	_ZNSt3__213__generic_getB7v180000ILj2ERNS_7variantIJNS_4pairIffEEPS3_P10OutputPortIS3_EEEEEEODaOT0_
	.p2align	2
	.type	_ZNSt3__213__generic_getB7v180000ILj2ERNS_7variantIJNS_4pairIffEEPS3_P10OutputPortIS3_EEEEEEODaOT0_,%function
	.code	16                              @ @_ZNSt3__213__generic_getB7v180000ILj2ERNS_7variantIJNS_4pairIffEEPS3_P10OutputPortIS3_EEEEEEODaOT0_
	.thumb_func
_ZNSt3__213__generic_getB7v180000ILj2ERNS_7variantIJNS_4pairIffEEPS3_P10OutputPortIS3_EEEEEEODaOT0_:
.Lfunc_begin69:
	.loc	2 1512 0 is_stmt 1              @ D:\Embed\MDK\MDK\ARM\ARMCompilerV621\Bin\..\include\libcxx\variant:1512:0
	.fnstart
	.cfi_startproc
@ %bb.0:
	.save	{r7, lr}
	push	{r7, lr}
	.cfi_def_cfa_offset 8
	.cfi_offset lr, -4
	.cfi_offset r7, -8
	.pad	#8
	sub	sp, #8
	.cfi_def_cfa_offset 16
	str	r0, [sp, #4]
.Ltmp180:
	.loc	2 1514 38 prologue_end          @ D:\Embed\MDK\MDK\ARM\ARMCompilerV621\Bin\..\include\libcxx\variant:1514:38
	ldr	r0, [sp, #4]
	.loc	2 1514 8 is_stmt 0              @ D:\Embed\MDK\MDK\ARM\ARMCompilerV621\Bin\..\include\libcxx\variant:1514:8
	bl	_ZNSt3__219__holds_alternativeB7v180000ILj2EJNS_4pairIffEEPS2_P10OutputPortIS2_EEEEbRKNS_7variantIJDpT0_EEE
.Ltmp181:
	.loc	2 1514 7                        @ D:\Embed\MDK\MDK\ARM\ARMCompilerV621\Bin\..\include\libcxx\variant:1514:7
	cbnz	r0, .LBB69_2
	b	.LBB69_1
.LBB69_1:
.Ltmp182:
	.loc	2 1515 5 is_stmt 1              @ D:\Embed\MDK\MDK\ARM\ARMCompilerV621\Bin\..\include\libcxx\variant:1515:5
	bl	_ZNSt3__226__throw_bad_variant_accessB7v180000Ev
.Ltmp183:
.LBB69_2:
	.loc	2 1517 56                       @ D:\Embed\MDK\MDK\ARM\ARMCompilerV621\Bin\..\include\libcxx\variant:1517:56
	ldr	r0, [sp, #4]
	.loc	2 1517 10 is_stmt 0             @ D:\Embed\MDK\MDK\ARM\ARMCompilerV621\Bin\..\include\libcxx\variant:1517:10
	bl	_ZNSt3__216__variant_detail8__access9__variant9__get_altB7v180000ILj2ERNS_7variantIJNS_4pairIffEEPS6_P10OutputPortIS6_EEEEEEODaOT0_
	.loc	2 1517 3 epilogue_begin         @ D:\Embed\MDK\MDK\ARM\ARMCompilerV621\Bin\..\include\libcxx\variant:1517:3
	add	sp, #8
	pop	{r7, pc}
.Ltmp184:
.Lfunc_end69:
	.size	_ZNSt3__213__generic_getB7v180000ILj2ERNS_7variantIJNS_4pairIffEEPS3_P10OutputPortIS3_EEEEEEODaOT0_, .Lfunc_end69-_ZNSt3__213__generic_getB7v180000ILj2ERNS_7variantIJNS_4pairIffEEPS3_P10OutputPortIS3_EEEEEEODaOT0_
	.cfi_endproc
	.cantunwind
	.fnend
                                        @ -- End function
	.section	.text._ZNSt3__219__holds_alternativeB7v180000ILj2EJNS_4pairIffEEPS2_P10OutputPortIS2_EEEEbRKNS_7variantIJDpT0_EEE,"axG",%progbits,_ZNSt3__219__holds_alternativeB7v180000ILj2EJNS_4pairIffEEPS2_P10OutputPortIS2_EEEEbRKNS_7variantIJDpT0_EEE,comdat
	.hidden	_ZNSt3__219__holds_alternativeB7v180000ILj2EJNS_4pairIffEEPS2_P10OutputPortIS2_EEEEbRKNS_7variantIJDpT0_EEE @ -- Begin function _ZNSt3__219__holds_alternativeB7v180000ILj2EJNS_4pairIffEEPS2_P10OutputPortIS2_EEEEbRKNS_7variantIJDpT0_EEE
	.weak	_ZNSt3__219__holds_alternativeB7v180000ILj2EJNS_4pairIffEEPS2_P10OutputPortIS2_EEEEbRKNS_7variantIJDpT0_EEE
	.p2align	2
	.type	_ZNSt3__219__holds_alternativeB7v180000ILj2EJNS_4pairIffEEPS2_P10OutputPortIS2_EEEEbRKNS_7variantIJDpT0_EEE,%function
	.code	16                              @ @_ZNSt3__219__holds_alternativeB7v180000ILj2EJNS_4pairIffEEPS2_P10OutputPortIS2_EEEEbRKNS_7variantIJDpT0_EEE
	.thumb_func
_ZNSt3__219__holds_alternativeB7v180000ILj2EJNS_4pairIffEEPS2_P10OutputPortIS2_EEEEbRKNS_7variantIJDpT0_EEE:
.Lfunc_begin70:
	.loc	2 1499 0 is_stmt 1              @ D:\Embed\MDK\MDK\ARM\ARMCompilerV621\Bin\..\include\libcxx\variant:1499:0
	.fnstart
	.cfi_startproc
@ %bb.0:
	.save	{r7, lr}
	push	{r7, lr}
	.cfi_def_cfa_offset 8
	.cfi_offset lr, -4
	.cfi_offset r7, -8
	.pad	#8
	sub	sp, #8
	.cfi_def_cfa_offset 16
	str	r0, [sp, #4]
.Ltmp185:
	.loc	2 1500 10 prologue_end          @ D:\Embed\MDK\MDK\ARM\ARMCompilerV621\Bin\..\include\libcxx\variant:1500:10
	ldr	r0, [sp, #4]
	.loc	2 1500 14 is_stmt 0             @ D:\Embed\MDK\MDK\ARM\ARMCompilerV621\Bin\..\include\libcxx\variant:1500:14
	bl	_ZNKSt3__27variantIJNS_4pairIffEEPS2_P10OutputPortIS2_EEE5indexB7v180000Ev
	.loc	2 1500 22                       @ D:\Embed\MDK\MDK\ARM\ARMCompilerV621\Bin\..\include\libcxx\variant:1500:22
	subs	r0, #2
	clz	r0, r0
	lsrs	r0, r0, #5
	.loc	2 1500 3 epilogue_begin         @ D:\Embed\MDK\MDK\ARM\ARMCompilerV621\Bin\..\include\libcxx\variant:1500:3
	add	sp, #8
	pop	{r7, pc}
.Ltmp186:
.Lfunc_end70:
	.size	_ZNSt3__219__holds_alternativeB7v180000ILj2EJNS_4pairIffEEPS2_P10OutputPortIS2_EEEEbRKNS_7variantIJDpT0_EEE, .Lfunc_end70-_ZNSt3__219__holds_alternativeB7v180000ILj2EJNS_4pairIffEEPS2_P10OutputPortIS2_EEEEbRKNS_7variantIJDpT0_EEE
	.cfi_endproc
	.cantunwind
	.fnend
                                        @ -- End function
	.section	.text._ZNSt3__216__variant_detail8__access9__variant9__get_altB7v180000ILj2ERNS_7variantIJNS_4pairIffEEPS6_P10OutputPortIS6_EEEEEEODaOT0_,"axG",%progbits,_ZNSt3__216__variant_detail8__access9__variant9__get_altB7v180000ILj2ERNS_7variantIJNS_4pairIffEEPS6_P10OutputPortIS6_EEEEEEODaOT0_,comdat
	.hidden	_ZNSt3__216__variant_detail8__access9__variant9__get_altB7v180000ILj2ERNS_7variantIJNS_4pairIffEEPS6_P10OutputPortIS6_EEEEEEODaOT0_ @ -- Begin function _ZNSt3__216__variant_detail8__access9__variant9__get_altB7v180000ILj2ERNS_7variantIJNS_4pairIffEEPS6_P10OutputPortIS6_EEEEEEODaOT0_
	.weak	_ZNSt3__216__variant_detail8__access9__variant9__get_altB7v180000ILj2ERNS_7variantIJNS_4pairIffEEPS6_P10OutputPortIS6_EEEEEEODaOT0_
	.p2align	2
	.type	_ZNSt3__216__variant_detail8__access9__variant9__get_altB7v180000ILj2ERNS_7variantIJNS_4pairIffEEPS6_P10OutputPortIS6_EEEEEEODaOT0_,%function
	.code	16                              @ @_ZNSt3__216__variant_detail8__access9__variant9__get_altB7v180000ILj2ERNS_7variantIJNS_4pairIffEEPS6_P10OutputPortIS6_EEEEEEODaOT0_
	.thumb_func
_ZNSt3__216__variant_detail8__access9__variant9__get_altB7v180000ILj2ERNS_7variantIJNS_4pairIffEEPS6_P10OutputPortIS6_EEEEEEODaOT0_:
.Lfunc_begin71:
	.loc	2 507 0 is_stmt 1               @ D:\Embed\MDK\MDK\ARM\ARMCompilerV621\Bin\..\include\libcxx\variant:507:0
	.fnstart
	.cfi_startproc
@ %bb.0:
	.save	{r7, lr}
	push	{r7, lr}
	.cfi_def_cfa_offset 8
	.cfi_offset lr, -4
	.cfi_offset r7, -8
	.pad	#8
	sub	sp, #8
	.cfi_def_cfa_offset 16
	str	r0, [sp, #4]
.Ltmp187:
	.loc	2 508 55 prologue_end           @ D:\Embed\MDK\MDK\ARM\ARMCompilerV621\Bin\..\include\libcxx\variant:508:55
	ldr	r0, [sp, #4]
	.loc	2 508 12 is_stmt 0              @ D:\Embed\MDK\MDK\ARM\ARMCompilerV621\Bin\..\include\libcxx\variant:508:12
	bl	_ZNSt3__216__variant_detail8__access6__base9__get_altB7v180000ILj2ERNS0_6__implIJNS_4pairIffEEPS6_P10OutputPortIS6_EEEEEEODaOT0_
	.loc	2 508 5 epilogue_begin          @ D:\Embed\MDK\MDK\ARM\ARMCompilerV621\Bin\..\include\libcxx\variant:508:5
	add	sp, #8
	pop	{r7, pc}
.Ltmp188:
.Lfunc_end71:
	.size	_ZNSt3__216__variant_detail8__access9__variant9__get_altB7v180000ILj2ERNS_7variantIJNS_4pairIffEEPS6_P10OutputPortIS6_EEEEEEODaOT0_, .Lfunc_end71-_ZNSt3__216__variant_detail8__access9__variant9__get_altB7v180000ILj2ERNS_7variantIJNS_4pairIffEEPS6_P10OutputPortIS6_EEEEEEODaOT0_
	.cfi_endproc
	.cantunwind
	.fnend
                                        @ -- End function
	.section	.text._ZNSt3__216__variant_detail8__access6__base9__get_altB7v180000ILj2ERNS0_6__implIJNS_4pairIffEEPS6_P10OutputPortIS6_EEEEEEODaOT0_,"axG",%progbits,_ZNSt3__216__variant_detail8__access6__base9__get_altB7v180000ILj2ERNS0_6__implIJNS_4pairIffEEPS6_P10OutputPortIS6_EEEEEEODaOT0_,comdat
	.hidden	_ZNSt3__216__variant_detail8__access6__base9__get_altB7v180000ILj2ERNS0_6__implIJNS_4pairIffEEPS6_P10OutputPortIS6_EEEEEEODaOT0_ @ -- Begin function _ZNSt3__216__variant_detail8__access6__base9__get_altB7v180000ILj2ERNS0_6__implIJNS_4pairIffEEPS6_P10OutputPortIS6_EEEEEEODaOT0_
	.weak	_ZNSt3__216__variant_detail8__access6__base9__get_altB7v180000ILj2ERNS0_6__implIJNS_4pairIffEEPS6_P10OutputPortIS6_EEEEEEODaOT0_
	.p2align	2
	.type	_ZNSt3__216__variant_detail8__access6__base9__get_altB7v180000ILj2ERNS0_6__implIJNS_4pairIffEEPS6_P10OutputPortIS6_EEEEEEODaOT0_,%function
	.code	16                              @ @_ZNSt3__216__variant_detail8__access6__base9__get_altB7v180000ILj2ERNS0_6__implIJNS_4pairIffEEPS6_P10OutputPortIS6_EEEEEEODaOT0_
	.thumb_func
_ZNSt3__216__variant_detail8__access6__base9__get_altB7v180000ILj2ERNS0_6__implIJNS_4pairIffEEPS6_P10OutputPortIS6_EEEEEEODaOT0_:
.Lfunc_begin72:
	.loc	2 498 0 is_stmt 1               @ D:\Embed\MDK\MDK\ARM\ARMCompilerV621\Bin\..\include\libcxx\variant:498:0
	.fnstart
	.cfi_startproc
@ %bb.0:
	.save	{r7, lr}
	push	{r7, lr}
	.cfi_def_cfa_offset 8
	.cfi_offset lr, -4
	.cfi_offset r7, -8
	.pad	#8
	sub	sp, #8
	.cfi_def_cfa_offset 16
	str	r0, [sp, #4]
.Ltmp189:
	.loc	2 499 51 prologue_end           @ D:\Embed\MDK\MDK\ARM\ARMCompilerV621\Bin\..\include\libcxx\variant:499:51
	ldr	r0, [sp, #4]
	.loc	2 499 12 is_stmt 0              @ D:\Embed\MDK\MDK\ARM\ARMCompilerV621\Bin\..\include\libcxx\variant:499:12
	bl	_ZNSt3__216__variant_detail8__access7__union9__get_altB7v180000IRNS0_7__unionILNS0_6_TraitE0ELj0EJNS_4pairIffEEPS7_P10OutputPortIS7_EEEELj2EEEODaOT_NS_16in_place_index_tIXT0_EEE
	.loc	2 499 5 epilogue_begin          @ D:\Embed\MDK\MDK\ARM\ARMCompilerV621\Bin\..\include\libcxx\variant:499:5
	add	sp, #8
	pop	{r7, pc}
.Ltmp190:
.Lfunc_end72:
	.size	_ZNSt3__216__variant_detail8__access6__base9__get_altB7v180000ILj2ERNS0_6__implIJNS_4pairIffEEPS6_P10OutputPortIS6_EEEEEEODaOT0_, .Lfunc_end72-_ZNSt3__216__variant_detail8__access6__base9__get_altB7v180000ILj2ERNS0_6__implIJNS_4pairIffEEPS6_P10OutputPortIS6_EEEEEEODaOT0_
	.cfi_endproc
	.cantunwind
	.fnend
                                        @ -- End function
	.section	.text._ZNSt3__216__variant_detail8__access7__union9__get_altB7v180000IRNS0_7__unionILNS0_6_TraitE0ELj0EJNS_4pairIffEEPS7_P10OutputPortIS7_EEEELj2EEEODaOT_NS_16in_place_index_tIXT0_EEE,"axG",%progbits,_ZNSt3__216__variant_detail8__access7__union9__get_altB7v180000IRNS0_7__unionILNS0_6_TraitE0ELj0EJNS_4pairIffEEPS7_P10OutputPortIS7_EEEELj2EEEODaOT_NS_16in_place_index_tIXT0_EEE,comdat
	.hidden	_ZNSt3__216__variant_detail8__access7__union9__get_altB7v180000IRNS0_7__unionILNS0_6_TraitE0ELj0EJNS_4pairIffEEPS7_P10OutputPortIS7_EEEELj2EEEODaOT_NS_16in_place_index_tIXT0_EEE @ -- Begin function _ZNSt3__216__variant_detail8__access7__union9__get_altB7v180000IRNS0_7__unionILNS0_6_TraitE0ELj0EJNS_4pairIffEEPS7_P10OutputPortIS7_EEEELj2EEEODaOT_NS_16in_place_index_tIXT0_EEE
	.weak	_ZNSt3__216__variant_detail8__access7__union9__get_altB7v180000IRNS0_7__unionILNS0_6_TraitE0ELj0EJNS_4pairIffEEPS7_P10OutputPortIS7_EEEELj2EEEODaOT_NS_16in_place_index_tIXT0_EEE
	.p2align	2
	.type	_ZNSt3__216__variant_detail8__access7__union9__get_altB7v180000IRNS0_7__unionILNS0_6_TraitE0ELj0EJNS_4pairIffEEPS7_P10OutputPortIS7_EEEELj2EEEODaOT_NS_16in_place_index_tIXT0_EEE,%function
	.code	16                              @ @_ZNSt3__216__variant_detail8__access7__union9__get_altB7v180000IRNS0_7__unionILNS0_6_TraitE0ELj0EJNS_4pairIffEEPS7_P10OutputPortIS7_EEEELj2EEEODaOT_NS_16in_place_index_tIXT0_EEE
	.thumb_func
_ZNSt3__216__variant_detail8__access7__union9__get_altB7v180000IRNS0_7__unionILNS0_6_TraitE0ELj0EJNS_4pairIffEEPS7_P10OutputPortIS7_EEEELj2EEEODaOT_NS_16in_place_index_tIXT0_EEE:
.Lfunc_begin73:
	.loc	2 490 0 is_stmt 1               @ D:\Embed\MDK\MDK\ARM\ARMCompilerV621\Bin\..\include\libcxx\variant:490:0
	.fnstart
	.cfi_startproc
@ %bb.0:
	.save	{r7, lr}
	push	{r7, lr}
	.cfi_def_cfa_offset 8
	.cfi_offset lr, -4
	.cfi_offset r7, -8
	.pad	#16
	sub	sp, #16
	.cfi_def_cfa_offset 24
	str	r0, [sp, #8]
.Ltmp191:
	.loc	2 491 42 prologue_end           @ D:\Embed\MDK\MDK\ARM\ARMCompilerV621\Bin\..\include\libcxx\variant:491:42
	ldr	r0, [sp, #8]
	.loc	2 491 12 is_stmt 0              @ D:\Embed\MDK\MDK\ARM\ARMCompilerV621\Bin\..\include\libcxx\variant:491:12
	bl	_ZNSt3__216__variant_detail8__access7__union9__get_altB7v180000IRNS0_7__unionILNS0_6_TraitE0ELj1EJPNS_4pairIffEEP10OutputPortIS7_EEEELj1EEEODaOT_NS_16in_place_index_tIXT0_EEE
	.loc	2 491 5 epilogue_begin          @ D:\Embed\MDK\MDK\ARM\ARMCompilerV621\Bin\..\include\libcxx\variant:491:5
	add	sp, #16
	pop	{r7, pc}
.Ltmp192:
.Lfunc_end73:
	.size	_ZNSt3__216__variant_detail8__access7__union9__get_altB7v180000IRNS0_7__unionILNS0_6_TraitE0ELj0EJNS_4pairIffEEPS7_P10OutputPortIS7_EEEELj2EEEODaOT_NS_16in_place_index_tIXT0_EEE, .Lfunc_end73-_ZNSt3__216__variant_detail8__access7__union9__get_altB7v180000IRNS0_7__unionILNS0_6_TraitE0ELj0EJNS_4pairIffEEPS7_P10OutputPortIS7_EEEELj2EEEODaOT_NS_16in_place_index_tIXT0_EEE
	.cfi_endproc
	.cantunwind
	.fnend
                                        @ -- End function
	.section	.text._ZNSt3__216__variant_detail8__access7__union9__get_altB7v180000IRNS0_7__unionILNS0_6_TraitE0ELj1EJPNS_4pairIffEEP10OutputPortIS7_EEEELj1EEEODaOT_NS_16in_place_index_tIXT0_EEE,"axG",%progbits,_ZNSt3__216__variant_detail8__access7__union9__get_altB7v180000IRNS0_7__unionILNS0_6_TraitE0ELj1EJPNS_4pairIffEEP10OutputPortIS7_EEEELj1EEEODaOT_NS_16in_place_index_tIXT0_EEE,comdat
	.hidden	_ZNSt3__216__variant_detail8__access7__union9__get_altB7v180000IRNS0_7__unionILNS0_6_TraitE0ELj1EJPNS_4pairIffEEP10OutputPortIS7_EEEELj1EEEODaOT_NS_16in_place_index_tIXT0_EEE @ -- Begin function _ZNSt3__216__variant_detail8__access7__union9__get_altB7v180000IRNS0_7__unionILNS0_6_TraitE0ELj1EJPNS_4pairIffEEP10OutputPortIS7_EEEELj1EEEODaOT_NS_16in_place_index_tIXT0_EEE
	.weak	_ZNSt3__216__variant_detail8__access7__union9__get_altB7v180000IRNS0_7__unionILNS0_6_TraitE0ELj1EJPNS_4pairIffEEP10OutputPortIS7_EEEELj1EEEODaOT_NS_16in_place_index_tIXT0_EEE
	.p2align	2
	.type	_ZNSt3__216__variant_detail8__access7__union9__get_altB7v180000IRNS0_7__unionILNS0_6_TraitE0ELj1EJPNS_4pairIffEEP10OutputPortIS7_EEEELj1EEEODaOT_NS_16in_place_index_tIXT0_EEE,%function
	.code	16                              @ @_ZNSt3__216__variant_detail8__access7__union9__get_altB7v180000IRNS0_7__unionILNS0_6_TraitE0ELj1EJPNS_4pairIffEEP10OutputPortIS7_EEEELj1EEEODaOT_NS_16in_place_index_tIXT0_EEE
	.thumb_func
_ZNSt3__216__variant_detail8__access7__union9__get_altB7v180000IRNS0_7__unionILNS0_6_TraitE0ELj1EJPNS_4pairIffEEP10OutputPortIS7_EEEELj1EEEODaOT_NS_16in_place_index_tIXT0_EEE:
.Lfunc_begin74:
	.loc	2 490 0 is_stmt 1               @ D:\Embed\MDK\MDK\ARM\ARMCompilerV621\Bin\..\include\libcxx\variant:490:0
	.fnstart
	.cfi_startproc
@ %bb.0:
	.save	{r7, lr}
	push	{r7, lr}
	.cfi_def_cfa_offset 8
	.cfi_offset lr, -4
	.cfi_offset r7, -8
	.pad	#16
	sub	sp, #16
	.cfi_def_cfa_offset 24
	str	r0, [sp, #8]
.Ltmp193:
	.loc	2 491 42 prologue_end           @ D:\Embed\MDK\MDK\ARM\ARMCompilerV621\Bin\..\include\libcxx\variant:491:42
	ldr	r0, [sp, #8]
	.loc	2 491 12 is_stmt 0              @ D:\Embed\MDK\MDK\ARM\ARMCompilerV621\Bin\..\include\libcxx\variant:491:12
	bl	_ZNSt3__216__variant_detail8__access7__union9__get_altB7v180000IRNS0_7__unionILNS0_6_TraitE0ELj2EJP10OutputPortINS_4pairIffEEEEEEEEODaOT_NS_16in_place_index_tILj0EEE
	.loc	2 491 5 epilogue_begin          @ D:\Embed\MDK\MDK\ARM\ARMCompilerV621\Bin\..\include\libcxx\variant:491:5
	add	sp, #16
	pop	{r7, pc}
.Ltmp194:
.Lfunc_end74:
	.size	_ZNSt3__216__variant_detail8__access7__union9__get_altB7v180000IRNS0_7__unionILNS0_6_TraitE0ELj1EJPNS_4pairIffEEP10OutputPortIS7_EEEELj1EEEODaOT_NS_16in_place_index_tIXT0_EEE, .Lfunc_end74-_ZNSt3__216__variant_detail8__access7__union9__get_altB7v180000IRNS0_7__unionILNS0_6_TraitE0ELj1EJPNS_4pairIffEEP10OutputPortIS7_EEEELj1EEEODaOT_NS_16in_place_index_tIXT0_EEE
	.cfi_endproc
	.cantunwind
	.fnend
                                        @ -- End function
	.section	.text._ZNSt3__216__variant_detail8__access7__union9__get_altB7v180000IRNS0_7__unionILNS0_6_TraitE0ELj2EJP10OutputPortINS_4pairIffEEEEEEEEODaOT_NS_16in_place_index_tILj0EEE,"axG",%progbits,_ZNSt3__216__variant_detail8__access7__union9__get_altB7v180000IRNS0_7__unionILNS0_6_TraitE0ELj2EJP10OutputPortINS_4pairIffEEEEEEEEODaOT_NS_16in_place_index_tILj0EEE,comdat
	.hidden	_ZNSt3__216__variant_detail8__access7__union9__get_altB7v180000IRNS0_7__unionILNS0_6_TraitE0ELj2EJP10OutputPortINS_4pairIffEEEEEEEEODaOT_NS_16in_place_index_tILj0EEE @ -- Begin function _ZNSt3__216__variant_detail8__access7__union9__get_altB7v180000IRNS0_7__unionILNS0_6_TraitE0ELj2EJP10OutputPortINS_4pairIffEEEEEEEEODaOT_NS_16in_place_index_tILj0EEE
	.weak	_ZNSt3__216__variant_detail8__access7__union9__get_altB7v180000IRNS0_7__unionILNS0_6_TraitE0ELj2EJP10OutputPortINS_4pairIffEEEEEEEEODaOT_NS_16in_place_index_tILj0EEE
	.p2align	2
	.type	_ZNSt3__216__variant_detail8__access7__union9__get_altB7v180000IRNS0_7__unionILNS0_6_TraitE0ELj2EJP10OutputPortINS_4pairIffEEEEEEEEODaOT_NS_16in_place_index_tILj0EEE,%function
	.code	16                              @ @_ZNSt3__216__variant_detail8__access7__union9__get_altB7v180000IRNS0_7__unionILNS0_6_TraitE0ELj2EJP10OutputPortINS_4pairIffEEEEEEEEODaOT_NS_16in_place_index_tILj0EEE
	.thumb_func
_ZNSt3__216__variant_detail8__access7__union9__get_altB7v180000IRNS0_7__unionILNS0_6_TraitE0ELj2EJP10OutputPortINS_4pairIffEEEEEEEEODaOT_NS_16in_place_index_tILj0EEE:
.Lfunc_begin75:
	.loc	2 484 0 is_stmt 1               @ D:\Embed\MDK\MDK\ARM\ARMCompilerV621\Bin\..\include\libcxx\variant:484:0
	.fnstart
	.cfi_startproc
@ %bb.0:
	.pad	#8
	sub	sp, #8
	.cfi_def_cfa_offset 8
	str	r0, [sp]
.Ltmp195:
	.loc	2 485 32 prologue_end           @ D:\Embed\MDK\MDK\ARM\ARMCompilerV621\Bin\..\include\libcxx\variant:485:32
	ldr	r0, [sp]
	.loc	2 485 5 epilogue_begin is_stmt 0 @ D:\Embed\MDK\MDK\ARM\ARMCompilerV621\Bin\..\include\libcxx\variant:485:5
	add	sp, #8
	bx	lr
.Ltmp196:
.Lfunc_end75:
	.size	_ZNSt3__216__variant_detail8__access7__union9__get_altB7v180000IRNS0_7__unionILNS0_6_TraitE0ELj2EJP10OutputPortINS_4pairIffEEEEEEEEODaOT_NS_16in_place_index_tILj0EEE, .Lfunc_end75-_ZNSt3__216__variant_detail8__access7__union9__get_altB7v180000IRNS0_7__unionILNS0_6_TraitE0ELj2EJP10OutputPortINS_4pairIffEEEEEEEEODaOT_NS_16in_place_index_tILj0EEE
	.cfi_endproc
	.cantunwind
	.fnend
                                        @ -- End function
	.section	.text._ZNSt3__227__optional_move_assign_baseINS_4pairIffEELb0EEC2B7v180000Ev,"axG",%progbits,_ZNSt3__227__optional_move_assign_baseINS_4pairIffEELb0EEC2B7v180000Ev,comdat
	.hidden	_ZNSt3__227__optional_move_assign_baseINS_4pairIffEELb0EEC2B7v180000Ev @ -- Begin function _ZNSt3__227__optional_move_assign_baseINS_4pairIffEELb0EEC2B7v180000Ev
	.weak	_ZNSt3__227__optional_move_assign_baseINS_4pairIffEELb0EEC2B7v180000Ev
	.p2align	2
	.type	_ZNSt3__227__optional_move_assign_baseINS_4pairIffEELb0EEC2B7v180000Ev,%function
	.code	16                              @ @_ZNSt3__227__optional_move_assign_baseINS_4pairIffEELb0EEC2B7v180000Ev
	.thumb_func
_ZNSt3__227__optional_move_assign_baseINS_4pairIffEELb0EEC2B7v180000Ev:
.Lfunc_begin76:
	.loc	5 650 0 is_stmt 1               @ D:\Embed\MDK\MDK\ARM\ARMCompilerV621\Bin\..\include\libcxx\optional:650:0
	.fnstart
	.cfi_startproc
@ %bb.0:
	.save	{r7, lr}
	push	{r7, lr}
	.cfi_def_cfa_offset 8
	.cfi_offset lr, -4
	.cfi_offset r7, -8
	.pad	#8
	sub	sp, #8
	.cfi_def_cfa_offset 16
	str	r0, [sp, #4]
	ldr	r0, [sp, #4]
.Ltmp197:
	.loc	5 650 5 prologue_end            @ D:\Embed\MDK\MDK\ARM\ARMCompilerV621\Bin\..\include\libcxx\optional:650:5
	str	r0, [sp]                        @ 4-byte Spill
	bl	_ZNSt3__227__optional_copy_assign_baseINS_4pairIffEELb0EEC2B7v180000Ev
	ldr	r0, [sp]                        @ 4-byte Reload
	.loc	5 650 43 epilogue_begin is_stmt 0 @ D:\Embed\MDK\MDK\ARM\ARMCompilerV621\Bin\..\include\libcxx\optional:650:43
	add	sp, #8
	pop	{r7, pc}
.Ltmp198:
.Lfunc_end76:
	.size	_ZNSt3__227__optional_move_assign_baseINS_4pairIffEELb0EEC2B7v180000Ev, .Lfunc_end76-_ZNSt3__227__optional_move_assign_baseINS_4pairIffEELb0EEC2B7v180000Ev
	.cfi_endproc
	.cantunwind
	.fnend
                                        @ -- End function
	.section	.text._ZNSt3__227__optional_copy_assign_baseINS_4pairIffEELb0EEC2B7v180000Ev,"axG",%progbits,_ZNSt3__227__optional_copy_assign_baseINS_4pairIffEELb0EEC2B7v180000Ev,comdat
	.hidden	_ZNSt3__227__optional_copy_assign_baseINS_4pairIffEELb0EEC2B7v180000Ev @ -- Begin function _ZNSt3__227__optional_copy_assign_baseINS_4pairIffEELb0EEC2B7v180000Ev
	.weak	_ZNSt3__227__optional_copy_assign_baseINS_4pairIffEELb0EEC2B7v180000Ev
	.p2align	2
	.type	_ZNSt3__227__optional_copy_assign_baseINS_4pairIffEELb0EEC2B7v180000Ev,%function
	.code	16                              @ @_ZNSt3__227__optional_copy_assign_baseINS_4pairIffEELb0EEC2B7v180000Ev
	.thumb_func
_ZNSt3__227__optional_copy_assign_baseINS_4pairIffEELb0EEC2B7v180000Ev:
.Lfunc_begin77:
	.loc	5 617 0 is_stmt 1               @ D:\Embed\MDK\MDK\ARM\ARMCompilerV621\Bin\..\include\libcxx\optional:617:0
	.fnstart
	.cfi_startproc
@ %bb.0:
	.save	{r7, lr}
	push	{r7, lr}
	.cfi_def_cfa_offset 8
	.cfi_offset lr, -4
	.cfi_offset r7, -8
	.pad	#8
	sub	sp, #8
	.cfi_def_cfa_offset 16
	str	r0, [sp, #4]
	ldr	r0, [sp, #4]
.Ltmp199:
	.loc	5 617 5 prologue_end            @ D:\Embed\MDK\MDK\ARM\ARMCompilerV621\Bin\..\include\libcxx\optional:617:5
	str	r0, [sp]                        @ 4-byte Spill
	bl	_ZNSt3__220__optional_move_baseINS_4pairIffEELb1EEC2Ev
	ldr	r0, [sp]                        @ 4-byte Reload
	.loc	5 617 43 epilogue_begin is_stmt 0 @ D:\Embed\MDK\MDK\ARM\ARMCompilerV621\Bin\..\include\libcxx\optional:617:43
	add	sp, #8
	pop	{r7, pc}
.Ltmp200:
.Lfunc_end77:
	.size	_ZNSt3__227__optional_copy_assign_baseINS_4pairIffEELb0EEC2B7v180000Ev, .Lfunc_end77-_ZNSt3__227__optional_copy_assign_baseINS_4pairIffEELb0EEC2B7v180000Ev
	.cfi_endproc
	.cantunwind
	.fnend
                                        @ -- End function
	.section	.text._ZNSt3__220__optional_move_baseINS_4pairIffEELb1EEC2Ev,"axG",%progbits,_ZNSt3__220__optional_move_baseINS_4pairIffEELb1EEC2Ev,comdat
	.hidden	_ZNSt3__220__optional_move_baseINS_4pairIffEELb1EEC2Ev @ -- Begin function _ZNSt3__220__optional_move_baseINS_4pairIffEELb1EEC2Ev
	.weak	_ZNSt3__220__optional_move_baseINS_4pairIffEELb1EEC2Ev
	.p2align	2
	.type	_ZNSt3__220__optional_move_baseINS_4pairIffEELb1EEC2Ev,%function
	.code	16                              @ @_ZNSt3__220__optional_move_baseINS_4pairIffEELb1EEC2Ev
	.thumb_func
_ZNSt3__220__optional_move_baseINS_4pairIffEELb1EEC2Ev:
.Lfunc_begin78:
	.loc	5 573 0 is_stmt 1               @ D:\Embed\MDK\MDK\ARM\ARMCompilerV621\Bin\..\include\libcxx\optional:573:0
	.fnstart
	.cfi_startproc
@ %bb.0:
	.save	{r7, lr}
	push	{r7, lr}
	.cfi_def_cfa_offset 8
	.cfi_offset lr, -4
	.cfi_offset r7, -8
	.pad	#8
	sub	sp, #8
	.cfi_def_cfa_offset 16
	str	r0, [sp, #4]
	ldr	r0, [sp, #4]
.Ltmp201:
	.loc	5 573 8 prologue_end            @ D:\Embed\MDK\MDK\ARM\ARMCompilerV621\Bin\..\include\libcxx\optional:573:8
	str	r0, [sp]                        @ 4-byte Spill
	bl	_ZNSt3__220__optional_copy_baseINS_4pairIffEELb1EEC2Ev
	ldr	r0, [sp]                        @ 4-byte Reload
	.loc	5 573 8 epilogue_begin is_stmt 0 @ D:\Embed\MDK\MDK\ARM\ARMCompilerV621\Bin\..\include\libcxx\optional:573:8
	add	sp, #8
	pop	{r7, pc}
.Ltmp202:
.Lfunc_end78:
	.size	_ZNSt3__220__optional_move_baseINS_4pairIffEELb1EEC2Ev, .Lfunc_end78-_ZNSt3__220__optional_move_baseINS_4pairIffEELb1EEC2Ev
	.cfi_endproc
	.cantunwind
	.fnend
                                        @ -- End function
	.section	.text._ZNSt3__220__optional_copy_baseINS_4pairIffEELb1EEC2Ev,"axG",%progbits,_ZNSt3__220__optional_copy_baseINS_4pairIffEELb1EEC2Ev,comdat
	.hidden	_ZNSt3__220__optional_copy_baseINS_4pairIffEELb1EEC2Ev @ -- Begin function _ZNSt3__220__optional_copy_baseINS_4pairIffEELb1EEC2Ev
	.weak	_ZNSt3__220__optional_copy_baseINS_4pairIffEELb1EEC2Ev
	.p2align	2
	.type	_ZNSt3__220__optional_copy_baseINS_4pairIffEELb1EEC2Ev,%function
	.code	16                              @ @_ZNSt3__220__optional_copy_baseINS_4pairIffEELb1EEC2Ev
	.thumb_func
_ZNSt3__220__optional_copy_baseINS_4pairIffEELb1EEC2Ev:
.Lfunc_begin79:
	.loc	5 545 0 is_stmt 1               @ D:\Embed\MDK\MDK\ARM\ARMCompilerV621\Bin\..\include\libcxx\optional:545:0
	.fnstart
	.cfi_startproc
@ %bb.0:
	.save	{r7, lr}
	push	{r7, lr}
	.cfi_def_cfa_offset 8
	.cfi_offset lr, -4
	.cfi_offset r7, -8
	.pad	#8
	sub	sp, #8
	.cfi_def_cfa_offset 16
	str	r0, [sp, #4]
	ldr	r0, [sp, #4]
.Ltmp203:
	.loc	5 545 8 prologue_end            @ D:\Embed\MDK\MDK\ARM\ARMCompilerV621\Bin\..\include\libcxx\optional:545:8
	str	r0, [sp]                        @ 4-byte Spill
	bl	_ZNSt3__223__optional_storage_baseINS_4pairIffEELb0EEC2Ev
	ldr	r0, [sp]                        @ 4-byte Reload
	.loc	5 545 8 epilogue_begin is_stmt 0 @ D:\Embed\MDK\MDK\ARM\ARMCompilerV621\Bin\..\include\libcxx\optional:545:8
	add	sp, #8
	pop	{r7, pc}
.Ltmp204:
.Lfunc_end79:
	.size	_ZNSt3__220__optional_copy_baseINS_4pairIffEELb1EEC2Ev, .Lfunc_end79-_ZNSt3__220__optional_copy_baseINS_4pairIffEELb1EEC2Ev
	.cfi_endproc
	.cantunwind
	.fnend
                                        @ -- End function
	.section	.text._ZNSt3__223__optional_storage_baseINS_4pairIffEELb0EEC2Ev,"axG",%progbits,_ZNSt3__223__optional_storage_baseINS_4pairIffEELb0EEC2Ev,comdat
	.hidden	_ZNSt3__223__optional_storage_baseINS_4pairIffEELb0EEC2Ev @ -- Begin function _ZNSt3__223__optional_storage_baseINS_4pairIffEELb0EEC2Ev
	.weak	_ZNSt3__223__optional_storage_baseINS_4pairIffEELb0EEC2Ev
	.p2align	2
	.type	_ZNSt3__223__optional_storage_baseINS_4pairIffEELb0EEC2Ev,%function
	.code	16                              @ @_ZNSt3__223__optional_storage_baseINS_4pairIffEELb0EEC2Ev
	.thumb_func
_ZNSt3__223__optional_storage_baseINS_4pairIffEELb0EEC2Ev:
.Lfunc_begin80:
	.loc	5 378 0 is_stmt 1               @ D:\Embed\MDK\MDK\ARM\ARMCompilerV621\Bin\..\include\libcxx\optional:378:0
	.fnstart
	.cfi_startproc
@ %bb.0:
	.save	{r7, lr}
	push	{r7, lr}
	.cfi_def_cfa_offset 8
	.cfi_offset lr, -4
	.cfi_offset r7, -8
	.pad	#8
	sub	sp, #8
	.cfi_def_cfa_offset 16
	str	r0, [sp, #4]
	ldr	r0, [sp, #4]
.Ltmp205:
	.loc	5 378 8 prologue_end            @ D:\Embed\MDK\MDK\ARM\ARMCompilerV621\Bin\..\include\libcxx\optional:378:8
	str	r0, [sp]                        @ 4-byte Spill
	bl	_ZNSt3__224__optional_destruct_baseINS_4pairIffEELb1EEC2B7v180000Ev
	ldr	r0, [sp]                        @ 4-byte Reload
	.loc	5 378 8 epilogue_begin is_stmt 0 @ D:\Embed\MDK\MDK\ARM\ARMCompilerV621\Bin\..\include\libcxx\optional:378:8
	add	sp, #8
	pop	{r7, pc}
.Ltmp206:
.Lfunc_end80:
	.size	_ZNSt3__223__optional_storage_baseINS_4pairIffEELb0EEC2Ev, .Lfunc_end80-_ZNSt3__223__optional_storage_baseINS_4pairIffEELb0EEC2Ev
	.cfi_endproc
	.cantunwind
	.fnend
                                        @ -- End function
	.section	.text._ZNSt3__224__optional_destruct_baseINS_4pairIffEELb1EEC2B7v180000Ev,"axG",%progbits,_ZNSt3__224__optional_destruct_baseINS_4pairIffEELb1EEC2B7v180000Ev,comdat
	.hidden	_ZNSt3__224__optional_destruct_baseINS_4pairIffEELb1EEC2B7v180000Ev @ -- Begin function _ZNSt3__224__optional_destruct_baseINS_4pairIffEELb1EEC2B7v180000Ev
	.weak	_ZNSt3__224__optional_destruct_baseINS_4pairIffEELb1EEC2B7v180000Ev
	.p2align	2
	.type	_ZNSt3__224__optional_destruct_baseINS_4pairIffEELb1EEC2B7v180000Ev,%function
	.code	16                              @ @_ZNSt3__224__optional_destruct_baseINS_4pairIffEELb1EEC2B7v180000Ev
	.thumb_func
_ZNSt3__224__optional_destruct_baseINS_4pairIffEELb1EEC2B7v180000Ev:
.Lfunc_begin81:
	.loc	5 352 0 is_stmt 1               @ D:\Embed\MDK\MDK\ARM\ARMCompilerV621\Bin\..\include\libcxx\optional:352:0
	.fnstart
	.cfi_startproc
@ %bb.0:
	.pad	#4
	sub	sp, #4
	.cfi_def_cfa_offset 4
	str	r0, [sp]
	ldr	r0, [sp]
	movs	r1, #0
.Ltmp207:
	.loc	5 351 12 prologue_end           @ D:\Embed\MDK\MDK\ARM\ARMCompilerV621\Bin\..\include\libcxx\optional:351:12
	strb	r1, [r0]
	.loc	5 352 12                        @ D:\Embed\MDK\MDK\ARM\ARMCompilerV621\Bin\..\include\libcxx\optional:352:12
	strb	r1, [r0, #8]
	.loc	5 352 31 epilogue_begin is_stmt 0 @ D:\Embed\MDK\MDK\ARM\ARMCompilerV621\Bin\..\include\libcxx\optional:352:31
	add	sp, #4
	bx	lr
.Ltmp208:
.Lfunc_end81:
	.size	_ZNSt3__224__optional_destruct_baseINS_4pairIffEELb1EEC2B7v180000Ev, .Lfunc_end81-_ZNSt3__224__optional_destruct_baseINS_4pairIffEELb1EEC2B7v180000Ev
	.cfi_endproc
	.cantunwind
	.fnend
                                        @ -- End function
	.section	.text._ZNSt3__213__generic_getB7v180000ILj1ERNS_7variantIJNS_4pairIffEEPS3_P10OutputPortIS3_EEEEEEODaOT0_,"axG",%progbits,_ZNSt3__213__generic_getB7v180000ILj1ERNS_7variantIJNS_4pairIffEEPS3_P10OutputPortIS3_EEEEEEODaOT0_,comdat
	.hidden	_ZNSt3__213__generic_getB7v180000ILj1ERNS_7variantIJNS_4pairIffEEPS3_P10OutputPortIS3_EEEEEEODaOT0_ @ -- Begin function _ZNSt3__213__generic_getB7v180000ILj1ERNS_7variantIJNS_4pairIffEEPS3_P10OutputPortIS3_EEEEEEODaOT0_
	.weak	_ZNSt3__213__generic_getB7v180000ILj1ERNS_7variantIJNS_4pairIffEEPS3_P10OutputPortIS3_EEEEEEODaOT0_
	.p2align	2
	.type	_ZNSt3__213__generic_getB7v180000ILj1ERNS_7variantIJNS_4pairIffEEPS3_P10OutputPortIS3_EEEEEEODaOT0_,%function
	.code	16                              @ @_ZNSt3__213__generic_getB7v180000ILj1ERNS_7variantIJNS_4pairIffEEPS3_P10OutputPortIS3_EEEEEEODaOT0_
	.thumb_func
_ZNSt3__213__generic_getB7v180000ILj1ERNS_7variantIJNS_4pairIffEEPS3_P10OutputPortIS3_EEEEEEODaOT0_:
.Lfunc_begin82:
	.loc	2 1512 0 is_stmt 1              @ D:\Embed\MDK\MDK\ARM\ARMCompilerV621\Bin\..\include\libcxx\variant:1512:0
	.fnstart
	.cfi_startproc
@ %bb.0:
	.save	{r7, lr}
	push	{r7, lr}
	.cfi_def_cfa_offset 8
	.cfi_offset lr, -4
	.cfi_offset r7, -8
	.pad	#8
	sub	sp, #8
	.cfi_def_cfa_offset 16
	str	r0, [sp, #4]
.Ltmp209:
	.loc	2 1514 38 prologue_end          @ D:\Embed\MDK\MDK\ARM\ARMCompilerV621\Bin\..\include\libcxx\variant:1514:38
	ldr	r0, [sp, #4]
	.loc	2 1514 8 is_stmt 0              @ D:\Embed\MDK\MDK\ARM\ARMCompilerV621\Bin\..\include\libcxx\variant:1514:8
	bl	_ZNSt3__219__holds_alternativeB7v180000ILj1EJNS_4pairIffEEPS2_P10OutputPortIS2_EEEEbRKNS_7variantIJDpT0_EEE
.Ltmp210:
	.loc	2 1514 7                        @ D:\Embed\MDK\MDK\ARM\ARMCompilerV621\Bin\..\include\libcxx\variant:1514:7
	cbnz	r0, .LBB82_2
	b	.LBB82_1
.LBB82_1:
.Ltmp211:
	.loc	2 1515 5 is_stmt 1              @ D:\Embed\MDK\MDK\ARM\ARMCompilerV621\Bin\..\include\libcxx\variant:1515:5
	bl	_ZNSt3__226__throw_bad_variant_accessB7v180000Ev
.Ltmp212:
.LBB82_2:
	.loc	2 1517 56                       @ D:\Embed\MDK\MDK\ARM\ARMCompilerV621\Bin\..\include\libcxx\variant:1517:56
	ldr	r0, [sp, #4]
	.loc	2 1517 10 is_stmt 0             @ D:\Embed\MDK\MDK\ARM\ARMCompilerV621\Bin\..\include\libcxx\variant:1517:10
	bl	_ZNSt3__216__variant_detail8__access9__variant9__get_altB7v180000ILj1ERNS_7variantIJNS_4pairIffEEPS6_P10OutputPortIS6_EEEEEEODaOT0_
	.loc	2 1517 3 epilogue_begin         @ D:\Embed\MDK\MDK\ARM\ARMCompilerV621\Bin\..\include\libcxx\variant:1517:3
	add	sp, #8
	pop	{r7, pc}
.Ltmp213:
.Lfunc_end82:
	.size	_ZNSt3__213__generic_getB7v180000ILj1ERNS_7variantIJNS_4pairIffEEPS3_P10OutputPortIS3_EEEEEEODaOT0_, .Lfunc_end82-_ZNSt3__213__generic_getB7v180000ILj1ERNS_7variantIJNS_4pairIffEEPS3_P10OutputPortIS3_EEEEEEODaOT0_
	.cfi_endproc
	.cantunwind
	.fnend
                                        @ -- End function
	.section	.text._ZNSt3__219__holds_alternativeB7v180000ILj1EJNS_4pairIffEEPS2_P10OutputPortIS2_EEEEbRKNS_7variantIJDpT0_EEE,"axG",%progbits,_ZNSt3__219__holds_alternativeB7v180000ILj1EJNS_4pairIffEEPS2_P10OutputPortIS2_EEEEbRKNS_7variantIJDpT0_EEE,comdat
	.hidden	_ZNSt3__219__holds_alternativeB7v180000ILj1EJNS_4pairIffEEPS2_P10OutputPortIS2_EEEEbRKNS_7variantIJDpT0_EEE @ -- Begin function _ZNSt3__219__holds_alternativeB7v180000ILj1EJNS_4pairIffEEPS2_P10OutputPortIS2_EEEEbRKNS_7variantIJDpT0_EEE
	.weak	_ZNSt3__219__holds_alternativeB7v180000ILj1EJNS_4pairIffEEPS2_P10OutputPortIS2_EEEEbRKNS_7variantIJDpT0_EEE
	.p2align	2
	.type	_ZNSt3__219__holds_alternativeB7v180000ILj1EJNS_4pairIffEEPS2_P10OutputPortIS2_EEEEbRKNS_7variantIJDpT0_EEE,%function
	.code	16                              @ @_ZNSt3__219__holds_alternativeB7v180000ILj1EJNS_4pairIffEEPS2_P10OutputPortIS2_EEEEbRKNS_7variantIJDpT0_EEE
	.thumb_func
_ZNSt3__219__holds_alternativeB7v180000ILj1EJNS_4pairIffEEPS2_P10OutputPortIS2_EEEEbRKNS_7variantIJDpT0_EEE:
.Lfunc_begin83:
	.loc	2 1499 0 is_stmt 1              @ D:\Embed\MDK\MDK\ARM\ARMCompilerV621\Bin\..\include\libcxx\variant:1499:0
	.fnstart
	.cfi_startproc
@ %bb.0:
	.save	{r7, lr}
	push	{r7, lr}
	.cfi_def_cfa_offset 8
	.cfi_offset lr, -4
	.cfi_offset r7, -8
	.pad	#8
	sub	sp, #8
	.cfi_def_cfa_offset 16
	str	r0, [sp, #4]
.Ltmp214:
	.loc	2 1500 10 prologue_end          @ D:\Embed\MDK\MDK\ARM\ARMCompilerV621\Bin\..\include\libcxx\variant:1500:10
	ldr	r0, [sp, #4]
	.loc	2 1500 14 is_stmt 0             @ D:\Embed\MDK\MDK\ARM\ARMCompilerV621\Bin\..\include\libcxx\variant:1500:14
	bl	_ZNKSt3__27variantIJNS_4pairIffEEPS2_P10OutputPortIS2_EEE5indexB7v180000Ev
	.loc	2 1500 22                       @ D:\Embed\MDK\MDK\ARM\ARMCompilerV621\Bin\..\include\libcxx\variant:1500:22
	subs	r0, #1
	clz	r0, r0
	lsrs	r0, r0, #5
	.loc	2 1500 3 epilogue_begin         @ D:\Embed\MDK\MDK\ARM\ARMCompilerV621\Bin\..\include\libcxx\variant:1500:3
	add	sp, #8
	pop	{r7, pc}
.Ltmp215:
.Lfunc_end83:
	.size	_ZNSt3__219__holds_alternativeB7v180000ILj1EJNS_4pairIffEEPS2_P10OutputPortIS2_EEEEbRKNS_7variantIJDpT0_EEE, .Lfunc_end83-_ZNSt3__219__holds_alternativeB7v180000ILj1EJNS_4pairIffEEPS2_P10OutputPortIS2_EEEEbRKNS_7variantIJDpT0_EEE
	.cfi_endproc
	.cantunwind
	.fnend
                                        @ -- End function
	.section	.text._ZNSt3__216__variant_detail8__access9__variant9__get_altB7v180000ILj1ERNS_7variantIJNS_4pairIffEEPS6_P10OutputPortIS6_EEEEEEODaOT0_,"axG",%progbits,_ZNSt3__216__variant_detail8__access9__variant9__get_altB7v180000ILj1ERNS_7variantIJNS_4pairIffEEPS6_P10OutputPortIS6_EEEEEEODaOT0_,comdat
	.hidden	_ZNSt3__216__variant_detail8__access9__variant9__get_altB7v180000ILj1ERNS_7variantIJNS_4pairIffEEPS6_P10OutputPortIS6_EEEEEEODaOT0_ @ -- Begin function _ZNSt3__216__variant_detail8__access9__variant9__get_altB7v180000ILj1ERNS_7variantIJNS_4pairIffEEPS6_P10OutputPortIS6_EEEEEEODaOT0_
	.weak	_ZNSt3__216__variant_detail8__access9__variant9__get_altB7v180000ILj1ERNS_7variantIJNS_4pairIffEEPS6_P10OutputPortIS6_EEEEEEODaOT0_
	.p2align	2
	.type	_ZNSt3__216__variant_detail8__access9__variant9__get_altB7v180000ILj1ERNS_7variantIJNS_4pairIffEEPS6_P10OutputPortIS6_EEEEEEODaOT0_,%function
	.code	16                              @ @_ZNSt3__216__variant_detail8__access9__variant9__get_altB7v180000ILj1ERNS_7variantIJNS_4pairIffEEPS6_P10OutputPortIS6_EEEEEEODaOT0_
	.thumb_func
_ZNSt3__216__variant_detail8__access9__variant9__get_altB7v180000ILj1ERNS_7variantIJNS_4pairIffEEPS6_P10OutputPortIS6_EEEEEEODaOT0_:
.Lfunc_begin84:
	.loc	2 507 0 is_stmt 1               @ D:\Embed\MDK\MDK\ARM\ARMCompilerV621\Bin\..\include\libcxx\variant:507:0
	.fnstart
	.cfi_startproc
@ %bb.0:
	.save	{r7, lr}
	push	{r7, lr}
	.cfi_def_cfa_offset 8
	.cfi_offset lr, -4
	.cfi_offset r7, -8
	.pad	#8
	sub	sp, #8
	.cfi_def_cfa_offset 16
	str	r0, [sp, #4]
.Ltmp216:
	.loc	2 508 55 prologue_end           @ D:\Embed\MDK\MDK\ARM\ARMCompilerV621\Bin\..\include\libcxx\variant:508:55
	ldr	r0, [sp, #4]
	.loc	2 508 12 is_stmt 0              @ D:\Embed\MDK\MDK\ARM\ARMCompilerV621\Bin\..\include\libcxx\variant:508:12
	bl	_ZNSt3__216__variant_detail8__access6__base9__get_altB7v180000ILj1ERNS0_6__implIJNS_4pairIffEEPS6_P10OutputPortIS6_EEEEEEODaOT0_
	.loc	2 508 5 epilogue_begin          @ D:\Embed\MDK\MDK\ARM\ARMCompilerV621\Bin\..\include\libcxx\variant:508:5
	add	sp, #8
	pop	{r7, pc}
.Ltmp217:
.Lfunc_end84:
	.size	_ZNSt3__216__variant_detail8__access9__variant9__get_altB7v180000ILj1ERNS_7variantIJNS_4pairIffEEPS6_P10OutputPortIS6_EEEEEEODaOT0_, .Lfunc_end84-_ZNSt3__216__variant_detail8__access9__variant9__get_altB7v180000ILj1ERNS_7variantIJNS_4pairIffEEPS6_P10OutputPortIS6_EEEEEEODaOT0_
	.cfi_endproc
	.cantunwind
	.fnend
                                        @ -- End function
	.section	.text._ZNSt3__216__variant_detail8__access6__base9__get_altB7v180000ILj1ERNS0_6__implIJNS_4pairIffEEPS6_P10OutputPortIS6_EEEEEEODaOT0_,"axG",%progbits,_ZNSt3__216__variant_detail8__access6__base9__get_altB7v180000ILj1ERNS0_6__implIJNS_4pairIffEEPS6_P10OutputPortIS6_EEEEEEODaOT0_,comdat
	.hidden	_ZNSt3__216__variant_detail8__access6__base9__get_altB7v180000ILj1ERNS0_6__implIJNS_4pairIffEEPS6_P10OutputPortIS6_EEEEEEODaOT0_ @ -- Begin function _ZNSt3__216__variant_detail8__access6__base9__get_altB7v180000ILj1ERNS0_6__implIJNS_4pairIffEEPS6_P10OutputPortIS6_EEEEEEODaOT0_
	.weak	_ZNSt3__216__variant_detail8__access6__base9__get_altB7v180000ILj1ERNS0_6__implIJNS_4pairIffEEPS6_P10OutputPortIS6_EEEEEEODaOT0_
	.p2align	2
	.type	_ZNSt3__216__variant_detail8__access6__base9__get_altB7v180000ILj1ERNS0_6__implIJNS_4pairIffEEPS6_P10OutputPortIS6_EEEEEEODaOT0_,%function
	.code	16                              @ @_ZNSt3__216__variant_detail8__access6__base9__get_altB7v180000ILj1ERNS0_6__implIJNS_4pairIffEEPS6_P10OutputPortIS6_EEEEEEODaOT0_
	.thumb_func
_ZNSt3__216__variant_detail8__access6__base9__get_altB7v180000ILj1ERNS0_6__implIJNS_4pairIffEEPS6_P10OutputPortIS6_EEEEEEODaOT0_:
.Lfunc_begin85:
	.loc	2 498 0 is_stmt 1               @ D:\Embed\MDK\MDK\ARM\ARMCompilerV621\Bin\..\include\libcxx\variant:498:0
	.fnstart
	.cfi_startproc
@ %bb.0:
	.save	{r7, lr}
	push	{r7, lr}
	.cfi_def_cfa_offset 8
	.cfi_offset lr, -4
	.cfi_offset r7, -8
	.pad	#8
	sub	sp, #8
	.cfi_def_cfa_offset 16
	str	r0, [sp, #4]
.Ltmp218:
	.loc	2 499 51 prologue_end           @ D:\Embed\MDK\MDK\ARM\ARMCompilerV621\Bin\..\include\libcxx\variant:499:51
	ldr	r0, [sp, #4]
	.loc	2 499 12 is_stmt 0              @ D:\Embed\MDK\MDK\ARM\ARMCompilerV621\Bin\..\include\libcxx\variant:499:12
	bl	_ZNSt3__216__variant_detail8__access7__union9__get_altB7v180000IRNS0_7__unionILNS0_6_TraitE0ELj0EJNS_4pairIffEEPS7_P10OutputPortIS7_EEEELj1EEEODaOT_NS_16in_place_index_tIXT0_EEE
	.loc	2 499 5 epilogue_begin          @ D:\Embed\MDK\MDK\ARM\ARMCompilerV621\Bin\..\include\libcxx\variant:499:5
	add	sp, #8
	pop	{r7, pc}
.Ltmp219:
.Lfunc_end85:
	.size	_ZNSt3__216__variant_detail8__access6__base9__get_altB7v180000ILj1ERNS0_6__implIJNS_4pairIffEEPS6_P10OutputPortIS6_EEEEEEODaOT0_, .Lfunc_end85-_ZNSt3__216__variant_detail8__access6__base9__get_altB7v180000ILj1ERNS0_6__implIJNS_4pairIffEEPS6_P10OutputPortIS6_EEEEEEODaOT0_
	.cfi_endproc
	.cantunwind
	.fnend
                                        @ -- End function
	.section	.text._ZNSt3__216__variant_detail8__access7__union9__get_altB7v180000IRNS0_7__unionILNS0_6_TraitE0ELj0EJNS_4pairIffEEPS7_P10OutputPortIS7_EEEELj1EEEODaOT_NS_16in_place_index_tIXT0_EEE,"axG",%progbits,_ZNSt3__216__variant_detail8__access7__union9__get_altB7v180000IRNS0_7__unionILNS0_6_TraitE0ELj0EJNS_4pairIffEEPS7_P10OutputPortIS7_EEEELj1EEEODaOT_NS_16in_place_index_tIXT0_EEE,comdat
	.hidden	_ZNSt3__216__variant_detail8__access7__union9__get_altB7v180000IRNS0_7__unionILNS0_6_TraitE0ELj0EJNS_4pairIffEEPS7_P10OutputPortIS7_EEEELj1EEEODaOT_NS_16in_place_index_tIXT0_EEE @ -- Begin function _ZNSt3__216__variant_detail8__access7__union9__get_altB7v180000IRNS0_7__unionILNS0_6_TraitE0ELj0EJNS_4pairIffEEPS7_P10OutputPortIS7_EEEELj1EEEODaOT_NS_16in_place_index_tIXT0_EEE
	.weak	_ZNSt3__216__variant_detail8__access7__union9__get_altB7v180000IRNS0_7__unionILNS0_6_TraitE0ELj0EJNS_4pairIffEEPS7_P10OutputPortIS7_EEEELj1EEEODaOT_NS_16in_place_index_tIXT0_EEE
	.p2align	2
	.type	_ZNSt3__216__variant_detail8__access7__union9__get_altB7v180000IRNS0_7__unionILNS0_6_TraitE0ELj0EJNS_4pairIffEEPS7_P10OutputPortIS7_EEEELj1EEEODaOT_NS_16in_place_index_tIXT0_EEE,%function
	.code	16                              @ @_ZNSt3__216__variant_detail8__access7__union9__get_altB7v180000IRNS0_7__unionILNS0_6_TraitE0ELj0EJNS_4pairIffEEPS7_P10OutputPortIS7_EEEELj1EEEODaOT_NS_16in_place_index_tIXT0_EEE
	.thumb_func
_ZNSt3__216__variant_detail8__access7__union9__get_altB7v180000IRNS0_7__unionILNS0_6_TraitE0ELj0EJNS_4pairIffEEPS7_P10OutputPortIS7_EEEELj1EEEODaOT_NS_16in_place_index_tIXT0_EEE:
.Lfunc_begin86:
	.loc	2 490 0 is_stmt 1               @ D:\Embed\MDK\MDK\ARM\ARMCompilerV621\Bin\..\include\libcxx\variant:490:0
	.fnstart
	.cfi_startproc
@ %bb.0:
	.save	{r7, lr}
	push	{r7, lr}
	.cfi_def_cfa_offset 8
	.cfi_offset lr, -4
	.cfi_offset r7, -8
	.pad	#16
	sub	sp, #16
	.cfi_def_cfa_offset 24
	str	r0, [sp, #8]
.Ltmp220:
	.loc	2 491 42 prologue_end           @ D:\Embed\MDK\MDK\ARM\ARMCompilerV621\Bin\..\include\libcxx\variant:491:42
	ldr	r0, [sp, #8]
	.loc	2 491 12 is_stmt 0              @ D:\Embed\MDK\MDK\ARM\ARMCompilerV621\Bin\..\include\libcxx\variant:491:12
	bl	_ZNSt3__216__variant_detail8__access7__union9__get_altB7v180000IRNS0_7__unionILNS0_6_TraitE0ELj1EJPNS_4pairIffEEP10OutputPortIS7_EEEEEEODaOT_NS_16in_place_index_tILj0EEE
	.loc	2 491 5 epilogue_begin          @ D:\Embed\MDK\MDK\ARM\ARMCompilerV621\Bin\..\include\libcxx\variant:491:5
	add	sp, #16
	pop	{r7, pc}
.Ltmp221:
.Lfunc_end86:
	.size	_ZNSt3__216__variant_detail8__access7__union9__get_altB7v180000IRNS0_7__unionILNS0_6_TraitE0ELj0EJNS_4pairIffEEPS7_P10OutputPortIS7_EEEELj1EEEODaOT_NS_16in_place_index_tIXT0_EEE, .Lfunc_end86-_ZNSt3__216__variant_detail8__access7__union9__get_altB7v180000IRNS0_7__unionILNS0_6_TraitE0ELj0EJNS_4pairIffEEPS7_P10OutputPortIS7_EEEELj1EEEODaOT_NS_16in_place_index_tIXT0_EEE
	.cfi_endproc
	.cantunwind
	.fnend
                                        @ -- End function
	.section	.text._ZNSt3__216__variant_detail8__access7__union9__get_altB7v180000IRNS0_7__unionILNS0_6_TraitE0ELj1EJPNS_4pairIffEEP10OutputPortIS7_EEEEEEODaOT_NS_16in_place_index_tILj0EEE,"axG",%progbits,_ZNSt3__216__variant_detail8__access7__union9__get_altB7v180000IRNS0_7__unionILNS0_6_TraitE0ELj1EJPNS_4pairIffEEP10OutputPortIS7_EEEEEEODaOT_NS_16in_place_index_tILj0EEE,comdat
	.hidden	_ZNSt3__216__variant_detail8__access7__union9__get_altB7v180000IRNS0_7__unionILNS0_6_TraitE0ELj1EJPNS_4pairIffEEP10OutputPortIS7_EEEEEEODaOT_NS_16in_place_index_tILj0EEE @ -- Begin function _ZNSt3__216__variant_detail8__access7__union9__get_altB7v180000IRNS0_7__unionILNS0_6_TraitE0ELj1EJPNS_4pairIffEEP10OutputPortIS7_EEEEEEODaOT_NS_16in_place_index_tILj0EEE
	.weak	_ZNSt3__216__variant_detail8__access7__union9__get_altB7v180000IRNS0_7__unionILNS0_6_TraitE0ELj1EJPNS_4pairIffEEP10OutputPortIS7_EEEEEEODaOT_NS_16in_place_index_tILj0EEE
	.p2align	2
	.type	_ZNSt3__216__variant_detail8__access7__union9__get_altB7v180000IRNS0_7__unionILNS0_6_TraitE0ELj1EJPNS_4pairIffEEP10OutputPortIS7_EEEEEEODaOT_NS_16in_place_index_tILj0EEE,%function
	.code	16                              @ @_ZNSt3__216__variant_detail8__access7__union9__get_altB7v180000IRNS0_7__unionILNS0_6_TraitE0ELj1EJPNS_4pairIffEEP10OutputPortIS7_EEEEEEODaOT_NS_16in_place_index_tILj0EEE
	.thumb_func
_ZNSt3__216__variant_detail8__access7__union9__get_altB7v180000IRNS0_7__unionILNS0_6_TraitE0ELj1EJPNS_4pairIffEEP10OutputPortIS7_EEEEEEODaOT_NS_16in_place_index_tILj0EEE:
.Lfunc_begin87:
	.loc	2 484 0 is_stmt 1               @ D:\Embed\MDK\MDK\ARM\ARMCompilerV621\Bin\..\include\libcxx\variant:484:0
	.fnstart
	.cfi_startproc
@ %bb.0:
	.pad	#8
	sub	sp, #8
	.cfi_def_cfa_offset 8
	str	r0, [sp]
.Ltmp222:
	.loc	2 485 32 prologue_end           @ D:\Embed\MDK\MDK\ARM\ARMCompilerV621\Bin\..\include\libcxx\variant:485:32
	ldr	r0, [sp]
	.loc	2 485 5 epilogue_begin is_stmt 0 @ D:\Embed\MDK\MDK\ARM\ARMCompilerV621\Bin\..\include\libcxx\variant:485:5
	add	sp, #8
	bx	lr
.Ltmp223:
.Lfunc_end87:
	.size	_ZNSt3__216__variant_detail8__access7__union9__get_altB7v180000IRNS0_7__unionILNS0_6_TraitE0ELj1EJPNS_4pairIffEEP10OutputPortIS7_EEEEEEODaOT_NS_16in_place_index_tILj0EEE, .Lfunc_end87-_ZNSt3__216__variant_detail8__access7__union9__get_altB7v180000IRNS0_7__unionILNS0_6_TraitE0ELj1EJPNS_4pairIffEEP10OutputPortIS7_EEEEEEODaOT_NS_16in_place_index_tILj0EEE
	.cfi_endproc
	.cantunwind
	.fnend
                                        @ -- End function
	.section	.text._ZNSt3__213__generic_getB7v180000ILj0ERNS_7variantIJNS_4pairIffEEPS3_P10OutputPortIS3_EEEEEEODaOT0_,"axG",%progbits,_ZNSt3__213__generic_getB7v180000ILj0ERNS_7variantIJNS_4pairIffEEPS3_P10OutputPortIS3_EEEEEEODaOT0_,comdat
	.hidden	_ZNSt3__213__generic_getB7v180000ILj0ERNS_7variantIJNS_4pairIffEEPS3_P10OutputPortIS3_EEEEEEODaOT0_ @ -- Begin function _ZNSt3__213__generic_getB7v180000ILj0ERNS_7variantIJNS_4pairIffEEPS3_P10OutputPortIS3_EEEEEEODaOT0_
	.weak	_ZNSt3__213__generic_getB7v180000ILj0ERNS_7variantIJNS_4pairIffEEPS3_P10OutputPortIS3_EEEEEEODaOT0_
	.p2align	2
	.type	_ZNSt3__213__generic_getB7v180000ILj0ERNS_7variantIJNS_4pairIffEEPS3_P10OutputPortIS3_EEEEEEODaOT0_,%function
	.code	16                              @ @_ZNSt3__213__generic_getB7v180000ILj0ERNS_7variantIJNS_4pairIffEEPS3_P10OutputPortIS3_EEEEEEODaOT0_
	.thumb_func
_ZNSt3__213__generic_getB7v180000ILj0ERNS_7variantIJNS_4pairIffEEPS3_P10OutputPortIS3_EEEEEEODaOT0_:
.Lfunc_begin88:
	.loc	2 1512 0 is_stmt 1              @ D:\Embed\MDK\MDK\ARM\ARMCompilerV621\Bin\..\include\libcxx\variant:1512:0
	.fnstart
	.cfi_startproc
@ %bb.0:
	.save	{r7, lr}
	push	{r7, lr}
	.cfi_def_cfa_offset 8
	.cfi_offset lr, -4
	.cfi_offset r7, -8
	.pad	#8
	sub	sp, #8
	.cfi_def_cfa_offset 16
	str	r0, [sp, #4]
.Ltmp224:
	.loc	2 1514 38 prologue_end          @ D:\Embed\MDK\MDK\ARM\ARMCompilerV621\Bin\..\include\libcxx\variant:1514:38
	ldr	r0, [sp, #4]
	.loc	2 1514 8 is_stmt 0              @ D:\Embed\MDK\MDK\ARM\ARMCompilerV621\Bin\..\include\libcxx\variant:1514:8
	bl	_ZNSt3__219__holds_alternativeB7v180000ILj0EJNS_4pairIffEEPS2_P10OutputPortIS2_EEEEbRKNS_7variantIJDpT0_EEE
.Ltmp225:
	.loc	2 1514 7                        @ D:\Embed\MDK\MDK\ARM\ARMCompilerV621\Bin\..\include\libcxx\variant:1514:7
	cbnz	r0, .LBB88_2
	b	.LBB88_1
.LBB88_1:
.Ltmp226:
	.loc	2 1515 5 is_stmt 1              @ D:\Embed\MDK\MDK\ARM\ARMCompilerV621\Bin\..\include\libcxx\variant:1515:5
	bl	_ZNSt3__226__throw_bad_variant_accessB7v180000Ev
.Ltmp227:
.LBB88_2:
	.loc	2 1517 56                       @ D:\Embed\MDK\MDK\ARM\ARMCompilerV621\Bin\..\include\libcxx\variant:1517:56
	ldr	r0, [sp, #4]
	.loc	2 1517 10 is_stmt 0             @ D:\Embed\MDK\MDK\ARM\ARMCompilerV621\Bin\..\include\libcxx\variant:1517:10
	bl	_ZNSt3__216__variant_detail8__access9__variant9__get_altB7v180000ILj0ERNS_7variantIJNS_4pairIffEEPS6_P10OutputPortIS6_EEEEEEODaOT0_
	.loc	2 1517 3 epilogue_begin         @ D:\Embed\MDK\MDK\ARM\ARMCompilerV621\Bin\..\include\libcxx\variant:1517:3
	add	sp, #8
	pop	{r7, pc}
.Ltmp228:
.Lfunc_end88:
	.size	_ZNSt3__213__generic_getB7v180000ILj0ERNS_7variantIJNS_4pairIffEEPS3_P10OutputPortIS3_EEEEEEODaOT0_, .Lfunc_end88-_ZNSt3__213__generic_getB7v180000ILj0ERNS_7variantIJNS_4pairIffEEPS3_P10OutputPortIS3_EEEEEEODaOT0_
	.cfi_endproc
	.cantunwind
	.fnend
                                        @ -- End function
	.section	.text._ZNSt3__219__holds_alternativeB7v180000ILj0EJNS_4pairIffEEPS2_P10OutputPortIS2_EEEEbRKNS_7variantIJDpT0_EEE,"axG",%progbits,_ZNSt3__219__holds_alternativeB7v180000ILj0EJNS_4pairIffEEPS2_P10OutputPortIS2_EEEEbRKNS_7variantIJDpT0_EEE,comdat
	.hidden	_ZNSt3__219__holds_alternativeB7v180000ILj0EJNS_4pairIffEEPS2_P10OutputPortIS2_EEEEbRKNS_7variantIJDpT0_EEE @ -- Begin function _ZNSt3__219__holds_alternativeB7v180000ILj0EJNS_4pairIffEEPS2_P10OutputPortIS2_EEEEbRKNS_7variantIJDpT0_EEE
	.weak	_ZNSt3__219__holds_alternativeB7v180000ILj0EJNS_4pairIffEEPS2_P10OutputPortIS2_EEEEbRKNS_7variantIJDpT0_EEE
	.p2align	2
	.type	_ZNSt3__219__holds_alternativeB7v180000ILj0EJNS_4pairIffEEPS2_P10OutputPortIS2_EEEEbRKNS_7variantIJDpT0_EEE,%function
	.code	16                              @ @_ZNSt3__219__holds_alternativeB7v180000ILj0EJNS_4pairIffEEPS2_P10OutputPortIS2_EEEEbRKNS_7variantIJDpT0_EEE
	.thumb_func
_ZNSt3__219__holds_alternativeB7v180000ILj0EJNS_4pairIffEEPS2_P10OutputPortIS2_EEEEbRKNS_7variantIJDpT0_EEE:
.Lfunc_begin89:
	.loc	2 1499 0 is_stmt 1              @ D:\Embed\MDK\MDK\ARM\ARMCompilerV621\Bin\..\include\libcxx\variant:1499:0
	.fnstart
	.cfi_startproc
@ %bb.0:
	.save	{r7, lr}
	push	{r7, lr}
	.cfi_def_cfa_offset 8
	.cfi_offset lr, -4
	.cfi_offset r7, -8
	.pad	#8
	sub	sp, #8
	.cfi_def_cfa_offset 16
	str	r0, [sp, #4]
.Ltmp229:
	.loc	2 1500 10 prologue_end          @ D:\Embed\MDK\MDK\ARM\ARMCompilerV621\Bin\..\include\libcxx\variant:1500:10
	ldr	r0, [sp, #4]
	.loc	2 1500 14 is_stmt 0             @ D:\Embed\MDK\MDK\ARM\ARMCompilerV621\Bin\..\include\libcxx\variant:1500:14
	bl	_ZNKSt3__27variantIJNS_4pairIffEEPS2_P10OutputPortIS2_EEE5indexB7v180000Ev
	.loc	2 1500 22                       @ D:\Embed\MDK\MDK\ARM\ARMCompilerV621\Bin\..\include\libcxx\variant:1500:22
	clz	r0, r0
	lsrs	r0, r0, #5
	.loc	2 1500 3 epilogue_begin         @ D:\Embed\MDK\MDK\ARM\ARMCompilerV621\Bin\..\include\libcxx\variant:1500:3
	add	sp, #8
	pop	{r7, pc}
.Ltmp230:
.Lfunc_end89:
	.size	_ZNSt3__219__holds_alternativeB7v180000ILj0EJNS_4pairIffEEPS2_P10OutputPortIS2_EEEEbRKNS_7variantIJDpT0_EEE, .Lfunc_end89-_ZNSt3__219__holds_alternativeB7v180000ILj0EJNS_4pairIffEEPS2_P10OutputPortIS2_EEEEbRKNS_7variantIJDpT0_EEE
	.cfi_endproc
	.cantunwind
	.fnend
                                        @ -- End function
	.section	.text._ZNSt3__216__variant_detail8__access9__variant9__get_altB7v180000ILj0ERNS_7variantIJNS_4pairIffEEPS6_P10OutputPortIS6_EEEEEEODaOT0_,"axG",%progbits,_ZNSt3__216__variant_detail8__access9__variant9__get_altB7v180000ILj0ERNS_7variantIJNS_4pairIffEEPS6_P10OutputPortIS6_EEEEEEODaOT0_,comdat
	.hidden	_ZNSt3__216__variant_detail8__access9__variant9__get_altB7v180000ILj0ERNS_7variantIJNS_4pairIffEEPS6_P10OutputPortIS6_EEEEEEODaOT0_ @ -- Begin function _ZNSt3__216__variant_detail8__access9__variant9__get_altB7v180000ILj0ERNS_7variantIJNS_4pairIffEEPS6_P10OutputPortIS6_EEEEEEODaOT0_
	.weak	_ZNSt3__216__variant_detail8__access9__variant9__get_altB7v180000ILj0ERNS_7variantIJNS_4pairIffEEPS6_P10OutputPortIS6_EEEEEEODaOT0_
	.p2align	2
	.type	_ZNSt3__216__variant_detail8__access9__variant9__get_altB7v180000ILj0ERNS_7variantIJNS_4pairIffEEPS6_P10OutputPortIS6_EEEEEEODaOT0_,%function
	.code	16                              @ @_ZNSt3__216__variant_detail8__access9__variant9__get_altB7v180000ILj0ERNS_7variantIJNS_4pairIffEEPS6_P10OutputPortIS6_EEEEEEODaOT0_
	.thumb_func
_ZNSt3__216__variant_detail8__access9__variant9__get_altB7v180000ILj0ERNS_7variantIJNS_4pairIffEEPS6_P10OutputPortIS6_EEEEEEODaOT0_:
.Lfunc_begin90:
	.loc	2 507 0 is_stmt 1               @ D:\Embed\MDK\MDK\ARM\ARMCompilerV621\Bin\..\include\libcxx\variant:507:0
	.fnstart
	.cfi_startproc
@ %bb.0:
	.save	{r7, lr}
	push	{r7, lr}
	.cfi_def_cfa_offset 8
	.cfi_offset lr, -4
	.cfi_offset r7, -8
	.pad	#8
	sub	sp, #8
	.cfi_def_cfa_offset 16
	str	r0, [sp, #4]
.Ltmp231:
	.loc	2 508 55 prologue_end           @ D:\Embed\MDK\MDK\ARM\ARMCompilerV621\Bin\..\include\libcxx\variant:508:55
	ldr	r0, [sp, #4]
	.loc	2 508 12 is_stmt 0              @ D:\Embed\MDK\MDK\ARM\ARMCompilerV621\Bin\..\include\libcxx\variant:508:12
	bl	_ZNSt3__216__variant_detail8__access6__base9__get_altB7v180000ILj0ERNS0_6__implIJNS_4pairIffEEPS6_P10OutputPortIS6_EEEEEEODaOT0_
	.loc	2 508 5 epilogue_begin          @ D:\Embed\MDK\MDK\ARM\ARMCompilerV621\Bin\..\include\libcxx\variant:508:5
	add	sp, #8
	pop	{r7, pc}
.Ltmp232:
.Lfunc_end90:
	.size	_ZNSt3__216__variant_detail8__access9__variant9__get_altB7v180000ILj0ERNS_7variantIJNS_4pairIffEEPS6_P10OutputPortIS6_EEEEEEODaOT0_, .Lfunc_end90-_ZNSt3__216__variant_detail8__access9__variant9__get_altB7v180000ILj0ERNS_7variantIJNS_4pairIffEEPS6_P10OutputPortIS6_EEEEEEODaOT0_
	.cfi_endproc
	.cantunwind
	.fnend
                                        @ -- End function
	.section	.text._ZNSt3__216__variant_detail8__access6__base9__get_altB7v180000ILj0ERNS0_6__implIJNS_4pairIffEEPS6_P10OutputPortIS6_EEEEEEODaOT0_,"axG",%progbits,_ZNSt3__216__variant_detail8__access6__base9__get_altB7v180000ILj0ERNS0_6__implIJNS_4pairIffEEPS6_P10OutputPortIS6_EEEEEEODaOT0_,comdat
	.hidden	_ZNSt3__216__variant_detail8__access6__base9__get_altB7v180000ILj0ERNS0_6__implIJNS_4pairIffEEPS6_P10OutputPortIS6_EEEEEEODaOT0_ @ -- Begin function _ZNSt3__216__variant_detail8__access6__base9__get_altB7v180000ILj0ERNS0_6__implIJNS_4pairIffEEPS6_P10OutputPortIS6_EEEEEEODaOT0_
	.weak	_ZNSt3__216__variant_detail8__access6__base9__get_altB7v180000ILj0ERNS0_6__implIJNS_4pairIffEEPS6_P10OutputPortIS6_EEEEEEODaOT0_
	.p2align	2
	.type	_ZNSt3__216__variant_detail8__access6__base9__get_altB7v180000ILj0ERNS0_6__implIJNS_4pairIffEEPS6_P10OutputPortIS6_EEEEEEODaOT0_,%function
	.code	16                              @ @_ZNSt3__216__variant_detail8__access6__base9__get_altB7v180000ILj0ERNS0_6__implIJNS_4pairIffEEPS6_P10OutputPortIS6_EEEEEEODaOT0_
	.thumb_func
_ZNSt3__216__variant_detail8__access6__base9__get_altB7v180000ILj0ERNS0_6__implIJNS_4pairIffEEPS6_P10OutputPortIS6_EEEEEEODaOT0_:
.Lfunc_begin91:
	.loc	2 498 0 is_stmt 1               @ D:\Embed\MDK\MDK\ARM\ARMCompilerV621\Bin\..\include\libcxx\variant:498:0
	.fnstart
	.cfi_startproc
@ %bb.0:
	.save	{r7, lr}
	push	{r7, lr}
	.cfi_def_cfa_offset 8
	.cfi_offset lr, -4
	.cfi_offset r7, -8
	.pad	#8
	sub	sp, #8
	.cfi_def_cfa_offset 16
	str	r0, [sp, #4]
.Ltmp233:
	.loc	2 499 51 prologue_end           @ D:\Embed\MDK\MDK\ARM\ARMCompilerV621\Bin\..\include\libcxx\variant:499:51
	ldr	r0, [sp, #4]
	.loc	2 499 12 is_stmt 0              @ D:\Embed\MDK\MDK\ARM\ARMCompilerV621\Bin\..\include\libcxx\variant:499:12
	bl	_ZNSt3__216__variant_detail8__access7__union9__get_altB7v180000IRNS0_7__unionILNS0_6_TraitE0ELj0EJNS_4pairIffEEPS7_P10OutputPortIS7_EEEEEEODaOT_NS_16in_place_index_tILj0EEE
	.loc	2 499 5 epilogue_begin          @ D:\Embed\MDK\MDK\ARM\ARMCompilerV621\Bin\..\include\libcxx\variant:499:5
	add	sp, #8
	pop	{r7, pc}
.Ltmp234:
.Lfunc_end91:
	.size	_ZNSt3__216__variant_detail8__access6__base9__get_altB7v180000ILj0ERNS0_6__implIJNS_4pairIffEEPS6_P10OutputPortIS6_EEEEEEODaOT0_, .Lfunc_end91-_ZNSt3__216__variant_detail8__access6__base9__get_altB7v180000ILj0ERNS0_6__implIJNS_4pairIffEEPS6_P10OutputPortIS6_EEEEEEODaOT0_
	.cfi_endproc
	.cantunwind
	.fnend
                                        @ -- End function
	.section	.text._ZNSt3__216__variant_detail8__access7__union9__get_altB7v180000IRNS0_7__unionILNS0_6_TraitE0ELj0EJNS_4pairIffEEPS7_P10OutputPortIS7_EEEEEEODaOT_NS_16in_place_index_tILj0EEE,"axG",%progbits,_ZNSt3__216__variant_detail8__access7__union9__get_altB7v180000IRNS0_7__unionILNS0_6_TraitE0ELj0EJNS_4pairIffEEPS7_P10OutputPortIS7_EEEEEEODaOT_NS_16in_place_index_tILj0EEE,comdat
	.hidden	_ZNSt3__216__variant_detail8__access7__union9__get_altB7v180000IRNS0_7__unionILNS0_6_TraitE0ELj0EJNS_4pairIffEEPS7_P10OutputPortIS7_EEEEEEODaOT_NS_16in_place_index_tILj0EEE @ -- Begin function _ZNSt3__216__variant_detail8__access7__union9__get_altB7v180000IRNS0_7__unionILNS0_6_TraitE0ELj0EJNS_4pairIffEEPS7_P10OutputPortIS7_EEEEEEODaOT_NS_16in_place_index_tILj0EEE
	.weak	_ZNSt3__216__variant_detail8__access7__union9__get_altB7v180000IRNS0_7__unionILNS0_6_TraitE0ELj0EJNS_4pairIffEEPS7_P10OutputPortIS7_EEEEEEODaOT_NS_16in_place_index_tILj0EEE
	.p2align	2
	.type	_ZNSt3__216__variant_detail8__access7__union9__get_altB7v180000IRNS0_7__unionILNS0_6_TraitE0ELj0EJNS_4pairIffEEPS7_P10OutputPortIS7_EEEEEEODaOT_NS_16in_place_index_tILj0EEE,%function
	.code	16                              @ @_ZNSt3__216__variant_detail8__access7__union9__get_altB7v180000IRNS0_7__unionILNS0_6_TraitE0ELj0EJNS_4pairIffEEPS7_P10OutputPortIS7_EEEEEEODaOT_NS_16in_place_index_tILj0EEE
	.thumb_func
_ZNSt3__216__variant_detail8__access7__union9__get_altB7v180000IRNS0_7__unionILNS0_6_TraitE0ELj0EJNS_4pairIffEEPS7_P10OutputPortIS7_EEEEEEODaOT_NS_16in_place_index_tILj0EEE:
.Lfunc_begin92:
	.loc	2 484 0 is_stmt 1               @ D:\Embed\MDK\MDK\ARM\ARMCompilerV621\Bin\..\include\libcxx\variant:484:0
	.fnstart
	.cfi_startproc
@ %bb.0:
	.pad	#8
	sub	sp, #8
	.cfi_def_cfa_offset 8
	str	r0, [sp]
.Ltmp235:
	.loc	2 485 32 prologue_end           @ D:\Embed\MDK\MDK\ARM\ARMCompilerV621\Bin\..\include\libcxx\variant:485:32
	ldr	r0, [sp]
	.loc	2 485 5 epilogue_begin is_stmt 0 @ D:\Embed\MDK\MDK\ARM\ARMCompilerV621\Bin\..\include\libcxx\variant:485:5
	add	sp, #8
	bx	lr
.Ltmp236:
.Lfunc_end92:
	.size	_ZNSt3__216__variant_detail8__access7__union9__get_altB7v180000IRNS0_7__unionILNS0_6_TraitE0ELj0EJNS_4pairIffEEPS7_P10OutputPortIS7_EEEEEEODaOT_NS_16in_place_index_tILj0EEE, .Lfunc_end92-_ZNSt3__216__variant_detail8__access7__union9__get_altB7v180000IRNS0_7__unionILNS0_6_TraitE0ELj0EJNS_4pairIffEEPS7_P10OutputPortIS7_EEEEEEODaOT_NS_16in_place_index_tILj0EEE
	.cfi_endproc
	.cantunwind
	.fnend
                                        @ -- End function
	.section	.text._ZNSt3__227__optional_move_assign_baseINS_4pairIffEELb0EECI2NS_24__optional_destruct_baseIS2_Lb1EEEIJRS2_EEENS_10in_place_tEDpOT_,"axG",%progbits,_ZNSt3__227__optional_move_assign_baseINS_4pairIffEELb0EECI2NS_24__optional_destruct_baseIS2_Lb1EEEIJRS2_EEENS_10in_place_tEDpOT_,comdat
	.hidden	_ZNSt3__227__optional_move_assign_baseINS_4pairIffEELb0EECI2NS_24__optional_destruct_baseIS2_Lb1EEEIJRS2_EEENS_10in_place_tEDpOT_ @ -- Begin function _ZNSt3__227__optional_move_assign_baseINS_4pairIffEELb0EECI2NS_24__optional_destruct_baseIS2_Lb1EEEIJRS2_EEENS_10in_place_tEDpOT_
	.weak	_ZNSt3__227__optional_move_assign_baseINS_4pairIffEELb0EECI2NS_24__optional_destruct_baseIS2_Lb1EEEIJRS2_EEENS_10in_place_tEDpOT_
	.p2align	2
	.type	_ZNSt3__227__optional_move_assign_baseINS_4pairIffEELb0EECI2NS_24__optional_destruct_baseIS2_Lb1EEEIJRS2_EEENS_10in_place_tEDpOT_,%function
	.code	16                              @ @_ZNSt3__227__optional_move_assign_baseINS_4pairIffEELb0EECI2NS_24__optional_destruct_baseIS2_Lb1EEEIJRS2_EEENS_10in_place_tEDpOT_
	.thumb_func
_ZNSt3__227__optional_move_assign_baseINS_4pairIffEELb0EECI2NS_24__optional_destruct_baseIS2_Lb1EEEIJRS2_EEENS_10in_place_tEDpOT_:
.Lfunc_begin93:
	.loc	5 647 0 is_stmt 1               @ D:\Embed\MDK\MDK\ARM\ARMCompilerV621\Bin\..\include\libcxx\optional:647:0
	.fnstart
	.cfi_startproc
@ %bb.0:
	.save	{r7, lr}
	push	{r7, lr}
	.cfi_def_cfa_offset 8
	.cfi_offset lr, -4
	.cfi_offset r7, -8
	.pad	#16
	sub	sp, #16
	.cfi_def_cfa_offset 24
	str	r0, [sp, #8]
	str	r1, [sp, #4]
	ldr	r0, [sp, #8]
.Ltmp237:
	.loc	5 647 45 prologue_end           @ D:\Embed\MDK\MDK\ARM\ARMCompilerV621\Bin\..\include\libcxx\optional:647:45
	str	r0, [sp]                        @ 4-byte Spill
	ldr	r1, [sp, #4]
	bl	_ZNSt3__227__optional_copy_assign_baseINS_4pairIffEELb0EECI2NS_24__optional_destruct_baseIS2_Lb1EEEIJRS2_EEENS_10in_place_tEDpOT_
	ldr	r0, [sp]                        @ 4-byte Reload
	.loc	5 647 45 epilogue_begin is_stmt 0 @ D:\Embed\MDK\MDK\ARM\ARMCompilerV621\Bin\..\include\libcxx\optional:647:45
	add	sp, #16
	pop	{r7, pc}
.Ltmp238:
.Lfunc_end93:
	.size	_ZNSt3__227__optional_move_assign_baseINS_4pairIffEELb0EECI2NS_24__optional_destruct_baseIS2_Lb1EEEIJRS2_EEENS_10in_place_tEDpOT_, .Lfunc_end93-_ZNSt3__227__optional_move_assign_baseINS_4pairIffEELb0EECI2NS_24__optional_destruct_baseIS2_Lb1EEEIJRS2_EEENS_10in_place_tEDpOT_
	.cfi_endproc
	.cantunwind
	.fnend
                                        @ -- End function
	.section	.text._ZNSt3__227__optional_copy_assign_baseINS_4pairIffEELb0EECI2NS_24__optional_destruct_baseIS2_Lb1EEEIJRS2_EEENS_10in_place_tEDpOT_,"axG",%progbits,_ZNSt3__227__optional_copy_assign_baseINS_4pairIffEELb0EECI2NS_24__optional_destruct_baseIS2_Lb1EEEIJRS2_EEENS_10in_place_tEDpOT_,comdat
	.hidden	_ZNSt3__227__optional_copy_assign_baseINS_4pairIffEELb0EECI2NS_24__optional_destruct_baseIS2_Lb1EEEIJRS2_EEENS_10in_place_tEDpOT_ @ -- Begin function _ZNSt3__227__optional_copy_assign_baseINS_4pairIffEELb0EECI2NS_24__optional_destruct_baseIS2_Lb1EEEIJRS2_EEENS_10in_place_tEDpOT_
	.weak	_ZNSt3__227__optional_copy_assign_baseINS_4pairIffEELb0EECI2NS_24__optional_destruct_baseIS2_Lb1EEEIJRS2_EEENS_10in_place_tEDpOT_
	.p2align	2
	.type	_ZNSt3__227__optional_copy_assign_baseINS_4pairIffEELb0EECI2NS_24__optional_destruct_baseIS2_Lb1EEEIJRS2_EEENS_10in_place_tEDpOT_,%function
	.code	16                              @ @_ZNSt3__227__optional_copy_assign_baseINS_4pairIffEELb0EECI2NS_24__optional_destruct_baseIS2_Lb1EEEIJRS2_EEENS_10in_place_tEDpOT_
	.thumb_func
_ZNSt3__227__optional_copy_assign_baseINS_4pairIffEELb0EECI2NS_24__optional_destruct_baseIS2_Lb1EEEIJRS2_EEENS_10in_place_tEDpOT_:
.Lfunc_begin94:
	.loc	5 614 0 is_stmt 1               @ D:\Embed\MDK\MDK\ARM\ARMCompilerV621\Bin\..\include\libcxx\optional:614:0
	.fnstart
	.cfi_startproc
@ %bb.0:
	.save	{r7, lr}
	push	{r7, lr}
	.cfi_def_cfa_offset 8
	.cfi_offset lr, -4
	.cfi_offset r7, -8
	.pad	#16
	sub	sp, #16
	.cfi_def_cfa_offset 24
	str	r0, [sp, #8]
	str	r1, [sp, #4]
	ldr	r0, [sp, #8]
.Ltmp239:
	.loc	5 614 38 prologue_end           @ D:\Embed\MDK\MDK\ARM\ARMCompilerV621\Bin\..\include\libcxx\optional:614:38
	str	r0, [sp]                        @ 4-byte Spill
	ldr	r1, [sp, #4]
	bl	_ZNSt3__220__optional_move_baseINS_4pairIffEELb1EECI2NS_24__optional_destruct_baseIS2_Lb1EEEIJRS2_EEENS_10in_place_tEDpOT_
	ldr	r0, [sp]                        @ 4-byte Reload
	.loc	5 614 38 epilogue_begin is_stmt 0 @ D:\Embed\MDK\MDK\ARM\ARMCompilerV621\Bin\..\include\libcxx\optional:614:38
	add	sp, #16
	pop	{r7, pc}
.Ltmp240:
.Lfunc_end94:
	.size	_ZNSt3__227__optional_copy_assign_baseINS_4pairIffEELb0EECI2NS_24__optional_destruct_baseIS2_Lb1EEEIJRS2_EEENS_10in_place_tEDpOT_, .Lfunc_end94-_ZNSt3__227__optional_copy_assign_baseINS_4pairIffEELb0EECI2NS_24__optional_destruct_baseIS2_Lb1EEEIJRS2_EEENS_10in_place_tEDpOT_
	.cfi_endproc
	.cantunwind
	.fnend
                                        @ -- End function
	.section	.text._ZNSt3__220__optional_move_baseINS_4pairIffEELb1EECI2NS_24__optional_destruct_baseIS2_Lb1EEEIJRS2_EEENS_10in_place_tEDpOT_,"axG",%progbits,_ZNSt3__220__optional_move_baseINS_4pairIffEELb1EECI2NS_24__optional_destruct_baseIS2_Lb1EEEIJRS2_EEENS_10in_place_tEDpOT_,comdat
	.hidden	_ZNSt3__220__optional_move_baseINS_4pairIffEELb1EECI2NS_24__optional_destruct_baseIS2_Lb1EEEIJRS2_EEENS_10in_place_tEDpOT_ @ -- Begin function _ZNSt3__220__optional_move_baseINS_4pairIffEELb1EECI2NS_24__optional_destruct_baseIS2_Lb1EEEIJRS2_EEENS_10in_place_tEDpOT_
	.weak	_ZNSt3__220__optional_move_baseINS_4pairIffEELb1EECI2NS_24__optional_destruct_baseIS2_Lb1EEEIJRS2_EEENS_10in_place_tEDpOT_
	.p2align	2
	.type	_ZNSt3__220__optional_move_baseINS_4pairIffEELb1EECI2NS_24__optional_destruct_baseIS2_Lb1EEEIJRS2_EEENS_10in_place_tEDpOT_,%function
	.code	16                              @ @_ZNSt3__220__optional_move_baseINS_4pairIffEELb1EECI2NS_24__optional_destruct_baseIS2_Lb1EEEIJRS2_EEENS_10in_place_tEDpOT_
	.thumb_func
_ZNSt3__220__optional_move_baseINS_4pairIffEELb1EECI2NS_24__optional_destruct_baseIS2_Lb1EEEIJRS2_EEENS_10in_place_tEDpOT_:
.Lfunc_begin95:
	.loc	5 575 0 is_stmt 1               @ D:\Embed\MDK\MDK\ARM\ARMCompilerV621\Bin\..\include\libcxx\optional:575:0
	.fnstart
	.cfi_startproc
@ %bb.0:
	.save	{r7, lr}
	push	{r7, lr}
	.cfi_def_cfa_offset 8
	.cfi_offset lr, -4
	.cfi_offset r7, -8
	.pad	#16
	sub	sp, #16
	.cfi_def_cfa_offset 24
	str	r0, [sp, #8]
	str	r1, [sp, #4]
	ldr	r0, [sp, #8]
.Ltmp241:
	.loc	5 575 38 prologue_end           @ D:\Embed\MDK\MDK\ARM\ARMCompilerV621\Bin\..\include\libcxx\optional:575:38
	str	r0, [sp]                        @ 4-byte Spill
	ldr	r1, [sp, #4]
	bl	_ZNSt3__220__optional_copy_baseINS_4pairIffEELb1EECI2NS_24__optional_destruct_baseIS2_Lb1EEEIJRS2_EEENS_10in_place_tEDpOT_
	ldr	r0, [sp]                        @ 4-byte Reload
	.loc	5 575 38 epilogue_begin is_stmt 0 @ D:\Embed\MDK\MDK\ARM\ARMCompilerV621\Bin\..\include\libcxx\optional:575:38
	add	sp, #16
	pop	{r7, pc}
.Ltmp242:
.Lfunc_end95:
	.size	_ZNSt3__220__optional_move_baseINS_4pairIffEELb1EECI2NS_24__optional_destruct_baseIS2_Lb1EEEIJRS2_EEENS_10in_place_tEDpOT_, .Lfunc_end95-_ZNSt3__220__optional_move_baseINS_4pairIffEELb1EECI2NS_24__optional_destruct_baseIS2_Lb1EEEIJRS2_EEENS_10in_place_tEDpOT_
	.cfi_endproc
	.cantunwind
	.fnend
                                        @ -- End function
	.section	.text._ZNSt3__220__optional_copy_baseINS_4pairIffEELb1EECI2NS_24__optional_destruct_baseIS2_Lb1EEEIJRS2_EEENS_10in_place_tEDpOT_,"axG",%progbits,_ZNSt3__220__optional_copy_baseINS_4pairIffEELb1EECI2NS_24__optional_destruct_baseIS2_Lb1EEEIJRS2_EEENS_10in_place_tEDpOT_,comdat
	.hidden	_ZNSt3__220__optional_copy_baseINS_4pairIffEELb1EECI2NS_24__optional_destruct_baseIS2_Lb1EEEIJRS2_EEENS_10in_place_tEDpOT_ @ -- Begin function _ZNSt3__220__optional_copy_baseINS_4pairIffEELb1EECI2NS_24__optional_destruct_baseIS2_Lb1EEEIJRS2_EEENS_10in_place_tEDpOT_
	.weak	_ZNSt3__220__optional_copy_baseINS_4pairIffEELb1EECI2NS_24__optional_destruct_baseIS2_Lb1EEEIJRS2_EEENS_10in_place_tEDpOT_
	.p2align	2
	.type	_ZNSt3__220__optional_copy_baseINS_4pairIffEELb1EECI2NS_24__optional_destruct_baseIS2_Lb1EEEIJRS2_EEENS_10in_place_tEDpOT_,%function
	.code	16                              @ @_ZNSt3__220__optional_copy_baseINS_4pairIffEELb1EECI2NS_24__optional_destruct_baseIS2_Lb1EEEIJRS2_EEENS_10in_place_tEDpOT_
	.thumb_func
_ZNSt3__220__optional_copy_baseINS_4pairIffEELb1EECI2NS_24__optional_destruct_baseIS2_Lb1EEEIJRS2_EEENS_10in_place_tEDpOT_:
.Lfunc_begin96:
	.loc	5 547 0 is_stmt 1               @ D:\Embed\MDK\MDK\ARM\ARMCompilerV621\Bin\..\include\libcxx\optional:547:0
	.fnstart
	.cfi_startproc
@ %bb.0:
	.save	{r7, lr}
	push	{r7, lr}
	.cfi_def_cfa_offset 8
	.cfi_offset lr, -4
	.cfi_offset r7, -8
	.pad	#16
	sub	sp, #16
	.cfi_def_cfa_offset 24
	str	r0, [sp, #8]
	str	r1, [sp, #4]
	ldr	r0, [sp, #8]
.Ltmp243:
	.loc	5 547 41 prologue_end           @ D:\Embed\MDK\MDK\ARM\ARMCompilerV621\Bin\..\include\libcxx\optional:547:41
	str	r0, [sp]                        @ 4-byte Spill
	ldr	r1, [sp, #4]
	bl	_ZNSt3__223__optional_storage_baseINS_4pairIffEELb0EECI2NS_24__optional_destruct_baseIS2_Lb1EEEIJRS2_EEENS_10in_place_tEDpOT_
	ldr	r0, [sp]                        @ 4-byte Reload
	.loc	5 547 41 epilogue_begin is_stmt 0 @ D:\Embed\MDK\MDK\ARM\ARMCompilerV621\Bin\..\include\libcxx\optional:547:41
	add	sp, #16
	pop	{r7, pc}
.Ltmp244:
.Lfunc_end96:
	.size	_ZNSt3__220__optional_copy_baseINS_4pairIffEELb1EECI2NS_24__optional_destruct_baseIS2_Lb1EEEIJRS2_EEENS_10in_place_tEDpOT_, .Lfunc_end96-_ZNSt3__220__optional_copy_baseINS_4pairIffEELb1EECI2NS_24__optional_destruct_baseIS2_Lb1EEEIJRS2_EEENS_10in_place_tEDpOT_
	.cfi_endproc
	.cantunwind
	.fnend
                                        @ -- End function
	.section	.text._ZNSt3__223__optional_storage_baseINS_4pairIffEELb0EECI2NS_24__optional_destruct_baseIS2_Lb1EEEIJRS2_EEENS_10in_place_tEDpOT_,"axG",%progbits,_ZNSt3__223__optional_storage_baseINS_4pairIffEELb0EECI2NS_24__optional_destruct_baseIS2_Lb1EEEIJRS2_EEENS_10in_place_tEDpOT_,comdat
	.hidden	_ZNSt3__223__optional_storage_baseINS_4pairIffEELb0EECI2NS_24__optional_destruct_baseIS2_Lb1EEEIJRS2_EEENS_10in_place_tEDpOT_ @ -- Begin function _ZNSt3__223__optional_storage_baseINS_4pairIffEELb0EECI2NS_24__optional_destruct_baseIS2_Lb1EEEIJRS2_EEENS_10in_place_tEDpOT_
	.weak	_ZNSt3__223__optional_storage_baseINS_4pairIffEELb0EECI2NS_24__optional_destruct_baseIS2_Lb1EEEIJRS2_EEENS_10in_place_tEDpOT_
	.p2align	2
	.type	_ZNSt3__223__optional_storage_baseINS_4pairIffEELb0EECI2NS_24__optional_destruct_baseIS2_Lb1EEEIJRS2_EEENS_10in_place_tEDpOT_,%function
	.code	16                              @ @_ZNSt3__223__optional_storage_baseINS_4pairIffEELb0EECI2NS_24__optional_destruct_baseIS2_Lb1EEEIJRS2_EEENS_10in_place_tEDpOT_
	.thumb_func
_ZNSt3__223__optional_storage_baseINS_4pairIffEELb0EECI2NS_24__optional_destruct_baseIS2_Lb1EEEIJRS2_EEENS_10in_place_tEDpOT_:
.Lfunc_begin97:
	.loc	5 382 0 is_stmt 1               @ D:\Embed\MDK\MDK\ARM\ARMCompilerV621\Bin\..\include\libcxx\optional:382:0
	.fnstart
	.cfi_startproc
@ %bb.0:
	.save	{r7, lr}
	push	{r7, lr}
	.cfi_def_cfa_offset 8
	.cfi_offset lr, -4
	.cfi_offset r7, -8
	.pad	#16
	sub	sp, #16
	.cfi_def_cfa_offset 24
	str	r0, [sp, #8]
	str	r1, [sp, #4]
	ldr	r0, [sp, #8]
.Ltmp245:
	.loc	5 382 19 prologue_end           @ D:\Embed\MDK\MDK\ARM\ARMCompilerV621\Bin\..\include\libcxx\optional:382:19
	str	r0, [sp]                        @ 4-byte Spill
	ldr	r1, [sp, #4]
	bl	_ZNSt3__224__optional_destruct_baseINS_4pairIffEELb1EEC2B7v180000IJRS2_EEENS_10in_place_tEDpOT_
	ldr	r0, [sp]                        @ 4-byte Reload
	.loc	5 382 19 epilogue_begin is_stmt 0 @ D:\Embed\MDK\MDK\ARM\ARMCompilerV621\Bin\..\include\libcxx\optional:382:19
	add	sp, #16
	pop	{r7, pc}
.Ltmp246:
.Lfunc_end97:
	.size	_ZNSt3__223__optional_storage_baseINS_4pairIffEELb0EECI2NS_24__optional_destruct_baseIS2_Lb1EEEIJRS2_EEENS_10in_place_tEDpOT_, .Lfunc_end97-_ZNSt3__223__optional_storage_baseINS_4pairIffEELb0EECI2NS_24__optional_destruct_baseIS2_Lb1EEEIJRS2_EEENS_10in_place_tEDpOT_
	.cfi_endproc
	.cantunwind
	.fnend
                                        @ -- End function
	.section	.text._ZNSt3__224__optional_destruct_baseINS_4pairIffEELb1EEC2B7v180000IJRS2_EEENS_10in_place_tEDpOT_,"axG",%progbits,_ZNSt3__224__optional_destruct_baseINS_4pairIffEELb1EEC2B7v180000IJRS2_EEENS_10in_place_tEDpOT_,comdat
	.hidden	_ZNSt3__224__optional_destruct_baseINS_4pairIffEELb1EEC2B7v180000IJRS2_EEENS_10in_place_tEDpOT_ @ -- Begin function _ZNSt3__224__optional_destruct_baseINS_4pairIffEELb1EEC2B7v180000IJRS2_EEENS_10in_place_tEDpOT_
	.weak	_ZNSt3__224__optional_destruct_baseINS_4pairIffEELb1EEC2B7v180000IJRS2_EEENS_10in_place_tEDpOT_
	.p2align	2
	.type	_ZNSt3__224__optional_destruct_baseINS_4pairIffEELb1EEC2B7v180000IJRS2_EEENS_10in_place_tEDpOT_,%function
	.code	16                              @ @_ZNSt3__224__optional_destruct_baseINS_4pairIffEELb1EEC2B7v180000IJRS2_EEENS_10in_place_tEDpOT_
	.thumb_func
_ZNSt3__224__optional_destruct_baseINS_4pairIffEELb1EEC2B7v180000IJRS2_EEENS_10in_place_tEDpOT_:
.Lfunc_begin98:
	.loc	5 358 0 is_stmt 1               @ D:\Embed\MDK\MDK\ARM\ARMCompilerV621\Bin\..\include\libcxx\optional:358:0
	.fnstart
	.cfi_startproc
@ %bb.0:
	.pad	#12
	sub	sp, #12
	.cfi_def_cfa_offset 12
	str	r0, [sp, #4]
	str	r1, [sp]
	ldr	r0, [sp, #4]
.Ltmp247:
	.loc	5 357 41 prologue_end           @ D:\Embed\MDK\MDK\ARM\ARMCompilerV621\Bin\..\include\libcxx\optional:357:41
	ldr	r2, [sp]
	.loc	5 357 12 is_stmt 0              @ D:\Embed\MDK\MDK\ARM\ARMCompilerV621\Bin\..\include\libcxx\optional:357:12
	ldr	r1, [r2]
	ldr	r2, [r2, #4]
	str	r2, [r0, #4]
	str	r1, [r0]
	movs	r1, #1
	.loc	5 358 12 is_stmt 1              @ D:\Embed\MDK\MDK\ARM\ARMCompilerV621\Bin\..\include\libcxx\optional:358:12
	strb	r1, [r0, #8]
	.loc	5 358 30 epilogue_begin is_stmt 0 @ D:\Embed\MDK\MDK\ARM\ARMCompilerV621\Bin\..\include\libcxx\optional:358:30
	add	sp, #12
	bx	lr
.Ltmp248:
.Lfunc_end98:
	.size	_ZNSt3__224__optional_destruct_baseINS_4pairIffEELb1EEC2B7v180000IJRS2_EEENS_10in_place_tEDpOT_, .Lfunc_end98-_ZNSt3__224__optional_destruct_baseINS_4pairIffEELb1EEC2B7v180000IJRS2_EEENS_10in_place_tEDpOT_
	.cfi_endproc
	.cantunwind
	.fnend
                                        @ -- End function
	.hidden	_ZTV13AcimEstimator             @ @_ZTV13AcimEstimator
	.type	_ZTV13AcimEstimator,%object
	.section	.rodata._ZTV13AcimEstimator,"a",%progbits
	.globl	_ZTV13AcimEstimator
	.p2align	2, 0x0
_ZTV13AcimEstimator:
	.long	0
	.long	_ZTI13AcimEstimator
	.long	_ZN13AcimEstimator6updateEj
	.size	_ZTV13AcimEstimator, 12

	.hidden	_ZTS13AcimEstimator             @ @_ZTS13AcimEstimator
	.type	_ZTS13AcimEstimator,%object
	.section	.rodata._ZTS13AcimEstimator,"a",%progbits
	.globl	_ZTS13AcimEstimator
_ZTS13AcimEstimator:
	.asciz	"13AcimEstimator"
	.size	_ZTS13AcimEstimator, 16

	.hidden	_ZTS13ComponentBase             @ @_ZTS13ComponentBase
	.type	_ZTS13ComponentBase,%object
	.section	.rodata._ZTS13ComponentBase,"aG",%progbits,_ZTS13ComponentBase,comdat
	.weak	_ZTS13ComponentBase
_ZTS13ComponentBase:
	.asciz	"13ComponentBase"
	.size	_ZTS13ComponentBase, 16

	.hidden	_ZTI13ComponentBase             @ @_ZTI13ComponentBase
	.type	_ZTI13ComponentBase,%object
	.section	.rodata._ZTI13ComponentBase,"aG",%progbits,_ZTI13ComponentBase,comdat
	.weak	_ZTI13ComponentBase
	.p2align	2, 0x0
_ZTI13ComponentBase:
	.long	_ZTVN10__cxxabiv117__class_type_infoE+8
	.long	_ZTS13ComponentBase
	.size	_ZTI13ComponentBase, 8

	.hidden	_ZTI13AcimEstimator             @ @_ZTI13AcimEstimator
	.type	_ZTI13AcimEstimator,%object
	.section	.rodata._ZTI13AcimEstimator,"a",%progbits
	.globl	_ZTI13AcimEstimator
	.p2align	2, 0x0
_ZTI13AcimEstimator:
	.long	_ZTVN10__cxxabiv120__si_class_type_infoE+8
	.long	_ZTS13AcimEstimator
	.long	_ZTI13ComponentBase
	.size	_ZTI13AcimEstimator, 12

	.hidden	_ZNSt3__27nulloptE              @ @_ZNSt3__27nulloptE
	.type	_ZNSt3__27nulloptE,%object
	.section	.rodata._ZNSt3__27nulloptE,"aG",%progbits,_ZNSt3__27nulloptE,comdat
	.weak	_ZNSt3__27nulloptE
_ZNSt3__27nulloptE:
	.zero	1
	.size	_ZNSt3__27nulloptE, 1

	.type	.L.str,%object                  @ @.str
	.section	.rodata.str1.1,"aMS",%progbits,1
.L.str:
	.asciz	"bad_variant_access was thrown in -fno-exceptions mode"
	.size	.L.str, 54

	.hidden	_ZNSt3__214in_place_indexILj2EEE @ @_ZNSt3__214in_place_indexILj2EEE
	.type	_ZNSt3__214in_place_indexILj2EEE,%object
	.section	.rodata._ZNSt3__214in_place_indexILj2EEE,"aG",%progbits,_ZNSt3__214in_place_indexILj2EEE,comdat
	.weak	_ZNSt3__214in_place_indexILj2EEE
_ZNSt3__214in_place_indexILj2EEE:
	.zero	1
	.size	_ZNSt3__214in_place_indexILj2EEE, 1

	.hidden	_ZNSt3__214in_place_indexILj1EEE @ @_ZNSt3__214in_place_indexILj1EEE
	.type	_ZNSt3__214in_place_indexILj1EEE,%object
	.section	.rodata._ZNSt3__214in_place_indexILj1EEE,"aG",%progbits,_ZNSt3__214in_place_indexILj1EEE,comdat
	.weak	_ZNSt3__214in_place_indexILj1EEE
_ZNSt3__214in_place_indexILj1EEE:
	.zero	1
	.size	_ZNSt3__214in_place_indexILj1EEE, 1

	.hidden	_ZNSt3__214in_place_indexILj0EEE @ @_ZNSt3__214in_place_indexILj0EEE
	.type	_ZNSt3__214in_place_indexILj0EEE,%object
	.section	.rodata._ZNSt3__214in_place_indexILj0EEE,"aG",%progbits,_ZNSt3__214in_place_indexILj0EEE,comdat
	.weak	_ZNSt3__214in_place_indexILj0EEE
_ZNSt3__214in_place_indexILj0EEE:
	.zero	1
	.size	_ZNSt3__214in_place_indexILj0EEE, 1

	.hidden	_ZNSt3__28in_placeE             @ @_ZNSt3__28in_placeE
	.type	_ZNSt3__28in_placeE,%object
	.section	.rodata._ZNSt3__28in_placeE,"aG",%progbits,_ZNSt3__28in_placeE,comdat
	.weak	_ZNSt3__28in_placeE
_ZNSt3__28in_placeE:
	.zero	1
	.size	_ZNSt3__28in_placeE, 1

	.file	15 "D:\\Embed\\MDK\\MDK\\ARM\\ARMCompilerV621\\Bin\\..\\include" "stddef.h"
	.file	16 "D:\\Embed\\MDK\\MDK\\ARM\\ARMCompilerV621\\Bin\\..\\include\\libcxx" "stddef.h"
	.file	17 "D:\\Embed\\MDK\\MDK\\ARM\\ARMCompilerV621\\Bin\\..\\include\\libcxx" "cstddef"
	.file	18 "D:\\Embed\\MDK\\MDK\\ARM\\ARMCompilerV621\\Bin\\..\\include\\libcxx" "cstdint"
	.file	19 "D:\\Embed\\MDK\\MDK\\ARM\\ARMCompilerV621\\Bin\\..\\include" "string.h"
	.file	20 "D:\\Embed\\MDK\\MDK\\ARM\\ARMCompilerV621\\Bin\\..\\include\\libcxx" "cstring"
	.file	21 "D:\\Embed\\MDK\\MDK\\ARM\\ARMCompilerV621\\Bin\\..\\include\\libcxx" "string.h"
	.file	22 "D:\\Embed\\MDK\\MDK\\ARM\\ARMCompilerV621\\Bin\\..\\include" "stdlib.h"
	.file	23 "D:\\Embed\\MDK\\MDK\\ARM\\ARMCompilerV621\\Bin\\..\\include\\libcxx" "cstdlib"
	.file	24 "D:\\Embed\\MDK\\MDK\\ARM\\ARMCompilerV621\\Bin\\..\\include" "wchar.h"
	.file	25 "D:\\ikingtec\\Robot\\ODrive\\Firmware\\MDK-ARM" "../MotorControl\\acim_estimator.cpp"
	.file	26 "D:\\Embed\\MDK\\MDK\\ARM\\ARMCompilerV621\\Bin\\..\\include\\libcxx" "__std_mbstate_t.h"
	.file	27 "D:\\Embed\\MDK\\MDK\\ARM\\ARMCompilerV621\\Bin\\..\\include" "math.h"
	.file	28 "D:\\Embed\\MDK\\MDK\\ARM\\ARMCompilerV621\\Bin\\..\\include\\libcxx\\__math" "traits.h"
	.file	29 "D:\\Embed\\MDK\\MDK\\ARM\\ARMCompilerV621\\Bin\\..\\include\\libcxx" "math.h"
	.file	30 "D:\\Embed\\MDK\\MDK\\ARM\\ARMCompilerV621\\Bin\\..\\include\\libcxx\\__math" "modulo.h"
	.file	31 "D:\\Embed\\MDK\\MDK\\ARM\\ARMCompilerV621\\Bin\\..\\include\\libcxx" "cmath"
	.file	32 "D:\\Embed\\MDK\\MDK\\ARM\\ARMCompilerV621\\Bin\\..\\include\\libcxx\\__chrono" "duration.h"
	.file	33 "D:\\Embed\\MDK\\MDK\\ARM\\ARMCompilerV621\\Bin\\..\\include\\libcxx" "ctime"
	.file	34 "D:\\Embed\\MDK\\MDK\\ARM\\ARMCompilerV621\\Bin\\..\\include" "errno.h"
	.file	35 "D:\\Embed\\MDK\\MDK\\ARM\\ARMCompilerV621\\Bin\\..\\include" "ctype.h"
	.file	36 "D:\\Embed\\MDK\\MDK\\ARM\\ARMCompilerV621\\Bin\\..\\include\\libcxx" "cctype"
	.file	37 "D:\\Embed\\MDK\\MDK\\ARM\\ARMCompilerV621\\Bin\\..\\include" "wctype.h"
	.file	38 "D:\\Embed\\MDK\\MDK\\ARM\\ARMCompilerV621\\Bin\\..\\include\\libcxx" "cwctype"
	.file	39 "D:\\Embed\\MDK\\MDK\\ARM\\ARMCompilerV621\\Bin\\..\\include\\libcxx" "cwchar"
	.file	40 "D:\\Embed\\MDK\\MDK\\ARM\\ARMCompilerV621\\Bin\\..\\include\\libcxx" "wchar.h"
	.file	41 "D:\\Embed\\MDK\\MDK\\ARM\\ARMCompilerV621\\Bin\\..\\include" "stdio.h"
	.file	42 "D:\\Embed\\MDK\\MDK\\ARM\\ARMCompilerV621\\Bin\\..\\include\\libcxx" "cstdio"
	.file	43 "D:\\Embed\\MDK\\MDK\\ARM\\ARMCompilerV621\\Bin\\..\\include" "locale.h"
	.file	44 "D:\\Embed\\MDK\\MDK\\ARM\\ARMCompilerV621\\Bin\\..\\include\\libcxx" "clocale"
	.file	45 "D:\\Embed\\MDK\\MDK\\ARM\\ARMCompilerV621\\Bin\\..\\include" "stdarg.h"
	.file	46 "D:\\Embed\\MDK\\MDK\\ARM\\ARMCompilerV621\\Bin\\..\\include\\libcxx" "cstdarg"
	.file	47 "<stdin>"