	.text
	.syntax unified
	.eabi_attribute	67, "2.09"	@ Tag_conformance
	.cpu	cortex-m4
	.eabi_attribute	6, 13	@ Tag_CPU_arch
	.eabi_attribute	7, 77	@ Tag_CPU_arch_profile
	.eabi_attribute	8, 0	@ Tag_ARM_ISA_use
	.eabi_attribute	9, 2	@ Tag_THUMB_ISA_use
	.fpu	fpv4-sp-d16
	.eabi_attribute	27, 1	@ Tag_ABI_HardFP_use
	.eabi_attribute	36, 1	@ Tag_FP_HP_extension
	.eabi_attribute	34, 1	@ Tag_CPU_unaligned_access
	.eabi_attribute	17, 1	@ Tag_ABI_PCS_GOT_use
	.eabi_attribute	20, 2	@ Tag_ABI_FP_denormal
	.eabi_attribute	21, 0	@ Tag_ABI_FP_exceptions
	.eabi_attribute	23, 1	@ Tag_ABI_FP_number_model
	.eabi_attribute	24, 1	@ Tag_ABI_align_needed
	.eabi_attribute	25, 1	@ Tag_ABI_align_preserved
	.eabi_attribute	28, 1	@ Tag_ABI_VFP_args
	.eabi_attribute	38, 1	@ Tag_ABI_FP_16bit_format
	.eabi_attribute	18, 2	@ Tag_ABI_PCS_wchar_t
	.eabi_attribute	26, 1	@ Tag_ABI_enum_size
	.eabi_attribute	14, 0	@ Tag_ABI_PCS_R9_use
	.file	"axis.cpp"
	.file	1 "D:\\ikingtec\\Robot\\ODrive\\Firmware\\MDK-ARM" "../../Firmware\\MotorControl/utils.hpp"
	.file	2 "D:\\ikingtec\\Robot\\ODrive\\Firmware\\MDK-ARM" "../MotorControl/axis.cpp"
	.file	3 "D:\\Embed\\MDK\\MDK\\ARM\\ARMCompilerV621\\Bin\\..\\include\\libcxx\\__utility" "in_place.h"
	.file	4 "D:\\ikingtec\\Robot\\ODrive\\Firmware\\MDK-ARM" "../Board/v3/Inc\\board.h"
	.file	5 "D:\\Embed\\MDK\\MDK\\ARM\\ARMCompilerV621\\Bin\\..\\include\\libcxx" "optional"
	.file	6 "D:\\Embed\\MDK\\MDK\\ARM\\ARMCompilerV621\\Bin\\..\\include\\libcxx" "variant"
	.file	7 "D:\\Embed\\MDK\\MDK\\ARM\\ARMCompilerV621\\Bin\\..\\include" "time.h"
	.file	8 "D:\\Embed\\MDK\\MDK\\ARM\\ARMCompilerV621\\Bin\\..\\include\\libcxx\\__functional" "function.h"
	.file	9 "D:\\ikingtec\\Robot\\ODrive\\Firmware\\MDK-ARM" "../ThirdParty/FreeRTOS/Source/CMSIS_RTOS\\cmsis_os.h"
	.file	10 "D:\\ikingtec\\Robot\\ODrive\\Firmware\\MDK-ARM" "../../Firmware\\autogen/interfaces.hpp"
	.file	11 "D:\\Embed\\MDK\\MDK\\ARM\\ARMCompilerV621\\Bin\\..\\include\\libcxx" "limits"
	.file	12 "D:\\Embed\\MDK\\MDK\\ARM\\ARMCompilerV621\\Bin\\..\\include" "string.h"
	.file	13 "D:\\Embed\\MDK\\MDK\\ARM\\ARMCompilerV621\\Bin\\..\\include\\libcxx\\__string" "constexpr_c_functions.h"
	.file	14 "D:\\ikingtec\\Robot\\ODrive\\Firmware\\MDK-ARM" "../MotorControl\\axis.hpp"
	.file	15 "D:\\Embed\\MDK\\MDK\\ARM\\ARMCompilerV621\\Bin\\..\\include" "stdint.h"
	.file	16 "D:\\ikingtec\\Robot\\ODrive\\Firmware\\MDK-ARM" "../MotorControl\\sensorless_estimator.hpp"
	.file	17 "D:\\ikingtec\\Robot\\ODrive\\Firmware\\MDK-ARM" "../../Firmware\\MotorControl/component.hpp"
	.file	18 "D:\\Embed\\MDK\\MDK\\ARM\\ARMCompilerV621\\Bin\\..\\include\\libcxx\\__tuple" "sfinae_helpers.h"
	.file	19 "D:\\Embed\\MDK\\MDK\\ARM\\ARMCompilerV621\\Bin\\..\\include\\libcxx\\__type_traits" "add_pointer.h"
	.file	20 "D:\\ikingtec\\Robot\\ODrive\\Firmware\\MDK-ARM" "../MotorControl\\trapTraj.hpp"
	.file	21 "D:\\ikingtec\\Robot\\ODrive\\Firmware\\MDK-ARM" "../MotorControl\\endstop.hpp"
	.file	22 "D:\\ikingtec\\Robot\\ODrive\\Firmware\\MDK-ARM" "../MotorControl/timer.hpp"
	.file	23 "D:\\ikingtec\\Robot\\ODrive\\Firmware\\MDK-ARM" "../MotorControl\\task_timer.hpp"
	.file	24 "D:\\ikingtec\\Robot\\ODrive\\Firmware\\MDK-ARM" "../ThirdParty/FreeRTOS/Source/include\\task.h"
	.file	25 "D:\\ikingtec\\Robot\\ODrive\\Firmware\\MDK-ARM" "../../Firmware\\Drivers/STM32/stm32_gpio.hpp"
	.file	26 "D:\\ikingtec\\Robot\\ODrive\\Firmware\\MDK-ARM" "../ThirdParty/CMSIS/Device/ST/STM32F4xx/Include/stm32f405xx.h"
	.file	27 "D:\\Embed\\MDK\\MDK\\ARM\\ARMCompilerV621\\Bin\\..\\include\\libcxx" "array"
	.file	28 "D:\\Embed\\MDK\\MDK\\ARM\\ARMCompilerV621\\Bin\\..\\include\\libcxx\\__functional" "unary_function.h"
	.file	29 "D:\\Embed\\MDK\\MDK\\ARM\\ARMCompilerV621\\Bin\\..\\include\\libcxx" "stddef.h"
	.file	30 "D:\\Embed\\MDK\\MDK\\ARM\\ARMCompilerV621\\Bin\\..\\include\\libcxx\\__type_traits" "underlying_type.h"
	.file	31 "D:\\Embed\\MDK\\MDK\\ARM\\ARMCompilerV621\\Bin\\..\\include\\libcxx\\__type_traits" "integral_constant.h"
	.file	32 "D:\\Embed\\MDK\\MDK\\ARM\\ARMCompilerV621\\Bin\\..\\include\\libcxx\\__iterator" "iterator_traits.h"
	.file	33 "D:\\Embed\\MDK\\MDK\\ARM\\ARMCompilerV621\\Bin\\..\\include" "stddef.h"
	.file	34 "D:\\Embed\\MDK\\MDK\\ARM\\ARMCompilerV621\\Bin\\..\\include\\libcxx\\__iterator" "advance.h"
	.file	35 "D:\\ikingtec\\Robot\\ODrive\\Firmware\\MDK-ARM" "../MotorControl/acim_estimator.hpp"
	.file	36 "D:\\Embed\\MDK\\MDK\\ARM\\ARMCompilerV621\\Bin\\..\\include\\libcxx\\__utility" "pair.h"
	.file	37 "D:\\ikingtec\\Robot\\ODrive\\Firmware\\MDK-ARM" "../../Firmware\\Drivers/STM32/stm32_system.h"
	.file	38 "D:\\Embed\\MDK\\MDK\\ARM\\ARMCompilerV621\\Bin\\..\\include\\libcxx\\__type_traits" "datasizeof.h"
	.section	.text._ZN4AxisC2Eitt10osPriorityR7EncoderR19SensorlessEstimatorR10ControllerR5MotorR21TrapezoidalTrajectoryR7EndstopSC_R15MechanicalBrake,"ax",%progbits
	.hidden	_ZN4AxisC2Eitt10osPriorityR7EncoderR19SensorlessEstimatorR10ControllerR5MotorR21TrapezoidalTrajectoryR7EndstopSC_R15MechanicalBrake @ -- Begin function _ZN4AxisC2Eitt10osPriorityR7EncoderR19SensorlessEstimatorR10ControllerR5MotorR21TrapezoidalTrajectoryR7EndstopSC_R15MechanicalBrake
	.globl	_ZN4AxisC2Eitt10osPriorityR7EncoderR19SensorlessEstimatorR10ControllerR5MotorR21TrapezoidalTrajectoryR7EndstopSC_R15MechanicalBrake
	.p2align	2
	.type	_ZN4AxisC2Eitt10osPriorityR7EncoderR19SensorlessEstimatorR10ControllerR5MotorR21TrapezoidalTrajectoryR7EndstopSC_R15MechanicalBrake,%function
	.code	16                              @ @_ZN4AxisC2Eitt10osPriorityR7EncoderR19SensorlessEstimatorR10ControllerR5MotorR21TrapezoidalTrajectoryR7EndstopSC_R15MechanicalBrake
	.thumb_func
_ZN4AxisC2Eitt10osPriorityR7EncoderR19SensorlessEstimatorR10ControllerR5MotorR21TrapezoidalTrajectoryR7EndstopSC_R15MechanicalBrake:
.Lfunc_begin0:
	.loc	2 34 0                          @ ../MotorControl/axis.cpp:34:0
	.fnstart
	.cfi_sections .debug_frame
	.cfi_startproc
@ %bb.0:
	.save	{r7, lr}
	push	{r7, lr}
	.cfi_def_cfa_offset 8
	.cfi_offset lr, -4
	.cfi_offset r7, -8
	.pad	#40
	sub	sp, #40
	.cfi_def_cfa_offset 48
	mov	r12, r0
	ldr	r0, [sp, #80]
	ldr	r0, [sp, #76]
	ldr	r0, [sp, #72]
	ldr	r0, [sp, #68]
	ldr	r0, [sp, #64]
	ldr	r0, [sp, #60]
	ldr	r0, [sp, #56]
	ldr	r0, [sp, #52]
	ldr	r0, [sp, #48]
                                        @ kill: def $lr killed $r3
                                        @ kill: def $lr killed $r2
	str.w	r12, [sp, #32]
	str	r1, [sp, #28]
	strh.w	r2, [sp, #26]
	strh.w	r3, [sp, #24]
	strh.w	r0, [sp, #22]
	ldr	r0, [sp, #32]
	str	r0, [sp, #8]                    @ 4-byte Spill
	str	r0, [sp, #36]
.Ltmp0:
	.loc	2 10 7 prologue_end             @ ../MotorControl/axis.cpp:10:7
	bl	_ZN10ODriveIntf8AxisIntfC2Ev
	ldr	r0, [sp, #8]                    @ 4-byte Reload
	.loc	2 34 1                          @ ../MotorControl/axis.cpp:34:1
	movw	r1, :lower16:_ZTV4Axis
	movt	r1, :upper16:_ZTV4Axis
	adds	r1, #8
	str	r1, [r0]
	.loc	2 22 17                         @ ../MotorControl/axis.cpp:22:17
	ldr	r1, [sp, #28]
	.loc	2 22 7 is_stmt 0                @ ../MotorControl/axis.cpp:22:7
	str	r1, [r0, #4]
	.loc	2 23 30 is_stmt 1               @ ../MotorControl/axis.cpp:23:30
	ldrh.w	r1, [sp, #26]
	.loc	2 23 7 is_stmt 0                @ ../MotorControl/axis.cpp:23:7
	strh	r1, [r0, #8]
	.loc	2 24 29 is_stmt 1               @ ../MotorControl/axis.cpp:24:29
	ldrh.w	r1, [sp, #24]
	.loc	2 24 7 is_stmt 0                @ ../MotorControl/axis.cpp:24:7
	strh	r1, [r0, #10]
	.loc	2 25 24 is_stmt 1               @ ../MotorControl/axis.cpp:25:24
	ldrh.w	r1, [sp, #22]
	.loc	2 25 7 is_stmt 0                @ ../MotorControl/axis.cpp:25:7
	strh	r1, [r0, #12]
	.loc	2 10 7 is_stmt 1                @ ../MotorControl/axis.cpp:10:7
	adds	r0, #16
	bl	_ZN4Axis8Config_tC2Ev
	ldr	r0, [sp, #8]                    @ 4-byte Reload
	.loc	2 26 16                         @ ../MotorControl/axis.cpp:26:16
	ldr	r1, [sp, #52]
	.loc	2 26 7 is_stmt 0                @ ../MotorControl/axis.cpp:26:7
	str.w	r1, [r0, #172]
	.loc	2 10 7 is_stmt 1                @ ../MotorControl/axis.cpp:10:7
	adds	r0, #176
	bl	_ZN13AcimEstimatorC2Ev
	ldr	r0, [sp, #8]                    @ 4-byte Reload
	.loc	2 27 29                         @ ../MotorControl/axis.cpp:27:29
	ldr	r1, [sp, #56]
	.loc	2 27 7 is_stmt 0                @ ../MotorControl/axis.cpp:27:7
	str.w	r1, [r0, #252]
	.loc	2 28 19 is_stmt 1               @ ../MotorControl/axis.cpp:28:19
	ldr	r1, [sp, #60]
	.loc	2 28 7 is_stmt 0                @ ../MotorControl/axis.cpp:28:7
	str.w	r1, [r0, #256]
	.loc	2 10 7 is_stmt 1                @ ../MotorControl/axis.cpp:10:7
	add.w	r0, r0, #260
	bl	_ZN18OpenLoopControllerC2Ev
	ldr	r0, [sp, #8]                    @ 4-byte Reload
	.loc	2 29 14                         @ ../MotorControl/axis.cpp:29:14
	ldr	r1, [sp, #64]
	.loc	2 29 7 is_stmt 0                @ ../MotorControl/axis.cpp:29:7
	str.w	r1, [r0, #344]
	.loc	2 30 18 is_stmt 1               @ ../MotorControl/axis.cpp:30:18
	ldr	r1, [sp, #68]
	.loc	2 30 7 is_stmt 0                @ ../MotorControl/axis.cpp:30:7
	str.w	r1, [r0, #348]
	.loc	2 31 20 is_stmt 1               @ ../MotorControl/axis.cpp:31:20
	ldr	r1, [sp, #72]
	.loc	2 31 7 is_stmt 0                @ ../MotorControl/axis.cpp:31:7
	str.w	r1, [r0, #352]
	.loc	2 32 20 is_stmt 1               @ ../MotorControl/axis.cpp:32:20
	ldr	r1, [sp, #76]
	.loc	2 32 7 is_stmt 0                @ ../MotorControl/axis.cpp:32:7
	str.w	r1, [r0, #356]
	.loc	2 33 25 is_stmt 1               @ ../MotorControl/axis.cpp:33:25
	ldr	r1, [sp, #80]
	.loc	2 33 7 is_stmt 0                @ ../MotorControl/axis.cpp:33:7
	str.w	r1, [r0, #360]
	.loc	2 10 7 is_stmt 1                @ ../MotorControl/axis.cpp:10:7
	add.w	r0, r0, #364
	bl	_ZN4Axis9TaskTimesC2Ev
	ldr	r0, [sp, #8]                    @ 4-byte Reload
	movs	r1, #0
	.loc	14 193 16                       @ ../MotorControl\axis.hpp:193:16
	str	r1, [sp, #4]                    @ 4-byte Spill
	str.w	r1, [r0, #576]
	mov.w	r2, #2048
	.loc	14 194 20                       @ ../MotorControl\axis.hpp:194:20
	str.w	r2, [r0, #580]
	.loc	14 195 19                       @ ../MotorControl\axis.hpp:195:19
	strb.w	r1, [r0, #584]
	.loc	14 198 11                       @ ../MotorControl\axis.hpp:198:11
	str.w	r1, [r0, #588]
	.loc	14 199 10                       @ ../MotorControl\axis.hpp:199:10
	strb.w	r1, [r0, #592]
	.loc	14 200 13                       @ ../MotorControl\axis.hpp:200:13
	str.w	r1, [r0, #604]
	str.w	r1, [r0, #600]
	.loc	14 201 14                       @ ../MotorControl\axis.hpp:201:14
	str.w	r1, [r0, #608]
	.loc	2 10 7                          @ ../MotorControl/axis.cpp:10:7
	add.w	r0, r0, #612
	bl	_ZN9Stm32GpioC2Ev
	ldr	r0, [sp, #8]                    @ 4-byte Reload
	add.w	r0, r0, #620
	bl	_ZN9Stm32GpioC2Ev
	ldr	r0, [sp, #4]                    @ 4-byte Reload
	ldr	r1, [sp, #8]                    @ 4-byte Reload
	movs	r2, #2
	.loc	14 207 15                       @ ../MotorControl\axis.hpp:207:15
	strb.w	r2, [r1, #628]
	.loc	14 208 47                       @ ../MotorControl\axis.hpp:208:47
	strb.w	r0, [r1, #629]
	addw	r0, r1, #630
	addw	r1, r1, #639
	str	r1, [sp, #12]                   @ 4-byte Spill
	str	r0, [sp, #16]                   @ 4-byte Spill
	b	.LBB0_1
.LBB0_1:                                @ =>This Inner Loop Header: Depth=1
	ldr	r1, [sp, #16]                   @ 4-byte Reload
	ldr	r2, [sp, #12]                   @ 4-byte Reload
	movs	r0, #0
	strb	r0, [r1], #1
	mov	r0, r1
	cmp	r1, r2
	str	r0, [sp, #16]                   @ 4-byte Spill
	bne	.LBB0_1
	b	.LBB0_2
.LBB0_2:
	.loc	14 209 33                       @ ../MotorControl\axis.hpp:209:33
	ldr	r0, [sp, #8]                    @ 4-byte Reload
	addw	r0, r0, #629
	.loc	14 209 45 is_stmt 0             @ ../MotorControl\axis.hpp:209:45
	bl	_ZNSt3__25arrayIN10ODriveIntf8AxisIntf9AxisStateELj10EE5frontB7v180000Ev
	mov	r1, r0
	.loc	14 209 16                       @ ../MotorControl\axis.hpp:209:16
	ldr	r0, [sp, #8]                    @ 4-byte Reload
	str.w	r1, [r0, #640]
	.loc	2 10 7 is_stmt 1                @ ../MotorControl/axis.cpp:10:7
	add.w	r0, r0, #644
	bl	_ZN4Axis8Homing_tC2Ev
	ldr	r0, [sp, #8]                    @ 4-byte Reload
	add.w	r0, r0, #648
	bl	_ZN4Axis5CAN_tC2Ev
	ldr	r0, [sp, #8]                    @ 4-byte Reload
	movs	r1, #0
	.loc	14 215 14                       @ ../MotorControl\axis.hpp:215:14
	str.w	r1, [r0, #688]
.Ltmp1:
	.loc	2 35 5                          @ ../MotorControl/axis.cpp:35:5
	ldr.w	r1, [r0, #172]
	.loc	2 35 20 is_stmt 0               @ ../MotorControl/axis.cpp:35:20
	str	r0, [r1, #48]
	.loc	2 36 5 is_stmt 1                @ ../MotorControl/axis.cpp:36:5
	ldr.w	r1, [r0, #252]
	.loc	2 36 33 is_stmt 0               @ ../MotorControl/axis.cpp:36:33
	str	r0, [r1]
	.loc	2 37 5 is_stmt 1                @ ../MotorControl/axis.cpp:37:5
	ldr.w	r1, [r0, #256]
	movw	r2, #14564
	.loc	2 37 23 is_stmt 0               @ ../MotorControl/axis.cpp:37:23
	str	r0, [r1, r2]
	.loc	2 38 5 is_stmt 1                @ ../MotorControl/axis.cpp:38:5
	ldr.w	r1, [r0, #344]
	.loc	2 38 18 is_stmt 0               @ ../MotorControl/axis.cpp:38:18
	str.w	r0, [r1, #136]
	.loc	2 39 5 is_stmt 1                @ ../MotorControl/axis.cpp:39:5
	ldr.w	r1, [r0, #348]
	.loc	2 39 22 is_stmt 0               @ ../MotorControl/axis.cpp:39:22
	str	r0, [r1]
	.loc	2 40 5 is_stmt 1                @ ../MotorControl/axis.cpp:40:5
	ldr.w	r1, [r0, #352]
	.loc	2 40 24 is_stmt 0               @ ../MotorControl/axis.cpp:40:24
	str	r0, [r1, #16]
	.loc	2 41 5 is_stmt 1                @ ../MotorControl/axis.cpp:41:5
	ldr.w	r1, [r0, #356]
	.loc	2 41 24 is_stmt 0               @ ../MotorControl/axis.cpp:41:24
	str	r0, [r1, #16]
	.loc	2 42 5 is_stmt 1                @ ../MotorControl/axis.cpp:42:5
	ldr.w	r1, [r0, #360]
	.loc	2 42 29 is_stmt 0               @ ../MotorControl/axis.cpp:42:29
	str	r0, [r1, #12]
.Ltmp2:
	.loc	2 43 1 is_stmt 1                @ ../MotorControl/axis.cpp:43:1
	ldr	r0, [sp, #36]
	.loc	2 43 1 epilogue_begin is_stmt 0 @ ../MotorControl/axis.cpp:43:1
	add	sp, #40
	pop	{r7, pc}
.Ltmp3:
.Lfunc_end0:
	.size	_ZN4AxisC2Eitt10osPriorityR7EncoderR19SensorlessEstimatorR10ControllerR5MotorR21TrapezoidalTrajectoryR7EndstopSC_R15MechanicalBrake, .Lfunc_end0-_ZN4AxisC2Eitt10osPriorityR7EncoderR19SensorlessEstimatorR10ControllerR5MotorR21TrapezoidalTrajectoryR7EndstopSC_R15MechanicalBrake
	.cfi_endproc
	.cantunwind
	.fnend
                                        @ -- End function
	.section	.text._ZN10ODriveIntf8AxisIntfC2Ev,"axG",%progbits,_ZN10ODriveIntf8AxisIntfC2Ev,comdat
	.hidden	_ZN10ODriveIntf8AxisIntfC2Ev    @ -- Begin function _ZN10ODriveIntf8AxisIntfC2Ev
	.weak	_ZN10ODriveIntf8AxisIntfC2Ev
	.p2align	2
	.type	_ZN10ODriveIntf8AxisIntfC2Ev,%function
	.code	16                              @ @_ZN10ODriveIntf8AxisIntfC2Ev
	.thumb_func
_ZN10ODriveIntf8AxisIntfC2Ev:
.Lfunc_begin1:
	.loc	10 109 0 is_stmt 1              @ ../../Firmware\autogen/interfaces.hpp:109:0
	.fnstart
	.cfi_startproc
@ %bb.0:
	.pad	#4
	sub	sp, #4
	.cfi_def_cfa_offset 4
	str	r0, [sp]
	ldr	r0, [sp]
.Ltmp4:
	.loc	10 109 11 prologue_end          @ ../../Firmware\autogen/interfaces.hpp:109:11
	movw	r1, :lower16:_ZTVN10ODriveIntf8AxisIntfE
	movt	r1, :upper16:_ZTVN10ODriveIntf8AxisIntfE
	adds	r1, #8
	str	r1, [r0]
	.loc	10 109 11 epilogue_begin is_stmt 0 @ ../../Firmware\autogen/interfaces.hpp:109:11
	add	sp, #4
	bx	lr
.Ltmp5:
.Lfunc_end1:
	.size	_ZN10ODriveIntf8AxisIntfC2Ev, .Lfunc_end1-_ZN10ODriveIntf8AxisIntfC2Ev
	.cfi_endproc
	.cantunwind
	.fnend
                                        @ -- End function
	.section	.text._ZN4Axis8Config_tC2Ev,"axG",%progbits,_ZN4Axis8Config_tC2Ev,comdat
	.hidden	_ZN4Axis8Config_tC2Ev           @ -- Begin function _ZN4Axis8Config_tC2Ev
	.weak	_ZN4Axis8Config_tC2Ev
	.p2align	2
	.type	_ZN4Axis8Config_tC2Ev,%function
	.code	16                              @ @_ZN4Axis8Config_tC2Ev
	.thumb_func
_ZN4Axis8Config_tC2Ev:
.Lfunc_begin2:
	.loc	14 69 0 is_stmt 1               @ ../MotorControl\axis.hpp:69:0
	.fnstart
	.cfi_startproc
@ %bb.0:
	.save	{r7, lr}
	push	{r7, lr}
	.cfi_def_cfa_offset 8
	.cfi_offset lr, -4
	.cfi_offset r7, -8
	.pad	#16
	sub	sp, #16
	.cfi_def_cfa_offset 24
	str	r0, [sp, #12]
	ldr	r0, [sp, #12]
	str	r0, [sp, #4]                    @ 4-byte Spill
	movs	r1, #0
.Ltmp6:
	.loc	14 70 14 prologue_end           @ ../MotorControl\axis.hpp:70:14
	str	r1, [sp, #8]                    @ 4-byte Spill
	strb	r1, [r0]
	.loc	14 71 14                        @ ../MotorControl\axis.hpp:71:14
	strb	r1, [r0, #1]
	.loc	14 73 14                        @ ../MotorControl\axis.hpp:73:14
	strb	r1, [r0, #2]
	.loc	14 74 14                        @ ../MotorControl\axis.hpp:74:14
	strb	r1, [r0, #3]
	.loc	14 75 14                        @ ../MotorControl\axis.hpp:75:14
	strb	r1, [r0, #4]
	.loc	14 77 14                        @ ../MotorControl\axis.hpp:77:14
	strb	r1, [r0, #5]
	.loc	14 79 14                        @ ../MotorControl\axis.hpp:79:14
	strb	r1, [r0, #6]
	.loc	14 84 14                        @ ../MotorControl\axis.hpp:84:14
	strb	r1, [r0, #7]
	.loc	14 86 15                        @ ../MotorControl\axis.hpp:86:15
	str	r1, [r0, #8]
	.loc	14 87 14                        @ ../MotorControl\axis.hpp:87:14
	strb	r1, [r0, #12]
	.loc	14 90 18                        @ ../MotorControl\axis.hpp:90:18
	strh	r1, [r0, #14]
	.loc	14 91 18                        @ ../MotorControl\axis.hpp:91:18
	strh	r1, [r0, #16]
	.loc	14 93 24                        @ ../MotorControl\axis.hpp:93:24
	adds	r0, #20
	.loc	14 93 45 is_stmt 0              @ ../MotorControl\axis.hpp:93:45
	bl	_ZN4Axis19default_calibrationEv
	ldr	r0, [sp, #4]                    @ 4-byte Reload
	.loc	14 94 24 is_stmt 1              @ ../MotorControl\axis.hpp:94:24
	adds	r0, #48
	.loc	14 94 42 is_stmt 0              @ ../MotorControl\axis.hpp:94:42
	bl	_ZN4Axis18default_sensorlessEv
	ldr	r0, [sp, #4]                    @ 4-byte Reload
	.loc	14 69 12 is_stmt 1              @ ../MotorControl\axis.hpp:69:12
	adds	r0, #76
	bl	_ZN4Axis14LockinConfig_tC2Ev
	ldr	r0, [sp, #4]                    @ 4-byte Reload
	adds	r0, #104
	bl	_ZN4Axis11CANConfig_tC2Ev
	ldr	r0, [sp, #4]                    @ 4-byte Reload
	ldr	r1, [sp, #8]                    @ 4-byte Reload
	.loc	14 100 15                       @ ../MotorControl\axis.hpp:100:15
	str.w	r1, [r0, #152]
	.loc	14 69 12 epilogue_begin         @ ../MotorControl\axis.hpp:69:12
	add	sp, #16
	pop	{r7, pc}
.Ltmp7:
.Lfunc_end2:
	.size	_ZN4Axis8Config_tC2Ev, .Lfunc_end2-_ZN4Axis8Config_tC2Ev
	.cfi_endproc
	.cantunwind
	.fnend
                                        @ -- End function
	.section	.text._ZN13AcimEstimatorC2Ev,"axG",%progbits,_ZN13AcimEstimatorC2Ev,comdat
	.hidden	_ZN13AcimEstimatorC2Ev          @ -- Begin function _ZN13AcimEstimatorC2Ev
	.weak	_ZN13AcimEstimatorC2Ev
	.p2align	2
	.type	_ZN13AcimEstimatorC2Ev,%function
	.code	16                              @ @_ZN13AcimEstimatorC2Ev
	.thumb_func
_ZN13AcimEstimatorC2Ev:
.Lfunc_begin3:
	.loc	35 8 0                          @ ../MotorControl/acim_estimator.hpp:8:0
	.fnstart
	.cfi_startproc
@ %bb.0:
	.save	{r7, lr}
	push	{r7, lr}
	.cfi_def_cfa_offset 8
	.cfi_offset lr, -4
	.cfi_offset r7, -8
	.pad	#16
	sub	sp, #16
	.cfi_def_cfa_offset 24
	str	r0, [sp, #12]
	ldr	r0, [sp, #12]
.Ltmp8:
	.loc	35 8 7 prologue_end             @ ../MotorControl/acim_estimator.hpp:8:7
	str	r0, [sp, #8]                    @ 4-byte Spill
	bl	_ZN13ComponentBaseC2Ev
	ldr	r0, [sp, #8]                    @ 4-byte Reload
	movw	r1, :lower16:_ZTV13AcimEstimator
	movt	r1, :upper16:_ZTV13AcimEstimator
	adds	r1, #8
	str	r1, [r0]
	adds	r0, #4
	bl	_ZN13AcimEstimator8Config_tC2Ev
	ldr	r0, [sp, #8]                    @ 4-byte Reload
	adds	r0, #8
	bl	_ZN9InputPortIfEC2Ev
	ldr	r0, [sp, #8]                    @ 4-byte Reload
	adds	r0, #16
	bl	_ZN9InputPortIfEC2Ev
	ldr	r0, [sp, #8]                    @ 4-byte Reload
	adds	r0, #24
	bl	_ZN9InputPortINSt3__24pairIffEEEC2Ev
	ldr	r0, [sp, #8]                    @ 4-byte Reload
	movs	r1, #0
	.loc	35 25 10                        @ ../MotorControl/acim_estimator.hpp:25:10
	strb.w	r1, [r0, #36]
	.loc	35 26 14                        @ ../MotorControl/acim_estimator.hpp:26:14
	str	r1, [r0, #40]
	.loc	35 27 11                        @ ../MotorControl/acim_estimator.hpp:27:11
	str	r1, [r0, #44]
	.loc	35 28 11                        @ ../MotorControl/acim_estimator.hpp:28:11
	str	r1, [r0, #48]
	.loc	35 31 23                        @ ../MotorControl/acim_estimator.hpp:31:23
	adds	r0, #52
	vldr	s0, .LCPI3_0
	vstr	s0, [sp, #4]                    @ 4-byte Spill
	.loc	35 31 35 is_stmt 0              @ ../MotorControl/acim_estimator.hpp:31:35
	bl	_ZN10OutputPortIfEC2Ef
	ldr	r0, [sp, #8]                    @ 4-byte Reload
	vldr	s0, [sp, #4]                    @ 4-byte Reload
	.loc	35 32 23 is_stmt 1              @ ../MotorControl/acim_estimator.hpp:32:23
	adds	r0, #60
	.loc	35 32 43 is_stmt 0              @ ../MotorControl/acim_estimator.hpp:32:43
	bl	_ZN10OutputPortIfEC2Ef
	ldr	r0, [sp, #8]                    @ 4-byte Reload
	vldr	s0, [sp, #4]                    @ 4-byte Reload
	.loc	35 33 23 is_stmt 1              @ ../MotorControl/acim_estimator.hpp:33:23
	adds	r0, #68
	.loc	35 33 39 is_stmt 0              @ ../MotorControl/acim_estimator.hpp:33:39
	bl	_ZN10OutputPortIfEC2Ef
	ldr	r0, [sp, #8]                    @ 4-byte Reload
	.loc	35 8 7 epilogue_begin is_stmt 1 @ ../MotorControl/acim_estimator.hpp:8:7
	add	sp, #16
	pop	{r7, pc}
.Ltmp9:
	.p2align	2
@ %bb.1:
	.loc	35 0 7 is_stmt 0                @ ../MotorControl/acim_estimator.hpp:0:7
.LCPI3_0:
	.long	0x00000000                      @ float 0
.Lfunc_end3:
	.size	_ZN13AcimEstimatorC2Ev, .Lfunc_end3-_ZN13AcimEstimatorC2Ev
	.cfi_endproc
	.cantunwind
	.fnend
                                        @ -- End function
	.section	.text._ZN18OpenLoopControllerC2Ev,"axG",%progbits,_ZN18OpenLoopControllerC2Ev,comdat
	.hidden	_ZN18OpenLoopControllerC2Ev     @ -- Begin function _ZN18OpenLoopControllerC2Ev
	.weak	_ZN18OpenLoopControllerC2Ev
	.p2align	2
	.type	_ZN18OpenLoopControllerC2Ev,%function
	.code	16                              @ @_ZN18OpenLoopControllerC2Ev
	.thumb_func
_ZN18OpenLoopControllerC2Ev:
.Lfunc_begin4:
	.file	39 "D:\\ikingtec\\Robot\\ODrive\\Firmware\\MDK-ARM" "../MotorControl/open_loop_controller.hpp"
	.loc	39 8 0 is_stmt 1                @ ../MotorControl/open_loop_controller.hpp:8:0
	.fnstart
	.cfi_startproc
@ %bb.0:
	.save	{r7, lr}
	push	{r7, lr}
	.cfi_def_cfa_offset 8
	.cfi_offset lr, -4
	.cfi_offset r7, -8
	.pad	#56
	sub	sp, #56
	.cfi_def_cfa_offset 64
	str	r0, [sp, #52]
	ldr	r0, [sp, #52]
.Ltmp10:
	.loc	39 8 7 prologue_end             @ ../MotorControl/open_loop_controller.hpp:8:7
	str	r0, [sp, #16]                   @ 4-byte Spill
	bl	_ZN13ComponentBaseC2Ev
	ldr	r1, [sp, #16]                   @ 4-byte Reload
	movw	r0, :lower16:_ZTV18OpenLoopController
	movt	r0, :upper16:_ZTV18OpenLoopController
	adds	r0, #8
	str	r0, [r1]
	mov.w	r0, #2139095040
	.loc	39 13 11                        @ ../MotorControl/open_loop_controller.hpp:13:11
	str	r0, [r1, #4]
	.loc	39 14 11                        @ ../MotorControl/open_loop_controller.hpp:14:11
	str	r0, [r1, #8]
	.loc	39 15 11                        @ ../MotorControl/open_loop_controller.hpp:15:11
	str	r0, [r1, #12]
	movs	r0, #0
	.loc	39 18 11                        @ ../MotorControl/open_loop_controller.hpp:18:11
	str	r0, [sp, #4]                    @ 4-byte Spill
	str	r0, [r1, #16]
	.loc	39 19 11                        @ ../MotorControl/open_loop_controller.hpp:19:11
	str	r0, [r1, #20]
	.loc	39 20 11                        @ ../MotorControl/open_loop_controller.hpp:20:11
	str	r0, [r1, #24]
	.loc	39 21 11                        @ ../MotorControl/open_loop_controller.hpp:21:11
	str	r0, [r1, #28]
	.loc	39 24 14                        @ ../MotorControl/open_loop_controller.hpp:24:14
	str	r0, [r1, #32]
	.loc	39 25 25                        @ ../MotorControl/open_loop_controller.hpp:25:25
	adds	r1, #36
	.loc	39 25 43 is_stmt 0              @ ../MotorControl/open_loop_controller.hpp:25:43
	str	r1, [sp]                        @ 4-byte Spill
	str	r0, [sp, #40]
	.loc	39 25 49                        @ ../MotorControl/open_loop_controller.hpp:25:49
	str	r0, [sp, #36]
	add	r0, sp, #44
	add	r1, sp, #40
	add	r2, sp, #36
	.loc	39 25 42                        @ ../MotorControl/open_loop_controller.hpp:25:42
	bl	_ZNSt3__24pairIffEC2B7v180000IffLi0EEEOT_OT0_
	ldr	r0, [sp]                        @ 4-byte Reload
	.loc	39 25 39                        @ ../MotorControl/open_loop_controller.hpp:25:39
	vldr	s0, [sp, #44]
	vldr	s1, [sp, #48]
	bl	_ZN10OutputPortINSt3__24pairIffEEEC2ES2_
	ldr	r0, [sp, #4]                    @ 4-byte Reload
	ldr	r1, [sp, #16]                   @ 4-byte Reload
	.loc	39 26 25 is_stmt 1              @ ../MotorControl/open_loop_controller.hpp:26:25
	adds	r1, #48
	.loc	39 26 43 is_stmt 0              @ ../MotorControl/open_loop_controller.hpp:26:43
	str	r1, [sp, #8]                    @ 4-byte Spill
	str	r0, [sp, #24]
	.loc	39 26 49                        @ ../MotorControl/open_loop_controller.hpp:26:49
	str	r0, [sp, #20]
	add	r0, sp, #28
	add	r1, sp, #24
	add	r2, sp, #20
	.loc	39 26 42                        @ ../MotorControl/open_loop_controller.hpp:26:42
	bl	_ZNSt3__24pairIffEC2B7v180000IffLi0EEEOT_OT0_
	ldr	r0, [sp, #8]                    @ 4-byte Reload
	.loc	39 26 39                        @ ../MotorControl/open_loop_controller.hpp:26:39
	vldr	s0, [sp, #28]
	vldr	s1, [sp, #32]
	bl	_ZN10OutputPortINSt3__24pairIffEEEC2ES2_
	ldr	r0, [sp, #16]                   @ 4-byte Reload
	.loc	39 27 23 is_stmt 1              @ ../MotorControl/open_loop_controller.hpp:27:23
	adds	r0, #60
	vldr	s0, .LCPI4_0
	vstr	s0, [sp, #12]                   @ 4-byte Spill
	.loc	39 27 32 is_stmt 0              @ ../MotorControl/open_loop_controller.hpp:27:32
	bl	_ZN10OutputPortIfEC2Ef
	ldr	r0, [sp, #16]                   @ 4-byte Reload
	vldr	s0, [sp, #12]                   @ 4-byte Reload
	.loc	39 28 23 is_stmt 1              @ ../MotorControl/open_loop_controller.hpp:28:23
	adds	r0, #68
	.loc	39 28 36 is_stmt 0              @ ../MotorControl/open_loop_controller.hpp:28:36
	bl	_ZN10OutputPortIfEC2Ef
	ldr	r0, [sp, #16]                   @ 4-byte Reload
	vldr	s0, [sp, #12]                   @ 4-byte Reload
	.loc	39 29 23 is_stmt 1              @ ../MotorControl/open_loop_controller.hpp:29:23
	adds	r0, #76
	.loc	39 29 41 is_stmt 0              @ ../MotorControl/open_loop_controller.hpp:29:41
	bl	_ZN10OutputPortIfEC2Ef
	ldr	r0, [sp, #16]                   @ 4-byte Reload
	.loc	39 8 7 epilogue_begin is_stmt 1 @ ../MotorControl/open_loop_controller.hpp:8:7
	add	sp, #56
	pop	{r7, pc}
.Ltmp11:
	.p2align	2
@ %bb.1:
	.loc	39 0 7 is_stmt 0                @ ../MotorControl/open_loop_controller.hpp:0:7
.LCPI4_0:
	.long	0x00000000                      @ float 0
.Lfunc_end4:
	.size	_ZN18OpenLoopControllerC2Ev, .Lfunc_end4-_ZN18OpenLoopControllerC2Ev
	.cfi_endproc
	.cantunwind
	.fnend
                                        @ -- End function
	.section	.text._ZN4Axis9TaskTimesC2Ev,"axG",%progbits,_ZN4Axis9TaskTimesC2Ev,comdat
	.hidden	_ZN4Axis9TaskTimesC2Ev          @ -- Begin function _ZN4Axis9TaskTimesC2Ev
	.weak	_ZN4Axis9TaskTimesC2Ev
	.p2align	2
	.type	_ZN4Axis9TaskTimesC2Ev,%function
	.code	16                              @ @_ZN4Axis9TaskTimesC2Ev
	.thumb_func
_ZN4Axis9TaskTimesC2Ev:
.Lfunc_begin5:
	.loc	14 34 0 is_stmt 1               @ ../MotorControl\axis.hpp:34:0
	.fnstart
	.cfi_startproc
@ %bb.0:
	.save	{r7, lr}
	push	{r7, lr}
	.cfi_def_cfa_offset 8
	.cfi_offset lr, -4
	.cfi_offset r7, -8
	.pad	#8
	sub	sp, #8
	.cfi_def_cfa_offset 16
	str	r0, [sp, #4]
	ldr	r0, [sp, #4]
.Ltmp12:
	.loc	14 34 12 prologue_end           @ ../MotorControl\axis.hpp:34:12
	str	r0, [sp]                        @ 4-byte Spill
	bl	_ZN9TaskTimerC2Ev
	ldr	r0, [sp]                        @ 4-byte Reload
	adds	r0, #16
	bl	_ZN9TaskTimerC2Ev
	ldr	r0, [sp]                        @ 4-byte Reload
	adds	r0, #32
	bl	_ZN9TaskTimerC2Ev
	ldr	r0, [sp]                        @ 4-byte Reload
	adds	r0, #48
	bl	_ZN9TaskTimerC2Ev
	ldr	r0, [sp]                        @ 4-byte Reload
	adds	r0, #64
	bl	_ZN9TaskTimerC2Ev
	ldr	r0, [sp]                        @ 4-byte Reload
	adds	r0, #80
	bl	_ZN9TaskTimerC2Ev
	ldr	r0, [sp]                        @ 4-byte Reload
	adds	r0, #96
	bl	_ZN9TaskTimerC2Ev
	ldr	r0, [sp]                        @ 4-byte Reload
	adds	r0, #112
	bl	_ZN9TaskTimerC2Ev
	ldr	r0, [sp]                        @ 4-byte Reload
	adds	r0, #128
	bl	_ZN9TaskTimerC2Ev
	ldr	r0, [sp]                        @ 4-byte Reload
	adds	r0, #144
	bl	_ZN9TaskTimerC2Ev
	ldr	r0, [sp]                        @ 4-byte Reload
	adds	r0, #160
	bl	_ZN9TaskTimerC2Ev
	ldr	r0, [sp]                        @ 4-byte Reload
	adds	r0, #176
	bl	_ZN9TaskTimerC2Ev
	ldr	r0, [sp]                        @ 4-byte Reload
	adds	r0, #192
	bl	_ZN9TaskTimerC2Ev
	ldr	r0, [sp]                        @ 4-byte Reload
	.loc	14 34 12 epilogue_begin is_stmt 0 @ ../MotorControl\axis.hpp:34:12
	add	sp, #8
	pop	{r7, pc}
.Ltmp13:
.Lfunc_end5:
	.size	_ZN4Axis9TaskTimesC2Ev, .Lfunc_end5-_ZN4Axis9TaskTimesC2Ev
	.cfi_endproc
	.cantunwind
	.fnend
                                        @ -- End function
	.section	.text._ZN9Stm32GpioC2Ev,"axG",%progbits,_ZN9Stm32GpioC2Ev,comdat
	.hidden	_ZN9Stm32GpioC2Ev               @ -- Begin function _ZN9Stm32GpioC2Ev
	.weak	_ZN9Stm32GpioC2Ev
	.p2align	2
	.type	_ZN9Stm32GpioC2Ev,%function
	.code	16                              @ @_ZN9Stm32GpioC2Ev
	.thumb_func
_ZN9Stm32GpioC2Ev:
.Lfunc_begin6:
	.loc	25 10 0 is_stmt 1               @ ../../Firmware\Drivers/STM32/stm32_gpio.hpp:10:0
	.fnstart
	.cfi_startproc
@ %bb.0:
	.pad	#4
	sub	sp, #4
	.cfi_def_cfa_offset 4
	str	r0, [sp]
	ldr	r0, [sp]
	movs	r1, #0
.Ltmp14:
	.loc	25 10 19 prologue_end           @ ../../Firmware\Drivers/STM32/stm32_gpio.hpp:10:19
	str	r1, [r0]
	.loc	25 10 35 is_stmt 0              @ ../../Firmware\Drivers/STM32/stm32_gpio.hpp:10:35
	strh	r1, [r0, #4]
	.loc	25 10 49 epilogue_begin         @ ../../Firmware\Drivers/STM32/stm32_gpio.hpp:10:49
	add	sp, #4
	bx	lr
.Ltmp15:
.Lfunc_end6:
	.size	_ZN9Stm32GpioC2Ev, .Lfunc_end6-_ZN9Stm32GpioC2Ev
	.cfi_endproc
	.cantunwind
	.fnend
                                        @ -- End function
	.section	.text._ZNSt3__25arrayIN10ODriveIntf8AxisIntf9AxisStateELj10EE5frontB7v180000Ev,"axG",%progbits,_ZNSt3__25arrayIN10ODriveIntf8AxisIntf9AxisStateELj10EE5frontB7v180000Ev,comdat
	.hidden	_ZNSt3__25arrayIN10ODriveIntf8AxisIntf9AxisStateELj10EE5frontB7v180000Ev @ -- Begin function _ZNSt3__25arrayIN10ODriveIntf8AxisIntf9AxisStateELj10EE5frontB7v180000Ev
	.weak	_ZNSt3__25arrayIN10ODriveIntf8AxisIntf9AxisStateELj10EE5frontB7v180000Ev
	.p2align	2
	.type	_ZNSt3__25arrayIN10ODriveIntf8AxisIntf9AxisStateELj10EE5frontB7v180000Ev,%function
	.code	16                              @ @_ZNSt3__25arrayIN10ODriveIntf8AxisIntf9AxisStateELj10EE5frontB7v180000Ev
	.thumb_func
_ZNSt3__25arrayIN10ODriveIntf8AxisIntf9AxisStateELj10EE5frontB7v180000Ev:
.Lfunc_begin7:
	.loc	27 255 0 is_stmt 1              @ D:\Embed\MDK\MDK\ARM\ARMCompilerV621\Bin\..\include\libcxx\array:255:0
	.fnstart
	.cfi_startproc
@ %bb.0:
	.save	{r7, lr}
	push	{r7, lr}
	.cfi_def_cfa_offset 8
	.cfi_offset lr, -4
	.cfi_offset r7, -8
	.pad	#8
	sub	sp, #8
	.cfi_def_cfa_offset 16
	str	r0, [sp, #4]
	ldr	r0, [sp, #4]
	movs	r1, #0
.Ltmp16:
	.loc	27 255 109 prologue_end         @ D:\Embed\MDK\MDK\ARM\ARMCompilerV621\Bin\..\include\libcxx\array:255:109
	bl	_ZNSt3__25arrayIN10ODriveIntf8AxisIntf9AxisStateELj10EEixB7v180000Ej
	.loc	27 255 102 epilogue_begin is_stmt 0 @ D:\Embed\MDK\MDK\ARM\ARMCompilerV621\Bin\..\include\libcxx\array:255:102
	add	sp, #8
	pop	{r7, pc}
.Ltmp17:
.Lfunc_end7:
	.size	_ZNSt3__25arrayIN10ODriveIntf8AxisIntf9AxisStateELj10EE5frontB7v180000Ev, .Lfunc_end7-_ZNSt3__25arrayIN10ODriveIntf8AxisIntf9AxisStateELj10EE5frontB7v180000Ev
	.cfi_endproc
	.cantunwind
	.fnend
                                        @ -- End function
	.section	.text._ZN4Axis8Homing_tC2Ev,"axG",%progbits,_ZN4Axis8Homing_tC2Ev,comdat
	.hidden	_ZN4Axis8Homing_tC2Ev           @ -- Begin function _ZN4Axis8Homing_tC2Ev
	.weak	_ZN4Axis8Homing_tC2Ev
	.p2align	2
	.type	_ZN4Axis8Homing_tC2Ev,%function
	.code	16                              @ @_ZN4Axis8Homing_tC2Ev
	.thumb_func
_ZN4Axis8Homing_tC2Ev:
.Lfunc_begin8:
	.loc	14 105 0 is_stmt 1              @ ../MotorControl\axis.hpp:105:0
	.fnstart
	.cfi_startproc
@ %bb.0:
	.pad	#4
	sub	sp, #4
	.cfi_def_cfa_offset 4
	str	r0, [sp]
	ldr	r0, [sp]
	movs	r1, #0
.Ltmp18:
	.loc	14 106 14 prologue_end          @ ../MotorControl\axis.hpp:106:14
	strb	r1, [r0]
	.loc	14 105 12 epilogue_begin        @ ../MotorControl\axis.hpp:105:12
	add	sp, #4
	bx	lr
.Ltmp19:
.Lfunc_end8:
	.size	_ZN4Axis8Homing_tC2Ev, .Lfunc_end8-_ZN4Axis8Homing_tC2Ev
	.cfi_endproc
	.cantunwind
	.fnend
                                        @ -- End function
	.section	.text._ZN4Axis5CAN_tC2Ev,"axG",%progbits,_ZN4Axis5CAN_tC2Ev,comdat
	.hidden	_ZN4Axis5CAN_tC2Ev              @ -- Begin function _ZN4Axis5CAN_tC2Ev
	.weak	_ZN4Axis5CAN_tC2Ev
	.p2align	2
	.type	_ZN4Axis5CAN_tC2Ev,%function
	.code	16                              @ @_ZN4Axis5CAN_tC2Ev
	.thumb_func
_ZN4Axis5CAN_tC2Ev:
.Lfunc_begin9:
	.loc	14 109 0                        @ ../MotorControl\axis.hpp:109:0
	.fnstart
	.cfi_startproc
@ %bb.0:
	.pad	#4
	sub	sp, #4
	.cfi_def_cfa_offset 4
	str	r0, [sp]
	ldr	r0, [sp]
	movs	r1, #0
.Ltmp20:
	.loc	14 110 18 prologue_end          @ ../MotorControl\axis.hpp:110:18
	str	r1, [r0]
	.loc	14 111 18                       @ ../MotorControl\axis.hpp:111:18
	str	r1, [r0, #4]
	.loc	14 112 18                       @ ../MotorControl\axis.hpp:112:18
	str	r1, [r0, #8]
	.loc	14 113 18                       @ ../MotorControl\axis.hpp:113:18
	str	r1, [r0, #12]
	.loc	14 114 18                       @ ../MotorControl\axis.hpp:114:18
	str	r1, [r0, #16]
	.loc	14 115 18                       @ ../MotorControl\axis.hpp:115:18
	str	r1, [r0, #20]
	.loc	14 116 18                       @ ../MotorControl\axis.hpp:116:18
	str	r1, [r0, #24]
	.loc	14 117 18                       @ ../MotorControl\axis.hpp:117:18
	str	r1, [r0, #28]
	.loc	14 118 18                       @ ../MotorControl\axis.hpp:118:18
	str	r1, [r0, #32]
	.loc	14 119 18                       @ ../MotorControl\axis.hpp:119:18
	str	r1, [r0, #36]
	.loc	14 109 12 epilogue_begin        @ ../MotorControl\axis.hpp:109:12
	add	sp, #4
	bx	lr
.Ltmp21:
.Lfunc_end9:
	.size	_ZN4Axis5CAN_tC2Ev, .Lfunc_end9-_ZN4Axis5CAN_tC2Ev
	.cfi_endproc
	.cantunwind
	.fnend
                                        @ -- End function
	.section	.text._ZN4Axis19default_calibrationEv,"ax",%progbits
	.hidden	_ZN4Axis19default_calibrationEv @ -- Begin function _ZN4Axis19default_calibrationEv
	.globl	_ZN4Axis19default_calibrationEv
	.p2align	2
	.type	_ZN4Axis19default_calibrationEv,%function
	.code	16                              @ @_ZN4Axis19default_calibrationEv
	.thumb_func
_ZN4Axis19default_calibrationEv:
.Lfunc_begin10:
	.loc	2 45 0                          @ ../MotorControl/axis.cpp:45:0
	.fnstart
	.cfi_startproc
@ %bb.0:
	.save	{r7, lr}
	push	{r7, lr}
	.cfi_def_cfa_offset 8
	.cfi_offset lr, -4
	.cfi_offset r7, -8
	.pad	#8
	sub	sp, #8
	.cfi_def_cfa_offset 16
.Ltmp22:
	@DEBUG_VALUE: default_calibration:config <- [$r0+0]
	.loc	2 46 26 prologue_end            @ ../MotorControl/axis.cpp:46:26
	str	r0, [sp, #4]                    @ 4-byte Spill
.Ltmp23:
	@DEBUG_VALUE: default_calibration:config <- [DW_OP_plus_uconst 4, DW_OP_deref] [$sp+0]
	bl	_ZN4Axis14LockinConfig_tC2Ev
	ldr	r1, [sp, #4]                    @ 4-byte Reload
	movs	r0, #0
	movt	r0, #16672
	.loc	2 47 20                         @ ../MotorControl/axis.cpp:47:20
	str	r0, [r1]
	movw	r0, #52429
	movt	r0, #16076
	.loc	2 48 22                         @ ../MotorControl/axis.cpp:48:22
	str	r0, [r1, #4]
	movw	r0, #4059
	movt	r0, #16457
	.loc	2 49 26                         @ ../MotorControl/axis.cpp:49:26
	str	r0, [r1, #8]
	movs	r0, #0
	movt	r0, #16800
	.loc	2 50 18                         @ ../MotorControl/axis.cpp:50:18
	str	r0, [r1, #12]
	movs	r0, #0
	movt	r0, #16928
	.loc	2 51 16                         @ ../MotorControl/axis.cpp:51:16
	str	r0, [r1, #16]
	movw	r0, #5219
	movt	r0, #17437
	.loc	2 52 28                         @ ../MotorControl/axis.cpp:52:28
	str	r0, [r1, #20]
	movs	r0, #0
	.loc	2 53 26                         @ ../MotorControl/axis.cpp:53:26
	strb	r0, [r1, #24]
	movs	r0, #1
	.loc	2 54 31                         @ ../MotorControl/axis.cpp:54:31
	strb	r0, [r1, #25]
	.loc	2 55 30                         @ ../MotorControl/axis.cpp:55:30
	strb	r0, [r1, #26]
	.loc	2 56 5 epilogue_begin           @ ../MotorControl/axis.cpp:56:5
	add	sp, #8
	pop	{r7, pc}
.Ltmp24:
.Lfunc_end10:
	.size	_ZN4Axis19default_calibrationEv, .Lfunc_end10-_ZN4Axis19default_calibrationEv
	.cfi_endproc
	.cantunwind
	.fnend
                                        @ -- End function
	.section	.text._ZN4Axis14LockinConfig_tC2Ev,"axG",%progbits,_ZN4Axis14LockinConfig_tC2Ev,comdat
	.hidden	_ZN4Axis14LockinConfig_tC2Ev    @ -- Begin function _ZN4Axis14LockinConfig_tC2Ev
	.weak	_ZN4Axis14LockinConfig_tC2Ev
	.p2align	2
	.type	_ZN4Axis14LockinConfig_tC2Ev,%function
	.code	16                              @ @_ZN4Axis14LockinConfig_tC2Ev
	.thumb_func
_ZN4Axis14LockinConfig_tC2Ev:
.Lfunc_begin11:
	.loc	14 22 0                         @ ../MotorControl\axis.hpp:22:0
	.fnstart
	.cfi_startproc
@ %bb.0:
	.pad	#4
	sub	sp, #4
	.cfi_def_cfa_offset 4
	str	r0, [sp]
	ldr	r0, [sp]
	movs	r1, #0
	movt	r1, #16672
.Ltmp25:
	.loc	14 23 15 prologue_end           @ ../MotorControl\axis.hpp:23:15
	str	r1, [r0]
	movw	r1, #52429
	movt	r1, #16076
	.loc	14 24 15                        @ ../MotorControl\axis.hpp:24:15
	str	r1, [r0, #4]
	movw	r1, #4059
	movt	r1, #16457
	.loc	14 25 15                        @ ../MotorControl\axis.hpp:25:15
	str	r1, [r0, #8]
	movs	r1, #0
	movt	r1, #16800
	.loc	14 26 15                        @ ../MotorControl\axis.hpp:26:15
	str	r1, [r0, #12]
	movs	r1, #0
	movt	r1, #16928
	.loc	14 27 15                        @ ../MotorControl\axis.hpp:27:15
	str	r1, [r0, #16]
	movs	r1, #0
	movt	r1, #17096
	.loc	14 28 15                        @ ../MotorControl\axis.hpp:28:15
	str	r1, [r0, #20]
	movs	r1, #0
	.loc	14 29 14                        @ ../MotorControl\axis.hpp:29:14
	strb	r1, [r0, #24]
	.loc	14 30 14                        @ ../MotorControl\axis.hpp:30:14
	strb	r1, [r0, #25]
	.loc	14 31 14                        @ ../MotorControl\axis.hpp:31:14
	strb	r1, [r0, #26]
	.loc	14 22 12 epilogue_begin         @ ../MotorControl\axis.hpp:22:12
	add	sp, #4
	bx	lr
.Ltmp26:
.Lfunc_end11:
	.size	_ZN4Axis14LockinConfig_tC2Ev, .Lfunc_end11-_ZN4Axis14LockinConfig_tC2Ev
	.cfi_endproc
	.cantunwind
	.fnend
                                        @ -- End function
	.section	.text._ZN4Axis18default_sensorlessEv,"ax",%progbits
	.hidden	_ZN4Axis18default_sensorlessEv  @ -- Begin function _ZN4Axis18default_sensorlessEv
	.globl	_ZN4Axis18default_sensorlessEv
	.p2align	2
	.type	_ZN4Axis18default_sensorlessEv,%function
	.code	16                              @ @_ZN4Axis18default_sensorlessEv
	.thumb_func
_ZN4Axis18default_sensorlessEv:
.Lfunc_begin12:
	.loc	2 59 0                          @ ../MotorControl/axis.cpp:59:0
	.fnstart
	.cfi_startproc
@ %bb.0:
	.save	{r7, lr}
	push	{r7, lr}
	.cfi_def_cfa_offset 8
	.cfi_offset lr, -4
	.cfi_offset r7, -8
	.pad	#8
	sub	sp, #8
	.cfi_def_cfa_offset 16
.Ltmp27:
	@DEBUG_VALUE: default_sensorless:config <- [$r0+0]
	.loc	2 60 26 prologue_end            @ ../MotorControl/axis.cpp:60:26
	str	r0, [sp, #4]                    @ 4-byte Spill
.Ltmp28:
	@DEBUG_VALUE: default_sensorless:config <- [DW_OP_plus_uconst 4, DW_OP_deref] [$sp+0]
	bl	_ZN4Axis14LockinConfig_tC2Ev
	ldr	r1, [sp, #4]                    @ 4-byte Reload
	movs	r0, #0
	movt	r0, #16672
	.loc	2 61 20                         @ ../MotorControl/axis.cpp:61:20
	str	r0, [r1]
	movw	r0, #52429
	movt	r0, #16076
	.loc	2 62 22                         @ ../MotorControl/axis.cpp:62:22
	str	r0, [r1, #4]
	movw	r0, #4059
	movt	r0, #16457
	.loc	2 63 26                         @ ../MotorControl/axis.cpp:63:26
	str	r0, [r1, #8]
	movs	r0, #0
	movt	r0, #17224
	.loc	2 64 18                         @ ../MotorControl/axis.cpp:64:18
	str	r0, [r1, #12]
	movs	r0, #0
	movt	r0, #17352
	.loc	2 65 16                         @ ../MotorControl/axis.cpp:65:16
	str	r0, [r1, #16]
	movs	r0, #0
	movt	r0, #17096
	.loc	2 66 28                         @ ../MotorControl/axis.cpp:66:28
	str	r0, [r1, #20]
	movs	r0, #1
	.loc	2 67 26                         @ ../MotorControl/axis.cpp:67:26
	strb	r0, [r1, #24]
	movs	r0, #0
	.loc	2 68 31                         @ ../MotorControl/axis.cpp:68:31
	strb	r0, [r1, #25]
	.loc	2 69 30                         @ ../MotorControl/axis.cpp:69:30
	strb	r0, [r1, #26]
	.loc	2 70 5 epilogue_begin           @ ../MotorControl/axis.cpp:70:5
	add	sp, #8
	pop	{r7, pc}
.Ltmp29:
.Lfunc_end12:
	.size	_ZN4Axis18default_sensorlessEv, .Lfunc_end12-_ZN4Axis18default_sensorlessEv
	.cfi_endproc
	.cantunwind
	.fnend
                                        @ -- End function
	.section	.text._ZN4Axis12apply_configEv,"ax",%progbits
	.hidden	_ZN4Axis12apply_configEv        @ -- Begin function _ZN4Axis12apply_configEv
	.globl	_ZN4Axis12apply_configEv
	.p2align	2
	.type	_ZN4Axis12apply_configEv,%function
	.code	16                              @ @_ZN4Axis12apply_configEv
	.thumb_func
_ZN4Axis12apply_configEv:
.Lfunc_begin13:
	.loc	2 77 0                          @ ../MotorControl/axis.cpp:77:0
	.fnstart
	.cfi_startproc
@ %bb.0:
	.save	{r7, lr}
	push	{r7, lr}
	.cfi_def_cfa_offset 8
	.cfi_offset lr, -4
	.cfi_offset r7, -8
	.pad	#8
	sub	sp, #8
	.cfi_def_cfa_offset 16
	str	r0, [sp, #4]
	ldr	r0, [sp, #4]
.Ltmp30:
	.loc	2 78 20 prologue_end            @ ../MotorControl/axis.cpp:78:20
	str	r0, [sp]                        @ 4-byte Spill
	str.w	r0, [r0, #168]
	.loc	2 79 5                          @ ../MotorControl/axis.cpp:79:5
	bl	_ZN4Axis20decode_step_dir_pinsEv
	ldr	r0, [sp]                        @ 4-byte Reload
	.loc	2 80 5                          @ ../MotorControl/axis.cpp:80:5
	ldr	r1, [r0]
	ldr	r1, [r1]
	blx	r1
	movs	r0, #1
	.loc	2 81 5 epilogue_begin           @ ../MotorControl/axis.cpp:81:5
	add	sp, #8
	pop	{r7, pc}
.Ltmp31:
.Lfunc_end13:
	.size	_ZN4Axis12apply_configEv, .Lfunc_end13-_ZN4Axis12apply_configEv
	.cfi_endproc
	.cantunwind
	.fnend
                                        @ -- End function
	.section	.text._ZN4Axis20decode_step_dir_pinsEv,"ax",%progbits
	.hidden	_ZN4Axis20decode_step_dir_pinsEv @ -- Begin function _ZN4Axis20decode_step_dir_pinsEv
	.globl	_ZN4Axis20decode_step_dir_pinsEv
	.p2align	2
	.type	_ZN4Axis20decode_step_dir_pinsEv,%function
	.code	16                              @ @_ZN4Axis20decode_step_dir_pinsEv
	.thumb_func
_ZN4Axis20decode_step_dir_pinsEv:
.Lfunc_begin14:
	.loc	2 124 0                         @ ../MotorControl/axis.cpp:124:0
	.fnstart
	.cfi_startproc
@ %bb.0:
	.save	{r7, lr}
	push	{r7, lr}
	.cfi_def_cfa_offset 8
	.cfi_offset lr, -4
	.cfi_offset r7, -8
	.pad	#24
	sub	sp, #24
	.cfi_def_cfa_offset 32
	str	r0, [sp, #20]
	ldr	r0, [sp, #20]
.Ltmp32:
	.loc	2 125 35 prologue_end           @ ../MotorControl/axis.cpp:125:35
	str	r0, [sp]                        @ 4-byte Spill
	ldrh	r1, [r0, #30]
	add	r0, sp, #12
	.loc	2 125 18 is_stmt 0              @ ../MotorControl/axis.cpp:125:18
	bl	_ZL8get_gpioj
	ldr	r0, [sp]                        @ 4-byte Reload
	.loc	2 125 16                        @ ../MotorControl/axis.cpp:125:16
	ldrh.w	r1, [sp, #16]
	strh.w	r1, [r0, #616]
	ldr	r1, [sp, #12]
	str.w	r1, [r0, #612]
	.loc	2 126 34 is_stmt 1              @ ../MotorControl/axis.cpp:126:34
	ldrh	r1, [r0, #32]
	add	r0, sp, #4
	.loc	2 126 17 is_stmt 0              @ ../MotorControl/axis.cpp:126:17
	bl	_ZL8get_gpioj
	ldr	r1, [sp]                        @ 4-byte Reload
	.loc	2 126 15                        @ ../MotorControl/axis.cpp:126:15
	ldrh.w	r0, [sp, #8]
	strh.w	r0, [r1, #624]
	ldr	r0, [sp, #4]
	str.w	r0, [r1, #620]
	.loc	2 127 1 epilogue_begin is_stmt 1 @ ../MotorControl/axis.cpp:127:1
	add	sp, #24
	pop	{r7, pc}
.Ltmp33:
.Lfunc_end14:
	.size	_ZN4Axis20decode_step_dir_pinsEv, .Lfunc_end14-_ZN4Axis20decode_step_dir_pinsEv
	.cfi_endproc
	.cantunwind
	.fnend
                                        @ -- End function
	.section	.text._ZN4Axis12clear_configEv,"ax",%progbits
	.hidden	_ZN4Axis12clear_configEv        @ -- Begin function _ZN4Axis12clear_configEv
	.globl	_ZN4Axis12clear_configEv
	.p2align	2
	.type	_ZN4Axis12clear_configEv,%function
	.code	16                              @ @_ZN4Axis12clear_configEv
	.thumb_func
_ZN4Axis12clear_configEv:
.Lfunc_begin15:
	.loc	2 84 0                          @ ../MotorControl/axis.cpp:84:0
	.fnstart
	.cfi_startproc
@ %bb.0:
	.save	{r7, lr}
	push	{r7, lr}
	.cfi_def_cfa_offset 8
	.cfi_offset lr, -4
	.cfi_offset r7, -8
	.pad	#176
	sub	sp, #176
	.cfi_def_cfa_offset 184
	str	r0, [sp, #172]
	ldr	r0, [sp, #172]
	str	r0, [sp, #12]                   @ 4-byte Spill
	movs	r0, #0
.Ltmp34:
	.loc	2 85 15 prologue_end            @ ../MotorControl/axis.cpp:85:15
	str	r0, [sp, #4]                    @ 4-byte Spill
	strb.w	r0, [sp, #16]
	strb.w	r0, [sp, #17]
	strb.w	r0, [sp, #18]
	strb.w	r0, [sp, #19]
	strb.w	r0, [sp, #20]
	strb.w	r0, [sp, #21]
	strb.w	r0, [sp, #22]
	strb.w	r0, [sp, #23]
	str	r0, [sp, #24]
	strb.w	r0, [sp, #28]
	strh.w	r0, [sp, #30]
	strh.w	r0, [sp, #32]
	add	r0, sp, #16
	str	r0, [sp, #8]                    @ 4-byte Spill
	adds	r0, #20
	.loc	14 93 45                        @ ../MotorControl\axis.hpp:93:45
	bl	_ZN4Axis19default_calibrationEv
	ldr	r0, [sp, #8]                    @ 4-byte Reload
	.loc	2 85 15                         @ ../MotorControl/axis.cpp:85:15
	adds	r0, #48
	.loc	14 94 42                        @ ../MotorControl\axis.hpp:94:42
	bl	_ZN4Axis18default_sensorlessEv
	ldr	r2, [sp, #4]                    @ 4-byte Reload
	ldr	r1, [sp, #8]                    @ 4-byte Reload
	ldr	r0, [sp, #12]                   @ 4-byte Reload
	movs	r3, #0
	movt	r3, #16672
	.loc	2 85 16                         @ ../MotorControl/axis.cpp:85:16
	str	r3, [sp, #92]
	movw	r3, #52429
	movt	r3, #16076
	str	r3, [sp, #96]
	movw	r3, #4059
	movt	r3, #16457
	str	r3, [sp, #100]
	movs	r3, #0
	movt	r3, #16800
	str	r3, [sp, #104]
	movs	r3, #0
	movt	r3, #16928
	str	r3, [sp, #108]
	movs	r3, #0
	movt	r3, #17096
	str	r3, [sp, #112]
	strb.w	r2, [sp, #116]
	strb.w	r2, [sp, #117]
	strb.w	r2, [sp, #118]
	str	r2, [sp, #120]
	strb.w	r2, [sp, #124]
	movs	r3, #100
	str	r3, [sp, #128]
	movs	r3, #10
	str	r3, [sp, #132]
	str	r2, [sp, #136]
	str	r2, [sp, #140]
	str	r2, [sp, #144]
	str	r2, [sp, #148]
	str	r2, [sp, #152]
	str	r2, [sp, #156]
	str	r2, [sp, #160]
	str	r2, [sp, #164]
	.loc	2 85 15 is_stmt 0               @ ../MotorControl/axis.cpp:85:15
	str	r2, [sp, #168]
	.loc	2 85 5                          @ ../MotorControl/axis.cpp:85:5
	adds	r0, #16
	movs	r2, #156
	.loc	2 85 13                         @ ../MotorControl/axis.cpp:85:13
	bl	__aeabi_memcpy4
	ldr	r1, [sp, #12]                   @ 4-byte Reload
	.loc	2 86 29 is_stmt 1               @ ../MotorControl/axis.cpp:86:29
	ldrh	r0, [r1, #8]
	.loc	2 86 27 is_stmt 0               @ ../MotorControl/axis.cpp:86:27
	strh	r0, [r1, #30]
	.loc	2 87 28 is_stmt 1               @ ../MotorControl/axis.cpp:87:28
	ldrh	r0, [r1, #10]
	.loc	2 87 26 is_stmt 0               @ ../MotorControl/axis.cpp:87:26
	strh	r0, [r1, #32]
	.loc	2 88 27 is_stmt 1               @ ../MotorControl/axis.cpp:88:27
	ldr	r0, [r1, #4]
	.loc	2 88 25 is_stmt 0               @ ../MotorControl/axis.cpp:88:25
	str	r0, [r1, #120]
	.loc	2 89 1 epilogue_begin is_stmt 1 @ ../MotorControl/axis.cpp:89:1
	add	sp, #176
	pop	{r7, pc}
.Ltmp35:
.Lfunc_end15:
	.size	_ZN4Axis12clear_configEv, .Lfunc_end15-_ZN4Axis12clear_configEv
	.cfi_endproc
	.cantunwind
	.fnend
                                        @ -- End function
	.section	.text._ZN4Axis12start_threadEv,"ax",%progbits
	.hidden	_ZN4Axis12start_threadEv        @ -- Begin function _ZN4Axis12start_threadEv
	.globl	_ZN4Axis12start_threadEv
	.p2align	2
	.type	_ZN4Axis12start_threadEv,%function
	.code	16                              @ @_ZN4Axis12start_threadEv
	.thumb_func
_ZN4Axis12start_threadEv:
.Lfunc_begin16:
	.loc	2 97 0                          @ ../MotorControl/axis.cpp:97:0
	.fnstart
	.cfi_startproc
@ %bb.0:
	.save	{r7, lr}
	push	{r7, lr}
	.cfi_def_cfa_offset 8
	.cfi_offset lr, -4
	.cfi_offset r7, -8
	.pad	#32
	sub	sp, #32
	.cfi_def_cfa_offset 40
	str	r0, [sp, #28]
	ldr	r1, [sp, #28]
.Ltmp36:
	.loc	2 98 5 prologue_end             @ ../MotorControl/axis.cpp:98:5
	str	r1, [sp, #4]                    @ 4-byte Spill
	movw	r0, :lower16:.L.str
	movt	r0, :upper16:.L.str
	str	r0, [sp, #8]
	movw	r0, :lower16:_ZL30run_state_machine_loop_wrapperPv
	movt	r0, :upper16:_ZL30run_state_machine_loop_wrapperPv
	str	r0, [sp, #12]
	ldrh	r0, [r1, #12]
	strh.w	r0, [sp, #16]
	movs	r0, #0
	str	r0, [sp, #20]
	ldr.w	r0, [r1, #580]
	lsrs	r0, r0, #2
	str	r0, [sp, #24]
	add	r0, sp, #8
	.loc	2 99 18                         @ ../MotorControl/axis.cpp:99:18
	bl	osThreadCreate
	ldr	r1, [sp, #4]                    @ 4-byte Reload
	.loc	2 99 16 is_stmt 0               @ ../MotorControl/axis.cpp:99:16
	str.w	r0, [r1, #576]
	movs	r0, #1
	.loc	2 100 22 is_stmt 1              @ ../MotorControl/axis.cpp:100:22
	strb.w	r0, [r1, #584]
	.loc	2 101 1 epilogue_begin          @ ../MotorControl/axis.cpp:101:1
	add	sp, #32
	pop	{r7, pc}
.Ltmp37:
.Lfunc_end16:
	.size	_ZN4Axis12start_threadEv, .Lfunc_end16-_ZN4Axis12start_threadEv
	.cfi_endproc
	.cantunwind
	.fnend
                                        @ -- End function
	.section	.text._ZL30run_state_machine_loop_wrapperPv,"ax",%progbits
	.p2align	2                               @ -- Begin function _ZL30run_state_machine_loop_wrapperPv
	.type	_ZL30run_state_machine_loop_wrapperPv,%function
	.code	16                              @ @_ZL30run_state_machine_loop_wrapperPv
	.thumb_func
_ZL30run_state_machine_loop_wrapperPv:
.Lfunc_begin17:
	.loc	2 91 0                          @ ../MotorControl/axis.cpp:91:0
	.fnstart
	.cfi_startproc
@ %bb.0:
	.save	{r7, lr}
	push	{r7, lr}
	.cfi_def_cfa_offset 8
	.cfi_offset lr, -4
	.cfi_offset r7, -8
	.pad	#8
	sub	sp, #8
	.cfi_def_cfa_offset 16
	str	r0, [sp, #4]
.Ltmp38:
	.loc	2 92 29 prologue_end            @ ../MotorControl/axis.cpp:92:29
	ldr	r0, [sp, #4]
	.loc	2 92 35 is_stmt 0               @ ../MotorControl/axis.cpp:92:35
	bl	_ZN4Axis22run_state_machine_loopEv
	.loc	2 93 29 is_stmt 1               @ ../MotorControl/axis.cpp:93:29
	ldr	r1, [sp, #4]
	movs	r0, #0
	.loc	2 93 52 is_stmt 0               @ ../MotorControl/axis.cpp:93:52
	strb.w	r0, [r1, #584]
	.loc	2 94 1 epilogue_begin is_stmt 1 @ ../MotorControl/axis.cpp:94:1
	add	sp, #8
	pop	{r7, pc}
.Ltmp39:
.Lfunc_end17:
	.size	_ZL30run_state_machine_loop_wrapperPv, .Lfunc_end17-_ZL30run_state_machine_loop_wrapperPv
	.cfi_endproc
	.cantunwind
	.fnend
                                        @ -- End function
	.section	.text._ZN4Axis26wait_for_control_iterationEv,"ax",%progbits
	.hidden	_ZN4Axis26wait_for_control_iterationEv @ -- Begin function _ZN4Axis26wait_for_control_iterationEv
	.globl	_ZN4Axis26wait_for_control_iterationEv
	.p2align	2
	.type	_ZN4Axis26wait_for_control_iterationEv,%function
	.code	16                              @ @_ZN4Axis26wait_for_control_iterationEv
	.thumb_func
_ZN4Axis26wait_for_control_iterationEv:
.Lfunc_begin18:
	.loc	2 106 0                         @ ../MotorControl/axis.cpp:106:0
	.fnstart
	.cfi_startproc
@ %bb.0:
	.save	{r7, lr}
	push	{r7, lr}
	.cfi_def_cfa_offset 8
	.cfi_offset lr, -4
	.cfi_offset r7, -8
	.pad	#48
	sub	sp, #48
	.cfi_def_cfa_offset 56
	str	r0, [sp, #44]
	add	r0, sp, #32
	movs	r1, #1
	str	r1, [sp, #4]                    @ 4-byte Spill
	mov.w	r2, #-1
.Ltmp40:
	.loc	2 107 5 prologue_end            @ ../MotorControl/axis.cpp:107:5
	str	r2, [sp]                        @ 4-byte Spill
	bl	osSignalWait
	ldr	r2, [sp]                        @ 4-byte Reload
	ldr	r1, [sp, #4]                    @ 4-byte Reload
	add	r0, sp, #20
	.loc	2 108 5                         @ ../MotorControl/axis.cpp:108:5
	bl	osSignalWait
	ldr	r2, [sp]                        @ 4-byte Reload
	ldr	r1, [sp, #4]                    @ 4-byte Reload
	add	r0, sp, #8
	.loc	2 112 5                         @ ../MotorControl/axis.cpp:112:5
	bl	osSignalWait
	ldr	r0, [sp, #4]                    @ 4-byte Reload
	.loc	2 113 5 epilogue_begin          @ ../MotorControl/axis.cpp:113:5
	add	sp, #48
	pop	{r7, pc}
.Ltmp41:
.Lfunc_end18:
	.size	_ZN4Axis26wait_for_control_iterationEv, .Lfunc_end18-_ZN4Axis26wait_for_control_iterationEv
	.cfi_endproc
	.cantunwind
	.fnend
                                        @ -- End function
	.section	.text._ZN4Axis7step_cbEv,"ax",%progbits
	.hidden	_ZN4Axis7step_cbEv              @ -- Begin function _ZN4Axis7step_cbEv
	.globl	_ZN4Axis7step_cbEv
	.p2align	2
	.type	_ZN4Axis7step_cbEv,%function
	.code	16                              @ @_ZN4Axis7step_cbEv
	.thumb_func
_ZN4Axis7step_cbEv:
.Lfunc_begin19:
	.loc	2 117 0                         @ ../MotorControl/axis.cpp:117:0
	.fnstart
	.cfi_startproc
@ %bb.0:
	.save	{r7, lr}
	push	{r7, lr}
	.cfi_def_cfa_offset 8
	.cfi_offset lr, -4
	.cfi_offset r7, -8
	.pad	#8
	sub	sp, #8
	.cfi_def_cfa_offset 16
	str	r0, [sp, #4]
	ldr	r0, [sp, #4]
.Ltmp42:
	.loc	2 118 9 prologue_end            @ ../MotorControl/axis.cpp:118:9
	str	r0, [sp]                        @ 4-byte Spill
	ldrb.w	r0, [r0, #592]
.Ltmp43:
	.loc	2 118 9 is_stmt 0               @ ../MotorControl/axis.cpp:118:9
	lsls	r0, r0, #31
	cbz	r0, .LBB19_5
	b	.LBB19_1
.LBB19_1:
.Ltmp44:
	.loc	2 119 9 is_stmt 1               @ ../MotorControl/axis.cpp:119:9
	ldr	r0, [sp]                        @ 4-byte Reload
	add.w	r0, r0, #620
	.loc	2 119 19 is_stmt 0              @ ../MotorControl/axis.cpp:119:19
	bl	_ZN9Stm32Gpio4readEv
	.loc	2 119 9                         @ ../MotorControl/axis.cpp:119:9
	cbz	r0, .LBB19_3
	b	.LBB19_2
.LBB19_2:
	.loc	2 119 30                        @ ../MotorControl/axis.cpp:119:30
	ldr	r1, [sp]                        @ 4-byte Reload
	add.w	r0, r1, #600
	.loc	2 119 28                        @ ../MotorControl/axis.cpp:119:28
	ldr.w	r2, [r1, #600]
	ldr.w	r0, [r1, #604]
	adds	r2, #1
	adc	r0, r0, #0
	str.w	r2, [r1, #600]
	str.w	r0, [r1, #604]
	.loc	2 119 9                         @ ../MotorControl/axis.cpp:119:9
	b	.LBB19_4
.LBB19_3:
	.loc	2 119 41                        @ ../MotorControl/axis.cpp:119:41
	ldr	r1, [sp]                        @ 4-byte Reload
	add.w	r0, r1, #600
	.loc	2 119 39                        @ ../MotorControl/axis.cpp:119:39
	ldr.w	r2, [r1, #600]
	ldr.w	r0, [r1, #604]
	subs	r2, #1
	sbc	r0, r0, #0
	str.w	r2, [r1, #600]
	str.w	r0, [r1, #604]
	.loc	2 119 9                         @ ../MotorControl/axis.cpp:119:9
	b	.LBB19_4
.LBB19_4:
	.loc	2 120 9 is_stmt 1               @ ../MotorControl/axis.cpp:120:9
	ldr	r0, [sp]                        @ 4-byte Reload
	ldr.w	r0, [r0, #256]
	.loc	2 120 21 is_stmt 0              @ ../MotorControl/axis.cpp:120:21
	bl	_ZN10Controller17input_pos_updatedEv
	.loc	2 121 5 is_stmt 1               @ ../MotorControl/axis.cpp:121:5
	b	.LBB19_5
.Ltmp45:
.LBB19_5:
	.loc	2 122 1 epilogue_begin          @ ../MotorControl/axis.cpp:122:1
	add	sp, #8
	pop	{r7, pc}
.Ltmp46:
.Lfunc_end19:
	.size	_ZN4Axis7step_cbEv, .Lfunc_end19-_ZN4Axis7step_cbEv
	.cfi_endproc
	.cantunwind
	.fnend
                                        @ -- End function
	.section	.text._ZN9Stm32Gpio4readEv,"axG",%progbits,_ZN9Stm32Gpio4readEv,comdat
	.hidden	_ZN9Stm32Gpio4readEv            @ -- Begin function _ZN9Stm32Gpio4readEv
	.weak	_ZN9Stm32Gpio4readEv
	.p2align	2
	.type	_ZN9Stm32Gpio4readEv,%function
	.code	16                              @ @_ZN9Stm32Gpio4readEv
	.thumb_func
_ZN9Stm32Gpio4readEv:
.Lfunc_begin20:
	.loc	25 30 0                         @ ../../Firmware\Drivers/STM32/stm32_gpio.hpp:30:0
	.fnstart
	.cfi_startproc
@ %bb.0:
	.pad	#12
	sub	sp, #12
	.cfi_def_cfa_offset 12
	str	r0, [sp, #8]
	ldr	r0, [sp, #8]
.Ltmp47:
	.loc	25 31 16 prologue_end           @ ../../Firmware\Drivers/STM32/stm32_gpio.hpp:31:16
	str	r0, [sp]                        @ 4-byte Spill
	ldr	r1, [r0]
	movs	r0, #0
	.loc	25 31 22 is_stmt 0              @ ../../Firmware\Drivers/STM32/stm32_gpio.hpp:31:22
	str	r0, [sp, #4]                    @ 4-byte Spill
	cbz	r1, .LBB20_2
	b	.LBB20_1
.LBB20_1:
	.loc	25 31 26                        @ ../../Firmware\Drivers/STM32/stm32_gpio.hpp:31:26
	ldr	r1, [sp]                        @ 4-byte Reload
	ldr	r0, [r1]
	.loc	25 31 33                        @ ../../Firmware\Drivers/STM32/stm32_gpio.hpp:31:33
	ldr	r0, [r0, #16]
	.loc	25 31 39                        @ ../../Firmware\Drivers/STM32/stm32_gpio.hpp:31:39
	ldrh	r1, [r1, #4]
	.loc	25 31 37                        @ ../../Firmware\Drivers/STM32/stm32_gpio.hpp:31:37
	ands	r0, r1
	.loc	25 31 25                        @ ../../Firmware\Drivers/STM32/stm32_gpio.hpp:31:25
	cmp	r0, #0
	it	ne
	movne	r0, #1
	str	r0, [sp, #4]                    @ 4-byte Spill
	b	.LBB20_2
.LBB20_2:
	.loc	25 0 0                          @ ../../Firmware\Drivers/STM32/stm32_gpio.hpp:0:0
	ldr	r0, [sp, #4]                    @ 4-byte Reload
	.loc	25 31 9                         @ ../../Firmware\Drivers/STM32/stm32_gpio.hpp:31:9
	and	r0, r0, #1
	.loc	25 31 9 epilogue_begin          @ ../../Firmware\Drivers/STM32/stm32_gpio.hpp:31:9
	add	sp, #12
	bx	lr
.Ltmp48:
.Lfunc_end20:
	.size	_ZN9Stm32Gpio4readEv, .Lfunc_end20-_ZN9Stm32Gpio4readEv
	.cfi_endproc
	.cantunwind
	.fnend
                                        @ -- End function
	.section	.text._ZN10Controller17input_pos_updatedEv,"axG",%progbits,_ZN10Controller17input_pos_updatedEv,comdat
	.hidden	_ZN10Controller17input_pos_updatedEv @ -- Begin function _ZN10Controller17input_pos_updatedEv
	.weak	_ZN10Controller17input_pos_updatedEv
	.p2align	2
	.type	_ZN10Controller17input_pos_updatedEv,%function
	.code	16                              @ @_ZN10Controller17input_pos_updatedEv
	.thumb_func
_ZN10Controller17input_pos_updatedEv:
.Lfunc_begin21:
	.file	40 "D:\\ikingtec\\Robot\\ODrive\\Firmware\\MDK-ARM" "../MotorControl\\controller.hpp"
	.loc	40 74 0 is_stmt 1               @ ../MotorControl\controller.hpp:74:0
	.fnstart
	.cfi_startproc
@ %bb.0:
	.pad	#4
	sub	sp, #4
	.cfi_def_cfa_offset 4
	str	r0, [sp]
	ldr	r1, [sp]
	movw	r2, #14664
	movs	r0, #1
.Ltmp49:
	.loc	40 75 28 prologue_end           @ ../MotorControl\controller.hpp:75:28
	strb	r0, [r1, r2]
	.loc	40 76 5 epilogue_begin          @ ../MotorControl\controller.hpp:76:5
	add	sp, #4
	bx	lr
.Ltmp50:
.Lfunc_end21:
	.size	_ZN10Controller17input_pos_updatedEv, .Lfunc_end21-_ZN10Controller17input_pos_updatedEv
	.cfi_endproc
	.cantunwind
	.fnend
                                        @ -- End function
	.section	.text._ZL8get_gpioj,"ax",%progbits
	.p2align	2                               @ -- Begin function _ZL8get_gpioj
	.type	_ZL8get_gpioj,%function
	.code	16                              @ @_ZL8get_gpioj
	.thumb_func
_ZL8get_gpioj:
.Lfunc_begin22:
	.file	41 "D:\\ikingtec\\Robot\\ODrive\\Firmware\\MDK-ARM" "../MotorControl/odrive_main.h"
	.loc	41 167 0                        @ ../MotorControl/odrive_main.h:167:0
	.fnstart
	.cfi_startproc
@ %bb.0:
	.pad	#12
	sub	sp, #12
	.cfi_def_cfa_offset 12
	str	r0, [sp, #4]                    @ 4-byte Spill
	str	r1, [sp, #8]
.Ltmp51:
	.loc	41 168 13 prologue_end          @ ../MotorControl/odrive_main.h:168:13
	ldr	r0, [sp, #8]
	.loc	41 168 12 is_stmt 0             @ ../MotorControl/odrive_main.h:168:12
	cmp	r0, #16
	bhi	.LBB22_2
	b	.LBB22_1
.LBB22_1:
	.loc	41 168 44                       @ ../MotorControl/odrive_main.h:168:44
	ldr	r1, [sp, #8]
	.loc	41 168 38                       @ ../MotorControl/odrive_main.h:168:38
	movw	r0, :lower16:gpios
	movt	r0, :upper16:gpios
	add.w	r0, r0, r1, lsl #3
	.loc	41 168 12                       @ ../MotorControl/odrive_main.h:168:12
	str	r0, [sp]                        @ 4-byte Spill
	b	.LBB22_3
.LBB22_2:
	.loc	41 0 12                         @ ../MotorControl/odrive_main.h:0:12
	movw	r0, :lower16:gpios
	movt	r0, :upper16:gpios
	.loc	41 168 12                       @ ../MotorControl/odrive_main.h:168:12
	str	r0, [sp]                        @ 4-byte Spill
	b	.LBB22_3
.LBB22_3:
	ldr	r1, [sp, #4]                    @ 4-byte Reload
	ldr	r2, [sp]                        @ 4-byte Reload
	ldr	r0, [r2]
	ldr	r2, [r2, #4]
	str	r2, [r1, #4]
	str	r0, [r1]
	.loc	41 168 5 epilogue_begin         @ ../MotorControl/odrive_main.h:168:5
	add	sp, #12
	bx	lr
.Ltmp52:
.Lfunc_end22:
	.size	_ZL8get_gpioj, .Lfunc_end22-_ZL8get_gpioj
	.cfi_endproc
	.cantunwind
	.fnend
                                        @ -- End function
	.section	.text._ZN4Axis19set_step_dir_activeEb,"ax",%progbits
	.hidden	_ZN4Axis19set_step_dir_activeEb @ -- Begin function _ZN4Axis19set_step_dir_activeEb
	.globl	_ZN4Axis19set_step_dir_activeEb
	.p2align	2
	.type	_ZN4Axis19set_step_dir_activeEb,%function
	.code	16                              @ @_ZN4Axis19set_step_dir_activeEb
	.thumb_func
_ZN4Axis19set_step_dir_activeEb:
.Lfunc_begin23:
	.loc	2 130 0 is_stmt 1               @ ../MotorControl/axis.cpp:130:0
	.fnstart
	.cfi_startproc
@ %bb.0:
	.save	{r7, lr}
	push	{r7, lr}
	.cfi_def_cfa_offset 8
	.cfi_offset lr, -4
	.cfi_offset r7, -8
	.pad	#16
	sub	sp, #16
	.cfi_def_cfa_offset 24
                                        @ kill: def $r2 killed $r1
	str	r0, [sp, #12]
	strb.w	r1, [sp, #11]
	ldr	r0, [sp, #12]
.Ltmp53:
	.loc	2 131 9 prologue_end            @ ../MotorControl/axis.cpp:131:9
	str	r0, [sp, #4]                    @ 4-byte Spill
	ldrb.w	r0, [sp, #11]
.Ltmp54:
	.loc	2 131 9 is_stmt 0               @ ../MotorControl/axis.cpp:131:9
	lsls	r0, r0, #31
	cbz	r0, .LBB23_4
	b	.LBB23_1
.LBB23_1:
.Ltmp55:
	.loc	2 133 14 is_stmt 1              @ ../MotorControl/axis.cpp:133:14
	ldr	r1, [sp, #4]                    @ 4-byte Reload
	add.w	r0, r1, #612
	.loc	2 133 25 is_stmt 0              @ ../MotorControl/axis.cpp:133:25
	mov	r2, sp
	str	r1, [r2]
	movw	r3, :lower16:_ZL15step_cb_wrapperPv
	movt	r3, :upper16:_ZL15step_cb_wrapperPv
	movs	r1, #1
	movs	r2, #0
	bl	_ZN9Stm32Gpio9subscribeEbbPFvPvES0_
.Ltmp56:
	.loc	2 133 13                        @ ../MotorControl/axis.cpp:133:13
	cbnz	r0, .LBB23_3
	b	.LBB23_2
.LBB23_2:
.Ltmp57:
	.loc	2 134 33 is_stmt 1              @ ../MotorControl/axis.cpp:134:33
	movw	r1, :lower16:odrv
	movt	r1, :upper16:odrv
	movw	r2, #17100
	movs	r0, #1
	strb	r0, [r1, r2]
	.loc	2 135 9                         @ ../MotorControl/axis.cpp:135:9
	b	.LBB23_3
.Ltmp58:
.LBB23_3:
	.loc	2 0 9 is_stmt 0                 @ ../MotorControl/axis.cpp:0:9
	ldr	r1, [sp, #4]                    @ 4-byte Reload
	movs	r0, #1
	.loc	2 137 26 is_stmt 1              @ ../MotorControl/axis.cpp:137:26
	strb.w	r0, [r1, #592]
	.loc	2 138 5                         @ ../MotorControl/axis.cpp:138:5
	b	.LBB23_5
.Ltmp59:
.LBB23_4:
	.loc	2 0 5 is_stmt 0                 @ ../MotorControl/axis.cpp:0:5
	ldr	r0, [sp, #4]                    @ 4-byte Reload
	movs	r1, #0
.Ltmp60:
	.loc	2 139 26 is_stmt 1              @ ../MotorControl/axis.cpp:139:26
	strb.w	r1, [r0, #592]
	.loc	2 144 9                         @ ../MotorControl/axis.cpp:144:9
	add.w	r0, r0, #612
	.loc	2 144 20 is_stmt 0              @ ../MotorControl/axis.cpp:144:20
	bl	_ZN9Stm32Gpio11unsubscribeEv
	b	.LBB23_5
.Ltmp61:
.LBB23_5:
	.loc	2 146 1 epilogue_begin is_stmt 1 @ ../MotorControl/axis.cpp:146:1
	add	sp, #16
	pop	{r7, pc}
.Ltmp62:
.Lfunc_end23:
	.size	_ZN4Axis19set_step_dir_activeEb, .Lfunc_end23-_ZN4Axis19set_step_dir_activeEb
	.cfi_endproc
	.cantunwind
	.fnend
                                        @ -- End function
	.section	.text._ZL15step_cb_wrapperPv,"ax",%progbits
	.p2align	2                               @ -- Begin function _ZL15step_cb_wrapperPv
	.type	_ZL15step_cb_wrapperPv,%function
	.code	16                              @ @_ZL15step_cb_wrapperPv
	.thumb_func
_ZL15step_cb_wrapperPv:
.Lfunc_begin24:
	.loc	2 73 0                          @ ../MotorControl/axis.cpp:73:0
	.fnstart
	.cfi_startproc
@ %bb.0:
	.save	{r7, lr}
	push	{r7, lr}
	.cfi_def_cfa_offset 8
	.cfi_offset lr, -4
	.cfi_offset r7, -8
	.pad	#8
	sub	sp, #8
	.cfi_def_cfa_offset 16
	str	r0, [sp, #4]
.Ltmp63:
	.loc	2 74 29 prologue_end            @ ../MotorControl/axis.cpp:74:29
	ldr	r0, [sp, #4]
	.loc	2 74 35 is_stmt 0               @ ../MotorControl/axis.cpp:74:35
	bl	_ZN4Axis7step_cbEv
	.loc	2 75 1 epilogue_begin is_stmt 1 @ ../MotorControl/axis.cpp:75:1
	add	sp, #8
	pop	{r7, pc}
.Ltmp64:
.Lfunc_end24:
	.size	_ZL15step_cb_wrapperPv, .Lfunc_end24-_ZL15step_cb_wrapperPv
	.cfi_endproc
	.cantunwind
	.fnend
                                        @ -- End function
	.section	.text._ZN4Axis9do_checksEj,"ax",%progbits
	.hidden	_ZN4Axis9do_checksEj            @ -- Begin function _ZN4Axis9do_checksEj
	.globl	_ZN4Axis9do_checksEj
	.p2align	2
	.type	_ZN4Axis9do_checksEj,%function
	.code	16                              @ @_ZN4Axis9do_checksEj
	.thumb_func
_ZN4Axis9do_checksEj:
.Lfunc_begin25:
	.loc	2 150 0                         @ ../MotorControl/axis.cpp:150:0
	.fnstart
	.cfi_startproc
@ %bb.0:
	.save	{r7, lr}
	push	{r7, lr}
	.cfi_def_cfa_offset 8
	.cfi_offset lr, -4
	.cfi_offset r7, -8
	.pad	#16
	sub	sp, #16
	.cfi_def_cfa_offset 24
	str	r0, [sp, #12]
	str	r1, [sp, #8]
	ldr	r0, [sp, #12]
.Ltmp65:
	.loc	2 152 5 prologue_end            @ ../MotorControl/axis.cpp:152:5
	str	r0, [sp, #4]                    @ 4-byte Spill
	ldr.w	r0, [r0, #344]
	.loc	2 152 12 is_stmt 0              @ ../MotorControl/axis.cpp:152:12
	bl	_ZN5Motor21effective_current_limEv
	ldr	r0, [sp, #4]                    @ 4-byte Reload
	.loc	2 153 5 is_stmt 1               @ ../MotorControl/axis.cpp:153:5
	ldr.w	r0, [r0, #344]
	.loc	2 153 22 is_stmt 0              @ ../MotorControl/axis.cpp:153:22
	ldr	r1, [sp, #8]
	.loc	2 153 12                        @ ../MotorControl/axis.cpp:153:12
	bl	_ZN5Motor9do_checksEj
                                        @ kill: def $r1 killed $r0
.Ltmp66:
	.loc	2 156 9 is_stmt 1               @ ../MotorControl/axis.cpp:156:9
	ldr	r0, [sp, #4]                    @ 4-byte Reload
	ldr.w	r0, [r0, #352]
	.loc	2 156 30 is_stmt 0              @ ../MotorControl/axis.cpp:156:30
	ldrb	r0, [r0, #10]
	.loc	2 156 38                        @ ../MotorControl/axis.cpp:156:38
	lsls	r0, r0, #31
	cbz	r0, .LBB25_4
	b	.LBB25_1
.LBB25_1:
	.loc	2 156 41                        @ ../MotorControl/axis.cpp:156:41
	ldr	r0, [sp, #4]                    @ 4-byte Reload
	ldr.w	r0, [r0, #352]
	.loc	2 156 54                        @ ../MotorControl/axis.cpp:156:54
	bl	_ZN7Endstop4roseEv
	.loc	2 156 61                        @ ../MotorControl/axis.cpp:156:61
	cbz	r0, .LBB25_4
	b	.LBB25_2
.LBB25_2:
	.loc	2 156 66                        @ ../MotorControl/axis.cpp:156:66
	ldr	r0, [sp, #4]                    @ 4-byte Reload
	ldr.w	r0, [r0, #640]
	ldrb	r0, [r0]
.Ltmp67:
	.loc	2 156 9                         @ ../MotorControl/axis.cpp:156:9
	cmp	r0, #11
	beq	.LBB25_4
	b	.LBB25_3
.LBB25_3:
.Ltmp68:
	.loc	2 157 9 is_stmt 1               @ ../MotorControl/axis.cpp:157:9
	ldr	r0, [sp, #4]                    @ 4-byte Reload
	add.w	r0, r0, #588
	mov.w	r1, #4096
	.loc	2 157 16 is_stmt 0              @ ../MotorControl/axis.cpp:157:16
	bl	_ZoRRN10ODriveIntf8AxisIntf5ErrorES1_
	.loc	2 158 5 is_stmt 1               @ ../MotorControl/axis.cpp:158:5
	b	.LBB25_9
.Ltmp69:
.LBB25_4:
	.loc	2 158 16 is_stmt 0              @ ../MotorControl/axis.cpp:158:16
	ldr	r0, [sp, #4]                    @ 4-byte Reload
	ldr.w	r0, [r0, #356]
	.loc	2 158 37                        @ ../MotorControl/axis.cpp:158:37
	ldrb	r0, [r0, #10]
	.loc	2 158 45                        @ ../MotorControl/axis.cpp:158:45
	lsls	r0, r0, #31
	cbz	r0, .LBB25_8
	b	.LBB25_5
.LBB25_5:
	.loc	2 158 48                        @ ../MotorControl/axis.cpp:158:48
	ldr	r0, [sp, #4]                    @ 4-byte Reload
	ldr.w	r0, [r0, #356]
	.loc	2 158 61                        @ ../MotorControl/axis.cpp:158:61
	bl	_ZN7Endstop4roseEv
	.loc	2 158 68                        @ ../MotorControl/axis.cpp:158:68
	cbz	r0, .LBB25_8
	b	.LBB25_6
.LBB25_6:
	.loc	2 158 73                        @ ../MotorControl/axis.cpp:158:73
	ldr	r0, [sp, #4]                    @ 4-byte Reload
	ldr.w	r0, [r0, #640]
	ldrb	r0, [r0]
.Ltmp70:
	.loc	2 158 16                        @ ../MotorControl/axis.cpp:158:16
	cmp	r0, #11
	beq	.LBB25_8
	b	.LBB25_7
.LBB25_7:
.Ltmp71:
	.loc	2 159 9 is_stmt 1               @ ../MotorControl/axis.cpp:159:9
	ldr	r0, [sp, #4]                    @ 4-byte Reload
	add.w	r0, r0, #588
	mov.w	r1, #8192
	.loc	2 159 16 is_stmt 0              @ ../MotorControl/axis.cpp:159:16
	bl	_ZoRRN10ODriveIntf8AxisIntf5ErrorES1_
	.loc	2 160 5 is_stmt 1               @ ../MotorControl/axis.cpp:160:5
	b	.LBB25_8
.Ltmp72:
.LBB25_8:
	.loc	2 0 5 is_stmt 0                 @ ../MotorControl/axis.cpp:0:5
	b	.LBB25_9
.LBB25_9:
	.loc	2 162 12 is_stmt 1              @ ../MotorControl/axis.cpp:162:12
	ldr	r0, [sp, #4]                    @ 4-byte Reload
	bl	_ZN4Axis16check_for_errorsEv
	.loc	2 162 5 epilogue_begin is_stmt 0 @ ../MotorControl/axis.cpp:162:5
	add	sp, #16
	pop	{r7, pc}
.Ltmp73:
.Lfunc_end25:
	.size	_ZN4Axis9do_checksEj, .Lfunc_end25-_ZN4Axis9do_checksEj
	.cfi_endproc
	.cantunwind
	.fnend
                                        @ -- End function
	.section	.text._ZN7Endstop4roseEv,"axG",%progbits,_ZN7Endstop4roseEv,comdat
	.hidden	_ZN7Endstop4roseEv              @ -- Begin function _ZN7Endstop4roseEv
	.weak	_ZN7Endstop4roseEv
	.p2align	2
	.type	_ZN7Endstop4roseEv,%function
	.code	16                              @ @_ZN7Endstop4roseEv
	.thumb_func
_ZN7Endstop4roseEv:
.Lfunc_begin26:
	.loc	21 32 0 is_stmt 1               @ ../MotorControl\endstop.hpp:32:0
	.fnstart
	.cfi_startproc
@ %bb.0:
	.pad	#12
	sub	sp, #12
	.cfi_def_cfa_offset 12
	str	r0, [sp, #8]
	ldr	r0, [sp, #8]
.Ltmp74:
	.loc	21 33 17 prologue_end           @ ../MotorControl\endstop.hpp:33:17
	str	r0, [sp]                        @ 4-byte Spill
	ldrb	r1, [r0, #20]
	.loc	21 33 35 is_stmt 0              @ ../MotorControl\endstop.hpp:33:35
	ldrb	r0, [r0, #21]
	.loc	21 33 17                        @ ../MotorControl\endstop.hpp:33:17
	and	r1, r1, #1
	.loc	21 33 35                        @ ../MotorControl\endstop.hpp:33:35
	and	r2, r0, #1
	movs	r0, #0
	.loc	21 33 48                        @ ../MotorControl\endstop.hpp:33:48
	cmp	r1, r2
	str	r0, [sp, #4]                    @ 4-byte Spill
	beq	.LBB26_2
	b	.LBB26_1
.LBB26_1:
	.loc	21 33 51                        @ ../MotorControl\endstop.hpp:33:51
	ldr	r0, [sp]                        @ 4-byte Reload
	ldrb	r0, [r0, #20]
	str	r0, [sp, #4]                    @ 4-byte Spill
	b	.LBB26_2
.LBB26_2:
	.loc	21 0 0                          @ ../MotorControl\endstop.hpp:0:0
	ldr	r0, [sp, #4]                    @ 4-byte Reload
	.loc	21 33 9                         @ ../MotorControl\endstop.hpp:33:9
	and	r0, r0, #1
	.loc	21 33 9 epilogue_begin          @ ../MotorControl\endstop.hpp:33:9
	add	sp, #12
	bx	lr
.Ltmp75:
.Lfunc_end26:
	.size	_ZN7Endstop4roseEv, .Lfunc_end26-_ZN7Endstop4roseEv
	.cfi_endproc
	.cantunwind
	.fnend
                                        @ -- End function
	.section	.text._ZoRRN10ODriveIntf8AxisIntf5ErrorES1_,"axG",%progbits,_ZoRRN10ODriveIntf8AxisIntf5ErrorES1_,comdat
	.hidden	_ZoRRN10ODriveIntf8AxisIntf5ErrorES1_ @ -- Begin function _ZoRRN10ODriveIntf8AxisIntf5ErrorES1_
	.weak	_ZoRRN10ODriveIntf8AxisIntf5ErrorES1_
	.p2align	2
	.type	_ZoRRN10ODriveIntf8AxisIntf5ErrorES1_,%function
	.code	16                              @ @_ZoRRN10ODriveIntf8AxisIntf5ErrorES1_
	.thumb_func
_ZoRRN10ODriveIntf8AxisIntf5ErrorES1_:
.Lfunc_begin27:
	.loc	10 1183 0 is_stmt 1             @ ../../Firmware\autogen/interfaces.hpp:1183:0
	.fnstart
	.cfi_startproc
@ %bb.0:
	.pad	#8
	sub	sp, #8
	.cfi_def_cfa_offset 8
	str	r0, [sp, #4]
	str	r1, [sp]
.Ltmp76:
	.loc	10 1183 311 prologue_end        @ ../../Firmware\autogen/interfaces.hpp:1183:311
	ldr	r2, [sp]
	.loc	10 1183 240 is_stmt 0           @ ../../Firmware\autogen/interfaces.hpp:1183:240
	ldr	r0, [sp, #4]
	.loc	10 1183 243                     @ ../../Firmware\autogen/interfaces.hpp:1183:243
	ldr	r1, [r0]
	orrs	r1, r2
	str	r1, [r0]
	.loc	10 1183 115 epilogue_begin      @ ../../Firmware\autogen/interfaces.hpp:1183:115
	add	sp, #8
	bx	lr
.Ltmp77:
.Lfunc_end27:
	.size	_ZoRRN10ODriveIntf8AxisIntf5ErrorES1_, .Lfunc_end27-_ZoRRN10ODriveIntf8AxisIntf5ErrorES1_
	.cfi_endproc
	.cantunwind
	.fnend
                                        @ -- End function
	.section	.text._ZN4Axis16check_for_errorsEv,"axG",%progbits,_ZN4Axis16check_for_errorsEv,comdat
	.hidden	_ZN4Axis16check_for_errorsEv    @ -- Begin function _ZN4Axis16check_for_errorsEv
	.weak	_ZN4Axis16check_for_errorsEv
	.p2align	2
	.type	_ZN4Axis16check_for_errorsEv,%function
	.code	16                              @ @_ZN4Axis16check_for_errorsEv
	.thumb_func
_ZN4Axis16check_for_errorsEv:
.Lfunc_begin28:
	.loc	14 151 0 is_stmt 1              @ ../MotorControl\axis.hpp:151:0
	.fnstart
	.cfi_startproc
@ %bb.0:
	.pad	#4
	sub	sp, #4
	.cfi_def_cfa_offset 4
	str	r0, [sp]
	ldr	r0, [sp]
.Ltmp78:
	.loc	14 152 16 prologue_end          @ ../MotorControl\axis.hpp:152:16
	ldr.w	r0, [r0, #588]
	.loc	14 152 23 is_stmt 0             @ ../MotorControl\axis.hpp:152:23
	clz	r0, r0
	lsrs	r0, r0, #5
	.loc	14 152 9 epilogue_begin         @ ../MotorControl\axis.hpp:152:9
	add	sp, #4
	bx	lr
.Ltmp79:
.Lfunc_end28:
	.size	_ZN4Axis16check_for_errorsEv, .Lfunc_end28-_ZN4Axis16check_for_errorsEv
	.cfi_endproc
	.cantunwind
	.fnend
                                        @ -- End function
	.section	.text._ZN4Axis13watchdog_feedEv,"ax",%progbits
	.hidden	_ZN4Axis13watchdog_feedEv       @ -- Begin function _ZN4Axis13watchdog_feedEv
	.globl	_ZN4Axis13watchdog_feedEv
	.p2align	2
	.type	_ZN4Axis13watchdog_feedEv,%function
	.code	16                              @ @_ZN4Axis13watchdog_feedEv
	.thumb_func
_ZN4Axis13watchdog_feedEv:
.Lfunc_begin29:
	.loc	2 166 0 is_stmt 1               @ ../MotorControl/axis.cpp:166:0
	.fnstart
	.cfi_startproc
@ %bb.0:
	.save	{r7, lr}
	push	{r7, lr}
	.cfi_def_cfa_offset 8
	.cfi_offset lr, -4
	.cfi_offset r7, -8
	.pad	#8
	sub	sp, #8
	.cfi_def_cfa_offset 16
	str	r0, [sp, #4]
	ldr	r0, [sp, #4]
.Ltmp80:
	.loc	2 167 31 prologue_end           @ ../MotorControl/axis.cpp:167:31
	str	r0, [sp]                        @ 4-byte Spill
	bl	_ZN4Axis18get_watchdog_resetEv
	ldr	r1, [sp]                        @ 4-byte Reload
	.loc	2 167 29 is_stmt 0              @ ../MotorControl/axis.cpp:167:29
	str.w	r0, [r1, #688]
	.loc	2 168 1 epilogue_begin is_stmt 1 @ ../MotorControl/axis.cpp:168:1
	add	sp, #8
	pop	{r7, pc}
.Ltmp81:
.Lfunc_end29:
	.size	_ZN4Axis13watchdog_feedEv, .Lfunc_end29-_ZN4Axis13watchdog_feedEv
	.cfi_endproc
	.cantunwind
	.fnend
                                        @ -- End function
	.section	.text._ZN4Axis18get_watchdog_resetEv,"axG",%progbits,_ZN4Axis18get_watchdog_resetEv,comdat
	.hidden	_ZN4Axis18get_watchdog_resetEv  @ -- Begin function _ZN4Axis18get_watchdog_resetEv
	.weak	_ZN4Axis18get_watchdog_resetEv
	.p2align	2
	.type	_ZN4Axis18get_watchdog_resetEv,%function
	.code	16                              @ @_ZN4Axis18get_watchdog_resetEv
	.thumb_func
_ZN4Axis18get_watchdog_resetEv:
.Lfunc_begin30:
	.loc	14 163 0                        @ ../MotorControl\axis.hpp:163:0
	.fnstart
	.cfi_startproc
@ %bb.0:
	.save	{r7, lr}
	push	{r7, lr}
	.cfi_def_cfa_offset 8
	.cfi_offset lr, -4
	.cfi_offset r7, -8
	.pad	#16
	sub	sp, #16
	.cfi_def_cfa_offset 24
	str	r0, [sp, #12]
	ldr	r0, [sp, #12]
.Ltmp82:
	.loc	14 164 64 prologue_end          @ ../MotorControl\axis.hpp:164:64
	adds	r0, #24
	movs	r1, #0
	.loc	14 164 82 is_stmt 0             @ ../MotorControl\axis.hpp:164:82
	str	r1, [sp, #8]
	movw	r1, #3632
	movt	r1, #18691
	.loc	14 164 85                       @ ../MotorControl\axis.hpp:164:85
	str	r1, [sp, #4]
	add	r1, sp, #8
	add	r2, sp, #4
	.loc	14 164 38                       @ ../MotorControl\axis.hpp:164:38
	bl	_ZNSt3__25clampB7v180000IfEERKT_S3_S3_S3_
	vldr	s0, [r0]
	vldr	s2, .LCPI30_0
	.loc	14 164 121                      @ ../MotorControl\axis.hpp:164:121
	vmul.f32	s0, s0, s2
	.loc	14 164 38                       @ ../MotorControl\axis.hpp:164:38
	vcvt.u32.f32	s0, s0
	vmov	r0, s0
	.loc	14 164 9 epilogue_begin         @ ../MotorControl\axis.hpp:164:9
	add	sp, #16
	pop	{r7, pc}
.Ltmp83:
	.p2align	2
@ %bb.1:
	.loc	14 0 9                          @ ../MotorControl\axis.hpp:0:9
.LCPI30_0:
	.long	0x45fa0000                      @ float 8000
.Lfunc_end30:
	.size	_ZN4Axis18get_watchdog_resetEv, .Lfunc_end30-_ZN4Axis18get_watchdog_resetEv
	.cfi_endproc
	.cantunwind
	.fnend
                                        @ -- End function
	.section	.text._ZN4Axis14watchdog_checkEv,"ax",%progbits
	.hidden	_ZN4Axis14watchdog_checkEv      @ -- Begin function _ZN4Axis14watchdog_checkEv
	.globl	_ZN4Axis14watchdog_checkEv
	.p2align	2
	.type	_ZN4Axis14watchdog_checkEv,%function
	.code	16                              @ @_ZN4Axis14watchdog_checkEv
	.thumb_func
_ZN4Axis14watchdog_checkEv:
.Lfunc_begin31:
	.loc	2 171 0 is_stmt 1               @ ../MotorControl/axis.cpp:171:0
	.fnstart
	.cfi_startproc
@ %bb.0:
	.save	{r7, lr}
	push	{r7, lr}
	.cfi_def_cfa_offset 8
	.cfi_offset lr, -4
	.cfi_offset r7, -8
	.pad	#16
	sub	sp, #16
	.cfi_def_cfa_offset 24
	str	r0, [sp, #8]
	ldr	r0, [sp, #8]
.Ltmp84:
	.loc	2 172 18 prologue_end           @ ../MotorControl/axis.cpp:172:18
	str	r0, [sp, #4]                    @ 4-byte Spill
	ldrb	r0, [r0, #28]
.Ltmp85:
	.loc	2 172 9 is_stmt 0               @ ../MotorControl/axis.cpp:172:9
	lsls	r0, r0, #31
	cbnz	r0, .LBB31_2
	b	.LBB31_1
.LBB31_1:
	.loc	2 0 9                           @ ../MotorControl/axis.cpp:0:9
	movs	r0, #1
.Ltmp86:
	.loc	2 172 35                        @ ../MotorControl/axis.cpp:172:35
	strb.w	r0, [sp, #15]
	b	.LBB31_5
.Ltmp87:
.LBB31_2:
	.loc	2 175 9 is_stmt 1               @ ../MotorControl/axis.cpp:175:9
	ldr	r0, [sp, #4]                    @ 4-byte Reload
	ldr.w	r0, [r0, #688]
.Ltmp88:
	.loc	2 175 9 is_stmt 0               @ ../MotorControl/axis.cpp:175:9
	cbz	r0, .LBB31_4
	b	.LBB31_3
.LBB31_3:
.Ltmp89:
	.loc	2 176 32 is_stmt 1              @ ../MotorControl/axis.cpp:176:32
	ldr	r1, [sp, #4]                    @ 4-byte Reload
	ldr.w	r0, [r1, #688]
	subs	r0, #1
	str.w	r0, [r1, #688]
	movs	r0, #1
	.loc	2 177 9                         @ ../MotorControl/axis.cpp:177:9
	strb.w	r0, [sp, #15]
	b	.LBB31_5
.Ltmp90:
.LBB31_4:
	.loc	2 179 9                         @ ../MotorControl/axis.cpp:179:9
	ldr	r0, [sp, #4]                    @ 4-byte Reload
	add.w	r0, r0, #588
	mov.w	r1, #2048
	.loc	2 179 16 is_stmt 0              @ ../MotorControl/axis.cpp:179:16
	bl	_ZoRRN10ODriveIntf8AxisIntf5ErrorES1_
	movs	r0, #0
	.loc	2 180 9 is_stmt 1               @ ../MotorControl/axis.cpp:180:9
	strb.w	r0, [sp, #15]
	b	.LBB31_5
.Ltmp91:
.LBB31_5:
	.loc	2 182 1                         @ ../MotorControl/axis.cpp:182:1
	ldrb.w	r0, [sp, #15]
	.loc	2 182 1 epilogue_begin is_stmt 0 @ ../MotorControl/axis.cpp:182:1
	add	sp, #16
	pop	{r7, pc}
.Ltmp92:
.Lfunc_end31:
	.size	_ZN4Axis14watchdog_checkEv, .Lfunc_end31-_ZN4Axis14watchdog_checkEv
	.cfi_endproc
	.cantunwind
	.fnend
                                        @ -- End function
	.section	.text._ZN4Axis15run_lockin_spinERKNS_14LockinConfig_tEbNSt3__28functionIFbbEEE,"ax",%progbits
	.hidden	_ZN4Axis15run_lockin_spinERKNS_14LockinConfig_tEbNSt3__28functionIFbbEEE @ -- Begin function _ZN4Axis15run_lockin_spinERKNS_14LockinConfig_tEbNSt3__28functionIFbbEEE
	.globl	_ZN4Axis15run_lockin_spinERKNS_14LockinConfig_tEbNSt3__28functionIFbbEEE
	.p2align	2
	.type	_ZN4Axis15run_lockin_spinERKNS_14LockinConfig_tEbNSt3__28functionIFbbEEE,%function
	.code	16                              @ @_ZN4Axis15run_lockin_spinERKNS_14LockinConfig_tEbNSt3__28functionIFbbEEE
	.thumb_func
_ZN4Axis15run_lockin_spinERKNS_14LockinConfig_tEbNSt3__28functionIFbbEEE:
.Lfunc_begin32:
	.loc	2 185 0 is_stmt 1               @ ../MotorControl/axis.cpp:185:0
	.fnstart
	.cfi_startproc
@ %bb.0:
	.save	{r7, lr}
	push	{r7, lr}
	.cfi_def_cfa_offset 8
	.cfi_offset lr, -4
	.cfi_offset r7, -8
	.pad	#168
	sub	sp, #168
	.cfi_def_cfa_offset 176
	add.w	r12, sp, #104
	str.w	r12, [sp, #56]                  @ 4-byte Spill
	str	r3, [sp, #60]                   @ 4-byte Spill
                                        @ kill: def $r12 killed $r2
	str	r0, [sp, #164]
	str	r1, [sp, #160]
	strb.w	r2, [sp, #159]
	str	r3, [sp, #152]
	ldr	r0, [sp, #164]
.Ltmp93:
	.loc	2 186 5 prologue_end            @ ../MotorControl/axis.cpp:186:5
	str	r0, [sp, #64]                   @ 4-byte Spill
	add	r0, sp, #144
	bl	_ZN22CriticalSectionContextC2Ev
	b	.LBB32_1
.LBB32_1:                               @ =>This Inner Loop Header: Depth=1
.Ltmp94:
	.loc	2 186 5 is_stmt 0               @ ../MotorControl/axis.cpp:186:5
	ldrb.w	r0, [sp, #148]
.Ltmp95:
	.loc	2 186 5                         @ ../MotorControl/axis.cpp:186:5
	lsls	r0, r0, #31
	cbz	r0, .LBB32_3
	b	.LBB32_2
.LBB32_2:
	.loc	2 0 5                           @ ../MotorControl/axis.cpp:0:5
	add	r0, sp, #144
.Ltmp96:
	.loc	2 186 5                         @ ../MotorControl/axis.cpp:186:5
	bl	_ZN22CriticalSectionContextD2Ev
	b	.LBB32_11
.LBB32_3:                               @   in Loop: Header=BB32_1 Depth=1
	.loc	2 0 5                           @ ../MotorControl/axis.cpp:0:5
	movs	r0, #0
.Ltmp97:
	.loc	2 188 48 is_stmt 1              @ ../MotorControl/axis.cpp:188:48
	str	r0, [sp, #48]                   @ 4-byte Spill
	str	r0, [sp, #132]
	.loc	2 188 54 is_stmt 0              @ ../MotorControl/axis.cpp:188:54
	str	r0, [sp, #128]
	add	r0, sp, #136
	add	r1, sp, #132
	add	r2, sp, #128
	.loc	2 188 47                        @ ../MotorControl/axis.cpp:188:47
	bl	_ZNSt3__24pairIffEC2B7v180000IffLi0EEEOT_OT0_
	ldr	r0, [sp, #64]                   @ 4-byte Reload
	ldr	r1, [sp, #56]                   @ 4-byte Reload
	.loc	2 188 31                        @ ../MotorControl/axis.cpp:188:31
	add.w	r0, r0, #296
	.loc	2 188 45                        @ ../MotorControl/axis.cpp:188:45
	vldr	s0, [r1, #32]
	vldr	s1, [r1, #36]
	bl	_ZN10OutputPortINSt3__24pairIffEEEaSES2_
	ldr	r0, [sp, #48]                   @ 4-byte Reload
	.loc	2 189 48 is_stmt 1              @ ../MotorControl/axis.cpp:189:48
	str	r0, [sp, #116]
	.loc	2 189 54 is_stmt 0              @ ../MotorControl/axis.cpp:189:54
	str	r0, [sp, #112]
	add	r0, sp, #120
	add	r1, sp, #116
	add	r2, sp, #112
	.loc	2 189 47                        @ ../MotorControl/axis.cpp:189:47
	bl	_ZNSt3__24pairIffEC2B7v180000IffLi0EEEOT_OT0_
	ldr	r0, [sp, #64]                   @ 4-byte Reload
	ldr	r1, [sp, #56]                   @ 4-byte Reload
	.loc	2 189 31                        @ ../MotorControl/axis.cpp:189:31
	add.w	r0, r0, #308
	.loc	2 189 45                        @ ../MotorControl/axis.cpp:189:45
	vldr	s0, [r1, #16]
	vldr	s1, [r1, #20]
	bl	_ZN10OutputPortINSt3__24pairIffEEEaSES2_
	ldr	r0, [sp, #64]                   @ 4-byte Reload
	.loc	2 190 31 is_stmt 1              @ ../MotorControl/axis.cpp:190:31
	add.w	r0, r0, #320
	vldr	s0, .LCPI32_0
	vstr	s0, [sp, #52]                   @ 4-byte Spill
	.loc	2 190 38 is_stmt 0              @ ../MotorControl/axis.cpp:190:38
	bl	_ZN10OutputPortIfEaSEf
	vldr	s0, [sp, #52]                   @ 4-byte Reload
	ldr	r0, [sp, #64]                   @ 4-byte Reload
	.loc	2 191 31 is_stmt 1              @ ../MotorControl/axis.cpp:191:31
	add.w	r0, r0, #328
	.loc	2 191 42 is_stmt 0              @ ../MotorControl/axis.cpp:191:42
	bl	_ZN10OutputPortIfEaSEf
	ldr	r0, [sp, #64]                   @ 4-byte Reload
	.loc	2 193 51 is_stmt 1              @ ../MotorControl/axis.cpp:193:51
	ldr	r1, [sp, #160]
	.loc	2 193 65 is_stmt 0              @ ../MotorControl/axis.cpp:193:65
	vldr	s0, [r1]
	.loc	2 193 89                        @ ../MotorControl/axis.cpp:193:89
	vldr	s2, [r1, #4]
	.loc	2 193 73                        @ ../MotorControl/axis.cpp:193:73
	vdiv.f32	s0, s0, s2
	.loc	2 193 49                        @ ../MotorControl/axis.cpp:193:49
	vstr	s0, [r0, #264]
	.loc	2 194 51 is_stmt 1              @ ../MotorControl/axis.cpp:194:51
	ldr	r1, [sp, #160]
	.loc	2 194 65 is_stmt 0              @ ../MotorControl/axis.cpp:194:65
	vldr	s0, [r1]
	.loc	2 194 89                        @ ../MotorControl/axis.cpp:194:89
	vldr	s2, [r1, #4]
	.loc	2 194 73                        @ ../MotorControl/axis.cpp:194:73
	vdiv.f32	s0, s0, s2
	.loc	2 194 49                        @ ../MotorControl/axis.cpp:194:49
	vstr	s0, [r0, #268]
	.loc	2 195 53 is_stmt 1              @ ../MotorControl/axis.cpp:195:53
	ldr	r1, [sp, #160]
	.loc	2 195 67 is_stmt 0              @ ../MotorControl/axis.cpp:195:67
	ldr	r1, [r1, #12]
	.loc	2 195 51                        @ ../MotorControl/axis.cpp:195:51
	str.w	r1, [r0, #272]
	.loc	2 196 49 is_stmt 1              @ ../MotorControl/axis.cpp:196:49
	ldr.w	r0, [r0, #344]
	.loc	2 196 64 is_stmt 0              @ ../MotorControl/axis.cpp:196:64
	ldrb.w	r0, [r0, #56]
	.loc	2 196 49                        @ ../MotorControl/axis.cpp:196:49
	cmp	r0, #2
	beq	.LBB32_5
	b	.LBB32_4
.LBB32_4:                               @   in Loop: Header=BB32_1 Depth=1
	.loc	2 196 105                       @ ../MotorControl/axis.cpp:196:105
	ldr	r0, [sp, #160]
	.loc	2 196 119                       @ ../MotorControl/axis.cpp:196:119
	vldr	s0, [r0]
	vstr	s0, [sp, #44]                   @ 4-byte Spill
	.loc	2 196 49                        @ ../MotorControl/axis.cpp:196:49
	b	.LBB32_6
.LBB32_5:                               @   in Loop: Header=BB32_1 Depth=1
	.loc	2 0 49                          @ ../MotorControl/axis.cpp:0:49
	vldr	s0, .LCPI32_0
	vstr	s0, [sp, #44]                   @ 4-byte Spill
	.loc	2 196 49                        @ ../MotorControl/axis.cpp:196:49
	b	.LBB32_6
.LBB32_6:                               @   in Loop: Header=BB32_1 Depth=1
	ldr	r0, [sp, #64]                   @ 4-byte Reload
	vldr	s0, [sp, #44]                   @ 4-byte Reload
	.loc	2 196 47                        @ ../MotorControl/axis.cpp:196:47
	vstr	s0, [r0, #280]
	.loc	2 197 49 is_stmt 1              @ ../MotorControl/axis.cpp:197:49
	ldr.w	r0, [r0, #344]
	.loc	2 197 64 is_stmt 0              @ ../MotorControl/axis.cpp:197:64
	ldrb.w	r0, [r0, #56]
	.loc	2 197 49                        @ ../MotorControl/axis.cpp:197:49
	cmp	r0, #2
	beq	.LBB32_8
	b	.LBB32_7
.LBB32_7:                               @   in Loop: Header=BB32_1 Depth=1
	.loc	2 0 49                          @ ../MotorControl/axis.cpp:0:49
	vldr	s0, .LCPI32_0
	vstr	s0, [sp, #40]                   @ 4-byte Spill
	.loc	2 197 49                        @ ../MotorControl/axis.cpp:197:49
	b	.LBB32_9
.LBB32_8:                               @   in Loop: Header=BB32_1 Depth=1
	.loc	2 197 112                       @ ../MotorControl/axis.cpp:197:112
	ldr	r0, [sp, #160]
	.loc	2 197 126                       @ ../MotorControl/axis.cpp:197:126
	vldr	s0, [r0]
	vstr	s0, [sp, #40]                   @ 4-byte Spill
	.loc	2 197 49                        @ ../MotorControl/axis.cpp:197:49
	b	.LBB32_9
.LBB32_9:                               @   in Loop: Header=BB32_1 Depth=1
	ldr	r0, [sp, #64]                   @ 4-byte Reload
	vldr	s0, [sp, #40]                   @ 4-byte Reload
	.loc	2 197 47                        @ ../MotorControl/axis.cpp:197:47
	vstr	s0, [r0, #284]
	.loc	2 198 45 is_stmt 1              @ ../MotorControl/axis.cpp:198:45
	ldr	r1, [sp, #160]
	.loc	2 198 59 is_stmt 0              @ ../MotorControl/axis.cpp:198:59
	ldr	r1, [r1, #16]
	.loc	2 198 43                        @ ../MotorControl/axis.cpp:198:43
	str.w	r1, [r0, #276]
	.loc	2 199 31 is_stmt 1              @ ../MotorControl/axis.cpp:199:31
	add.w	r0, r0, #336
	vldr	s0, .LCPI32_0
	.loc	2 199 47 is_stmt 0              @ ../MotorControl/axis.cpp:199:47
	bl	_ZN10OutputPortIfEaSEf
	ldr	r1, [sp, #64]                   @ 4-byte Reload
	.loc	2 201 63 is_stmt 1              @ ../MotorControl/axis.cpp:201:63
	ldr.w	r2, [r1, #344]
	.loc	2 201 78 is_stmt 0              @ ../MotorControl/axis.cpp:201:78
	ldrb.w	r0, [r2, #56]
	.loc	2 201 89                        @ ../MotorControl/axis.cpp:201:89
	subs	r0, #2
	it	ne
	movne	r0, #1
	.loc	2 201 61                        @ ../MotorControl/axis.cpp:201:61
	strb.w	r0, [r2, #232]
	.loc	2 202 9 is_stmt 1               @ ../MotorControl/axis.cpp:202:9
	ldr.w	r0, [r1, #344]
	.loc	2 202 33 is_stmt 0              @ ../MotorControl/axis.cpp:202:33
	adds	r0, #236
	.loc	2 202 85                        @ ../MotorControl/axis.cpp:202:85
	add.w	r1, r1, #296
	.loc	2 202 51                        @ ../MotorControl/axis.cpp:202:51
	bl	_ZN9InputPortINSt3__24pairIffEEE10connect_toEP10OutputPortIS2_E
	ldr	r1, [sp, #64]                   @ 4-byte Reload
	.loc	2 203 9 is_stmt 1               @ ../MotorControl/axis.cpp:203:9
	ldr.w	r0, [r1, #344]
	.loc	2 203 33 is_stmt 0              @ ../MotorControl/axis.cpp:203:33
	adds	r0, #248
	.loc	2 203 85                        @ ../MotorControl/axis.cpp:203:85
	add.w	r1, r1, #308
	.loc	2 203 51                        @ ../MotorControl/axis.cpp:203:51
	bl	_ZN9InputPortINSt3__24pairIffEEE10connect_toEP10OutputPortIS2_E
	ldr	r1, [sp, #64]                   @ 4-byte Reload
	.loc	2 205 9 is_stmt 1               @ ../MotorControl/axis.cpp:205:9
	ldr.w	r0, [r1, #344]
	.loc	2 205 33 is_stmt 0              @ ../MotorControl/axis.cpp:205:33
	add.w	r0, r0, #260
	.loc	2 205 78                        @ ../MotorControl/axis.cpp:205:78
	add.w	r1, r1, #320
	.loc	2 205 44                        @ ../MotorControl/axis.cpp:205:44
	str	r1, [sp, #32]                   @ 4-byte Spill
	bl	_ZN9InputPortIfE10connect_toEP10OutputPortIfE
	ldr	r1, [sp, #32]                   @ 4-byte Reload
	ldr	r0, [sp, #64]                   @ 4-byte Reload
	.loc	2 206 25 is_stmt 1              @ ../MotorControl/axis.cpp:206:25
	adds	r0, #184
	.loc	2 206 42 is_stmt 0              @ ../MotorControl/axis.cpp:206:42
	bl	_ZN9InputPortIfE10connect_toEP10OutputPortIfE
	ldr	r1, [sp, #64]                   @ 4-byte Reload
	.loc	2 208 9 is_stmt 1               @ ../MotorControl/axis.cpp:208:9
	ldr.w	r0, [r1, #344]
	.loc	2 208 16 is_stmt 0              @ ../MotorControl/axis.cpp:208:16
	add.w	r0, r0, #396
	.loc	2 208 65                        @ ../MotorControl/axis.cpp:208:65
	add.w	r1, r1, #328
	.loc	2 208 31                        @ ../MotorControl/axis.cpp:208:31
	str	r1, [sp, #36]                   @ 4-byte Spill
	bl	_ZN9InputPortIfE10connect_toEP10OutputPortIfE
	ldr	r0, [sp, #64]                   @ 4-byte Reload
	ldr	r1, [sp, #36]                   @ 4-byte Reload
	.loc	2 209 9 is_stmt 1               @ ../MotorControl/axis.cpp:209:9
	ldr.w	r0, [r0, #344]
	.loc	2 209 33 is_stmt 0              @ ../MotorControl/axis.cpp:209:33
	add.w	r0, r0, #268
	.loc	2 209 48                        @ ../MotorControl/axis.cpp:209:48
	bl	_ZN9InputPortIfE10connect_toEP10OutputPortIfE
	ldr	r0, [sp, #64]                   @ 4-byte Reload
	ldr	r1, [sp, #36]                   @ 4-byte Reload
	.loc	2 210 25 is_stmt 1              @ ../MotorControl/axis.cpp:210:25
	adds	r0, #192
	.loc	2 210 46 is_stmt 0              @ ../MotorControl/axis.cpp:210:46
	bl	_ZN9InputPortIfE10connect_toEP10OutputPortIfE
	.loc	2 211 5 is_stmt 1               @ ../MotorControl/axis.cpp:211:5
	b	.LBB32_10
.Ltmp98:
.LBB32_10:                              @   in Loop: Header=BB32_1 Depth=1
	.loc	2 0 5 is_stmt 0                 @ ../MotorControl/axis.cpp:0:5
	movs	r0, #1
	.loc	2 186 5 is_stmt 1               @ ../MotorControl/axis.cpp:186:5
	strb.w	r0, [sp, #148]
	b	.LBB32_1
.Ltmp99:
.LBB32_11:
	.loc	2 212 5                         @ ../MotorControl/axis.cpp:212:5
	ldr	r0, [sp, #64]                   @ 4-byte Reload
	bl	_ZN4Axis26wait_for_control_iterationEv
                                        @ kill: def $r1 killed $r0
	.loc	2 214 5                         @ ../MotorControl/axis.cpp:214:5
	ldr	r0, [sp, #64]                   @ 4-byte Reload
	ldr.w	r0, [r0, #344]
	.loc	2 214 24 is_stmt 0              @ ../MotorControl/axis.cpp:214:24
	add.w	r1, r0, #208
	.loc	2 214 12                        @ ../MotorControl/axis.cpp:214:12
	bl	_ZN5Motor3armEP15PhaseControlLawILj3EE
                                        @ kill: def $r1 killed $r0
	ldr	r0, [sp, #56]                   @ 4-byte Reload
	movs	r1, #0
	.loc	2 216 10 is_stmt 1              @ ../MotorControl/axis.cpp:216:10
	strb.w	r1, [sp, #111]
	.loc	2 217 10                        @ ../MotorControl/axis.cpp:217:10
	strb.w	r1, [sp, #110]
	.loc	2 218 17                        @ ../MotorControl/axis.cpp:218:17
	ldr	r1, [sp, #160]
	.loc	2 218 31 is_stmt 0              @ ../MotorControl/axis.cpp:218:31
	vldr	s4, [r1, #16]
	vmov.f32	s2, #1.000000e+00
	vmov.f32	s0, #-1.000000e+00
	.loc	2 218 17                        @ ../MotorControl/axis.cpp:218:17
	vcmp.f32	s4, #0
	vmrs	APSR_nzcv, fpscr
	it	ge
	vmovge.f32	s0, s2
	.loc	2 218 11                        @ ../MotorControl/axis.cpp:218:11
	vstr	s0, [r0]
	.loc	2 220 5 is_stmt 1               @ ../MotorControl/axis.cpp:220:5
	b	.LBB32_12
.LBB32_12:                              @ =>This Inner Loop Header: Depth=1
	.loc	2 220 13 is_stmt 0              @ ../MotorControl/axis.cpp:220:13
	ldr	r0, [sp, #64]                   @ 4-byte Reload
	ldrb.w	r1, [r0, #628]
	movs	r0, #0
	.loc	2 220 55                        @ ../MotorControl/axis.cpp:220:55
	str	r0, [sp, #28]                   @ 4-byte Spill
	cbnz	r1, .LBB32_14
	b	.LBB32_13
.LBB32_13:                              @   in Loop: Header=BB32_12 Depth=1
	.loc	2 220 58                        @ ../MotorControl/axis.cpp:220:58
	ldr	r0, [sp, #64]                   @ 4-byte Reload
	ldr.w	r0, [r0, #344]
	.loc	2 220 65                        @ ../MotorControl/axis.cpp:220:65
	ldrb.w	r0, [r0, #164]
	str	r0, [sp, #28]                   @ 4-byte Spill
	b	.LBB32_14
.LBB32_14:                              @   in Loop: Header=BB32_12 Depth=1
	.loc	2 0 0                           @ ../MotorControl/axis.cpp:0:0
	ldr	r0, [sp, #28]                   @ 4-byte Reload
	.loc	2 220 5                         @ ../MotorControl/axis.cpp:220:5
	lsls	r0, r0, #31
	cmp	r0, #0
	beq.w	.LBB32_33
	b	.LBB32_15
.LBB32_15:                              @   in Loop: Header=BB32_12 Depth=1
.Ltmp100:
	.loc	2 221 66 is_stmt 1              @ ../MotorControl/axis.cpp:221:66
	ldr	r0, [sp, #64]                   @ 4-byte Reload
	add.w	r1, r0, #328
	add	r0, sp, #92
	.loc	2 221 77 is_stmt 0              @ ../MotorControl/axis.cpp:221:77
	str	r0, [sp, #12]                   @ 4-byte Spill
	bl	_ZN10OutputPortIfE3anyEv
	ldr	r0, [sp, #12]                   @ 4-byte Reload
	movs	r1, #0
	.loc	2 221 92                        @ ../MotorControl/axis.cpp:221:92
	str	r1, [sp, #24]                   @ 4-byte Spill
	str	r1, [sp, #88]
	add	r1, sp, #88
	.loc	2 221 83                        @ ../MotorControl/axis.cpp:221:83
	bl	_ZNOSt3__28optionalIfE8value_orB7v180000IfEEfOT_
	.loc	2 221 100                       @ ../MotorControl/axis.cpp:221:100
	ldr	r0, [sp, #160]
	.loc	2 221 114                       @ ../MotorControl/axis.cpp:221:114
	vldr	s2, [r0, #16]
	.loc	2 221 98                        @ ../MotorControl/axis.cpp:221:98
	vsub.f32	s0, s0, s2
	.loc	2 221 35                        @ ../MotorControl/axis.cpp:221:35
	bl	_Z3absB7v180000f
	vstr	s0, [sp, #16]                   @ 4-byte Spill
	.loc	2 221 122                       @ ../MotorControl/axis.cpp:221:122
	bl	_ZNSt3__214numeric_limitsIfE7epsilonB7v180000Ev
	ldr	r0, [sp, #64]                   @ 4-byte Reload
	ldr	r1, [sp, #24]                   @ 4-byte Reload
	vmov.f32	s2, s0
	.loc	2 221 119                       @ ../MotorControl/axis.cpp:221:119
	vldr	s0, [sp, #16]                   @ 4-byte Reload
	vcmp.f32	s0, s2
	vmrs	APSR_nzcv, fpscr
	it	le
	movle	r1, #1
	.loc	2 221 14                        @ ../MotorControl/axis.cpp:221:14
	strb.w	r1, [sp, #103]
	.loc	2 222 58 is_stmt 1              @ ../MotorControl/axis.cpp:222:58
	add.w	r1, r0, #336
	add	r0, sp, #76
	.loc	2 222 74 is_stmt 0              @ ../MotorControl/axis.cpp:222:74
	str	r0, [sp, #20]                   @ 4-byte Spill
	bl	_ZN10OutputPortIfE3anyEv
	ldr	r0, [sp, #20]                   @ 4-byte Reload
	ldr	r1, [sp, #24]                   @ 4-byte Reload
	.loc	2 222 89                        @ ../MotorControl/axis.cpp:222:89
	str	r1, [sp, #72]
	add	r1, sp, #72
	.loc	2 222 80                        @ ../MotorControl/axis.cpp:222:80
	bl	_ZNOSt3__28optionalIfE8value_orB7v180000IfEEfOT_
	ldr	r1, [sp, #56]                   @ 4-byte Reload
	ldr	r0, [sp, #24]                   @ 4-byte Reload
	.loc	2 222 97                        @ ../MotorControl/axis.cpp:222:97
	vldr	s4, [r1]
	.loc	2 222 95                        @ ../MotorControl/axis.cpp:222:95
	vmul.f32	s0, s0, s4
	.loc	2 222 104                       @ ../MotorControl/axis.cpp:222:104
	ldr	r1, [sp, #160]
	.loc	2 222 118                       @ ../MotorControl/axis.cpp:222:118
	vldr	s2, [r1, #20]
	.loc	2 222 134                       @ ../MotorControl/axis.cpp:222:134
	vmul.f32	s2, s2, s4
	.loc	2 222 101                       @ ../MotorControl/axis.cpp:222:101
	vcmp.f32	s0, s2
	vmrs	APSR_nzcv, fpscr
	it	ge
	movge	r0, #1
	.loc	2 222 14                        @ ../MotorControl/axis.cpp:222:14
	strb.w	r0, [sp, #87]
	.loc	2 225 36 is_stmt 1              @ ../MotorControl/axis.cpp:225:36
	ldrb.w	r0, [sp, #103]
	.loc	2 225 55 is_stmt 0              @ ../MotorControl/axis.cpp:225:55
	lsls	r0, r0, #31
	cbz	r0, .LBB32_17
	b	.LBB32_16
.LBB32_16:                              @   in Loop: Header=BB32_12 Depth=1
	.loc	2 225 58                        @ ../MotorControl/axis.cpp:225:58
	ldr	r0, [sp, #160]
	.loc	2 225 72                        @ ../MotorControl/axis.cpp:225:72
	ldrb	r1, [r0, #24]
	movs	r0, #1
	.loc	2 226 32 is_stmt 1              @ ../MotorControl/axis.cpp:226:32
	lsls	r1, r1, #31
	str	r0, [sp, #8]                    @ 4-byte Spill
	cbnz	r1, .LBB32_22
	b	.LBB32_17
.LBB32_17:                              @   in Loop: Header=BB32_12 Depth=1
	.loc	2 226 36 is_stmt 0              @ ../MotorControl/axis.cpp:226:36
	ldrb.w	r0, [sp, #87]
	.loc	2 226 56                        @ ../MotorControl/axis.cpp:226:56
	lsls	r0, r0, #31
	cbz	r0, .LBB32_19
	b	.LBB32_18
.LBB32_18:                              @   in Loop: Header=BB32_12 Depth=1
	.loc	2 226 59                        @ ../MotorControl/axis.cpp:226:59
	ldr	r0, [sp, #160]
	.loc	2 226 73                        @ ../MotorControl/axis.cpp:226:73
	ldrb	r1, [r0, #25]
	movs	r0, #1
	.loc	2 227 32 is_stmt 1              @ ../MotorControl/axis.cpp:227:32
	lsls	r1, r1, #31
	str	r0, [sp, #8]                    @ 4-byte Spill
	cbnz	r1, .LBB32_22
	b	.LBB32_19
.LBB32_19:                              @   in Loop: Header=BB32_12 Depth=1
	.loc	2 227 36 is_stmt 0              @ ../MotorControl/axis.cpp:227:36
	ldr	r0, [sp, #64]                   @ 4-byte Reload
	ldr.w	r0, [r0, #172]
	.loc	2 227 45                        @ ../MotorControl/axis.cpp:227:45
	ldrb.w	r1, [r0, #142]
	movs	r0, #0
	.loc	2 227 58                        @ ../MotorControl/axis.cpp:227:58
	lsls	r1, r1, #31
	str	r0, [sp, #4]                    @ 4-byte Spill
	cbz	r1, .LBB32_21
	b	.LBB32_20
.LBB32_20:                              @   in Loop: Header=BB32_12 Depth=1
	.loc	2 227 61                        @ ../MotorControl/axis.cpp:227:61
	ldr	r0, [sp, #160]
	.loc	2 227 75                        @ ../MotorControl/axis.cpp:227:75
	ldrb	r0, [r0, #26]
	str	r0, [sp, #4]                    @ 4-byte Spill
	b	.LBB32_21
.LBB32_21:                              @   in Loop: Header=BB32_12 Depth=1
	.loc	2 0 0                           @ ../MotorControl/axis.cpp:0:0
	ldr	r0, [sp, #4]                    @ 4-byte Reload
	.loc	2 227 32                        @ ../MotorControl/axis.cpp:227:32
	str	r0, [sp, #8]                    @ 4-byte Spill
	b	.LBB32_22
.LBB32_22:                              @   in Loop: Header=BB32_12 Depth=1
	.loc	2 0 32                          @ ../MotorControl/axis.cpp:0:32
	ldr	r0, [sp, #8]                    @ 4-byte Reload
	.loc	2 225 14 is_stmt 1              @ ../MotorControl/axis.cpp:225:14
	and	r0, r0, #1
	strb.w	r0, [sp, #71]
.Ltmp101:
	.loc	2 228 13                        @ ../MotorControl/axis.cpp:228:13
	ldrb.w	r0, [sp, #71]
.Ltmp102:
	.loc	2 228 13 is_stmt 0              @ ../MotorControl/axis.cpp:228:13
	lsls	r0, r0, #31
	cbz	r0, .LBB32_24
	b	.LBB32_23
.LBB32_23:
	.loc	2 0 13                          @ ../MotorControl/axis.cpp:0:13
	movs	r0, #1
.Ltmp103:
	.loc	2 229 21 is_stmt 1              @ ../MotorControl/axis.cpp:229:21
	strb.w	r0, [sp, #110]
	.loc	2 230 13                        @ ../MotorControl/axis.cpp:230:13
	b	.LBB32_33
.Ltmp104:
.LBB32_24:                              @   in Loop: Header=BB32_12 Depth=1
	.loc	2 235 13                        @ ../MotorControl/axis.cpp:235:13
	ldrb.w	r0, [sp, #103]
	.loc	2 235 32 is_stmt 0              @ ../MotorControl/axis.cpp:235:32
	lsls	r0, r0, #31
	cbz	r0, .LBB32_28
	b	.LBB32_25
.LBB32_25:                              @   in Loop: Header=BB32_12 Depth=1
	.loc	2 235 36                        @ ../MotorControl/axis.cpp:235:36
	ldr	r0, [sp, #64]                   @ 4-byte Reload
	ldr.w	r0, [r0, #172]
	.loc	2 235 45                        @ ../MotorControl/axis.cpp:235:45
	ldrb.w	r0, [r0, #142]
	.loc	2 235 58                        @ ../MotorControl/axis.cpp:235:58
	lsls	r0, r0, #31
	cbnz	r0, .LBB32_28
	b	.LBB32_26
.LBB32_26:                              @   in Loop: Header=BB32_12 Depth=1
	.loc	2 235 62                        @ ../MotorControl/axis.cpp:235:62
	ldrb.w	r0, [sp, #111]
.Ltmp105:
	.loc	2 235 13                        @ ../MotorControl/axis.cpp:235:13
	lsls	r0, r0, #31
	cbnz	r0, .LBB32_28
	b	.LBB32_27
.LBB32_27:                              @   in Loop: Header=BB32_12 Depth=1
.Ltmp106:
	.loc	2 236 13 is_stmt 1              @ ../MotorControl/axis.cpp:236:13
	ldr	r0, [sp, #64]                   @ 4-byte Reload
	ldr.w	r0, [r0, #172]
	movs	r1, #1
	.loc	2 236 22 is_stmt 0              @ ../MotorControl/axis.cpp:236:22
	str	r1, [sp]                        @ 4-byte Spill
	bl	_ZN7Encoder17set_idx_subscribeEb
	ldr	r0, [sp]                        @ 4-byte Reload
	.loc	2 237 36 is_stmt 1              @ ../MotorControl/axis.cpp:237:36
	strb.w	r0, [sp, #111]
	.loc	2 238 9                         @ ../MotorControl/axis.cpp:238:9
	b	.LBB32_28
.Ltmp107:
.LBB32_28:                              @   in Loop: Header=BB32_12 Depth=1
	.loc	2 240 13                        @ ../MotorControl/axis.cpp:240:13
	ldr	r0, [sp, #60]                   @ 4-byte Reload
	bl	_ZNKSt3__28functionIFbbEEcvbB7v180000Ev
.Ltmp108:
	.loc	2 240 13 is_stmt 0              @ ../MotorControl/axis.cpp:240:13
	cbz	r0, .LBB32_32
	b	.LBB32_29
.LBB32_29:                              @   in Loop: Header=BB32_12 Depth=1
.Ltmp109:
	.loc	2 241 18 is_stmt 1              @ ../MotorControl/axis.cpp:241:18
	ldr	r0, [sp, #60]                   @ 4-byte Reload
	ldrb.w	r1, [sp, #103]
	and	r1, r1, #1
	bl	_ZNKSt3__28functionIFbbEEclEb
.Ltmp110:
	.loc	2 241 17 is_stmt 0              @ ../MotorControl/axis.cpp:241:17
	cbnz	r0, .LBB32_31
	b	.LBB32_30
.LBB32_30:
.Ltmp111:
	.loc	2 242 17 is_stmt 1              @ ../MotorControl/axis.cpp:242:17
	b	.LBB32_33
.LBB32_31:                              @   in Loop: Header=BB32_12 Depth=1
	.loc	2 241 44                        @ ../MotorControl/axis.cpp:241:44
	b	.LBB32_32
.Ltmp112:
.LBB32_32:                              @   in Loop: Header=BB32_12 Depth=1
	.loc	2 245 9                         @ ../MotorControl/axis.cpp:245:9
	@APP
	@NO_APP
	movs	r0, #1
	.loc	2 246 9                         @ ../MotorControl/axis.cpp:246:9
	bl	osDelay
.Ltmp113:
	.loc	2 220 5                         @ ../MotorControl/axis.cpp:220:5
	b	.LBB32_12
.LBB32_33:
.Ltmp114:
	.loc	2 249 10                        @ ../MotorControl/axis.cpp:249:10
	ldrb.w	r0, [sp, #110]
	.loc	2 249 18 is_stmt 0              @ ../MotorControl/axis.cpp:249:18
	lsls	r0, r0, #31
	cbz	r0, .LBB32_35
	b	.LBB32_34
.LBB32_34:
	.loc	2 249 22                        @ ../MotorControl/axis.cpp:249:22
	ldrb.w	r0, [sp, #159]
.Ltmp115:
	.loc	2 249 9                         @ ../MotorControl/axis.cpp:249:9
	lsls	r0, r0, #31
	cbnz	r0, .LBB32_36
	b	.LBB32_35
.LBB32_35:
.Ltmp116:
	.loc	2 250 9 is_stmt 1               @ ../MotorControl/axis.cpp:250:9
	ldr	r0, [sp, #64]                   @ 4-byte Reload
	ldr.w	r0, [r0, #344]
	movs	r1, #0
	.loc	2 250 16 is_stmt 0              @ ../MotorControl/axis.cpp:250:16
	bl	_ZN5Motor6disarmEPb
	.loc	2 251 5 is_stmt 1               @ ../MotorControl/axis.cpp:251:5
	b	.LBB32_36
.Ltmp117:
.LBB32_36:
	.loc	2 253 5                         @ ../MotorControl/axis.cpp:253:5
	ldrb.w	r0, [sp, #110]
	and	r0, r0, #1
	.loc	2 253 5 epilogue_begin is_stmt 0 @ ../MotorControl/axis.cpp:253:5
	add	sp, #168
	pop	{r7, pc}
.Ltmp118:
	.p2align	2
@ %bb.37:
	.loc	2 0 5                           @ ../MotorControl/axis.cpp:0:5
.LCPI32_0:
	.long	0x00000000                      @ float 0
.Lfunc_end32:
	.size	_ZN4Axis15run_lockin_spinERKNS_14LockinConfig_tEbNSt3__28functionIFbbEEE, .Lfunc_end32-_ZN4Axis15run_lockin_spinERKNS_14LockinConfig_tEbNSt3__28functionIFbbEEE
	.cfi_endproc
	.cantunwind
	.fnend
                                        @ -- End function
	.section	.text._ZN22CriticalSectionContextC2Ev,"axG",%progbits,_ZN22CriticalSectionContextC2Ev,comdat
	.hidden	_ZN22CriticalSectionContextC2Ev @ -- Begin function _ZN22CriticalSectionContextC2Ev
	.weak	_ZN22CriticalSectionContextC2Ev
	.p2align	2
	.type	_ZN22CriticalSectionContextC2Ev,%function
	.code	16                              @ @_ZN22CriticalSectionContextC2Ev
	.thumb_func
_ZN22CriticalSectionContextC2Ev:
.Lfunc_begin33:
	.loc	37 56 0 is_stmt 1               @ ../../Firmware\Drivers/STM32/stm32_system.h:56:0
	.fnstart
	.cfi_startproc
@ %bb.0:
	.save	{r7, lr}
	push	{r7, lr}
	.cfi_def_cfa_offset 8
	.cfi_offset lr, -4
	.cfi_offset r7, -8
	.pad	#8
	sub	sp, #8
	.cfi_def_cfa_offset 16
	str	r0, [sp, #4]
	ldr	r0, [sp, #4]
.Ltmp119:
	.loc	37 56 38 prologue_end           @ ../../Firmware\Drivers/STM32/stm32_system.h:56:38
	str	r0, [sp]                        @ 4-byte Spill
	bl	_ZL18cpu_enter_criticalv
	mov	r1, r0
	.loc	37 56 32 is_stmt 0              @ ../../Firmware\Drivers/STM32/stm32_system.h:56:32
	ldr	r0, [sp]                        @ 4-byte Reload
	str	r1, [r0]
	movs	r1, #0
	.loc	37 59 10 is_stmt 1              @ ../../Firmware\Drivers/STM32/stm32_system.h:59:10
	strb	r1, [r0, #4]
	.loc	37 56 61 epilogue_begin         @ ../../Firmware\Drivers/STM32/stm32_system.h:56:61
	add	sp, #8
	pop	{r7, pc}
.Ltmp120:
.Lfunc_end33:
	.size	_ZN22CriticalSectionContextC2Ev, .Lfunc_end33-_ZN22CriticalSectionContextC2Ev
	.cfi_endproc
	.cantunwind
	.fnend
                                        @ -- End function
	.section	.text._ZNSt3__24pairIffEC2B7v180000IffLi0EEEOT_OT0_,"axG",%progbits,_ZNSt3__24pairIffEC2B7v180000IffLi0EEEOT_OT0_,comdat
	.hidden	_ZNSt3__24pairIffEC2B7v180000IffLi0EEEOT_OT0_ @ -- Begin function _ZNSt3__24pairIffEC2B7v180000IffLi0EEEOT_OT0_
	.weak	_ZNSt3__24pairIffEC2B7v180000IffLi0EEEOT_OT0_
	.p2align	2
	.type	_ZNSt3__24pairIffEC2B7v180000IffLi0EEEOT_OT0_,%function
	.code	16                              @ @_ZNSt3__24pairIffEC2B7v180000IffLi0EEEOT_OT0_
	.thumb_func
_ZNSt3__24pairIffEC2B7v180000IffLi0EEEOT_OT0_:
.Lfunc_begin34:
	.loc	36 222 0                        @ D:\Embed\MDK\MDK\ARM\ARMCompilerV621\Bin\..\include\libcxx\__utility/pair.h:222:0
	.fnstart
	.cfi_startproc
@ %bb.0:
	.pad	#12
	sub	sp, #12
	.cfi_def_cfa_offset 12
	str	r0, [sp, #8]
	str	r1, [sp, #4]
	str	r2, [sp]
	ldr	r0, [sp, #8]
.Ltmp121:
	.loc	36 222 35 prologue_end          @ D:\Embed\MDK\MDK\ARM\ARMCompilerV621\Bin\..\include\libcxx\__utility/pair.h:222:35
	ldr	r1, [sp, #4]
	.loc	36 222 17 is_stmt 0             @ D:\Embed\MDK\MDK\ARM\ARMCompilerV621\Bin\..\include\libcxx\__utility/pair.h:222:17
	ldr	r1, [r1]
	.loc	36 222 11                       @ D:\Embed\MDK\MDK\ARM\ARMCompilerV621\Bin\..\include\libcxx\__utility/pair.h:222:11
	str	r1, [r0]
	.loc	36 222 68                       @ D:\Embed\MDK\MDK\ARM\ARMCompilerV621\Bin\..\include\libcxx\__utility/pair.h:222:68
	ldr	r1, [sp]
	.loc	36 222 50                       @ D:\Embed\MDK\MDK\ARM\ARMCompilerV621\Bin\..\include\libcxx\__utility/pair.h:222:50
	ldr	r1, [r1]
	.loc	36 222 43                       @ D:\Embed\MDK\MDK\ARM\ARMCompilerV621\Bin\..\include\libcxx\__utility/pair.h:222:43
	str	r1, [r0, #4]
	.loc	36 222 76 epilogue_begin        @ D:\Embed\MDK\MDK\ARM\ARMCompilerV621\Bin\..\include\libcxx\__utility/pair.h:222:76
	add	sp, #12
	bx	lr
.Ltmp122:
.Lfunc_end34:
	.size	_ZNSt3__24pairIffEC2B7v180000IffLi0EEEOT_OT0_, .Lfunc_end34-_ZNSt3__24pairIffEC2B7v180000IffLi0EEEOT_OT0_
	.cfi_endproc
	.cantunwind
	.fnend
                                        @ -- End function
	.section	.text._ZN10OutputPortINSt3__24pairIffEEEaSES2_,"axG",%progbits,_ZN10OutputPortINSt3__24pairIffEEEaSES2_,comdat
	.hidden	_ZN10OutputPortINSt3__24pairIffEEEaSES2_ @ -- Begin function _ZN10OutputPortINSt3__24pairIffEEEaSES2_
	.weak	_ZN10OutputPortINSt3__24pairIffEEEaSES2_
	.p2align	2
	.type	_ZN10OutputPortINSt3__24pairIffEEEaSES2_,%function
	.code	16                              @ @_ZN10OutputPortINSt3__24pairIffEEEaSES2_
	.thumb_func
_ZN10OutputPortINSt3__24pairIffEEEaSES2_:
.Lfunc_begin35:
	.loc	17 52 0 is_stmt 1               @ ../../Firmware\MotorControl/component.hpp:52:0
	.fnstart
	.cfi_startproc
@ %bb.0:
	.save	{r7, lr}
	push	{r7, lr}
	.cfi_def_cfa_offset 8
	.cfi_offset lr, -4
	.cfi_offset r7, -8
	.pad	#16
	sub	sp, #16
	.cfi_def_cfa_offset 24
                                        @ kill: def $s2 killed $s1
                                        @ kill: def $s2 killed $s0
	vstr	s1, [sp, #12]
	vstr	s0, [sp, #8]
	str	r0, [sp, #4]
	ldr	r0, [sp, #4]
.Ltmp123:
	.loc	17 53 9 prologue_end            @ ../../Firmware\MotorControl/component.hpp:53:9
	str	r0, [sp]                        @ 4-byte Spill
	adds	r0, #4
	add	r1, sp, #8
	.loc	17 53 18 is_stmt 0              @ ../../Firmware\MotorControl/component.hpp:53:18
	bl	_ZNSt3__24pairIffEaSB7v180000ERKS1_
	ldr	r1, [sp]                        @ 4-byte Reload
	movs	r0, #0
	.loc	17 54 14 is_stmt 1              @ ../../Firmware\MotorControl/component.hpp:54:14
	str	r0, [r1]
	.loc	17 55 5 epilogue_begin          @ ../../Firmware\MotorControl/component.hpp:55:5
	add	sp, #16
	pop	{r7, pc}
.Ltmp124:
.Lfunc_end35:
	.size	_ZN10OutputPortINSt3__24pairIffEEEaSES2_, .Lfunc_end35-_ZN10OutputPortINSt3__24pairIffEEEaSES2_
	.cfi_endproc
	.cantunwind
	.fnend
                                        @ -- End function
	.section	.text._ZN10OutputPortIfEaSEf,"axG",%progbits,_ZN10OutputPortIfEaSEf,comdat
	.hidden	_ZN10OutputPortIfEaSEf          @ -- Begin function _ZN10OutputPortIfEaSEf
	.weak	_ZN10OutputPortIfEaSEf
	.p2align	2
	.type	_ZN10OutputPortIfEaSEf,%function
	.code	16                              @ @_ZN10OutputPortIfEaSEf
	.thumb_func
_ZN10OutputPortIfEaSEf:
.Lfunc_begin36:
	.loc	17 52 0                         @ ../../Firmware\MotorControl/component.hpp:52:0
	.fnstart
	.cfi_startproc
@ %bb.0:
	.pad	#8
	sub	sp, #8
	.cfi_def_cfa_offset 8
	str	r0, [sp, #4]
	vstr	s0, [sp]
	ldr	r1, [sp, #4]
.Ltmp125:
	.loc	17 53 20 prologue_end           @ ../../Firmware\MotorControl/component.hpp:53:20
	ldr	r0, [sp]
	.loc	17 53 18 is_stmt 0              @ ../../Firmware\MotorControl/component.hpp:53:18
	str	r0, [r1, #4]
	movs	r0, #0
	.loc	17 54 14 is_stmt 1              @ ../../Firmware\MotorControl/component.hpp:54:14
	str	r0, [r1]
	.loc	17 55 5 epilogue_begin          @ ../../Firmware\MotorControl/component.hpp:55:5
	add	sp, #8
	bx	lr
.Ltmp126:
.Lfunc_end36:
	.size	_ZN10OutputPortIfEaSEf, .Lfunc_end36-_ZN10OutputPortIfEaSEf
	.cfi_endproc
	.cantunwind
	.fnend
                                        @ -- End function
	.section	.text._ZN9InputPortINSt3__24pairIffEEE10connect_toEP10OutputPortIS2_E,"axG",%progbits,_ZN9InputPortINSt3__24pairIffEEE10connect_toEP10OutputPortIS2_E,comdat
	.hidden	_ZN9InputPortINSt3__24pairIffEEE10connect_toEP10OutputPortIS2_E @ -- Begin function _ZN9InputPortINSt3__24pairIffEEE10connect_toEP10OutputPortIS2_E
	.weak	_ZN9InputPortINSt3__24pairIffEEE10connect_toEP10OutputPortIS2_E
	.p2align	2
	.type	_ZN9InputPortINSt3__24pairIffEEE10connect_toEP10OutputPortIS2_E,%function
	.code	16                              @ @_ZN9InputPortINSt3__24pairIffEEE10connect_toEP10OutputPortIS2_E
	.thumb_func
_ZN9InputPortINSt3__24pairIffEEE10connect_toEP10OutputPortIS2_E:
.Lfunc_begin37:
	.loc	17 125 0                        @ ../../Firmware\MotorControl/component.hpp:125:0
	.fnstart
	.cfi_startproc
@ %bb.0:
	.save	{r7, lr}
	push	{r7, lr}
	.cfi_def_cfa_offset 8
	.cfi_offset lr, -4
	.cfi_offset r7, -8
	.pad	#8
	sub	sp, #8
	.cfi_def_cfa_offset 16
	str	r0, [sp, #4]
	str	r1, [sp]
	ldr	r0, [sp, #4]
	mov	r1, sp
.Ltmp127:
	.loc	17 126 18 prologue_end          @ ../../Firmware\MotorControl/component.hpp:126:18
	bl	_ZNSt3__27variantIJNS_4pairIffEEPS2_P10OutputPortIS2_EEEaSB7v180000IRS6_Li0ES6_Lj2ELi0EEERS7_OT_
	.loc	17 127 5 epilogue_begin         @ ../../Firmware\MotorControl/component.hpp:127:5
	add	sp, #8
	pop	{r7, pc}
.Ltmp128:
.Lfunc_end37:
	.size	_ZN9InputPortINSt3__24pairIffEEE10connect_toEP10OutputPortIS2_E, .Lfunc_end37-_ZN9InputPortINSt3__24pairIffEEE10connect_toEP10OutputPortIS2_E
	.cfi_endproc
	.cantunwind
	.fnend
                                        @ -- End function
	.section	.text._ZN9InputPortIfE10connect_toEP10OutputPortIfE,"axG",%progbits,_ZN9InputPortIfE10connect_toEP10OutputPortIfE,comdat
	.hidden	_ZN9InputPortIfE10connect_toEP10OutputPortIfE @ -- Begin function _ZN9InputPortIfE10connect_toEP10OutputPortIfE
	.weak	_ZN9InputPortIfE10connect_toEP10OutputPortIfE
	.p2align	2
	.type	_ZN9InputPortIfE10connect_toEP10OutputPortIfE,%function
	.code	16                              @ @_ZN9InputPortIfE10connect_toEP10OutputPortIfE
	.thumb_func
_ZN9InputPortIfE10connect_toEP10OutputPortIfE:
.Lfunc_begin38:
	.loc	17 125 0                        @ ../../Firmware\MotorControl/component.hpp:125:0
	.fnstart
	.cfi_startproc
@ %bb.0:
	.save	{r7, lr}
	push	{r7, lr}
	.cfi_def_cfa_offset 8
	.cfi_offset lr, -4
	.cfi_offset r7, -8
	.pad	#8
	sub	sp, #8
	.cfi_def_cfa_offset 16
	str	r0, [sp, #4]
	str	r1, [sp]
	ldr	r0, [sp, #4]
	mov	r1, sp
.Ltmp129:
	.loc	17 126 18 prologue_end          @ ../../Firmware\MotorControl/component.hpp:126:18
	bl	_ZNSt3__27variantIJfPfP10OutputPortIfEEEaSB7v180000IRS4_Li0ES4_Lj2ELi0EEERS5_OT_
	.loc	17 127 5 epilogue_begin         @ ../../Firmware\MotorControl/component.hpp:127:5
	add	sp, #8
	pop	{r7, pc}
.Ltmp130:
.Lfunc_end38:
	.size	_ZN9InputPortIfE10connect_toEP10OutputPortIfE, .Lfunc_end38-_ZN9InputPortIfE10connect_toEP10OutputPortIfE
	.cfi_endproc
	.cantunwind
	.fnend
                                        @ -- End function
	.section	.text._ZN22CriticalSectionContextD2Ev,"axG",%progbits,_ZN22CriticalSectionContextD2Ev,comdat
	.hidden	_ZN22CriticalSectionContextD2Ev @ -- Begin function _ZN22CriticalSectionContextD2Ev
	.weak	_ZN22CriticalSectionContextD2Ev
	.p2align	2
	.type	_ZN22CriticalSectionContextD2Ev,%function
	.code	16                              @ @_ZN22CriticalSectionContextD2Ev
	.thumb_func
_ZN22CriticalSectionContextD2Ev:
.Lfunc_begin39:
	.loc	37 57 0                         @ ../../Firmware\Drivers/STM32/stm32_system.h:57:0
	.fnstart
	.cfi_startproc
@ %bb.0:
	.save	{r7, lr}
	push	{r7, lr}
	.cfi_def_cfa_offset 8
	.cfi_offset lr, -4
	.cfi_offset r7, -8
	.pad	#8
	sub	sp, #8
	.cfi_def_cfa_offset 16
	str	r0, [sp, #4]
	ldr	r0, [sp, #4]
.Ltmp131:
	.loc	37 57 51 prologue_end           @ ../../Firmware\Drivers/STM32/stm32_system.h:57:51
	str	r0, [sp]                        @ 4-byte Spill
	ldr	r0, [r0]
	.loc	37 57 33 is_stmt 0              @ ../../Firmware\Drivers/STM32/stm32_system.h:57:33
	bl	_ZL17cpu_exit_criticalj
	ldr	r0, [sp]                        @ 4-byte Reload
.Ltmp132:
	.loc	37 57 59 epilogue_begin         @ ../../Firmware\Drivers/STM32/stm32_system.h:57:59
	add	sp, #8
	pop	{r7, pc}
.Ltmp133:
.Lfunc_end39:
	.size	_ZN22CriticalSectionContextD2Ev, .Lfunc_end39-_ZN22CriticalSectionContextD2Ev
	.cfi_endproc
	.cantunwind
	.fnend
                                        @ -- End function
	.section	.text._Z3absB7v180000f,"axG",%progbits,_Z3absB7v180000f,comdat
	.hidden	_Z3absB7v180000f                @ -- Begin function _Z3absB7v180000f
	.weak	_Z3absB7v180000f
	.p2align	2
	.type	_Z3absB7v180000f,%function
	.code	16                              @ @_Z3absB7v180000f
	.thumb_func
_Z3absB7v180000f:
.Lfunc_begin40:
	.file	42 "D:\\Embed\\MDK\\MDK\\ARM\\ARMCompilerV621\\Bin\\..\\include\\libcxx" "stdlib.h"
	.loc	42 122 0 is_stmt 1              @ D:\Embed\MDK\MDK\ARM\ARMCompilerV621\Bin\..\include\libcxx\stdlib.h:122:0
	.fnstart
	.cfi_startproc
@ %bb.0:
	.pad	#4
	sub	sp, #4
	.cfi_def_cfa_offset 4
	vstr	s0, [sp]
.Ltmp134:
	.loc	42 123 26 prologue_end          @ D:\Embed\MDK\MDK\ARM\ARMCompilerV621\Bin\..\include\libcxx\stdlib.h:123:26
	vldr	s0, [sp]
	.loc	42 123 10 is_stmt 0             @ D:\Embed\MDK\MDK\ARM\ARMCompilerV621\Bin\..\include\libcxx\stdlib.h:123:10
	vabs.f32	s0, s0
	.loc	42 123 3 epilogue_begin         @ D:\Embed\MDK\MDK\ARM\ARMCompilerV621\Bin\..\include\libcxx\stdlib.h:123:3
	add	sp, #4
	bx	lr
.Ltmp135:
.Lfunc_end40:
	.size	_Z3absB7v180000f, .Lfunc_end40-_Z3absB7v180000f
	.cfi_endproc
	.cantunwind
	.fnend
                                        @ -- End function
	.section	.text._ZN10OutputPortIfE3anyEv,"axG",%progbits,_ZN10OutputPortIfE3anyEv,comdat
	.hidden	_ZN10OutputPortIfE3anyEv        @ -- Begin function _ZN10OutputPortIfE3anyEv
	.weak	_ZN10OutputPortIfE3anyEv
	.p2align	2
	.type	_ZN10OutputPortIfE3anyEv,%function
	.code	16                              @ @_ZN10OutputPortIfE3anyEv
	.thumb_func
_ZN10OutputPortIfE3anyEv:
.Lfunc_begin41:
	.loc	17 102 0 is_stmt 1              @ ../../Firmware\MotorControl/component.hpp:102:0
	.fnstart
	.cfi_startproc
@ %bb.0:
	.save	{r7, lr}
	push	{r7, lr}
	.cfi_def_cfa_offset 8
	.cfi_offset lr, -4
	.cfi_offset r7, -8
	.pad	#8
	sub	sp, #8
	.cfi_def_cfa_offset 16
	str	r1, [sp, #4]
	ldr	r1, [sp, #4]
.Ltmp136:
	.loc	17 103 16 prologue_end          @ ../../Firmware\MotorControl/component.hpp:103:16
	adds	r1, #4
	bl	_ZNSt3__28optionalIfEC2B7v180000IRfLi0EEEOT_
	.loc	17 103 9 epilogue_begin is_stmt 0 @ ../../Firmware\MotorControl/component.hpp:103:9
	add	sp, #8
	pop	{r7, pc}
.Ltmp137:
.Lfunc_end41:
	.size	_ZN10OutputPortIfE3anyEv, .Lfunc_end41-_ZN10OutputPortIfE3anyEv
	.cfi_endproc
	.cantunwind
	.fnend
                                        @ -- End function
	.section	.text._ZNOSt3__28optionalIfE8value_orB7v180000IfEEfOT_,"axG",%progbits,_ZNOSt3__28optionalIfE8value_orB7v180000IfEEfOT_,comdat
	.hidden	_ZNOSt3__28optionalIfE8value_orB7v180000IfEEfOT_ @ -- Begin function _ZNOSt3__28optionalIfE8value_orB7v180000IfEEfOT_
	.weak	_ZNOSt3__28optionalIfE8value_orB7v180000IfEEfOT_
	.p2align	2
	.type	_ZNOSt3__28optionalIfE8value_orB7v180000IfEEfOT_,%function
	.code	16                              @ @_ZNOSt3__28optionalIfE8value_orB7v180000IfEEfOT_
	.thumb_func
_ZNOSt3__28optionalIfE8value_orB7v180000IfEEfOT_:
.Lfunc_begin42:
	.loc	5 1106 0 is_stmt 1              @ D:\Embed\MDK\MDK\ARM\ARMCompilerV621\Bin\..\include\libcxx\optional:1106:0
	.fnstart
	.cfi_startproc
@ %bb.0:
	.save	{r7, lr}
	push	{r7, lr}
	.cfi_def_cfa_offset 8
	.cfi_offset lr, -4
	.cfi_offset r7, -8
	.pad	#16
	sub	sp, #16
	.cfi_def_cfa_offset 24
	str	r0, [sp, #12]
	str	r1, [sp, #8]
	ldr	r0, [sp, #12]
.Ltmp138:
	.loc	5 1111 22 prologue_end          @ D:\Embed\MDK\MDK\ARM\ARMCompilerV621\Bin\..\include\libcxx\optional:1111:22
	str	r0, [sp, #4]                    @ 4-byte Spill
	bl	_ZNKSt3__223__optional_storage_baseIfLb0EE9has_valueB7v180000Ev
	.loc	5 1111 16 is_stmt 0             @ D:\Embed\MDK\MDK\ARM\ARMCompilerV621\Bin\..\include\libcxx\optional:1111:16
	cbz	r0, .LBB42_2
	b	.LBB42_1
.LBB42_1:
	.loc	5 1111 54                       @ D:\Embed\MDK\MDK\ARM\ARMCompilerV621\Bin\..\include\libcxx\optional:1111:54
	ldr	r0, [sp, #4]                    @ 4-byte Reload
	bl	_ZNRSt3__223__optional_storage_baseIfLb0EE5__getB7v180000Ev
	.loc	5 1111 36                       @ D:\Embed\MDK\MDK\ARM\ARMCompilerV621\Bin\..\include\libcxx\optional:1111:36
	vldr	s0, [r0]
	vstr	s0, [sp]                        @ 4-byte Spill
	.loc	5 1111 16                       @ D:\Embed\MDK\MDK\ARM\ARMCompilerV621\Bin\..\include\libcxx\optional:1111:16
	b	.LBB42_3
.LBB42_2:
	.loc	5 1112 79 is_stmt 1             @ D:\Embed\MDK\MDK\ARM\ARMCompilerV621\Bin\..\include\libcxx\optional:1112:79
	ldr	r0, [sp, #8]
	.loc	5 1112 59 is_stmt 0             @ D:\Embed\MDK\MDK\ARM\ARMCompilerV621\Bin\..\include\libcxx\optional:1112:59
	vldr	s0, [r0]
	vstr	s0, [sp]                        @ 4-byte Spill
	.loc	5 1111 16 is_stmt 1             @ D:\Embed\MDK\MDK\ARM\ARMCompilerV621\Bin\..\include\libcxx\optional:1111:16
	b	.LBB42_3
.LBB42_3:
	vldr	s0, [sp]                        @ 4-byte Reload
	.loc	5 1111 9 epilogue_begin is_stmt 0 @ D:\Embed\MDK\MDK\ARM\ARMCompilerV621\Bin\..\include\libcxx\optional:1111:9
	add	sp, #16
	pop	{r7, pc}
.Ltmp139:
.Lfunc_end42:
	.size	_ZNOSt3__28optionalIfE8value_orB7v180000IfEEfOT_, .Lfunc_end42-_ZNOSt3__28optionalIfE8value_orB7v180000IfEEfOT_
	.cfi_endproc
	.cantunwind
	.fnend
                                        @ -- End function
	.section	.text._ZNSt3__214numeric_limitsIfE7epsilonB7v180000Ev,"axG",%progbits,_ZNSt3__214numeric_limitsIfE7epsilonB7v180000Ev,comdat
	.hidden	_ZNSt3__214numeric_limitsIfE7epsilonB7v180000Ev @ -- Begin function _ZNSt3__214numeric_limitsIfE7epsilonB7v180000Ev
	.weak	_ZNSt3__214numeric_limitsIfE7epsilonB7v180000Ev
	.p2align	2
	.type	_ZNSt3__214numeric_limitsIfE7epsilonB7v180000Ev,%function
	.code	16                              @ @_ZNSt3__214numeric_limitsIfE7epsilonB7v180000Ev
	.thumb_func
_ZNSt3__214numeric_limitsIfE7epsilonB7v180000Ev:
.Lfunc_begin43:
	.loc	11 469 0 is_stmt 1              @ D:\Embed\MDK\MDK\ARM\ARMCompilerV621\Bin\..\include\libcxx\limits:469:0
	.fnstart
	.cfi_startproc
@ %bb.0:
	.save	{r7, lr}
	push	{r7, lr}
	.cfi_def_cfa_offset 8
	.cfi_offset lr, -4
	.cfi_offset r7, -8
.Ltmp140:
	.loc	11 469 89 prologue_end          @ D:\Embed\MDK\MDK\ARM\ARMCompilerV621\Bin\..\include\libcxx\limits:469:89
	bl	_ZNSt3__223__libcpp_numeric_limitsIfLb1EE7epsilonB7v180000Ev
	.loc	11 469 82 epilogue_begin is_stmt 0 @ D:\Embed\MDK\MDK\ARM\ARMCompilerV621\Bin\..\include\libcxx\limits:469:82
	pop	{r7, pc}
.Ltmp141:
.Lfunc_end43:
	.size	_ZNSt3__214numeric_limitsIfE7epsilonB7v180000Ev, .Lfunc_end43-_ZNSt3__214numeric_limitsIfE7epsilonB7v180000Ev
	.cfi_endproc
	.cantunwind
	.fnend
                                        @ -- End function
	.section	.text._ZNKSt3__28functionIFbbEEcvbB7v180000Ev,"axG",%progbits,_ZNKSt3__28functionIFbbEEcvbB7v180000Ev,comdat
	.hidden	_ZNKSt3__28functionIFbbEEcvbB7v180000Ev @ -- Begin function _ZNKSt3__28functionIFbbEEcvbB7v180000Ev
	.weak	_ZNKSt3__28functionIFbbEEcvbB7v180000Ev
	.p2align	2
	.type	_ZNKSt3__28functionIFbbEEcvbB7v180000Ev,%function
	.code	16                              @ @_ZNKSt3__28functionIFbbEEcvbB7v180000Ev
	.thumb_func
_ZNKSt3__28functionIFbbEEcvbB7v180000Ev:
.Lfunc_begin44:
	.loc	8 1053 0 is_stmt 1              @ D:\Embed\MDK\MDK\ARM\ARMCompilerV621\Bin\..\include\libcxx\__functional/function.h:1053:0
	.fnstart
	.cfi_startproc
@ %bb.0:
	.save	{r7, lr}
	push	{r7, lr}
	.cfi_def_cfa_offset 8
	.cfi_offset lr, -4
	.cfi_offset r7, -8
	.pad	#8
	sub	sp, #8
	.cfi_def_cfa_offset 16
	str	r0, [sp, #4]
	ldr	r0, [sp, #4]
.Ltmp142:
	.loc	8 1054 32 prologue_end          @ D:\Embed\MDK\MDK\ARM\ARMCompilerV621\Bin\..\include\libcxx\__functional/function.h:1054:32
	bl	_ZNKSt3__210__function13__policy_funcIFbbEEcvbB7v180000Ev
	.loc	8 1054 7 epilogue_begin is_stmt 0 @ D:\Embed\MDK\MDK\ARM\ARMCompilerV621\Bin\..\include\libcxx\__functional/function.h:1054:7
	add	sp, #8
	pop	{r7, pc}
.Ltmp143:
.Lfunc_end44:
	.size	_ZNKSt3__28functionIFbbEEcvbB7v180000Ev, .Lfunc_end44-_ZNKSt3__28functionIFbbEEcvbB7v180000Ev
	.cfi_endproc
	.cantunwind
	.fnend
                                        @ -- End function
	.section	.text._ZNKSt3__28functionIFbbEEclEb,"axG",%progbits,_ZNKSt3__28functionIFbbEEclEb,comdat
	.hidden	_ZNKSt3__28functionIFbbEEclEb   @ -- Begin function _ZNKSt3__28functionIFbbEEclEb
	.weak	_ZNKSt3__28functionIFbbEEclEb
	.p2align	2
	.type	_ZNKSt3__28functionIFbbEEclEb,%function
	.code	16                              @ @_ZNKSt3__28functionIFbbEEclEb
	.thumb_func
_ZNKSt3__28functionIFbbEEclEb:
.Lfunc_begin45:
	.loc	8 1166 0 is_stmt 1              @ D:\Embed\MDK\MDK\ARM\ARMCompilerV621\Bin\..\include\libcxx\__functional/function.h:1166:0
	.fnstart
	.cfi_startproc
@ %bb.0:
	.save	{r7, lr}
	push	{r7, lr}
	.cfi_def_cfa_offset 8
	.cfi_offset lr, -4
	.cfi_offset r7, -8
	.pad	#8
	sub	sp, #8
	.cfi_def_cfa_offset 16
                                        @ kill: def $r2 killed $r1
	str	r0, [sp, #4]
	strb.w	r1, [sp, #3]
	ldr	r0, [sp, #4]
	add.w	r1, sp, #3
.Ltmp144:
	.loc	8 1167 12 prologue_end          @ D:\Embed\MDK\MDK\ARM\ARMCompilerV621\Bin\..\include\libcxx\__functional/function.h:1167:12
	bl	_ZNKSt3__210__function13__policy_funcIFbbEEclB7v180000EOb
	.loc	8 1167 5 epilogue_begin is_stmt 0 @ D:\Embed\MDK\MDK\ARM\ARMCompilerV621\Bin\..\include\libcxx\__functional/function.h:1167:5
	add	sp, #8
	pop	{r7, pc}
.Ltmp145:
.Lfunc_end45:
	.size	_ZNKSt3__28functionIFbbEEclEb, .Lfunc_end45-_ZNKSt3__28functionIFbbEEclEb
	.cfi_endproc
	.cantunwind
	.fnend
                                        @ -- End function
	.section	.text._ZN4Axis25start_closed_loop_controlEv,"ax",%progbits
	.hidden	_ZN4Axis25start_closed_loop_controlEv @ -- Begin function _ZN4Axis25start_closed_loop_controlEv
	.globl	_ZN4Axis25start_closed_loop_controlEv
	.p2align	2
	.type	_ZN4Axis25start_closed_loop_controlEv,%function
	.code	16                              @ @_ZN4Axis25start_closed_loop_controlEv
	.thumb_func
_ZN4Axis25start_closed_loop_controlEv:
.Lfunc_begin46:
	.loc	2 257 0 is_stmt 1               @ ../MotorControl/axis.cpp:257:0
	.fnstart
	.cfi_startproc
@ %bb.0:
	.save	{r7, lr}
	push	{r7, lr}
	.cfi_def_cfa_offset 8
	.cfi_offset lr, -4
	.cfi_offset r7, -8
	.pad	#104
	sub	sp, #104
	.cfi_def_cfa_offset 112
	str	r0, [sp, #96]
	ldr	r0, [sp, #96]
.Ltmp146:
	.loc	2 258 36 prologue_end           @ ../MotorControl/axis.cpp:258:36
	str	r0, [sp, #32]                   @ 4-byte Spill
	ldrb	r0, [r0, #23]
	.loc	2 258 10 is_stmt 0              @ ../MotorControl/axis.cpp:258:10
	and	r0, r0, #1
	strb.w	r0, [sp, #95]
.Ltmp147:
	.loc	2 260 9 is_stmt 1               @ ../MotorControl/axis.cpp:260:9
	ldrb.w	r0, [sp, #95]
.Ltmp148:
	.loc	2 260 9 is_stmt 0               @ ../MotorControl/axis.cpp:260:9
	lsls	r0, r0, #31
	cbz	r0, .LBB46_4
	b	.LBB46_1
.LBB46_1:
.Ltmp149:
	.loc	2 262 38 is_stmt 1              @ ../MotorControl/axis.cpp:262:38
	ldr	r0, [sp, #32]                   @ 4-byte Reload
	adds	r0, #64
	.loc	2 262 14 is_stmt 0              @ ../MotorControl/axis.cpp:262:14
	str	r0, [sp, #20]                   @ 4-byte Spill
	add	r0, sp, #76
	str	r0, [sp, #24]                   @ 4-byte Spill
	bl	_ZNSt3__28functionIFbbEEC2B7v180000Ev
	ldr	r0, [sp, #32]                   @ 4-byte Reload
	ldr	r1, [sp, #20]                   @ 4-byte Reload
	ldr	r3, [sp, #24]                   @ 4-byte Reload
	movs	r2, #1
	bl	_ZN4Axis15run_lockin_spinERKNS_14LockinConfig_tEbNSt3__28functionIFbbEEE
	mov	r1, r0
	.loc	2 262 13                        @ ../MotorControl/axis.cpp:262:13
	ldr	r0, [sp, #24]                   @ 4-byte Reload
	str	r1, [sp, #28]                   @ 4-byte Spill
	bl	_ZNSt3__28functionIFbbEED2Ev
	ldr	r0, [sp, #28]                   @ 4-byte Reload
.Ltmp150:
	.loc	2 262 13                        @ ../MotorControl/axis.cpp:262:13
	cbnz	r0, .LBB46_3
	b	.LBB46_2
.LBB46_2:
	.loc	2 0 13                          @ ../MotorControl/axis.cpp:0:13
	movs	r0, #0
.Ltmp151:
	.loc	2 263 13 is_stmt 1              @ ../MotorControl/axis.cpp:263:13
	strb.w	r0, [sp, #103]
	b	.LBB46_37
.Ltmp152:
.LBB46_3:
	.loc	2 265 5                         @ ../MotorControl/axis.cpp:265:5
	b	.LBB46_4
.Ltmp153:
.LBB46_4:
	.loc	2 0 5 is_stmt 0                 @ ../MotorControl/axis.cpp:0:5
	add	r0, sp, #68
.Ltmp154:
	.loc	2 268 5 is_stmt 1               @ ../MotorControl/axis.cpp:268:5
	bl	_ZN22CriticalSectionContextC2Ev
	b	.LBB46_5
.LBB46_5:                               @ =>This Inner Loop Header: Depth=1
.Ltmp155:
	.loc	2 268 5 is_stmt 0               @ ../MotorControl/axis.cpp:268:5
	ldrb.w	r0, [sp, #72]
.Ltmp156:
	.loc	2 268 5                         @ ../MotorControl/axis.cpp:268:5
	lsls	r0, r0, #31
	cbz	r0, .LBB46_7
	b	.LBB46_6
.LBB46_6:
	.loc	2 0 5                           @ ../MotorControl/axis.cpp:0:5
	movs	r0, #2
	str	r0, [sp, #64]
	.loc	2 268 5                         @ ../MotorControl/axis.cpp:268:5
	b	.LBB46_32
.LBB46_7:                               @   in Loop: Header=BB46_5 Depth=1
.Ltmp157:
	.loc	2 269 13 is_stmt 1              @ ../MotorControl/axis.cpp:269:13
	ldrb.w	r0, [sp, #95]
.Ltmp158:
	.loc	2 269 13 is_stmt 0              @ ../MotorControl/axis.cpp:269:13
	lsls	r0, r0, #31
	cbz	r0, .LBB46_9
	b	.LBB46_8
.LBB46_8:                               @   in Loop: Header=BB46_5 Depth=1
.Ltmp159:
	.loc	2 270 13 is_stmt 1              @ ../MotorControl/axis.cpp:270:13
	ldr	r0, [sp, #32]                   @ 4-byte Reload
	ldr.w	r0, [r0, #256]
	movw	r1, #14576
	.loc	2 270 25 is_stmt 0              @ ../MotorControl/axis.cpp:270:25
	add	r0, r1
	.loc	2 270 50                        @ ../MotorControl/axis.cpp:270:50
	bl	_ZN9InputPortIfE10disconnectEv
	ldr	r0, [sp, #32]                   @ 4-byte Reload
	.loc	2 271 13 is_stmt 1              @ ../MotorControl/axis.cpp:271:13
	ldr.w	r0, [r0, #256]
	movw	r1, #14584
	.loc	2 271 25 is_stmt 0              @ ../MotorControl/axis.cpp:271:25
	add	r0, r1
	.loc	2 271 52                        @ ../MotorControl/axis.cpp:271:52
	bl	_ZN9InputPortIfE10disconnectEv
	ldr	r0, [sp, #32]                   @ 4-byte Reload
	.loc	2 272 13 is_stmt 1              @ ../MotorControl/axis.cpp:272:13
	ldr.w	r0, [r0, #256]
	movw	r1, #14600
	.loc	2 272 25 is_stmt 0              @ ../MotorControl/axis.cpp:272:25
	add	r0, r1
	.loc	2 272 39                        @ ../MotorControl/axis.cpp:272:39
	bl	_ZN9InputPortIfE10disconnectEv
	ldr	r0, [sp, #32]                   @ 4-byte Reload
	.loc	2 273 55 is_stmt 1              @ ../MotorControl/axis.cpp:273:55
	ldr.w	r1, [r0, #252]
	.loc	2 273 13 is_stmt 0              @ ../MotorControl/axis.cpp:273:13
	ldr.w	r0, [r0, #256]
	.loc	2 273 25                        @ ../MotorControl/axis.cpp:273:25
	add.w	r0, r0, #14592
	.loc	2 273 77                        @ ../MotorControl/axis.cpp:273:77
	adds	r1, #56
	.loc	2 273 43                        @ ../MotorControl/axis.cpp:273:43
	bl	_ZN9InputPortIfE10connect_toEP10OutputPortIfE
	.loc	2 274 9 is_stmt 1               @ ../MotorControl/axis.cpp:274:9
	b	.LBB46_13
.Ltmp160:
.LBB46_9:                               @   in Loop: Header=BB46_5 Depth=1
	.loc	2 274 20 is_stmt 0              @ ../MotorControl/axis.cpp:274:20
	ldr	r0, [sp, #32]                   @ 4-byte Reload
	ldr.w	r0, [r0, #256]
	mov.w	r1, #14528
	.loc	2 274 40                        @ ../MotorControl/axis.cpp:274:40
	ldrb	r0, [r0, r1]
.Ltmp161:
	.loc	2 274 20                        @ ../MotorControl/axis.cpp:274:20
	cmp	r0, #1
	bgt	.LBB46_11
	b	.LBB46_10
.LBB46_10:                              @   in Loop: Header=BB46_5 Depth=1
.Ltmp162:
	.loc	2 275 30 is_stmt 1              @ ../MotorControl/axis.cpp:275:30
	ldr	r0, [sp, #32]                   @ 4-byte Reload
	ldr.w	r0, [r0, #256]
	mov.w	r1, #14528
	.loc	2 275 50 is_stmt 0              @ ../MotorControl/axis.cpp:275:50
	ldrb	r1, [r0, r1]
	.loc	2 275 25                        @ ../MotorControl/axis.cpp:275:25
	movw	r0, :lower16:axes
	movt	r0, :upper16:axes
	bl	_ZNSt3__25arrayI4AxisLj2EEixB7v180000Ej
	mov	r1, r0
	.loc	2 275 19                        @ ../MotorControl/axis.cpp:275:19
	ldr	r0, [sp, #32]                   @ 4-byte Reload
	str	r1, [sp, #60]
	.loc	2 276 13 is_stmt 1              @ ../MotorControl/axis.cpp:276:13
	ldr.w	r0, [r0, #256]
	movw	r1, #14584
	.loc	2 276 25 is_stmt 0              @ ../MotorControl/axis.cpp:276:25
	add	r0, r1
	.loc	2 276 64                        @ ../MotorControl/axis.cpp:276:64
	ldr	r1, [sp, #60]
	.loc	2 276 68                        @ ../MotorControl/axis.cpp:276:68
	ldr.w	r1, [r1, #172]
	.loc	2 276 77                        @ ../MotorControl/axis.cpp:276:77
	adds	r1, #224
	.loc	2 276 52                        @ ../MotorControl/axis.cpp:276:52
	bl	_ZN9InputPortIfE10connect_toEP10OutputPortIfE
	ldr	r0, [sp, #32]                   @ 4-byte Reload
	.loc	2 277 13 is_stmt 1              @ ../MotorControl/axis.cpp:277:13
	ldr.w	r1, [r0, #256]
	movw	r0, #14600
	.loc	2 277 25 is_stmt 0              @ ../MotorControl/axis.cpp:277:25
	add	r0, r1
	.loc	2 277 71                        @ ../MotorControl/axis.cpp:277:71
	adds	r1, #64
	.loc	2 277 39                        @ ../MotorControl/axis.cpp:277:39
	bl	_ZN9InputPortIfE10connect_toEPf
	ldr	r0, [sp, #32]                   @ 4-byte Reload
	.loc	2 278 13 is_stmt 1              @ ../MotorControl/axis.cpp:278:13
	ldr.w	r0, [r0, #256]
	movw	r1, #14576
	.loc	2 278 25 is_stmt 0              @ ../MotorControl/axis.cpp:278:25
	add	r0, r1
	.loc	2 278 62                        @ ../MotorControl/axis.cpp:278:62
	ldr	r1, [sp, #60]
	.loc	2 278 66                        @ ../MotorControl/axis.cpp:278:66
	ldr.w	r1, [r1, #172]
	.loc	2 278 75                        @ ../MotorControl/axis.cpp:278:75
	adds	r1, #208
	.loc	2 278 50                        @ ../MotorControl/axis.cpp:278:50
	bl	_ZN9InputPortIfE10connect_toEP10OutputPortIfE
	ldr	r0, [sp, #32]                   @ 4-byte Reload
	.loc	2 279 13 is_stmt 1              @ ../MotorControl/axis.cpp:279:13
	ldr.w	r0, [r0, #256]
	.loc	2 279 25 is_stmt 0              @ ../MotorControl/axis.cpp:279:25
	add.w	r0, r0, #14592
	.loc	2 279 55                        @ ../MotorControl/axis.cpp:279:55
	ldr	r1, [sp, #60]
	.loc	2 279 59                        @ ../MotorControl/axis.cpp:279:59
	ldr.w	r1, [r1, #172]
	.loc	2 279 68                        @ ../MotorControl/axis.cpp:279:68
	adds	r1, #216
	.loc	2 279 43                        @ ../MotorControl/axis.cpp:279:43
	bl	_ZN9InputPortIfE10connect_toEP10OutputPortIfE
	.loc	2 280 9 is_stmt 1               @ ../MotorControl/axis.cpp:280:9
	b	.LBB46_12
.Ltmp163:
.LBB46_11:
	.loc	2 281 13                        @ ../MotorControl/axis.cpp:281:13
	ldr	r0, [sp, #32]                   @ 4-byte Reload
	ldr.w	r0, [r0, #256]
	movw	r1, #14584
	.loc	2 281 25 is_stmt 0              @ ../MotorControl/axis.cpp:281:25
	add	r0, r1
	.loc	2 281 52                        @ ../MotorControl/axis.cpp:281:52
	bl	_ZN9InputPortIfE10disconnectEv
	ldr	r0, [sp, #32]                   @ 4-byte Reload
	.loc	2 282 13 is_stmt 1              @ ../MotorControl/axis.cpp:282:13
	ldr.w	r0, [r0, #256]
	movw	r1, #14576
	.loc	2 282 25 is_stmt 0              @ ../MotorControl/axis.cpp:282:25
	add	r0, r1
	.loc	2 282 50                        @ ../MotorControl/axis.cpp:282:50
	bl	_ZN9InputPortIfE10disconnectEv
	ldr	r0, [sp, #32]                   @ 4-byte Reload
	.loc	2 283 13 is_stmt 1              @ ../MotorControl/axis.cpp:283:13
	ldr.w	r0, [r0, #256]
	movw	r1, #14600
	.loc	2 283 25 is_stmt 0              @ ../MotorControl/axis.cpp:283:25
	add	r0, r1
	.loc	2 283 39                        @ ../MotorControl/axis.cpp:283:39
	bl	_ZN9InputPortIfE10disconnectEv
	ldr	r0, [sp, #32]                   @ 4-byte Reload
	.loc	2 284 13 is_stmt 1              @ ../MotorControl/axis.cpp:284:13
	ldr.w	r0, [r0, #256]
	.loc	2 284 25 is_stmt 0              @ ../MotorControl/axis.cpp:284:25
	add.w	r0, r0, #14592
	.loc	2 284 43                        @ ../MotorControl/axis.cpp:284:43
	bl	_ZN9InputPortIfE10disconnectEv
	ldr	r0, [sp, #32]                   @ 4-byte Reload
	.loc	2 285 13 is_stmt 1              @ ../MotorControl/axis.cpp:285:13
	ldr.w	r0, [r0, #256]
	movs	r1, #16
	.loc	2 285 25 is_stmt 0              @ ../MotorControl/axis.cpp:285:25
	bl	_ZN10Controller9set_errorEN10ODriveIntf14ControllerIntf5ErrorE
	movs	r0, #0
	.loc	2 286 13 is_stmt 1              @ ../MotorControl/axis.cpp:286:13
	strb.w	r0, [sp, #103]
	movs	r0, #1
	str	r0, [sp, #64]
	b	.LBB46_32
.Ltmp164:
.LBB46_12:                              @   in Loop: Header=BB46_5 Depth=1
	.loc	2 0 13 is_stmt 0                @ ../MotorControl/axis.cpp:0:13
	b	.LBB46_13
.LBB46_13:                              @   in Loop: Header=BB46_5 Depth=1
	.loc	2 290 9 is_stmt 1               @ ../MotorControl/axis.cpp:290:9
	ldr	r0, [sp, #32]                   @ 4-byte Reload
	ldr.w	r0, [r0, #256]
	.loc	2 290 21 is_stmt 0              @ ../MotorControl/axis.cpp:290:21
	bl	_ZN10Controller20control_mode_updatedEv
                                        @ kill: def $r1 killed $r0
	.loc	2 291 9 is_stmt 1               @ ../MotorControl/axis.cpp:291:9
	ldr	r0, [sp, #32]                   @ 4-byte Reload
	ldr.w	r0, [r0, #256]
	.loc	2 291 21 is_stmt 0              @ ../MotorControl/axis.cpp:291:21
	bl	_ZN10Controller17input_pos_updatedEv
	ldr	r0, [sp, #32]                   @ 4-byte Reload
	.loc	2 294 9 is_stmt 1               @ ../MotorControl/axis.cpp:294:9
	ldr.w	r2, [r0, #256]
	movw	r3, #14616
	movs	r1, #0
	.loc	2 294 44 is_stmt 0              @ ../MotorControl/axis.cpp:294:44
	str	r1, [r2, r3]
	.loc	2 296 49 is_stmt 1              @ ../MotorControl/axis.cpp:296:49
	ldr.w	r1, [r0, #256]
	.loc	2 296 9 is_stmt 0               @ ../MotorControl/axis.cpp:296:9
	ldr.w	r0, [r0, #344]
	.loc	2 296 16                        @ ../MotorControl/axis.cpp:296:16
	add.w	r0, r0, #388
	movw	r2, #14684
	.loc	2 296 61                        @ ../MotorControl/axis.cpp:296:61
	add	r1, r2
	.loc	2 296 37                        @ ../MotorControl/axis.cpp:296:37
	bl	_ZN9InputPortIfE10connect_toEP10OutputPortIfE
	.loc	2 297 29 is_stmt 1              @ ../MotorControl/axis.cpp:297:29
	ldrb.w	r0, [sp, #95]
	lsls	r0, r0, #31
	cbz	r0, .LBB46_15
	b	.LBB46_14
.LBB46_14:                              @   in Loop: Header=BB46_5 Depth=1
	.loc	2 0 29 is_stmt 0                @ ../MotorControl/axis.cpp:0:29
	vmov.f32	s0, #1.000000e+00
	vstr	s0, [sp, #16]                   @ 4-byte Spill
	.loc	2 297 29                        @ ../MotorControl/axis.cpp:297:29
	b	.LBB46_16
.LBB46_15:                              @   in Loop: Header=BB46_5 Depth=1
	.loc	2 297 54                        @ ../MotorControl/axis.cpp:297:54
	ldr	r0, [sp, #32]                   @ 4-byte Reload
	ldr.w	r0, [r0, #172]
	vldr	s0, [r0, #92]
	vcvt.f32.s32	s0, s0
	vstr	s0, [sp, #16]                   @ 4-byte Spill
	.loc	2 297 29                        @ ../MotorControl/axis.cpp:297:29
	b	.LBB46_16
.LBB46_16:                              @   in Loop: Header=BB46_5 Depth=1
	ldr	r0, [sp, #32]                   @ 4-byte Reload
	vldr	s0, [sp, #16]                   @ 4-byte Reload
	.loc	2 297 9                         @ ../MotorControl/axis.cpp:297:9
	ldr.w	r1, [r0, #344]
	.loc	2 297 27                        @ ../MotorControl/axis.cpp:297:27
	vstr	s0, [r1, #404]
	.loc	2 299 63 is_stmt 1              @ ../MotorControl/axis.cpp:299:63
	ldr.w	r2, [r0, #344]
	.loc	2 299 78 is_stmt 0              @ ../MotorControl/axis.cpp:299:78
	ldrb.w	r1, [r2, #56]
	.loc	2 299 89                        @ ../MotorControl/axis.cpp:299:89
	subs	r1, #2
	it	ne
	movne	r1, #1
	.loc	2 299 61                        @ ../MotorControl/axis.cpp:299:61
	strb.w	r1, [r2, #232]
	.loc	2 300 9 is_stmt 1               @ ../MotorControl/axis.cpp:300:9
	ldr.w	r1, [r0, #344]
	.loc	2 300 33 is_stmt 0              @ ../MotorControl/axis.cpp:300:33
	add.w	r0, r1, #236
	.loc	2 300 70                        @ ../MotorControl/axis.cpp:300:70
	add.w	r1, r1, #420
	.loc	2 300 51                        @ ../MotorControl/axis.cpp:300:51
	bl	_ZN9InputPortINSt3__24pairIffEEE10connect_toEP10OutputPortIS2_E
	ldr	r0, [sp, #32]                   @ 4-byte Reload
	.loc	2 301 9 is_stmt 1               @ ../MotorControl/axis.cpp:301:9
	ldr.w	r1, [r0, #344]
	.loc	2 301 33 is_stmt 0              @ ../MotorControl/axis.cpp:301:33
	add.w	r0, r1, #248
	.loc	2 301 70                        @ ../MotorControl/axis.cpp:301:70
	add.w	r1, r1, #408
	.loc	2 301 51                        @ ../MotorControl/axis.cpp:301:51
	bl	_ZN9InputPortINSt3__24pairIffEEE10connect_toEP10OutputPortIS2_E
	ldr	r0, [sp, #32]                   @ 4-byte Reload
	.loc	2 303 24 is_stmt 1              @ ../MotorControl/axis.cpp:303:24
	ldr.w	r0, [r0, #344]
	.loc	2 303 39 is_stmt 0              @ ../MotorControl/axis.cpp:303:39
	ldrb.w	r0, [r0, #56]
	.loc	2 303 50                        @ ../MotorControl/axis.cpp:303:50
	subs	r0, #3
	clz	r0, r0
	lsrs	r0, r0, #5
	.loc	2 303 14                        @ ../MotorControl/axis.cpp:303:14
	strb.w	r0, [sp, #59]
	.loc	2 305 40 is_stmt 1              @ ../MotorControl/axis.cpp:305:40
	ldrb.w	r0, [sp, #95]
	lsls	r0, r0, #31
	cbz	r0, .LBB46_18
	b	.LBB46_17
.LBB46_17:                              @   in Loop: Header=BB46_5 Depth=1
	.loc	2 305 59 is_stmt 0              @ ../MotorControl/axis.cpp:305:59
	ldr	r0, [sp, #32]                   @ 4-byte Reload
	ldr.w	r0, [r0, #252]
	.loc	2 305 81                        @ ../MotorControl/axis.cpp:305:81
	adds	r0, #40
	.loc	2 305 40                        @ ../MotorControl/axis.cpp:305:40
	str	r0, [sp, #12]                   @ 4-byte Spill
	b	.LBB46_19
.LBB46_18:                              @   in Loop: Header=BB46_5 Depth=1
	.loc	2 305 91                        @ ../MotorControl/axis.cpp:305:91
	ldr	r0, [sp, #32]                   @ 4-byte Reload
	ldr.w	r0, [r0, #172]
	.loc	2 305 100                       @ ../MotorControl/axis.cpp:305:100
	adds	r0, #156
	.loc	2 305 40                        @ ../MotorControl/axis.cpp:305:40
	str	r0, [sp, #12]                   @ 4-byte Spill
	b	.LBB46_19
.LBB46_19:                              @   in Loop: Header=BB46_5 Depth=1
	ldr	r0, [sp, #32]                   @ 4-byte Reload
	ldr	r1, [sp, #12]                   @ 4-byte Reload
	.loc	2 305 28                        @ ../MotorControl/axis.cpp:305:28
	str	r1, [sp, #52]
	.loc	2 306 25 is_stmt 1              @ ../MotorControl/axis.cpp:306:25
	adds	r0, #184
	.loc	2 306 53 is_stmt 0              @ ../MotorControl/axis.cpp:306:53
	ldr	r1, [sp, #52]
	.loc	2 306 42                        @ ../MotorControl/axis.cpp:306:42
	bl	_ZN9InputPortIfE10connect_toEP10OutputPortIfE
	.loc	2 307 47 is_stmt 1              @ ../MotorControl/axis.cpp:307:47
	ldrb.w	r0, [sp, #59]
	lsls	r0, r0, #31
	cbz	r0, .LBB46_21
	b	.LBB46_20
.LBB46_20:                              @   in Loop: Header=BB46_5 Depth=1
	.loc	2 307 74 is_stmt 0              @ ../MotorControl/axis.cpp:307:74
	ldr	r0, [sp, #32]                   @ 4-byte Reload
	adds	r0, #244
	.loc	2 307 47                        @ ../MotorControl/axis.cpp:307:47
	str	r0, [sp, #8]                    @ 4-byte Spill
	b	.LBB46_22
.LBB46_21:                              @   in Loop: Header=BB46_5 Depth=1
	.loc	2 307 90                        @ ../MotorControl/axis.cpp:307:90
	ldr	r0, [sp, #52]
	.loc	2 307 47                        @ ../MotorControl/axis.cpp:307:47
	str	r0, [sp, #8]                    @ 4-byte Spill
	b	.LBB46_22
.LBB46_22:                              @   in Loop: Header=BB46_5 Depth=1
	ldr	r0, [sp, #32]                   @ 4-byte Reload
	ldr	r1, [sp, #8]                    @ 4-byte Reload
	.loc	2 307 28                        @ ../MotorControl/axis.cpp:307:28
	str	r1, [sp, #48]
	.loc	2 308 9 is_stmt 1               @ ../MotorControl/axis.cpp:308:9
	ldr.w	r0, [r0, #344]
	.loc	2 308 33 is_stmt 0              @ ../MotorControl/axis.cpp:308:33
	add.w	r0, r0, #260
	.loc	2 308 55                        @ ../MotorControl/axis.cpp:308:55
	ldr	r1, [sp, #48]
	.loc	2 308 44                        @ ../MotorControl/axis.cpp:308:44
	bl	_ZN9InputPortIfE10connect_toEP10OutputPortIfE
	.loc	2 310 44 is_stmt 1              @ ../MotorControl/axis.cpp:310:44
	ldrb.w	r0, [sp, #95]
	lsls	r0, r0, #31
	cbz	r0, .LBB46_24
	b	.LBB46_23
.LBB46_23:                              @   in Loop: Header=BB46_5 Depth=1
	.loc	2 310 63 is_stmt 0              @ ../MotorControl/axis.cpp:310:63
	ldr	r0, [sp, #32]                   @ 4-byte Reload
	ldr.w	r0, [r0, #252]
	.loc	2 310 85                        @ ../MotorControl/axis.cpp:310:85
	adds	r0, #48
	.loc	2 310 44                        @ ../MotorControl/axis.cpp:310:44
	str	r0, [sp, #4]                    @ 4-byte Spill
	b	.LBB46_25
.LBB46_24:                              @   in Loop: Header=BB46_5 Depth=1
	.loc	2 310 99                        @ ../MotorControl/axis.cpp:310:99
	ldr	r0, [sp, #32]                   @ 4-byte Reload
	ldr.w	r0, [r0, #172]
	.loc	2 310 108                       @ ../MotorControl/axis.cpp:310:108
	adds	r0, #164
	.loc	2 310 44                        @ ../MotorControl/axis.cpp:310:44
	str	r0, [sp, #4]                    @ 4-byte Spill
	b	.LBB46_25
.LBB46_25:                              @   in Loop: Header=BB46_5 Depth=1
	ldr	r0, [sp, #32]                   @ 4-byte Reload
	ldr	r1, [sp, #4]                    @ 4-byte Reload
	.loc	2 310 28                        @ ../MotorControl/axis.cpp:310:28
	str	r1, [sp, #44]
	.loc	2 311 25 is_stmt 1              @ ../MotorControl/axis.cpp:311:25
	adds	r0, #192
	.loc	2 311 57 is_stmt 0              @ ../MotorControl/axis.cpp:311:57
	ldr	r1, [sp, #44]
	.loc	2 311 46                        @ ../MotorControl/axis.cpp:311:46
	bl	_ZN9InputPortIfE10connect_toEP10OutputPortIfE
	.loc	2 312 51 is_stmt 1              @ ../MotorControl/axis.cpp:312:51
	ldrb.w	r0, [sp, #59]
	lsls	r0, r0, #31
	cbz	r0, .LBB46_27
	b	.LBB46_26
.LBB46_26:                              @   in Loop: Header=BB46_5 Depth=1
	.loc	2 312 78 is_stmt 0              @ ../MotorControl/axis.cpp:312:78
	ldr	r0, [sp, #32]                   @ 4-byte Reload
	adds	r0, #236
	.loc	2 312 51                        @ ../MotorControl/axis.cpp:312:51
	str	r0, [sp]                        @ 4-byte Spill
	b	.LBB46_28
.LBB46_27:                              @   in Loop: Header=BB46_5 Depth=1
	.loc	2 312 98                        @ ../MotorControl/axis.cpp:312:98
	ldr	r0, [sp, #44]
	.loc	2 312 51                        @ ../MotorControl/axis.cpp:312:51
	str	r0, [sp]                        @ 4-byte Spill
	b	.LBB46_28
.LBB46_28:                              @   in Loop: Header=BB46_5 Depth=1
	ldr	r0, [sp, #32]                   @ 4-byte Reload
	ldr	r1, [sp]                        @ 4-byte Reload
	.loc	2 312 28                        @ ../MotorControl/axis.cpp:312:28
	str	r1, [sp, #40]
	.loc	2 313 9 is_stmt 1               @ ../MotorControl/axis.cpp:313:9
	ldr.w	r0, [r0, #344]
	.loc	2 313 16 is_stmt 0              @ ../MotorControl/axis.cpp:313:16
	add.w	r0, r0, #396
	.loc	2 313 42                        @ ../MotorControl/axis.cpp:313:42
	ldr	r1, [sp, #40]
	.loc	2 313 31                        @ ../MotorControl/axis.cpp:313:31
	bl	_ZN9InputPortIfE10connect_toEP10OutputPortIfE
	ldr	r0, [sp, #32]                   @ 4-byte Reload
	.loc	2 314 9 is_stmt 1               @ ../MotorControl/axis.cpp:314:9
	ldr.w	r0, [r0, #344]
	.loc	2 314 33 is_stmt 0              @ ../MotorControl/axis.cpp:314:33
	add.w	r0, r0, #268
	.loc	2 314 59                        @ ../MotorControl/axis.cpp:314:59
	ldr	r1, [sp, #40]
	.loc	2 314 48                        @ ../MotorControl/axis.cpp:314:48
	bl	_ZN9InputPortIfE10connect_toEP10OutputPortIfE
.Ltmp165:
	.loc	2 316 13 is_stmt 1              @ ../MotorControl/axis.cpp:316:13
	ldrb.w	r0, [sp, #95]
.Ltmp166:
	.loc	2 316 13 is_stmt 0              @ ../MotorControl/axis.cpp:316:13
	lsls	r0, r0, #31
	cbz	r0, .LBB46_30
	b	.LBB46_29
.LBB46_29:                              @   in Loop: Header=BB46_5 Depth=1
.Ltmp167:
	.loc	2 319 49 is_stmt 1              @ ../MotorControl/axis.cpp:319:49
	ldr	r1, [sp, #32]                   @ 4-byte Reload
	vldr	s0, [r1, #80]
	.loc	2 319 70 is_stmt 0              @ ../MotorControl/axis.cpp:319:70
	ldr.w	r0, [r1, #344]
	vldr	s2, [r0, #32]
	vcvt.f32.s32	s2, s2
	vldr	s4, .LCPI46_0
	.loc	2 319 68                        @ ../MotorControl/axis.cpp:319:68
	vmul.f32	s2, s2, s4
	.loc	2 319 53                        @ ../MotorControl/axis.cpp:319:53
	vdiv.f32	s0, s0, s2
	.loc	2 319 19                        @ ../MotorControl/axis.cpp:319:19
	vstr	s0, [sp, #36]
	.loc	2 320 38 is_stmt 1              @ ../MotorControl/axis.cpp:320:38
	ldr	r0, [sp, #36]
	.loc	2 320 13 is_stmt 0              @ ../MotorControl/axis.cpp:320:13
	ldr.w	r2, [r1, #256]
	movw	r3, #14628
	.loc	2 320 36                        @ ../MotorControl/axis.cpp:320:36
	str	r0, [r2, r3]
	.loc	2 321 41 is_stmt 1              @ ../MotorControl/axis.cpp:321:41
	ldr	r0, [sp, #36]
	.loc	2 321 13 is_stmt 0              @ ../MotorControl/axis.cpp:321:13
	ldr.w	r1, [r1, #256]
	movw	r2, #14612
	.loc	2 321 39                        @ ../MotorControl/axis.cpp:321:39
	str	r0, [r1, r2]
	.loc	2 322 9 is_stmt 1               @ ../MotorControl/axis.cpp:322:9
	b	.LBB46_30
.Ltmp168:
.LBB46_30:                              @   in Loop: Header=BB46_5 Depth=1
	.loc	2 323 5                         @ ../MotorControl/axis.cpp:323:5
	b	.LBB46_31
.Ltmp169:
.LBB46_31:                              @   in Loop: Header=BB46_5 Depth=1
	.loc	2 0 5 is_stmt 0                 @ ../MotorControl/axis.cpp:0:5
	movs	r0, #1
	.loc	2 268 5 is_stmt 1               @ ../MotorControl/axis.cpp:268:5
	strb.w	r0, [sp, #72]
	b	.LBB46_5
.LBB46_32:
	.loc	2 0 5 is_stmt 0                 @ ../MotorControl/axis.cpp:0:5
	add	r0, sp, #68
	.loc	2 268 5                         @ ../MotorControl/axis.cpp:268:5
	bl	_ZN22CriticalSectionContextD2Ev
	ldr	r0, [sp, #64]
	cmp	r0, #1
	beq	.LBB46_37
	b	.LBB46_33
.Ltmp170:
.LBB46_33:
@ %bb.34:
	.loc	2 326 10 is_stmt 1              @ ../MotorControl/axis.cpp:326:10
	ldr	r0, [sp, #32]                   @ 4-byte Reload
	ldr.w	r0, [r0, #344]
	.loc	2 326 17 is_stmt 0              @ ../MotorControl/axis.cpp:326:17
	ldrb.w	r0, [r0, #164]
.Ltmp171:
	.loc	2 326 9                         @ ../MotorControl/axis.cpp:326:9
	lsls	r0, r0, #31
	cbnz	r0, .LBB46_36
	b	.LBB46_35
.LBB46_35:
.Ltmp172:
	.loc	2 327 9 is_stmt 1               @ ../MotorControl/axis.cpp:327:9
	ldr	r0, [sp, #32]                   @ 4-byte Reload
	bl	_ZN4Axis26wait_for_control_iterationEv
                                        @ kill: def $r1 killed $r0
	.loc	2 328 9                         @ ../MotorControl/axis.cpp:328:9
	ldr	r0, [sp, #32]                   @ 4-byte Reload
	ldr.w	r0, [r0, #344]
	.loc	2 328 28 is_stmt 0              @ ../MotorControl/axis.cpp:328:28
	add.w	r1, r0, #208
	.loc	2 328 16                        @ ../MotorControl/axis.cpp:328:16
	bl	_ZN5Motor3armEP15PhaseControlLawILj3EE
	.loc	2 329 5 is_stmt 1               @ ../MotorControl/axis.cpp:329:5
	b	.LBB46_36
.Ltmp173:
.LBB46_36:
	.loc	2 0 5 is_stmt 0                 @ ../MotorControl/axis.cpp:0:5
	movs	r0, #1
	.loc	2 331 5 is_stmt 1               @ ../MotorControl/axis.cpp:331:5
	strb.w	r0, [sp, #103]
	b	.LBB46_37
.LBB46_37:
	.loc	2 332 1                         @ ../MotorControl/axis.cpp:332:1
	ldrb.w	r0, [sp, #103]
	.loc	2 332 1 epilogue_begin is_stmt 0 @ ../MotorControl/axis.cpp:332:1
	add	sp, #104
	pop	{r7, pc}
.Ltmp174:
@ %bb.38:
	.p2align	2
@ %bb.39:
	.loc	2 0 1                           @ ../MotorControl/axis.cpp:0:1
.LCPI46_0:
	.long	0x40c90fdb                      @ float 6.28318548
.Lfunc_end46:
	.size	_ZN4Axis25start_closed_loop_controlEv, .Lfunc_end46-_ZN4Axis25start_closed_loop_controlEv
	.cfi_endproc
	.cantunwind
	.fnend
                                        @ -- End function
	.section	.text._ZNSt3__28functionIFbbEEC2B7v180000Ev,"axG",%progbits,_ZNSt3__28functionIFbbEEC2B7v180000Ev,comdat
	.hidden	_ZNSt3__28functionIFbbEEC2B7v180000Ev @ -- Begin function _ZNSt3__28functionIFbbEEC2B7v180000Ev
	.weak	_ZNSt3__28functionIFbbEEC2B7v180000Ev
	.p2align	2
	.type	_ZNSt3__28functionIFbbEEC2B7v180000Ev,%function
	.code	16                              @ @_ZNSt3__28functionIFbbEEC2B7v180000Ev
	.thumb_func
_ZNSt3__28functionIFbbEEC2B7v180000Ev:
.Lfunc_begin47:
	.loc	8 1010 0 is_stmt 1              @ D:\Embed\MDK\MDK\ARM\ARMCompilerV621\Bin\..\include\libcxx\__functional/function.h:1010:0
	.fnstart
	.cfi_startproc
@ %bb.0:
	.save	{r7, lr}
	push	{r7, lr}
	.cfi_def_cfa_offset 8
	.cfi_offset lr, -4
	.cfi_offset r7, -8
	.pad	#8
	sub	sp, #8
	.cfi_def_cfa_offset 16
	str	r0, [sp, #4]
	ldr	r0, [sp, #4]
.Ltmp175:
	.loc	8 1010 5 prologue_end           @ D:\Embed\MDK\MDK\ARM\ARMCompilerV621\Bin\..\include\libcxx\__functional/function.h:1010:5
	str	r0, [sp]                        @ 4-byte Spill
	bl	_ZNSt3__210__function13__policy_funcIFbbEEC2B7v180000Ev
	ldr	r0, [sp]                        @ 4-byte Reload
	.loc	8 1010 28 epilogue_begin is_stmt 0 @ D:\Embed\MDK\MDK\ARM\ARMCompilerV621\Bin\..\include\libcxx\__functional/function.h:1010:28
	add	sp, #8
	pop	{r7, pc}
.Ltmp176:
.Lfunc_end47:
	.size	_ZNSt3__28functionIFbbEEC2B7v180000Ev, .Lfunc_end47-_ZNSt3__28functionIFbbEEC2B7v180000Ev
	.cfi_endproc
	.cantunwind
	.fnend
                                        @ -- End function
	.section	.text._ZNSt3__28functionIFbbEED2Ev,"axG",%progbits,_ZNSt3__28functionIFbbEED2Ev,comdat
	.hidden	_ZNSt3__28functionIFbbEED2Ev    @ -- Begin function _ZNSt3__28functionIFbbEED2Ev
	.weak	_ZNSt3__28functionIFbbEED2Ev
	.p2align	2
	.type	_ZNSt3__28functionIFbbEED2Ev,%function
	.code	16                              @ @_ZNSt3__28functionIFbbEED2Ev
	.thumb_func
_ZNSt3__28functionIFbbEED2Ev:
.Lfunc_begin48:
	.loc	8 1154 0 is_stmt 1              @ D:\Embed\MDK\MDK\ARM\ARMCompilerV621\Bin\..\include\libcxx\__functional/function.h:1154:0
	.fnstart
	.cfi_startproc
@ %bb.0:
	.save	{r7, lr}
	push	{r7, lr}
	.cfi_def_cfa_offset 8
	.cfi_offset lr, -4
	.cfi_offset r7, -8
	.pad	#8
	sub	sp, #8
	.cfi_def_cfa_offset 16
	str	r0, [sp, #4]
	ldr	r0, [sp, #4]
.Ltmp177:
	.loc	8 1154 43 prologue_end          @ D:\Embed\MDK\MDK\ARM\ARMCompilerV621\Bin\..\include\libcxx\__functional/function.h:1154:43
	str	r0, [sp]                        @ 4-byte Spill
	bl	_ZNSt3__210__function13__policy_funcIFbbEED2B7v180000Ev
	ldr	r0, [sp]                        @ 4-byte Reload
.Ltmp178:
	.loc	8 1154 43 epilogue_begin is_stmt 0 @ D:\Embed\MDK\MDK\ARM\ARMCompilerV621\Bin\..\include\libcxx\__functional/function.h:1154:43
	add	sp, #8
	pop	{r7, pc}
.Ltmp179:
.Lfunc_end48:
	.size	_ZNSt3__28functionIFbbEED2Ev, .Lfunc_end48-_ZNSt3__28functionIFbbEED2Ev
	.cfi_endproc
	.cantunwind
	.fnend
                                        @ -- End function
	.section	.text._ZN9InputPortIfE10disconnectEv,"axG",%progbits,_ZN9InputPortIfE10disconnectEv,comdat
	.hidden	_ZN9InputPortIfE10disconnectEv  @ -- Begin function _ZN9InputPortIfE10disconnectEv
	.weak	_ZN9InputPortIfE10disconnectEv
	.p2align	2
	.type	_ZN9InputPortIfE10disconnectEv,%function
	.code	16                              @ @_ZN9InputPortIfE10disconnectEv
	.thumb_func
_ZN9InputPortIfE10disconnectEv:
.Lfunc_begin49:
	.loc	17 133 0 is_stmt 1              @ ../../Firmware\MotorControl/component.hpp:133:0
	.fnstart
	.cfi_startproc
@ %bb.0:
	.save	{r7, lr}
	push	{r7, lr}
	.cfi_def_cfa_offset 8
	.cfi_offset lr, -4
	.cfi_offset r7, -8
	.pad	#8
	sub	sp, #8
	.cfi_def_cfa_offset 16
	str	r0, [sp, #4]
	ldr	r0, [sp, #4]
	movs	r1, #0
.Ltmp180:
	.loc	17 134 20 prologue_end          @ ../../Firmware\MotorControl/component.hpp:134:20
	str	r1, [sp]
	mov	r1, sp
	.loc	17 134 18 is_stmt 0             @ ../../Firmware\MotorControl/component.hpp:134:18
	bl	_ZNSt3__27variantIJfPfP10OutputPortIfEEEaSB7v180000IS4_Li0ES4_Lj2ELi0EEERS5_OT_
	.loc	17 135 5 epilogue_begin is_stmt 1 @ ../../Firmware\MotorControl/component.hpp:135:5
	add	sp, #8
	pop	{r7, pc}
.Ltmp181:
.Lfunc_end49:
	.size	_ZN9InputPortIfE10disconnectEv, .Lfunc_end49-_ZN9InputPortIfE10disconnectEv
	.cfi_endproc
	.cantunwind
	.fnend
                                        @ -- End function
	.section	.text._ZNSt3__25arrayI4AxisLj2EEixB7v180000Ej,"axG",%progbits,_ZNSt3__25arrayI4AxisLj2EEixB7v180000Ej,comdat
	.hidden	_ZNSt3__25arrayI4AxisLj2EEixB7v180000Ej @ -- Begin function _ZNSt3__25arrayI4AxisLj2EEixB7v180000Ej
	.weak	_ZNSt3__25arrayI4AxisLj2EEixB7v180000Ej
	.p2align	2
	.type	_ZNSt3__25arrayI4AxisLj2EEixB7v180000Ej,%function
	.code	16                              @ @_ZNSt3__25arrayI4AxisLj2EEixB7v180000Ej
	.thumb_func
_ZNSt3__25arrayI4AxisLj2EEixB7v180000Ej:
.Lfunc_begin50:
	.loc	27 231 0                        @ D:\Embed\MDK\MDK\ARM\ARMCompilerV621\Bin\..\include\libcxx\array:231:0
	.fnstart
	.cfi_startproc
@ %bb.0:
	.pad	#8
	sub	sp, #8
	.cfi_def_cfa_offset 8
	str	r0, [sp, #4]
	str	r1, [sp]
	ldr	r2, [sp, #4]
.Ltmp182:
	.loc	27 233 25 prologue_end          @ D:\Embed\MDK\MDK\ARM\ARMCompilerV621\Bin\..\include\libcxx\array:233:25
	ldr	r0, [sp]
	mov.w	r1, #696
	.loc	27 233 16 is_stmt 0             @ D:\Embed\MDK\MDK\ARM\ARMCompilerV621\Bin\..\include\libcxx\array:233:16
	mla	r0, r0, r1, r2
	.loc	27 233 9 epilogue_begin         @ D:\Embed\MDK\MDK\ARM\ARMCompilerV621\Bin\..\include\libcxx\array:233:9
	add	sp, #8
	bx	lr
.Ltmp183:
.Lfunc_end50:
	.size	_ZNSt3__25arrayI4AxisLj2EEixB7v180000Ej, .Lfunc_end50-_ZNSt3__25arrayI4AxisLj2EEixB7v180000Ej
	.cfi_endproc
	.cantunwind
	.fnend
                                        @ -- End function
	.section	.text._ZN9InputPortIfE10connect_toEPf,"axG",%progbits,_ZN9InputPortIfE10connect_toEPf,comdat
	.hidden	_ZN9InputPortIfE10connect_toEPf @ -- Begin function _ZN9InputPortIfE10connect_toEPf
	.weak	_ZN9InputPortIfE10connect_toEPf
	.p2align	2
	.type	_ZN9InputPortIfE10connect_toEPf,%function
	.code	16                              @ @_ZN9InputPortIfE10connect_toEPf
	.thumb_func
_ZN9InputPortIfE10connect_toEPf:
.Lfunc_begin51:
	.loc	17 129 0 is_stmt 1              @ ../../Firmware\MotorControl/component.hpp:129:0
	.fnstart
	.cfi_startproc
@ %bb.0:
	.save	{r7, lr}
	push	{r7, lr}
	.cfi_def_cfa_offset 8
	.cfi_offset lr, -4
	.cfi_offset r7, -8
	.pad	#8
	sub	sp, #8
	.cfi_def_cfa_offset 16
	str	r0, [sp, #4]
	str	r1, [sp]
	ldr	r0, [sp, #4]
	mov	r1, sp
.Ltmp184:
	.loc	17 130 18 prologue_end          @ ../../Firmware\MotorControl/component.hpp:130:18
	bl	_ZNSt3__27variantIJfPfP10OutputPortIfEEEaSB7v180000IRS1_Li0ES1_Lj1ELi0EEERS5_OT_
	.loc	17 131 5 epilogue_begin         @ ../../Firmware\MotorControl/component.hpp:131:5
	add	sp, #8
	pop	{r7, pc}
.Ltmp185:
.Lfunc_end51:
	.size	_ZN9InputPortIfE10connect_toEPf, .Lfunc_end51-_ZN9InputPortIfE10connect_toEPf
	.cfi_endproc
	.cantunwind
	.fnend
                                        @ -- End function
	.section	.text._ZN4Axis24stop_closed_loop_controlEv,"ax",%progbits
	.hidden	_ZN4Axis24stop_closed_loop_controlEv @ -- Begin function _ZN4Axis24stop_closed_loop_controlEv
	.globl	_ZN4Axis24stop_closed_loop_controlEv
	.p2align	2
	.type	_ZN4Axis24stop_closed_loop_controlEv,%function
	.code	16                              @ @_ZN4Axis24stop_closed_loop_controlEv
	.thumb_func
_ZN4Axis24stop_closed_loop_controlEv:
.Lfunc_begin52:
	.loc	2 334 0                         @ ../MotorControl/axis.cpp:334:0
	.fnstart
	.cfi_startproc
@ %bb.0:
	.save	{r7, lr}
	push	{r7, lr}
	.cfi_def_cfa_offset 8
	.cfi_offset lr, -4
	.cfi_offset r7, -8
	.pad	#8
	sub	sp, #8
	.cfi_def_cfa_offset 16
	str	r0, [sp, #4]
	ldr	r0, [sp, #4]
.Ltmp186:
	.loc	2 335 5 prologue_end            @ ../MotorControl/axis.cpp:335:5
	str	r0, [sp]                        @ 4-byte Spill
	ldr.w	r0, [r0, #344]
	movs	r1, #0
	.loc	2 335 12 is_stmt 0              @ ../MotorControl/axis.cpp:335:12
	bl	_ZN5Motor6disarmEPb
                                        @ kill: def $r1 killed $r0
	.loc	2 336 12 is_stmt 1              @ ../MotorControl/axis.cpp:336:12
	ldr	r0, [sp]                        @ 4-byte Reload
	bl	_ZN4Axis16check_for_errorsEv
	.loc	2 336 5 epilogue_begin is_stmt 0 @ ../MotorControl/axis.cpp:336:5
	add	sp, #8
	pop	{r7, pc}
.Ltmp187:
.Lfunc_end52:
	.size	_ZN4Axis24stop_closed_loop_controlEv, .Lfunc_end52-_ZN4Axis24stop_closed_loop_controlEv
	.cfi_endproc
	.cantunwind
	.fnend
                                        @ -- End function
	.section	.text._ZN4Axis28run_closed_loop_control_loopEv,"ax",%progbits
	.hidden	_ZN4Axis28run_closed_loop_control_loopEv @ -- Begin function _ZN4Axis28run_closed_loop_control_loopEv
	.globl	_ZN4Axis28run_closed_loop_control_loopEv
	.p2align	2
	.type	_ZN4Axis28run_closed_loop_control_loopEv,%function
	.code	16                              @ @_ZN4Axis28run_closed_loop_control_loopEv
	.thumb_func
_ZN4Axis28run_closed_loop_control_loopEv:
.Lfunc_begin53:
	.loc	2 339 0 is_stmt 1               @ ../MotorControl/axis.cpp:339:0
	.fnstart
	.cfi_startproc
@ %bb.0:
	.save	{r7, lr}
	push	{r7, lr}
	.cfi_def_cfa_offset 8
	.cfi_offset lr, -4
	.cfi_offset r7, -8
	.pad	#16
	sub	sp, #16
	.cfi_def_cfa_offset 24
	str	r0, [sp, #12]
	ldr	r0, [sp, #12]
.Ltmp188:
	.loc	2 340 5 prologue_end            @ ../MotorControl/axis.cpp:340:5
	str	r0, [sp, #8]                    @ 4-byte Spill
	bl	_ZN4Axis25start_closed_loop_controlEv
                                        @ kill: def $r1 killed $r0
	.loc	2 341 5                         @ ../MotorControl/axis.cpp:341:5
	ldr	r0, [sp, #8]                    @ 4-byte Reload
	ldrb	r1, [r0, #21]
	and	r1, r1, #1
	bl	_ZN4Axis19set_step_dir_activeEb
	.loc	2 343 5                         @ ../MotorControl/axis.cpp:343:5
	b	.LBB53_1
.LBB53_1:                               @ =>This Inner Loop Header: Depth=1
	.loc	2 343 13 is_stmt 0              @ ../MotorControl/axis.cpp:343:13
	ldr	r0, [sp, #8]                    @ 4-byte Reload
	ldrb.w	r1, [r0, #628]
	movs	r0, #0
	.loc	2 343 55                        @ ../MotorControl/axis.cpp:343:55
	str	r0, [sp, #4]                    @ 4-byte Spill
	cbnz	r1, .LBB53_3
	b	.LBB53_2
.LBB53_2:                               @   in Loop: Header=BB53_1 Depth=1
	.loc	2 343 58                        @ ../MotorControl/axis.cpp:343:58
	ldr	r0, [sp, #8]                    @ 4-byte Reload
	ldr.w	r0, [r0, #344]
	.loc	2 343 65                        @ ../MotorControl/axis.cpp:343:65
	ldrb.w	r0, [r0, #164]
	str	r0, [sp, #4]                    @ 4-byte Spill
	b	.LBB53_3
.LBB53_3:                               @   in Loop: Header=BB53_1 Depth=1
	.loc	2 0 0                           @ ../MotorControl/axis.cpp:0:0
	ldr	r0, [sp, #4]                    @ 4-byte Reload
	.loc	2 343 5                         @ ../MotorControl/axis.cpp:343:5
	lsls	r0, r0, #31
	cbz	r0, .LBB53_5
	b	.LBB53_4
.LBB53_4:                               @   in Loop: Header=BB53_1 Depth=1
	.loc	2 0 5                           @ ../MotorControl/axis.cpp:0:5
	movs	r0, #1
.Ltmp189:
	.loc	2 344 9 is_stmt 1               @ ../MotorControl/axis.cpp:344:9
	bl	osDelay
.Ltmp190:
	.loc	2 343 5                         @ ../MotorControl/axis.cpp:343:5
	b	.LBB53_1
.LBB53_5:
	.loc	2 347 33                        @ ../MotorControl/axis.cpp:347:33
	ldr	r0, [sp, #8]                    @ 4-byte Reload
	ldrb	r1, [r0, #21]
	movs	r0, #0
	.loc	2 347 49 is_stmt 0              @ ../MotorControl/axis.cpp:347:49
	lsls	r1, r1, #31
	str	r0, [sp]                        @ 4-byte Spill
	cbz	r1, .LBB53_7
	b	.LBB53_6
.LBB53_6:
	.loc	2 347 60                        @ ../MotorControl/axis.cpp:347:60
	ldr	r0, [sp, #8]                    @ 4-byte Reload
	ldrb	r0, [r0, #22]
	str	r0, [sp]                        @ 4-byte Spill
	b	.LBB53_7
.LBB53_7:
	.loc	2 0 0                           @ ../MotorControl/axis.cpp:0:0
	ldr	r0, [sp, #8]                    @ 4-byte Reload
	ldr	r1, [sp]                        @ 4-byte Reload
	.loc	2 347 5                         @ ../MotorControl/axis.cpp:347:5
	and	r1, r1, #1
	bl	_ZN4Axis19set_step_dir_activeEb
	ldr	r0, [sp, #8]                    @ 4-byte Reload
	.loc	2 348 5 is_stmt 1               @ ../MotorControl/axis.cpp:348:5
	bl	_ZN4Axis24stop_closed_loop_controlEv
                                        @ kill: def $r1 killed $r0
	.loc	2 350 12                        @ ../MotorControl/axis.cpp:350:12
	ldr	r0, [sp, #8]                    @ 4-byte Reload
	bl	_ZN4Axis16check_for_errorsEv
	.loc	2 350 5 epilogue_begin is_stmt 0 @ ../MotorControl/axis.cpp:350:5
	add	sp, #16
	pop	{r7, pc}
.Ltmp191:
.Lfunc_end53:
	.size	_ZN4Axis28run_closed_loop_control_loopEv, .Lfunc_end53-_ZN4Axis28run_closed_loop_control_loopEv
	.cfi_endproc
	.cantunwind
	.fnend
                                        @ -- End function
	.section	.text._ZN4Axis10run_homingEv,"ax",%progbits
	.hidden	_ZN4Axis10run_homingEv          @ -- Begin function _ZN4Axis10run_homingEv
	.globl	_ZN4Axis10run_homingEv
	.p2align	2
	.type	_ZN4Axis10run_homingEv,%function
	.code	16                              @ @_ZN4Axis10run_homingEv
	.thumb_func
_ZN4Axis10run_homingEv:
.Lfunc_begin54:
	.loc	2 356 0 is_stmt 1               @ ../MotorControl/axis.cpp:356:0
	.fnstart
	.cfi_startproc
@ %bb.0:
	.save	{r7, lr}
	push	{r7, lr}
	.cfi_def_cfa_offset 8
	.cfi_offset lr, -4
	.cfi_offset r7, -8
	.pad	#56
	sub	sp, #56
	.cfi_def_cfa_offset 64
	str	r0, [sp, #48]
	ldr	r0, [sp, #48]
.Ltmp192:
	.loc	2 359 10 prologue_end           @ ../MotorControl/axis.cpp:359:10
	str	r0, [sp, #28]                   @ 4-byte Spill
	ldr.w	r0, [r0, #352]
	.loc	2 359 31 is_stmt 0              @ ../MotorControl/axis.cpp:359:31
	ldrb	r0, [r0, #10]
.Ltmp193:
	.loc	2 359 9                         @ ../MotorControl/axis.cpp:359:9
	lsls	r0, r0, #31
	cbnz	r0, .LBB54_2
	b	.LBB54_1
.LBB54_1:
.Ltmp194:
	.loc	2 360 16 is_stmt 1              @ ../MotorControl/axis.cpp:360:16
	ldr	r0, [sp, #28]                   @ 4-byte Reload
	add.w	r0, r0, #588
	mov.w	r1, #131072
	.loc	2 360 23 is_stmt 0              @ ../MotorControl/axis.cpp:360:23
	bl	_ZoRRN10ODriveIntf8AxisIntf5ErrorES1_
	movs	r0, #0
	.loc	2 360 9                         @ ../MotorControl/axis.cpp:360:9
	strb.w	r0, [sp, #55]
	b	.LBB54_25
.Ltmp195:
.LBB54_2:
	.loc	2 363 5 is_stmt 1               @ ../MotorControl/axis.cpp:363:5
	ldr	r0, [sp, #28]                   @ 4-byte Reload
	ldr.w	r2, [r0, #256]
	movs	r1, #3
	.loc	2 363 38 is_stmt 0              @ ../MotorControl/axis.cpp:363:38
	strb	r1, [r2, #24]
	.loc	2 364 5 is_stmt 1               @ ../MotorControl/axis.cpp:364:5
	ldr.w	r2, [r0, #256]
	.loc	2 364 36 is_stmt 0              @ ../MotorControl/axis.cpp:364:36
	strb	r1, [r2, #25]
	.loc	2 366 5 is_stmt 1               @ ../MotorControl/axis.cpp:366:5
	ldr.w	r2, [r0, #256]
	movw	r3, #14624
	movs	r1, #0
	.loc	2 366 28 is_stmt 0              @ ../MotorControl/axis.cpp:366:28
	str	r1, [sp, #24]                   @ 4-byte Spill
	str	r1, [r2, r3]
	.loc	2 367 5 is_stmt 1               @ ../MotorControl/axis.cpp:367:5
	ldr.w	r0, [r0, #256]
	.loc	2 367 17 is_stmt 0              @ ../MotorControl/axis.cpp:367:17
	bl	_ZN10Controller17input_pos_updatedEv
	ldr	r0, [sp, #24]                   @ 4-byte Reload
	ldr	r1, [sp, #28]                   @ 4-byte Reload
	.loc	2 368 31 is_stmt 1              @ ../MotorControl/axis.cpp:368:31
	ldr.w	r2, [r1, #256]
	.loc	2 368 51 is_stmt 0              @ ../MotorControl/axis.cpp:368:51
	vldr	s0, [r2, #80]
	.loc	2 368 30                        @ ../MotorControl/axis.cpp:368:30
	vneg.f32	s0, s0
	movw	r3, #14628
	.loc	2 368 17                        @ ../MotorControl/axis.cpp:368:17
	add	r2, r3
	.loc	2 368 28                        @ ../MotorControl/axis.cpp:368:28
	vstr	s0, [r2]
	.loc	2 369 5 is_stmt 1               @ ../MotorControl/axis.cpp:369:5
	ldr.w	r2, [r1, #256]
	movw	r3, #14632
	.loc	2 369 31 is_stmt 0              @ ../MotorControl/axis.cpp:369:31
	str	r0, [r2, r3]
	.loc	2 371 22 is_stmt 1              @ ../MotorControl/axis.cpp:371:22
	strb.w	r0, [r1, #644]
	mov.w	r0, #4096
	.loc	2 373 15                        @ ../MotorControl/axis.cpp:373:15
	bl	_ZcoN10ODriveIntf8AxisIntf5ErrorE
	mov	r1, r0
	.loc	2 373 5 is_stmt 0               @ ../MotorControl/axis.cpp:373:5
	ldr	r0, [sp, #28]                   @ 4-byte Reload
	add.w	r0, r0, #588
	.loc	2 373 12                        @ ../MotorControl/axis.cpp:373:12
	bl	_ZaNRN10ODriveIntf8AxisIntf5ErrorES1_
	ldr	r1, [sp, #24]                   @ 4-byte Reload
                                        @ kill: def $r2 killed $r0
	.loc	2 375 10 is_stmt 1              @ ../MotorControl/axis.cpp:375:10
	ldr	r0, [sp, #28]                   @ 4-byte Reload
	strb.w	r1, [sp, #47]
	.loc	2 377 5                         @ ../MotorControl/axis.cpp:377:5
	bl	_ZN4Axis25start_closed_loop_controlEv
	.loc	2 380 5                         @ ../MotorControl/axis.cpp:380:5
	b	.LBB54_3
.LBB54_3:                               @ =>This Inner Loop Header: Depth=1
	.loc	2 380 13 is_stmt 0              @ ../MotorControl/axis.cpp:380:13
	ldr	r0, [sp, #28]                   @ 4-byte Reload
	ldrb.w	r1, [r0, #628]
	movs	r0, #0
	.loc	2 380 55                        @ ../MotorControl/axis.cpp:380:55
	str	r0, [sp, #20]                   @ 4-byte Spill
	cbnz	r1, .LBB54_6
	b	.LBB54_4
.LBB54_4:                               @   in Loop: Header=BB54_3 Depth=1
	.loc	2 380 58                        @ ../MotorControl/axis.cpp:380:58
	ldr	r0, [sp, #28]                   @ 4-byte Reload
	ldr.w	r0, [r0, #344]
	.loc	2 380 65                        @ ../MotorControl/axis.cpp:380:65
	ldrb.w	r1, [r0, #164]
	movs	r0, #0
	.loc	2 380 75                        @ ../MotorControl/axis.cpp:380:75
	lsls	r1, r1, #31
	str	r0, [sp, #20]                   @ 4-byte Spill
	cbz	r1, .LBB54_6
	b	.LBB54_5
.LBB54_5:                               @   in Loop: Header=BB54_3 Depth=1
	.loc	2 380 87                        @ ../MotorControl/axis.cpp:380:87
	ldr	r0, [sp, #28]                   @ 4-byte Reload
	ldr.w	r0, [r0, #352]
	.loc	2 380 100                       @ ../MotorControl/axis.cpp:380:100
	bl	_ZN7Endstop9get_stateEv
	.loc	2 380 85                        @ ../MotorControl/axis.cpp:380:85
	strb.w	r0, [sp, #47]
	.loc	2 380 78                        @ ../MotorControl/axis.cpp:380:78
	eor	r0, r0, #1
	str	r0, [sp, #20]                   @ 4-byte Spill
	b	.LBB54_6
.LBB54_6:                               @   in Loop: Header=BB54_3 Depth=1
	.loc	2 0 0                           @ ../MotorControl/axis.cpp:0:0
	ldr	r0, [sp, #20]                   @ 4-byte Reload
	.loc	2 380 5                         @ ../MotorControl/axis.cpp:380:5
	lsls	r0, r0, #31
	cbz	r0, .LBB54_8
	b	.LBB54_7
.LBB54_7:                               @   in Loop: Header=BB54_3 Depth=1
	.loc	2 0 5                           @ ../MotorControl/axis.cpp:0:5
	movs	r0, #1
.Ltmp196:
	.loc	2 381 9 is_stmt 1               @ ../MotorControl/axis.cpp:381:9
	bl	osDelay
.Ltmp197:
	.loc	2 380 5                         @ ../MotorControl/axis.cpp:380:5
	b	.LBB54_3
.LBB54_8:
	.loc	2 384 5                         @ ../MotorControl/axis.cpp:384:5
	ldr	r0, [sp, #28]                   @ 4-byte Reload
	bl	_ZN4Axis24stop_closed_loop_controlEv
                                        @ kill: def $r1 killed $r0
	.loc	2 386 5                         @ ../MotorControl/axis.cpp:386:5
	ldr	r0, [sp, #28]                   @ 4-byte Reload
	ldr.w	r1, [r0, #256]
	movw	r2, #14628
	movs	r0, #0
	.loc	2 386 28 is_stmt 0              @ ../MotorControl/axis.cpp:386:28
	str	r0, [r1, r2]
.Ltmp198:
	.loc	2 388 10 is_stmt 1              @ ../MotorControl/axis.cpp:388:10
	ldrb.w	r0, [sp, #47]
.Ltmp199:
	.loc	2 388 9 is_stmt 0               @ ../MotorControl/axis.cpp:388:9
	lsls	r0, r0, #31
	cbnz	r0, .LBB54_10
	b	.LBB54_9
.LBB54_9:
	.loc	2 0 9                           @ ../MotorControl/axis.cpp:0:9
	movs	r0, #0
.Ltmp200:
	.loc	2 389 9 is_stmt 1               @ ../MotorControl/axis.cpp:389:9
	strb.w	r0, [sp, #55]
	b	.LBB54_25
.Ltmp201:
.LBB54_10:
	.loc	2 0 9 is_stmt 0                 @ ../MotorControl/axis.cpp:0:9
	mov.w	r0, #4096
	.loc	2 392 15 is_stmt 1              @ ../MotorControl/axis.cpp:392:15
	bl	_ZcoN10ODriveIntf8AxisIntf5ErrorE
	mov	r1, r0
	.loc	2 392 5 is_stmt 0               @ ../MotorControl/axis.cpp:392:5
	ldr	r0, [sp, #28]                   @ 4-byte Reload
	add.w	r0, r0, #588
	.loc	2 392 12                        @ ../MotorControl/axis.cpp:392:12
	bl	_ZaNRN10ODriveIntf8AxisIntf5ErrorES1_
                                        @ kill: def $r1 killed $r0
	.loc	2 394 47 is_stmt 1              @ ../MotorControl/axis.cpp:394:47
	ldr	r0, [sp, #28]                   @ 4-byte Reload
	ldr.w	r0, [r0, #172]
	.loc	2 394 56 is_stmt 0              @ ../MotorControl/axis.cpp:394:56
	add.w	r1, r0, #208
	add	r0, sp, #36
	.loc	2 394 70                        @ ../MotorControl/axis.cpp:394:70
	str	r0, [sp, #16]                   @ 4-byte Spill
	bl	_ZN10OutputPortIfE3anyEv
	ldr	r0, [sp, #16]                   @ 4-byte Reload
.Ltmp202:
	.loc	2 395 28 is_stmt 1              @ ../MotorControl/axis.cpp:395:28
	bl	_ZNSt3__2eqB7v180000IfEEbRKNS_8optionalIT_EENS_9nullopt_tE
	.loc	2 395 44 is_stmt 0              @ ../MotorControl/axis.cpp:395:44
	cbnz	r0, .LBB54_12
	b	.LBB54_11
.LBB54_11:
	.loc	2 0 44                          @ ../MotorControl/axis.cpp:0:44
	add	r0, sp, #36
	.loc	2 395 67                        @ ../MotorControl/axis.cpp:395:67
	bl	_ZNKSt3__223__optional_storage_baseIfLb0EE9has_valueB7v180000Ev
.Ltmp203:
	.loc	2 395 9                         @ ../MotorControl/axis.cpp:395:9
	cbnz	r0, .LBB54_13
	b	.LBB54_12
.LBB54_12:
.Ltmp204:
	.loc	2 396 16 is_stmt 1              @ ../MotorControl/axis.cpp:396:16
	ldr	r0, [sp, #28]                   @ 4-byte Reload
	add.w	r0, r0, #588
	mov.w	r1, #524288
	.loc	2 396 23 is_stmt 0              @ ../MotorControl/axis.cpp:396:23
	bl	_ZoRRN10ODriveIntf8AxisIntf5ErrorES1_
	movs	r0, #0
	.loc	2 396 9                         @ ../MotorControl/axis.cpp:396:9
	strb.w	r0, [sp, #55]
	b	.LBB54_25
.Ltmp205:
.LBB54_13:
	.loc	2 399 5 is_stmt 1               @ ../MotorControl/axis.cpp:399:5
	ldr	r0, [sp, #28]                   @ 4-byte Reload
	ldr.w	r2, [r0, #256]
	movs	r1, #4
	.loc	2 399 38 is_stmt 0              @ ../MotorControl/axis.cpp:399:38
	strb	r1, [r2, #24]
	.loc	2 400 5 is_stmt 1               @ ../MotorControl/axis.cpp:400:5
	ldr.w	r2, [r0, #256]
	movs	r1, #6
	.loc	2 400 36 is_stmt 0              @ ../MotorControl/axis.cpp:400:36
	strb	r1, [r2, #25]
	.loc	2 403 5 is_stmt 1               @ ../MotorControl/axis.cpp:403:5
	bl	_ZN4Axis25start_closed_loop_controlEv
	add	r0, sp, #36
	.loc	2 405 49                        @ ../MotorControl/axis.cpp:405:49
	str	r0, [sp, #8]                    @ 4-byte Spill
	bl	_ZNRSt3__28optionalIfE5valueB7v180000Ev
	ldr	r2, [sp, #28]                   @ 4-byte Reload
	mov	r1, r0
	ldr	r0, [sp, #8]                    @ 4-byte Reload
	vldr	s0, [r1]
	.loc	2 405 5 is_stmt 0               @ ../MotorControl/axis.cpp:405:5
	ldr.w	r1, [r2, #256]
	.loc	2 405 59                        @ ../MotorControl/axis.cpp:405:59
	ldr.w	r2, [r2, #352]
	.loc	2 405 80                        @ ../MotorControl/axis.cpp:405:80
	vldr	s2, [r2]
	.loc	2 405 57                        @ ../MotorControl/axis.cpp:405:57
	vadd.f32	s0, s0, s2
	movw	r2, #14624
	.loc	2 405 17                        @ ../MotorControl/axis.cpp:405:17
	add	r1, r2
	.loc	2 405 28                        @ ../MotorControl/axis.cpp:405:28
	vstr	s0, [r1]
	.loc	2 406 52 is_stmt 1              @ ../MotorControl/axis.cpp:406:52
	bl	_ZNRSt3__28optionalIfE5valueB7v180000Ev
	mov	r1, r0
	ldr	r0, [sp, #28]                   @ 4-byte Reload
	ldr	r1, [r1]
	.loc	2 406 5 is_stmt 0               @ ../MotorControl/axis.cpp:406:5
	ldr.w	r2, [r0, #256]
	movw	r3, #14608
	.loc	2 406 31                        @ ../MotorControl/axis.cpp:406:31
	str	r1, [r2, r3]
	.loc	2 407 5 is_stmt 1               @ ../MotorControl/axis.cpp:407:5
	ldr.w	r2, [r0, #256]
	movw	r3, #14612
	movs	r1, #0
	.loc	2 407 31 is_stmt 0              @ ../MotorControl/axis.cpp:407:31
	str	r1, [sp, #12]                   @ 4-byte Spill
	str	r1, [r2, r3]
	.loc	2 408 5 is_stmt 1               @ ../MotorControl/axis.cpp:408:5
	ldr.w	r0, [r0, #256]
	.loc	2 408 17 is_stmt 0              @ ../MotorControl/axis.cpp:408:17
	bl	_ZN10Controller17input_pos_updatedEv
	ldr	r1, [sp, #28]                   @ 4-byte Reload
	ldr	r0, [sp, #12]                   @ 4-byte Reload
	.loc	2 412 5 is_stmt 1               @ ../MotorControl/axis.cpp:412:5
	ldr.w	r1, [r1, #256]
	movw	r2, #14665
	.loc	2 412 34 is_stmt 0              @ ../MotorControl/axis.cpp:412:34
	strb	r0, [r1, r2]
	.loc	2 414 5 is_stmt 1               @ ../MotorControl/axis.cpp:414:5
	b	.LBB54_14
.LBB54_14:                              @ =>This Inner Loop Header: Depth=1
	.loc	2 414 13 is_stmt 0              @ ../MotorControl/axis.cpp:414:13
	ldr	r0, [sp, #28]                   @ 4-byte Reload
	ldrb.w	r1, [r0, #628]
	movs	r0, #0
	.loc	2 414 55                        @ ../MotorControl/axis.cpp:414:55
	str	r0, [sp, #4]                    @ 4-byte Spill
	cbnz	r1, .LBB54_17
	b	.LBB54_15
.LBB54_15:                              @   in Loop: Header=BB54_14 Depth=1
	.loc	2 414 58                        @ ../MotorControl/axis.cpp:414:58
	ldr	r0, [sp, #28]                   @ 4-byte Reload
	ldr.w	r0, [r0, #344]
	.loc	2 414 65                        @ ../MotorControl/axis.cpp:414:65
	ldrb.w	r1, [r0, #164]
	movs	r0, #0
	.loc	2 414 75                        @ ../MotorControl/axis.cpp:414:75
	lsls	r1, r1, #31
	str	r0, [sp, #4]                    @ 4-byte Spill
	cbz	r1, .LBB54_17
	b	.LBB54_16
.LBB54_16:                              @   in Loop: Header=BB54_14 Depth=1
	.loc	2 414 87                        @ ../MotorControl/axis.cpp:414:87
	ldr	r0, [sp, #28]                   @ 4-byte Reload
	ldr.w	r0, [r0, #256]
	movw	r1, #14665
	.loc	2 414 99                        @ ../MotorControl/axis.cpp:414:99
	ldrb	r0, [r0, r1]
	.loc	2 414 85                        @ ../MotorControl/axis.cpp:414:85
	and	r1, r0, #1
	strb.w	r1, [sp, #47]
	.loc	2 414 78                        @ ../MotorControl/axis.cpp:414:78
	eor	r0, r0, #1
	str	r0, [sp, #4]                    @ 4-byte Spill
	b	.LBB54_17
.LBB54_17:                              @   in Loop: Header=BB54_14 Depth=1
	.loc	2 0 0                           @ ../MotorControl/axis.cpp:0:0
	ldr	r0, [sp, #4]                    @ 4-byte Reload
	.loc	2 414 5                         @ ../MotorControl/axis.cpp:414:5
	lsls	r0, r0, #31
	cbz	r0, .LBB54_19
	b	.LBB54_18
.LBB54_18:                              @   in Loop: Header=BB54_14 Depth=1
	.loc	2 0 5                           @ ../MotorControl/axis.cpp:0:5
	movs	r0, #1
.Ltmp206:
	.loc	2 415 9 is_stmt 1               @ ../MotorControl/axis.cpp:415:9
	bl	osDelay
.Ltmp207:
	.loc	2 414 5                         @ ../MotorControl/axis.cpp:414:5
	b	.LBB54_14
.LBB54_19:
	.loc	2 418 5                         @ ../MotorControl/axis.cpp:418:5
	ldr	r0, [sp, #28]                   @ 4-byte Reload
	bl	_ZN4Axis24stop_closed_loop_controlEv
.Ltmp208:
	.loc	2 420 10                        @ ../MotorControl/axis.cpp:420:10
	ldrb.w	r0, [sp, #47]
.Ltmp209:
	.loc	2 420 9 is_stmt 0               @ ../MotorControl/axis.cpp:420:9
	lsls	r0, r0, #31
	cbnz	r0, .LBB54_21
	b	.LBB54_20
.LBB54_20:
	.loc	2 0 9                           @ ../MotorControl/axis.cpp:0:9
	movs	r0, #0
.Ltmp210:
	.loc	2 421 9 is_stmt 1               @ ../MotorControl/axis.cpp:421:9
	strb.w	r0, [sp, #55]
	b	.LBB54_25
.Ltmp211:
.LBB54_21:
	.loc	2 425 5                         @ ../MotorControl/axis.cpp:425:5
	ldr	r0, [sp, #28]                   @ 4-byte Reload
	ldr.w	r0, [r0, #172]
	.loc	2 425 14 is_stmt 0              @ ../MotorControl/axis.cpp:425:14
	ldr	r1, [r0]
	ldr	r2, [r1]
	movs	r1, #0
	blx	r2
	ldr	r1, [sp, #28]                   @ 4-byte Reload
	.loc	2 426 36 is_stmt 1              @ ../MotorControl/axis.cpp:426:36
	ldr.w	r0, [r1, #256]
	mov.w	r2, #14528
	.loc	2 426 56 is_stmt 0              @ ../MotorControl/axis.cpp:426:56
	ldrb	r0, [r0, r2]
	.loc	2 426 16                        @ ../MotorControl/axis.cpp:426:16
	strb.w	r0, [sp, #34]
.Ltmp212:
	.loc	2 427 8 is_stmt 1               @ ../MotorControl/axis.cpp:427:8
	ldrb.w	r0, [sp, #34]
	.loc	2 427 29 is_stmt 0              @ ../MotorControl/axis.cpp:427:29
	ldr	r1, [r1, #4]
	.loc	2 427 39                        @ ../MotorControl/axis.cpp:427:39
	cmp	r0, r1
	beq	.LBB54_24
	b	.LBB54_22
.LBB54_22:
	.loc	2 427 42                        @ ../MotorControl/axis.cpp:427:42
	ldrb.w	r0, [sp, #34]
.Ltmp213:
	.loc	2 427 8                         @ ../MotorControl/axis.cpp:427:8
	cmp	r0, #1
	bgt	.LBB54_24
	b	.LBB54_23
.LBB54_23:
.Ltmp214:
	.loc	2 428 14 is_stmt 1              @ ../MotorControl/axis.cpp:428:14
	ldrb.w	r1, [sp, #34]
	.loc	2 428 9 is_stmt 0               @ ../MotorControl/axis.cpp:428:9
	movw	r0, :lower16:axes
	movt	r0, :upper16:axes
	bl	_ZNSt3__25arrayI4AxisLj2EEixB7v180000Ej
	.loc	2 428 33                        @ ../MotorControl/axis.cpp:428:33
	ldr.w	r0, [r0, #172]
	.loc	2 428 42                        @ ../MotorControl/axis.cpp:428:42
	ldr	r1, [r0]
	ldr	r2, [r1]
	movs	r1, #0
	blx	r2
	.loc	2 429 5 is_stmt 1               @ ../MotorControl/axis.cpp:429:5
	b	.LBB54_24
.Ltmp215:
.LBB54_24:
	.loc	2 430 5                         @ ../MotorControl/axis.cpp:430:5
	ldr	r0, [sp, #28]                   @ 4-byte Reload
	ldr.w	r2, [r0, #256]
	movw	r3, #14624
	movs	r1, #0
	.loc	2 430 28 is_stmt 0              @ ../MotorControl/axis.cpp:430:28
	str	r1, [r2, r3]
	.loc	2 431 5 is_stmt 1               @ ../MotorControl/axis.cpp:431:5
	ldr.w	r2, [r0, #256]
	movw	r3, #14608
	.loc	2 431 31 is_stmt 0              @ ../MotorControl/axis.cpp:431:31
	str	r1, [r2, r3]
	.loc	2 432 5 is_stmt 1               @ ../MotorControl/axis.cpp:432:5
	ldr.w	r2, [r0, #256]
	movw	r3, #14612
	.loc	2 432 31 is_stmt 0              @ ../MotorControl/axis.cpp:432:31
	str	r1, [r2, r3]
	.loc	2 433 5 is_stmt 1               @ ../MotorControl/axis.cpp:433:5
	ldr.w	r0, [r0, #256]
	.loc	2 433 17 is_stmt 0              @ ../MotorControl/axis.cpp:433:17
	bl	_ZN10Controller17input_pos_updatedEv
	movs	r0, #1
	.loc	2 436 5 is_stmt 1               @ ../MotorControl/axis.cpp:436:5
	str	r0, [sp]                        @ 4-byte Spill
	bl	osDelay
	ldr	r1, [sp]                        @ 4-byte Reload
                                        @ kill: def $r2 killed $r0
	.loc	2 438 22                        @ ../MotorControl/axis.cpp:438:22
	ldr	r0, [sp, #28]                   @ 4-byte Reload
	strb.w	r1, [r0, #644]
	.loc	2 440 12                        @ ../MotorControl/axis.cpp:440:12
	bl	_ZN4Axis16check_for_errorsEv
	.loc	2 440 5 is_stmt 0               @ ../MotorControl/axis.cpp:440:5
	strb.w	r0, [sp, #55]
	b	.LBB54_25
.LBB54_25:
	.loc	2 441 1 is_stmt 1               @ ../MotorControl/axis.cpp:441:1
	ldrb.w	r0, [sp, #55]
	.loc	2 441 1 epilogue_begin is_stmt 0 @ ../MotorControl/axis.cpp:441:1
	add	sp, #56
	pop	{r7, pc}
.Ltmp216:
.Lfunc_end54:
	.size	_ZN4Axis10run_homingEv, .Lfunc_end54-_ZN4Axis10run_homingEv
	.cfi_endproc
	.cantunwind
	.fnend
                                        @ -- End function
	.section	.text._ZaNRN10ODriveIntf8AxisIntf5ErrorES1_,"axG",%progbits,_ZaNRN10ODriveIntf8AxisIntf5ErrorES1_,comdat
	.hidden	_ZaNRN10ODriveIntf8AxisIntf5ErrorES1_ @ -- Begin function _ZaNRN10ODriveIntf8AxisIntf5ErrorES1_
	.weak	_ZaNRN10ODriveIntf8AxisIntf5ErrorES1_
	.p2align	2
	.type	_ZaNRN10ODriveIntf8AxisIntf5ErrorES1_,%function
	.code	16                              @ @_ZaNRN10ODriveIntf8AxisIntf5ErrorES1_
	.thumb_func
_ZaNRN10ODriveIntf8AxisIntf5ErrorES1_:
.Lfunc_begin55:
	.loc	10 1184 0 is_stmt 1             @ ../../Firmware\autogen/interfaces.hpp:1184:0
	.fnstart
	.cfi_startproc
@ %bb.0:
	.pad	#8
	sub	sp, #8
	.cfi_def_cfa_offset 8
	str	r0, [sp, #4]
	str	r1, [sp]
.Ltmp217:
	.loc	10 1184 311 prologue_end        @ ../../Firmware\autogen/interfaces.hpp:1184:311
	ldr	r2, [sp]
	.loc	10 1184 240 is_stmt 0           @ ../../Firmware\autogen/interfaces.hpp:1184:240
	ldr	r0, [sp, #4]
	.loc	10 1184 243                     @ ../../Firmware\autogen/interfaces.hpp:1184:243
	ldr	r1, [r0]
	ands	r1, r2
	str	r1, [r0]
	.loc	10 1184 115 epilogue_begin      @ ../../Firmware\autogen/interfaces.hpp:1184:115
	add	sp, #8
	bx	lr
.Ltmp218:
.Lfunc_end55:
	.size	_ZaNRN10ODriveIntf8AxisIntf5ErrorES1_, .Lfunc_end55-_ZaNRN10ODriveIntf8AxisIntf5ErrorES1_
	.cfi_endproc
	.cantunwind
	.fnend
                                        @ -- End function
	.section	.text._ZcoN10ODriveIntf8AxisIntf5ErrorE,"axG",%progbits,_ZcoN10ODriveIntf8AxisIntf5ErrorE,comdat
	.hidden	_ZcoN10ODriveIntf8AxisIntf5ErrorE @ -- Begin function _ZcoN10ODriveIntf8AxisIntf5ErrorE
	.weak	_ZcoN10ODriveIntf8AxisIntf5ErrorE
	.p2align	2
	.type	_ZcoN10ODriveIntf8AxisIntf5ErrorE,%function
	.code	16                              @ @_ZcoN10ODriveIntf8AxisIntf5ErrorE
	.thumb_func
_ZcoN10ODriveIntf8AxisIntf5ErrorE:
.Lfunc_begin56:
	.loc	10 1186 0 is_stmt 1             @ ../../Firmware\autogen/interfaces.hpp:1186:0
	.fnstart
	.cfi_startproc
@ %bb.0:
	.pad	#4
	sub	sp, #4
	.cfi_def_cfa_offset 4
	str	r0, [sp]
.Ltmp219:
	.loc	10 1186 195 prologue_end        @ ../../Firmware\autogen/interfaces.hpp:1186:195
	ldr	r0, [sp]
	.loc	10 1186 129 is_stmt 0           @ ../../Firmware\autogen/interfaces.hpp:1186:129
	mvns	r0, r0
	.loc	10 1186 81 epilogue_begin       @ ../../Firmware\autogen/interfaces.hpp:1186:81
	add	sp, #4
	bx	lr
.Ltmp220:
.Lfunc_end56:
	.size	_ZcoN10ODriveIntf8AxisIntf5ErrorE, .Lfunc_end56-_ZcoN10ODriveIntf8AxisIntf5ErrorE
	.cfi_endproc
	.cantunwind
	.fnend
                                        @ -- End function
	.section	.text._ZN7Endstop9get_stateEv,"axG",%progbits,_ZN7Endstop9get_stateEv,comdat
	.hidden	_ZN7Endstop9get_stateEv         @ -- Begin function _ZN7Endstop9get_stateEv
	.weak	_ZN7Endstop9get_stateEv
	.p2align	2
	.type	_ZN7Endstop9get_stateEv,%function
	.code	16                              @ @_ZN7Endstop9get_stateEv
	.thumb_func
_ZN7Endstop9get_stateEv:
.Lfunc_begin57:
	.loc	21 28 0 is_stmt 1               @ ../MotorControl\endstop.hpp:28:0
	.fnstart
	.cfi_startproc
@ %bb.0:
	.pad	#4
	sub	sp, #4
	.cfi_def_cfa_offset 4
	str	r0, [sp]
	ldr	r0, [sp]
.Ltmp221:
	.loc	21 29 9 prologue_end            @ ../MotorControl\endstop.hpp:29:9
	ldrb	r0, [r0, #20]
	and	r0, r0, #1
	.loc	21 29 9 epilogue_begin is_stmt 0 @ ../MotorControl\endstop.hpp:29:9
	add	sp, #4
	bx	lr
.Ltmp222:
.Lfunc_end57:
	.size	_ZN7Endstop9get_stateEv, .Lfunc_end57-_ZN7Endstop9get_stateEv
	.cfi_endproc
	.cantunwind
	.fnend
                                        @ -- End function
	.section	.text._ZNSt3__2eqB7v180000IfEEbRKNS_8optionalIT_EENS_9nullopt_tE,"axG",%progbits,_ZNSt3__2eqB7v180000IfEEbRKNS_8optionalIT_EENS_9nullopt_tE,comdat
	.hidden	_ZNSt3__2eqB7v180000IfEEbRKNS_8optionalIT_EENS_9nullopt_tE @ -- Begin function _ZNSt3__2eqB7v180000IfEEbRKNS_8optionalIT_EENS_9nullopt_tE
	.weak	_ZNSt3__2eqB7v180000IfEEbRKNS_8optionalIT_EENS_9nullopt_tE
	.p2align	2
	.type	_ZNSt3__2eqB7v180000IfEEbRKNS_8optionalIT_EENS_9nullopt_tE,%function
	.code	16                              @ @_ZNSt3__2eqB7v180000IfEEbRKNS_8optionalIT_EENS_9nullopt_tE
	.thumb_func
_ZNSt3__2eqB7v180000IfEEbRKNS_8optionalIT_EENS_9nullopt_tE:
.Lfunc_begin58:
	.loc	5 1363 0 is_stmt 1              @ D:\Embed\MDK\MDK\ARM\ARMCompilerV621\Bin\..\include\libcxx\optional:1363:0
	.fnstart
	.cfi_startproc
@ %bb.0:
	.save	{r7, lr}
	push	{r7, lr}
	.cfi_def_cfa_offset 8
	.cfi_offset lr, -4
	.cfi_offset r7, -8
	.pad	#8
	sub	sp, #8
	.cfi_def_cfa_offset 16
	str	r0, [sp]
.Ltmp223:
	.loc	5 1364 31 prologue_end          @ D:\Embed\MDK\MDK\ARM\ARMCompilerV621\Bin\..\include\libcxx\optional:1364:31
	ldr	r0, [sp]
	bl	_ZNKSt3__28optionalIfEcvbB7v180000Ev
	.loc	5 1364 12 is_stmt 0             @ D:\Embed\MDK\MDK\ARM\ARMCompilerV621\Bin\..\include\libcxx\optional:1364:12
	eor	r0, r0, #1
	.loc	5 1364 5 epilogue_begin         @ D:\Embed\MDK\MDK\ARM\ARMCompilerV621\Bin\..\include\libcxx\optional:1364:5
	add	sp, #8
	pop	{r7, pc}
.Ltmp224:
.Lfunc_end58:
	.size	_ZNSt3__2eqB7v180000IfEEbRKNS_8optionalIT_EENS_9nullopt_tE, .Lfunc_end58-_ZNSt3__2eqB7v180000IfEEbRKNS_8optionalIT_EENS_9nullopt_tE
	.cfi_endproc
	.cantunwind
	.fnend
                                        @ -- End function
	.section	.text._ZNKSt3__223__optional_storage_baseIfLb0EE9has_valueB7v180000Ev,"axG",%progbits,_ZNKSt3__223__optional_storage_baseIfLb0EE9has_valueB7v180000Ev,comdat
	.hidden	_ZNKSt3__223__optional_storage_baseIfLb0EE9has_valueB7v180000Ev @ -- Begin function _ZNKSt3__223__optional_storage_baseIfLb0EE9has_valueB7v180000Ev
	.weak	_ZNKSt3__223__optional_storage_baseIfLb0EE9has_valueB7v180000Ev
	.p2align	2
	.type	_ZNKSt3__223__optional_storage_baseIfLb0EE9has_valueB7v180000Ev,%function
	.code	16                              @ @_ZNKSt3__223__optional_storage_baseIfLb0EE9has_valueB7v180000Ev
	.thumb_func
_ZNKSt3__223__optional_storage_baseIfLb0EE9has_valueB7v180000Ev:
.Lfunc_begin59:
	.loc	5 386 0 is_stmt 1               @ D:\Embed\MDK\MDK\ARM\ARMCompilerV621\Bin\..\include\libcxx\optional:386:0
	.fnstart
	.cfi_startproc
@ %bb.0:
	.pad	#4
	sub	sp, #4
	.cfi_def_cfa_offset 4
	str	r0, [sp]
	ldr	r0, [sp]
.Ltmp225:
	.loc	5 387 9 prologue_end            @ D:\Embed\MDK\MDK\ARM\ARMCompilerV621\Bin\..\include\libcxx\optional:387:9
	ldrb	r0, [r0, #4]
	and	r0, r0, #1
	.loc	5 387 9 epilogue_begin is_stmt 0 @ D:\Embed\MDK\MDK\ARM\ARMCompilerV621\Bin\..\include\libcxx\optional:387:9
	add	sp, #4
	bx	lr
.Ltmp226:
.Lfunc_end59:
	.size	_ZNKSt3__223__optional_storage_baseIfLb0EE9has_valueB7v180000Ev, .Lfunc_end59-_ZNKSt3__223__optional_storage_baseIfLb0EE9has_valueB7v180000Ev
	.cfi_endproc
	.cantunwind
	.fnend
                                        @ -- End function
	.section	.text._ZNRSt3__28optionalIfE5valueB7v180000Ev,"axG",%progbits,_ZNRSt3__28optionalIfE5valueB7v180000Ev,comdat
	.hidden	_ZNRSt3__28optionalIfE5valueB7v180000Ev @ -- Begin function _ZNRSt3__28optionalIfE5valueB7v180000Ev
	.weak	_ZNRSt3__28optionalIfE5valueB7v180000Ev
	.p2align	2
	.type	_ZNRSt3__28optionalIfE5valueB7v180000Ev,%function
	.code	16                              @ @_ZNRSt3__28optionalIfE5valueB7v180000Ev
	.thumb_func
_ZNRSt3__28optionalIfE5valueB7v180000Ev:
.Lfunc_begin60:
	.loc	5 1067 0 is_stmt 1              @ D:\Embed\MDK\MDK\ARM\ARMCompilerV621\Bin\..\include\libcxx\optional:1067:0
	.fnstart
	.cfi_startproc
@ %bb.0:
	.save	{r7, lr}
	push	{r7, lr}
	.cfi_def_cfa_offset 8
	.cfi_offset lr, -4
	.cfi_offset r7, -8
	.pad	#8
	sub	sp, #8
	.cfi_def_cfa_offset 16
	str	r0, [sp, #4]
	ldr	r0, [sp, #4]
.Ltmp227:
	.loc	5 1068 20 prologue_end          @ D:\Embed\MDK\MDK\ARM\ARMCompilerV621\Bin\..\include\libcxx\optional:1068:20
	str	r0, [sp]                        @ 4-byte Spill
	bl	_ZNKSt3__223__optional_storage_baseIfLb0EE9has_valueB7v180000Ev
.Ltmp228:
	.loc	5 1068 13 is_stmt 0             @ D:\Embed\MDK\MDK\ARM\ARMCompilerV621\Bin\..\include\libcxx\optional:1068:13
	cbnz	r0, .LBB60_2
	b	.LBB60_1
.LBB60_1:
.Ltmp229:
	.loc	5 1069 13 is_stmt 1             @ D:\Embed\MDK\MDK\ARM\ARMCompilerV621\Bin\..\include\libcxx\optional:1069:13
	bl	_ZNSt3__227__throw_bad_optional_accessB7v180000Ev
.Ltmp230:
.LBB60_2:
	.loc	5 1070 22                       @ D:\Embed\MDK\MDK\ARM\ARMCompilerV621\Bin\..\include\libcxx\optional:1070:22
	ldr	r0, [sp]                        @ 4-byte Reload
	bl	_ZNRSt3__223__optional_storage_baseIfLb0EE5__getB7v180000Ev
	.loc	5 1070 9 epilogue_begin is_stmt 0 @ D:\Embed\MDK\MDK\ARM\ARMCompilerV621\Bin\..\include\libcxx\optional:1070:9
	add	sp, #8
	pop	{r7, pc}
.Ltmp231:
.Lfunc_end60:
	.size	_ZNRSt3__28optionalIfE5valueB7v180000Ev, .Lfunc_end60-_ZNRSt3__28optionalIfE5valueB7v180000Ev
	.cfi_endproc
	.cantunwind
	.fnend
                                        @ -- End function
	.section	.text._ZN4Axis13run_idle_loopEv,"ax",%progbits
	.hidden	_ZN4Axis13run_idle_loopEv       @ -- Begin function _ZN4Axis13run_idle_loopEv
	.globl	_ZN4Axis13run_idle_loopEv
	.p2align	2
	.type	_ZN4Axis13run_idle_loopEv,%function
	.code	16                              @ @_ZN4Axis13run_idle_loopEv
	.thumb_func
_ZN4Axis13run_idle_loopEv:
.Lfunc_begin61:
	.loc	2 443 0 is_stmt 1               @ ../MotorControl/axis.cpp:443:0
	.fnstart
	.cfi_startproc
@ %bb.0:
	.save	{r7, lr}
	push	{r7, lr}
	.cfi_def_cfa_offset 8
	.cfi_offset lr, -4
	.cfi_offset r7, -8
	.pad	#16
	sub	sp, #16
	.cfi_def_cfa_offset 24
	str	r0, [sp, #12]
	ldr	r0, [sp, #12]
.Ltmp232:
	.loc	2 444 23 prologue_end           @ ../MotorControl/axis.cpp:444:23
	str	r0, [sp, #4]                    @ 4-byte Spill
	ldr.w	r0, [r0, #344]
	.loc	2 444 30 is_stmt 0              @ ../MotorControl/axis.cpp:444:30
	ldr	r0, [r0, #12]
	.loc	2 444 43                        @ ../MotorControl/axis.cpp:444:43
	bl	_ZN7Drv83019get_errorEv
	mov	r1, r0
	.loc	2 444 21                        @ ../MotorControl/axis.cpp:444:21
	ldr	r0, [sp, #4]                    @ 4-byte Reload
	str.w	r1, [r0, #608]
	.loc	2 445 5 is_stmt 1               @ ../MotorControl/axis.cpp:445:5
	ldr.w	r0, [r0, #360]
	.loc	2 445 23 is_stmt 0              @ ../MotorControl/axis.cpp:445:23
	ldr	r1, [r0]
	ldr	r1, [r1]
	blx	r1
	ldr	r0, [sp, #4]                    @ 4-byte Reload
	.loc	2 446 33 is_stmt 1              @ ../MotorControl/axis.cpp:446:33
	ldrb	r1, [r0, #21]
	movs	r0, #0
	.loc	2 446 49 is_stmt 0              @ ../MotorControl/axis.cpp:446:49
	lsls	r1, r1, #31
	str	r0, [sp, #8]                    @ 4-byte Spill
	cbz	r1, .LBB61_2
	b	.LBB61_1
.LBB61_1:
	.loc	2 446 60                        @ ../MotorControl/axis.cpp:446:60
	ldr	r0, [sp, #4]                    @ 4-byte Reload
	ldrb	r0, [r0, #22]
	str	r0, [sp, #8]                    @ 4-byte Spill
	b	.LBB61_2
.LBB61_2:
	.loc	2 0 0                           @ ../MotorControl/axis.cpp:0:0
	ldr	r0, [sp, #4]                    @ 4-byte Reload
	ldr	r1, [sp, #8]                    @ 4-byte Reload
	.loc	2 446 5                         @ ../MotorControl/axis.cpp:446:5
	and	r1, r1, #1
	bl	_ZN4Axis19set_step_dir_activeEb
	.loc	2 447 5 is_stmt 1               @ ../MotorControl/axis.cpp:447:5
	b	.LBB61_3
.LBB61_3:                               @ =>This Inner Loop Header: Depth=1
	.loc	2 447 12 is_stmt 0              @ ../MotorControl/axis.cpp:447:12
	ldr	r0, [sp, #4]                    @ 4-byte Reload
	ldrb.w	r0, [r0, #628]
	.loc	2 447 5                         @ ../MotorControl/axis.cpp:447:5
	cbnz	r0, .LBB61_5
	b	.LBB61_4
.LBB61_4:                               @   in Loop: Header=BB61_3 Depth=1
.Ltmp233:
	.loc	2 448 9 is_stmt 1               @ ../MotorControl/axis.cpp:448:9
	ldr	r0, [sp, #4]                    @ 4-byte Reload
	ldr.w	r0, [r0, #344]
	.loc	2 448 16 is_stmt 0              @ ../MotorControl/axis.cpp:448:16
	bl	_ZN5Motor5setupEv
	movs	r0, #1
	.loc	2 449 9 is_stmt 1               @ ../MotorControl/axis.cpp:449:9
	bl	osDelay
.Ltmp234:
	.loc	2 447 5                         @ ../MotorControl/axis.cpp:447:5
	b	.LBB61_3
.LBB61_5:
	.loc	2 451 12                        @ ../MotorControl/axis.cpp:451:12
	ldr	r0, [sp, #4]                    @ 4-byte Reload
	bl	_ZN4Axis16check_for_errorsEv
	.loc	2 451 5 epilogue_begin is_stmt 0 @ ../MotorControl/axis.cpp:451:5
	add	sp, #16
	pop	{r7, pc}
.Ltmp235:
.Lfunc_end61:
	.size	_ZN4Axis13run_idle_loopEv, .Lfunc_end61-_ZN4Axis13run_idle_loopEv
	.cfi_endproc
	.cantunwind
	.fnend
                                        @ -- End function
	.section	.text._ZN4Axis22run_state_machine_loopEv,"ax",%progbits
	.hidden	_ZN4Axis22run_state_machine_loopEv @ -- Begin function _ZN4Axis22run_state_machine_loopEv
	.globl	_ZN4Axis22run_state_machine_loopEv
	.p2align	2
	.type	_ZN4Axis22run_state_machine_loopEv,%function
	.code	16                              @ @_ZN4Axis22run_state_machine_loopEv
	.thumb_func
_ZN4Axis22run_state_machine_loopEv:
.Lfunc_begin62:
	.loc	2 455 0 is_stmt 1               @ ../MotorControl/axis.cpp:455:0
	.fnstart
	.cfi_startproc
@ %bb.0:
	.save	{r7, lr}
	push	{r7, lr}
	.cfi_def_cfa_offset 8
	.cfi_offset lr, -4
	.cfi_offset r7, -8
	.pad	#80
	sub	sp, #80
	.cfi_def_cfa_offset 88
	str	r0, [sp, #76]
	ldr	r0, [sp, #76]
.Ltmp236:
	.loc	2 456 5 prologue_end            @ ../MotorControl/axis.cpp:456:5
	str	r0, [sp, #44]                   @ 4-byte Spill
	b	.LBB62_1
.LBB62_1:                               @ =>This Inner Loop Header: Depth=1
.Ltmp237:
	.loc	2 458 13                        @ ../MotorControl/axis.cpp:458:13
	ldr	r0, [sp, #44]                   @ 4-byte Reload
	ldrb.w	r0, [r0, #628]
.Ltmp238:
	.loc	2 458 13 is_stmt 0              @ ../MotorControl/axis.cpp:458:13
	cmp	r0, #0
	beq.w	.LBB62_26
	b	.LBB62_2
.LBB62_2:                               @   in Loop: Header=BB62_1 Depth=1
	.loc	2 0 13                          @ ../MotorControl/axis.cpp:0:13
	ldr	r0, [sp, #44]                   @ 4-byte Reload
	movs	r1, #0
.Ltmp239:
	.loc	2 459 20 is_stmt 1              @ ../MotorControl/axis.cpp:459:20
	str	r1, [sp, #72]
.Ltmp240:
	.loc	2 460 17                        @ ../MotorControl/axis.cpp:460:17
	ldrb.w	r0, [r0, #628]
.Ltmp241:
	.loc	2 460 17 is_stmt 0              @ ../MotorControl/axis.cpp:460:17
	cmp	r0, #2
	bne	.LBB62_15
	b	.LBB62_3
.LBB62_3:                               @   in Loop: Header=BB62_1 Depth=1
.Ltmp242:
	.loc	2 461 29 is_stmt 1              @ ../MotorControl/axis.cpp:461:29
	ldr	r0, [sp, #44]                   @ 4-byte Reload
	ldrb	r0, [r0, #16]
.Ltmp243:
	.loc	2 461 21 is_stmt 0              @ ../MotorControl/axis.cpp:461:21
	lsls	r0, r0, #31
	cbz	r0, .LBB62_5
	b	.LBB62_4
.LBB62_4:                               @   in Loop: Header=BB62_1 Depth=1
.Ltmp244:
	.loc	2 462 21 is_stmt 1              @ ../MotorControl/axis.cpp:462:21
	ldr	r0, [sp, #44]                   @ 4-byte Reload
	addw	r0, r0, #629
	.loc	2 462 36 is_stmt 0              @ ../MotorControl/axis.cpp:462:36
	ldr	r1, [sp, #72]
	adds	r2, r1, #1
	str	r2, [sp, #72]
	.loc	2 462 21                        @ ../MotorControl/axis.cpp:462:21
	bl	_ZNSt3__25arrayIN10ODriveIntf8AxisIntf9AxisStateELj10EEixB7v180000Ej
	mov	r1, r0
	movs	r0, #4
	.loc	2 462 40                        @ ../MotorControl/axis.cpp:462:40
	strb	r0, [r1]
	.loc	2 462 21                        @ ../MotorControl/axis.cpp:462:21
	b	.LBB62_5
.Ltmp245:
.LBB62_5:                               @   in Loop: Header=BB62_1 Depth=1
	.loc	2 463 29 is_stmt 1              @ ../MotorControl/axis.cpp:463:29
	ldr	r0, [sp, #44]                   @ 4-byte Reload
	ldrb	r0, [r0, #17]
	.loc	2 463 58 is_stmt 0              @ ../MotorControl/axis.cpp:463:58
	lsls	r0, r0, #31
	cbz	r0, .LBB62_8
	b	.LBB62_6
.LBB62_6:                               @   in Loop: Header=BB62_1 Depth=1
	.loc	2 463 61                        @ ../MotorControl/axis.cpp:463:61
	ldr	r0, [sp, #44]                   @ 4-byte Reload
	ldr.w	r0, [r0, #172]
	.loc	2 463 78                        @ ../MotorControl/axis.cpp:463:78
	ldrb.w	r0, [r0, #88]
.Ltmp246:
	.loc	2 463 21                        @ ../MotorControl/axis.cpp:463:21
	lsls	r0, r0, #31
	cbz	r0, .LBB62_8
	b	.LBB62_7
.LBB62_7:                               @   in Loop: Header=BB62_1 Depth=1
.Ltmp247:
	.loc	2 464 21 is_stmt 1              @ ../MotorControl/axis.cpp:464:21
	ldr	r0, [sp, #44]                   @ 4-byte Reload
	addw	r0, r0, #629
	.loc	2 464 36 is_stmt 0              @ ../MotorControl/axis.cpp:464:36
	ldr	r1, [sp, #72]
	adds	r2, r1, #1
	str	r2, [sp, #72]
	.loc	2 464 21                        @ ../MotorControl/axis.cpp:464:21
	bl	_ZNSt3__25arrayIN10ODriveIntf8AxisIntf9AxisStateELj10EEixB7v180000Ej
	mov	r1, r0
	movs	r0, #6
	.loc	2 464 40                        @ ../MotorControl/axis.cpp:464:40
	strb	r0, [r1]
	.loc	2 464 21                        @ ../MotorControl/axis.cpp:464:21
	b	.LBB62_8
.Ltmp248:
.LBB62_8:                               @   in Loop: Header=BB62_1 Depth=1
	.loc	2 465 29 is_stmt 1              @ ../MotorControl/axis.cpp:465:29
	ldr	r0, [sp, #44]                   @ 4-byte Reload
	ldrb	r0, [r0, #18]
.Ltmp249:
	.loc	2 465 21 is_stmt 0              @ ../MotorControl/axis.cpp:465:21
	lsls	r0, r0, #31
	cbz	r0, .LBB62_10
	b	.LBB62_9
.LBB62_9:                               @   in Loop: Header=BB62_1 Depth=1
.Ltmp250:
	.loc	2 466 21 is_stmt 1              @ ../MotorControl/axis.cpp:466:21
	ldr	r0, [sp, #44]                   @ 4-byte Reload
	addw	r0, r0, #629
	.loc	2 466 36 is_stmt 0              @ ../MotorControl/axis.cpp:466:36
	ldr	r1, [sp, #72]
	adds	r2, r1, #1
	str	r2, [sp, #72]
	.loc	2 466 21                        @ ../MotorControl/axis.cpp:466:21
	bl	_ZNSt3__25arrayIN10ODriveIntf8AxisIntf9AxisStateELj10EEixB7v180000Ej
	mov	r1, r0
	movs	r0, #7
	.loc	2 466 40                        @ ../MotorControl/axis.cpp:466:40
	strb	r0, [r1]
	.loc	2 466 21                        @ ../MotorControl/axis.cpp:466:21
	b	.LBB62_10
.Ltmp251:
.LBB62_10:                              @   in Loop: Header=BB62_1 Depth=1
	.loc	2 467 29 is_stmt 1              @ ../MotorControl/axis.cpp:467:29
	ldr	r0, [sp, #44]                   @ 4-byte Reload
	ldrb	r0, [r0, #20]
.Ltmp252:
	.loc	2 467 21 is_stmt 0              @ ../MotorControl/axis.cpp:467:21
	lsls	r0, r0, #31
	cbz	r0, .LBB62_12
	b	.LBB62_11
.LBB62_11:                              @   in Loop: Header=BB62_1 Depth=1
.Ltmp253:
	.loc	2 468 21 is_stmt 1              @ ../MotorControl/axis.cpp:468:21
	ldr	r0, [sp, #44]                   @ 4-byte Reload
	addw	r0, r0, #629
	.loc	2 468 36 is_stmt 0              @ ../MotorControl/axis.cpp:468:36
	ldr	r1, [sp, #72]
	adds	r2, r1, #1
	str	r2, [sp, #72]
	.loc	2 468 21                        @ ../MotorControl/axis.cpp:468:21
	bl	_ZNSt3__25arrayIN10ODriveIntf8AxisIntf9AxisStateELj10EEixB7v180000Ej
	mov	r1, r0
	movs	r0, #11
	.loc	2 468 40                        @ ../MotorControl/axis.cpp:468:40
	strb	r0, [r1]
	.loc	2 468 21                        @ ../MotorControl/axis.cpp:468:21
	b	.LBB62_12
.Ltmp254:
.LBB62_12:                              @   in Loop: Header=BB62_1 Depth=1
	.loc	2 469 29 is_stmt 1              @ ../MotorControl/axis.cpp:469:29
	ldr	r0, [sp, #44]                   @ 4-byte Reload
	ldrb	r0, [r0, #19]
.Ltmp255:
	.loc	2 469 21 is_stmt 0              @ ../MotorControl/axis.cpp:469:21
	lsls	r0, r0, #31
	cbz	r0, .LBB62_14
	b	.LBB62_13
.LBB62_13:                              @   in Loop: Header=BB62_1 Depth=1
.Ltmp256:
	.loc	2 470 21 is_stmt 1              @ ../MotorControl/axis.cpp:470:21
	ldr	r0, [sp, #44]                   @ 4-byte Reload
	addw	r0, r0, #629
	.loc	2 470 36 is_stmt 0              @ ../MotorControl/axis.cpp:470:36
	ldr	r1, [sp, #72]
	adds	r2, r1, #1
	str	r2, [sp, #72]
	.loc	2 470 21                        @ ../MotorControl/axis.cpp:470:21
	bl	_ZNSt3__25arrayIN10ODriveIntf8AxisIntf9AxisStateELj10EEixB7v180000Ej
	mov	r1, r0
	movs	r0, #8
	.loc	2 470 40                        @ ../MotorControl/axis.cpp:470:40
	strb	r0, [r1]
	.loc	2 470 21                        @ ../MotorControl/axis.cpp:470:21
	b	.LBB62_14
.Ltmp257:
.LBB62_14:                              @   in Loop: Header=BB62_1 Depth=1
	.loc	2 471 17 is_stmt 1              @ ../MotorControl/axis.cpp:471:17
	ldr	r0, [sp, #44]                   @ 4-byte Reload
	addw	r0, r0, #629
	.loc	2 471 32 is_stmt 0              @ ../MotorControl/axis.cpp:471:32
	ldr	r1, [sp, #72]
	adds	r2, r1, #1
	str	r2, [sp, #72]
	.loc	2 471 17                        @ ../MotorControl/axis.cpp:471:17
	bl	_ZNSt3__25arrayIN10ODriveIntf8AxisIntf9AxisStateELj10EEixB7v180000Ej
	mov	r1, r0
	movs	r0, #1
	.loc	2 471 36                        @ ../MotorControl/axis.cpp:471:36
	strb	r0, [r1]
	.loc	2 472 13 is_stmt 1              @ ../MotorControl/axis.cpp:472:13
	b	.LBB62_25
.Ltmp258:
.LBB62_15:                              @   in Loop: Header=BB62_1 Depth=1
	.loc	2 472 24 is_stmt 0              @ ../MotorControl/axis.cpp:472:24
	ldr	r0, [sp, #44]                   @ 4-byte Reload
	ldrb.w	r0, [r0, #628]
.Ltmp259:
	.loc	2 472 24                        @ ../MotorControl/axis.cpp:472:24
	cmp	r0, #3
	bne	.LBB62_21
	b	.LBB62_16
.LBB62_16:                              @   in Loop: Header=BB62_1 Depth=1
.Ltmp260:
	.loc	2 473 17 is_stmt 1              @ ../MotorControl/axis.cpp:473:17
	ldr	r0, [sp, #44]                   @ 4-byte Reload
	addw	r0, r0, #629
	.loc	2 473 32 is_stmt 0              @ ../MotorControl/axis.cpp:473:32
	ldr	r1, [sp, #72]
	adds	r2, r1, #1
	str	r2, [sp, #72]
	.loc	2 473 17                        @ ../MotorControl/axis.cpp:473:17
	bl	_ZNSt3__25arrayIN10ODriveIntf8AxisIntf9AxisStateELj10EEixB7v180000Ej
	mov	r2, r0
	ldr	r0, [sp, #44]                   @ 4-byte Reload
	movs	r1, #4
	.loc	2 473 36                        @ ../MotorControl/axis.cpp:473:36
	strb	r1, [r2]
.Ltmp261:
	.loc	2 474 21 is_stmt 1              @ ../MotorControl/axis.cpp:474:21
	ldr.w	r0, [r0, #172]
	.loc	2 474 38 is_stmt 0              @ ../MotorControl/axis.cpp:474:38
	ldrh	r0, [r0, #52]
.Ltmp262:
	.loc	2 474 21                        @ ../MotorControl/axis.cpp:474:21
	cmp	r0, #1
	bne	.LBB62_18
	b	.LBB62_17
.LBB62_17:                              @   in Loop: Header=BB62_1 Depth=1
.Ltmp263:
	.loc	2 475 21 is_stmt 1              @ ../MotorControl/axis.cpp:475:21
	ldr	r0, [sp, #44]                   @ 4-byte Reload
	addw	r0, r0, #629
	.loc	2 475 36 is_stmt 0              @ ../MotorControl/axis.cpp:475:36
	ldr	r1, [sp, #72]
	adds	r2, r1, #1
	str	r2, [sp, #72]
	.loc	2 475 21                        @ ../MotorControl/axis.cpp:475:21
	bl	_ZNSt3__25arrayIN10ODriveIntf8AxisIntf9AxisStateELj10EEixB7v180000Ej
	mov	r1, r0
	movs	r0, #12
	.loc	2 475 40                        @ ../MotorControl/axis.cpp:475:40
	strb	r0, [r1]
	.loc	2 475 21                        @ ../MotorControl/axis.cpp:475:21
	b	.LBB62_18
.Ltmp264:
.LBB62_18:                              @   in Loop: Header=BB62_1 Depth=1
	.loc	2 476 21 is_stmt 1              @ ../MotorControl/axis.cpp:476:21
	ldr	r0, [sp, #44]                   @ 4-byte Reload
	ldr.w	r0, [r0, #172]
	.loc	2 476 38 is_stmt 0              @ ../MotorControl/axis.cpp:476:38
	ldrb.w	r0, [r0, #88]
.Ltmp265:
	.loc	2 476 21                        @ ../MotorControl/axis.cpp:476:21
	lsls	r0, r0, #31
	cbz	r0, .LBB62_20
	b	.LBB62_19
.LBB62_19:                              @   in Loop: Header=BB62_1 Depth=1
.Ltmp266:
	.loc	2 477 21 is_stmt 1              @ ../MotorControl/axis.cpp:477:21
	ldr	r0, [sp, #44]                   @ 4-byte Reload
	addw	r0, r0, #629
	.loc	2 477 36 is_stmt 0              @ ../MotorControl/axis.cpp:477:36
	ldr	r1, [sp, #72]
	adds	r2, r1, #1
	str	r2, [sp, #72]
	.loc	2 477 21                        @ ../MotorControl/axis.cpp:477:21
	bl	_ZNSt3__25arrayIN10ODriveIntf8AxisIntf9AxisStateELj10EEixB7v180000Ej
	mov	r1, r0
	movs	r0, #6
	.loc	2 477 40                        @ ../MotorControl/axis.cpp:477:40
	strb	r0, [r1]
	.loc	2 477 21                        @ ../MotorControl/axis.cpp:477:21
	b	.LBB62_20
.Ltmp267:
.LBB62_20:                              @   in Loop: Header=BB62_1 Depth=1
	.loc	2 478 17 is_stmt 1              @ ../MotorControl/axis.cpp:478:17
	ldr	r0, [sp, #44]                   @ 4-byte Reload
	addw	r0, r0, #629
	.loc	2 478 32 is_stmt 0              @ ../MotorControl/axis.cpp:478:32
	str	r0, [sp, #40]                   @ 4-byte Spill
	ldr	r1, [sp, #72]
	adds	r2, r1, #1
	str	r2, [sp, #72]
	.loc	2 478 17                        @ ../MotorControl/axis.cpp:478:17
	bl	_ZNSt3__25arrayIN10ODriveIntf8AxisIntf9AxisStateELj10EEixB7v180000Ej
	mov	r2, r0
	ldr	r0, [sp, #40]                   @ 4-byte Reload
	movs	r1, #7
	.loc	2 478 36                        @ ../MotorControl/axis.cpp:478:36
	strb	r1, [r2]
	.loc	2 479 32 is_stmt 1              @ ../MotorControl/axis.cpp:479:32
	ldr	r1, [sp, #72]
	adds	r2, r1, #1
	str	r2, [sp, #72]
	.loc	2 479 17 is_stmt 0              @ ../MotorControl/axis.cpp:479:17
	bl	_ZNSt3__25arrayIN10ODriveIntf8AxisIntf9AxisStateELj10EEixB7v180000Ej
	mov	r1, r0
	movs	r0, #1
	.loc	2 479 36                        @ ../MotorControl/axis.cpp:479:36
	strb	r0, [r1]
	.loc	2 480 13 is_stmt 1              @ ../MotorControl/axis.cpp:480:13
	b	.LBB62_24
.Ltmp268:
.LBB62_21:                              @   in Loop: Header=BB62_1 Depth=1
	.loc	2 480 24 is_stmt 0              @ ../MotorControl/axis.cpp:480:24
	ldr	r0, [sp, #44]                   @ 4-byte Reload
	ldrb.w	r0, [r0, #628]
.Ltmp269:
	.loc	2 480 24                        @ ../MotorControl/axis.cpp:480:24
	cbz	r0, .LBB62_23
	b	.LBB62_22
.LBB62_22:                              @   in Loop: Header=BB62_1 Depth=1
.Ltmp270:
	.loc	2 481 38 is_stmt 1              @ ../MotorControl/axis.cpp:481:38
	ldr	r0, [sp, #44]                   @ 4-byte Reload
	ldrb.w	r1, [r0, #628]
	.loc	2 481 17 is_stmt 0              @ ../MotorControl/axis.cpp:481:17
	str	r1, [sp, #32]                   @ 4-byte Spill
	addw	r0, r0, #629
	.loc	2 481 32                        @ ../MotorControl/axis.cpp:481:32
	str	r0, [sp, #36]                   @ 4-byte Spill
	ldr	r1, [sp, #72]
	adds	r2, r1, #1
	str	r2, [sp, #72]
	.loc	2 481 17                        @ ../MotorControl/axis.cpp:481:17
	bl	_ZNSt3__25arrayIN10ODriveIntf8AxisIntf9AxisStateELj10EEixB7v180000Ej
	ldr	r1, [sp, #32]                   @ 4-byte Reload
	mov	r2, r0
	.loc	2 481 36                        @ ../MotorControl/axis.cpp:481:36
	ldr	r0, [sp, #36]                   @ 4-byte Reload
	strb	r1, [r2]
	.loc	2 482 32 is_stmt 1              @ ../MotorControl/axis.cpp:482:32
	ldr	r1, [sp, #72]
	adds	r2, r1, #1
	str	r2, [sp, #72]
	.loc	2 482 17 is_stmt 0              @ ../MotorControl/axis.cpp:482:17
	bl	_ZNSt3__25arrayIN10ODriveIntf8AxisIntf9AxisStateELj10EEixB7v180000Ej
	mov	r1, r0
	movs	r0, #1
	.loc	2 482 36                        @ ../MotorControl/axis.cpp:482:36
	strb	r0, [r1]
	.loc	2 483 13 is_stmt 1              @ ../MotorControl/axis.cpp:483:13
	b	.LBB62_23
.Ltmp271:
.LBB62_23:                              @   in Loop: Header=BB62_1 Depth=1
	.loc	2 0 13 is_stmt 0                @ ../MotorControl/axis.cpp:0:13
	b	.LBB62_24
.LBB62_24:                              @   in Loop: Header=BB62_1 Depth=1
	b	.LBB62_25
.LBB62_25:                              @   in Loop: Header=BB62_1 Depth=1
	.loc	2 484 13 is_stmt 1              @ ../MotorControl/axis.cpp:484:13
	ldr	r0, [sp, #44]                   @ 4-byte Reload
	addw	r0, r0, #629
	.loc	2 484 28 is_stmt 0              @ ../MotorControl/axis.cpp:484:28
	ldr	r1, [sp, #72]
	adds	r2, r1, #1
	str	r2, [sp, #72]
	.loc	2 484 13                        @ ../MotorControl/axis.cpp:484:13
	bl	_ZNSt3__25arrayIN10ODriveIntf8AxisIntf9AxisStateELj10EEixB7v180000Ej
	ldr	r1, [sp, #44]                   @ 4-byte Reload
	mov	r2, r0
	movs	r0, #0
	.loc	2 484 32                        @ ../MotorControl/axis.cpp:484:32
	strb	r0, [r2]
	.loc	2 485 30 is_stmt 1              @ ../MotorControl/axis.cpp:485:30
	strb.w	r0, [r1, #628]
	movs	r0, #1
	.loc	2 487 23                        @ ../MotorControl/axis.cpp:487:23
	bl	_ZcoN10ODriveIntf8AxisIntf5ErrorE
	mov	r1, r0
	.loc	2 487 13 is_stmt 0              @ ../MotorControl/axis.cpp:487:13
	ldr	r0, [sp, #44]                   @ 4-byte Reload
	add.w	r0, r0, #588
	.loc	2 487 20                        @ ../MotorControl/axis.cpp:487:20
	bl	_ZaNRN10ODriveIntf8AxisIntf5ErrorES1_
	.loc	2 488 9 is_stmt 1               @ ../MotorControl/axis.cpp:488:9
	b	.LBB62_26
.Ltmp272:
.LBB62_26:                              @   in Loop: Header=BB62_1 Depth=1
	.loc	2 495 17                        @ ../MotorControl/axis.cpp:495:17
	ldr	r0, [sp, #44]                   @ 4-byte Reload
	ldr.w	r0, [r0, #640]
	ldrb	r0, [r0]
	.loc	2 495 9 is_stmt 0               @ ../MotorControl/axis.cpp:495:9
	subs	r0, #1
	mov	r1, r0
	str	r1, [sp, #28]                   @ 4-byte Spill
	cmp	r0, #12
	bhi.w	.LBB62_60
@ %bb.27:                               @   in Loop: Header=BB62_1 Depth=1
	.loc	2 0 9                           @ ../MotorControl/axis.cpp:0:9
	ldr	r1, [sp, #28]                   @ 4-byte Reload
.LCPI62_0:
	tbb	[pc, r1]
@ %bb.28:
.LJTI62_0:
	.byte	(.LBB62_59-(.LCPI62_0+4))/2
	.byte	(.LBB62_60-(.LCPI62_0+4))/2
	.byte	(.LBB62_60-(.LCPI62_0+4))/2
	.byte	(.LBB62_29-(.LCPI62_0+4))/2
	.byte	(.LBB62_60-(.LCPI62_0+4))/2
	.byte	(.LBB62_30-(.LCPI62_0+4))/2
	.byte	(.LBB62_47-(.LCPI62_0+4))/2
	.byte	(.LBB62_54-(.LCPI62_0+4))/2
	.byte	(.LBB62_50-(.LCPI62_0+4))/2
	.byte	(.LBB62_33-(.LCPI62_0+4))/2
	.byte	(.LBB62_46-(.LCPI62_0+4))/2
	.byte	(.LBB62_38-(.LCPI62_0+4))/2
	.byte	(.LBB62_41-(.LCPI62_0+4))/2
	.p2align	1
.LBB62_29:                              @   in Loop: Header=BB62_1 Depth=1
.Ltmp273:
	.loc	2 503 26 is_stmt 1              @ ../MotorControl/axis.cpp:503:26
	ldr	r0, [sp, #44]                   @ 4-byte Reload
	ldr.w	r0, [r0, #344]
	.loc	2 503 33 is_stmt 0              @ ../MotorControl/axis.cpp:503:33
	bl	_ZN5Motor15run_calibrationEv
	.loc	2 503 24                        @ ../MotorControl/axis.cpp:503:24
	strb.w	r0, [sp, #71]
.Ltmp274:
	.loc	2 504 15 is_stmt 1              @ ../MotorControl/axis.cpp:504:15
	b	.LBB62_62
.LBB62_30:                              @   in Loop: Header=BB62_1 Depth=1
.Ltmp275:
	.loc	2 509 22                        @ ../MotorControl/axis.cpp:509:22
	ldr	r0, [sp, #44]                   @ 4-byte Reload
	ldr.w	r0, [r0, #344]
	.loc	2 509 29 is_stmt 0              @ ../MotorControl/axis.cpp:509:29
	ldrb.w	r0, [r0, #166]
.Ltmp276:
	.loc	2 509 21                        @ ../MotorControl/axis.cpp:509:21
	lsls	r0, r0, #31
	cbnz	r0, .LBB62_32
	b	.LBB62_31
.LBB62_31:                              @   in Loop: Header=BB62_1 Depth=1
.Ltmp277:
	.loc	2 510 21 is_stmt 1              @ ../MotorControl/axis.cpp:510:21
	b	.LBB62_61
.Ltmp278:
.LBB62_32:                              @   in Loop: Header=BB62_1 Depth=1
	.loc	2 512 26                        @ ../MotorControl/axis.cpp:512:26
	ldr	r0, [sp, #44]                   @ 4-byte Reload
	ldr.w	r0, [r0, #172]
	.loc	2 512 35 is_stmt 0              @ ../MotorControl/axis.cpp:512:35
	bl	_ZN7Encoder16run_index_searchEv
	.loc	2 512 24                        @ ../MotorControl/axis.cpp:512:24
	strb.w	r0, [sp, #71]
.Ltmp279:
	.loc	2 513 15 is_stmt 1              @ ../MotorControl/axis.cpp:513:15
	b	.LBB62_62
.LBB62_33:                              @   in Loop: Header=BB62_1 Depth=1
.Ltmp280:
	.loc	2 518 22                        @ ../MotorControl/axis.cpp:518:22
	ldr	r0, [sp, #44]                   @ 4-byte Reload
	ldr.w	r0, [r0, #344]
	.loc	2 518 29 is_stmt 0              @ ../MotorControl/axis.cpp:518:29
	ldrb.w	r0, [r0, #166]
.Ltmp281:
	.loc	2 518 21                        @ ../MotorControl/axis.cpp:518:21
	lsls	r0, r0, #31
	cbnz	r0, .LBB62_35
	b	.LBB62_34
.LBB62_34:                              @   in Loop: Header=BB62_1 Depth=1
.Ltmp282:
	.loc	2 519 21 is_stmt 1              @ ../MotorControl/axis.cpp:519:21
	b	.LBB62_61
.Ltmp283:
.LBB62_35:                              @   in Loop: Header=BB62_1 Depth=1
	.loc	2 521 26                        @ ../MotorControl/axis.cpp:521:26
	ldr	r0, [sp, #44]                   @ 4-byte Reload
	ldr.w	r0, [r0, #172]
	.loc	2 521 35 is_stmt 0              @ ../MotorControl/axis.cpp:521:35
	bl	_ZN7Encoder18run_direction_findEv
	.loc	2 521 24                        @ ../MotorControl/axis.cpp:521:24
	strb.w	r0, [sp, #71]
.Ltmp284:
	.loc	2 523 21 is_stmt 1              @ ../MotorControl/axis.cpp:523:21
	ldrb.w	r0, [sp, #71]
.Ltmp285:
	.loc	2 523 21 is_stmt 0              @ ../MotorControl/axis.cpp:523:21
	lsls	r0, r0, #31
	cbz	r0, .LBB62_37
	b	.LBB62_36
.LBB62_36:                              @   in Loop: Header=BB62_1 Depth=1
.Ltmp286:
	.loc	2 524 21 is_stmt 1              @ ../MotorControl/axis.cpp:524:21
	ldr	r1, [sp, #44]                   @ 4-byte Reload
	ldr.w	r0, [r1, #172]
	.loc	2 524 43 is_stmt 0              @ ../MotorControl/axis.cpp:524:43
	ldr.w	r1, [r1, #344]
	.loc	2 524 58                        @ ../MotorControl/axis.cpp:524:58
	ldrb.w	r1, [r1, #56]
	.loc	2 524 30                        @ ../MotorControl/axis.cpp:524:30
	bl	_ZN7Encoder12apply_configEN10ODriveIntf9MotorIntf9MotorTypeE
	.loc	2 524 21                        @ ../MotorControl/axis.cpp:524:21
	b	.LBB62_37
.Ltmp287:
.LBB62_37:                              @   in Loop: Header=BB62_1 Depth=1
	.loc	2 525 15 is_stmt 1              @ ../MotorControl/axis.cpp:525:15
	b	.LBB62_62
.LBB62_38:                              @   in Loop: Header=BB62_1 Depth=1
.Ltmp288:
	.loc	2 528 22                        @ ../MotorControl/axis.cpp:528:22
	ldr	r0, [sp, #44]                   @ 4-byte Reload
	ldr.w	r0, [r0, #344]
	.loc	2 528 29 is_stmt 0              @ ../MotorControl/axis.cpp:528:29
	ldrb.w	r0, [r0, #166]
.Ltmp289:
	.loc	2 528 21                        @ ../MotorControl/axis.cpp:528:21
	lsls	r0, r0, #31
	cbnz	r0, .LBB62_40
	b	.LBB62_39
.LBB62_39:                              @   in Loop: Header=BB62_1 Depth=1
.Ltmp290:
	.loc	2 529 21 is_stmt 1              @ ../MotorControl/axis.cpp:529:21
	b	.LBB62_61
.Ltmp291:
.LBB62_40:                              @   in Loop: Header=BB62_1 Depth=1
	.loc	2 531 26                        @ ../MotorControl/axis.cpp:531:26
	ldr	r0, [sp, #44]                   @ 4-byte Reload
	ldr.w	r0, [r0, #172]
	.loc	2 531 35 is_stmt 0              @ ../MotorControl/axis.cpp:531:35
	bl	_ZN7Encoder29run_hall_polarity_calibrationEv
	.loc	2 531 24                        @ ../MotorControl/axis.cpp:531:24
	strb.w	r0, [sp, #71]
.Ltmp292:
	.loc	2 532 15 is_stmt 1              @ ../MotorControl/axis.cpp:532:15
	b	.LBB62_62
.LBB62_41:                              @   in Loop: Header=BB62_1 Depth=1
.Ltmp293:
	.loc	2 535 22                        @ ../MotorControl/axis.cpp:535:22
	ldr	r0, [sp, #44]                   @ 4-byte Reload
	ldr.w	r0, [r0, #344]
	.loc	2 535 29 is_stmt 0              @ ../MotorControl/axis.cpp:535:29
	ldrb.w	r0, [r0, #166]
.Ltmp294:
	.loc	2 535 21                        @ ../MotorControl/axis.cpp:535:21
	lsls	r0, r0, #31
	cbnz	r0, .LBB62_43
	b	.LBB62_42
.LBB62_42:                              @   in Loop: Header=BB62_1 Depth=1
.Ltmp295:
	.loc	2 536 21 is_stmt 1              @ ../MotorControl/axis.cpp:536:21
	b	.LBB62_61
.Ltmp296:
.LBB62_43:                              @   in Loop: Header=BB62_1 Depth=1
	.loc	2 538 22                        @ ../MotorControl/axis.cpp:538:22
	ldr	r0, [sp, #44]                   @ 4-byte Reload
	ldr.w	r0, [r0, #172]
	.loc	2 538 39 is_stmt 0              @ ../MotorControl/axis.cpp:538:39
	ldrb.w	r0, [r0, #101]
.Ltmp297:
	.loc	2 538 21                        @ ../MotorControl/axis.cpp:538:21
	lsls	r0, r0, #31
	cbnz	r0, .LBB62_45
	b	.LBB62_44
.LBB62_44:                              @   in Loop: Header=BB62_1 Depth=1
.Ltmp298:
	.loc	2 539 21 is_stmt 1              @ ../MotorControl/axis.cpp:539:21
	ldr	r0, [sp, #44]                   @ 4-byte Reload
	ldr.w	r0, [r0, #172]
	mov.w	r1, #512
	.loc	2 539 30 is_stmt 0              @ ../MotorControl/axis.cpp:539:30
	bl	_ZN7Encoder9set_errorEN10ODriveIntf11EncoderIntf5ErrorE
	.loc	2 540 21 is_stmt 1              @ ../MotorControl/axis.cpp:540:21
	b	.LBB62_61
.Ltmp299:
.LBB62_45:                              @   in Loop: Header=BB62_1 Depth=1
	.loc	2 543 26                        @ ../MotorControl/axis.cpp:543:26
	ldr	r0, [sp, #44]                   @ 4-byte Reload
	ldr.w	r0, [r0, #172]
	.loc	2 543 35 is_stmt 0              @ ../MotorControl/axis.cpp:543:35
	bl	_ZN7Encoder26run_hall_phase_calibrationEv
	.loc	2 543 24                        @ ../MotorControl/axis.cpp:543:24
	strb.w	r0, [sp, #71]
.Ltmp300:
	.loc	2 544 15 is_stmt 1              @ ../MotorControl/axis.cpp:544:15
	b	.LBB62_62
.LBB62_46:                              @   in Loop: Header=BB62_1 Depth=1
.Ltmp301:
	.loc	2 547 63                        @ ../MotorControl/axis.cpp:547:63
	ldr	r0, [sp, #44]                   @ 4-byte Reload
	ldr.w	r1, [r0, #256]
	.loc	2 547 83 is_stmt 0              @ ../MotorControl/axis.cpp:547:83
	ldrb	r1, [r1, #24]
	.loc	2 547 41                        @ ../MotorControl/axis.cpp:547:41
	strb.w	r1, [sp, #70]
	.loc	2 548 59 is_stmt 1              @ ../MotorControl/axis.cpp:548:59
	ldr.w	r1, [r0, #256]
	.loc	2 548 79 is_stmt 0              @ ../MotorControl/axis.cpp:548:79
	ldrb	r1, [r1, #25]
	.loc	2 548 39                        @ ../MotorControl/axis.cpp:548:39
	strb.w	r1, [sp, #69]
	.loc	2 550 26 is_stmt 1              @ ../MotorControl/axis.cpp:550:26
	bl	_ZN4Axis10run_homingEv
	ldr	r1, [sp, #44]                   @ 4-byte Reload
	.loc	2 550 24 is_stmt 0              @ ../MotorControl/axis.cpp:550:24
	strb.w	r0, [sp, #71]
	.loc	2 552 52 is_stmt 1              @ ../MotorControl/axis.cpp:552:52
	ldrb.w	r0, [sp, #70]
	.loc	2 552 17 is_stmt 0              @ ../MotorControl/axis.cpp:552:17
	ldr.w	r2, [r1, #256]
	.loc	2 552 50                        @ ../MotorControl/axis.cpp:552:50
	strb	r0, [r2, #24]
	.loc	2 553 50 is_stmt 1              @ ../MotorControl/axis.cpp:553:50
	ldrb.w	r0, [sp, #69]
	.loc	2 553 17 is_stmt 0              @ ../MotorControl/axis.cpp:553:17
	ldr.w	r1, [r1, #256]
	.loc	2 553 48                        @ ../MotorControl/axis.cpp:553:48
	strb	r0, [r1, #25]
.Ltmp302:
	.loc	2 554 15 is_stmt 1              @ ../MotorControl/axis.cpp:554:15
	b	.LBB62_62
.LBB62_47:                              @   in Loop: Header=BB62_1 Depth=1
.Ltmp303:
	.loc	2 559 22                        @ ../MotorControl/axis.cpp:559:22
	ldr	r0, [sp, #44]                   @ 4-byte Reload
	ldr.w	r0, [r0, #344]
	.loc	2 559 29 is_stmt 0              @ ../MotorControl/axis.cpp:559:29
	ldrb.w	r0, [r0, #166]
.Ltmp304:
	.loc	2 559 21                        @ ../MotorControl/axis.cpp:559:21
	lsls	r0, r0, #31
	cbnz	r0, .LBB62_49
	b	.LBB62_48
.LBB62_48:                              @   in Loop: Header=BB62_1 Depth=1
.Ltmp305:
	.loc	2 560 21 is_stmt 1              @ ../MotorControl/axis.cpp:560:21
	b	.LBB62_61
.Ltmp306:
.LBB62_49:                              @   in Loop: Header=BB62_1 Depth=1
	.loc	2 561 26                        @ ../MotorControl/axis.cpp:561:26
	ldr	r0, [sp, #44]                   @ 4-byte Reload
	ldr.w	r0, [r0, #172]
	.loc	2 561 35 is_stmt 0              @ ../MotorControl/axis.cpp:561:35
	bl	_ZN7Encoder22run_offset_calibrationEv
	.loc	2 561 24                        @ ../MotorControl/axis.cpp:561:24
	strb.w	r0, [sp, #71]
.Ltmp307:
	.loc	2 562 15 is_stmt 1              @ ../MotorControl/axis.cpp:562:15
	b	.LBB62_62
.LBB62_50:                              @   in Loop: Header=BB62_1 Depth=1
.Ltmp308:
	.loc	2 567 22                        @ ../MotorControl/axis.cpp:567:22
	ldr	r0, [sp, #44]                   @ 4-byte Reload
	ldr.w	r0, [r0, #344]
	.loc	2 567 29 is_stmt 0              @ ../MotorControl/axis.cpp:567:29
	ldrb.w	r0, [r0, #166]
	.loc	2 567 44                        @ ../MotorControl/axis.cpp:567:44
	lsls	r0, r0, #31
	cbz	r0, .LBB62_52
	b	.LBB62_51
.LBB62_51:                              @   in Loop: Header=BB62_1 Depth=1
	.loc	2 567 47                        @ ../MotorControl/axis.cpp:567:47
	ldr	r0, [sp, #44]                   @ 4-byte Reload
	ldr.w	r0, [r0, #172]
	.loc	2 567 64                        @ ../MotorControl/axis.cpp:567:64
	ldr	r0, [r0, #92]
.Ltmp309:
	.loc	2 567 21                        @ ../MotorControl/axis.cpp:567:21
	cbnz	r0, .LBB62_53
	b	.LBB62_52
.LBB62_52:                              @   in Loop: Header=BB62_1 Depth=1
.Ltmp310:
	.loc	2 568 21 is_stmt 1              @ ../MotorControl/axis.cpp:568:21
	b	.LBB62_61
.Ltmp311:
.LBB62_53:                              @   in Loop: Header=BB62_1 Depth=1
	.loc	2 569 50                        @ ../MotorControl/axis.cpp:569:50
	ldr	r0, [sp, #44]                   @ 4-byte Reload
	adds	r0, #92
	.loc	2 569 26 is_stmt 0              @ ../MotorControl/axis.cpp:569:26
	str	r0, [sp, #20]                   @ 4-byte Spill
	add	r0, sp, #52
	str	r0, [sp, #24]                   @ 4-byte Spill
	bl	_ZNSt3__28functionIFbbEEC2B7v180000Ev
	ldr	r0, [sp, #44]                   @ 4-byte Reload
	ldr	r1, [sp, #20]                   @ 4-byte Reload
	ldr	r3, [sp, #24]                   @ 4-byte Reload
	movs	r2, #0
	bl	_ZN4Axis15run_lockin_spinERKNS_14LockinConfig_tEbNSt3__28functionIFbbEEE
	mov	r1, r0
	.loc	2 569 24                        @ ../MotorControl/axis.cpp:569:24
	ldr	r0, [sp, #24]                   @ 4-byte Reload
	strb.w	r1, [sp, #71]
	.loc	2 569 17                        @ ../MotorControl/axis.cpp:569:17
	bl	_ZNSt3__28functionIFbbEED2Ev
.Ltmp312:
	.loc	2 570 15 is_stmt 1              @ ../MotorControl/axis.cpp:570:15
	b	.LBB62_62
.LBB62_54:                              @   in Loop: Header=BB62_1 Depth=1
.Ltmp313:
	.loc	2 575 22                        @ ../MotorControl/axis.cpp:575:22
	ldr	r0, [sp, #44]                   @ 4-byte Reload
	ldr.w	r0, [r0, #344]
	.loc	2 575 29 is_stmt 0              @ ../MotorControl/axis.cpp:575:29
	ldrb.w	r0, [r0, #166]
	.loc	2 575 44                        @ ../MotorControl/axis.cpp:575:44
	lsls	r0, r0, #31
	cbz	r0, .LBB62_57
	b	.LBB62_55
.LBB62_55:                              @   in Loop: Header=BB62_1 Depth=1
	.loc	2 575 48                        @ ../MotorControl/axis.cpp:575:48
	ldr	r0, [sp, #44]                   @ 4-byte Reload
	ldr.w	r0, [r0, #172]
	.loc	2 575 65                        @ ../MotorControl/axis.cpp:575:65
	ldr	r0, [r0, #92]
	.loc	2 575 78                        @ ../MotorControl/axis.cpp:575:78
	cbnz	r0, .LBB62_58
	b	.LBB62_56
.LBB62_56:                              @   in Loop: Header=BB62_1 Depth=1
	.loc	2 575 90                        @ ../MotorControl/axis.cpp:575:90
	ldr	r0, [sp, #44]                   @ 4-byte Reload
	ldrb	r0, [r0, #23]
.Ltmp314:
	.loc	2 575 21                        @ ../MotorControl/axis.cpp:575:21
	lsls	r0, r0, #31
	cbnz	r0, .LBB62_58
	b	.LBB62_57
.LBB62_57:                              @   in Loop: Header=BB62_1 Depth=1
.Ltmp315:
	.loc	2 576 21 is_stmt 1              @ ../MotorControl/axis.cpp:576:21
	b	.LBB62_61
.Ltmp316:
.LBB62_58:                              @   in Loop: Header=BB62_1 Depth=1
	.loc	2 577 17                        @ ../MotorControl/axis.cpp:577:17
	ldr	r0, [sp, #44]                   @ 4-byte Reload
	ldr	r1, [r0]
	ldr	r1, [r1]
	blx	r1
	ldr	r0, [sp, #44]                   @ 4-byte Reload
	.loc	2 578 26                        @ ../MotorControl/axis.cpp:578:26
	bl	_ZN4Axis28run_closed_loop_control_loopEv
	.loc	2 578 24 is_stmt 0              @ ../MotorControl/axis.cpp:578:24
	strb.w	r0, [sp, #71]
.Ltmp317:
	.loc	2 579 15 is_stmt 1              @ ../MotorControl/axis.cpp:579:15
	b	.LBB62_62
.LBB62_59:                              @   in Loop: Header=BB62_1 Depth=1
.Ltmp318:
	.loc	2 582 17                        @ ../MotorControl/axis.cpp:582:17
	ldr	r0, [sp, #44]                   @ 4-byte Reload
	bl	_ZN4Axis13run_idle_loopEv
	movs	r0, #1
	.loc	2 583 24                        @ ../MotorControl/axis.cpp:583:24
	strb.w	r0, [sp, #71]
.Ltmp319:
	.loc	2 584 15                        @ ../MotorControl/axis.cpp:584:15
	b	.LBB62_62
.LBB62_60:                              @   in Loop: Header=BB62_1 Depth=1
	b	.LBB62_61
.LBB62_61:                              @   in Loop: Header=BB62_1 Depth=1
	.loc	2 587 13                        @ ../MotorControl/axis.cpp:587:13
	ldr	r0, [sp, #44]                   @ 4-byte Reload
.Ltmp320:
	@DEBUG_LABEL: invalid_state_label
	.loc	2 588 17                        @ ../MotorControl/axis.cpp:588:17
	add.w	r0, r0, #588
	movs	r1, #1
	.loc	2 588 24 is_stmt 0              @ ../MotorControl/axis.cpp:588:24
	bl	_ZoRRN10ODriveIntf8AxisIntf5ErrorES1_
	movs	r0, #0
	.loc	2 589 24 is_stmt 1              @ ../MotorControl/axis.cpp:589:24
	strb.w	r0, [sp, #71]
	.loc	2 590 17                        @ ../MotorControl/axis.cpp:590:17
	b	.LBB62_62
.Ltmp321:
.LBB62_62:                              @   in Loop: Header=BB62_1 Depth=1
	.loc	2 594 14                        @ ../MotorControl/axis.cpp:594:14
	ldrb.w	r0, [sp, #71]
.Ltmp322:
	.loc	2 594 13 is_stmt 0              @ ../MotorControl/axis.cpp:594:13
	lsls	r0, r0, #31
	cbnz	r0, .LBB62_64
	b	.LBB62_63
.LBB62_63:                              @   in Loop: Header=BB62_1 Depth=1
.Ltmp323:
	.loc	2 595 23 is_stmt 1              @ ../MotorControl/axis.cpp:595:23
	ldr	r0, [sp, #44]                   @ 4-byte Reload
	addw	r0, r0, #629
	.loc	2 595 35 is_stmt 0              @ ../MotorControl/axis.cpp:595:35
	str	r0, [sp, #12]                   @ 4-byte Spill
	bl	_ZNSt3__25arrayIN10ODriveIntf8AxisIntf9AxisStateELj10EE5beginB7v180000Ev
	mov	r1, r0
	.loc	2 595 56                        @ ../MotorControl/axis.cpp:595:56
	ldr	r0, [sp, #12]                   @ 4-byte Reload
	str	r1, [sp, #16]                   @ 4-byte Spill
	bl	_ZNSt3__25arrayIN10ODriveIntf8AxisIntf9AxisStateELj10EE3endB7v180000Ev
	mov	r1, r0
	ldr	r0, [sp, #16]                   @ 4-byte Reload
	movs	r2, #0
	.loc	2 595 63                        @ ../MotorControl/axis.cpp:595:63
	strb.w	r2, [sp, #51]
	add.w	r2, sp, #51
	.loc	2 595 13                        @ ../MotorControl/axis.cpp:595:13
	bl	_ZNSt3__24fillB7v180000IPN10ODriveIntf8AxisIntf9AxisStateES3_EEvT_S5_RKT0_
	ldr	r0, [sp, #44]                   @ 4-byte Reload
	.loc	2 596 13 is_stmt 1              @ ../MotorControl/axis.cpp:596:13
	ldr.w	r1, [r0, #640]
	movs	r0, #1
	.loc	2 596 28 is_stmt 0              @ ../MotorControl/axis.cpp:596:28
	strb	r0, [r1]
	.loc	2 597 9 is_stmt 1               @ ../MotorControl/axis.cpp:597:9
	b	.LBB62_65
.Ltmp324:
.LBB62_64:                              @   in Loop: Header=BB62_1 Depth=1
	.loc	2 598 25                        @ ../MotorControl/axis.cpp:598:25
	ldr	r0, [sp, #44]                   @ 4-byte Reload
	addw	r0, r0, #629
	.loc	2 598 37 is_stmt 0              @ ../MotorControl/axis.cpp:598:37
	str	r0, [sp, #8]                    @ 4-byte Spill
	bl	_ZNSt3__25arrayIN10ODriveIntf8AxisIntf9AxisStateELj10EE5beginB7v180000Ev
	mov	r1, r0
	.loc	2 598 58                        @ ../MotorControl/axis.cpp:598:58
	ldr	r0, [sp, #8]                    @ 4-byte Reload
	str	r1, [sp, #4]                    @ 4-byte Spill
	bl	_ZNSt3__25arrayIN10ODriveIntf8AxisIntf9AxisStateELj10EE5beginB7v180000Ev
	mov	r1, r0
	.loc	2 598 66                        @ ../MotorControl/axis.cpp:598:66
	ldr	r0, [sp, #8]                    @ 4-byte Reload
	adds	r1, #1
	.loc	2 598 83                        @ ../MotorControl/axis.cpp:598:83
	str	r1, [sp]                        @ 4-byte Spill
	bl	_ZNSt3__25arrayIN10ODriveIntf8AxisIntf9AxisStateELj10EE3endB7v180000Ev
	ldr	r1, [sp]                        @ 4-byte Reload
	mov	r2, r0
	.loc	2 598 13                        @ ../MotorControl/axis.cpp:598:13
	ldr	r0, [sp, #4]                    @ 4-byte Reload
	bl	_ZNSt3__26rotateB7v180000IPN10ODriveIntf8AxisIntf9AxisStateEEET_S5_S5_S5_
                                        @ kill: def $r1 killed $r0
	.loc	2 599 25 is_stmt 1              @ ../MotorControl/axis.cpp:599:25
	ldr	r0, [sp, #8]                    @ 4-byte Reload
	bl	_ZNSt3__25arrayIN10ODriveIntf8AxisIntf9AxisStateELj10EE4backB7v180000Ev
	mov	r1, r0
	movs	r0, #0
	.loc	2 599 32 is_stmt 0              @ ../MotorControl/axis.cpp:599:32
	strb	r0, [r1]
	b	.LBB62_65
.Ltmp325:
.LBB62_65:                              @   in Loop: Header=BB62_1 Depth=1
	.loc	2 456 5 is_stmt 1               @ ../MotorControl/axis.cpp:456:5
	b	.LBB62_1
.Ltmp326:
.Lfunc_end62:
	.size	_ZN4Axis22run_state_machine_loopEv, .Lfunc_end62-_ZN4Axis22run_state_machine_loopEv
	.cfi_endproc
	.cantunwind
	.fnend
                                        @ -- End function
	.section	.text._ZNSt3__25arrayIN10ODriveIntf8AxisIntf9AxisStateELj10EEixB7v180000Ej,"axG",%progbits,_ZNSt3__25arrayIN10ODriveIntf8AxisIntf9AxisStateELj10EEixB7v180000Ej,comdat
	.hidden	_ZNSt3__25arrayIN10ODriveIntf8AxisIntf9AxisStateELj10EEixB7v180000Ej @ -- Begin function _ZNSt3__25arrayIN10ODriveIntf8AxisIntf9AxisStateELj10EEixB7v180000Ej
	.weak	_ZNSt3__25arrayIN10ODriveIntf8AxisIntf9AxisStateELj10EEixB7v180000Ej
	.p2align	2
	.type	_ZNSt3__25arrayIN10ODriveIntf8AxisIntf9AxisStateELj10EEixB7v180000Ej,%function
	.code	16                              @ @_ZNSt3__25arrayIN10ODriveIntf8AxisIntf9AxisStateELj10EEixB7v180000Ej
	.thumb_func
_ZNSt3__25arrayIN10ODriveIntf8AxisIntf9AxisStateELj10EEixB7v180000Ej:
.Lfunc_begin63:
	.loc	27 231 0                        @ D:\Embed\MDK\MDK\ARM\ARMCompilerV621\Bin\..\include\libcxx\array:231:0
	.fnstart
	.cfi_startproc
@ %bb.0:
	.pad	#8
	sub	sp, #8
	.cfi_def_cfa_offset 8
	str	r0, [sp, #4]
	str	r1, [sp]
	ldr	r0, [sp, #4]
.Ltmp327:
	.loc	27 233 25 prologue_end          @ D:\Embed\MDK\MDK\ARM\ARMCompilerV621\Bin\..\include\libcxx\array:233:25
	ldr	r1, [sp]
	.loc	27 233 16 is_stmt 0             @ D:\Embed\MDK\MDK\ARM\ARMCompilerV621\Bin\..\include\libcxx\array:233:16
	add	r0, r1
	.loc	27 233 9 epilogue_begin         @ D:\Embed\MDK\MDK\ARM\ARMCompilerV621\Bin\..\include\libcxx\array:233:9
	add	sp, #8
	bx	lr
.Ltmp328:
.Lfunc_end63:
	.size	_ZNSt3__25arrayIN10ODriveIntf8AxisIntf9AxisStateELj10EEixB7v180000Ej, .Lfunc_end63-_ZNSt3__25arrayIN10ODriveIntf8AxisIntf9AxisStateELj10EEixB7v180000Ej
	.cfi_endproc
	.cantunwind
	.fnend
                                        @ -- End function
	.section	.text._ZNSt3__24fillB7v180000IPN10ODriveIntf8AxisIntf9AxisStateES3_EEvT_S5_RKT0_,"axG",%progbits,_ZNSt3__24fillB7v180000IPN10ODriveIntf8AxisIntf9AxisStateES3_EEvT_S5_RKT0_,comdat
	.hidden	_ZNSt3__24fillB7v180000IPN10ODriveIntf8AxisIntf9AxisStateES3_EEvT_S5_RKT0_ @ -- Begin function _ZNSt3__24fillB7v180000IPN10ODriveIntf8AxisIntf9AxisStateES3_EEvT_S5_RKT0_
	.weak	_ZNSt3__24fillB7v180000IPN10ODriveIntf8AxisIntf9AxisStateES3_EEvT_S5_RKT0_
	.p2align	2
	.type	_ZNSt3__24fillB7v180000IPN10ODriveIntf8AxisIntf9AxisStateES3_EEvT_S5_RKT0_,%function
	.code	16                              @ @_ZNSt3__24fillB7v180000IPN10ODriveIntf8AxisIntf9AxisStateES3_EEvT_S5_RKT0_
	.thumb_func
_ZNSt3__24fillB7v180000IPN10ODriveIntf8AxisIntf9AxisStateES3_EEvT_S5_RKT0_:
.Lfunc_begin64:
	.file	43 "D:\\Embed\\MDK\\MDK\\ARM\\ARMCompilerV621\\Bin\\..\\include\\libcxx\\__algorithm" "fill.h"
	.loc	43 45 0 is_stmt 1               @ D:\Embed\MDK\MDK\ARM\ARMCompilerV621\Bin\..\include\libcxx\__algorithm/fill.h:45:0
	.fnstart
	.cfi_startproc
@ %bb.0:
	.save	{r7, lr}
	push	{r7, lr}
	.cfi_def_cfa_offset 8
	.cfi_offset lr, -4
	.cfi_offset r7, -8
	.pad	#16
	sub	sp, #16
	.cfi_def_cfa_offset 24
	str	r0, [sp, #12]
	str	r1, [sp, #8]
	str	r2, [sp, #4]
.Ltmp329:
	.loc	43 46 19 prologue_end           @ D:\Embed\MDK\MDK\ARM\ARMCompilerV621\Bin\..\include\libcxx\__algorithm/fill.h:46:19
	ldr	r0, [sp, #12]
	.loc	43 46 28 is_stmt 0              @ D:\Embed\MDK\MDK\ARM\ARMCompilerV621\Bin\..\include\libcxx\__algorithm/fill.h:46:28
	ldr	r1, [sp, #8]
	.loc	43 46 36                        @ D:\Embed\MDK\MDK\ARM\ARMCompilerV621\Bin\..\include\libcxx\__algorithm/fill.h:46:36
	ldr	r2, [sp, #4]
	.loc	43 46 5                         @ D:\Embed\MDK\MDK\ARM\ARMCompilerV621\Bin\..\include\libcxx\__algorithm/fill.h:46:5
	bl	_ZNSt3__26__fillB7v180000IPN10ODriveIntf8AxisIntf9AxisStateES3_EEvT_S5_RKT0_NS_26random_access_iterator_tagE
	.loc	43 47 1 epilogue_begin is_stmt 1 @ D:\Embed\MDK\MDK\ARM\ARMCompilerV621\Bin\..\include\libcxx\__algorithm/fill.h:47:1
	add	sp, #16
	pop	{r7, pc}
.Ltmp330:
.Lfunc_end64:
	.size	_ZNSt3__24fillB7v180000IPN10ODriveIntf8AxisIntf9AxisStateES3_EEvT_S5_RKT0_, .Lfunc_end64-_ZNSt3__24fillB7v180000IPN10ODriveIntf8AxisIntf9AxisStateES3_EEvT_S5_RKT0_
	.cfi_endproc
	.cantunwind
	.fnend
                                        @ -- End function
	.section	.text._ZNSt3__25arrayIN10ODriveIntf8AxisIntf9AxisStateELj10EE5beginB7v180000Ev,"axG",%progbits,_ZNSt3__25arrayIN10ODriveIntf8AxisIntf9AxisStateELj10EE5beginB7v180000Ev,comdat
	.hidden	_ZNSt3__25arrayIN10ODriveIntf8AxisIntf9AxisStateELj10EE5beginB7v180000Ev @ -- Begin function _ZNSt3__25arrayIN10ODriveIntf8AxisIntf9AxisStateELj10EE5beginB7v180000Ev
	.weak	_ZNSt3__25arrayIN10ODriveIntf8AxisIntf9AxisStateELj10EE5beginB7v180000Ev
	.p2align	2
	.type	_ZNSt3__25arrayIN10ODriveIntf8AxisIntf9AxisStateELj10EE5beginB7v180000Ev,%function
	.code	16                              @ @_ZNSt3__25arrayIN10ODriveIntf8AxisIntf9AxisStateELj10EE5beginB7v180000Ev
	.thumb_func
_ZNSt3__25arrayIN10ODriveIntf8AxisIntf9AxisStateELj10EE5beginB7v180000Ev:
.Lfunc_begin65:
	.loc	27 195 0                        @ D:\Embed\MDK\MDK\ARM\ARMCompilerV621\Bin\..\include\libcxx\array:195:0
	.fnstart
	.cfi_startproc
@ %bb.0:
	.save	{r7, lr}
	push	{r7, lr}
	.cfi_def_cfa_offset 8
	.cfi_offset lr, -4
	.cfi_offset r7, -8
	.pad	#8
	sub	sp, #8
	.cfi_def_cfa_offset 16
	str	r0, [sp, #4]
	ldr	r0, [sp, #4]
.Ltmp331:
	.loc	27 195 49 prologue_end          @ D:\Embed\MDK\MDK\ARM\ARMCompilerV621\Bin\..\include\libcxx\array:195:49
	bl	_ZNSt3__25arrayIN10ODriveIntf8AxisIntf9AxisStateELj10EE4dataB7v180000Ev
	.loc	27 195 33 epilogue_begin is_stmt 0 @ D:\Embed\MDK\MDK\ARM\ARMCompilerV621\Bin\..\include\libcxx\array:195:33
	add	sp, #8
	pop	{r7, pc}
.Ltmp332:
.Lfunc_end65:
	.size	_ZNSt3__25arrayIN10ODriveIntf8AxisIntf9AxisStateELj10EE5beginB7v180000Ev, .Lfunc_end65-_ZNSt3__25arrayIN10ODriveIntf8AxisIntf9AxisStateELj10EE5beginB7v180000Ev
	.cfi_endproc
	.cantunwind
	.fnend
                                        @ -- End function
	.section	.text._ZNSt3__25arrayIN10ODriveIntf8AxisIntf9AxisStateELj10EE3endB7v180000Ev,"axG",%progbits,_ZNSt3__25arrayIN10ODriveIntf8AxisIntf9AxisStateELj10EE3endB7v180000Ev,comdat
	.hidden	_ZNSt3__25arrayIN10ODriveIntf8AxisIntf9AxisStateELj10EE3endB7v180000Ev @ -- Begin function _ZNSt3__25arrayIN10ODriveIntf8AxisIntf9AxisStateELj10EE3endB7v180000Ev
	.weak	_ZNSt3__25arrayIN10ODriveIntf8AxisIntf9AxisStateELj10EE3endB7v180000Ev
	.p2align	2
	.type	_ZNSt3__25arrayIN10ODriveIntf8AxisIntf9AxisStateELj10EE3endB7v180000Ev,%function
	.code	16                              @ @_ZNSt3__25arrayIN10ODriveIntf8AxisIntf9AxisStateELj10EE3endB7v180000Ev
	.thumb_func
_ZNSt3__25arrayIN10ODriveIntf8AxisIntf9AxisStateELj10EE3endB7v180000Ev:
.Lfunc_begin66:
	.loc	27 199 0 is_stmt 1              @ D:\Embed\MDK\MDK\ARM\ARMCompilerV621\Bin\..\include\libcxx\array:199:0
	.fnstart
	.cfi_startproc
@ %bb.0:
	.save	{r7, lr}
	push	{r7, lr}
	.cfi_def_cfa_offset 8
	.cfi_offset lr, -4
	.cfi_offset r7, -8
	.pad	#8
	sub	sp, #8
	.cfi_def_cfa_offset 16
	str	r0, [sp, #4]
	ldr	r0, [sp, #4]
.Ltmp333:
	.loc	27 199 47 prologue_end          @ D:\Embed\MDK\MDK\ARM\ARMCompilerV621\Bin\..\include\libcxx\array:199:47
	bl	_ZNSt3__25arrayIN10ODriveIntf8AxisIntf9AxisStateELj10EE4dataB7v180000Ev
	.loc	27 199 54 is_stmt 0             @ D:\Embed\MDK\MDK\ARM\ARMCompilerV621\Bin\..\include\libcxx\array:199:54
	adds	r0, #10
	.loc	27 199 31 epilogue_begin        @ D:\Embed\MDK\MDK\ARM\ARMCompilerV621\Bin\..\include\libcxx\array:199:31
	add	sp, #8
	pop	{r7, pc}
.Ltmp334:
.Lfunc_end66:
	.size	_ZNSt3__25arrayIN10ODriveIntf8AxisIntf9AxisStateELj10EE3endB7v180000Ev, .Lfunc_end66-_ZNSt3__25arrayIN10ODriveIntf8AxisIntf9AxisStateELj10EE3endB7v180000Ev
	.cfi_endproc
	.cantunwind
	.fnend
                                        @ -- End function
	.section	.text._ZNSt3__26rotateB7v180000IPN10ODriveIntf8AxisIntf9AxisStateEEET_S5_S5_S5_,"axG",%progbits,_ZNSt3__26rotateB7v180000IPN10ODriveIntf8AxisIntf9AxisStateEEET_S5_S5_S5_,comdat
	.hidden	_ZNSt3__26rotateB7v180000IPN10ODriveIntf8AxisIntf9AxisStateEEET_S5_S5_S5_ @ -- Begin function _ZNSt3__26rotateB7v180000IPN10ODriveIntf8AxisIntf9AxisStateEEET_S5_S5_S5_
	.weak	_ZNSt3__26rotateB7v180000IPN10ODriveIntf8AxisIntf9AxisStateEEET_S5_S5_S5_
	.p2align	2
	.type	_ZNSt3__26rotateB7v180000IPN10ODriveIntf8AxisIntf9AxisStateEEET_S5_S5_S5_,%function
	.code	16                              @ @_ZNSt3__26rotateB7v180000IPN10ODriveIntf8AxisIntf9AxisStateEEET_S5_S5_S5_
	.thumb_func
_ZNSt3__26rotateB7v180000IPN10ODriveIntf8AxisIntf9AxisStateEEET_S5_S5_S5_:
.Lfunc_begin67:
	.file	44 "D:\\Embed\\MDK\\MDK\\ARM\\ARMCompilerV621\\Bin\\..\\include\\libcxx\\__algorithm" "rotate.h"
	.loc	44 214 0 is_stmt 1              @ D:\Embed\MDK\MDK\ARM\ARMCompilerV621\Bin\..\include\libcxx\__algorithm/rotate.h:214:0
	.fnstart
	.cfi_startproc
@ %bb.0:
	.save	{r7, lr}
	push	{r7, lr}
	.cfi_def_cfa_offset 8
	.cfi_offset lr, -4
	.cfi_offset r7, -8
	.pad	#24
	sub	sp, #24
	.cfi_def_cfa_offset 32
	str	r0, [sp, #20]
	str	r1, [sp, #16]
	str	r2, [sp, #12]
.Ltmp335:
	.loc	44 216 7 prologue_end           @ D:\Embed\MDK\MDK\ARM\ARMCompilerV621\Bin\..\include\libcxx\__algorithm/rotate.h:216:7
	ldr	r1, [sp, #20]
	.loc	44 216 27 is_stmt 0             @ D:\Embed\MDK\MDK\ARM\ARMCompilerV621\Bin\..\include\libcxx\__algorithm/rotate.h:216:27
	ldr	r2, [sp, #16]
	.loc	44 216 48                       @ D:\Embed\MDK\MDK\ARM\ARMCompilerV621\Bin\..\include\libcxx\__algorithm/rotate.h:216:48
	ldr	r3, [sp, #12]
	add	r0, sp, #4
	.loc	44 215 10 is_stmt 1             @ D:\Embed\MDK\MDK\ARM\ARMCompilerV621\Bin\..\include\libcxx\__algorithm/rotate.h:215:10
	bl	_ZNSt3__28__rotateB7v180000INS_17_ClassicAlgPolicyEPN10ODriveIntf8AxisIntf9AxisStateES5_EENS_4pairIT0_S7_EES7_S7_T1_
	.loc	44 216 67                       @ D:\Embed\MDK\MDK\ARM\ARMCompilerV621\Bin\..\include\libcxx\__algorithm/rotate.h:216:67
	ldr	r0, [sp, #4]
	.loc	44 215 3 epilogue_begin         @ D:\Embed\MDK\MDK\ARM\ARMCompilerV621\Bin\..\include\libcxx\__algorithm/rotate.h:215:3
	add	sp, #24
	pop	{r7, pc}
.Ltmp336:
.Lfunc_end67:
	.size	_ZNSt3__26rotateB7v180000IPN10ODriveIntf8AxisIntf9AxisStateEEET_S5_S5_S5_, .Lfunc_end67-_ZNSt3__26rotateB7v180000IPN10ODriveIntf8AxisIntf9AxisStateEEET_S5_S5_S5_
	.cfi_endproc
	.cantunwind
	.fnend
                                        @ -- End function
	.section	.text._ZNSt3__25arrayIN10ODriveIntf8AxisIntf9AxisStateELj10EE4backB7v180000Ev,"axG",%progbits,_ZNSt3__25arrayIN10ODriveIntf8AxisIntf9AxisStateELj10EE4backB7v180000Ev,comdat
	.hidden	_ZNSt3__25arrayIN10ODriveIntf8AxisIntf9AxisStateELj10EE4backB7v180000Ev @ -- Begin function _ZNSt3__25arrayIN10ODriveIntf8AxisIntf9AxisStateELj10EE4backB7v180000Ev
	.weak	_ZNSt3__25arrayIN10ODriveIntf8AxisIntf9AxisStateELj10EE4backB7v180000Ev
	.p2align	2
	.type	_ZNSt3__25arrayIN10ODriveIntf8AxisIntf9AxisStateELj10EE4backB7v180000Ev,%function
	.code	16                              @ @_ZNSt3__25arrayIN10ODriveIntf8AxisIntf9AxisStateELj10EE4backB7v180000Ev
	.thumb_func
_ZNSt3__25arrayIN10ODriveIntf8AxisIntf9AxisStateELj10EE4backB7v180000Ev:
.Lfunc_begin68:
	.loc	27 257 0                        @ D:\Embed\MDK\MDK\ARM\ARMCompilerV621\Bin\..\include\libcxx\array:257:0
	.fnstart
	.cfi_startproc
@ %bb.0:
	.save	{r7, lr}
	push	{r7, lr}
	.cfi_def_cfa_offset 8
	.cfi_offset lr, -4
	.cfi_offset r7, -8
	.pad	#8
	sub	sp, #8
	.cfi_def_cfa_offset 16
	str	r0, [sp, #4]
	ldr	r0, [sp, #4]
	movs	r1, #9
.Ltmp337:
	.loc	27 257 109 prologue_end         @ D:\Embed\MDK\MDK\ARM\ARMCompilerV621\Bin\..\include\libcxx\array:257:109
	bl	_ZNSt3__25arrayIN10ODriveIntf8AxisIntf9AxisStateELj10EEixB7v180000Ej
	.loc	27 257 102 epilogue_begin is_stmt 0 @ D:\Embed\MDK\MDK\ARM\ARMCompilerV621\Bin\..\include\libcxx\array:257:102
	add	sp, #8
	pop	{r7, pc}
.Ltmp338:
.Lfunc_end68:
	.size	_ZNSt3__25arrayIN10ODriveIntf8AxisIntf9AxisStateELj10EE4backB7v180000Ev, .Lfunc_end68-_ZNSt3__25arrayIN10ODriveIntf8AxisIntf9AxisStateELj10EE4backB7v180000Ev
	.cfi_endproc
	.cantunwind
	.fnend
                                        @ -- End function
	.section	.text._ZN4Axis11CANConfig_tC2Ev,"axG",%progbits,_ZN4Axis11CANConfig_tC2Ev,comdat
	.hidden	_ZN4Axis11CANConfig_tC2Ev       @ -- Begin function _ZN4Axis11CANConfig_tC2Ev
	.weak	_ZN4Axis11CANConfig_tC2Ev
	.p2align	2
	.type	_ZN4Axis11CANConfig_tC2Ev,%function
	.code	16                              @ @_ZN4Axis11CANConfig_tC2Ev
	.thumb_func
_ZN4Axis11CANConfig_tC2Ev:
.Lfunc_begin69:
	.loc	14 54 0 is_stmt 1               @ ../MotorControl\axis.hpp:54:0
	.fnstart
	.cfi_startproc
@ %bb.0:
	.pad	#4
	sub	sp, #4
	.cfi_def_cfa_offset 4
	str	r0, [sp]
	ldr	r0, [sp]
	movs	r1, #0
.Ltmp339:
	.loc	14 55 18 prologue_end           @ ../MotorControl\axis.hpp:55:18
	str	r1, [r0]
	.loc	14 56 14                        @ ../MotorControl\axis.hpp:56:14
	strb	r1, [r0, #4]
	movs	r2, #100
	.loc	14 57 18                        @ ../MotorControl\axis.hpp:57:18
	str	r2, [r0, #8]
	movs	r2, #10
	.loc	14 58 18                        @ ../MotorControl\axis.hpp:58:18
	str	r2, [r0, #12]
	.loc	14 59 18                        @ ../MotorControl\axis.hpp:59:18
	str	r1, [r0, #16]
	.loc	14 60 18                        @ ../MotorControl\axis.hpp:60:18
	str	r1, [r0, #20]
	.loc	14 61 18                        @ ../MotorControl\axis.hpp:61:18
	str	r1, [r0, #24]
	.loc	14 62 18                        @ ../MotorControl\axis.hpp:62:18
	str	r1, [r0, #28]
	.loc	14 63 18                        @ ../MotorControl\axis.hpp:63:18
	str	r1, [r0, #32]
	.loc	14 64 18                        @ ../MotorControl\axis.hpp:64:18
	str	r1, [r0, #36]
	.loc	14 65 18                        @ ../MotorControl\axis.hpp:65:18
	str	r1, [r0, #40]
	.loc	14 66 18                        @ ../MotorControl\axis.hpp:66:18
	str	r1, [r0, #44]
	.loc	14 54 12 epilogue_begin         @ ../MotorControl\axis.hpp:54:12
	add	sp, #4
	bx	lr
.Ltmp340:
.Lfunc_end69:
	.size	_ZN4Axis11CANConfig_tC2Ev, .Lfunc_end69-_ZN4Axis11CANConfig_tC2Ev
	.cfi_endproc
	.cantunwind
	.fnend
                                        @ -- End function
	.section	.text._ZN13ComponentBaseC2Ev,"axG",%progbits,_ZN13ComponentBaseC2Ev,comdat
	.hidden	_ZN13ComponentBaseC2Ev          @ -- Begin function _ZN13ComponentBaseC2Ev
	.weak	_ZN13ComponentBaseC2Ev
	.p2align	2
	.type	_ZN13ComponentBaseC2Ev,%function
	.code	16                              @ @_ZN13ComponentBaseC2Ev
	.thumb_func
_ZN13ComponentBaseC2Ev:
.Lfunc_begin70:
	.loc	17 8 0                          @ ../../Firmware\MotorControl/component.hpp:8:0
	.fnstart
	.cfi_startproc
@ %bb.0:
	.pad	#4
	sub	sp, #4
	.cfi_def_cfa_offset 4
	str	r0, [sp]
	ldr	r0, [sp]
.Ltmp341:
	.loc	17 8 7 prologue_end             @ ../../Firmware\MotorControl/component.hpp:8:7
	movw	r1, :lower16:_ZTV13ComponentBase
	movt	r1, :upper16:_ZTV13ComponentBase
	adds	r1, #8
	str	r1, [r0]
	.loc	17 8 7 epilogue_begin is_stmt 0 @ ../../Firmware\MotorControl/component.hpp:8:7
	add	sp, #4
	bx	lr
.Ltmp342:
.Lfunc_end70:
	.size	_ZN13ComponentBaseC2Ev, .Lfunc_end70-_ZN13ComponentBaseC2Ev
	.cfi_endproc
	.cantunwind
	.fnend
                                        @ -- End function
	.section	.text._ZN13AcimEstimator8Config_tC2Ev,"axG",%progbits,_ZN13AcimEstimator8Config_tC2Ev,comdat
	.hidden	_ZN13AcimEstimator8Config_tC2Ev @ -- Begin function _ZN13AcimEstimator8Config_tC2Ev
	.weak	_ZN13AcimEstimator8Config_tC2Ev
	.p2align	2
	.type	_ZN13AcimEstimator8Config_tC2Ev,%function
	.code	16                              @ @_ZN13AcimEstimator8Config_tC2Ev
	.thumb_func
_ZN13AcimEstimator8Config_tC2Ev:
.Lfunc_begin71:
	.loc	35 10 0 is_stmt 1               @ ../MotorControl/acim_estimator.hpp:10:0
	.fnstart
	.cfi_startproc
@ %bb.0:
	.pad	#4
	sub	sp, #4
	.cfi_def_cfa_offset 4
	str	r0, [sp]
	ldr	r0, [sp]
	movw	r1, #19399
	movt	r1, #16747
.Ltmp343:
	.loc	35 11 15 prologue_end           @ ../MotorControl/acim_estimator.hpp:11:15
	str	r1, [r0]
	.loc	35 10 12 epilogue_begin         @ ../MotorControl/acim_estimator.hpp:10:12
	add	sp, #4
	bx	lr
.Ltmp344:
.Lfunc_end71:
	.size	_ZN13AcimEstimator8Config_tC2Ev, .Lfunc_end71-_ZN13AcimEstimator8Config_tC2Ev
	.cfi_endproc
	.cantunwind
	.fnend
                                        @ -- End function
	.section	.text._ZN9InputPortIfEC2Ev,"axG",%progbits,_ZN9InputPortIfEC2Ev,comdat
	.hidden	_ZN9InputPortIfEC2Ev            @ -- Begin function _ZN9InputPortIfEC2Ev
	.weak	_ZN9InputPortIfEC2Ev
	.p2align	2
	.type	_ZN9InputPortIfEC2Ev,%function
	.code	16                              @ @_ZN9InputPortIfEC2Ev
	.thumb_func
_ZN9InputPortIfEC2Ev:
.Lfunc_begin72:
	.loc	17 123 0                        @ ../../Firmware\MotorControl/component.hpp:123:0
	.fnstart
	.cfi_startproc
@ %bb.0:
	.save	{r7, lr}
	push	{r7, lr}
	.cfi_def_cfa_offset 8
	.cfi_offset lr, -4
	.cfi_offset r7, -8
	.pad	#8
	sub	sp, #8
	.cfi_def_cfa_offset 16
	str	r0, [sp, #4]
	ldr	r0, [sp, #4]
.Ltmp345:
	.loc	17 123 7 prologue_end           @ ../../Firmware\MotorControl/component.hpp:123:7
	str	r0, [sp]                        @ 4-byte Spill
	bl	_ZNSt3__27variantIJfPfP10OutputPortIfEEEC2B7v180000ILb1ELi0EEEv
	ldr	r0, [sp]                        @ 4-byte Reload
	.loc	17 123 7 epilogue_begin is_stmt 0 @ ../../Firmware\MotorControl/component.hpp:123:7
	add	sp, #8
	pop	{r7, pc}
.Ltmp346:
.Lfunc_end72:
	.size	_ZN9InputPortIfEC2Ev, .Lfunc_end72-_ZN9InputPortIfEC2Ev
	.cfi_endproc
	.cantunwind
	.fnend
                                        @ -- End function
	.section	.text._ZN9InputPortINSt3__24pairIffEEEC2Ev,"axG",%progbits,_ZN9InputPortINSt3__24pairIffEEEC2Ev,comdat
	.hidden	_ZN9InputPortINSt3__24pairIffEEEC2Ev @ -- Begin function _ZN9InputPortINSt3__24pairIffEEEC2Ev
	.weak	_ZN9InputPortINSt3__24pairIffEEEC2Ev
	.p2align	2
	.type	_ZN9InputPortINSt3__24pairIffEEEC2Ev,%function
	.code	16                              @ @_ZN9InputPortINSt3__24pairIffEEEC2Ev
	.thumb_func
_ZN9InputPortINSt3__24pairIffEEEC2Ev:
.Lfunc_begin73:
	.loc	17 123 0 is_stmt 1              @ ../../Firmware\MotorControl/component.hpp:123:0
	.fnstart
	.cfi_startproc
@ %bb.0:
	.save	{r7, lr}
	push	{r7, lr}
	.cfi_def_cfa_offset 8
	.cfi_offset lr, -4
	.cfi_offset r7, -8
	.pad	#8
	sub	sp, #8
	.cfi_def_cfa_offset 16
	str	r0, [sp, #4]
	ldr	r0, [sp, #4]
.Ltmp347:
	.loc	17 123 7 prologue_end           @ ../../Firmware\MotorControl/component.hpp:123:7
	str	r0, [sp]                        @ 4-byte Spill
	bl	_ZNSt3__27variantIJNS_4pairIffEEPS2_P10OutputPortIS2_EEEC2B7v180000ILb1ELi0EEEv
	ldr	r0, [sp]                        @ 4-byte Reload
	.loc	17 123 7 epilogue_begin is_stmt 0 @ ../../Firmware\MotorControl/component.hpp:123:7
	add	sp, #8
	pop	{r7, pc}
.Ltmp348:
.Lfunc_end73:
	.size	_ZN9InputPortINSt3__24pairIffEEEC2Ev, .Lfunc_end73-_ZN9InputPortINSt3__24pairIffEEEC2Ev
	.cfi_endproc
	.cantunwind
	.fnend
                                        @ -- End function
	.section	.text._ZN10OutputPortIfEC2Ef,"axG",%progbits,_ZN10OutputPortIfEC2Ef,comdat
	.hidden	_ZN10OutputPortIfEC2Ef          @ -- Begin function _ZN10OutputPortIfEC2Ef
	.weak	_ZN10OutputPortIfEC2Ef
	.p2align	2
	.type	_ZN10OutputPortIfEC2Ef,%function
	.code	16                              @ @_ZN10OutputPortIfEC2Ef
	.thumb_func
_ZN10OutputPortIfEC2Ef:
.Lfunc_begin74:
	.loc	17 47 0 is_stmt 1               @ ../../Firmware\MotorControl/component.hpp:47:0
	.fnstart
	.cfi_startproc
@ %bb.0:
	.pad	#8
	sub	sp, #8
	.cfi_def_cfa_offset 8
	str	r0, [sp, #4]
	vstr	s0, [sp]
	ldr	r0, [sp, #4]
	movs	r1, #2
.Ltmp349:
	.loc	17 107 14 prologue_end          @ ../../Firmware\MotorControl/component.hpp:107:14
	str	r1, [r0]
	.loc	17 47 34                        @ ../../Firmware\MotorControl/component.hpp:47:34
	ldr	r1, [sp]
	.loc	17 47 25 is_stmt 0              @ ../../Firmware\MotorControl/component.hpp:47:25
	str	r1, [r0, #4]
	.loc	17 47 40 epilogue_begin         @ ../../Firmware\MotorControl/component.hpp:47:40
	add	sp, #8
	bx	lr
.Ltmp350:
.Lfunc_end74:
	.size	_ZN10OutputPortIfEC2Ef, .Lfunc_end74-_ZN10OutputPortIfEC2Ef
	.cfi_endproc
	.cantunwind
