	.text
	.syntax unified
	.eabi_attribute	67, "2.09"	@ Tag_conformance
	.cpu	cortex-m4
	.eabi_attribute	6, 13	@ Tag_CPU_arch
	.eabi_attribute	7, 77	@ Tag_CPU_arch_profile
	.eabi_attribute	8, 0	@ Tag_ARM_ISA_use
	.eabi_attribute	9, 2	@ Tag_THUMB_ISA_use
	.fpu	fpv4-sp-d16
	.eabi_attribute	27, 1	@ Tag_ABI_HardFP_use
	.eabi_attribute	36, 1	@ Tag_FP_HP_extension
	.eabi_attribute	34, 1	@ Tag_CPU_unaligned_access
	.eabi_attribute	17, 1	@ Tag_ABI_PCS_GOT_use
	.eabi_attribute	20, 2	@ Tag_ABI_FP_denormal
	.eabi_attribute	21, 0	@ Tag_ABI_FP_exceptions
	.eabi_attribute	23, 1	@ Tag_ABI_FP_number_model
	.eabi_attribute	24, 1	@ Tag_ABI_align_needed
	.eabi_attribute	25, 1	@ Tag_ABI_align_preserved
	.eabi_attribute	28, 1	@ Tag_ABI_VFP_args
	.eabi_attribute	38, 1	@ Tag_ABI_FP_16bit_format
	.eabi_attribute	18, 2	@ Tag_ABI_PCS_wchar_t
	.eabi_attribute	26, 1	@ Tag_ABI_enum_size
	.eabi_attribute	14, 0	@ Tag_ABI_PCS_R9_use
	.file	"board.cpp"
	.file	1 "D:\\Embed\\MDK\\MDK\\ARM\\ARMCompilerV621\\Bin\\..\\include" "stdint.h"
	.file	2 "D:\\ikingtec\\Robot\\ODrive\\Firmware\\MDK-ARM" "../MotorControl\\task_timer.hpp"
	.file	3 "D:\\ikingtec\\Robot\\ODrive\\Firmware\\MDK-ARM" "../Board/v3/board.cpp"
	.file	4 "D:\\ikingtec\\Robot\\ODrive\\Firmware\\MDK-ARM" "../ThirdParty/STM32F4xx_HAL_Driver/Inc\\stm32f4xx_hal_spi.h"
	.file	5 "D:\\ikingtec\\Robot\\ODrive\\Firmware\\MDK-ARM" "../../Firmware\\Drivers/STM32/stm32_spi_arbiter.hpp"
	.file	6 "D:\\ikingtec\\Robot\\ODrive\\Firmware\\MDK-ARM" "../../Firmware\\Drivers/STM32/stm32_gpio.hpp"
	.file	7 "D:\\ikingtec\\Robot\\ODrive\\Firmware\\MDK-ARM" "../ThirdParty/CMSIS/Device/ST/STM32F4xx/Include/stm32f405xx.h"
	.file	8 "D:\\Embed\\MDK\\MDK\\ARM\\ARMCompilerV621\\Bin\\..\\include" "stddef.h"
	.file	9 "D:\\ikingtec\\Robot\\ODrive\\Firmware\\MDK-ARM" "../ThirdParty/STM32F4xx_HAL_Driver/Inc\\stm32f4xx_hal_uart.h"
	.file	10 "D:\\ikingtec\\Robot\\ODrive\\Firmware\\MDK-ARM" "../ThirdParty/STM32F4xx_HAL_Driver/Inc\\stm32f4xx_hal_dma.h"
	.file	11 "D:\\ikingtec\\Robot\\ODrive\\Firmware\\MDK-ARM" "../ThirdParty/STM32F4xx_HAL_Driver/Inc/stm32f4xx_hal_def.h"
	.file	12 "D:\\Embed\\MDK\\MDK\\ARM\\ARMCompilerV621\\Bin\\..\\include" "time.h"
	.file	13 "D:\\ikingtec\\Robot\\ODrive\\Firmware\\MDK-ARM" "../MotorControl\\endstop.hpp"
	.file	14 "D:\\ikingtec\\Robot\\ODrive\\Firmware\\MDK-ARM" "../MotorControl/timer.hpp"
	.file	15 "D:\\ikingtec\\Robot\\ODrive\\Firmware\\MDK-ARM" "../../Firmware\\autogen/interfaces.hpp"
	.file	16 "D:\\ikingtec\\Robot\\ODrive\\Firmware\\MDK-ARM" "../MotorControl\\sensorless_estimator.hpp"
	.file	17 "D:\\ikingtec\\Robot\\ODrive\\Firmware\\MDK-ARM" "../../Firmware\\MotorControl/component.hpp"
	.file	18 "D:\\Embed\\MDK\\MDK\\ARM\\ARMCompilerV621\\Bin\\..\\include\\libcxx" "optional"
	.file	19 "D:\\Embed\\MDK\\MDK\\ARM\\ARMCompilerV621\\Bin\\..\\include\\libcxx\\__tuple" "sfinae_helpers.h"
	.file	20 "D:\\Embed\\MDK\\MDK\\ARM\\ARMCompilerV621\\Bin\\..\\include\\libcxx\\__type_traits" "add_pointer.h"
	.file	21 "D:\\ikingtec\\Robot\\ODrive\\Firmware\\MDK-ARM" "../MotorControl\\trapTraj.hpp"
	.file	22 "D:\\Embed\\MDK\\MDK\\ARM\\ARMCompilerV621\\Bin\\..\\include\\libcxx" "array"
	.file	23 "D:\\ikingtec\\Robot\\ODrive\\Firmware\\MDK-ARM" "../Board/v3/Inc\\board.h"
	.file	24 "D:\\ikingtec\\Robot\\ODrive\\Firmware\\MDK-ARM" "../ThirdParty/STM32F4xx_HAL_Driver/Inc\\stm32f4xx_hal_tim.h"
	.file	25 "D:\\ikingtec\\Robot\\ODrive\\Firmware\\MDK-ARM" "../../Firmware\\MotorControl/pwm_input.hpp"
	.file	26 "D:\\ikingtec\\Robot\\ODrive\\Firmware\\MDK-ARM" "../ThirdParty/STM32_USB_Device_Library/Core/Inc\\usbd_def.h"
	.file	27 "D:\\Embed\\MDK\\MDK\\ARM\\ARMCompilerV621\\Bin\\..\\include\\libcxx\\__utility" "in_place.h"
	.file	28 "D:\\ikingtec\\Robot\\ODrive\\Firmware\\MDK-ARM" "../ThirdParty/FreeRTOS/Source/CMSIS_RTOS\\cmsis_os.h"
	.file	29 "D:\\ikingtec\\Robot\\ODrive\\Firmware\\MDK-ARM" "../../Firmware\\Drivers/DRV8301/drv8301.hpp"
	.file	30 "D:\\Embed\\MDK\\MDK\\ARM\\ARMCompilerV621\\Bin\\..\\include\\libcxx" "variant"
	.file	31 "D:\\ikingtec\\Robot\\ODrive\\Firmware\\MDK-ARM" "../ThirdParty/STM32F4xx_HAL_Driver/Inc\\stm32f4xx_hal_gpio.h"
	.file	32 "D:\\ikingtec\\Robot\\ODrive\\Firmware\\MDK-ARM" "../ThirdParty/CMSIS/Include\\core_cm4.h"
	.file	33 "D:\\ikingtec\\Robot\\ODrive\\Firmware\\MDK-ARM" "../MotorControl\\mechanical_brake.hpp"
	.file	34 "D:\\ikingtec\\Robot\\ODrive\\Firmware\\MDK-ARM" "../MotorControl\\controller.hpp"
	.file	35 "D:\\ikingtec\\Robot\\ODrive\\Firmware\\MDK-ARM" "../../Firmware\\Drivers/STM32/stm32_system.h"
	.section	.text.__cxx_global_var_init,"ax",%progbits
	.p2align	2                               @ -- Begin function __cxx_global_var_init
	.type	__cxx_global_var_init,%function
	.code	16                              @ @__cxx_global_var_init
	.thumb_func
__cxx_global_var_init:
.Lfunc_begin0:
	.file	36 "D:\\ikingtec\\Robot\\ODrive\\Firmware\\MDK-ARM" "../Board/v3\\board.cpp"
	.loc	36 0 0                          @ ../Board/v3\board.cpp:0:0
	.fnstart
	.cfi_sections .debug_frame
	.cfi_startproc
@ %bb.0:
	.save	{r7, lr}
	push	{r7, lr}
	.cfi_def_cfa_offset 8
	.cfi_offset lr, -4
	.cfi_offset r7, -8
.Ltmp0:
	.loc	3 32 17 prologue_end            @ ../Board/v3/board.cpp:32:17
	movw	r0, :lower16:spi3_arbiter
	movt	r0, :upper16:spi3_arbiter
	movw	r1, :lower16:hspi3
	movt	r1, :upper16:hspi3
	bl	_ZN15Stm32SpiArbiterC2EP19__SPI_HandleTypeDef
	.loc	3 32 31 epilogue_begin is_stmt 0 @ ../Board/v3/board.cpp:32:31
	pop	{r7, pc}
.Ltmp1:
.Lfunc_end0:
	.size	__cxx_global_var_init, .Lfunc_end0-__cxx_global_var_init
	.cfi_endproc
	.cantunwind
	.fnend
                                        @ -- End function
	.section	.text._ZN15Stm32SpiArbiterC2EP19__SPI_HandleTypeDef,"axG",%progbits,_ZN15Stm32SpiArbiterC2EP19__SPI_HandleTypeDef,comdat
	.hidden	_ZN15Stm32SpiArbiterC2EP19__SPI_HandleTypeDef @ -- Begin function _ZN15Stm32SpiArbiterC2EP19__SPI_HandleTypeDef
	.weak	_ZN15Stm32SpiArbiterC2EP19__SPI_HandleTypeDef
	.p2align	2
	.type	_ZN15Stm32SpiArbiterC2EP19__SPI_HandleTypeDef,%function
	.code	16                              @ @_ZN15Stm32SpiArbiterC2EP19__SPI_HandleTypeDef
	.thumb_func
_ZN15Stm32SpiArbiterC2EP19__SPI_HandleTypeDef:
.Lfunc_begin1:
	.loc	5 22 0 is_stmt 1                @ ../../Firmware\Drivers/STM32/stm32_spi_arbiter.hpp:22:0
	.fnstart
	.cfi_startproc
@ %bb.0:
	.pad	#8
	sub	sp, #8
	.cfi_def_cfa_offset 8
	str	r0, [sp, #4]
	str	r1, [sp]
	ldr	r0, [sp, #4]
.Ltmp2:
	.loc	5 22 53 prologue_end            @ ../../Firmware\Drivers/STM32/stm32_spi_arbiter.hpp:22:53
	ldr	r1, [sp]
	.loc	5 22 47 is_stmt 0               @ ../../Firmware\Drivers/STM32/stm32_spi_arbiter.hpp:22:47
	str	r1, [r0]
	movs	r1, #0
	.loc	5 91 14 is_stmt 1               @ ../../Firmware\Drivers/STM32/stm32_spi_arbiter.hpp:91:14
	str	r1, [r0, #4]
	.loc	5 22 60 epilogue_begin          @ ../../Firmware\Drivers/STM32/stm32_spi_arbiter.hpp:22:60
	add	sp, #8
	bx	lr
.Ltmp3:
.Lfunc_end1:
	.size	_ZN15Stm32SpiArbiterC2EP19__SPI_HandleTypeDef, .Lfunc_end1-_ZN15Stm32SpiArbiterC2EP19__SPI_HandleTypeDef
	.cfi_endproc
	.cantunwind
	.fnend
                                        @ -- End function
	.section	.text.__cxx_global_var_init.1,"ax",%progbits
	.p2align	2                               @ -- Begin function __cxx_global_var_init.1
	.type	__cxx_global_var_init.1,%function
	.code	16                              @ @__cxx_global_var_init.1
	.thumb_func
__cxx_global_var_init.1:
.Lfunc_begin2:
	.loc	36 0 0                          @ ../Board/v3\board.cpp:0:0
	.fnstart
	.cfi_startproc
@ %bb.0:
	.save	{r4, lr}
	push	{r4, lr}
	.cfi_def_cfa_offset 8
	.cfi_offset lr, -4
	.cfi_offset r4, -8
	.pad	#40
	sub	sp, #40
	.cfi_def_cfa_offset 48
	add	r0, sp, #32
	movw	r1, #2048
	movt	r1, #16386
	mov.w	r2, #8192
.Ltmp4:
	.loc	3 41 5 prologue_end             @ ../Board/v3/board.cpp:41:5
	bl	_ZN9Stm32GpioC2EP12GPIO_TypeDeft
	add	r0, sp, #24
	.loc	3 42 5                          @ ../Board/v3/board.cpp:42:5
	bl	_ZN9Stm32GpioC2Ev
	add	r0, sp, #16
	movw	r1, #3072
	movt	r1, #16386
	movs	r2, #4
	.loc	3 43 5                          @ ../Board/v3/board.cpp:43:5
	bl	_ZN9Stm32GpioC2EP12GPIO_TypeDeft
	.loc	3 39 9                          @ ../Board/v3/board.cpp:39:9
	ldr	r2, [sp, #32]
	ldr	r3, [sp, #36]
	ldr	r0, [sp, #24]
	ldr.w	r12, [sp, #28]
	ldr.w	lr, [sp, #16]
	ldr	r4, [sp, #20]
	mov	r1, sp
	str	r4, [r1, #12]
	str.w	lr, [r1, #8]
	str.w	r12, [r1, #4]
	str	r0, [r1]
	movw	r0, :lower16:m0_gate_driver
	movt	r0, :upper16:m0_gate_driver
	movw	r1, :lower16:spi3_arbiter
	movt	r1, :upper16:spi3_arbiter
	bl	_ZN7Drv8301C2EP15Stm32SpiArbiter9Stm32GpioS2_S2_
	.loc	3 43 24 epilogue_begin          @ ../Board/v3/board.cpp:43:24
	add	sp, #40
	pop	{r4, pc}
.Ltmp5:
.Lfunc_end2:
	.size	__cxx_global_var_init.1, .Lfunc_end2-__cxx_global_var_init.1
	.cfi_endproc
	.cantunwind
	.fnend
                                        @ -- End function
	.section	.text._ZN9Stm32GpioC2EP12GPIO_TypeDeft,"axG",%progbits,_ZN9Stm32GpioC2EP12GPIO_TypeDeft,comdat
	.hidden	_ZN9Stm32GpioC2EP12GPIO_TypeDeft @ -- Begin function _ZN9Stm32GpioC2EP12GPIO_TypeDeft
	.weak	_ZN9Stm32GpioC2EP12GPIO_TypeDeft
	.p2align	2
	.type	_ZN9Stm32GpioC2EP12GPIO_TypeDeft,%function
	.code	16                              @ @_ZN9Stm32GpioC2EP12GPIO_TypeDeft
	.thumb_func
_ZN9Stm32GpioC2EP12GPIO_TypeDeft:
.Lfunc_begin3:
	.loc	6 11 0                          @ ../../Firmware\Drivers/STM32/stm32_gpio.hpp:11:0
	.fnstart
	.cfi_startproc
@ %bb.0:
	.pad	#12
	sub	sp, #12
	.cfi_def_cfa_offset 12
                                        @ kill: def $r3 killed $r2
	str	r0, [sp, #8]
	str	r1, [sp, #4]
	strh.w	r2, [sp, #2]
	ldr	r0, [sp, #8]
.Ltmp6:
	.loc	6 11 57 prologue_end            @ ../../Firmware\Drivers/STM32/stm32_gpio.hpp:11:57
	ldr	r1, [sp, #4]
	.loc	6 11 51 is_stmt 0               @ ../../Firmware\Drivers/STM32/stm32_gpio.hpp:11:51
	str	r1, [r0]
	.loc	6 11 74                         @ ../../Firmware\Drivers/STM32/stm32_gpio.hpp:11:74
	ldrh.w	r1, [sp, #2]
	.loc	6 11 64                         @ ../../Firmware\Drivers/STM32/stm32_gpio.hpp:11:64
	strh	r1, [r0, #4]
	.loc	6 11 80 epilogue_begin          @ ../../Firmware\Drivers/STM32/stm32_gpio.hpp:11:80
	add	sp, #12
	bx	lr
.Ltmp7:
.Lfunc_end3:
	.size	_ZN9Stm32GpioC2EP12GPIO_TypeDeft, .Lfunc_end3-_ZN9Stm32GpioC2EP12GPIO_TypeDeft
	.cfi_endproc
	.cantunwind
	.fnend
                                        @ -- End function
	.section	.text._ZN9Stm32GpioC2Ev,"axG",%progbits,_ZN9Stm32GpioC2Ev,comdat
	.hidden	_ZN9Stm32GpioC2Ev               @ -- Begin function _ZN9Stm32GpioC2Ev
	.weak	_ZN9Stm32GpioC2Ev
	.p2align	2
	.type	_ZN9Stm32GpioC2Ev,%function
	.code	16                              @ @_ZN9Stm32GpioC2Ev
	.thumb_func
_ZN9Stm32GpioC2Ev:
.Lfunc_begin4:
	.loc	6 10 0 is_stmt 1                @ ../../Firmware\Drivers/STM32/stm32_gpio.hpp:10:0
	.fnstart
	.cfi_startproc
@ %bb.0:
	.pad	#4
	sub	sp, #4
	.cfi_def_cfa_offset 4
	str	r0, [sp]
	ldr	r0, [sp]
	movs	r1, #0
.Ltmp8:
	.loc	6 10 19 prologue_end            @ ../../Firmware\Drivers/STM32/stm32_gpio.hpp:10:19
	str	r1, [r0]
	.loc	6 10 35 is_stmt 0               @ ../../Firmware\Drivers/STM32/stm32_gpio.hpp:10:35
	strh	r1, [r0, #4]
	.loc	6 10 49 epilogue_begin          @ ../../Firmware\Drivers/STM32/stm32_gpio.hpp:10:49
	add	sp, #4
	bx	lr
.Ltmp9:
.Lfunc_end4:
	.size	_ZN9Stm32GpioC2Ev, .Lfunc_end4-_ZN9Stm32GpioC2Ev
	.cfi_endproc
	.cantunwind
	.fnend
                                        @ -- End function
	.section	.text._ZN7Drv8301C2EP15Stm32SpiArbiter9Stm32GpioS2_S2_,"axG",%progbits,_ZN7Drv8301C2EP15Stm32SpiArbiter9Stm32GpioS2_S2_,comdat
	.hidden	_ZN7Drv8301C2EP15Stm32SpiArbiter9Stm32GpioS2_S2_ @ -- Begin function _ZN7Drv8301C2EP15Stm32SpiArbiter9Stm32GpioS2_S2_
	.weak	_ZN7Drv8301C2EP15Stm32SpiArbiter9Stm32GpioS2_S2_
	.p2align	2
	.type	_ZN7Drv8301C2EP15Stm32SpiArbiter9Stm32GpioS2_S2_,%function
	.code	16                              @ @_ZN7Drv8301C2EP15Stm32SpiArbiter9Stm32GpioS2_S2_
	.thumb_func
_ZN7Drv8301C2EP15Stm32SpiArbiter9Stm32GpioS2_S2_:
.Lfunc_begin5:
	.loc	29 37 0 is_stmt 1               @ ../../Firmware\Drivers/DRV8301/drv8301.hpp:37:0
	.fnstart
	.cfi_startproc
@ %bb.0:
	.save	{r4, r5, r6, lr}
	push	{r4, r5, r6, lr}
	.cfi_def_cfa_offset 16
	.cfi_offset lr, -4
	.cfi_offset r6, -8
	.cfi_offset r5, -12
	.cfi_offset r4, -16
	.pad	#40
	sub	sp, #40
	.cfi_def_cfa_offset 56
	mov	r5, r3
	mov	r4, r2
	ldr	r3, [sp, #68]
	ldr	r2, [sp, #64]
	ldr.w	lr, [sp, #60]
	ldr.w	r12, [sp, #56]
                                        @ kill: def $r6 killed $r5
                                        @ kill: def $r6 killed $r4
	str	r5, [sp, #36]
	str	r4, [sp, #32]
	str.w	lr, [sp, #28]
	str.w	r12, [sp, #24]
	str	r3, [sp, #20]
	str	r2, [sp, #16]
	str	r0, [sp, #12]
	str	r1, [sp, #8]
	ldr	r0, [sp, #12]
.Ltmp10:
	.loc	29 34 5 prologue_end            @ ../../Firmware\Drivers/DRV8301/drv8301.hpp:34:5
	str	r0, [sp, #4]                    @ 4-byte Spill
	bl	_ZN14GateDriverBaseC2Ev
	ldr	r0, [sp, #4]                    @ 4-byte Reload
	.loc	29 37 68                        @ ../../Firmware\Drivers/DRV8301/drv8301.hpp:37:68
	adds	r0, #4
	.loc	29 34 5                         @ ../../Firmware\Drivers/DRV8301/drv8301.hpp:34:5
	bl	_ZN9OpAmpBaseC2Ev
	ldr	r0, [sp, #4]                    @ 4-byte Reload
	.loc	29 37 68                        @ ../../Firmware\Drivers/DRV8301/drv8301.hpp:37:68
	movw	r1, :lower16:_ZTV7Drv8301
	movt	r1, :upper16:_ZTV7Drv8301
	add.w	r2, r1, #8
	str	r2, [r0]
	adds	r1, #32
	str	r1, [r0, #4]
	.loc	29 36 28                        @ ../../Firmware\Drivers/DRV8301/drv8301.hpp:36:28
	ldr	r1, [sp, #8]
	.loc	29 36 15 is_stmt 0              @ ../../Firmware\Drivers/DRV8301/drv8301.hpp:36:15
	str	r1, [r0, #8]
	.loc	29 36 42                        @ ../../Firmware\Drivers/DRV8301/drv8301.hpp:36:42
	ldr	r1, [sp, #32]
	ldr	r2, [sp, #36]
	str	r2, [r0, #16]
	str	r1, [r0, #12]
	.loc	29 37 15 is_stmt 1              @ ../../Firmware\Drivers/DRV8301/drv8301.hpp:37:15
	ldr	r1, [sp, #24]
	ldr	r2, [sp, #28]
	str	r2, [r0, #24]
	str	r1, [r0, #20]
	.loc	29 37 42 is_stmt 0              @ ../../Firmware\Drivers/DRV8301/drv8301.hpp:37:42
	ldr	r1, [sp, #16]
	ldr	r2, [sp, #20]
	str	r2, [r0, #32]
	str	r1, [r0, #28]
	movs	r1, #0
	.loc	29 141 7 is_stmt 1              @ ../../Firmware\Drivers/DRV8301/drv8301.hpp:141:7
	strb.w	r1, [r0, #44]
	.loc	29 37 69 epilogue_begin         @ ../../Firmware\Drivers/DRV8301/drv8301.hpp:37:69
	add	sp, #40
	pop	{r4, r5, r6, pc}
.Ltmp11:
.Lfunc_end5:
	.size	_ZN7Drv8301C2EP15Stm32SpiArbiter9Stm32GpioS2_S2_, .Lfunc_end5-_ZN7Drv8301C2EP15Stm32SpiArbiter9Stm32GpioS2_S2_
	.cfi_endproc
	.cantunwind
	.fnend
                                        @ -- End function
	.section	.text.__cxx_global_var_init.2,"ax",%progbits
	.p2align	2                               @ -- Begin function __cxx_global_var_init.2
	.type	__cxx_global_var_init.2,%function
	.code	16                              @ @__cxx_global_var_init.2
	.thumb_func
__cxx_global_var_init.2:
.Lfunc_begin6:
	.loc	36 0 0                          @ ../Board/v3\board.cpp:0:0
	.fnstart
	.cfi_startproc
@ %bb.0:
	.save	{r4, lr}
	push	{r4, lr}
	.cfi_def_cfa_offset 8
	.cfi_offset lr, -4
	.cfi_offset r4, -8
	.pad	#40
	sub	sp, #40
	.cfi_def_cfa_offset 48
	add	r0, sp, #32
	movw	r1, #2048
	movt	r1, #16386
	mov.w	r2, #16384
.Ltmp12:
	.loc	3 48 5 prologue_end             @ ../Board/v3/board.cpp:48:5
	bl	_ZN9Stm32GpioC2EP12GPIO_TypeDeft
	add	r0, sp, #24
	.loc	3 49 5                          @ ../Board/v3/board.cpp:49:5
	bl	_ZN9Stm32GpioC2Ev
	add	r0, sp, #16
	movw	r1, #3072
	movt	r1, #16386
	movs	r2, #4
	.loc	3 50 5                          @ ../Board/v3/board.cpp:50:5
	bl	_ZN9Stm32GpioC2EP12GPIO_TypeDeft
	.loc	3 46 9                          @ ../Board/v3/board.cpp:46:9
	ldr	r2, [sp, #32]
	ldr	r3, [sp, #36]
	ldr	r0, [sp, #24]
	ldr.w	r12, [sp, #28]
	ldr.w	lr, [sp, #16]
	ldr	r4, [sp, #20]
	mov	r1, sp
	str	r4, [r1, #12]
	str.w	lr, [r1, #8]
	str.w	r12, [r1, #4]
	str	r0, [r1]
	movw	r0, :lower16:m1_gate_driver
	movt	r0, :upper16:m1_gate_driver
	movw	r1, :lower16:spi3_arbiter
	movt	r1, :upper16:spi3_arbiter
	bl	_ZN7Drv8301C2EP15Stm32SpiArbiter9Stm32GpioS2_S2_
	.loc	3 50 24 epilogue_begin          @ ../Board/v3/board.cpp:50:24
	add	sp, #40
	pop	{r4, pc}
.Ltmp13:
.Lfunc_end6:
	.size	__cxx_global_var_init.2, .Lfunc_end6-__cxx_global_var_init.2
	.cfi_endproc
	.cantunwind
	.fnend
                                        @ -- End function
	.section	.text.__cxx_global_var_init.3,"ax",%progbits
	.p2align	2                               @ -- Begin function __cxx_global_var_init.3
	.type	__cxx_global_var_init.3,%function
	.code	16                              @ @__cxx_global_var_init.3
	.thumb_func
__cxx_global_var_init.3:
.Lfunc_begin7:
	.loc	36 0 0                          @ ../Board/v3\board.cpp:0:0
	.fnstart
	.cfi_startproc
@ %bb.0:
	.save	{r7, lr}
	push	{r7, lr}
	.cfi_def_cfa_offset 8
	.cfi_offset lr, -4
	.cfi_offset r7, -8
	.pad	#16
	sub	sp, #16
	.cfi_def_cfa_offset 24
.Ltmp14:
	.loc	3 58 5 prologue_end             @ ../Board/v3/board.cpp:58:5
	movw	r0, :lower16:fet_thermistors
	movt	r0, :upper16:fet_thermistors
	str	r0, [sp, #4]                    @ 4-byte Spill
	movw	r2, :lower16:_ZL26fet_thermistor_poly_coeffs
	movt	r2, :upper16:_ZL26fet_thermistor_poly_coeffs
	str	r2, [sp, #8]                    @ 4-byte Spill
	movs	r1, #15
	movs	r3, #4
	str	r3, [sp, #12]                   @ 4-byte Spill
	bl	_ZN31OnboardThermistorCurrentLimiterC1EtPKfj
	ldr	r0, [sp, #4]                    @ 4-byte Reload
	ldr	r2, [sp, #8]                    @ 4-byte Reload
	ldr	r3, [sp, #12]                   @ 4-byte Reload
	.loc	3 62 8                          @ ../Board/v3/board.cpp:62:8
	adds	r0, #56
	mov	r1, r3
	bl	_ZN31OnboardThermistorCurrentLimiterC1EtPKfj
	.loc	36 0 0 is_stmt 0                @ ../Board/v3\board.cpp:0:0
	movw	r0, :lower16:__cxx_global_array_dtor
	movt	r0, :upper16:__cxx_global_array_dtor
	movw	r2, :lower16:__dso_handle
	movt	r2, :upper16:__dso_handle
	movs	r1, #0
	bl	__cxa_atexit
	add	sp, #16
	pop	{r7, pc}
.Ltmp15:
.Lfunc_end7:
	.size	__cxx_global_var_init.3, .Lfunc_end7-__cxx_global_var_init.3
	.cfi_endproc
	.cantunwind
	.fnend
                                        @ -- End function
	.section	.text.__cxx_global_array_dtor,"ax",%progbits
	.p2align	2                               @ -- Begin function __cxx_global_array_dtor
	.type	__cxx_global_array_dtor,%function
	.code	16                              @ @__cxx_global_array_dtor
	.thumb_func
__cxx_global_array_dtor:
.Lfunc_begin8:
	.loc	36 0 0 is_stmt 1                @ ../Board/v3\board.cpp:0:0
	.fnstart
	.cfi_startproc
@ %bb.0:
	.save	{r7, lr}
	push	{r7, lr}
	.cfi_def_cfa_offset 8
	.cfi_offset lr, -4
	.cfi_offset r7, -8
	.pad	#16
	sub	sp, #16
	.cfi_def_cfa_offset 24
	str	r0, [sp, #12]
	movw	r0, :lower16:fet_thermistors
	movt	r0, :upper16:fet_thermistors
	adds	r0, #112
.Ltmp16:
	str	r0, [sp, #8]                    @ 4-byte Spill
	b	.LBB8_1
.LBB8_1:                                @ =>This Inner Loop Header: Depth=1
	ldr	r0, [sp, #8]                    @ 4-byte Reload
	subs	r0, #56
	str	r0, [sp, #4]                    @ 4-byte Spill
	mov	r1, r0
	str	r1, [sp]                        @ 4-byte Spill
	bl	_ZN31OnboardThermistorCurrentLimiterD2Ev
	ldr	r0, [sp]                        @ 4-byte Reload
	ldr	r1, [sp, #4]                    @ 4-byte Reload
	movw	r2, :lower16:fet_thermistors
	movt	r2, :upper16:fet_thermistors
	cmp	r1, r2
	str	r0, [sp, #8]                    @ 4-byte Spill
	bne	.LBB8_1
	b	.LBB8_2
.LBB8_2:
	add	sp, #16
	pop	{r7, pc}
.Ltmp17:
.Lfunc_end8:
	.size	__cxx_global_array_dtor, .Lfunc_end8-__cxx_global_array_dtor
	.cfi_endproc
	.cantunwind
	.fnend
                                        @ -- End function
	.section	.text._ZN31OnboardThermistorCurrentLimiterD2Ev,"axG",%progbits,_ZN31OnboardThermistorCurrentLimiterD2Ev,comdat
	.hidden	_ZN31OnboardThermistorCurrentLimiterD2Ev @ -- Begin function _ZN31OnboardThermistorCurrentLimiterD2Ev
	.weak	_ZN31OnboardThermistorCurrentLimiterD2Ev
	.p2align	2
	.type	_ZN31OnboardThermistorCurrentLimiterD2Ev,%function
	.code	16                              @ @_ZN31OnboardThermistorCurrentLimiterD2Ev
	.thumb_func
_ZN31OnboardThermistorCurrentLimiterD2Ev:
.Lfunc_begin9:
	.file	37 "D:\\ikingtec\\Robot\\ODrive\\Firmware\\MDK-ARM" "../../Firmware\\MotorControl/thermistor.hpp"
	.loc	37 43 0                         @ ../../Firmware\MotorControl/thermistor.hpp:43:0
	.fnstart
	.cfi_startproc
@ %bb.0:
	.save	{r7, lr}
	push	{r7, lr}
	.cfi_def_cfa_offset 8
	.cfi_offset lr, -4
	.cfi_offset r7, -8
	.pad	#8
	sub	sp, #8
	.cfi_def_cfa_offset 16
	str	r0, [sp, #4]
	ldr	r0, [sp, #4]
.Ltmp18:
	.loc	37 43 56 prologue_end           @ ../../Firmware\MotorControl/thermistor.hpp:43:56
	str	r0, [sp]                        @ 4-byte Spill
	bl	_ZN24ThermistorCurrentLimiterD2Ev
	ldr	r0, [sp]                        @ 4-byte Reload
.Ltmp19:
	.loc	37 43 56 epilogue_begin is_stmt 0 @ ../../Firmware\MotorControl/thermistor.hpp:43:56
	add	sp, #8
	pop	{r7, pc}
.Ltmp20:
.Lfunc_end9:
	.size	_ZN31OnboardThermistorCurrentLimiterD2Ev, .Lfunc_end9-_ZN31OnboardThermistorCurrentLimiterD2Ev
	.cfi_endproc
	.cantunwind
	.fnend
                                        @ -- End function
	.section	.text.__cxx_global_var_init.4,"ax",%progbits
	.p2align	2                               @ -- Begin function __cxx_global_var_init.4
	.type	__cxx_global_var_init.4,%function
	.code	16                              @ @__cxx_global_var_init.4
	.thumb_func
__cxx_global_var_init.4:
.Lfunc_begin10:
	.loc	36 0 0 is_stmt 1                @ ../Board/v3\board.cpp:0:0
	.fnstart
	.cfi_startproc
@ %bb.0:
	.save	{r7, lr}
	push	{r7, lr}
	.cfi_def_cfa_offset 8
	.cfi_offset lr, -4
	.cfi_offset r7, -8
	.pad	#8
	sub	sp, #8
	.cfi_def_cfa_offset 16
	movw	r0, :lower16:motor_thermistors
	movt	r0, :upper16:motor_thermistors
.Ltmp21:
	.loc	3 73 34 prologue_end            @ ../Board/v3/board.cpp:73:34
	str	r0, [sp, #4]                    @ 4-byte Spill
	b	.LBB10_1
.LBB10_1:                               @ =>This Inner Loop Header: Depth=1
	ldr	r0, [sp, #4]                    @ 4-byte Reload
	str	r0, [sp]                        @ 4-byte Spill
	bl	_ZN32OffboardThermistorCurrentLimiterC1Ev
	ldr	r0, [sp]                        @ 4-byte Reload
	add.w	r1, r0, #80
	mov	r0, r1
	movw	r2, :lower16:motor_thermistors
	movt	r2, :upper16:motor_thermistors
	adds	r2, #160
	cmp	r1, r2
	str	r0, [sp, #4]                    @ 4-byte Spill
	bne	.LBB10_1
	b	.LBB10_2
.LBB10_2:
	.loc	36 0 0 is_stmt 0                @ ../Board/v3\board.cpp:0:0
	movw	r0, :lower16:__cxx_global_array_dtor.5
	movt	r0, :upper16:__cxx_global_array_dtor.5
	movw	r2, :lower16:__dso_handle
	movt	r2, :upper16:__dso_handle
	movs	r1, #0
	bl	__cxa_atexit
	add	sp, #8
	pop	{r7, pc}
.Ltmp22:
.Lfunc_end10:
	.size	__cxx_global_var_init.4, .Lfunc_end10-__cxx_global_var_init.4
	.cfi_endproc
	.cantunwind
	.fnend
                                        @ -- End function
	.section	.text.__cxx_global_array_dtor.5,"ax",%progbits
	.p2align	2                               @ -- Begin function __cxx_global_array_dtor.5
	.type	__cxx_global_array_dtor.5,%function
	.code	16                              @ @__cxx_global_array_dtor.5
	.thumb_func
__cxx_global_array_dtor.5:
.Lfunc_begin11:
	.loc	36 0 0 is_stmt 1                @ ../Board/v3\board.cpp:0:0
	.fnstart
	.cfi_startproc
@ %bb.0:
	.save	{r7, lr}
	push	{r7, lr}
	.cfi_def_cfa_offset 8
	.cfi_offset lr, -4
	.cfi_offset r7, -8
	.pad	#16
	sub	sp, #16
	.cfi_def_cfa_offset 24
	str	r0, [sp, #12]
	movw	r0, :lower16:motor_thermistors
	movt	r0, :upper16:motor_thermistors
	adds	r0, #160
.Ltmp23:
	str	r0, [sp, #8]                    @ 4-byte Spill
	b	.LBB11_1
.LBB11_1:                               @ =>This Inner Loop Header: Depth=1
	ldr	r0, [sp, #8]                    @ 4-byte Reload
	subs	r0, #80
	str	r0, [sp, #4]                    @ 4-byte Spill
	mov	r1, r0
	str	r1, [sp]                        @ 4-byte Spill
	bl	_ZN32OffboardThermistorCurrentLimiterD2Ev
	ldr	r0, [sp]                        @ 4-byte Reload
	ldr	r1, [sp, #4]                    @ 4-byte Reload
	movw	r2, :lower16:motor_thermistors
	movt	r2, :upper16:motor_thermistors
	cmp	r1, r2
	str	r0, [sp, #8]                    @ 4-byte Spill
	bne	.LBB11_1
	b	.LBB11_2
.LBB11_2:
	add	sp, #16
	pop	{r7, pc}
.Ltmp24:
.Lfunc_end11:
	.size	__cxx_global_array_dtor.5, .Lfunc_end11-__cxx_global_array_dtor.5
	.cfi_endproc
	.cantunwind
	.fnend
                                        @ -- End function
	.section	.text._ZN32OffboardThermistorCurrentLimiterD2Ev,"axG",%progbits,_ZN32OffboardThermistorCurrentLimiterD2Ev,comdat
	.hidden	_ZN32OffboardThermistorCurrentLimiterD2Ev @ -- Begin function _ZN32OffboardThermistorCurrentLimiterD2Ev
	.weak	_ZN32OffboardThermistorCurrentLimiterD2Ev
	.p2align	2
	.type	_ZN32OffboardThermistorCurrentLimiterD2Ev,%function
	.code	16                              @ @_ZN32OffboardThermistorCurrentLimiterD2Ev
	.thumb_func
_ZN32OffboardThermistorCurrentLimiterD2Ev:
.Lfunc_begin12:
	.loc	37 70 0                         @ ../../Firmware\MotorControl/thermistor.hpp:70:0
	.fnstart
	.cfi_startproc
@ %bb.0:
	.save	{r7, lr}
	push	{r7, lr}
	.cfi_def_cfa_offset 8
	.cfi_offset lr, -4
	.cfi_offset r7, -8
	.pad	#8
	sub	sp, #8
	.cfi_def_cfa_offset 16
	str	r0, [sp, #4]
	ldr	r0, [sp, #4]
.Ltmp25:
	.loc	37 70 57 prologue_end           @ ../../Firmware\MotorControl/thermistor.hpp:70:57
	str	r0, [sp]                        @ 4-byte Spill
	bl	_ZN24ThermistorCurrentLimiterD2Ev
	ldr	r0, [sp]                        @ 4-byte Reload
.Ltmp26:
	.loc	37 70 57 epilogue_begin is_stmt 0 @ ../../Firmware\MotorControl/thermistor.hpp:70:57
	add	sp, #8
	pop	{r7, pc}
.Ltmp27:
.Lfunc_end12:
	.size	_ZN32OffboardThermistorCurrentLimiterD2Ev, .Lfunc_end12-_ZN32OffboardThermistorCurrentLimiterD2Ev
	.cfi_endproc
	.cantunwind
	.fnend
                                        @ -- End function
	.section	.text.__cxx_global_var_init.6,"ax",%progbits
	.p2align	2                               @ -- Begin function __cxx_global_var_init.6
	.type	__cxx_global_var_init.6,%function
	.code	16                              @ @__cxx_global_var_init.6
	.thumb_func
__cxx_global_var_init.6:
.Lfunc_begin13:
	.loc	36 0 0 is_stmt 1                @ ../Board/v3\board.cpp:0:0
	.fnstart
	.cfi_startproc
@ %bb.0:
	.save	{r7, lr}
	push	{r7, lr}
	.cfi_def_cfa_offset 8
	.cfi_offset lr, -4
	.cfi_offset r7, -8
	.pad	#32
	sub	sp, #32
	.cfi_def_cfa_offset 40
.Ltmp28:
	.loc	3 76 5 prologue_end             @ ../Board/v3/board.cpp:76:5
	movw	r1, :lower16:motor_thermistors
	movt	r1, :upper16:motor_thermistors
	str	r1, [sp, #16]                   @ 4-byte Spill
	mov	r0, sp
	str	r1, [r0, #8]
	movw	r1, :lower16:fet_thermistors
	movt	r1, :upper16:fet_thermistors
	str	r1, [sp, #20]                   @ 4-byte Spill
	str	r1, [r0, #4]
	movw	r3, :lower16:m0_gate_driver
	movt	r3, :upper16:m0_gate_driver
	str	r3, [r0]
	movw	r0, :lower16:motors
	movt	r0, :upper16:motors
	str	r0, [sp, #12]                   @ 4-byte Spill
	movw	r1, :lower16:htim1
	movt	r1, :upper16:htim1
	movs	r2, #6
	str	r2, [sp, #24]                   @ 4-byte Spill
	vldr	s0, .LCPI13_0
	vstr	s0, [sp, #28]                   @ 4-byte Spill
	bl	_ZN5MotorC1EP17TIM_HandleTypeDefhfR7Drv8301S3_R31OnboardThermistorCurrentLimiterR32OffboardThermistorCurrentLimiter
	ldr	r0, [sp, #12]                   @ 4-byte Reload
	ldr	r1, [sp, #16]                   @ 4-byte Reload
	ldr	r3, [sp, #20]                   @ 4-byte Reload
	ldr	r2, [sp, #24]                   @ 4-byte Reload
	vldr	s0, [sp, #28]                   @ 4-byte Reload
	.loc	3 85 5                          @ ../Board/v3/board.cpp:85:5
	add.w	r12, r1, #80
	mov	r1, sp
	str.w	r12, [r1, #8]
	adds	r3, #56
	str	r3, [r1, #4]
	movw	r3, :lower16:m1_gate_driver
	movt	r3, :upper16:m1_gate_driver
	str	r3, [r1]
	add.w	r0, r0, #440
	movw	r1, :lower16:htim8
	movt	r1, :upper16:htim8
	bl	_ZN5MotorC1EP17TIM_HandleTypeDefhfR7Drv8301S3_R31OnboardThermistorCurrentLimiterR32OffboardThermistorCurrentLimiter
	.loc	3 92 27 epilogue_begin          @ ../Board/v3/board.cpp:92:27
	add	sp, #32
	pop	{r7, pc}
.Ltmp29:
	.p2align	2
@ %bb.1:
	.loc	3 0 27 is_stmt 0                @ ../Board/v3/board.cpp:0:27
.LCPI13_0:
	.long	0x44f9ffff                      @ float 1999.99988
.Lfunc_end13:
	.size	__cxx_global_var_init.6, .Lfunc_end13-__cxx_global_var_init.6
	.cfi_endproc
	.cantunwind
	.fnend
                                        @ -- End function
	.section	.text.__cxx_global_var_init.7,"ax",%progbits
	.p2align	2                               @ -- Begin function __cxx_global_var_init.7
	.type	__cxx_global_var_init.7,%function
	.code	16                              @ @__cxx_global_var_init.7
	.thumb_func
__cxx_global_var_init.7:
.Lfunc_begin14:
	.loc	36 0 0 is_stmt 1                @ ../Board/v3\board.cpp:0:0
	.fnstart
	.cfi_startproc
@ %bb.0:
	.save	{r4, r5, r6, r7, r8, lr}
	push.w	{r4, r5, r6, r7, r8, lr}
	.cfi_def_cfa_offset 24
	.cfi_offset lr, -4
	.cfi_offset r8, -8
	.cfi_offset r7, -12
	.cfi_offset r6, -16
	.cfi_offset r5, -20
	.cfi_offset r4, -24
	.pad	#112
	sub	sp, #112
	.cfi_def_cfa_offset 136
	add	r0, sp, #104
	movw	r1, #2048
	movt	r1, #16386
	str	r1, [sp, #36]                   @ 4-byte Spill
	mov.w	r2, #512
.Ltmp30:
	.loc	3 99 9 prologue_end             @ ../Board/v3/board.cpp:99:9
	str	r2, [sp, #28]                   @ 4-byte Spill
	bl	_ZN9Stm32GpioC2EP12GPIO_TypeDeft
	add	r0, sp, #96
	movw	r1, #1024
	movt	r1, #16386
	str	r1, [sp, #32]                   @ 4-byte Spill
	movs	r2, #16
	.loc	3 100 9                         @ ../Board/v3/board.cpp:100:9
	bl	_ZN9Stm32GpioC2EP12GPIO_TypeDeft
	ldr	r1, [sp, #32]                   @ 4-byte Reload
	add	r0, sp, #88
	movs	r2, #32
	.loc	3 101 9                         @ ../Board/v3/board.cpp:101:9
	bl	_ZN9Stm32GpioC2EP12GPIO_TypeDeft
	ldr	r2, [sp, #28]                   @ 4-byte Reload
	ldr	r1, [sp, #36]                   @ 4-byte Reload
	add	r0, sp, #80
	.loc	3 102 9                         @ ../Board/v3/board.cpp:102:9
	bl	_ZN9Stm32GpioC2EP12GPIO_TypeDeft
	.loc	3 97 5                          @ ../Board/v3/board.cpp:97:5
	ldr	r2, [sp, #104]
	ldr	r3, [sp, #108]
	ldr	r0, [sp, #96]
	ldr.w	r12, [sp, #100]
	ldr.w	lr, [sp, #88]
	ldr	r4, [sp, #92]
	ldr	r5, [sp, #80]
	ldr	r6, [sp, #84]
	movw	r8, :lower16:spi3_arbiter
	movt	r8, :upper16:spi3_arbiter
	mov	r1, sp
	str.w	r8, [r1, #24]
	str	r6, [r1, #20]
	str	r5, [r1, #16]
	str	r4, [r1, #12]
	str.w	lr, [r1, #8]
	str.w	r12, [r1, #4]
	str	r0, [r1]
	movw	r0, :lower16:encoders
	movt	r0, :upper16:encoders
	str	r0, [sp, #44]                   @ 4-byte Spill
	movw	r1, :lower16:htim3
	movt	r1, :upper16:htim3
	bl	_ZN7EncoderC1EP17TIM_HandleTypeDef9Stm32GpioS2_S2_S2_P15Stm32SpiArbiter
	ldr	r1, [sp, #36]                   @ 4-byte Reload
	add	r0, sp, #72
	mov.w	r2, #32768
	.loc	3 107 9                         @ ../Board/v3/board.cpp:107:9
	str	r2, [sp, #40]                   @ 4-byte Spill
	bl	_ZN9Stm32GpioC2EP12GPIO_TypeDeft
	ldr	r1, [sp, #32]                   @ 4-byte Reload
	add	r0, sp, #64
	movs	r2, #64
	.loc	3 108 9                         @ ../Board/v3/board.cpp:108:9
	bl	_ZN9Stm32GpioC2EP12GPIO_TypeDeft
	ldr	r1, [sp, #32]                   @ 4-byte Reload
	add	r0, sp, #56
	movs	r2, #128
	.loc	3 109 9                         @ ../Board/v3/board.cpp:109:9
	bl	_ZN9Stm32GpioC2EP12GPIO_TypeDeft
	ldr	r1, [sp, #36]                   @ 4-byte Reload
	ldr	r2, [sp, #40]                   @ 4-byte Reload
	add	r0, sp, #48
	.loc	3 110 9                         @ ../Board/v3/board.cpp:110:9
	bl	_ZN9Stm32GpioC2EP12GPIO_TypeDeft
	ldr	r0, [sp, #44]                   @ 4-byte Reload
	.loc	3 105 5                         @ ../Board/v3/board.cpp:105:5
	ldr	r2, [sp, #72]
	ldr	r3, [sp, #76]
	ldr	r1, [sp, #64]
	ldr.w	lr, [sp, #68]
	ldr	r4, [sp, #56]
	ldr	r5, [sp, #60]
	ldr	r6, [sp, #48]
	ldr	r7, [sp, #52]
	mov	r12, sp
	str.w	r8, [r12, #24]
	str.w	r7, [r12, #20]
	str.w	r6, [r12, #16]
	str.w	r5, [r12, #12]
	str.w	r4, [r12, #8]
	str.w	lr, [r12, #4]
	str.w	r1, [r12]
	add.w	r0, r0, #416
	movw	r1, :lower16:htim4
	movt	r1, :upper16:htim4
	bl	_ZN7EncoderC1EP17TIM_HandleTypeDef9Stm32GpioS2_S2_S2_P15Stm32SpiArbiter
	.loc	3 111 10 epilogue_begin         @ ../Board/v3/board.cpp:111:10
	add	sp, #112
	pop.w	{r4, r5, r6, r7, r8, pc}
.Ltmp31:
.Lfunc_end14:
	.size	__cxx_global_var_init.7, .Lfunc_end14-__cxx_global_var_init.7
	.cfi_endproc
	.cantunwind
	.fnend
                                        @ -- End function
	.section	.text.__cxx_global_var_init.8,"ax",%progbits
	.p2align	2                               @ -- Begin function __cxx_global_var_init.8
	.type	__cxx_global_var_init.8,%function
	.code	16                              @ @__cxx_global_var_init.8
	.thumb_func
__cxx_global_var_init.8:
.Lfunc_begin15:
	.loc	36 0 0                          @ ../Board/v3\board.cpp:0:0
	.fnstart
	.cfi_startproc
@ %bb.0:
	.save	{r7, lr}
	push	{r7, lr}
	.cfi_def_cfa_offset 8
	.cfi_offset lr, -4
	.cfi_offset r7, -8
	.pad	#8
	sub	sp, #8
	.cfi_def_cfa_offset 16
	movw	r0, :lower16:mechanical_brakes
	movt	r0, :upper16:mechanical_brakes
.Ltmp32:
	.loc	3 117 17 prologue_end           @ ../Board/v3/board.cpp:117:17
	str	r0, [sp, #4]                    @ 4-byte Spill
	b	.LBB15_1
.LBB15_1:                               @ =>This Inner Loop Header: Depth=1
	ldr	r0, [sp, #4]                    @ 4-byte Reload
	str	r0, [sp]                        @ 4-byte Spill
	bl	_ZN15MechanicalBrakeC2Ev
	ldr	r0, [sp]                        @ 4-byte Reload
	add.w	r1, r0, #16
	mov	r0, r1
	movw	r2, :lower16:mechanical_brakes
	movt	r2, :upper16:mechanical_brakes
	adds	r2, #32
	cmp	r1, r2
	str	r0, [sp, #4]                    @ 4-byte Spill
	bne	.LBB15_1
	b	.LBB15_2
.LBB15_2:
	.loc	3 117 17 epilogue_begin is_stmt 0 @ ../Board/v3/board.cpp:117:17
	add	sp, #8
	pop	{r7, pc}
.Ltmp33:
.Lfunc_end15:
	.size	__cxx_global_var_init.8, .Lfunc_end15-__cxx_global_var_init.8
	.cfi_endproc
	.cantunwind
	.fnend
                                        @ -- End function
	.section	.text._ZN15MechanicalBrakeC2Ev,"axG",%progbits,_ZN15MechanicalBrakeC2Ev,comdat
	.hidden	_ZN15MechanicalBrakeC2Ev        @ -- Begin function _ZN15MechanicalBrakeC2Ev
	.weak	_ZN15MechanicalBrakeC2Ev
	.p2align	2
	.type	_ZN15MechanicalBrakeC2Ev,%function
	.code	16                              @ @_ZN15MechanicalBrakeC2Ev
	.thumb_func
_ZN15MechanicalBrakeC2Ev:
.Lfunc_begin16:
	.loc	33 17 0 is_stmt 1               @ ../MotorControl\mechanical_brake.hpp:17:0
	.fnstart
	.cfi_startproc
@ %bb.0:
	.save	{r7, lr}
	push	{r7, lr}
	.cfi_def_cfa_offset 8
	.cfi_offset lr, -4
	.cfi_offset r7, -8
	.pad	#8
	sub	sp, #8
	.cfi_def_cfa_offset 16
	str	r0, [sp, #4]
	ldr	r0, [sp, #4]
.Ltmp34:
	.loc	33 17 5 prologue_end            @ ../MotorControl\mechanical_brake.hpp:17:5
	str	r0, [sp]                        @ 4-byte Spill
	bl	_ZN10ODriveIntf19MechanicalBrakeIntfC2Ev
	ldr	r0, [sp]                        @ 4-byte Reload
	.loc	33 17 23 is_stmt 0              @ ../MotorControl\mechanical_brake.hpp:17:23
	movw	r1, :lower16:_ZTV15MechanicalBrake
	movt	r1, :upper16:_ZTV15MechanicalBrake
	adds	r1, #8
	str	r1, [r0]
	.loc	33 17 5                         @ ../MotorControl\mechanical_brake.hpp:17:5
	adds	r0, #4
	bl	_ZN15MechanicalBrake8Config_tC2Ev
	ldr	r0, [sp]                        @ 4-byte Reload
	movs	r1, #0
	.loc	33 20 11 is_stmt 1              @ ../MotorControl\mechanical_brake.hpp:20:11
	str	r1, [r0, #12]
	.loc	33 17 24 epilogue_begin         @ ../MotorControl\mechanical_brake.hpp:17:24
	add	sp, #8
	pop	{r7, pc}
.Ltmp35:
.Lfunc_end16:
	.size	_ZN15MechanicalBrakeC2Ev, .Lfunc_end16-_ZN15MechanicalBrakeC2Ev
	.cfi_endproc
	.cantunwind
	.fnend
                                        @ -- End function
	.section	.text.__cxx_global_var_init.9,"ax",%progbits
	.p2align	2                               @ -- Begin function __cxx_global_var_init.9
	.type	__cxx_global_var_init.9,%function
	.code	16                              @ @__cxx_global_var_init.9
	.thumb_func
__cxx_global_var_init.9:
.Lfunc_begin17:
	.loc	36 0 0                          @ ../Board/v3\board.cpp:0:0
	.fnstart
	.cfi_startproc
@ %bb.0:
	.save	{r7, lr}
	push	{r7, lr}
	.cfi_def_cfa_offset 8
	.cfi_offset lr, -4
	.cfi_offset r7, -8
	.pad	#8
	sub	sp, #8
	.cfi_def_cfa_offset 16
	movw	r0, :lower16:sensorless_estimators
	movt	r0, :upper16:sensorless_estimators
.Ltmp36:
	.loc	3 119 21 prologue_end           @ ../Board/v3/board.cpp:119:21
	str	r0, [sp, #4]                    @ 4-byte Spill
	b	.LBB17_1
.LBB17_1:                               @ =>This Inner Loop Header: Depth=1
	ldr	r0, [sp, #4]                    @ 4-byte Reload
	str	r0, [sp]                        @ 4-byte Spill
	bl	_ZN19SensorlessEstimatorC2Ev
	ldr	r0, [sp]                        @ 4-byte Reload
	add.w	r1, r0, #64
	mov	r0, r1
	movw	r2, :lower16:sensorless_estimators
	movt	r2, :upper16:sensorless_estimators
	adds	r2, #128
	cmp	r1, r2
	str	r0, [sp, #4]                    @ 4-byte Spill
	bne	.LBB17_1
	b	.LBB17_2
.LBB17_2:
	.loc	3 119 21 epilogue_begin is_stmt 0 @ ../Board/v3/board.cpp:119:21
	add	sp, #8
	pop	{r7, pc}
.Ltmp37:
.Lfunc_end17:
	.size	__cxx_global_var_init.9, .Lfunc_end17-__cxx_global_var_init.9
	.cfi_endproc
	.cantunwind
	.fnend
                                        @ -- End function
	.section	.text._ZN19SensorlessEstimatorC2Ev,"axG",%progbits,_ZN19SensorlessEstimatorC2Ev,comdat
	.hidden	_ZN19SensorlessEstimatorC2Ev    @ -- Begin function _ZN19SensorlessEstimatorC2Ev
	.weak	_ZN19SensorlessEstimatorC2Ev
	.p2align	2
	.type	_ZN19SensorlessEstimatorC2Ev,%function
	.code	16                              @ @_ZN19SensorlessEstimatorC2Ev
	.thumb_func
_ZN19SensorlessEstimatorC2Ev:
.Lfunc_begin18:
	.loc	16 6 0 is_stmt 1                @ ../MotorControl\sensorless_estimator.hpp:6:0
	.fnstart
	.cfi_startproc
@ %bb.0:
	.save	{r7, lr}
	push	{r7, lr}
	.cfi_def_cfa_offset 8
	.cfi_offset lr, -4
	.cfi_offset r7, -8
	.pad	#16
	sub	sp, #16
	.cfi_def_cfa_offset 24
	str	r0, [sp, #12]
	ldr	r0, [sp, #12]
	str	r0, [sp, #8]                    @ 4-byte Spill
	movs	r1, #0
.Ltmp38:
	.loc	16 17 11 prologue_end           @ ../MotorControl\sensorless_estimator.hpp:17:11
	str	r1, [sp]                        @ 4-byte Spill
	str	r1, [r0]
	.loc	16 6 7                          @ ../MotorControl\sensorless_estimator.hpp:6:7
	adds	r0, #4
	bl	_ZN19SensorlessEstimator8Config_tC2Ev
	ldr	r0, [sp, #8]                    @ 4-byte Reload
	ldr	r1, [sp]                        @ 4-byte Reload
	.loc	16 21 11                        @ ../MotorControl\sensorless_estimator.hpp:21:11
	strb	r1, [r0, #16]
	.loc	16 22 11                        @ ../MotorControl\sensorless_estimator.hpp:22:11
	str	r1, [r0, #20]
	.loc	16 23 28                        @ ../MotorControl\sensorless_estimator.hpp:23:28
	str	r1, [r0, #24]
	str	r1, [r0, #28]
	.loc	16 24 37                        @ ../MotorControl\sensorless_estimator.hpp:24:37
	str	r1, [r0, #32]
	str	r1, [r0, #36]
	.loc	16 26 23                        @ ../MotorControl\sensorless_estimator.hpp:26:23
	adds	r0, #40
	vldr	s0, .LCPI18_0
	vstr	s0, [sp, #4]                    @ 4-byte Spill
	.loc	16 26 32 is_stmt 0              @ ../MotorControl\sensorless_estimator.hpp:26:32
	bl	_ZN10OutputPortIfEC2Ef
	ldr	r0, [sp, #8]                    @ 4-byte Reload
	vldr	s0, [sp, #4]                    @ 4-byte Reload
	.loc	16 27 23 is_stmt 1              @ ../MotorControl\sensorless_estimator.hpp:27:23
	adds	r0, #48
	.loc	16 27 36 is_stmt 0              @ ../MotorControl\sensorless_estimator.hpp:27:36
	bl	_ZN10OutputPortIfEC2Ef
	ldr	r0, [sp, #8]                    @ 4-byte Reload
	vldr	s0, [sp, #4]                    @ 4-byte Reload
	.loc	16 28 23 is_stmt 1              @ ../MotorControl\sensorless_estimator.hpp:28:23
	adds	r0, #56
	.loc	16 28 39 is_stmt 0              @ ../MotorControl\sensorless_estimator.hpp:28:39
	bl	_ZN10OutputPortIfEC2Ef
	ldr	r0, [sp, #8]                    @ 4-byte Reload
	.loc	16 6 7 epilogue_begin is_stmt 1 @ ../MotorControl\sensorless_estimator.hpp:6:7
	add	sp, #16
	pop	{r7, pc}
.Ltmp39:
	.p2align	2
@ %bb.1:
	.loc	16 0 7 is_stmt 0                @ ../MotorControl\sensorless_estimator.hpp:0:7
.LCPI18_0:
	.long	0x00000000                      @ float 0
.Lfunc_end18:
	.size	_ZN19SensorlessEstimatorC2Ev, .Lfunc_end18-_ZN19SensorlessEstimatorC2Ev
	.cfi_endproc
	.cantunwind
	.fnend
                                        @ -- End function
	.section	.text.__cxx_global_var_init.10,"ax",%progbits
	.p2align	2                               @ -- Begin function __cxx_global_var_init.10
	.type	__cxx_global_var_init.10,%function
	.code	16                              @ @__cxx_global_var_init.10
	.thumb_func
__cxx_global_var_init.10:
.Lfunc_begin19:
	.loc	36 0 0 is_stmt 1                @ ../Board/v3\board.cpp:0:0
	.fnstart
	.cfi_startproc
@ %bb.0:
	.save	{r7, lr}
	push	{r7, lr}
	.cfi_def_cfa_offset 8
	.cfi_offset lr, -4
	.cfi_offset r7, -8
	.pad	#8
	sub	sp, #8
	.cfi_def_cfa_offset 16
	movw	r0, :lower16:controllers
	movt	r0, :upper16:controllers
.Ltmp40:
	.loc	3 120 12 prologue_end           @ ../Board/v3/board.cpp:120:12
	str	r0, [sp, #4]                    @ 4-byte Spill
	b	.LBB19_1
.LBB19_1:                               @ =>This Inner Loop Header: Depth=1
	ldr	r0, [sp, #4]                    @ 4-byte Reload
	str	r0, [sp]                        @ 4-byte Spill
	bl	_ZN10ControllerC2Ev
	ldr	r0, [sp]                        @ 4-byte Reload
	movw	r1, #14692
	add	r1, r0
	mov	r0, r1
	movw	r2, :lower16:controllers
	movt	r2, :upper16:controllers
	movw	r3, #29384
	add	r2, r3
	cmp	r1, r2
	str	r0, [sp, #4]                    @ 4-byte Spill
	bne	.LBB19_1
	b	.LBB19_2
.LBB19_2:
	.loc	3 120 12 epilogue_begin is_stmt 0 @ ../Board/v3/board.cpp:120:12
	add	sp, #8
	pop	{r7, pc}
.Ltmp41:
.Lfunc_end19:
	.size	__cxx_global_var_init.10, .Lfunc_end19-__cxx_global_var_init.10
	.cfi_endproc
	.cantunwind
	.fnend
                                        @ -- End function
	.section	.text._ZN10ControllerC2Ev,"axG",%progbits,_ZN10ControllerC2Ev,comdat
	.hidden	_ZN10ControllerC2Ev             @ -- Begin function _ZN10ControllerC2Ev
	.weak	_ZN10ControllerC2Ev
	.p2align	2
	.type	_ZN10ControllerC2Ev,%function
	.code	16                              @ @_ZN10ControllerC2Ev
	.thumb_func
_ZN10ControllerC2Ev:
.Lfunc_begin20:
	.loc	34 4 0 is_stmt 1                @ ../MotorControl\controller.hpp:4:0
	.fnstart
	.cfi_startproc
@ %bb.0:
	.save	{r7, lr}
	push	{r7, lr}
	.cfi_def_cfa_offset 8
	.cfi_offset lr, -4
	.cfi_offset r7, -8
	.pad	#16
	sub	sp, #16
	.cfi_def_cfa_offset 24
	str	r0, [sp, #12]
	ldr	r0, [sp, #12]
.Ltmp42:
	.loc	34 4 7 prologue_end             @ ../MotorControl\controller.hpp:4:7
	str	r0, [sp, #8]                    @ 4-byte Spill
	bl	_ZN10ODriveIntf14ControllerIntfC2Ev
	ldr	r0, [sp, #8]                    @ 4-byte Reload
	movw	r1, :lower16:_ZTV10Controller
	movt	r1, :upper16:_ZTV10Controller
	adds	r1, #8
	str	r1, [r0], #24
	bl	_ZN10Controller8Config_tC2Ev
	ldr	r0, [sp, #8]                    @ 4-byte Reload
	movw	r2, #14564
	movs	r1, #0
	.loc	34 99 11                        @ ../MotorControl\controller.hpp:99:11
	str	r1, [sp, #4]                    @ 4-byte Spill
	str	r1, [r0, r2]
	movw	r2, #14568
	.loc	34 101 11                       @ ../MotorControl\controller.hpp:101:11
	strh	r1, [r0, r2]
	movw	r2, #14572
	.loc	34 102 11                       @ ../MotorControl\controller.hpp:102:11
	str	r1, [r0, r2]
	movw	r1, #14576
	.loc	34 4 7                          @ ../MotorControl\controller.hpp:4:7
	add	r0, r1
	bl	_ZN9InputPortIfEC2Ev
	ldr	r0, [sp, #8]                    @ 4-byte Reload
	movw	r1, #14584
	add	r0, r1
	bl	_ZN9InputPortIfEC2Ev
	ldr	r0, [sp, #8]                    @ 4-byte Reload
	add.w	r0, r0, #14592
	bl	_ZN9InputPortIfEC2Ev
	ldr	r0, [sp, #8]                    @ 4-byte Reload
	movw	r1, #14600
	add	r0, r1
	bl	_ZN9InputPortIfEC2Ev
	ldr	r0, [sp, #8]                    @ 4-byte Reload
	ldr	r1, [sp, #4]                    @ 4-byte Reload
	movw	r2, #14608
	.loc	34 110 11                       @ ../MotorControl\controller.hpp:110:11
	str	r1, [r0, r2]
	movw	r2, #14612
	.loc	34 111 11                       @ ../MotorControl\controller.hpp:111:11
	str	r1, [r0, r2]
	movw	r2, #14616
	.loc	34 113 11                       @ ../MotorControl\controller.hpp:113:11
	str	r1, [r0, r2]
	movw	r2, #14620
	.loc	34 114 11                       @ ../MotorControl\controller.hpp:114:11
	str	r1, [r0, r2]
	movw	r2, #14624
	.loc	34 116 11                       @ ../MotorControl\controller.hpp:116:11
	str	r1, [r0, r2]
	movw	r2, #14628
	.loc	34 117 11                       @ ../MotorControl\controller.hpp:117:11
	str	r1, [r0, r2]
	movw	r2, #14632
	.loc	34 118 11                       @ ../MotorControl\controller.hpp:118:11
	str	r1, [r0, r2]
	movw	r2, #14636
	.loc	34 119 11                       @ ../MotorControl\controller.hpp:119:11
	str	r1, [r0, r2]
	movw	r2, #14640
	.loc	34 120 11                       @ ../MotorControl\controller.hpp:120:11
	str	r1, [r0, r2]
	movw	r1, #14644
	.loc	34 4 7                          @ ../MotorControl\controller.hpp:4:7
	add	r0, r1
	bl	_ZN10Controller12Autotuning_tC2Ev
	ldr	r0, [sp, #8]                    @ 4-byte Reload
	ldr	r1, [sp, #4]                    @ 4-byte Reload
	movw	r2, #14660
	.loc	34 123 11                       @ ../MotorControl\controller.hpp:123:11
	str	r1, [r0, r2]
	movw	r2, #14664
	.loc	34 125 10                       @ ../MotorControl\controller.hpp:125:10
	strb	r1, [r0, r2]
	movw	r3, #14665
	movs	r2, #1
	.loc	34 127 10                       @ ../MotorControl\controller.hpp:127:10
	strb	r2, [r0, r3]
	movw	r2, #14666
	.loc	34 129 10                       @ ../MotorControl\controller.hpp:129:10
	strb	r1, [r0, r2]
	movw	r2, #14668
	.loc	34 130 11                       @ ../MotorControl\controller.hpp:130:11
	str	r1, [r0, r2]
	movw	r2, #14672
	.loc	34 131 11                       @ ../MotorControl\controller.hpp:131:11
	str	r1, [r0, r2]
	movw	r1, #14684
	.loc	34 137 23                       @ ../MotorControl\controller.hpp:137:23
	add	r0, r1
	vldr	s0, .LCPI20_0
	.loc	34 137 40 is_stmt 0             @ ../MotorControl\controller.hpp:137:40
	bl	_ZN10OutputPortIfEC2Ef
	ldr	r0, [sp, #8]                    @ 4-byte Reload
	.loc	34 4 7 epilogue_begin is_stmt 1 @ ../MotorControl\controller.hpp:4:7
	add	sp, #16
	pop	{r7, pc}
.Ltmp43:
	.p2align	2
@ %bb.1:
	.loc	34 0 7 is_stmt 0                @ ../MotorControl\controller.hpp:0:7
.LCPI20_0:
	.long	0x00000000                      @ float 0
.Lfunc_end20:
	.size	_ZN10ControllerC2Ev, .Lfunc_end20-_ZN10ControllerC2Ev
	.cfi_endproc
	.cantunwind
	.fnend
                                        @ -- End function
	.section	.text.__cxx_global_var_init.11,"ax",%progbits
	.p2align	2                               @ -- Begin function __cxx_global_var_init.11
	.type	__cxx_global_var_init.11,%function
	.code	16                              @ @__cxx_global_var_init.11
	.thumb_func
__cxx_global_var_init.11:
.Lfunc_begin21:
	.loc	36 0 0 is_stmt 1                @ ../Board/v3\board.cpp:0:0
	.fnstart
	.cfi_startproc
@ %bb.0:
	.save	{r7, lr}
	push	{r7, lr}
	.cfi_def_cfa_offset 8
	.cfi_offset lr, -4
	.cfi_offset r7, -8
	.pad	#8
	sub	sp, #8
	.cfi_def_cfa_offset 16
	movw	r0, :lower16:trap
	movt	r0, :upper16:trap
.Ltmp44:
	.loc	3 121 23 prologue_end           @ ../Board/v3/board.cpp:121:23
	str	r0, [sp, #4]                    @ 4-byte Spill
	b	.LBB21_1
.LBB21_1:                               @ =>This Inner Loop Header: Depth=1
	ldr	r0, [sp, #4]                    @ 4-byte Reload
	str	r0, [sp]                        @ 4-byte Spill
	bl	_ZN21TrapezoidalTrajectoryC2Ev
	ldr	r0, [sp]                        @ 4-byte Reload
	add.w	r1, r0, #64
	mov	r0, r1
	movw	r2, :lower16:trap
	movt	r2, :upper16:trap
	adds	r2, #128
	cmp	r1, r2
	str	r0, [sp, #4]                    @ 4-byte Spill
	bne	.LBB21_1
	b	.LBB21_2
.LBB21_2:
	.loc	3 121 23 epilogue_begin is_stmt 0 @ ../Board/v3/board.cpp:121:23
	add	sp, #8
	pop	{r7, pc}
.Ltmp45:
.Lfunc_end21:
	.size	__cxx_global_var_init.11, .Lfunc_end21-__cxx_global_var_init.11
	.cfi_endproc
	.cantunwind
	.fnend
                                        @ -- End function
	.section	.text._ZN21TrapezoidalTrajectoryC2Ev,"axG",%progbits,_ZN21TrapezoidalTrajectoryC2Ev,comdat
	.hidden	_ZN21TrapezoidalTrajectoryC2Ev  @ -- Begin function _ZN21TrapezoidalTrajectoryC2Ev
	.weak	_ZN21TrapezoidalTrajectoryC2Ev
	.p2align	2
	.type	_ZN21TrapezoidalTrajectoryC2Ev,%function
	.code	16                              @ @_ZN21TrapezoidalTrajectoryC2Ev
	.thumb_func
_ZN21TrapezoidalTrajectoryC2Ev:
.Lfunc_begin22:
	.loc	21 4 0 is_stmt 1                @ ../MotorControl\trapTraj.hpp:4:0
	.fnstart
	.cfi_startproc
@ %bb.0:
	.save	{r7, lr}
	push	{r7, lr}
	.cfi_def_cfa_offset 8
	.cfi_offset lr, -4
	.cfi_offset r7, -8
	.pad	#8
	sub	sp, #8
	.cfi_def_cfa_offset 16
	str	r0, [sp, #4]
	ldr	r0, [sp, #4]
	str	r0, [sp]                        @ 4-byte Spill
	movs	r1, #0
.Ltmp46:
	.loc	21 22 11 prologue_end           @ ../MotorControl\trapTraj.hpp:22:11
	str	r1, [r0], #4
	.loc	21 4 7                          @ ../MotorControl\trapTraj.hpp:4:7
	bl	_ZN21TrapezoidalTrajectory8Config_tC2Ev
	ldr	r0, [sp]                        @ 4-byte Reload
	.loc	21 4 7 epilogue_begin is_stmt 0 @ ../MotorControl\trapTraj.hpp:4:7
	add	sp, #8
	pop	{r7, pc}
.Ltmp47:
.Lfunc_end22:
	.size	_ZN21TrapezoidalTrajectoryC2Ev, .Lfunc_end22-_ZN21TrapezoidalTrajectoryC2Ev
	.cfi_endproc
	.cantunwind
	.fnend
                                        @ -- End function
	.section	.text.__cxx_global_var_init.12,"ax",%progbits
	.p2align	2                               @ -- Begin function __cxx_global_var_init.12
	.type	__cxx_global_var_init.12,%function
	.code	16                              @ @__cxx_global_var_init.12
	.thumb_func
__cxx_global_var_init.12:
.Lfunc_begin23:
	.loc	36 0 0 is_stmt 1                @ ../Board/v3\board.cpp:0:0
	.fnstart
	.cfi_startproc
@ %bb.0:
	.save	{r4, r5, r6, r7, r8, lr}
	push.w	{r4, r5, r6, r7, r8, lr}
	.cfi_def_cfa_offset 24
	.cfi_offset lr, -4
	.cfi_offset r8, -8
	.cfi_offset r7, -12
	.cfi_offset r6, -16
	.cfi_offset r5, -20
	.cfi_offset r4, -24
	.pad	#64
	sub	sp, #64
	.cfi_def_cfa_offset 88
.Ltmp48:
	.loc	3 124 5 prologue_end            @ ../Board/v3/board.cpp:124:5
	movw	r0, :lower16:mechanical_brakes
	movt	r0, :upper16:mechanical_brakes
	str	r0, [sp, #44]                   @ 4-byte Spill
	mov	r1, sp
	str	r0, [r1, #32]
	movw	r7, :lower16:endstops
	movt	r7, :upper16:endstops
	add.w	r0, r7, #44
	str	r0, [r1, #28]
	str	r7, [r1, #24]
	movw	r6, :lower16:trap
	movt	r6, :upper16:trap
	str	r6, [r1, #20]
	movw	r5, :lower16:motors
	movt	r5, :upper16:motors
	str	r5, [r1, #16]
	movw	r4, :lower16:controllers
	movt	r4, :upper16:controllers
	str	r4, [r1, #12]
	movw	r0, :lower16:sensorless_estimators
	movt	r0, :upper16:sensorless_estimators
	str	r0, [sp, #60]                   @ 4-byte Spill
	str	r0, [r1, #8]
	movw	r0, :lower16:encoders
	movt	r0, :upper16:encoders
	str	r0, [sp, #48]                   @ 4-byte Spill
	str	r0, [r1, #4]
	movs	r0, #3
	str	r0, [r1]
	movw	r0, :lower16:axes
	movt	r0, :upper16:axes
	str	r0, [sp, #40]                   @ 4-byte Spill
	movs	r1, #0
	movs	r2, #1
	str	r2, [sp, #56]                   @ 4-byte Spill
	movs	r3, #2
	str	r3, [sp, #52]                   @ 4-byte Spill
	bl	_ZN4AxisC1Eitt10osPriorityR7EncoderR19SensorlessEstimatorR10ControllerR5MotorR21TrapezoidalTrajectoryR7EndstopSC_R15MechanicalBrake
	ldr	r0, [sp, #40]                   @ 4-byte Reload
	ldr	r3, [sp, #44]                   @ 4-byte Reload
	ldr.w	r12, [sp, #48]                  @ 4-byte Reload
	ldr	r2, [sp, #52]                   @ 4-byte Reload
	ldr	r1, [sp, #56]                   @ 4-byte Reload
	ldr.w	lr, [sp, #60]                   @ 4-byte Reload
	.loc	3 137 5                         @ ../Board/v3/board.cpp:137:5
	add.w	r8, r3, #16
	mov	r3, sp
	str.w	r8, [r3, #32]
	add.w	r8, r7, #132
	str.w	r8, [r3, #28]
	adds	r7, #88
	str	r7, [r3, #24]
	adds	r6, #64
	str	r6, [r3, #20]
	add.w	r5, r5, #440
	str	r5, [r3, #16]
	movw	r5, #14692
	add	r4, r5
	str	r4, [r3, #12]
	add.w	lr, lr, #64
	str.w	lr, [r3, #8]
	add.w	r12, r12, #416
	str.w	r12, [r3, #4]
	str	r2, [r3]
	add.w	r0, r0, #696
	movs	r2, #7
	movs	r3, #8
	bl	_ZN4AxisC1Eitt10osPriorityR7EncoderR19SensorlessEstimatorR10ControllerR5MotorR21TrapezoidalTrajectoryR7EndstopSC_R15MechanicalBrake
	.loc	3 153 27 epilogue_begin         @ ../Board/v3/board.cpp:153:27
	add	sp, #64
	pop.w	{r4, r5, r6, r7, r8, pc}
.Ltmp49:
.Lfunc_end23:
	.size	__cxx_global_var_init.12, .Lfunc_end23-__cxx_global_var_init.12
	.cfi_endproc
	.cantunwind
	.fnend
                                        @ -- End function
	.section	.text.__cxx_global_var_init.13,"ax",%progbits
	.p2align	2                               @ -- Begin function __cxx_global_var_init.13
	.type	__cxx_global_var_init.13,%function
	.code	16                              @ @__cxx_global_var_init.13
	.thumb_func
__cxx_global_var_init.13:
.Lfunc_begin24:
	.loc	36 0 0                          @ ../Board/v3\board.cpp:0:0
	.fnstart
	.cfi_startproc
@ %bb.0:
	.save	{r7, lr}
	push	{r7, lr}
	.cfi_def_cfa_offset 8
	.cfi_offset lr, -4
	.cfi_offset r7, -8
	.pad	#40
	sub	sp, #40
	.cfi_def_cfa_offset 48
.Ltmp50:
	.loc	3 205 5 prologue_end            @ ../Board/v3/board.cpp:205:5
	movw	r0, :lower16:gpios
	movt	r0, :upper16:gpios
	str	r0, [sp, #28]                   @ 4-byte Spill
	movs	r2, #0
	mov	r1, r2
	bl	_ZN9Stm32GpioC2EP12GPIO_TypeDeft
	ldr	r0, [sp, #28]                   @ 4-byte Reload
	.loc	3 207 5                         @ ../Board/v3/board.cpp:207:5
	adds	r0, #8
	movs	r1, #0
	movt	r1, #16386
	str	r1, [sp, #8]                    @ 4-byte Spill
	movs	r2, #1
	bl	_ZN9Stm32GpioC2EP12GPIO_TypeDeft
	ldr	r0, [sp, #28]                   @ 4-byte Reload
	ldr	r1, [sp, #8]                    @ 4-byte Reload
	.loc	3 208 5                         @ ../Board/v3/board.cpp:208:5
	adds	r0, #16
	movs	r2, #2
	bl	_ZN9Stm32GpioC2EP12GPIO_TypeDeft
	ldr	r0, [sp, #28]                   @ 4-byte Reload
	ldr	r1, [sp, #8]                    @ 4-byte Reload
	.loc	3 209 5                         @ ../Board/v3/board.cpp:209:5
	adds	r0, #24
	movs	r2, #4
	str	r2, [sp, #4]                    @ 4-byte Spill
	bl	_ZN9Stm32GpioC2EP12GPIO_TypeDeft
	ldr	r0, [sp, #28]                   @ 4-byte Reload
	ldr	r1, [sp, #8]                    @ 4-byte Reload
	.loc	3 210 5                         @ ../Board/v3/board.cpp:210:5
	adds	r0, #32
	movs	r2, #8
	str	r2, [sp, #12]                   @ 4-byte Spill
	bl	_ZN9Stm32GpioC2EP12GPIO_TypeDeft
	ldr	r0, [sp, #28]                   @ 4-byte Reload
	.loc	3 211 5                         @ ../Board/v3/board.cpp:211:5
	adds	r0, #40
	movw	r1, #2048
	movt	r1, #16386
	str	r1, [sp, #20]                   @ 4-byte Spill
	movs	r2, #16
	str	r2, [sp, #16]                   @ 4-byte Spill
	bl	_ZN9Stm32GpioC2EP12GPIO_TypeDeft
	ldr	r0, [sp, #28]                   @ 4-byte Reload
	ldr	r2, [sp, #4]                    @ 4-byte Reload
	.loc	3 212 5                         @ ../Board/v3/board.cpp:212:5
	adds	r0, #48
	movw	r1, #1024
	movt	r1, #16386
	str	r1, [sp, #32]                   @ 4-byte Spill
	bl	_ZN9Stm32GpioC2EP12GPIO_TypeDeft
	ldr	r0, [sp, #28]                   @ 4-byte Reload
	ldr	r1, [sp, #8]                    @ 4-byte Reload
	.loc	3 213 5                         @ ../Board/v3/board.cpp:213:5
	adds	r0, #56
	mov.w	r2, #32768
	str	r2, [sp, #24]                   @ 4-byte Spill
	bl	_ZN9Stm32GpioC2EP12GPIO_TypeDeft
	ldr	r0, [sp, #28]                   @ 4-byte Reload
	ldr	r2, [sp, #12]                   @ 4-byte Reload
	ldr	r1, [sp, #32]                   @ 4-byte Reload
	.loc	3 214 5                         @ ../Board/v3/board.cpp:214:5
	adds	r0, #64
	bl	_ZN9Stm32GpioC2EP12GPIO_TypeDeft
	ldr	r0, [sp, #28]                   @ 4-byte Reload
	ldr	r2, [sp, #16]                   @ 4-byte Reload
	ldr	r1, [sp, #32]                   @ 4-byte Reload
	.loc	3 216 5                         @ ../Board/v3/board.cpp:216:5
	adds	r0, #72
	bl	_ZN9Stm32GpioC2EP12GPIO_TypeDeft
	ldr	r0, [sp, #28]                   @ 4-byte Reload
	ldr	r1, [sp, #32]                   @ 4-byte Reload
	.loc	3 217 5                         @ ../Board/v3/board.cpp:217:5
	adds	r0, #80
	movs	r2, #32
	bl	_ZN9Stm32GpioC2EP12GPIO_TypeDeft
	ldr	r0, [sp, #28]                   @ 4-byte Reload
	ldr	r1, [sp, #20]                   @ 4-byte Reload
	.loc	3 218 5                         @ ../Board/v3/board.cpp:218:5
	adds	r0, #88
	mov.w	r2, #512
	str	r2, [sp, #36]                   @ 4-byte Spill
	bl	_ZN9Stm32GpioC2EP12GPIO_TypeDeft
	ldr	r0, [sp, #28]                   @ 4-byte Reload
	ldr	r1, [sp, #32]                   @ 4-byte Reload
	.loc	3 219 5                         @ ../Board/v3/board.cpp:219:5
	adds	r0, #96
	movs	r2, #64
	bl	_ZN9Stm32GpioC2EP12GPIO_TypeDeft
	ldr	r0, [sp, #28]                   @ 4-byte Reload
	ldr	r1, [sp, #32]                   @ 4-byte Reload
	.loc	3 220 5                         @ ../Board/v3/board.cpp:220:5
	adds	r0, #104
	movs	r2, #128
	bl	_ZN9Stm32GpioC2EP12GPIO_TypeDeft
	ldr	r0, [sp, #28]                   @ 4-byte Reload
	ldr	r1, [sp, #20]                   @ 4-byte Reload
	ldr	r2, [sp, #24]                   @ 4-byte Reload
	.loc	3 221 5                         @ ../Board/v3/board.cpp:221:5
	adds	r0, #112
	bl	_ZN9Stm32GpioC2EP12GPIO_TypeDeft
	ldr	r0, [sp, #28]                   @ 4-byte Reload
	ldr	r1, [sp, #32]                   @ 4-byte Reload
	.loc	3 222 5                         @ ../Board/v3/board.cpp:222:5
	adds	r0, #120
	mov.w	r2, #256
	bl	_ZN9Stm32GpioC2EP12GPIO_TypeDeft
	ldr	r0, [sp, #28]                   @ 4-byte Reload
	ldr	r1, [sp, #32]                   @ 4-byte Reload
	ldr	r2, [sp, #36]                   @ 4-byte Reload
	.loc	3 223 5                         @ ../Board/v3/board.cpp:223:5
	adds	r0, #128
	bl	_ZN9Stm32GpioC2EP12GPIO_TypeDeft
	.loc	3 223 13 epilogue_begin is_stmt 0 @ ../Board/v3/board.cpp:223:13
	add	sp, #40
	pop	{r7, pc}
.Ltmp51:
.Lfunc_end24:
	.size	__cxx_global_var_init.13, .Lfunc_end24-__cxx_global_var_init.13
	.cfi_endproc
	.cantunwind
	.fnend
                                        @ -- End function
	.section	.text.__cxx_global_var_init.14,"ax",%progbits
	.p2align	2                               @ -- Begin function __cxx_global_var_init.14
	.type	__cxx_global_var_init.14,%function
	.code	16                              @ @__cxx_global_var_init.14
	.thumb_func
__cxx_global_var_init.14:
.Lfunc_begin25:
	.loc	36 0 0 is_stmt 1                @ ../Board/v3\board.cpp:0:0
	.fnstart
	.cfi_startproc
@ %bb.0:
	.save	{r7, lr}
	push	{r7, lr}
	.cfi_def_cfa_offset 8
	.cfi_offset lr, -4
	.cfi_offset r7, -8
	.pad	#8
	sub	sp, #8
	.cfi_def_cfa_offset 16
	movs	r0, #1
.Ltmp52:
	.loc	3 260 30 prologue_end           @ ../Board/v3/board.cpp:260:30
	strh.w	r0, [sp]
	movs	r0, #2
	strh.w	r0, [sp, #2]
	movs	r0, #3
	strh.w	r0, [sp, #4]
	movs	r0, #4
	strh.w	r0, [sp, #6]
	.loc	3 260 10 is_stmt 0              @ ../Board/v3/board.cpp:260:10
	ldr	r2, [sp]
	ldr	r3, [sp, #4]
	movw	r0, :lower16:pwm0_input
	movt	r0, :upper16:pwm0_input
	movw	r1, :lower16:htim5
	movt	r1, :upper16:htim5
	bl	_ZN8PwmInputC2EP17TIM_HandleTypeDefNSt3__25arrayItLj4EEE
	.loc	3 260 39 epilogue_begin         @ ../Board/v3/board.cpp:260:39
	add	sp, #8
	pop	{r7, pc}
.Ltmp53:
.Lfunc_end25:
	.size	__cxx_global_var_init.14, .Lfunc_end25-__cxx_global_var_init.14
	.cfi_endproc
	.cantunwind
	.fnend
                                        @ -- End function
	.section	.text._ZN8PwmInputC2EP17TIM_HandleTypeDefNSt3__25arrayItLj4EEE,"axG",%progbits,_ZN8PwmInputC2EP17TIM_HandleTypeDefNSt3__25arrayItLj4EEE,comdat
	.hidden	_ZN8PwmInputC2EP17TIM_HandleTypeDefNSt3__25arrayItLj4EEE @ -- Begin function _ZN8PwmInputC2EP17TIM_HandleTypeDefNSt3__25arrayItLj4EEE
	.weak	_ZN8PwmInputC2EP17TIM_HandleTypeDefNSt3__25arrayItLj4EEE
	.p2align	2
	.type	_ZN8PwmInputC2EP17TIM_HandleTypeDefNSt3__25arrayItLj4EEE,%function
	.code	16                              @ @_ZN8PwmInputC2EP17TIM_HandleTypeDefNSt3__25arrayItLj4EEE
	.thumb_func
_ZN8PwmInputC2EP17TIM_HandleTypeDefNSt3__25arrayItLj4EEE:
.Lfunc_begin26:
	.loc	25 10 0 is_stmt 1               @ ../../Firmware\MotorControl/pwm_input.hpp:10:0
	.fnstart
	.cfi_startproc
@ %bb.0:
	.pad	#16
	sub	sp, #16
	.cfi_def_cfa_offset 16
                                        @ kill: def $r12 killed $r3
                                        @ kill: def $r12 killed $r2
	str	r3, [sp, #12]
	str	r2, [sp, #8]
	str	r0, [sp, #4]
	str	r1, [sp]
	ldr	r0, [sp, #4]
.Ltmp54:
	.loc	25 10 21 prologue_end           @ ../../Firmware\MotorControl/pwm_input.hpp:10:21
	ldr	r1, [sp]
	.loc	25 10 15 is_stmt 0              @ ../../Firmware\MotorControl/pwm_input.hpp:10:15
	str	r1, [r0]
	.loc	25 10 28                        @ ../../Firmware\MotorControl/pwm_input.hpp:10:28
	ldr	r1, [sp, #8]
	ldr	r2, [sp, #12]
	str	r2, [r0, #8]
	str	r1, [r0, #4]
	.loc	25 10 43 epilogue_begin         @ ../../Firmware\MotorControl/pwm_input.hpp:10:43
	add	sp, #16
	bx	lr
.Ltmp55:
.Lfunc_end26:
	.size	_ZN8PwmInputC2EP17TIM_HandleTypeDefNSt3__25arrayItLj4EEE, .Lfunc_end26-_ZN8PwmInputC2EP17TIM_HandleTypeDefNSt3__25arrayItLj4EEE
	.cfi_endproc
	.cantunwind
	.fnend
                                        @ -- End function
	.section	.text._Z19check_board_versionPKh,"ax",%progbits
	.hidden	_Z19check_board_versionPKh      @ -- Begin function _Z19check_board_versionPKh
	.globl	_Z19check_board_versionPKh
	.p2align	2
	.type	_Z19check_board_versionPKh,%function
	.code	16                              @ @_Z19check_board_versionPKh
	.thumb_func
_Z19check_board_versionPKh:
.Lfunc_begin27:
	.loc	3 266 0 is_stmt 1               @ ../Board/v3/board.cpp:266:0
	.fnstart
	.cfi_startproc
@ %bb.0:
	.pad	#8
	sub	sp, #8
	.cfi_def_cfa_offset 8
	str	r0, [sp, #4]
.Ltmp56:
	.loc	3 267 13 prologue_end           @ ../Board/v3/board.cpp:267:13
	ldr	r0, [sp, #4]
	ldrb	r1, [r0, #3]
	movs	r0, #0
	.loc	3 267 45 is_stmt 0              @ ../Board/v3/board.cpp:267:45
	cmp	r1, #3
	str	r0, [sp]                        @ 4-byte Spill
	bne	.LBB27_3
	b	.LBB27_1
.LBB27_1:
	.loc	3 268 13 is_stmt 1              @ ../Board/v3/board.cpp:268:13
	ldr	r0, [sp, #4]
	ldrb	r1, [r0, #4]
	movs	r0, #0
	.loc	3 268 45 is_stmt 0              @ ../Board/v3/board.cpp:268:45
	cmp	r1, #6
	str	r0, [sp]                        @ 4-byte Spill
	bne	.LBB27_3
	b	.LBB27_2
.LBB27_2:
	.loc	3 269 13 is_stmt 1              @ ../Board/v3/board.cpp:269:13
	ldr	r0, [sp, #4]
	ldrb	r0, [r0, #5]
	.loc	3 269 24 is_stmt 0              @ ../Board/v3/board.cpp:269:24
	subs	r0, #56
	clz	r0, r0
	lsrs	r0, r0, #5
	str	r0, [sp]                        @ 4-byte Spill
	b	.LBB27_3
.LBB27_3:
	.loc	3 0 0                           @ ../Board/v3/board.cpp:0:0
	ldr	r0, [sp]                        @ 4-byte Reload
	.loc	3 267 5 is_stmt 1               @ ../Board/v3/board.cpp:267:5
	and	r0, r0, #1
	.loc	3 267 5 epilogue_begin is_stmt 0 @ ../Board/v3/board.cpp:267:5
	add	sp, #8
	bx	lr
.Ltmp57:
.Lfunc_end27:
	.size	_Z19check_board_versionPKh, .Lfunc_end27-_Z19check_board_versionPKh
	.cfi_endproc
	.cantunwind
	.fnend
                                        @ -- End function
	.section	.text._Z11system_initv,"ax",%progbits
	.hidden	_Z11system_initv                @ -- Begin function _Z11system_initv
	.globl	_Z11system_initv
	.p2align	2
	.type	_Z11system_initv,%function
	.code	16                              @ @_Z11system_initv
	.thumb_func
_Z11system_initv:
.Lfunc_begin28:
	.loc	3 272 0 is_stmt 1               @ ../Board/v3/board.cpp:272:0
	.fnstart
	.cfi_startproc
@ %bb.0:
	.save	{r7, lr}
	push	{r7, lr}
	.cfi_def_cfa_offset 8
	.cfi_offset lr, -4
	.cfi_offset r7, -8
	.pad	#8
	sub	sp, #8
	.cfi_def_cfa_offset 16
.Ltmp58:
	.loc	3 274 5 prologue_end            @ ../Board/v3/board.cpp:274:5
	bl	HAL_Init
	.loc	3 277 5                         @ ../Board/v3/board.cpp:277:5
	bl	SystemClock_Config
	movw	r0, #30720
	movt	r0, #8191
	.loc	3 280 20                        @ ../Board/v3/board.cpp:280:20
	str	r0, [sp, #4]
.Ltmp59:
	.loc	3 281 10                        @ ../Board/v3/board.cpp:281:10
	ldr	r0, [sp, #4]
	.loc	3 281 9 is_stmt 0               @ ../Board/v3/board.cpp:281:9
	ldrb	r0, [r0]
.Ltmp60:
	.loc	3 281 9                         @ ../Board/v3/board.cpp:281:9
	cmp	r0, #255
	bne	.LBB28_2
	b	.LBB28_1
.LBB28_1:
.Ltmp61:
	.loc	3 282 17 is_stmt 1              @ ../Board/v3/board.cpp:282:17
	movw	r0, :lower16:fake_otp
	movt	r0, :upper16:fake_otp
	str	r0, [sp, #4]
	.loc	3 283 5                         @ ../Board/v3/board.cpp:283:5
	b	.LBB28_2
.Ltmp62:
.LBB28_2:
	.loc	3 287 30                        @ ../Board/v3/board.cpp:287:30
	ldr	r0, [sp, #4]
	.loc	3 287 10 is_stmt 0              @ ../Board/v3/board.cpp:287:10
	bl	_Z19check_board_versionPKh
.Ltmp63:
	.loc	3 287 9                         @ ../Board/v3/board.cpp:287:9
	cbnz	r0, .LBB28_5
	b	.LBB28_3
.LBB28_3:
.Ltmp64:
	.loc	3 288 9 is_stmt 1               @ ../Board/v3/board.cpp:288:9
	b	.LBB28_4
.LBB28_4:                               @ =>This Inner Loop Header: Depth=1
.Ltmp65:
	.loc	3 288 9 is_stmt 0               @ ../Board/v3/board.cpp:288:9
	b	.LBB28_4
.Ltmp66:
.LBB28_5:
	.loc	3 290 1 epilogue_begin is_stmt 1 @ ../Board/v3/board.cpp:290:1
	add	sp, #8
	pop	{r7, pc}
.Ltmp67:
.Lfunc_end28:
	.size	_Z11system_initv, .Lfunc_end28-_Z11system_initv
	.cfi_endproc
	.cantunwind
	.fnend
                                        @ -- End function
	.section	.text._Z10board_initv,"ax",%progbits
	.hidden	_Z10board_initv                 @ -- Begin function _Z10board_initv
	.globl	_Z10board_initv
	.p2align	2
	.type	_Z10board_initv,%function
	.code	16                              @ @_Z10board_initv
	.thumb_func
_Z10board_initv:
.Lfunc_begin29:
	.loc	3 292 0                         @ ../Board/v3/board.cpp:292:0
	.fnstart
	.cfi_startproc
@ %bb.0:
	.save	{r7, lr}
	push	{r7, lr}
	.cfi_def_cfa_offset 8
	.cfi_offset lr, -4
	.cfi_offset r7, -8
	.pad	#160
	sub	sp, #160
	.cfi_def_cfa_offset 168
.Ltmp68:
	.loc	3 294 5 prologue_end            @ ../Board/v3/board.cpp:294:5
	bl	MX_GPIO_Init
	.loc	3 295 5                         @ ../Board/v3/board.cpp:295:5
	bl	MX_DMA_Init
	.loc	3 296 5                         @ ../Board/v3/board.cpp:296:5
	bl	MX_ADC1_Init
	.loc	3 297 5                         @ ../Board/v3/board.cpp:297:5
	bl	MX_ADC2_Init
	.loc	3 298 5                         @ ../Board/v3/board.cpp:298:5
	bl	MX_TIM1_Init
	.loc	3 299 5                         @ ../Board/v3/board.cpp:299:5
	bl	MX_TIM8_Init
	.loc	3 300 5                         @ ../Board/v3/board.cpp:300:5
	bl	MX_TIM3_Init
	.loc	3 301 5                         @ ../Board/v3/board.cpp:301:5
	bl	MX_TIM4_Init
	.loc	3 302 5                         @ ../Board/v3/board.cpp:302:5
	bl	MX_SPI3_Init
	.loc	3 303 5                         @ ../Board/v3/board.cpp:303:5
	bl	MX_ADC3_Init
	.loc	3 304 5                         @ ../Board/v3/board.cpp:304:5
	bl	MX_TIM2_Init
	.loc	3 305 5                         @ ../Board/v3/board.cpp:305:5
	bl	MX_TIM5_Init
	.loc	3 306 5                         @ ../Board/v3/board.cpp:306:5
	bl	MX_TIM13_Init
	movs	r0, #6
	str	r0, [sp, #60]                   @ 4-byte Spill
	movs	r1, #1
	str	r1, [sp, #84]                   @ 4-byte Spill
	movs	r2, #0
	.loc	3 309 5                         @ ../Board/v3/board.cpp:309:5
	str	r2, [sp, #96]                   @ 4-byte Spill
	bl	HAL_NVIC_SetPriority
	ldr	r0, [sp, #60]                   @ 4-byte Reload
	.loc	3 310 5                         @ ../Board/v3/board.cpp:310:5
	bl	HAL_NVIC_EnableIRQ
	ldr	r1, [sp, #84]                   @ 4-byte Reload
	ldr	r2, [sp, #96]                   @ 4-byte Reload
	movs	r0, #7
	.loc	3 311 5                         @ ../Board/v3/board.cpp:311:5
	str	r0, [sp, #64]                   @ 4-byte Spill
	bl	HAL_NVIC_SetPriority
	ldr	r0, [sp, #64]                   @ 4-byte Reload
	.loc	3 312 5                         @ ../Board/v3/board.cpp:312:5
	bl	HAL_NVIC_EnableIRQ
	ldr	r1, [sp, #84]                   @ 4-byte Reload
	ldr	r2, [sp, #96]                   @ 4-byte Reload
	movs	r0, #8
	.loc	3 313 5                         @ ../Board/v3/board.cpp:313:5
	str	r0, [sp, #68]                   @ 4-byte Spill
	bl	HAL_NVIC_SetPriority
	ldr	r0, [sp, #68]                   @ 4-byte Reload
	.loc	3 314 5                         @ ../Board/v3/board.cpp:314:5
	bl	HAL_NVIC_EnableIRQ
	ldr	r1, [sp, #84]                   @ 4-byte Reload
	ldr	r2, [sp, #96]                   @ 4-byte Reload
	movs	r0, #9
	.loc	3 315 5                         @ ../Board/v3/board.cpp:315:5
	str	r0, [sp, #72]                   @ 4-byte Spill
	bl	HAL_NVIC_SetPriority
	ldr	r0, [sp, #72]                   @ 4-byte Reload
	.loc	3 316 5                         @ ../Board/v3/board.cpp:316:5
	bl	HAL_NVIC_EnableIRQ
	ldr	r1, [sp, #84]                   @ 4-byte Reload
	ldr	r2, [sp, #96]                   @ 4-byte Reload
	movs	r0, #10
	.loc	3 317 5                         @ ../Board/v3/board.cpp:317:5
	str	r0, [sp, #76]                   @ 4-byte Spill
	bl	HAL_NVIC_SetPriority
	ldr	r0, [sp, #76]                   @ 4-byte Reload
	.loc	3 318 5                         @ ../Board/v3/board.cpp:318:5
	bl	HAL_NVIC_EnableIRQ
	ldr	r1, [sp, #84]                   @ 4-byte Reload
	ldr	r2, [sp, #96]                   @ 4-byte Reload
	movs	r0, #23
	.loc	3 319 5                         @ ../Board/v3/board.cpp:319:5
	str	r0, [sp, #80]                   @ 4-byte Spill
	bl	HAL_NVIC_SetPriority
	ldr	r0, [sp, #80]                   @ 4-byte Reload
	.loc	3 320 5                         @ ../Board/v3/board.cpp:320:5
	bl	HAL_NVIC_EnableIRQ
	ldr	r1, [sp, #84]                   @ 4-byte Reload
	ldr	r2, [sp, #96]                   @ 4-byte Reload
	movs	r0, #40
	.loc	3 321 5                         @ ../Board/v3/board.cpp:321:5
	str	r0, [sp, #88]                   @ 4-byte Spill
	bl	HAL_NVIC_SetPriority
	ldr	r0, [sp, #88]                   @ 4-byte Reload
	.loc	3 322 5                         @ ../Board/v3/board.cpp:322:5
	bl	HAL_NVIC_EnableIRQ
	ldr	r2, [sp, #96]                   @ 4-byte Reload
	movs	r0, #77
	str	r0, [sp, #92]                   @ 4-byte Spill
	movs	r1, #5
	.loc	3 324 5                         @ ../Board/v3/board.cpp:324:5
	bl	HAL_NVIC_SetPriority
	ldr	r0, [sp, #92]                   @ 4-byte Reload
	.loc	3 325 5                         @ ../Board/v3/board.cpp:325:5
	bl	HAL_NVIC_EnableIRQ
	ldr	r2, [sp, #96]                   @ 4-byte Reload
	movs	r0, #44
	.loc	3 327 5                         @ ../Board/v3/board.cpp:327:5
	str	r0, [sp, #100]                  @ 4-byte Spill
	mov	r1, r2
	bl	HAL_NVIC_SetPriority
	ldr	r0, [sp, #100]                  @ 4-byte Reload
	.loc	3 328 5                         @ ../Board/v3/board.cpp:328:5
	bl	HAL_NVIC_EnableIRQ
.Ltmp69:
	.loc	3 330 22                        @ ../Board/v3/board.cpp:330:22
	movw	r0, :lower16:odrv
	movt	r0, :upper16:odrv
	movw	r1, #16777
	ldrb	r0, [r0, r1]
.Ltmp70:
	.loc	3 330 9 is_stmt 0               @ ../Board/v3/board.cpp:330:9
	lsls	r0, r0, #31
	cbz	r0, .LBB29_2
	b	.LBB29_1
.LBB29_1:
.Ltmp71:
	.loc	3 331 46 is_stmt 1              @ ../Board/v3/board.cpp:331:46
	movw	r0, :lower16:odrv
	movt	r0, :upper16:odrv
	movw	r1, #16780
	ldr	r0, [r0, r1]
	.loc	3 331 9 is_stmt 0               @ ../Board/v3/board.cpp:331:9
	movw	r1, :lower16:uart_a
	movt	r1, :upper16:uart_a
	ldr	r1, [r1]
	.loc	3 331 31                        @ ../Board/v3/board.cpp:331:31
	str	r0, [r1, #4]
	.loc	3 332 9 is_stmt 1               @ ../Board/v3/board.cpp:332:9
	bl	MX_UART4_Init
	.loc	3 333 5                         @ ../Board/v3/board.cpp:333:5
	b	.LBB29_2
.Ltmp72:
.LBB29_2:
	.loc	3 335 22                        @ ../Board/v3/board.cpp:335:22
	movw	r0, :lower16:odrv
	movt	r0, :upper16:odrv
	movw	r1, #16778
	ldrb	r0, [r0, r1]
.Ltmp73:
	.loc	3 335 9 is_stmt 0               @ ../Board/v3/board.cpp:335:9
	lsls	r0, r0, #31
	cbz	r0, .LBB29_4
	b	.LBB29_3
.LBB29_3:
.Ltmp74:
	.loc	3 336 46 is_stmt 1              @ ../Board/v3/board.cpp:336:46
	movw	r0, :lower16:odrv
	movt	r0, :upper16:odrv
	movw	r1, #16784
	ldr	r0, [r0, r1]
	.loc	3 336 9 is_stmt 0               @ ../Board/v3/board.cpp:336:9
	movw	r1, :lower16:uart_b
	movt	r1, :upper16:uart_b
	ldr	r1, [r1]
	.loc	3 336 31                        @ ../Board/v3/board.cpp:336:31
	str	r0, [r1, #4]
	.loc	3 337 9 is_stmt 1               @ ../Board/v3/board.cpp:337:9
	bl	MX_USART2_UART_Init
	.loc	3 338 5                         @ ../Board/v3/board.cpp:338:5
	b	.LBB29_4
.Ltmp75:
.LBB29_4:
	.loc	3 340 22                        @ ../Board/v3/board.cpp:340:22
	movw	r0, :lower16:odrv
	movt	r0, :upper16:odrv
	movw	r1, #16793
	ldrb	r0, [r0, r1]
.Ltmp76:
	.loc	3 340 9 is_stmt 0               @ ../Board/v3/board.cpp:340:9
	lsls	r0, r0, #31
	cmp	r0, #0
	beq	.LBB29_6
	b	.LBB29_5
.LBB29_5:
	.loc	3 0 9                           @ ../Board/v3/board.cpp:0:9
	add	r0, sp, #152
	str	r0, [sp, #12]                   @ 4-byte Spill
	movs	r1, #3
.Ltmp77:
	.loc	3 342 9 is_stmt 1               @ ../Board/v3/board.cpp:342:9
	str	r1, [sp, #32]                   @ 4-byte Spill
	bl	_ZL8get_gpioj
	ldr	r0, [sp, #12]                   @ 4-byte Reload
	movs	r2, #1
	str	r2, [sp, #28]                   @ 4-byte Spill
	movs	r3, #0
	.loc	3 342 21 is_stmt 0              @ ../Board/v3/board.cpp:342:21
	str	r3, [sp, #24]                   @ 4-byte Spill
	mov	r1, r3
	bl	_ZN9Stm32Gpio6configEjjj
	add	r0, sp, #144
	str	r0, [sp, #16]                   @ 4-byte Spill
	movs	r1, #4
	.loc	3 343 9 is_stmt 1               @ ../Board/v3/board.cpp:343:9
	str	r1, [sp, #40]                   @ 4-byte Spill
	bl	_ZL8get_gpioj
	ldr	r0, [sp, #16]                   @ 4-byte Reload
	ldr	r3, [sp, #24]                   @ 4-byte Reload
	ldr	r2, [sp, #28]                   @ 4-byte Reload
	.loc	3 343 21 is_stmt 0              @ ../Board/v3/board.cpp:343:21
	mov	r1, r3
	bl	_ZN9Stm32Gpio6configEjjj
	add	r0, sp, #136
	str	r0, [sp, #20]                   @ 4-byte Spill
	movs	r1, #5
	.loc	3 344 9 is_stmt 1               @ ../Board/v3/board.cpp:344:9
	str	r1, [sp, #48]                   @ 4-byte Spill
	bl	_ZL8get_gpioj
	ldr	r0, [sp, #20]                   @ 4-byte Reload
	ldr	r3, [sp, #24]                   @ 4-byte Reload
	ldr	r2, [sp, #28]                   @ 4-byte Reload
	.loc	3 344 21 is_stmt 0              @ ../Board/v3/board.cpp:344:21
	mov	r1, r3
	bl	_ZN9Stm32Gpio6configEjjj
                                        @ kill: def $r1 killed $r0
	.loc	3 346 9 is_stmt 1               @ ../Board/v3/board.cpp:346:9
	ldr	r0, [sp, #28]                   @ 4-byte Reload
	bl	osDelay
	ldr	r1, [sp, #32]                   @ 4-byte Reload
	.loc	3 347 25                        @ ../Board/v3/board.cpp:347:25
	movw	r2, :lower16:i2c_stats_
	movt	r2, :upper16:i2c_stats_
	str	r2, [sp, #56]                   @ 4-byte Spill
	movs	r0, #104
	strb	r0, [r2]
	add	r0, sp, #128
	.loc	3 348 28                        @ ../Board/v3/board.cpp:348:28
	str	r0, [sp, #36]                   @ 4-byte Spill
	bl	_ZL8get_gpioj
	ldr	r0, [sp, #36]                   @ 4-byte Reload
	.loc	3 348 40 is_stmt 0              @ ../Board/v3/board.cpp:348:40
	bl	_ZN9Stm32Gpio4readEv
	ldr	r1, [sp, #40]                   @ 4-byte Reload
	ldr	r2, [sp, #56]                   @ 4-byte Reload
	mov	r12, r0
	.loc	3 348 25                        @ ../Board/v3/board.cpp:348:25
	ldrb	r0, [r2]
	orr	r3, r0, #1
	cmp.w	r12, #0
	it	ne
	movne	r0, r3
	strb	r0, [r2]
	add	r0, sp, #120
	.loc	3 349 28 is_stmt 1              @ ../Board/v3/board.cpp:349:28
	str	r0, [sp, #44]                   @ 4-byte Spill
	bl	_ZL8get_gpioj
	ldr	r0, [sp, #44]                   @ 4-byte Reload
	.loc	3 349 40 is_stmt 0              @ ../Board/v3/board.cpp:349:40
	bl	_ZN9Stm32Gpio4readEv
	ldr	r1, [sp, #48]                   @ 4-byte Reload
	ldr	r2, [sp, #56]                   @ 4-byte Reload
	mov	r12, r0
	.loc	3 349 25                        @ ../Board/v3/board.cpp:349:25
	ldrb	r0, [r2]
	orr	r3, r0, #2
	cmp.w	r12, #0
	it	ne
	movne	r0, r3
	strb	r0, [r2]
	add	r0, sp, #112
	.loc	3 350 28 is_stmt 1              @ ../Board/v3/board.cpp:350:28
	str	r0, [sp, #52]                   @ 4-byte Spill
	bl	_ZL8get_gpioj
	ldr	r0, [sp, #52]                   @ 4-byte Reload
	.loc	3 350 40 is_stmt 0              @ ../Board/v3/board.cpp:350:40
	bl	_ZN9Stm32Gpio4readEv
	mov	r3, r0
	.loc	3 350 25                        @ ../Board/v3/board.cpp:350:25
	ldr	r0, [sp, #56]                   @ 4-byte Reload
	ldrb	r1, [r0]
	orr	r2, r1, #4
	cmp	r3, #0
	it	ne
	movne	r1, r2
	strb	r1, [r0]
	.loc	3 351 33 is_stmt 1              @ ../Board/v3/board.cpp:351:33
	ldrb	r0, [r0]
	.loc	3 351 9 is_stmt 0               @ ../Board/v3/board.cpp:351:9
	bl	MX_I2C1_Init
	.loc	3 352 5 is_stmt 1               @ ../Board/v3/board.cpp:352:5
	b	.LBB29_6
.Ltmp78:
.LBB29_6:
	.loc	3 354 22                        @ ../Board/v3/board.cpp:354:22
	movw	r0, :lower16:odrv
	movt	r0, :upper16:odrv
	movw	r1, #16792
	ldrb	r0, [r0, r1]
.Ltmp79:
	.loc	3 354 9 is_stmt 0               @ ../Board/v3/board.cpp:354:9
	lsls	r0, r0, #31
	cbz	r0, .LBB29_11
	b	.LBB29_7
.LBB29_7:
.Ltmp80:
	.loc	3 358 13 is_stmt 1              @ ../Board/v3/board.cpp:358:13
	movw	r0, :lower16:odrv
	movt	r0, :upper16:odrv
	movw	r1, #16775
	ldrb	r0, [r0, r1]
	.loc	3 358 72 is_stmt 0              @ ../Board/v3/board.cpp:358:72
	cmp	r0, #7
	bne	.LBB29_9
	b	.LBB29_8
.LBB29_8:
	.loc	3 358 75                        @ ../Board/v3/board.cpp:358:75
	movw	r0, :lower16:odrv
	movt	r0, :upper16:odrv
	movw	r1, #16776
	ldrb	r0, [r0, r1]
.Ltmp81:
	.loc	3 358 13                        @ ../Board/v3/board.cpp:358:13
	cmp	r0, #7
	beq	.LBB29_10
	b	.LBB29_9
.LBB29_9:
.Ltmp82:
	.loc	3 359 33 is_stmt 1              @ ../Board/v3/board.cpp:359:33
	movw	r1, :lower16:odrv
	movt	r1, :upper16:odrv
	movw	r2, #17100
	movs	r0, #1
	strb	r0, [r1, r2]
	.loc	3 360 9                         @ ../Board/v3/board.cpp:360:9
	b	.LBB29_10
.Ltmp83:
.LBB29_10:
	.loc	3 361 5                         @ ../Board/v3/board.cpp:361:5
	b	.LBB29_11
.Ltmp84:
.LBB29_11:
	.loc	3 0 5 is_stmt 0                 @ ../Board/v3/board.cpp:0:5
	movw	r1, #8204
	movt	r1, #57348
	.loc	3 364 5 is_stmt 1               @ ../Board/v3/board.cpp:364:5
	ldr	r0, [r1]
	orr	r0, r0, #1
	str	r0, [r1]
	.loc	3 365 5                         @ ../Board/v3/board.cpp:365:5
	ldr	r0, [r1]
	orr	r0, r0, #2
	str	r0, [r1]
	movw	r1, #8200
	movt	r1, #57348
	.loc	3 366 5                         @ ../Board/v3/board.cpp:366:5
	ldr	r0, [r1]
	orr	r0, r0, #128
	str	r0, [r1]
	add	r0, sp, #104
	str	r0, [sp, #4]                    @ 4-byte Spill
	movw	r1, #1024
	movt	r1, #16386
	mov.w	r2, #4096
	.loc	3 368 33                        @ ../Board/v3/board.cpp:368:33
	bl	_ZN9Stm32GpioC2EP12GPIO_TypeDeft
	ldr	r0, [sp, #4]                    @ 4-byte Reload
	movs	r1, #0
	.loc	3 372 21                        @ ../Board/v3/board.cpp:372:21
	bl	_ZN9Stm32Gpio5writeEb
	movs	r0, #40
	.loc	3 373 5                         @ ../Board/v3/board.cpp:373:5
	bl	_Z8delay_usj
	ldr	r0, [sp, #4]                    @ 4-byte Reload
	movs	r1, #1
	.loc	3 374 21                        @ ../Board/v3/board.cpp:374:21
	str	r1, [sp, #8]                    @ 4-byte Spill
	bl	_ZN9Stm32Gpio5writeEb
	movw	r0, #20000
	.loc	3 375 5                         @ ../Board/v3/board.cpp:375:5
	bl	_Z8delay_usj
	ldr	r0, [sp, #8]                    @ 4-byte Reload
	.loc	3 377 5 epilogue_begin          @ ../Board/v3/board.cpp:377:5
	add	sp, #160
	pop	{r7, pc}
.Ltmp85:
.Lfunc_end29:
	.size	_Z10board_initv, .Lfunc_end29-_Z10board_initv
	.cfi_endproc
	.cantunwind
	.fnend
                                        @ -- End function
	.section	.text._ZL8get_gpioj,"ax",%progbits
	.p2align	2                               @ -- Begin function _ZL8get_gpioj
	.type	_ZL8get_gpioj,%function
	.code	16                              @ @_ZL8get_gpioj
	.thumb_func
_ZL8get_gpioj:
.Lfunc_begin30:
	.file	38 "D:\\ikingtec\\Robot\\ODrive\\Firmware\\MDK-ARM" "../MotorControl\\odrive_main.h"
	.loc	38 167 0                        @ ../MotorControl\odrive_main.h:167:0
	.fnstart
	.cfi_startproc
@ %bb.0:
	.pad	#12
	sub	sp, #12
	.cfi_def_cfa_offset 12
	str	r0, [sp, #4]                    @ 4-byte Spill
	str	r1, [sp, #8]
.Ltmp86:
	.loc	38 168 13 prologue_end          @ ../MotorControl\odrive_main.h:168:13
	ldr	r0, [sp, #8]
	.loc	38 168 12 is_stmt 0             @ ../MotorControl\odrive_main.h:168:12
	cmp	r0, #16
	bhi	.LBB30_2
	b	.LBB30_1
.LBB30_1:
	.loc	38 168 44                       @ ../MotorControl\odrive_main.h:168:44
	ldr	r1, [sp, #8]
	.loc	38 168 38                       @ ../MotorControl\odrive_main.h:168:38
	movw	r0, :lower16:gpios
	movt	r0, :upper16:gpios
	add.w	r0, r0, r1, lsl #3
	.loc	38 168 12                       @ ../MotorControl\odrive_main.h:168:12
	str	r0, [sp]                        @ 4-byte Spill
	b	.LBB30_3
.LBB30_2:
	.loc	38 0 12                         @ ../MotorControl\odrive_main.h:0:12
	movw	r0, :lower16:gpios
	movt	r0, :upper16:gpios
	.loc	38 168 12                       @ ../MotorControl\odrive_main.h:168:12
	str	r0, [sp]                        @ 4-byte Spill
	b	.LBB30_3
.LBB30_3:
	ldr	r1, [sp, #4]                    @ 4-byte Reload
	ldr	r2, [sp]                        @ 4-byte Reload
	ldr	r0, [r2]
	ldr	r2, [r2, #4]
	str	r2, [r1, #4]
	str	r0, [r1]
	.loc	38 168 5 epilogue_begin         @ ../MotorControl\odrive_main.h:168:5
	add	sp, #12
	bx	lr
.Ltmp87:
.Lfunc_end30:
	.size	_ZL8get_gpioj, .Lfunc_end30-_ZL8get_gpioj
	.cfi_endproc
	.cantunwind
	.fnend
                                        @ -- End function
	.section	.text._ZN9Stm32Gpio4readEv,"axG",%progbits,_ZN9Stm32Gpio4readEv,comdat
	.hidden	_ZN9Stm32Gpio4readEv            @ -- Begin function _ZN9Stm32Gpio4readEv
	.weak	_ZN9Stm32Gpio4readEv
	.p2align	2
	.type	_ZN9Stm32Gpio4readEv,%function
	.code	16                              @ @_ZN9Stm32Gpio4readEv
	.thumb_func
_ZN9Stm32Gpio4readEv:
.Lfunc_begin31:
	.loc	6 30 0 is_stmt 1                @ ../../Firmware\Drivers/STM32/stm32_gpio.hpp:30:0
	.fnstart
	.cfi_startproc
@ %bb.0:
	.pad	#12
	sub	sp, #12
	.cfi_def_cfa_offset 12
	str	r0, [sp, #8]
	ldr	r0, [sp, #8]
.Ltmp88:
	.loc	6 31 16 prologue_end            @ ../../Firmware\Drivers/STM32/stm32_gpio.hpp:31:16
	str	r0, [sp]                        @ 4-byte Spill
	ldr	r1, [r0]
	movs	r0, #0
	.loc	6 31 22 is_stmt 0               @ ../../Firmware\Drivers/STM32/stm32_gpio.hpp:31:22
	str	r0, [sp, #4]                    @ 4-byte Spill
	cbz	r1, .LBB31_2
	b	.LBB31_1
.LBB31_1:
	.loc	6 31 26                         @ ../../Firmware\Drivers/STM32/stm32_gpio.hpp:31:26
	ldr	r1, [sp]                        @ 4-byte Reload
	ldr	r0, [r1]
	.loc	6 31 33                         @ ../../Firmware\Drivers/STM32/stm32_gpio.hpp:31:33
	ldr	r0, [r0, #16]
	.loc	6 31 39                         @ ../../Firmware\Drivers/STM32/stm32_gpio.hpp:31:39
	ldrh	r1, [r1, #4]
	.loc	6 31 37                         @ ../../Firmware\Drivers/STM32/stm32_gpio.hpp:31:37
	ands	r0, r1
	.loc	6 31 25                         @ ../../Firmware\Drivers/STM32/stm32_gpio.hpp:31:25
	cmp	r0, #0
	it	ne
	movne	r0, #1
	str	r0, [sp, #4]                    @ 4-byte Spill
	b	.LBB31_2
.LBB31_2:
	.loc	6 0 0                           @ ../../Firmware\Drivers/STM32/stm32_gpio.hpp:0:0
	ldr	r0, [sp, #4]                    @ 4-byte Reload
	.loc	6 31 9                          @ ../../Firmware\Drivers/STM32/stm32_gpio.hpp:31:9
	and	r0, r0, #1
	.loc	6 31 9 epilogue_begin           @ ../../Firmware\Drivers/STM32/stm32_gpio.hpp:31:9
	add	sp, #12
	bx	lr
.Ltmp89:
.Lfunc_end31:
	.size	_ZN9Stm32Gpio4readEv, .Lfunc_end31-_ZN9Stm32Gpio4readEv
	.cfi_endproc
	.cantunwind
	.fnend
                                        @ -- End function
	.section	.text._ZN9Stm32Gpio5writeEb,"axG",%progbits,_ZN9Stm32Gpio5writeEb,comdat
	.hidden	_ZN9Stm32Gpio5writeEb           @ -- Begin function _ZN9Stm32Gpio5writeEb
	.weak	_ZN9Stm32Gpio5writeEb
	.p2align	2
	.type	_ZN9Stm32Gpio5writeEb,%function
	.code	16                              @ @_ZN9Stm32Gpio5writeEb
	.thumb_func
_ZN9Stm32Gpio5writeEb:
.Lfunc_begin32:
	.loc	6 24 0 is_stmt 1                @ ../../Firmware\Drivers/STM32/stm32_gpio.hpp:24:0
	.fnstart
	.cfi_startproc
@ %bb.0:
	.save	{r7, lr}
	push	{r7, lr}
	.cfi_def_cfa_offset 8
	.cfi_offset lr, -4
	.cfi_offset r7, -8
	.pad	#16
	sub	sp, #16
	.cfi_def_cfa_offset 24
                                        @ kill: def $r2 killed $r1
	str	r0, [sp, #12]
	strb.w	r1, [sp, #11]
	ldr	r0, [sp, #12]
.Ltmp90:
	.loc	6 25 13 prologue_end            @ ../../Firmware\Drivers/STM32/stm32_gpio.hpp:25:13
	str	r0, [sp, #4]                    @ 4-byte Spill
	ldr	r0, [r0]
.Ltmp91:
	.loc	6 25 13 is_stmt 0               @ ../../Firmware\Drivers/STM32/stm32_gpio.hpp:25:13
	cbz	r0, .LBB32_2
	b	.LBB32_1
.LBB32_1:
.Ltmp92:
	.loc	6 26 31 is_stmt 1               @ ../../Firmware\Drivers/STM32/stm32_gpio.hpp:26:31
	ldr	r1, [sp, #4]                    @ 4-byte Reload
	ldr	r0, [r1]
	.loc	6 26 38 is_stmt 0               @ ../../Firmware\Drivers/STM32/stm32_gpio.hpp:26:38
	ldrh	r1, [r1, #4]
	.loc	6 26 13                         @ ../../Firmware\Drivers/STM32/stm32_gpio.hpp:26:13
	ldrb.w	r2, [sp, #11]
	and	r2, r2, #1
	bl	HAL_GPIO_WritePin
	.loc	6 27 9 is_stmt 1                @ ../../Firmware\Drivers/STM32/stm32_gpio.hpp:27:9
	b	.LBB32_2
.Ltmp93:
.LBB32_2:
	.loc	6 28 5 epilogue_begin           @ ../../Firmware\Drivers/STM32/stm32_gpio.hpp:28:5
	add	sp, #16
	pop	{r7, pc}
.Ltmp94:
.Lfunc_end32:
	.size	_ZN9Stm32Gpio5writeEb, .Lfunc_end32-_ZN9Stm32Gpio5writeEb
	.cfi_endproc
	.cantunwind
	.fnend
                                        @ -- End function
	.section	.text._Z12start_timersv,"ax",%progbits
	.hidden	_Z12start_timersv               @ -- Begin function _Z12start_timersv
	.globl	_Z12start_timersv
	.p2align	2
	.type	_Z12start_timersv,%function
	.code	16                              @ @_Z12start_timersv
	.thumb_func
_Z12start_timersv:
.Lfunc_begin33:
	.loc	3 380 0                         @ ../Board/v3/board.cpp:380:0
	.fnstart
	.cfi_startproc
@ %bb.0:
	.save	{r4, lr}
	push	{r4, lr}
	.cfi_def_cfa_offset 8
	.cfi_offset lr, -4
	.cfi_offset r4, -8
	.pad	#56
	sub	sp, #56
	.cfi_def_cfa_offset 64
	add	r0, sp, #48
.Ltmp95:
	.loc	3 381 5 prologue_end            @ ../Board/v3/board.cpp:381:5
	bl	_ZN22CriticalSectionContextC2Ev
	b	.LBB33_1
.LBB33_1:                               @ =>This Inner Loop Header: Depth=1
.Ltmp96:
	.loc	3 381 5 is_stmt 0               @ ../Board/v3/board.cpp:381:5
	ldrb.w	r0, [sp, #52]
.Ltmp97:
	.loc	3 381 5                         @ ../Board/v3/board.cpp:381:5
	lsls	r0, r0, #31
	cbz	r0, .LBB33_3
	b	.LBB33_2
.LBB33_2:
	.loc	3 0 5                           @ ../Board/v3/board.cpp:0:5
	add	r0, sp, #48
.Ltmp98:
	.loc	3 381 5                         @ ../Board/v3/board.cpp:381:5
	bl	_ZN22CriticalSectionContextD2Ev
	b	.LBB33_5
.LBB33_3:                               @   in Loop: Header=BB33_1 Depth=1
.Ltmp99:
	.loc	3 384 15 is_stmt 1              @ ../Board/v3/board.cpp:384:15
	movw	r0, :lower16:hadc1
	movt	r0, :upper16:hadc1
	str	r0, [sp, #8]                    @ 4-byte Spill
	ldr	r1, [r0]
	.loc	3 384 29 is_stmt 0              @ ../Board/v3/board.cpp:384:29
	ldr	r0, [r1, #8]
	bic	r0, r0, #3145728
	str	r0, [r1, #8]
	.loc	3 385 15 is_stmt 1              @ ../Board/v3/board.cpp:385:15
	movw	r0, :lower16:hadc2
	movt	r0, :upper16:hadc2
	str	r0, [sp, #12]                   @ 4-byte Spill
	ldr	r1, [r0]
	.loc	3 385 29 is_stmt 0              @ ../Board/v3/board.cpp:385:29
	ldr	r0, [r1, #8]
	movw	r2, #65535
	movt	r2, #53199
	ands	r0, r2
	str	r0, [r1, #8]
	.loc	3 386 15 is_stmt 1              @ ../Board/v3/board.cpp:386:15
	movw	r0, :lower16:hadc3
	movt	r0, :upper16:hadc3
	str	r0, [sp, #16]                   @ 4-byte Spill
	ldr	r1, [r0]
	.loc	3 386 29 is_stmt 0              @ ../Board/v3/board.cpp:386:29
	ldr	r0, [r1, #8]
	ands	r0, r2
	str	r0, [r1, #8]
	.loc	3 395 14 is_stmt 1              @ ../Board/v3/board.cpp:395:14
	movw	r0, :lower16:htim1
	movt	r0, :upper16:htim1
	str	r0, [sp, #36]
	movw	r0, :lower16:htim8
	movt	r0, :upper16:htim8
	str	r0, [sp, #20]                   @ 4-byte Spill
	str	r0, [sp, #40]
	movw	r0, :lower16:htim13
	movt	r0, :upper16:htim13
	str	r0, [sp, #44]
	movw	r0, #1622
	.loc	3 396 14                        @ ../Board/v3/board.cpp:396:14
	str	r0, [sp, #24]
	movs	r0, #0
	str	r0, [sp, #28]
	movw	r0, #811
	str	r0, [sp, #32]
	.loc	3 394 9                         @ ../Board/v3/board.cpp:394:9
	ldr	r0, [sp, #36]
	ldr	r1, [sp, #40]
	ldr	r2, [sp, #44]
	ldr	r3, [sp, #24]
	ldr.w	r12, [sp, #28]
	ldr	r4, [sp, #32]
	mov	lr, sp
	str.w	r4, [lr, #4]
	str.w	r12, [lr]
	bl	_ZN10Stm32Timer19start_synchronouslyILj3EEEvNSt3__25arrayIP17TIM_HandleTypeDefXT_EEENS2_IjXT_EEE
	ldr	r1, [sp, #8]                    @ 4-byte Reload
	ldr	r3, [sp, #12]                   @ 4-byte Reload
	ldr	r2, [sp, #16]                   @ 4-byte Reload
	ldr	r0, [sp, #20]                   @ 4-byte Reload
	.loc	3 399 15                        @ ../Board/v3/board.cpp:399:15
	ldr.w	lr, [r1]
	.loc	3 399 29 is_stmt 0              @ ../Board/v3/board.cpp:399:29
	ldr.w	r12, [lr, #8]
	orr	r12, r12, #1048576
	str.w	r12, [lr, #8]
	.loc	3 400 15 is_stmt 1              @ ../Board/v3/board.cpp:400:15
	ldr.w	lr, [r3]
	.loc	3 400 29 is_stmt 0              @ ../Board/v3/board.cpp:400:29
	ldr.w	r12, [lr, #8]
	movs	r4, #0
	movt	r4, #4112
	orr.w	r12, r12, r4
	str.w	r12, [lr, #8]
	.loc	3 401 15 is_stmt 1              @ ../Board/v3/board.cpp:401:15
	ldr.w	lr, [r2]
	.loc	3 401 29 is_stmt 0              @ ../Board/v3/board.cpp:401:29
	ldr.w	r12, [lr, #8]
	orr.w	r12, r12, r4
	str.w	r12, [lr, #8]
	.loc	3 403 9 is_stmt 1               @ ../Board/v3/board.cpp:403:9
	ldr.w	lr, [r1]
	mvn	r12, #4
	str.w	r12, [lr]
	.loc	3 404 9                         @ ../Board/v3/board.cpp:404:9
	ldr.w	lr, [r3]
	str.w	r12, [lr]
	.loc	3 405 9                         @ ../Board/v3/board.cpp:405:9
	ldr.w	lr, [r2]
	str.w	r12, [lr]
	.loc	3 406 9                         @ ../Board/v3/board.cpp:406:9
	ldr.w	lr, [r1]
	mvn	r12, #2
	str.w	r12, [lr]
	.loc	3 407 9                         @ ../Board/v3/board.cpp:407:9
	ldr.w	lr, [r3]
	str.w	r12, [lr]
	.loc	3 408 9                         @ ../Board/v3/board.cpp:408:9
	ldr.w	lr, [r2]
	str.w	r12, [lr]
	.loc	3 409 9                         @ ../Board/v3/board.cpp:409:9
	ldr.w	r12, [r1]
	mvn	r1, #32
	str.w	r1, [r12]
	.loc	3 410 9                         @ ../Board/v3/board.cpp:410:9
	ldr	r3, [r3]
	str	r1, [r3]
	.loc	3 411 9                         @ ../Board/v3/board.cpp:411:9
	ldr	r2, [r2]
	str	r1, [r2]
	.loc	3 413 9                         @ ../Board/v3/board.cpp:413:9
	ldr	r2, [r0]
	mvn	r1, #1
	str	r1, [r2, #16]
	.loc	3 414 9                         @ ../Board/v3/board.cpp:414:9
	ldr	r1, [r0]
	ldr	r0, [r1, #12]
	orr	r0, r0, #1
	str	r0, [r1, #12]
	.loc	3 415 5                         @ ../Board/v3/board.cpp:415:5
	b	.LBB33_4
.Ltmp100:
.LBB33_4:                               @   in Loop: Header=BB33_1 Depth=1
	.loc	3 0 5 is_stmt 0                 @ ../Board/v3/board.cpp:0:5
	movs	r0, #1
	.loc	3 381 5 is_stmt 1               @ ../Board/v3/board.cpp:381:5
	strb.w	r0, [sp, #52]
	b	.LBB33_1
.Ltmp101:
.LBB33_5:
	.loc	3 416 1 epilogue_begin          @ ../Board/v3/board.cpp:416:1
	add	sp, #56
	pop	{r4, pc}
.Ltmp102:
.Lfunc_end33:
	.size	_Z12start_timersv, .Lfunc_end33-_Z12start_timersv
	.cfi_endproc
	.cantunwind
	.fnend
                                        @ -- End function
	.section	.text._ZN22CriticalSectionContextC2Ev,"axG",%progbits,_ZN22CriticalSectionContextC2Ev,comdat
	.hidden	_ZN22CriticalSectionContextC2Ev @ -- Begin function _ZN22CriticalSectionContextC2Ev
	.weak	_ZN22CriticalSectionContextC2Ev
	.p2align	2
	.type	_ZN22CriticalSectionContextC2Ev,%function
	.code	16                              @ @_ZN22CriticalSectionContextC2Ev
	.thumb_func
_ZN22CriticalSectionContextC2Ev:
.Lfunc_begin34:
	.loc	35 56 0                         @ ../../Firmware\Drivers/STM32/stm32_system.h:56:0
	.fnstart
	.cfi_startproc
@ %bb.0:
	.save	{r7, lr}
	push	{r7, lr}
	.cfi_def_cfa_offset 8
	.cfi_offset lr, -4
	.cfi_offset r7, -8
	.pad	#8
	sub	sp, #8
	.cfi_def_cfa_offset 16
	str	r0, [sp, #4]
	ldr	r0, [sp, #4]
.Ltmp103:
	.loc	35 56 38 prologue_end           @ ../../Firmware\Drivers/STM32/stm32_system.h:56:38
	str	r0, [sp]                        @ 4-byte Spill
	bl	_ZL18cpu_enter_criticalv
	mov	r1, r0
	.loc	35 56 32 is_stmt 0              @ ../../Firmware\Drivers/STM32/stm32_system.h:56:32
	ldr	r0, [sp]                        @ 4-byte Reload
	str	r1, [r0]
	movs	r1, #0
	.loc	35 59 10 is_stmt 1              @ ../../Firmware\Drivers/STM32/stm32_system.h:59:10
	strb	r1, [r0, #4]
	.loc	35 56 61 epilogue_begin         @ ../../Firmware\Drivers/STM32/stm32_system.h:56:61
	add	sp, #8
	pop	{r7, pc}
.Ltmp104:
.Lfunc_end34:
	.size	_ZN22CriticalSectionContextC2Ev, .Lfunc_end34-_ZN22CriticalSectionContextC2Ev
	.cfi_endproc
	.cantunwind
	.fnend
                                        @ -- End function
	.section	.text._ZN10Stm32Timer19start_synchronouslyILj3EEEvNSt3__25arrayIP17TIM_HandleTypeDefXT_EEENS2_IjXT_EEE,"axG",%progbits,_ZN10Stm32Timer19start_synchronouslyILj3EEEvNSt3__25arrayIP17TIM_HandleTypeDefXT_EEENS2_IjXT_EEE,comdat
	.hidden	_ZN10Stm32Timer19start_synchronouslyILj3EEEvNSt3__25arrayIP17TIM_HandleTypeDefXT_EEENS2_IjXT_EEE @ -- Begin function _ZN10Stm32Timer19start_synchronouslyILj3EEEvNSt3__25arrayIP17TIM_HandleTypeDefXT_EEENS2_IjXT_EEE
	.weak	_ZN10Stm32Timer19start_synchronouslyILj3EEEvNSt3__25arrayIP17TIM_HandleTypeDefXT_EEENS2_IjXT_EEE
	.p2align	2
	.type	_ZN10Stm32Timer19start_synchronouslyILj3EEEvNSt3__25arrayIP17TIM_HandleTypeDefXT_EEENS2_IjXT_EEE,%function
	.code	16                              @ @_ZN10Stm32Timer19start_synchronouslyILj3EEEvNSt3__25arrayIP17TIM_HandleTypeDefXT_EEENS2_IjXT_EEE
	.thumb_func
_ZN10Stm32Timer19start_synchronouslyILj3EEEvNSt3__25arrayIP17TIM_HandleTypeDefXT_EEENS2_IjXT_EEE:
.Lfunc_begin35:
	.file	39 "D:\\ikingtec\\Robot\\ODrive\\Firmware\\MDK-ARM" "../../Firmware\\Drivers/STM32/stm32_timer.hpp"
	.loc	39 34 0                         @ ../../Firmware\Drivers/STM32/stm32_timer.hpp:34:0
	.fnstart
	.cfi_startproc
@ %bb.0:
	.save	{r4, lr}
	push	{r4, lr}
	.cfi_def_cfa_offset 8
	.cfi_offset lr, -4
	.cfi_offset r4, -8
	.pad	#64
	sub	sp, #64
	.cfi_def_cfa_offset 72
	mov	lr, r2
	mov	r12, r1
	mov	r2, r0
	ldr	r1, [sp, #76]
	ldr	r0, [sp, #72]
                                        @ kill: def $r4 killed $r3
                                        @ kill: def $r4 killed $lr
                                        @ kill: def $r4 killed $r12
                                        @ kill: def $r4 killed $r2
	str.w	lr, [sp, #60]
	str.w	r12, [sp, #56]
	str	r2, [sp, #52]
	str	r1, [sp, #48]
	str	r0, [sp, #44]
	str	r3, [sp, #40]
.Ltmp105:
	.loc	39 35 34 prologue_end           @ ../../Firmware\Drivers/STM32/stm32_timer.hpp:35:34
	ldr	r0, [sp, #52]
	ldr	r1, [sp, #56]
	ldr	r2, [sp, #60]
	str	r2, [sp, #36]
	str	r1, [sp, #32]
	str	r0, [sp, #28]
	.loc	39 35 42 is_stmt 0              @ ../../Firmware\Drivers/STM32/stm32_timer.hpp:35:42
	ldr	r0, [sp, #40]
	ldr	r1, [sp, #44]
	ldr	r2, [sp, #48]
	str	r2, [sp, #24]
	str	r1, [sp, #20]
	str	r0, [sp, #16]
	.loc	39 35 9                         @ ../../Firmware\Drivers/STM32/stm32_timer.hpp:35:9
	ldr	r0, [sp, #28]
	ldr	r1, [sp, #32]
	ldr	r2, [sp, #36]
	ldr	r3, [sp, #16]
	ldr.w	r12, [sp, #20]
	ldr	r4, [sp, #24]
	mov	lr, sp
	str.w	r4, [lr, #4]
	str.w	r12, [lr]
	bl	_ZN10Stm32Timer24start_synchronously_implILj3EJLj0ELj1ELj2EEEEvNSt3__25arrayIP17TIM_HandleTypeDefXT_EEENS2_IjXT_EEENS1_16integer_sequenceIjJXspT0_EEEE
	.loc	39 36 5 epilogue_begin is_stmt 1 @ ../../Firmware\Drivers/STM32/stm32_timer.hpp:36:5
	add	sp, #64
	pop	{r4, pc}
.Ltmp106:
.Lfunc_end35:
	.size	_ZN10Stm32Timer19start_synchronouslyILj3EEEvNSt3__25arrayIP17TIM_HandleTypeDefXT_EEENS2_IjXT_EEE, .Lfunc_end35-_ZN10Stm32Timer19start_synchronouslyILj3EEEvNSt3__25arrayIP17TIM_HandleTypeDefXT_EEENS2_IjXT_EEE
	.cfi_endproc
	.cantunwind
	.fnend
                                        @ -- End function
	.section	.text._ZN22CriticalSectionContextD2Ev,"axG",%progbits,_ZN22CriticalSectionContextD2Ev,comdat
	.hidden	_ZN22CriticalSectionContextD2Ev @ -- Begin function _ZN22CriticalSectionContextD2Ev
	.weak	_ZN22CriticalSectionContextD2Ev
	.p2align	2
	.type	_ZN22CriticalSectionContextD2Ev,%function
	.code	16                              @ @_ZN22CriticalSectionContextD2Ev
	.thumb_func
_ZN22CriticalSectionContextD2Ev:
.Lfunc_begin36:
	.loc	35 57 0                         @ ../../Firmware\Drivers/STM32/stm32_system.h:57:0
	.fnstart
	.cfi_startproc
@ %bb.0:
	.save	{r7, lr}
	push	{r7, lr}
	.cfi_def_cfa_offset 8
	.cfi_offset lr, -4
	.cfi_offset r7, -8
	.pad	#8
	sub	sp, #8
	.cfi_def_cfa_offset 16
	str	r0, [sp, #4]
	ldr	r0, [sp, #4]
.Ltmp107:
	.loc	35 57 51 prologue_end           @ ../../Firmware\Drivers/STM32/stm32_system.h:57:51
	str	r0, [sp]                        @ 4-byte Spill
	ldr	r0, [r0]
	.loc	35 57 33 is_stmt 0              @ ../../Firmware\Drivers/STM32/stm32_system.h:57:33
	bl	_ZL17cpu_exit_criticalj
	ldr	r0, [sp]                        @ 4-byte Reload
.Ltmp108:
	.loc	35 57 59 epilogue_begin         @ ../../Firmware\Drivers/STM32/stm32_system.h:57:59
	add	sp, #8
	pop	{r7, pc}
.Ltmp109:
.Lfunc_end36:
	.size	_ZN22CriticalSectionContextD2Ev, .Lfunc_end36-_ZN22CriticalSectionContextD2Ev
	.cfi_endproc
	.cantunwind
	.fnend
                                        @ -- End function
	.section	.text.HAL_SPI_TxCpltCallback,"ax",%progbits
	.hidden	HAL_SPI_TxCpltCallback          @ -- Begin function HAL_SPI_TxCpltCallback
	.globl	HAL_SPI_TxCpltCallback
	.p2align	2
	.type	HAL_SPI_TxCpltCallback,%function
	.code	16                              @ @HAL_SPI_TxCpltCallback
	.thumb_func
HAL_SPI_TxCpltCallback:
.Lfunc_begin37:
	.loc	3 455 0 is_stmt 1               @ ../Board/v3/board.cpp:455:0
	.fnstart
	.cfi_startproc
@ %bb.0:
	.save	{r7, lr}
	push	{r7, lr}
	.cfi_def_cfa_offset 8
	.cfi_offset lr, -4
	.cfi_offset r7, -8
	.pad	#8
	sub	sp, #8
	.cfi_def_cfa_offset 16
	str	r0, [sp, #4]
.Ltmp110:
	.loc	3 456 30 prologue_end           @ ../Board/v3/board.cpp:456:30
	ldr	r0, [sp, #4]
	.loc	3 456 5 is_stmt 0               @ ../Board/v3/board.cpp:456:5
	bl	HAL_SPI_TxRxCpltCallback
	.loc	3 457 1 epilogue_begin is_stmt 1 @ ../Board/v3/board.cpp:457:1
	add	sp, #8
	pop	{r7, pc}
.Ltmp111:
.Lfunc_end37:
	.size	HAL_SPI_TxCpltCallback, .Lfunc_end37-HAL_SPI_TxCpltCallback
	.cfi_endproc
	.cantunwind
	.fnend
                                        @ -- End function
	.section	.text.HAL_SPI_TxRxCpltCallback,"ax",%progbits
	.hidden	HAL_SPI_TxRxCpltCallback        @ -- Begin function HAL_SPI_TxRxCpltCallback
	.globl	HAL_SPI_TxRxCpltCallback
	.p2align	2
	.type	HAL_SPI_TxRxCpltCallback,%function
	.code	16                              @ @HAL_SPI_TxRxCpltCallback
	.thumb_func
HAL_SPI_TxRxCpltCallback:
.Lfunc_begin38:
	.loc	3 463 0                         @ ../Board/v3/board.cpp:463:0
	.fnstart
	.cfi_startproc
@ %bb.0:
	.save	{r7, lr}
	push	{r7, lr}
	.cfi_def_cfa_offset 8
	.cfi_offset lr, -4
	.cfi_offset r7, -8
	.pad	#8
	sub	sp, #8
	.cfi_def_cfa_offset 16
	str	r0, [sp, #4]
.Ltmp112:
	.loc	3 464 9 prologue_end            @ ../Board/v3/board.cpp:464:9
	ldr	r0, [sp, #4]
	.loc	3 464 14 is_stmt 0              @ ../Board/v3/board.cpp:464:14
	movw	r1, :lower16:hspi3
	movt	r1, :upper16:hspi3
.Ltmp113:
	.loc	3 464 9                         @ ../Board/v3/board.cpp:464:9
	cmp	r0, r1
	bne	.LBB38_2
	b	.LBB38_1
.LBB38_1:
.Ltmp114:
	.loc	3 465 22 is_stmt 1              @ ../Board/v3/board.cpp:465:22
	movw	r0, :lower16:spi3_arbiter
	movt	r0, :upper16:spi3_arbiter
	bl	_ZN15Stm32SpiArbiter11on_completeEv
	.loc	3 466 5                         @ ../Board/v3/board.cpp:466:5
	b	.LBB38_2
.Ltmp115:
.LBB38_2:
	.loc	3 467 1 epilogue_begin          @ ../Board/v3/board.cpp:467:1
	add	sp, #8
	pop	{r7, pc}
.Ltmp116:
.Lfunc_end38:
	.size	HAL_SPI_TxRxCpltCallback, .Lfunc_end38-HAL_SPI_TxRxCpltCallback
	.cfi_endproc
	.cantunwind
	.fnend
                                        @ -- End function
	.section	.text.HAL_SPI_RxCpltCallback,"ax",%progbits
	.hidden	HAL_SPI_RxCpltCallback          @ -- Begin function HAL_SPI_RxCpltCallback
	.globl	HAL_SPI_RxCpltCallback
	.p2align	2
	.type	HAL_SPI_RxCpltCallback,%function
	.code	16                              @ @HAL_SPI_RxCpltCallback
	.thumb_func
HAL_SPI_RxCpltCallback:
.Lfunc_begin39:
	.loc	3 459 0                         @ ../Board/v3/board.cpp:459:0
	.fnstart
	.cfi_startproc
@ %bb.0:
	.save	{r7, lr}
	push	{r7, lr}
	.cfi_def_cfa_offset 8
	.cfi_offset lr, -4
	.cfi_offset r7, -8
	.pad	#8
	sub	sp, #8
	.cfi_def_cfa_offset 16
	str	r0, [sp, #4]
.Ltmp117:
	.loc	3 460 30 prologue_end           @ ../Board/v3/board.cpp:460:30
	ldr	r0, [sp, #4]
	.loc	3 460 5 is_stmt 0               @ ../Board/v3/board.cpp:460:5
	bl	HAL_SPI_TxRxCpltCallback
	.loc	3 461 1 epilogue_begin is_stmt 1 @ ../Board/v3/board.cpp:461:1
	add	sp, #8
	pop	{r7, pc}
.Ltmp118:
.Lfunc_end39:
	.size	HAL_SPI_RxCpltCallback, .Lfunc_end39-HAL_SPI_RxCpltCallback
	.cfi_endproc
	.cantunwind
	.fnend
                                        @ -- End function
	.section	.text.TIM5_IRQHandler,"ax",%progbits
	.hidden	TIM5_IRQHandler                 @ -- Begin function TIM5_IRQHandler
	.globl	TIM5_IRQHandler
	.p2align	2
	.type	TIM5_IRQHandler,%function
	.code	16                              @ @TIM5_IRQHandler
	.thumb_func
TIM5_IRQHandler:
.Lfunc_begin40:
	.loc	3 469 0                         @ ../Board/v3/board.cpp:469:0
	.fnstart
	.cfi_startproc
@ %bb.0:
	.save	{r7, lr}
	push	{r7, lr}
	.cfi_def_cfa_offset 8
	.cfi_offset lr, -4
	.cfi_offset r7, -8
.Ltmp119:
	.loc	3 471 16 prologue_end           @ ../Board/v3/board.cpp:471:16
	movw	r0, :lower16:pwm0_input
	movt	r0, :upper16:pwm0_input
	bl	_ZN8PwmInput10on_captureEv
	.loc	3 472 1 epilogue_begin          @ ../Board/v3/board.cpp:472:1
	pop	{r7, pc}
.Ltmp120:
.Lfunc_end40:
	.size	TIM5_IRQHandler, .Lfunc_end40-TIM5_IRQHandler
	.cfi_endproc
	.cantunwind
	.fnend
                                        @ -- End function
	.section	.text.TIM8_UP_TIM13_IRQHandler,"ax",%progbits
	.hidden	TIM8_UP_TIM13_IRQHandler        @ -- Begin function TIM8_UP_TIM13_IRQHandler
	.globl	TIM8_UP_TIM13_IRQHandler
	.p2align	2
	.type	TIM8_UP_TIM13_IRQHandler,%function
	.code	16                              @ @TIM8_UP_TIM13_IRQHandler
	.thumb_func
TIM8_UP_TIM13_IRQHandler:
.Lfunc_begin41:
	.loc	3 477 0                         @ ../Board/v3/board.cpp:477:0
	.fnstart
	.cfi_startproc
@ %bb.0:
	.save	{r7, lr}
	push	{r7, lr}
	.cfi_def_cfa_offset 8
	.cfi_offset lr, -4
	.cfi_offset r7, -8
	.pad	#16
	sub	sp, #16
	.cfi_def_cfa_offset 24
.Ltmp121:
	.loc	3 482 5 prologue_end            @ ../Board/v3/board.cpp:482:5
	movw	r0, :lower16:htim8
	movt	r0, :upper16:htim8
	ldr	r1, [r0]
	mvn	r0, #1
	str	r0, [r1, #16]
	movw	r0, #1024
	movt	r0, #16385
	.loc	3 486 32                        @ ../Board/v3/board.cpp:486:32
	ldr	r0, [r0]
	.loc	3 486 26 is_stmt 0              @ ../Board/v3/board.cpp:486:26
	ubfx	r0, r0, #4, #1
	.loc	3 486 10                        @ ../Board/v3/board.cpp:486:10
	strb.w	r0, [sp, #15]
	.loc	3 488 33 is_stmt 1              @ ../Board/v3/board.cpp:488:33
	movw	r0, :lower16:counting_down_
	movt	r0, :upper16:counting_down_
	ldrb	r0, [r0]
	and	r0, r0, #1
	.loc	3 488 51 is_stmt 0              @ ../Board/v3/board.cpp:488:51
	ldrb.w	r1, [sp, #15]
	and	r1, r1, #1
	.loc	3 488 48                        @ ../Board/v3/board.cpp:488:48
	subs	r0, r0, r1
	clz	r0, r0
	lsrs	r0, r0, #5
	.loc	3 488 10                        @ ../Board/v3/board.cpp:488:10
	strb.w	r0, [sp, #14]
.Ltmp122:
	.loc	3 489 9 is_stmt 1               @ ../Board/v3/board.cpp:489:9
	ldrb.w	r0, [sp, #14]
.Ltmp123:
	.loc	3 489 9 is_stmt 0               @ ../Board/v3/board.cpp:489:9
	lsls	r0, r0, #31
	cbz	r0, .LBB41_2
	b	.LBB41_1
.LBB41_1:
.Ltmp124:
	.loc	3 490 19 is_stmt 1              @ ../Board/v3/board.cpp:490:19
	movw	r0, :lower16:motors
	movt	r0, :upper16:motors
	str	r0, [sp]                        @ 4-byte Spill
	mov.w	r2, #524288
	str	r2, [sp, #4]                    @ 4-byte Spill
	movs	r3, #0
	str	r3, [sp, #8]                    @ 4-byte Spill
	bl	_ZN5Motor17disarm_with_errorEN10ODriveIntf9MotorIntf5ErrorE
	ldr	r0, [sp]                        @ 4-byte Reload
	ldr	r2, [sp, #4]                    @ 4-byte Reload
	ldr	r3, [sp, #8]                    @ 4-byte Reload
	.loc	3 491 19                        @ ../Board/v3/board.cpp:491:19
	add.w	r0, r0, #440
	bl	_ZN5Motor17disarm_with_errorEN10ODriveIntf9MotorIntf5ErrorE
	.loc	3 492 9                         @ ../Board/v3/board.cpp:492:9
	b	.LBB41_5
.Ltmp125:
.LBB41_2:
	.loc	3 494 22                        @ ../Board/v3/board.cpp:494:22
	ldrb.w	r0, [sp, #15]
	.loc	3 494 20 is_stmt 0              @ ../Board/v3/board.cpp:494:20
	and	r0, r0, #1
	movw	r1, :lower16:counting_down_
	movt	r1, :upper16:counting_down_
	strb	r0, [r1]
	.loc	3 496 16 is_stmt 1              @ ../Board/v3/board.cpp:496:16
	movw	r1, :lower16:timestamp_
	movt	r1, :upper16:timestamp_
	ldr	r0, [r1]
	movw	r2, #10500
	add	r0, r2
	str	r0, [r1]
.Ltmp126:
	.loc	3 498 10                        @ ../Board/v3/board.cpp:498:10
	ldrb.w	r0, [sp, #15]
.Ltmp127:
	.loc	3 498 9 is_stmt 0               @ ../Board/v3/board.cpp:498:9
	lsls	r0, r0, #31
	cbnz	r0, .LBB41_4
	b	.LBB41_3
.LBB41_3:
.Ltmp128:
	.loc	3 499 35 is_stmt 1              @ ../Board/v3/board.cpp:499:35
	movw	r0, :lower16:odrv
	movt	r0, :upper16:odrv
	movw	r1, #17120
	ldrb	r1, [r0, r1]
	.loc	3 499 28 is_stmt 0              @ ../Board/v3/board.cpp:499:28
	and	r1, r1, #1
	movw	r2, :lower16:_ZN9TaskTimer7enabledE
	movt	r2, :upper16:_ZN9TaskTimer7enabledE
	strb	r1, [r2]
	.loc	3 502 14 is_stmt 1              @ ../Board/v3/board.cpp:502:14
	bl	_ZN6ODrive11sampling_cbEv
	movw	r1, #61184
	movt	r1, #57344
	movs	r0, #77
	.loc	3 503 20                        @ ../Board/v3/board.cpp:503:20
	str	r0, [r1]
	.loc	3 504 5                         @ ../Board/v3/board.cpp:504:5
	b	.LBB41_5
.Ltmp129:
.LBB41_4:
	.loc	3 0 5 is_stmt 0                 @ ../Board/v3/board.cpp:0:5
	movw	r0, #1084
	movt	r0, #16385
	movw	r1, #1750
.Ltmp130:
	.loc	3 513 20 is_stmt 1              @ ../Board/v3/board.cpp:513:20
	str	r1, [r0]
	ldr	r1, [r0]
	movw	r0, #1080
	movt	r0, #16385
	.loc	3 512 20                        @ ../Board/v3/board.cpp:512:20
	str	r1, [r0]
	ldr	r1, [r0]
	movw	r0, #1076
	movt	r0, #16385
	.loc	3 511 20                        @ ../Board/v3/board.cpp:511:20
	str	r1, [r0]
	ldr	r1, [r0]
	movs	r0, #60
	movt	r0, #16385
	.loc	3 510 20                        @ ../Board/v3/board.cpp:510:20
	str	r1, [r0]
	ldr	r1, [r0]
	movs	r0, #56
	movt	r0, #16385
	.loc	3 509 20                        @ ../Board/v3/board.cpp:509:20
	str	r1, [r0]
	ldr	r0, [r0]
	movs	r1, #52
	movt	r1, #16385
	.loc	3 508 20                        @ ../Board/v3/board.cpp:508:20
	str	r0, [r1]
	b	.LBB41_5
.Ltmp131:
.LBB41_5:
	.loc	3 516 1 epilogue_begin          @ ../Board/v3/board.cpp:516:1
	add	sp, #16
	pop	{r7, pc}
.Ltmp132:
.Lfunc_end41:
	.size	TIM8_UP_TIM13_IRQHandler, .Lfunc_end41-TIM8_UP_TIM13_IRQHandler
	.cfi_endproc
	.cantunwind
	.fnend
                                        @ -- End function
	.section	.text.OTG_HS_IRQHandler,"ax",%progbits
	.hidden	OTG_HS_IRQHandler               @ -- Begin function OTG_HS_IRQHandler
	.globl	OTG_HS_IRQHandler
	.p2align	2
	.type	OTG_HS_IRQHandler,%function
	.code	16                              @ @OTG_HS_IRQHandler
	.thumb_func
OTG_HS_IRQHandler:
.Lfunc_begin42:
	.loc	3 518 0                         @ ../Board/v3/board.cpp:518:0
	.fnstart
	.cfi_startproc
@ %bb.0:
	.save	{r4, lr}
	push	{r4, lr}
	.cfi_def_cfa_offset 8
	.cfi_offset lr, -4
	.cfi_offset r4, -8
	.pad	#216
	sub	sp, #216
	.cfi_def_cfa_offset 224
.Ltmp133:
	.loc	3 520 26 prologue_end           @ ../Board/v3/board.cpp:520:26
	movw	r0, :lower16:timestamp_
	movt	r0, :upper16:timestamp_
	ldr	r0, [r0]
	.loc	3 520 14 is_stmt 0              @ ../Board/v3/board.cpp:520:14
	str	r0, [sp, #212]
	add	r0, sp, #196
	.loc	3 523 30 is_stmt 1              @ ../Board/v3/board.cpp:523:30
	str	r0, [sp, #72]                   @ 4-byte Spill
	bl	_ZNSt3__28optionalI9Iph_ABC_tEC2B7v180000Ev
	add	r0, sp, #180
	.loc	3 524 30                        @ ../Board/v3/board.cpp:524:30
	str	r0, [sp, #76]                   @ 4-byte Spill
	bl	_ZNSt3__28optionalI9Iph_ABC_tEC2B7v180000Ev
	ldr	r0, [sp, #72]                   @ 4-byte Reload
	ldr	r1, [sp, #76]                   @ 4-byte Reload
.Ltmp134:
	.loc	3 526 10                        @ ../Board/v3/board.cpp:526:10
	bl	_ZL20fetch_and_reset_adcsPNSt3__28optionalI9Iph_ABC_tEES3_
.Ltmp135:
	.loc	3 526 9 is_stmt 0               @ ../Board/v3/board.cpp:526:9
	cbnz	r0, .LBB42_2
	b	.LBB42_1
.LBB42_1:
.Ltmp136:
	.loc	3 527 19 is_stmt 1              @ ../Board/v3/board.cpp:527:19
	movw	r0, :lower16:motors
	movt	r0, :upper16:motors
	str	r0, [sp, #60]                   @ 4-byte Spill
	mov.w	r2, #33554432
	str	r2, [sp, #64]                   @ 4-byte Spill
	movs	r3, #0
	str	r3, [sp, #68]                   @ 4-byte Spill
	bl	_ZN5Motor17disarm_with_errorEN10ODriveIntf9MotorIntf5ErrorE
	ldr	r0, [sp, #60]                   @ 4-byte Reload
	ldr	r2, [sp, #64]                   @ 4-byte Reload
	ldr	r3, [sp, #68]                   @ 4-byte Reload
	.loc	3 528 19                        @ ../Board/v3/board.cpp:528:19
	add.w	r0, r0, #440
	bl	_ZN5Motor17disarm_with_errorEN10ODriveIntf9MotorIntf5ErrorE
	.loc	3 529 5                         @ ../Board/v3/board.cpp:529:5
	b	.LBB42_2
.Ltmp137:
.LBB42_2:
	.loc	3 0 5 is_stmt 0                 @ ../Board/v3/board.cpp:0:5
	movs	r0, #68
	movt	r0, #16385
.Ltmp138:
	.loc	3 536 17 is_stmt 1              @ ../Board/v3/board.cpp:536:17
	ldr	r0, [r0]
.Ltmp139:
	.loc	3 536 9 is_stmt 0               @ ../Board/v3/board.cpp:536:9
	lsls	r0, r0, #16
	cmp	r0, #0
	bmi	.LBB42_4
	b	.LBB42_3
.LBB42_3:
	.loc	3 0 9                           @ ../Board/v3/board.cpp:0:9
	movs	r0, #0
.Ltmp140:
	.loc	3 537 20 is_stmt 1              @ ../Board/v3/board.cpp:537:20
	str	r0, [sp, #168]
	str	r0, [sp, #172]
	str	r0, [sp, #176]
	add	r0, sp, #196
	add	r1, sp, #168
	.loc	3 537 18 is_stmt 0              @ ../Board/v3/board.cpp:537:18
	bl	_ZNSt3__28optionalI9Iph_ABC_tEaSB7v180000IS1_vEERS2_OT_
	.loc	3 538 5 is_stmt 1               @ ../Board/v3/board.cpp:538:5
	b	.LBB42_4
.Ltmp141:
.LBB42_4:
	.loc	3 0 5 is_stmt 0                 @ ../Board/v3/board.cpp:0:5
	movw	r0, #1092
	movt	r0, #16385
.Ltmp142:
	.loc	3 539 17 is_stmt 1              @ ../Board/v3/board.cpp:539:17
	ldr	r0, [r0]
.Ltmp143:
	.loc	3 539 9 is_stmt 0               @ ../Board/v3/board.cpp:539:9
	lsls	r0, r0, #16
	cmp	r0, #0
	bmi	.LBB42_6
	b	.LBB42_5
.LBB42_5:
	.loc	3 0 9                           @ ../Board/v3/board.cpp:0:9
	movs	r0, #0
.Ltmp144:
	.loc	3 540 20 is_stmt 1              @ ../Board/v3/board.cpp:540:20
	str	r0, [sp, #156]
	str	r0, [sp, #160]
	str	r0, [sp, #164]
	add	r0, sp, #180
	add	r1, sp, #156
	.loc	3 540 18 is_stmt 0              @ ../Board/v3/board.cpp:540:18
	bl	_ZNSt3__28optionalI9Iph_ABC_tEaSB7v180000IS1_vEERS2_OT_
	.loc	3 541 5 is_stmt 1               @ ../Board/v3/board.cpp:541:5
	b	.LBB42_6
.Ltmp145:
.LBB42_6:
	.loc	3 543 31                        @ ../Board/v3/board.cpp:543:31
	ldr	r0, [sp, #212]
	.loc	3 543 41 is_stmt 0              @ ../Board/v3/board.cpp:543:41
	subw	r1, r0, #1622
	.loc	3 543 60                        @ ../Board/v3/board.cpp:543:60
	ldr	r0, [sp, #196]
	ldr	r2, [sp, #200]
	ldr	r3, [sp, #204]
	ldr.w	r12, [sp, #208]
	str.w	r12, [sp, #152]
	str	r3, [sp, #148]
	str	r2, [sp, #144]
	str	r0, [sp, #140]
	.loc	3 543 15                        @ ../Board/v3/board.cpp:543:15
	ldr	r2, [sp, #140]
	ldr	r3, [sp, #144]
	ldr	r0, [sp, #148]
	ldr.w	lr, [sp, #152]
	mov	r12, sp
	str.w	lr, [r12, #4]
	str.w	r0, [r12]
	movw	r0, :lower16:motors
	movt	r0, :upper16:motors
	str	r0, [sp, #52]                   @ 4-byte Spill
	bl	_ZN5Motor15current_meas_cbEjNSt3__28optionalI9Iph_ABC_tEE
	ldr	r0, [sp, #52]                   @ 4-byte Reload
	.loc	3 544 31 is_stmt 1              @ ../Board/v3/board.cpp:544:31
	ldr	r1, [sp, #212]
	.loc	3 544 42 is_stmt 0              @ ../Board/v3/board.cpp:544:42
	ldr	r2, [sp, #180]
	ldr	r3, [sp, #184]
	ldr.w	r12, [sp, #188]
	ldr.w	lr, [sp, #192]
	str.w	lr, [sp, #136]
	str.w	r12, [sp, #132]
	str	r3, [sp, #128]
	str	r2, [sp, #124]
	.loc	3 544 15                        @ ../Board/v3/board.cpp:544:15
	ldr	r2, [sp, #124]
	ldr	r3, [sp, #128]
	ldr.w	r12, [sp, #132]
	ldr	r4, [sp, #136]
	mov	lr, sp
	str.w	r4, [lr, #4]
	str.w	r12, [lr]
	add.w	r0, r0, #440
	bl	_ZN5Motor15current_meas_cbEjNSt3__28optionalI9Iph_ABC_tEE
	.loc	3 546 26 is_stmt 1              @ ../Board/v3/board.cpp:546:26
	ldr	r1, [sp, #212]
	.loc	3 546 10 is_stmt 0              @ ../Board/v3/board.cpp:546:10
	movw	r0, :lower16:odrv
	movt	r0, :upper16:odrv
	str	r0, [sp, #56]                   @ 4-byte Spill
	bl	_ZN6ODrive15control_loop_cbEj
	ldr	r0, [sp, #56]                   @ 4-byte Reload
	movw	r1, #17172
.Ltmp146:
	.loc	3 550 5 is_stmt 1               @ ../Board/v3/board.cpp:550:5
	add	r1, r0
	add	r0, sp, #112
	bl	_ZN16TaskTimerContextC2ER9TaskTimer
	b	.LBB42_7
.LBB42_7:                               @ =>This Loop Header: Depth=1
                                        @     Child Loop BB42_10 Depth 2
.Ltmp147:
	.loc	3 550 5 is_stmt 0               @ ../Board/v3/board.cpp:550:5
	ldrb.w	r0, [sp, #120]
.Ltmp148:
	.loc	3 550 5                         @ ../Board/v3/board.cpp:550:5
	lsls	r0, r0, #31
	cbz	r0, .LBB42_9
	b	.LBB42_8
.LBB42_8:
	.loc	3 0 5                           @ ../Board/v3/board.cpp:0:5
	add	r0, sp, #112
.Ltmp149:
	.loc	3 550 5                         @ ../Board/v3/board.cpp:550:5
	bl	_ZN16TaskTimerContextD2Ev
	b	.LBB42_14
.LBB42_9:                               @   in Loop: Header=BB42_7 Depth=1
.Ltmp150:
	.loc	3 551 9 is_stmt 1               @ ../Board/v3/board.cpp:551:9
	b	.LBB42_10
.LBB42_10:                              @   Parent Loop BB42_7 Depth=1
                                        @ =>  This Inner Loop Header: Depth=2
	.loc	3 0 9 is_stmt 0                 @ ../Board/v3/board.cpp:0:9
	movw	r0, #8448
	movt	r0, #16385
	.loc	3 551 24                        @ ../Board/v3/board.cpp:551:24
	ldr	r0, [r0]
	.loc	3 551 9                         @ ../Board/v3/board.cpp:551:9
	lsls	r0, r0, #30
	cmp	r0, #0
	bmi	.LBB42_12
	b	.LBB42_11
.LBB42_11:                              @   in Loop: Header=BB42_10 Depth=2
	b	.LBB42_10
.LBB42_12:                              @   in Loop: Header=BB42_7 Depth=1
	.loc	3 552 5 is_stmt 1               @ ../Board/v3/board.cpp:552:5
	b	.LBB42_13
.Ltmp151:
.LBB42_13:                              @   in Loop: Header=BB42_7 Depth=1
	.loc	3 0 5 is_stmt 0                 @ ../Board/v3/board.cpp:0:5
	movs	r0, #1
	.loc	3 550 5 is_stmt 1               @ ../Board/v3/board.cpp:550:5
	strb.w	r0, [sp, #120]
	b	.LBB42_7
.Ltmp152:
.LBB42_14:
	.loc	3 0 5 is_stmt 0                 @ ../Board/v3/board.cpp:0:5
	add	r0, sp, #196
	add	r1, sp, #180
.Ltmp153:
	.loc	3 554 10 is_stmt 1              @ ../Board/v3/board.cpp:554:10
	bl	_ZL20fetch_and_reset_adcsPNSt3__28optionalI9Iph_ABC_tEES3_
.Ltmp154:
	.loc	3 554 9 is_stmt 0               @ ../Board/v3/board.cpp:554:9
	cbnz	r0, .LBB42_16
	b	.LBB42_15
.LBB42_15:
.Ltmp155:
	.loc	3 555 19 is_stmt 1              @ ../Board/v3/board.cpp:555:19
	movw	r0, :lower16:motors
	movt	r0, :upper16:motors
	str	r0, [sp, #40]                   @ 4-byte Spill
	mov.w	r2, #33554432
	str	r2, [sp, #44]                   @ 4-byte Spill
	movs	r3, #0
	str	r3, [sp, #48]                   @ 4-byte Spill
	bl	_ZN5Motor17disarm_with_errorEN10ODriveIntf9MotorIntf5ErrorE
	ldr	r0, [sp, #40]                   @ 4-byte Reload
	ldr	r2, [sp, #44]                   @ 4-byte Reload
	ldr	r3, [sp, #48]                   @ 4-byte Reload
	.loc	3 556 19                        @ ../Board/v3/board.cpp:556:19
	add.w	r0, r0, #440
	bl	_ZN5Motor17disarm_with_errorEN10ODriveIntf9MotorIntf5ErrorE
	.loc	3 557 5                         @ ../Board/v3/board.cpp:557:5
	b	.LBB42_16
.Ltmp156:
.LBB42_16:
	.loc	3 559 27                        @ ../Board/v3/board.cpp:559:27
	ldr	r0, [sp, #212]
	movw	r1, #8878
	.loc	3 559 81 is_stmt 0              @ ../Board/v3/board.cpp:559:81
	add	r1, r0
	.loc	3 559 100                       @ ../Board/v3/board.cpp:559:100
	ldr	r0, [sp, #196]
	ldr	r2, [sp, #200]
	ldr	r3, [sp, #204]
	ldr.w	r12, [sp, #208]
	str.w	r12, [sp, #108]
	str	r3, [sp, #104]
	str	r2, [sp, #100]
	str	r0, [sp, #96]
	.loc	3 559 15                        @ ../Board/v3/board.cpp:559:15
	ldr	r2, [sp, #96]
	ldr	r3, [sp, #100]
	ldr	r0, [sp, #104]
	ldr.w	lr, [sp, #108]
	mov	r12, sp
	str.w	lr, [r12, #4]
	str.w	r0, [r12]
	movw	r0, :lower16:motors
	movt	r0, :upper16:motors
	str	r0, [sp, #28]                   @ 4-byte Spill
	bl	_ZN5Motor11dc_calib_cbEjNSt3__28optionalI9Iph_ABC_tEE
	ldr	r0, [sp, #28]                   @ 4-byte Reload
	.loc	3 560 27 is_stmt 1              @ ../Board/v3/board.cpp:560:27
	ldr	r1, [sp, #212]
	movw	r2, #10500
	.loc	3 560 37 is_stmt 0              @ ../Board/v3/board.cpp:560:37
	str	r2, [sp, #36]                   @ 4-byte Spill
	add	r1, r2
	.loc	3 560 82                        @ ../Board/v3/board.cpp:560:82
	ldr	r2, [sp, #180]
	ldr	r3, [sp, #184]
	ldr.w	r12, [sp, #188]
	ldr.w	lr, [sp, #192]
	str.w	lr, [sp, #92]
	str.w	r12, [sp, #88]
	str	r3, [sp, #84]
	str	r2, [sp, #80]
	.loc	3 560 15                        @ ../Board/v3/board.cpp:560:15
	ldr	r2, [sp, #80]
	ldr	r3, [sp, #84]
	ldr.w	r12, [sp, #88]
	ldr	r4, [sp, #92]
	mov	lr, sp
	str.w	r4, [lr, #4]
	str.w	r12, [lr]
	add.w	r0, r0, #440
	str	r0, [sp, #32]                   @ 4-byte Spill
	bl	_ZN5Motor11dc_calib_cbEjNSt3__28optionalI9Iph_ABC_tEE
	ldr	r0, [sp, #28]                   @ 4-byte Reload
	.loc	3 562 29 is_stmt 1              @ ../Board/v3/board.cpp:562:29
	ldr	r1, [sp, #212]
	movw	r2, #29878
	.loc	3 562 87 is_stmt 0              @ ../Board/v3/board.cpp:562:87
	add	r1, r2
	.loc	3 562 15                        @ ../Board/v3/board.cpp:562:15
	bl	_ZN5Motor13pwm_update_cbEj
	ldr	r0, [sp, #32]                   @ 4-byte Reload
	.loc	3 563 29 is_stmt 1              @ ../Board/v3/board.cpp:563:29
	ldr	r1, [sp, #212]
	movw	r2, #31500
	.loc	3 563 39 is_stmt 0              @ ../Board/v3/board.cpp:563:39
	add	r1, r2
	.loc	3 563 15                        @ ../Board/v3/board.cpp:563:15
	bl	_ZN5Motor13pwm_update_cbEj
	ldr	r2, [sp, #36]                   @ 4-byte Reload
.Ltmp157:
	.loc	3 568 9 is_stmt 1               @ ../Board/v3/board.cpp:568:9
	movw	r0, :lower16:timestamp_
	movt	r0, :upper16:timestamp_
	ldr	r0, [r0]
	.loc	3 568 23 is_stmt 0              @ ../Board/v3/board.cpp:568:23
	ldr	r1, [sp, #212]
	.loc	3 568 33                        @ ../Board/v3/board.cpp:568:33
	add	r1, r2
.Ltmp158:
	.loc	3 568 9                         @ ../Board/v3/board.cpp:568:9
	cmp	r0, r1
	beq	.LBB42_18
	b	.LBB42_17
.LBB42_17:
.Ltmp159:
	.loc	3 569 19 is_stmt 1              @ ../Board/v3/board.cpp:569:19
	movw	r0, :lower16:motors
	movt	r0, :upper16:motors
	str	r0, [sp, #16]                   @ 4-byte Spill
	movs	r2, #16
	str	r2, [sp, #20]                   @ 4-byte Spill
	movs	r3, #0
	str	r3, [sp, #24]                   @ 4-byte Spill
	bl	_ZN5Motor17disarm_with_errorEN10ODriveIntf9MotorIntf5ErrorE
	ldr	r0, [sp, #16]                   @ 4-byte Reload
	ldr	r2, [sp, #20]                   @ 4-byte Reload
	ldr	r3, [sp, #24]                   @ 4-byte Reload
	.loc	3 570 19                        @ ../Board/v3/board.cpp:570:19
	add.w	r0, r0, #440
	bl	_ZN5Motor17disarm_with_errorEN10ODriveIntf9MotorIntf5ErrorE
	.loc	3 571 5                         @ ../Board/v3/board.cpp:571:5
	b	.LBB42_18
.Ltmp160:
.LBB42_18:
	.loc	3 573 36                        @ ../Board/v3/board.cpp:573:36
	movw	r0, :lower16:odrv
	movt	r0, :upper16:odrv
	movw	r1, #17120
	ldrb	r1, [r0, r1]
	movs	r0, #0
	.loc	3 573 55 is_stmt 0              @ ../Board/v3/board.cpp:573:55
	lsls	r1, r1, #31
	str	r0, [sp, #12]                   @ 4-byte Spill
	cbz	r1, .LBB42_20
	b	.LBB42_19
.LBB42_19:
	.loc	3 573 59                        @ ../Board/v3/board.cpp:573:59
	movw	r0, :lower16:_ZN9TaskTimer7enabledE
	movt	r0, :upper16:_ZN9TaskTimer7enabledE
	ldrb	r0, [r0]
	.loc	3 573 58                        @ ../Board/v3/board.cpp:573:58
	eor	r0, r0, #1
	str	r0, [sp, #12]                   @ 4-byte Spill
	b	.LBB42_20
.LBB42_20:
	.loc	3 0 0                           @ ../Board/v3/board.cpp:0:0
	ldr	r0, [sp, #12]                   @ 4-byte Reload
	.loc	3 573 29                        @ ../Board/v3/board.cpp:573:29
	and	r0, r0, #1
	movw	r1, :lower16:odrv
	movt	r1, :upper16:odrv
	movw	r2, #17120
	strb	r0, [r1, r2]
	.loc	3 574 24 is_stmt 1              @ ../Board/v3/board.cpp:574:24
	movw	r1, :lower16:_ZN9TaskTimer7enabledE
	movt	r1, :upper16:_ZN9TaskTimer7enabledE
	movs	r0, #0
	strb	r0, [r1]
	.loc	3 575 1 epilogue_begin          @ ../Board/v3/board.cpp:575:1
	add	sp, #216
	pop	{r4, pc}
.Ltmp161:
.Lfunc_end42:
	.size	OTG_HS_IRQHandler, .Lfunc_end42-OTG_HS_IRQHandler
	.cfi_endproc
	.cantunwind
	.fnend
                                        @ -- End function
	.section	.text._ZNSt3__28optionalI9Iph_ABC_tEC2B7v180000Ev,"axG",%progbits,_ZNSt3__28optionalI9Iph_ABC_tEC2B7v180000Ev,comdat
	.hidden	_ZNSt3__28optionalI9Iph_ABC_tEC2B7v180000Ev @ -- Begin function _ZNSt3__28optionalI9Iph_ABC_tEC2B7v180000Ev
	.weak	_ZNSt3__28optionalI9Iph_ABC_tEC2B7v180000Ev
	.p2align	2
	.type	_ZNSt3__28optionalI9Iph_ABC_tEC2B7v180000Ev,%function
	.code	16                              @ @_ZNSt3__28optionalI9Iph_ABC_tEC2B7v180000Ev
	.thumb_func
_ZNSt3__28optionalI9Iph_ABC_tEC2B7v180000Ev:
.Lfunc_begin43:
	.loc	18 800 0                        @ D:\Embed\MDK\MDK\ARM\ARMCompilerV621\Bin\..\include\libcxx\optional:800:0
	.fnstart
	.cfi_startproc
@ %bb.0:
	.save	{r7, lr}
	push	{r7, lr}
	.cfi_def_cfa_offset 8
	.cfi_offset lr, -4
	.cfi_offset r7, -8
	.pad	#8
	sub	sp, #8
	.cfi_def_cfa_offset 16
	str	r0, [sp, #4]
	ldr	r0, [sp, #4]
.Ltmp162:
	.loc	18 800 41 prologue_end          @ D:\Embed\MDK\MDK\ARM\ARMCompilerV621\Bin\..\include\libcxx\optional:800:41
	str	r0, [sp]                        @ 4-byte Spill
	bl	_ZNSt3__227__optional_move_assign_baseI9Iph_ABC_tLb1EEC2Ev
	ldr	r0, [sp]                        @ 4-byte Reload
	.loc	18 800 62 epilogue_begin is_stmt 0 @ D:\Embed\MDK\MDK\ARM\ARMCompilerV621\Bin\..\include\libcxx\optional:800:62
	add	sp, #8
	pop	{r7, pc}
.Ltmp163:
.Lfunc_end43:
	.size	_ZNSt3__28optionalI9Iph_ABC_tEC2B7v180000Ev, .Lfunc_end43-_ZNSt3__28optionalI9Iph_ABC_tEC2B7v180000Ev
	.cfi_endproc
	.cantunwind
	.fnend
                                        @ -- End function
	.section	.text._ZL20fetch_and_reset_adcsPNSt3__28optionalI9Iph_ABC_tEES3_,"ax",%progbits
	.p2align	2                               @ -- Begin function _ZL20fetch_and_reset_adcsPNSt3__28optionalI9Iph_ABC_tEES3_
	.type	_ZL20fetch_and_reset_adcsPNSt3__28optionalI9Iph_ABC_tEES3_,%function
	.code	16                              @ @_ZL20fetch_and_reset_adcsPNSt3__28optionalI9Iph_ABC_tEES3_
	.thumb_func
_ZL20fetch_and_reset_adcsPNSt3__28optionalI9Iph_ABC_tEES3_:
.Lfunc_begin44:
	.loc	3 420 0 is_stmt 1               @ ../Board/v3/board.cpp:420:0
	.fnstart
	.cfi_startproc
@ %bb.0:
	.save	{r7, lr}
	push	{r7, lr}
	.cfi_def_cfa_offset 8
	.cfi_offset lr, -4
	.cfi_offset r7, -8
	.pad	#120
	sub	sp, #120
	.cfi_def_cfa_offset 128
	str	r0, [sp, #112]
	str	r1, [sp, #108]
	movw	r0, #8192
	movt	r0, #16385
.Ltmp164:
	.loc	3 421 33 prologue_end           @ ../Board/v3/board.cpp:421:33
	ldr	r1, [r0]
	movs	r0, #0
	.loc	3 422 9                         @ ../Board/v3/board.cpp:422:9
	lsls	r1, r1, #29
	cmp	r1, #0
	str	r0, [sp, #44]                   @ 4-byte Spill
	bpl	.LBB44_3
	b	.LBB44_1
.LBB44_1:
	.loc	3 0 9 is_stmt 0                 @ ../Board/v3/board.cpp:0:9
	movw	r0, #8448
	movt	r0, #16385
	.loc	3 422 19                        @ ../Board/v3/board.cpp:422:19
	ldr	r0, [r0]
	.loc	3 422 22                        @ ../Board/v3/board.cpp:422:22
	and	r1, r0, #6
	movs	r0, #0
	.loc	3 423 9 is_stmt 1               @ ../Board/v3/board.cpp:423:9
	cmp	r1, #6
	str	r0, [sp, #44]                   @ 4-byte Spill
	bne	.LBB44_3
	b	.LBB44_2
.LBB44_2:
	.loc	3 0 9 is_stmt 0                 @ ../Board/v3/board.cpp:0:9
	movw	r0, #8704
	movt	r0, #16385
	.loc	3 423 19                        @ ../Board/v3/board.cpp:423:19
	ldr	r0, [r0]
	.loc	3 423 22                        @ ../Board/v3/board.cpp:423:22
	and	r0, r0, #6
	.loc	3 423 52                        @ ../Board/v3/board.cpp:423:52
	subs	r0, #6
	clz	r0, r0
	lsrs	r0, r0, #5
	str	r0, [sp, #44]                   @ 4-byte Spill
	b	.LBB44_3
.LBB44_3:
	.loc	3 0 0                           @ ../Board/v3/board.cpp:0:0
	ldr	r0, [sp, #44]                   @ 4-byte Reload
	.loc	3 421 10 is_stmt 1              @ ../Board/v3/board.cpp:421:10
	and	r0, r0, #1
	strb.w	r0, [sp, #107]
.Ltmp165:
	.loc	3 424 10                        @ ../Board/v3/board.cpp:424:10
	ldrb.w	r0, [sp, #107]
.Ltmp166:
	.loc	3 424 9 is_stmt 0               @ ../Board/v3/board.cpp:424:9
	lsls	r0, r0, #31
	cbnz	r0, .LBB44_5
	b	.LBB44_4
.LBB44_4:
	.loc	3 0 9                           @ ../Board/v3/board.cpp:0:9
	movs	r0, #0
.Ltmp167:
	.loc	3 425 9 is_stmt 1               @ ../Board/v3/board.cpp:425:9
	strb.w	r0, [sp, #119]
	b	.LBB44_16
.Ltmp168:
.LBB44_5:
	.loc	3 0 9 is_stmt 0                 @ ../Board/v3/board.cpp:0:9
	movw	r0, #8252
	movt	r0, #16385
	.loc	3 428 29 is_stmt 1              @ ../Board/v3/board.cpp:428:29
	ldr	r0, [r0]
	.loc	3 428 5 is_stmt 0               @ ../Board/v3/board.cpp:428:5
	bl	vbus_sense_adc_cb
.Ltmp169:
	.loc	3 430 24 is_stmt 1              @ ../Board/v3/board.cpp:430:24
	movw	r0, :lower16:m0_gate_driver
	movt	r0, :upper16:m0_gate_driver
	bl	_ZN7Drv83018is_readyEv
.Ltmp170:
	.loc	3 430 9 is_stmt 0               @ ../Board/v3/board.cpp:430:9
	cmp	r0, #0
	beq	.LBB44_10
	b	.LBB44_6
.LBB44_6:
	.loc	3 0 9                           @ ../Board/v3/board.cpp:0:9
	movw	r0, #8508
	movt	r0, #16385
.Ltmp171:
	.loc	3 431 78 is_stmt 1              @ ../Board/v3/board.cpp:431:78
	ldr	r2, [r0]
	.loc	3 431 46 is_stmt 0              @ ../Board/v3/board.cpp:431:46
	movw	r1, :lower16:motors
	movt	r1, :upper16:motors
	str	r1, [sp, #36]                   @ 4-byte Spill
	add	r0, sp, #96
	str	r0, [sp, #40]                   @ 4-byte Spill
	bl	_ZN5Motor25phase_current_from_adcvalEj
	ldr	r1, [sp, #36]                   @ 4-byte Reload
	movw	r0, #8764
	movt	r0, #16385
	.loc	3 432 78 is_stmt 1              @ ../Board/v3/board.cpp:432:78
	ldr	r2, [r0]
	add	r0, sp, #88
	.loc	3 432 46 is_stmt 0              @ ../Board/v3/board.cpp:432:46
	bl	_ZN5Motor25phase_current_from_adcvalEj
	ldr	r0, [sp, #40]                   @ 4-byte Reload
.Ltmp172:
	.loc	3 433 17 is_stmt 1              @ ../Board/v3/board.cpp:433:17
	bl	_ZNKSt3__223__optional_storage_baseIfLb0EE9has_valueB7v180000Ev
	.loc	3 433 29 is_stmt 0              @ ../Board/v3/board.cpp:433:29
	cbz	r0, .LBB44_9
	b	.LBB44_7
.LBB44_7:
	.loc	3 0 29                          @ ../Board/v3/board.cpp:0:29
	add	r0, sp, #88
	.loc	3 433 36                        @ ../Board/v3/board.cpp:433:36
	bl	_ZNKSt3__223__optional_storage_baseIfLb0EE9has_valueB7v180000Ev
.Ltmp173:
	.loc	3 433 13                        @ ../Board/v3/board.cpp:433:13
	cbz	r0, .LBB44_9
	b	.LBB44_8
.LBB44_8:
	.loc	3 0 13                          @ ../Board/v3/board.cpp:0:13
	add	r0, sp, #96
.Ltmp174:
	.loc	3 434 27 is_stmt 1              @ ../Board/v3/board.cpp:434:27
	str	r0, [sp, #28]                   @ 4-byte Spill
	bl	_ZNRSt3__28optionalIfEdeB7v180000Ev
	vldr	s0, [r0]
	.loc	3 434 26 is_stmt 0              @ ../Board/v3/board.cpp:434:26
	vneg.f32	s0, s0
	vstr	s0, [sp, #24]                   @ 4-byte Spill
	add	r0, sp, #88
	.loc	3 434 34                        @ ../Board/v3/board.cpp:434:34
	str	r0, [sp, #32]                   @ 4-byte Spill
	bl	_ZNRSt3__28optionalIfEdeB7v180000Ev
	vldr	s0, [sp, #24]                   @ 4-byte Reload
	mov	r1, r0
	ldr	r0, [sp, #28]                   @ 4-byte Reload
	vldr	s2, [r1]
	.loc	3 434 32                        @ ../Board/v3/board.cpp:434:32
	vsub.f32	s0, s0, s2
	.loc	3 434 25                        @ ../Board/v3/board.cpp:434:25
	vstr	s0, [sp, #76]
	.loc	3 434 40                        @ ../Board/v3/board.cpp:434:40
	bl	_ZNRSt3__28optionalIfEdeB7v180000Ev
	mov	r1, r0
	ldr	r0, [sp, #32]                   @ 4-byte Reload
	ldr	r1, [r1]
	.loc	3 434 25                        @ ../Board/v3/board.cpp:434:25
	str	r1, [sp, #80]
	.loc	3 434 46                        @ ../Board/v3/board.cpp:434:46
	bl	_ZNRSt3__28optionalIfEdeB7v180000Ev
	ldr	r0, [r0]
	.loc	3 434 25                        @ ../Board/v3/board.cpp:434:25
	str	r0, [sp, #84]
	.loc	3 434 14                        @ ../Board/v3/board.cpp:434:14
	ldr	r0, [sp, #112]
	add	r1, sp, #76
	.loc	3 434 23                        @ ../Board/v3/board.cpp:434:23
	bl	_ZNSt3__28optionalI9Iph_ABC_tEaSB7v180000IS1_vEERS2_OT_
	.loc	3 435 9 is_stmt 1               @ ../Board/v3/board.cpp:435:9
	b	.LBB44_9
.Ltmp175:
.LBB44_9:
	.loc	3 436 5                         @ ../Board/v3/board.cpp:436:5
	b	.LBB44_10
.Ltmp176:
.LBB44_10:
	.loc	3 438 24                        @ ../Board/v3/board.cpp:438:24
	movw	r0, :lower16:m1_gate_driver
	movt	r0, :upper16:m1_gate_driver
	bl	_ZN7Drv83018is_readyEv
.Ltmp177:
	.loc	3 438 9 is_stmt 0               @ ../Board/v3/board.cpp:438:9
	cmp	r0, #0
	beq	.LBB44_15
	b	.LBB44_11
.LBB44_11:
	.loc	3 0 9                           @ ../Board/v3/board.cpp:0:9
	movw	r0, #8524
	movt	r0, #16385
.Ltmp178:
	.loc	3 439 78 is_stmt 1              @ ../Board/v3/board.cpp:439:78
	ldr	r2, [r0]
	.loc	3 439 46 is_stmt 0              @ ../Board/v3/board.cpp:439:46
	movw	r0, :lower16:motors
	movt	r0, :upper16:motors
	add.w	r1, r0, #440
	str	r1, [sp, #16]                   @ 4-byte Spill
	add	r0, sp, #68
	str	r0, [sp, #20]                   @ 4-byte Spill
	bl	_ZN5Motor25phase_current_from_adcvalEj
	ldr	r1, [sp, #16]                   @ 4-byte Reload
	movw	r0, #8780
	movt	r0, #16385
	.loc	3 440 78 is_stmt 1              @ ../Board/v3/board.cpp:440:78
	ldr	r2, [r0]
	add	r0, sp, #60
	.loc	3 440 46 is_stmt 0              @ ../Board/v3/board.cpp:440:46
	bl	_ZN5Motor25phase_current_from_adcvalEj
	ldr	r0, [sp, #20]                   @ 4-byte Reload
.Ltmp179:
	.loc	3 441 17 is_stmt 1              @ ../Board/v3/board.cpp:441:17
	bl	_ZNKSt3__223__optional_storage_baseIfLb0EE9has_valueB7v180000Ev
	.loc	3 441 29 is_stmt 0              @ ../Board/v3/board.cpp:441:29
	cbz	r0, .LBB44_14
	b	.LBB44_12
.LBB44_12:
	.loc	3 0 29                          @ ../Board/v3/board.cpp:0:29
	add	r0, sp, #60
	.loc	3 441 36                        @ ../Board/v3/board.cpp:441:36
	bl	_ZNKSt3__223__optional_storage_baseIfLb0EE9has_valueB7v180000Ev
.Ltmp180:
	.loc	3 441 13                        @ ../Board/v3/board.cpp:441:13
	cbz	r0, .LBB44_14
	b	.LBB44_13
.LBB44_13:
	.loc	3 0 13                          @ ../Board/v3/board.cpp:0:13
	add	r0, sp, #68
.Ltmp181:
	.loc	3 442 27 is_stmt 1              @ ../Board/v3/board.cpp:442:27
	str	r0, [sp, #8]                    @ 4-byte Spill
	bl	_ZNRSt3__28optionalIfEdeB7v180000Ev
	vldr	s0, [r0]
	.loc	3 442 26 is_stmt 0              @ ../Board/v3/board.cpp:442:26
	vneg.f32	s0, s0
	vstr	s0, [sp, #4]                    @ 4-byte Spill
	add	r0, sp, #60
	.loc	3 442 34                        @ ../Board/v3/board.cpp:442:34
	str	r0, [sp, #12]                   @ 4-byte Spill
	bl	_ZNRSt3__28optionalIfEdeB7v180000Ev
	vldr	s0, [sp, #4]                    @ 4-byte Reload
	mov	r1, r0
	ldr	r0, [sp, #8]                    @ 4-byte Reload
	vldr	s2, [r1]
	.loc	3 442 32                        @ ../Board/v3/board.cpp:442:32
	vsub.f32	s0, s0, s2
	.loc	3 442 25                        @ ../Board/v3/board.cpp:442:25
	vstr	s0, [sp, #48]
	.loc	3 442 40                        @ ../Board/v3/board.cpp:442:40
	bl	_ZNRSt3__28optionalIfEdeB7v180000Ev
	mov	r1, r0
	ldr	r0, [sp, #12]                   @ 4-byte Reload
	ldr	r1, [r1]
	.loc	3 442 25                        @ ../Board/v3/board.cpp:442:25
	str	r1, [sp, #52]
	.loc	3 442 46                        @ ../Board/v3/board.cpp:442:46
	bl	_ZNRSt3__28optionalIfEdeB7v180000Ev
	ldr	r0, [r0]
	.loc	3 442 25                        @ ../Board/v3/board.cpp:442:25
	str	r0, [sp, #56]
	.loc	3 442 14                        @ ../Board/v3/board.cpp:442:14
	ldr	r0, [sp, #108]
	add	r1, sp, #48
	.loc	3 442 23                        @ ../Board/v3/board.cpp:442:23
	bl	_ZNSt3__28optionalI9Iph_ABC_tEaSB7v180000IS1_vEERS2_OT_
	.loc	3 443 9 is_stmt 1               @ ../Board/v3/board.cpp:443:9
	b	.LBB44_14
.Ltmp182:
.LBB44_14:
	.loc	3 444 5                         @ ../Board/v3/board.cpp:444:5
	b	.LBB44_15
.Ltmp183:
.LBB44_15:
	.loc	3 0 5 is_stmt 0                 @ ../Board/v3/board.cpp:0:5
	movw	r1, #8192
	movt	r1, #16385
	mvn	r0, #4
	.loc	3 446 14 is_stmt 1              @ ../Board/v3/board.cpp:446:14
	str	r0, [r1]
	movw	r1, #8448
	movt	r1, #16385
	mvn	r0, #38
	.loc	3 447 14                        @ ../Board/v3/board.cpp:447:14
	str	r0, [r1]
	movw	r1, #8704
	movt	r1, #16385
	.loc	3 448 14                        @ ../Board/v3/board.cpp:448:14
	str	r0, [r1]
	movs	r0, #1
	.loc	3 450 5                         @ ../Board/v3/board.cpp:450:5
	strb.w	r0, [sp, #119]
	b	.LBB44_16
.LBB44_16:
	.loc	3 451 1                         @ ../Board/v3/board.cpp:451:1
	ldrb.w	r0, [sp, #119]
	.loc	3 451 1 epilogue_begin is_stmt 0 @ ../Board/v3/board.cpp:451:1
	add	sp, #120
	pop	{r7, pc}
.Ltmp184:
.Lfunc_end44:
	.size	_ZL20fetch_and_reset_adcsPNSt3__28optionalI9Iph_ABC_tEES3_, .Lfunc_end44-_ZL20fetch_and_reset_adcsPNSt3__28optionalI9Iph_ABC_tEES3_
	.cfi_endproc
	.cantunwind
	.fnend
                                        @ -- End function
	.section	.text._ZNSt3__28optionalI9Iph_ABC_tEaSB7v180000IS1_vEERS2_OT_,"axG",%progbits,_ZNSt3__28optionalI9Iph_ABC_tEaSB7v180000IS1_vEERS2_OT_,comdat
	.hidden	_ZNSt3__28optionalI9Iph_ABC_tEaSB7v180000IS1_vEERS2_OT_ @ -- Begin function _ZNSt3__28optionalI9Iph_ABC_tEaSB7v180000IS1_vEERS2_OT_
	.weak	_ZNSt3__28optionalI9Iph_ABC_tEaSB7v180000IS1_vEERS2_OT_
	.p2align	2
	.type	_ZNSt3__28optionalI9Iph_ABC_tEaSB7v180000IS1_vEERS2_OT_,%function
	.code	16                              @ @_ZNSt3__28optionalI9Iph_ABC_tEaSB7v180000IS1_vEERS2_OT_
	.thumb_func
_ZNSt3__28optionalI9Iph_ABC_tEaSB7v180000IS1_vEERS2_OT_:
.Lfunc_begin45:
	.loc	18 907 0 is_stmt 1              @ D:\Embed\MDK\MDK\ARM\ARMCompilerV621\Bin\..\include\libcxx\optional:907:0
	.fnstart
	.cfi_startproc
@ %bb.0:
	.save	{r7, lr}
	push	{r7, lr}
	.cfi_def_cfa_offset 8
	.cfi_offset lr, -4
	.cfi_offset r7, -8
	.pad	#16
	sub	sp, #16
	.cfi_def_cfa_offset 24
	str	r0, [sp, #12]
	str	r1, [sp, #8]
	ldr	r0, [sp, #12]
.Ltmp185:
	.loc	18 908 19 prologue_end          @ D:\Embed\MDK\MDK\ARM\ARMCompilerV621\Bin\..\include\libcxx\optional:908:19
	str	r0, [sp, #4]                    @ 4-byte Spill
	bl	_ZNKSt3__223__optional_storage_baseI9Iph_ABC_tLb0EE9has_valueB7v180000Ev
.Ltmp186:
	.loc	18 908 13 is_stmt 0             @ D:\Embed\MDK\MDK\ARM\ARMCompilerV621\Bin\..\include\libcxx\optional:908:13
	cbz	r0, .LBB45_2
	b	.LBB45_1
.LBB45_1:
.Ltmp187:
	.loc	18 909 49 is_stmt 1             @ D:\Embed\MDK\MDK\ARM\ARMCompilerV621\Bin\..\include\libcxx\optional:909:49
	ldr	r0, [sp, #4]                    @ 4-byte Reload
	ldr	r1, [sp, #8]
	.loc	18 909 19 is_stmt 0             @ D:\Embed\MDK\MDK\ARM\ARMCompilerV621\Bin\..\include\libcxx\optional:909:19
	str	r1, [sp]                        @ 4-byte Spill
	bl	_ZNRSt3__223__optional_storage_baseI9Iph_ABC_tLb0EE5__getB7v180000Ev
	ldr	r3, [sp]                        @ 4-byte Reload
	mov	r1, r0
	.loc	18 909 27                       @ D:\Embed\MDK\MDK\ARM\ARMCompilerV621\Bin\..\include\libcxx\optional:909:27
	ldr	r0, [r3]
	ldr	r2, [r3, #4]
	ldr	r3, [r3, #8]
	str	r3, [r1, #8]
	str	r2, [r1, #4]
	str	r0, [r1]
	.loc	18 909 13                       @ D:\Embed\MDK\MDK\ARM\ARMCompilerV621\Bin\..\include\libcxx\optional:909:13
	b	.LBB45_3
.LBB45_2:
	.loc	18 911 51 is_stmt 1             @ D:\Embed\MDK\MDK\ARM\ARMCompilerV621\Bin\..\include\libcxx\optional:911:51
	ldr	r0, [sp, #4]                    @ 4-byte Reload
	ldr	r1, [sp, #8]
	.loc	18 911 19 is_stmt 0             @ D:\Embed\MDK\MDK\ARM\ARMCompilerV621\Bin\..\include\libcxx\optional:911:19
	bl	_ZNSt3__223__optional_storage_baseI9Iph_ABC_tLb0EE11__constructB7v180000IJS1_EEEvDpOT_
	b	.LBB45_3
.Ltmp188:
.LBB45_3:
	.loc	18 912 9 is_stmt 1              @ D:\Embed\MDK\MDK\ARM\ARMCompilerV621\Bin\..\include\libcxx\optional:912:9
	ldr	r0, [sp, #4]                    @ 4-byte Reload
	.loc	18 912 9 epilogue_begin is_stmt 0 @ D:\Embed\MDK\MDK\ARM\ARMCompilerV621\Bin\..\include\libcxx\optional:912:9
	add	sp, #16
	pop	{r7, pc}
.Ltmp189:
.Lfunc_end45:
	.size	_ZNSt3__28optionalI9Iph_ABC_tEaSB7v180000IS1_vEERS2_OT_, .Lfunc_end45-_ZNSt3__28optionalI9Iph_ABC_tEaSB7v180000IS1_vEERS2_OT_
	.cfi_endproc
	.cantunwind
	.fnend
                                        @ -- End function
	.section	.text._ZN16TaskTimerContextC2ER9TaskTimer,"axG",%progbits,_ZN16TaskTimerContextC2ER9TaskTimer,comdat
	.hidden	_ZN16TaskTimerContextC2ER9TaskTimer @ -- Begin function _ZN16TaskTimerContextC2ER9TaskTimer
	.weak	_ZN16TaskTimerContextC2ER9TaskTimer
	.p2align	2
	.type	_ZN16TaskTimerContextC2ER9TaskTimer,%function
	.code	16                              @ @_ZN16TaskTimerContextC2ER9TaskTimer
	.thumb_func
_ZN16TaskTimerContextC2ER9TaskTimer:
.Lfunc_begin46:
	.loc	2 55 0 is_stmt 1                @ ../MotorControl\task_timer.hpp:55:0
	.fnstart
	.cfi_startproc
@ %bb.0:
	.save	{r7, lr}
	push	{r7, lr}
	.cfi_def_cfa_offset 8
	.cfi_offset lr, -4
	.cfi_offset r7, -8
	.pad	#16
	sub	sp, #16
	.cfi_def_cfa_offset 24
	str	r0, [sp, #12]
	str	r1, [sp, #8]
	ldr	r1, [sp, #12]
.Ltmp190:
	.loc	2 55 49 prologue_end            @ ../MotorControl\task_timer.hpp:55:49
	str	r1, [sp, #4]                    @ 4-byte Spill
	ldr	r0, [sp, #8]
	.loc	2 55 42 is_stmt 0               @ ../MotorControl\task_timer.hpp:55:42
	str	r0, [r1]
	.loc	2 55 68                         @ ../MotorControl\task_timer.hpp:55:68
	ldr	r0, [sp, #8]
	.loc	2 55 74                         @ ../MotorControl\task_timer.hpp:55:74
	bl	_ZN9TaskTimer5startEv
	mov	r1, r0
	.loc	2 55 57                         @ ../MotorControl\task_timer.hpp:55:57
	ldr	r0, [sp, #4]                    @ 4-byte Reload
	str	r1, [r0, #4]
	movs	r1, #0
	.loc	2 60 10 is_stmt 1               @ ../MotorControl\task_timer.hpp:60:10
	strb	r1, [r0, #8]
	.loc	2 55 84 epilogue_begin          @ ../MotorControl\task_timer.hpp:55:84
	add	sp, #16
	pop	{r7, pc}
.Ltmp191:
.Lfunc_end46:
	.size	_ZN16TaskTimerContextC2ER9TaskTimer, .Lfunc_end46-_ZN16TaskTimerContextC2ER9TaskTimer
	.cfi_endproc
	.cantunwind
	.fnend
                                        @ -- End function
	.section	.text._ZN16TaskTimerContextD2Ev,"axG",%progbits,_ZN16TaskTimerContextD2Ev,comdat
	.hidden	_ZN16TaskTimerContextD2Ev       @ -- Begin function _ZN16TaskTimerContextD2Ev
	.weak	_ZN16TaskTimerContextD2Ev
	.p2align	2
	.type	_ZN16TaskTimerContextD2Ev,%function
	.code	16                              @ @_ZN16TaskTimerContextD2Ev
	.thumb_func
_ZN16TaskTimerContextD2Ev:
.Lfunc_begin47:
	.loc	2 56 0                          @ ../MotorControl\task_timer.hpp:56:0
	.fnstart
	.cfi_startproc
@ %bb.0:
	.save	{r7, lr}
	push	{r7, lr}
	.cfi_def_cfa_offset 8
	.cfi_offset lr, -4
	.cfi_offset r7, -8
	.pad	#8
	sub	sp, #8
	.cfi_def_cfa_offset 16
	str	r0, [sp, #4]
	ldr	r1, [sp, #4]
.Ltmp192:
	.loc	2 56 27 prologue_end            @ ../MotorControl\task_timer.hpp:56:27
	str	r1, [sp]                        @ 4-byte Spill
	ldr	r0, [r1]
	.loc	2 56 39 is_stmt 0               @ ../MotorControl\task_timer.hpp:56:39
	ldr	r1, [r1, #4]
	.loc	2 56 34                         @ ../MotorControl\task_timer.hpp:56:34
	bl	_ZN9TaskTimer4stopEj
	ldr	r0, [sp]                        @ 4-byte Reload
.Ltmp193:
	.loc	2 56 52 epilogue_begin          @ ../MotorControl\task_timer.hpp:56:52
	add	sp, #8
	pop	{r7, pc}
.Ltmp194:
.Lfunc_end47:
	.size	_ZN16TaskTimerContextD2Ev, .Lfunc_end47-_ZN16TaskTimerContextD2Ev
	.cfi_endproc
	.cantunwind
	.fnend
                                        @ -- End function
	.section	.text.I2C1_EV_IRQHandler,"ax",%progbits
	.hidden	I2C1_EV_IRQHandler              @ -- Begin function I2C1_EV_IRQHandler
	.globl	I2C1_EV_IRQHandler
	.p2align	2
	.type	I2C1_EV_IRQHandler,%function
	.code	16                              @ @I2C1_EV_IRQHandler
	.thumb_func
I2C1_EV_IRQHandler:
.Lfunc_begin48:
	.loc	3 577 0 is_stmt 1               @ ../Board/v3/board.cpp:577:0
	.fnstart
	.cfi_startproc
@ %bb.0:
	.save	{r7, lr}
	push	{r7, lr}
	.cfi_def_cfa_offset 8
	.cfi_offset lr, -4
	.cfi_offset r7, -8
.Ltmp195:
	.loc	3 579 5 prologue_end            @ ../Board/v3/board.cpp:579:5
	movw	r0, :lower16:hi2c1
	movt	r0, :upper16:hi2c1
	bl	HAL_I2C_EV_IRQHandler
	.loc	3 580 1 epilogue_begin          @ ../Board/v3/board.cpp:580:1
	pop	{r7, pc}
.Ltmp196:
.Lfunc_end48:
	.size	I2C1_EV_IRQHandler, .Lfunc_end48-I2C1_EV_IRQHandler
	.cfi_endproc
	.cantunwind
	.fnend
                                        @ -- End function
	.section	.text.I2C1_ER_IRQHandler,"ax",%progbits
	.hidden	I2C1_ER_IRQHandler              @ -- Begin function I2C1_ER_IRQHandler
	.globl	I2C1_ER_IRQHandler
	.p2align	2
	.type	I2C1_ER_IRQHandler,%function
	.code	16                              @ @I2C1_ER_IRQHandler
	.thumb_func
I2C1_ER_IRQHandler:
.Lfunc_begin49:
	.loc	3 582 0                         @ ../Board/v3/board.cpp:582:0
	.fnstart
	.cfi_startproc
@ %bb.0:
	.save	{r7, lr}
	push	{r7, lr}
	.cfi_def_cfa_offset 8
	.cfi_offset lr, -4
	.cfi_offset r7, -8
.Ltmp197:
	.loc	3 584 5 prologue_end            @ ../Board/v3/board.cpp:584:5
	movw	r0, :lower16:hi2c1
	movt	r0, :upper16:hi2c1
	bl	HAL_I2C_ER_IRQHandler
	.loc	3 585 1 epilogue_begin          @ ../Board/v3/board.cpp:585:1
	pop	{r7, pc}
.Ltmp198:
.Lfunc_end49:
	.size	I2C1_ER_IRQHandler, .Lfunc_end49-I2C1_ER_IRQHandler
	.cfi_endproc
	.cantunwind
	.fnend
                                        @ -- End function
	.section	.text.OTG_FS_IRQHandler,"ax",%progbits
	.hidden	OTG_FS_IRQHandler               @ -- Begin function OTG_FS_IRQHandler
	.globl	OTG_FS_IRQHandler
	.p2align	2
	.type	OTG_FS_IRQHandler,%function
	.code	16                              @ @OTG_FS_IRQHandler
	.thumb_func
OTG_FS_IRQHandler:
.Lfunc_begin50:
	.loc	3 588 0                         @ ../Board/v3/board.cpp:588:0
	.fnstart
	.cfi_startproc
@ %bb.0:
	.save	{r7, lr}
	push	{r7, lr}
	.cfi_def_cfa_offset 8
	.cfi_offset lr, -4
	.cfi_offset r7, -8
.Ltmp199:
	.loc	3 590 5 prologue_end            @ ../Board/v3/board.cpp:590:5
	movw	r0, :lower16:hpcd_USB_OTG_FS
	movt	r0, :upper16:hpcd_USB_OTG_FS
	bl	HAL_PCD_IRQHandler
	.loc	3 591 1 epilogue_begin          @ ../Board/v3/board.cpp:591:1
	pop	{r7, pc}
.Ltmp200:
.Lfunc_end50:
	.size	OTG_FS_IRQHandler, .Lfunc_end50-OTG_FS_IRQHandler
	.cfi_endproc
	.cantunwind
	.fnend
                                        @ -- End function
	.section	.text._ZN14GateDriverBaseC2Ev,"axG",%progbits,_ZN14GateDriverBaseC2Ev,comdat
	.hidden	_ZN14GateDriverBaseC2Ev         @ -- Begin function _ZN14GateDriverBaseC2Ev
	.weak	_ZN14GateDriverBaseC2Ev
	.p2align	2
	.type	_ZN14GateDriverBaseC2Ev,%function
	.code	16                              @ @_ZN14GateDriverBaseC2Ev
	.thumb_func
_ZN14GateDriverBaseC2Ev:
.Lfunc_begin51:
	.file	40 "D:\\ikingtec\\Robot\\ODrive\\Firmware\\MDK-ARM" "../../Firmware\\Drivers/gate_driver.hpp"
	.loc	40 4 0                          @ ../../Firmware\Drivers/gate_driver.hpp:4:0
	.fnstart
	.cfi_startproc
@ %bb.0:
	.pad	#4
	sub	sp, #4
	.cfi_def_cfa_offset 4
	str	r0, [sp]
	ldr	r0, [sp]
.Ltmp201:
	.loc	40 4 8 prologue_end             @ ../../Firmware\Drivers/gate_driver.hpp:4:8
	movw	r1, :lower16:_ZTV14GateDriverBase
	movt	r1, :upper16:_ZTV14GateDriverBase
	adds	r1, #8
	str	r1, [r0]
	.loc	40 4 8 epilogue_begin is_stmt 0 @ ../../Firmware\Drivers/gate_driver.hpp:4:8
	add	sp, #4
	bx	lr
.Ltmp202:
.Lfunc_end51:
	.size	_ZN14GateDriverBaseC2Ev, .Lfunc_end51-_ZN14GateDriverBaseC2Ev
	.cfi_endproc
	.cantunwind
	.fnend
                                        @ -- End function
	.section	.text._ZN9OpAmpBaseC2Ev,"axG",%progbits,_ZN9OpAmpBaseC2Ev,comdat
	.hidden	_ZN9OpAmpBaseC2Ev               @ -- Begin function _ZN9OpAmpBaseC2Ev
	.weak	_ZN9OpAmpBaseC2Ev
	.p2align	2
	.type	_ZN9OpAmpBaseC2Ev,%function
	.code	16                              @ @_ZN9OpAmpBaseC2Ev
	.thumb_func
_ZN9OpAmpBaseC2Ev:
.Lfunc_begin52:
	.loc	40 23 0 is_stmt 1               @ ../../Firmware\Drivers/gate_driver.hpp:23:0
	.fnstart
	.cfi_startproc
@ %bb.0:
	.pad	#4
	sub	sp, #4
	.cfi_def_cfa_offset 4
	str	r0, [sp]
	ldr	r0, [sp]
.Ltmp203:
	.loc	40 23 8 prologue_end            @ ../../Firmware\Drivers/gate_driver.hpp:23:8
	movw	r1, :lower16:_ZTV9OpAmpBase
	movt	r1, :upper16:_ZTV9OpAmpBase
	adds	r1, #8
	str	r1, [r0]
	.loc	40 23 8 epilogue_begin is_stmt 0 @ ../../Firmware\Drivers/gate_driver.hpp:23:8
	add	sp, #4
	bx	lr
.Ltmp204:
.Lfunc_end52:
	.size	_ZN9OpAmpBaseC2Ev, .Lfunc_end52-_ZN9OpAmpBaseC2Ev
	.cfi_endproc
	.cantunwind
	.fnend
                                        @ -- End function
	.section	.text._ZN24ThermistorCurrentLimiterD2Ev,"axG",%progbits,_ZN24ThermistorCurrentLimiterD2Ev,comdat
	.hidden	_ZN24ThermistorCurrentLimiterD2Ev @ -- Begin function _ZN24ThermistorCurrentLimiterD2Ev
	.weak	_ZN24ThermistorCurrentLimiterD2Ev
	.p2align	2
	.type	_ZN24ThermistorCurrentLimiterD2Ev,%function
	.code	16                              @ @_ZN24ThermistorCurrentLimiterD2Ev
	.thumb_func
_ZN24ThermistorCurrentLimiterD2Ev:
.Lfunc_begin53:
	.loc	37 11 0 is_stmt 1               @ ../../Firmware\MotorControl/thermistor.hpp:11:0
	.fnstart
	.cfi_startproc
@ %bb.0:
	.save	{r7, lr}
	push	{r7, lr}
	.cfi_def_cfa_offset 8
	.cfi_offset lr, -4
	.cfi_offset r7, -8
	.pad	#8
	sub	sp, #8
	.cfi_def_cfa_offset 16
	str	r0, [sp, #4]
	ldr	r0, [sp, #4]
.Ltmp205:
	.loc	37 11 49 prologue_end           @ ../../Firmware\MotorControl/thermistor.hpp:11:49
	str	r0, [sp]                        @ 4-byte Spill
	bl	_ZN14CurrentLimiterD2Ev
	ldr	r0, [sp]                        @ 4-byte Reload
.Ltmp206:
	.loc	37 11 49 epilogue_begin is_stmt 0 @ ../../Firmware\MotorControl/thermistor.hpp:11:49
	add	sp, #8
	pop	{r7, pc}
.Ltmp207:
.Lfunc_end53:
	.size	_ZN24ThermistorCurrentLimiterD2Ev, .Lfunc_end53-_ZN24ThermistorCurrentLimiterD2Ev
	.cfi_endproc
	.cantunwind
	.fnend
                                        @ -- End function
	.section	.text._ZN14CurrentLimiterD2Ev,"axG",%progbits,_ZN14CurrentLimiterD2Ev,comdat
	.hidden	_ZN14CurrentLimiterD2Ev         @ -- Begin function _ZN14CurrentLimiterD2Ev
	.weak	_ZN14CurrentLimiterD2Ev
	.p2align	2
	.type	_ZN14CurrentLimiterD2Ev,%function
	.code	16                              @ @_ZN14CurrentLimiterD2Ev
	.thumb_func
_ZN14CurrentLimiterD2Ev:
.Lfunc_begin54:
	.file	41 "D:\\ikingtec\\Robot\\ODrive\\Firmware\\MDK-ARM" "../../Firmware\\MotorControl/current_limiter.hpp"
	.loc	41 6 0 is_stmt 1                @ ../../Firmware\MotorControl/current_limiter.hpp:6:0
	.fnstart
	.cfi_startproc
@ %bb.0:
	.pad	#4
	sub	sp, #4
	.cfi_def_cfa_offset 4
	str	r0, [sp]
	ldr	r0, [sp]
.Ltmp208:
	.loc	41 6 39 prologue_end epilogue_begin @ ../../Firmware\MotorControl/current_limiter.hpp:6:39
	add	sp, #4
	bx	lr
.Ltmp209:
.Lfunc_end54:
	.size	_ZN14CurrentLimiterD2Ev, .Lfunc_end54-_ZN14CurrentLimiterD2Ev
	.cfi_endproc
	.cantunwind
	.fnend
                                        @ -- End function
	.section	.text._ZN10ODriveIntf19MechanicalBrakeIntfC2Ev,"axG",%progbits,_ZN10ODriveIntf19MechanicalBrakeIntfC2Ev,comdat
	.hidden	_ZN10ODriveIntf19MechanicalBrakeIntfC2Ev @ -- Begin function _ZN10ODriveIntf19MechanicalBrakeIntfC2Ev
	.weak	_ZN10ODriveIntf19MechanicalBrakeIntfC2Ev
	.p2align	2
	.type	_ZN10ODriveIntf19MechanicalBrakeIntfC2Ev,%function
	.code	16                              @ @_ZN10ODriveIntf19MechanicalBrakeIntfC2Ev
	.thumb_func
_ZN10ODriveIntf19MechanicalBrakeIntfC2Ev:
.Lfunc_begin55:
	.loc	15 883 0                        @ ../../Firmware\autogen/interfaces.hpp:883:0
	.fnstart
	.cfi_startproc
@ %bb.0:
	.pad	#4
	sub	sp, #4
	.cfi_def_cfa_offset 4
	str	r0, [sp]
	ldr	r0, [sp]
.Ltmp210:
	.loc	15 883 11 prologue_end          @ ../../Firmware\autogen/interfaces.hpp:883:11
	movw	r1, :lower16:_ZTVN10ODriveIntf19MechanicalBrakeIntfE
	movt	r1, :upper16:_ZTVN10ODriveIntf19MechanicalBrakeIntfE
	adds	r1, #8
	str	r1, [r0]
	.loc	15 883 11 epilogue_begin is_stmt 0 @ ../../Firmware\autogen/interfaces.hpp:883:11
	add	sp, #4
	bx	lr
.Ltmp211:
.Lfunc_end55:
	.size	_ZN10ODriveIntf19MechanicalBrakeIntfC2Ev, .Lfunc_end55-_ZN10ODriveIntf19MechanicalBrakeIntfC2Ev
	.cfi_endproc
	.cantunwind
	.fnend
                                        @ -- End function
	.section	.text._ZN15MechanicalBrake8Config_tC2Ev,"axG",%progbits,_ZN15MechanicalBrake8Config_tC2Ev,comdat
	.hidden	_ZN15MechanicalBrake8Config_tC2Ev @ -- Begin function _ZN15MechanicalBrake8Config_tC2Ev
	.weak	_ZN15MechanicalBrake8Config_tC2Ev
	.p2align	2
	.type	_ZN15MechanicalBrake8Config_tC2Ev,%function
	.code	16                              @ @_ZN15MechanicalBrake8Config_tC2Ev
	.thumb_func
_ZN15MechanicalBrake8Config_tC2Ev:
.Lfunc_begin56:
	.loc	33 8 0 is_stmt 1                @ ../MotorControl\mechanical_brake.hpp:8:0
	.fnstart
	.cfi_startproc
@ %bb.0:
	.pad	#4
	sub	sp, #4
	.cfi_def_cfa_offset 4
	str	r0, [sp]
	ldr	r0, [sp]
	movs	r1, #0
.Ltmp212:
	.loc	33 9 18 prologue_end            @ ../MotorControl\mechanical_brake.hpp:9:18
	strh	r1, [r0]
	movs	r2, #1
	.loc	33 10 14                        @ ../MotorControl\mechanical_brake.hpp:10:14
	strb	r2, [r0, #2]
	.loc	33 13 26                        @ ../MotorControl\mechanical_brake.hpp:13:26
	str	r1, [r0, #4]
	.loc	33 8 12 epilogue_begin          @ ../MotorControl\mechanical_brake.hpp:8:12
	add	sp, #4
	bx	lr
.Ltmp213:
.Lfunc_end56:
	.size	_ZN15MechanicalBrake8Config_tC2Ev, .Lfunc_end56-_ZN15MechanicalBrake8Config_tC2Ev
	.cfi_endproc
	.cantunwind
	.fnend
                                        @ -- End function
	.section	.text._ZN19SensorlessEstimator8Config_tC2Ev,"axG",%progbits,_ZN19SensorlessEstimator8Config_tC2Ev,comdat
	.hidden	_ZN19SensorlessEstimator8Config_tC2Ev @ -- Begin function _ZN19SensorlessEstimator8Config_tC2Ev
	.weak	_ZN19SensorlessEstimator8Config_tC2Ev
	.p2align	2
	.type	_ZN19SensorlessEstimator8Config_tC2Ev,%function
	.code	16                              @ @_ZN19SensorlessEstimator8Config_tC2Ev
	.thumb_func
_ZN19SensorlessEstimator8Config_tC2Ev:
.Lfunc_begin57:
	.loc	16 8 0                          @ ../MotorControl\sensorless_estimator.hpp:8:0
	.fnstart
	.cfi_startproc
@ %bb.0:
	.pad	#4
	sub	sp, #4
	.cfi_def_cfa_offset 4
	str	r0, [sp]
	ldr	r0, [sp]
	movs	r1, #0
	movt	r1, #17530
.Ltmp214:
	.loc	16 9 15 prologue_end            @ ../MotorControl\sensorless_estimator.hpp:9:15
	str	r1, [r0]
	.loc	16 10 15                        @ ../MotorControl\sensorless_estimator.hpp:10:15
	str	r1, [r0, #4]
	movw	r1, #6145
	movt	r1, #15055
	.loc	16 11 15                        @ ../MotorControl\sensorless_estimator.hpp:11:15
	str	r1, [r0, #8]
	.loc	16 8 12 epilogue_begin          @ ../MotorControl\sensorless_estimator.hpp:8:12
	add	sp, #4
	bx	lr
.Ltmp215:
.Lfunc_end57:
	.size	_ZN19SensorlessEstimator8Config_tC2Ev, .Lfunc_end57-_ZN19SensorlessEstimator8Config_tC2Ev
	.cfi_endproc
	.cantunwind
	.fnend
                                        @ -- End function
	.section	.text._ZN10OutputPortIfEC2Ef,"axG",%progbits,_ZN10OutputPortIfEC2Ef,comdat
	.hidden	_ZN10OutputPortIfEC2Ef          @ -- Begin function _ZN10OutputPortIfEC2Ef
	.weak	_ZN10OutputPortIfEC2Ef
	.p2align	2
	.type	_ZN10OutputPortIfEC2Ef,%function
	.code	16                              @ @_ZN10OutputPortIfEC2Ef
	.thumb_func
_ZN10OutputPortIfEC2Ef:
.Lfunc_begin58:
	.loc	17 47 0                         @ ../../Firmware\MotorControl/component.hpp:47:0
	.fnstart
	.cfi_startproc
@ %bb.0:
	.pad	#8
	sub	sp, #8
	.cfi_def_cfa_offset 8
	str	r0, [sp, #4]
	vstr	s0, [sp]
	ldr	r0, [sp, #4]
	movs	r1, #2
.Ltmp216:
	.loc	17 107 14 prologue_end          @ ../../Firmware\MotorControl/component.hpp:107:14
	str	r1, [r0]
	.loc	17 47 34                        @ ../../Firmware\MotorControl/component.hpp:47:34
	ldr	r1, [sp]
	.loc	17 47 25 is_stmt 0              @ ../../Firmware\MotorControl/component.hpp:47:25
	str	r1, [r0, #4]
	.loc	17 47 40 epilogue_begin         @ ../../Firmware\MotorControl/component.hpp:47:40
	add	sp, #8
	bx	lr
.Ltmp217:
.Lfunc_end58:
	.size	_ZN10OutputPortIfEC2Ef, .Lfunc_end58-_ZN10OutputPortIfEC2Ef
	.cfi_endproc
	.cantunwind
	.fnend
                                        @ -- End function
	.section	.text._ZN10ODriveIntf14ControllerIntfC2Ev,"axG",%progbits,_ZN10ODriveIntf14ControllerIntfC2Ev,comdat
	.hidden	_ZN10ODriveIntf14ControllerIntfC2Ev @ -- Begin function _ZN10ODriveIntf14ControllerIntfC2Ev
	.weak	_ZN10ODriveIntf14ControllerIntfC2Ev
	.p2align	2
	.type	_ZN10ODriveIntf14ControllerIntfC2Ev,%function
	.code	16                              @ @_ZN10ODriveIntf14ControllerIntfC2Ev
	.thumb_func
_ZN10ODriveIntf14ControllerIntfC2Ev:
.Lfunc_begin59:
	.loc	15 523 0 is_stmt 1              @ ../../Firmware\autogen/interfaces.hpp:523:0
	.fnstart
	.cfi_startproc
@ %bb.0:
	.pad	#4
	sub	sp, #4
	.cfi_def_cfa_offset 4
	str	r0, [sp]
	ldr	r0, [sp]
.Ltmp218:
	.loc	15 523 11 prologue_end          @ ../../Firmware\autogen/interfaces.hpp:523:11
	movw	r1, :lower16:_ZTVN10ODriveIntf14ControllerIntfE
	movt	r1, :upper16:_ZTVN10ODriveIntf14ControllerIntfE
	adds	r1, #8
	str	r1, [r0]
	.loc	15 523 11 epilogue_begin is_stmt 0 @ ../../Firmware\autogen/interfaces.hpp:523:11
	add	sp, #4
	bx	lr
.Ltmp219:
.Lfunc_end59:
	.size	_ZN10ODriveIntf14ControllerIntfC2Ev, .Lfunc_end59-_ZN10ODriveIntf14ControllerIntfC2Ev
	.cfi_endproc
	.cantunwind
	.fnend
                                        @ -- End function
	.section	.text._ZN10Controller8Config_tC2Ev,"axG",%progbits,_ZN10Controller8Config_tC2Ev,comdat
	.hidden	_ZN10Controller8Config_tC2Ev    @ -- Begin function _ZN10Controller8Config_tC2Ev
	.weak	_ZN10Controller8Config_tC2Ev
	.p2align	2
	.type	_ZN10Controller8Config_tC2Ev,%function
	.code	16                              @ @_ZN10Controller8Config_tC2Ev
	.thumb_func
_ZN10Controller8Config_tC2Ev:
.Lfunc_begin60:
	.loc	34 24 0 is_stmt 1               @ ../MotorControl\controller.hpp:24:0
	.fnstart
	.cfi_startproc
@ %bb.0:
	.save	{r4, lr}
	push	{r4, lr}
	.cfi_def_cfa_offset 8
	.cfi_offset lr, -4
	.cfi_offset r4, -8
	.pad	#24
	sub	sp, #24
	.cfi_def_cfa_offset 32
	str	r0, [sp, #20]
	ldr	r0, [sp, #20]
	str	r0, [sp]                        @ 4-byte Spill
	movs	r1, #4
.Ltmp220:
	.loc	34 25 21 prologue_end           @ ../MotorControl\controller.hpp:25:21
	strb	r1, [r0]
	movs	r1, #1
	.loc	34 26 19                        @ ../MotorControl\controller.hpp:26:19
	str	r1, [sp, #4]                    @ 4-byte Spill
	strb	r1, [r0, #1]
	movs	r1, #0
	movt	r1, #16800
	.loc	34 27 15                        @ ../MotorControl\controller.hpp:27:15
	str	r1, [sp, #12]                   @ 4-byte Spill
	str	r1, [r0, #4]
	movw	r1, #43691
	movt	r1, #15914
	.loc	34 28 15                        @ ../MotorControl\controller.hpp:28:15
	str	r1, [r0, #8]
	movw	r1, #43691
	movt	r1, #16042
	.loc	34 30 15                        @ ../MotorControl\controller.hpp:30:15
	str	r1, [r0, #12]
	mov.w	r1, #1073741824
	.loc	34 31 15                        @ ../MotorControl\controller.hpp:31:15
	str	r1, [r0, #16]
	movw	r2, #39322
	movt	r2, #16281
	.loc	34 32 15                        @ ../MotorControl\controller.hpp:32:15
	str	r2, [r0, #20]
	mov.w	r2, #2139095040
	.loc	34 33 15                        @ ../MotorControl\controller.hpp:33:15
	str	r2, [r0, #24]
	mov.w	r3, #1065353216
	.loc	34 34 15                        @ ../MotorControl\controller.hpp:34:15
	str	r3, [sp, #16]                   @ 4-byte Spill
	str	r3, [r0, #28]
	movw	r2, #55050
	movt	r2, #15395
	.loc	34 35 15                        @ ../MotorControl\controller.hpp:35:15
	str	r2, [r0, #32]
	movs	r2, #0
	.loc	34 36 14                        @ ../MotorControl\controller.hpp:36:14
	str	r2, [sp, #8]                    @ 4-byte Spill
	strb.w	r2, [r0, #36]
	.loc	34 37 15                        @ ../MotorControl\controller.hpp:37:15
	str	r3, [r0, #40]
	mov.w	r3, #1024
	.loc	34 38 18                        @ ../MotorControl\controller.hpp:38:18
	str	r3, [r0, #44]
	.loc	34 39 15                        @ ../MotorControl\controller.hpp:39:15
	str	r2, [r0, #48]
	.loc	34 40 15                        @ ../MotorControl\controller.hpp:40:15
	str	r1, [r0, #52]
	mov.w	r1, #1048576000
	.loc	34 41 15                        @ ../MotorControl\controller.hpp:41:15
	str	r1, [r0, #56]
	.loc	34 24 12                        @ ../MotorControl\controller.hpp:24:12
	adds	r0, #60
	bl	_ZN10Controller13Anticogging_tC2Ev
	ldr	r0, [sp]                        @ 4-byte Reload
	ldr	r3, [sp, #4]                    @ 4-byte Reload
	ldr.w	r12, [sp, #8]                   @ 4-byte Reload
	ldr	r2, [sp, #12]                   @ 4-byte Reload
	ldr.w	lr, [sp, #16]                   @ 4-byte Reload
	movw	r4, #14484
	movs	r1, #0
	movt	r1, #16672
	.loc	34 43 15                        @ ../MotorControl\controller.hpp:43:15
	str	r1, [r0, r4]
	movw	r4, #14488
	.loc	34 44 14                        @ ../MotorControl\controller.hpp:44:14
	strb.w	r12, [r0, r4]
	movw	r4, #14489
	.loc	34 45 14                        @ ../MotorControl\controller.hpp:45:14
	strb	r3, [r0, r4]
	movw	r4, #14490
	.loc	34 46 14                        @ ../MotorControl\controller.hpp:46:14
	strb	r3, [r0, r4]
	movw	r4, #14491
	.loc	34 47 14                        @ ../MotorControl\controller.hpp:47:14
	strb	r3, [r0, r4]
	movw	r4, #14492
	movs	r3, #255
	.loc	34 48 17                        @ ../MotorControl\controller.hpp:48:17
	strb	r3, [r0, r4]
	movw	r4, #14496
	.loc	34 49 15                        @ ../MotorControl\controller.hpp:49:15
	str.w	lr, [r0, r4]
	movw	lr, #14500
	.loc	34 50 15                        @ ../MotorControl\controller.hpp:50:15
	str.w	r12, [r0, lr]
	movw	r12, #14504
	.loc	34 51 17                        @ ../MotorControl\controller.hpp:51:17
	strb.w	r3, [r0, r12]
	movw	r3, #14508
	.loc	34 52 15                        @ ../MotorControl\controller.hpp:52:15
	str	r2, [r0, r3]
	movw	r3, #14512
	.loc	34 53 15                        @ ../MotorControl\controller.hpp:53:15
	str	r2, [r0, r3]
	movw	r2, #14516
	.loc	34 54 15                        @ ../MotorControl\controller.hpp:54:15
	str	r1, [r0, r2]
	movw	r2, #14520
	movs	r1, #0
	movt	r1, #49440
	.loc	34 55 15                        @ ../MotorControl\controller.hpp:55:15
	str	r1, [r0, r2]
	.loc	34 24 12 epilogue_begin         @ ../MotorControl\controller.hpp:24:12
	add	sp, #24
	pop	{r4, pc}
.Ltmp221:
.Lfunc_end60:
	.size	_ZN10Controller8Config_tC2Ev, .Lfunc_end60-_ZN10Controller8Config_tC2Ev
	.cfi_endproc
	.cantunwind
	.fnend
                                        @ -- End function
	.section	.text._ZN9InputPortIfEC2Ev,"axG",%progbits,_ZN9InputPortIfEC2Ev,comdat
	.hidden	_ZN9InputPortIfEC2Ev            @ -- Begin function _ZN9InputPortIfEC2Ev
	.weak	_ZN9InputPortIfEC2Ev
	.p2align	2
	.type	_ZN9InputPortIfEC2Ev,%function
	.code	16                              @ @_ZN9InputPortIfEC2Ev
	.thumb_func
_ZN9InputPortIfEC2Ev:
.Lfunc_begin61:
	.loc	17 123 0                        @ ../../Firmware\MotorControl/component.hpp:123:0
	.fnstart
	.cfi_startproc
@ %bb.0:
	.save	{r7, lr}
	push	{r7, lr}
	.cfi_def_cfa_offset 8
	.cfi_offset lr, -4
	.cfi_offset r7, -8
	.pad	#8
	sub	sp, #8
	.cfi_def_cfa_offset 16
	str	r0, [sp, #4]
	ldr	r0, [sp, #4]
.Ltmp222:
	.loc	17 123 7 prologue_end           @ ../../Firmware\MotorControl/component.hpp:123:7
	str	r0, [sp]                        @ 4-byte Spill
	bl	_ZNSt3__27variantIJfPfP10OutputPortIfEEEC2B7v180000ILb1ELi0EEEv
	ldr	r0, [sp]                        @ 4-byte Reload
	.loc	17 123 7 epilogue_begin is_stmt 0 @ ../../Firmware\MotorControl/component.hpp:123:7
	add	sp, #8
	pop	{r7, pc}
.Ltmp223:
.Lfunc_end61:
	.size	_ZN9InputPortIfEC2Ev, .Lfunc_end61-_ZN9InputPortIfEC2Ev
	.cfi_endproc
	.cantunwind
	.fnend
                                        @ -- End function
	.section	.text._ZN10Controller12Autotuning_tC2Ev,"axG",%progbits,_ZN10Controller12Autotuning_tC2Ev,comdat
	.hidden	_ZN10Controller12Autotuning_tC2Ev @ -- Begin function _ZN10Controller12Autotuning_tC2Ev
	.weak	_ZN10Controller12Autotuning_tC2Ev
	.p2align	2
	.type	_ZN10Controller12Autotuning_tC2Ev,%function
	.code	16                              @ @_ZN10Controller12Autotuning_tC2Ev
	.thumb_func
_ZN10Controller12Autotuning_tC2Ev:
.Lfunc_begin62:
	.loc	34 17 0 is_stmt 1               @ ../MotorControl\controller.hpp:17:0
	.fnstart
	.cfi_startproc
@ %bb.0:
	.pad	#4
	sub	sp, #4
	.cfi_def_cfa_offset 4
	str	r0, [sp]
	ldr	r0, [sp]
	movs	r1, #0
.Ltmp224:
	.loc	34 18 15 prologue_end           @ ../MotorControl\controller.hpp:18:15
	str	r1, [r0]
	.loc	34 19 15                        @ ../MotorControl\controller.hpp:19:15
	str	r1, [r0, #4]
	.loc	34 20 15                        @ ../MotorControl\controller.hpp:20:15
	str	r1, [r0, #8]
	.loc	34 21 15                        @ ../MotorControl\controller.hpp:21:15
	str	r1, [r0, #12]
	.loc	34 17 12 epilogue_begin         @ ../MotorControl\controller.hpp:17:12
	add	sp, #4
	bx	lr
.Ltmp225:
.Lfunc_end62:
	.size	_ZN10Controller12Autotuning_tC2Ev, .Lfunc_end62-_ZN10Controller12Autotuning_tC2Ev
	.cfi_endproc
	.cantunwind
	.fnend
                                        @ -- End function
	.section	.text._ZN10Controller13Anticogging_tC2Ev,"axG",%progbits,_ZN10Controller13Anticogging_tC2Ev,comdat
	.hidden	_ZN10Controller13Anticogging_tC2Ev @ -- Begin function _ZN10Controller13Anticogging_tC2Ev
	.weak	_ZN10Controller13Anticogging_tC2Ev
	.p2align	2
	.type	_ZN10Controller13Anticogging_tC2Ev,%function
	.code	16                              @ @_ZN10Controller13Anticogging_tC2Ev
	.thumb_func
_ZN10Controller13Anticogging_tC2Ev:
.Lfunc_begin63:
	.loc	34 6 0                          @ ../MotorControl\controller.hpp:6:0
	.fnstart
	.cfi_startproc
@ %bb.0:
	.pad	#4
	sub	sp, #4
	.cfi_def_cfa_offset 4
	str	r0, [sp]
	ldr	r0, [sp]
	movs	r1, #0
.Ltmp226:
	.loc	34 7 18 prologue_end            @ ../MotorControl\controller.hpp:7:18
	str	r1, [r0]
	movw	r2, #14404
	.loc	34 9 14                         @ ../MotorControl\controller.hpp:9:14
	strb	r1, [r0, r2]
	movw	r2, #14405
	.loc	34 10 14                        @ ../MotorControl\controller.hpp:10:14
	strb	r1, [r0, r2]
	movw	r2, #14408
	mov.w	r1, #1065353216
	.loc	34 11 15                        @ ../MotorControl\controller.hpp:11:15
	str	r1, [r0, r2]
	movw	r2, #14412
	.loc	34 12 15                        @ ../MotorControl\controller.hpp:12:15
	str	r1, [r0, r2]
	movw	r2, #14416
	.loc	34 13 15                        @ ../MotorControl\controller.hpp:13:15
	str	r1, [r0, r2]
	movw	r2, #14420
	movs	r1, #1
	.loc	34 14 14                        @ ../MotorControl\controller.hpp:14:14
	strb	r1, [r0, r2]
	.loc	34 6 12 epilogue_begin          @ ../MotorControl\controller.hpp:6:12
	add	sp, #4
	bx	lr
.Ltmp227:
.Lfunc_end63:
	.size	_ZN10Controller13Anticogging_tC2Ev, .Lfunc_end63-_ZN10Controller13Anticogging_tC2Ev
	.cfi_endproc
	.cantunwind
	.fnend
                                        @ -- End function
	.section	.text._ZNSt3__27variantIJfPfP10OutputPortIfEEEC2B7v180000ILb1ELi0EEEv,"axG",%progbits,_ZNSt3__27variantIJfPfP10OutputPortIfEEEC2B7v180000ILb1ELi0EEEv,comdat
	.hidden	_ZNSt3__27variantIJfPfP10OutputPortIfEEEC2B7v180000ILb1ELi0EEEv @ -- Begin function _ZNSt3__27variantIJfPfP10OutputPortIfEEEC2B7v180000ILb1ELi0EEEv
	.weak	_ZNSt3__27variantIJfPfP10OutputPortIfEEEC2B7v180000ILb1ELi0EEEv
	.p2align	2
	.type	_ZNSt3__27variantIJfPfP10OutputPortIfEEEC2B7v180000ILb1ELi0EEEv,%function
	.code	16                              @ @_ZNSt3__27variantIJfPfP10OutputPortIfEEEC2B7v180000ILb1ELi0EEEv
	.thumb_func
_ZNSt3__27variantIJfPfP10OutputPortIfEEEC2B7v180000ILb1ELi0EEEv:
.Lfunc_begin64:
	.loc	30 1327 0                       @ D:\Embed\MDK\MDK\ARM\ARMCompilerV621\Bin\..\include\libcxx\variant:1327:0
	.fnstart
	.cfi_startproc
@ %bb.0:
	.save	{r7, lr}
	push	{r7, lr}
	.cfi_def_cfa_offset 8
	.cfi_offset lr, -4
	.cfi_offset r7, -8
	.pad	#16
	sub	sp, #16
	.cfi_def_cfa_offset 24
	str	r0, [sp, #12]
	ldr	r0, [sp, #12]
.Ltmp228:
	.loc	30 1327 9 prologue_end          @ D:\Embed\MDK\MDK\ARM\ARMCompilerV621\Bin\..\include\libcxx\variant:1327:9
	str	r0, [sp, #4]                    @ 4-byte Spill
	bl	_ZNSt3__216__variant_detail6__implIJfPfP10OutputPortIfEEECI2NS0_6__baseILNS0_6_TraitE0EJfS2_S5_EEEILj0EJEEENS_16in_place_index_tIXT_EEEDpOT0_
	ldr	r0, [sp, #4]                    @ 4-byte Reload
	.loc	30 1327 37 epilogue_begin is_stmt 0 @ D:\Embed\MDK\MDK\ARM\ARMCompilerV621\Bin\..\include\libcxx\variant:1327:37
	add	sp, #16
	pop	{r7, pc}
.Ltmp229:
.Lfunc_end64:
	.size	_ZNSt3__27variantIJfPfP10OutputPortIfEEEC2B7v180000ILb1ELi0EEEv, .Lfunc_end64-_ZNSt3__27variantIJfPfP10OutputPortIfEEEC2B7v180000ILb1ELi0EEEv
	.cfi_endproc
	.cantunwind
	.fnend
                                        @ -- End function
	.section	.text._ZNSt3__216__variant_detail6__implIJfPfP10OutputPortIfEEECI2NS0_6__baseILNS0_6_TraitE0EJfS2_S5_EEEILj0EJEEENS_16in_place_index_tIXT_EEEDpOT0_,"axG",%progbits,_ZNSt3__216__variant_detail6__implIJfPfP10OutputPortIfEEECI2NS0_6__baseILNS0_6_TraitE0EJfS2_S5_EEEILj0EJEEENS_16in_place_index_tIXT_EEEDpOT0_,comdat
	.hidden	_ZNSt3__216__variant_detail6__implIJfPfP10OutputPortIfEEECI2NS0_6__baseILNS0_6_TraitE0EJfS2_S5_EEEILj0EJEEENS_16in_place_index_tIXT_EEEDpOT0_ @ -- Begin function _ZNSt3__216__variant_detail6__implIJfPfP10OutputPortIfEEECI2NS0_6__baseILNS0_6_TraitE0EJfS2_S5_EEEILj0EJEEENS_16in_place_index_tIXT_EEEDpOT0_
	.weak	_ZNSt3__216__variant_detail6__implIJfPfP10OutputPortIfEEECI2NS0_6__baseILNS0_6_TraitE0EJfS2_S5_EEEILj0EJEEENS_16in_place_index_tIXT_EEEDpOT0_
	.p2align	2
	.type	_ZNSt3__216__variant_detail6__implIJfPfP10OutputPortIfEEECI2NS0_6__baseILNS0_6_TraitE0EJfS2_S5_EEEILj0EJEEENS_16in_place_index_tIXT_EEEDpOT0_,%function
	.code	16                              @ @_ZNSt3__216__variant_detail6__implIJfPfP10OutputPortIfEEECI2NS0_6__baseILNS0_6_TraitE0EJfS2_S5_EEEILj0EJEEENS_16in_place_index_tIXT_EEEDpOT0_
	.thumb_func
_ZNSt3__216__variant_detail6__implIJfPfP10OutputPortIfEEECI2NS0_6__baseILNS0_6_TraitE0EJfS2_S5_EEEILj0EJEEENS_16in_place_index_tIXT_EEEDpOT0_:
.Lfunc_begin65:
	.loc	30 1160 0 is_stmt 1             @ D:\Embed\MDK\MDK\ARM\ARMCompilerV621\Bin\..\include\libcxx\variant:1160:0
	.fnstart
	.cfi_startproc
@ %bb.0:
	.save	{r7, lr}
	push	{r7, lr}
	.cfi_def_cfa_offset 8
	.cfi_offset lr, -4
	.cfi_offset r7, -8
	.pad	#16
	sub	sp, #16
	.cfi_def_cfa_offset 24
	str	r0, [sp, #8]
	ldr	r0, [sp, #8]
.Ltmp230:
	.loc	30 1160 22 prologue_end         @ D:\Embed\MDK\MDK\ARM\ARMCompilerV621\Bin\..\include\libcxx\variant:1160:22
	str	r0, [sp, #4]                    @ 4-byte Spill
	bl	_ZNSt3__216__variant_detail17__copy_assignmentINS0_8__traitsIJfPfP10OutputPortIfEEEELNS0_6_TraitE0EECI2NS0_6__baseILS8_0EJfS3_S6_EEEILj0EJEEENS_16in_place_index_tIXT_EEEDpOT0_
	ldr	r0, [sp, #4]                    @ 4-byte Reload
	.loc	30 1160 22 epilogue_begin is_stmt 0 @ D:\Embed\MDK\MDK\ARM\ARMCompilerV621\Bin\..\include\libcxx\variant:1160:22
	add	sp, #16
	pop	{r7, pc}
.Ltmp231:
.Lfunc_end65:
	.size	_ZNSt3__216__variant_detail6__implIJfPfP10OutputPortIfEEECI2NS0_6__baseILNS0_6_TraitE0EJfS2_S5_EEEILj0EJEEENS_16in_place_index_tIXT_EEEDpOT0_, .Lfunc_end65-_ZNSt3__216__variant_detail6__implIJfPfP10OutputPortIfEEECI2NS0_6__baseILNS0_6_TraitE0EJfS2_S5_EEEILj0EJEEENS_16in_place_index_tIXT_EEEDpOT0_
	.cfi_endproc
	.cantunwind
	.fnend
                                        @ -- End function
	.section	.text._ZNSt3__216__variant_detail17__copy_assignmentINS0_8__traitsIJfPfP10OutputPortIfEEEELNS0_6_TraitE0EECI2NS0_6__baseILS8_0EJfS3_S6_EEEILj0EJEEENS_16in_place_index_tIXT_EEEDpOT0_,"axG",%progbits,_ZNSt3__216__variant_detail17__copy_assignmentINS0_8__traitsIJfPfP10OutputPortIfEEEELNS0_6_TraitE0EECI2NS0_6__baseILS8_0EJfS3_S6_EEEILj0EJEEENS_16in_place_index_tIXT_EEEDpOT0_,comdat
	.hidden	_ZNSt3__216__variant_detail17__copy_assignmentINS0_8__traitsIJfPfP10OutputPortIfEEEELNS0_6_TraitE0EECI2NS0_6__baseILS8_0EJfS3_S6_EEEILj0EJEEENS_16in_place_index_tIXT_EEEDpOT0_ @ -- Begin function _ZNSt3__216__variant_detail17__copy_assignmentINS0_8__traitsIJfPfP10OutputPortIfEEEELNS0_6_TraitE0EECI2NS0_6__baseILS8_0EJfS3_S6_EEEILj0EJEEENS_16in_place_index_tIXT_EEEDpOT0_
	.weak	_ZNSt3__216__variant_detail17__copy_assignmentINS0_8__traitsIJfPfP10OutputPortIfEEEELNS0_6_TraitE0EECI2NS0_6__baseILS8_0EJfS3_S6_EEEILj0EJEEENS_16in_place_index_tIXT_EEEDpOT0_
	.p2align	2
	.type	_ZNSt3__216__variant_detail17__copy_assignmentINS0_8__traitsIJfPfP10OutputPortIfEEEELNS0_6_TraitE0EECI2NS0_6__baseILS8_0EJfS3_S6_EEEILj0EJEEENS_16in_place_index_tIXT_EEEDpOT0_,%function
	.code	16                              @ @_ZNSt3__216__variant_detail17__copy_assignmentINS0_8__traitsIJfPfP10OutputPortIfEEEELNS0_6_TraitE0EECI2NS0_6__baseILS8_0EJfS3_S6_EEEILj0EJEEENS_16in_place_index_tIXT_EEEDpOT0_
	.thumb_func
_ZNSt3__216__variant_detail17__copy_assignmentINS0_8__traitsIJfPfP10OutputPortIfEEEELNS0_6_TraitE0EECI2NS0_6__baseILS8_0EJfS3_S6_EEEILj0EJEEENS_16in_place_index_tIXT_EEEDpOT0_:
.Lfunc_begin66:
	.loc	30 1137 0 is_stmt 1             @ D:\Embed\MDK\MDK\ARM\ARMCompilerV621\Bin\..\include\libcxx\variant:1137:0
	.fnstart
	.cfi_startproc
@ %bb.0:
	.save	{r7, lr}
	push	{r7, lr}
	.cfi_def_cfa_offset 8
	.cfi_offset lr, -4
	.cfi_offset r7, -8
	.pad	#16
	sub	sp, #16
	.cfi_def_cfa_offset 24
	str	r0, [sp, #8]
	ldr	r0, [sp, #8]
.Ltmp232:
	.loc	30 1137 1 prologue_end          @ D:\Embed\MDK\MDK\ARM\ARMCompilerV621\Bin\..\include\libcxx\variant:1137:1
	str	r0, [sp, #4]                    @ 4-byte Spill
	bl	_ZNSt3__216__variant_detail17__move_assignmentINS0_8__traitsIJfPfP10OutputPortIfEEEELNS0_6_TraitE0EECI2NS0_6__baseILS8_0EJfS3_S6_EEEILj0EJEEENS_16in_place_index_tIXT_EEEDpOT0_
	ldr	r0, [sp, #4]                    @ 4-byte Reload
	.loc	30 1137 1 epilogue_begin is_stmt 0 @ D:\Embed\MDK\MDK\ARM\ARMCompilerV621\Bin\..\include\libcxx\variant:1137:1
	add	sp, #16
	pop	{r7, pc}
.Ltmp233:
.Lfunc_end66:
	.size	_ZNSt3__216__variant_detail17__copy_assignmentINS0_8__traitsIJfPfP10OutputPortIfEEEELNS0_6_TraitE0EECI2NS0_6__baseILS8_0EJfS3_S6_EEEILj0EJEEENS_16in_place_index_tIXT_EEEDpOT0_, .Lfunc_end66-_ZNSt3__216__variant_detail17__copy_assignmentINS0_8__traitsIJfPfP10OutputPortIfEEEELNS0_6_TraitE0EECI2NS0_6__baseILS8_0EJfS3_S6_EEEILj0EJEEENS_16in_place_index_tIXT_EEEDpOT0_
	.cfi_endproc
	.cantunwind
	.fnend
                                        @ -- End function
	.section	.text._ZNSt3__216__variant_detail17__move_assignmentINS0_8__traitsIJfPfP10OutputPortIfEEEELNS0_6_TraitE0EECI2NS0_6__baseILS8_0EJfS3_S6_EEEILj0EJEEENS_16in_place_index_tIXT_EEEDpOT0_,"axG",%progbits,_ZNSt3__216__variant_detail17__move_assignmentINS0_8__traitsIJfPfP10OutputPortIfEEEELNS0_6_TraitE0EECI2NS0_6__baseILS8_0EJfS3_S6_EEEILj0EJEEENS_16in_place_index_tIXT_EEEDpOT0_,comdat
	.hidden	_ZNSt3__216__variant_detail17__move_assignmentINS0_8__traitsIJfPfP10OutputPortIfEEEELNS0_6_TraitE0EECI2NS0_6__baseILS8_0EJfS3_S6_EEEILj0EJEEENS_16in_place_index_tIXT_EEEDpOT0_ @ -- Begin function _ZNSt3__216__variant_detail17__move_assignmentINS0_8__traitsIJfPfP10OutputPortIfEEEELNS0_6_TraitE0EECI2NS0_6__baseILS8_0EJfS3_S6_EEEILj0EJEEENS_16in_place_index_tIXT_EEEDpOT0_
	.weak	_ZNSt3__216__variant_detail17__move_assignmentINS0_8__traitsIJfPfP10OutputPortIfEEEELNS0_6_TraitE0EECI2NS0_6__baseILS8_0EJfS3_S6_EEEILj0EJEEENS_16in_place_index_tIXT_EEEDpOT0_
	.p2align	2
	.type	_ZNSt3__216__variant_detail17__move_assignmentINS0_8__traitsIJfPfP10OutputPortIfEEEELNS0_6_TraitE0EECI2NS0_6__baseILS8_0EJfS3_S6_EEEILj0EJEEENS_16in_place_index_tIXT_EEEDpOT0_,%function
	.code	16                              @ @_ZNSt3__216__variant_detail17__move_assignmentINS0_8__traitsIJfPfP10OutputPortIfEEEELNS0_6_TraitE0EECI2NS0_6__baseILS8_0EJfS3_S6_EEEILj0EJEEENS_16in_place_index_tIXT_EEEDpOT0_
	.thumb_func
_ZNSt3__216__variant_detail17__move_assignmentINS0_8__traitsIJfPfP10OutputPortIfEEEELNS0_6_TraitE0EECI2NS0_6__baseILS8_0EJfS3_S6_EEEILj0EJEEENS_16in_place_index_tIXT_EEEDpOT0_:
.Lfunc_begin67:
	.loc	30 1096 0 is_stmt 1             @ D:\Embed\MDK\MDK\ARM\ARMCompilerV621\Bin\..\include\libcxx\variant:1096:0
	.fnstart
	.cfi_startproc
@ %bb.0:
	.save	{r7, lr}
	push	{r7, lr}
	.cfi_def_cfa_offset 8
	.cfi_offset lr, -4
	.cfi_offset r7, -8
	.pad	#16
	sub	sp, #16
	.cfi_def_cfa_offset 24
	str	r0, [sp, #8]
	ldr	r0, [sp, #8]
.Ltmp234:
	.loc	30 1096 1 prologue_end          @ D:\Embed\MDK\MDK\ARM\ARMCompilerV621\Bin\..\include\libcxx\variant:1096:1
	str	r0, [sp, #4]                    @ 4-byte Spill
	bl	_ZNSt3__216__variant_detail12__assignmentINS0_8__traitsIJfPfP10OutputPortIfEEEEECI2NS0_6__baseILNS0_6_TraitE0EJfS3_S6_EEEILj0EJEEENS_16in_place_index_tIXT_EEEDpOT0_
	ldr	r0, [sp, #4]                    @ 4-byte Reload
	.loc	30 1096 1 epilogue_begin is_stmt 0 @ D:\Embed\MDK\MDK\ARM\ARMCompilerV621\Bin\..\include\libcxx\variant:1096:1
	add	sp, #16
	pop	{r7, pc}
.Ltmp235:
.Lfunc_end67:
	.size	_ZNSt3__216__variant_detail17__move_assignmentINS0_8__traitsIJfPfP10OutputPortIfEEEELNS0_6_TraitE0EECI2NS0_6__baseILS8_0EJfS3_S6_EEEILj0EJEEENS_16in_place_index_tIXT_EEEDpOT0_, .Lfunc_end67-_ZNSt3__216__variant_detail17__move_assignmentINS0_8__traitsIJfPfP10OutputPortIfEEEELNS0_6_TraitE0EECI2NS0_6__baseILS8_0EJfS3_S6_EEEILj0EJEEENS_16in_place_index_tIXT_EEEDpOT0_
	.cfi_endproc
	.cantunwind
	.fnend
                                        @ -- End function
	.section	.text._ZNSt3__216__variant_detail12__assignmentINS0_8__traitsIJfPfP10OutputPortIfEEEEECI2NS0_6__baseILNS0_6_TraitE0EJfS3_S6_EEEILj0EJEEENS_16in_place_index_tIXT_EEEDpOT0_,"axG",%progbits,_ZNSt3__216__variant_detail12__assignmentINS0_8__traitsIJfPfP10OutputPortIfEEEEECI2NS0_6__baseILNS0_6_TraitE0EJfS3_S6_EEEILj0EJEEENS_16in_place_index_tIXT_EEEDpOT0_,comdat
	.hidden	_ZNSt3__216__variant_detail12__assignmentINS0_8__traitsIJfPfP10OutputPortIfEEEEECI2NS0_6__baseILNS0_6_TraitE0EJfS3_S6_EEEILj0EJEEENS_16in_place_index_tIXT_EEEDpOT0_ @ -- Begin function _ZNSt3__216__variant_detail12__assignmentINS0_8__traitsIJfPfP10OutputPortIfEEEEECI2NS0_6__baseILNS0_6_TraitE0EJfS3_S6_EEEILj0EJEEENS_16in_place_index_tIXT_EEEDpOT0_
	.weak	_ZNSt3__216__variant_detail12__assignmentINS0_8__traitsIJfPfP10OutputPortIfEEEEECI2NS0_6__baseILNS0_6_TraitE0EJfS3_S6_EEEILj0EJEEENS_16in_place_index_tIXT_EEEDpOT0_
	.p2align	2
	.type	_ZNSt3__216__variant_detail12__assignmentINS0_8__traitsIJfPfP10OutputPortIfEEEEECI2NS0_6__baseILNS0_6_TraitE0EJfS3_S6_EEEILj0EJEEENS_16in_place_index_tIXT_EEEDpOT0_,%function
	.code	16                              @ @_ZNSt3__216__variant_detail12__assignmentINS0_8__traitsIJfPfP10OutputPortIfEEEEECI2NS0_6__baseILNS0_6_TraitE0EJfS3_S6_EEEILj0EJEEENS_16in_place_index_tIXT_EEEDpOT0_
	.thumb_func
_ZNSt3__216__variant_detail12__assignmentINS0_8__traitsIJfPfP10OutputPortIfEEEEECI2NS0_6__baseILNS0_6_TraitE0EJfS3_S6_EEEILj0EJEEENS_16in_place_index_tIXT_EEEDpOT0_:
.Lfunc_begin68:
	.loc	30 1019 0 is_stmt 1             @ D:\Embed\MDK\MDK\ARM\ARMCompilerV621\Bin\..\include\libcxx\variant:1019:0
	.fnstart
	.cfi_startproc
@ %bb.0:
	.save	{r7, lr}
	push	{r7, lr}
	.cfi_def_cfa_offset 8
	.cfi_offset lr, -4
	.cfi_offset r7, -8
	.pad	#16
	sub	sp, #16
	.cfi_def_cfa_offset 24
	str	r0, [sp, #8]
	ldr	r0, [sp, #8]
.Ltmp236:
	.loc	30 1019 22 prologue_end         @ D:\Embed\MDK\MDK\ARM\ARMCompilerV621\Bin\..\include\libcxx\variant:1019:22
	str	r0, [sp, #4]                    @ 4-byte Spill
	bl	_ZNSt3__216__variant_detail18__copy_constructorINS0_8__traitsIJfPfP10OutputPortIfEEEELNS0_6_TraitE0EECI2NS0_6__baseILS8_0EJfS3_S6_EEEILj0EJEEENS_16in_place_index_tIXT_EEEDpOT0_
	ldr	r0, [sp, #4]                    @ 4-byte Reload
	.loc	30 1019 22 epilogue_begin is_stmt 0 @ D:\Embed\MDK\MDK\ARM\ARMCompilerV621\Bin\..\include\libcxx\variant:1019:22
	add	sp, #16
	pop	{r7, pc}
.Ltmp237:
.Lfunc_end68:
	.size	_ZNSt3__216__variant_detail12__assignmentINS0_8__traitsIJfPfP10OutputPortIfEEEEECI2NS0_6__baseILNS0_6_TraitE0EJfS3_S6_EEEILj0EJEEENS_16in_place_index_tIXT_EEEDpOT0_, .Lfunc_end68-_ZNSt3__216__variant_detail12__assignmentINS0_8__traitsIJfPfP10OutputPortIfEEEEECI2NS0_6__baseILNS0_6_TraitE0EJfS3_S6_EEEILj0EJEEENS_16in_place_index_tIXT_EEEDpOT0_
	.cfi_endproc
	.cantunwind
	.fnend
                                        @ -- End function
	.section	.text._ZNSt3__216__variant_detail18__copy_constructorINS0_8__traitsIJfPfP10OutputPortIfEEEELNS0_6_TraitE0EECI2NS0_6__baseILS8_0EJfS3_S6_EEEILj0EJEEENS_16in_place_index_tIXT_EEEDpOT0_,"axG",%progbits,_ZNSt3__216__variant_detail18__copy_constructorINS0_8__traitsIJfPfP10OutputPortIfEEEELNS0_6_TraitE0EECI2NS0_6__baseILS8_0EJfS3_S6_EEEILj0EJEEENS_16in_place_index_tIXT_EEEDpOT0_,comdat
	.hidden	_ZNSt3__216__variant_detail18__copy_constructorINS0_8__traitsIJfPfP10OutputPortIfEEEELNS0_6_TraitE0EECI2NS0_6__baseILS8_0EJfS3_S6_EEEILj0EJEEENS_16in_place_index_tIXT_EEEDpOT0_ @ -- Begin function _ZNSt3__216__variant_detail18__copy_constructorINS0_8__traitsIJfPfP10OutputPortIfEEEELNS0_6_TraitE0EECI2NS0_6__baseILS8_0EJfS3_S6_EEEILj0EJEEENS_16in_place_index_tIXT_EEEDpOT0_
	.weak	_ZNSt3__216__variant_detail18__copy_constructorINS0_8__traitsIJfPfP10OutputPortIfEEEELNS0_6_TraitE0EECI2NS0_6__baseILS8_0EJfS3_S6_EEEILj0EJEEENS_16in_place_index_tIXT_EEEDpOT0_
	.p2align	2
	.type	_ZNSt3__216__variant_detail18__copy_constructorINS0_8__traitsIJfPfP10OutputPortIfEEEELNS0_6_TraitE0EECI2NS0_6__baseILS8_0EJfS3_S6_EEEILj0EJEEENS_16in_place_index_tIXT_EEEDpOT0_,%function
	.code	16                              @ @_ZNSt3__216__variant_detail18__copy_constructorINS0_8__traitsIJfPfP10OutputPortIfEEEELNS0_6_TraitE0EECI2NS0_6__baseILS8_0EJfS3_S6_EEEILj0EJEEENS_16in_place_index_tIXT_EEEDpOT0_
	.thumb_func
_ZNSt3__216__variant_detail18__copy_constructorINS0_8__traitsIJfPfP10OutputPortIfEEEELNS0_6_TraitE0EECI2NS0_6__baseILS8_0EJfS3_S6_EEEILj0EJEEENS_16in_place_index_tIXT_EEEDpOT0_:
.Lfunc_begin69:
	.loc	30 997 0 is_stmt 1              @ D:\Embed\MDK\MDK\ARM\ARMCompilerV621\Bin\..\include\libcxx\variant:997:0
	.fnstart
	.cfi_startproc
@ %bb.0:
	.save	{r7, lr}
	push	{r7, lr}
	.cfi_def_cfa_offset 8
	.cfi_offset lr, -4
	.cfi_offset r7, -8
	.pad	#16
	sub	sp, #16
	.cfi_def_cfa_offset 24
	str	r0, [sp, #8]
	ldr	r0, [sp, #8]
.Ltmp238:
	.loc	30 997 1 prologue_end           @ D:\Embed\MDK\MDK\ARM\ARMCompilerV621\Bin\..\include\libcxx\variant:997:1
	str	r0, [sp, #4]                    @ 4-byte Spill
	bl	_ZNSt3__216__variant_detail18__move_constructorINS0_8__traitsIJfPfP10OutputPortIfEEEELNS0_6_TraitE0EECI2NS0_6__baseILS8_0EJfS3_S6_EEEILj0EJEEENS_16in_place_index_tIXT_EEEDpOT0_
	ldr	r0, [sp, #4]                    @ 4-byte Reload
	.loc	30 997 1 epilogue_begin is_stmt 0 @ D:\Embed\MDK\MDK\ARM\ARMCompilerV621\Bin\..\include\libcxx\variant:997:1
	add	sp, #16
	pop	{r7, pc}
.Ltmp239:
.Lfunc_end69:
	.size	_ZNSt3__216__variant_detail18__copy_constructorINS0_8__traitsIJfPfP10OutputPortIfEEEELNS0_6_TraitE0EECI2NS0_6__baseILS8_0EJfS3_S6_EEEILj0EJEEENS_16in_place_index_tIXT_EEEDpOT0_, .Lfunc_end69-_ZNSt3__216__variant_detail18__copy_constructorINS0_8__traitsIJfPfP10OutputPortIfEEEELNS0_6_TraitE0EECI2NS0_6__baseILS8_0EJfS3_S6_EEEILj0EJEEENS_16in_place_index_tIXT_EEEDpOT0_
	.cfi_endproc
	.cantunwind
	.fnend
                                        @ -- End function
	.section	.text._ZNSt3__216__variant_detail18__move_constructorINS0_8__traitsIJfPfP10OutputPortIfEEEELNS0_6_TraitE0EECI2NS0_6__baseILS8_0EJfS3_S6_EEEILj0EJEEENS_16in_place_index_tIXT_EEEDpOT0_,"axG",%progbits,_ZNSt3__216__variant_detail18__move_constructorINS0_8__traitsIJfPfP10OutputPortIfEEEELNS0_6_TraitE0EECI2NS0_6__baseILS8_0EJfS3_S6_EEEILj0EJEEENS_16in_place_index_tIXT_EEEDpOT0_,comdat
	.hidden	_ZNSt3__216__variant_detail18__move_constructorINS0_8__traitsIJfPfP10OutputPortIfEEEELNS0_6_TraitE0EECI2NS0_6__baseILS8_0EJfS3_S6_EEEILj0EJEEENS_16in_place_index_tIXT_EEEDpOT0_ @ -- Begin function _ZNSt3__216__variant_detail18__move_constructorINS0_8__traitsIJfPfP10OutputPortIfEEEELNS0_6_TraitE0EECI2NS0_6__baseILS8_0EJfS3_S6_EEEILj0EJEEENS_16in_place_index_tIXT_EEEDpOT0_
	.weak	_ZNSt3__216__variant_detail18__move_constructorINS0_8__traitsIJfPfP10OutputPortIfEEEELNS0_6_TraitE0EECI2NS0_6__baseILS8_0EJfS3_S6_EEEILj0EJEEENS_16in_place_index_tIXT_EEEDpOT0_
	.p2align	2
	.type	_ZNSt3__216__variant_detail18__move_constructorINS0_8__traitsIJfPfP10OutputPortIfEEEELNS0_6_TraitE0EECI2NS0_6__baseILS8_0EJfS3_S6_EEEILj0EJEEENS_16in_place_index_tIXT_EEEDpOT0_,%function
	.code	16                              @ @_ZNSt3__216__variant_detail18__move_constructorINS0_8__traitsIJfPfP10OutputPortIfEEEELNS0_6_TraitE0EECI2NS0_6__baseILS8_0EJfS3_S6_EEEILj0EJEEENS_16in_place_index_tIXT_EEEDpOT0_
	.thumb_func
_ZNSt3__216__variant_detail18__move_constructorINS0_8__traitsIJfPfP10OutputPortIfEEEELNS0_6_TraitE0EECI2NS0_6__baseILS8_0EJfS3_S6_EEEILj0EJEEENS_16in_place_index_tIXT_EEEDpOT0_:
.Lfunc_begin70:
	.loc	30 957 0 is_stmt 1              @ D:\Embed\MDK\MDK\ARM\ARMCompilerV621\Bin\..\include\libcxx\variant:957:0
	.fnstart
	.cfi_startproc
@ %bb.0:
	.save	{r7, lr}
	push	{r7, lr}
	.cfi_def_cfa_offset 8
	.cfi_offset lr, -4
	.cfi_offset r7, -8
	.pad	#16
	sub	sp, #16
	.cfi_def_cfa_offset 24
	str	r0, [sp, #8]
	ldr	r0, [sp, #8]
.Ltmp240:
	.loc	30 957 1 prologue_end           @ D:\Embed\MDK\MDK\ARM\ARMCompilerV621\Bin\..\include\libcxx\variant:957:1
	str	r0, [sp, #4]                    @ 4-byte Spill
	bl	_ZNSt3__216__variant_detail6__ctorINS0_8__traitsIJfPfP10OutputPortIfEEEEECI2NS0_6__baseILNS0_6_TraitE0EJfS3_S6_EEEILj0EJEEENS_16in_place_index_tIXT_EEEDpOT0_
	ldr	r0, [sp, #4]                    @ 4-byte Reload
	.loc	30 957 1 epilogue_begin is_stmt 0 @ D:\Embed\MDK\MDK\ARM\ARMCompilerV621\Bin\..\include\libcxx\variant:957:1
	add	sp, #16
	pop	{r7, pc}
.Ltmp241:
.Lfunc_end70:
	.size	_ZNSt3__216__variant_detail18__move_constructorINS0_8__traitsIJfPfP10OutputPortIfEEEELNS0_6_TraitE0EECI2NS0_6__baseILS8_0EJfS3_S6_EEEILj0EJEEENS_16in_place_index_tIXT_EEEDpOT0_, .Lfunc_end70-_ZNSt3__216__variant_detail18__move_constructorINS0_8__traitsIJfPfP10OutputPortIfEEEELNS0_6_TraitE0EECI2NS0_6__baseILS8_0EJfS3_S6_EEEILj0EJEEENS_16in_place_index_tIXT_EEEDpOT0_
	.cfi_endproc
	.cantunwind
	.fnend
                                        @ -- End function
	.section	.text._ZNSt3__216__variant_detail6__ctorINS0_8__traitsIJfPfP10OutputPortIfEEEEECI2NS0_6__baseILNS0_6_TraitE0EJfS3_S6_EEEILj0EJEEENS_16in_place_index_tIXT_EEEDpOT0_,"axG",%progbits,_ZNSt3__216__variant_detail6__ctorINS0_8__traitsIJfPfP10OutputPortIfEEEEECI2NS0_6__baseILNS0_6_TraitE0EJfS3_S6_EEEILj0EJEEENS_16in_place_index_tIXT_EEEDpOT0_,comdat
	.hidden	_ZNSt3__216__variant_detail6__ctorINS0_8__traitsIJfPfP10OutputPortIfEEEEECI2NS0_6__baseILNS0_6_TraitE0EJfS3_S6_EEEILj0EJEEENS_16in_place_index_tIXT_EEEDpOT0_ @ -- Begin function _ZNSt3__216__variant_detail6__ctorINS0_8__traitsIJfPfP10OutputPortIfEEEEECI2NS0_6__baseILNS0_6_TraitE0EJfS3_S6_EEEILj0EJEEENS_16in_place_index_tIXT_EEEDpOT0_
	.weak	_ZNSt3__216__variant_detail6__ctorINS0_8__traitsIJfPfP10OutputPortIfEEEEECI2NS0_6__baseILNS0_6_TraitE0EJfS3_S6_EEEILj0EJEEENS_16in_place_index_tIXT_EEEDpOT0_
	.p2align	2
	.type	_ZNSt3__216__variant_detail6__ctorINS0_8__traitsIJfPfP10OutputPortIfEEEEECI2NS0_6__baseILNS0_6_TraitE0EJfS3_S6_EEEILj0EJEEENS_16in_place_index_tIXT_EEEDpOT0_,%function
	.code	16                              @ @_ZNSt3__216__variant_detail6__ctorINS0_8__traitsIJfPfP10OutputPortIfEEEEECI2NS0_6__baseILNS0_6_TraitE0EJfS3_S6_EEEILj0EJEEENS_16in_place_index_tIXT_EEEDpOT0_
	.thumb_func
_ZNSt3__216__variant_detail6__ctorINS0_8__traitsIJfPfP10OutputPortIfEEEEECI2NS0_6__baseILNS0_6_TraitE0EJfS3_S6_EEEILj0EJEEENS_16in_place_index_tIXT_EEEDpOT0_:
.Lfunc_begin71:
	.loc	30 905 0 is_stmt 1              @ D:\Embed\MDK\MDK\ARM\ARMCompilerV621\Bin\..\include\libcxx\variant:905:0
	.fnstart
	.cfi_startproc
@ %bb.0:
	.save	{r7, lr}
	push	{r7, lr}
	.cfi_def_cfa_offset 8
	.cfi_offset lr, -4
	.cfi_offset r7, -8
	.pad	#16
	sub	sp, #16
	.cfi_def_cfa_offset 24
	str	r0, [sp, #8]
	ldr	r0, [sp, #8]
.Ltmp242:
	.loc	30 905 22 prologue_end          @ D:\Embed\MDK\MDK\ARM\ARMCompilerV621\Bin\..\include\libcxx\variant:905:22
	str	r0, [sp, #4]                    @ 4-byte Spill
	bl	_ZNSt3__216__variant_detail6__dtorINS0_8__traitsIJfPfP10OutputPortIfEEEELNS0_6_TraitE0EECI2NS0_6__baseILS8_0EJfS3_S6_EEEILj0EJEEENS_16in_place_index_tIXT_EEEDpOT0_
	ldr	r0, [sp, #4]                    @ 4-byte Reload
	.loc	30 905 22 epilogue_begin is_stmt 0 @ D:\Embed\MDK\MDK\ARM\ARMCompilerV621\Bin\..\include\libcxx\variant:905:22
	add	sp, #16
	pop	{r7, pc}
.Ltmp243:
.Lfunc_end71:
	.size	_ZNSt3__216__variant_detail6__ctorINS0_8__traitsIJfPfP10OutputPortIfEEEEECI2NS0_6__baseILNS0_6_TraitE0EJfS3_S6_EEEILj0EJEEENS_16in_place_index_tIXT_EEEDpOT0_, .Lfunc_end71-_ZNSt3__216__variant_detail6__ctorINS0_8__traitsIJfPfP10OutputPortIfEEEEECI2NS0_6__baseILNS0_6_TraitE0EJfS3_S6_EEEILj0EJEEENS_16in_place_index_tIXT_EEEDpOT0_
	.cfi_endproc
	.cantunwind
	.fnend
                                        @ -- End function
	.section	.text._ZNSt3__216__variant_detail6__dtorINS0_8__traitsIJfPfP10OutputPortIfEEEELNS0_6_TraitE0EECI2NS0_6__baseILS8_0EJfS3_S6_EEEILj0EJEEENS_16in_place_index_tIXT_EEEDpOT0_,"axG",%progbits,_ZNSt3__216__variant_detail6__dtorINS0_8__traitsIJfPfP10OutputPortIfEEEELNS0_6_TraitE0EECI2NS0_6__baseILS8_0EJfS3_S6_EEEILj0EJEEENS_16in_place_index_tIXT_EEEDpOT0_,comdat
	.hidden	_ZNSt3__216__variant_detail6__dtorINS0_8__traitsIJfPfP10OutputPortIfEEEELNS0_6_TraitE0EECI2NS0_6__baseILS8_0EJfS3_S6_EEEILj0EJEEENS_16in_place_index_tIXT_EEEDpOT0_ @ -- Begin function _ZNSt3__216__variant_detail6__dtorINS0_8__traitsIJfPfP10OutputPortIfEEEELNS0_6_TraitE0EECI2NS0_6__baseILS8_0EJfS3_S6_EEEILj0EJEEENS_16in_place_index_tIXT_EEEDpOT0_
	.weak	_ZNSt3__216__variant_detail6__dtorINS0_8__traitsIJfPfP10OutputPortIfEEEELNS0_6_TraitE0EECI2NS0_6__baseILS8_0EJfS3_S6_EEEILj0EJEEENS_16in_place_index_tIXT_EEEDpOT0_
	.p2align	2
	.type	_ZNSt3__216__variant_detail6__dtorINS0_8__traitsIJfPfP10OutputPortIfEEEELNS0_6_TraitE0EECI2NS0_6__baseILS8_0EJfS3_S6_EEEILj0EJEEENS_16in_place_index_tIXT_EEEDpOT0_,%function
	.code	16                              @ @_ZNSt3__216__variant_detail6__dtorINS0_8__traitsIJfPfP10OutputPortIfEEEELNS0_6_TraitE0EECI2NS0_6__baseILS8_0EJfS3_S6_EEEILj0EJEEENS_16in_place_index_tIXT_EEEDpOT0_
	.thumb_func
_ZNSt3__216__variant_detail6__dtorINS0_8__traitsIJfPfP10OutputPortIfEEEELNS0_6_TraitE0EECI2NS0_6__baseILS8_0EJfS3_S6_EEEILj0EJEEENS_16in_place_index_tIXT_EEEDpOT0_:
.Lfunc_begin72:
	.loc	30 873 0 is_stmt 1              @ D:\Embed\MDK\MDK\ARM\ARMCompilerV621\Bin\..\include\libcxx\variant:873:0
	.fnstart
	.cfi_startproc
@ %bb.0:
	.save	{r7, lr}
	push	{r7, lr}
	.cfi_def_cfa_offset 8
	.cfi_offset lr, -4
	.cfi_offset r7, -8
	.pad	#16
	sub	sp, #16
	.cfi_def_cfa_offset 24
	str	r0, [sp, #8]
	ldr	r0, [sp, #8]
.Ltmp244:
	.loc	30 873 1 prologue_end           @ D:\Embed\MDK\MDK\ARM\ARMCompilerV621\Bin\..\include\libcxx\variant:873:1
	str	r0, [sp, #4]                    @ 4-byte Spill
	bl	_ZNSt3__216__variant_detail6__baseILNS0_6_TraitE0EJfPfP10OutputPortIfEEEC2B7v180000ILj0EJEEENS_16in_place_index_tIXT_EEEDpOT0_
	ldr	r0, [sp, #4]                    @ 4-byte Reload
	.loc	30 873 1 epilogue_begin is_stmt 0 @ D:\Embed\MDK\MDK\ARM\ARMCompilerV621\Bin\..\include\libcxx\variant:873:1
	add	sp, #16
	pop	{r7, pc}
.Ltmp245:
.Lfunc_end72:
	.size	_ZNSt3__216__variant_detail6__dtorINS0_8__traitsIJfPfP10OutputPortIfEEEELNS0_6_TraitE0EECI2NS0_6__baseILS8_0EJfS3_S6_EEEILj0EJEEENS_16in_place_index_tIXT_EEEDpOT0_, .Lfunc_end72-_ZNSt3__216__variant_detail6__dtorINS0_8__traitsIJfPfP10OutputPortIfEEEELNS0_6_TraitE0EECI2NS0_6__baseILS8_0EJfS3_S6_EEEILj0EJEEENS_16in_place_index_tIXT_EEEDpOT0_
	.cfi_endproc
	.cantunwind
	.fnend
                                        @ -- End function
	.section	.text._ZNSt3__216__variant_detail6__baseILNS0_6_TraitE0EJfPfP10OutputPortIfEEEC2B7v180000ILj0EJEEENS_16in_place_index_tIXT_EEEDpOT0_,"axG",%progbits,_ZNSt3__216__variant_detail6__baseILNS0_6_TraitE0EJfPfP10OutputPortIfEEEC2B7v180000ILj0EJEEENS_16in_place_index_tIXT_EEEDpOT0_,comdat
	.hidden	_ZNSt3__216__variant_detail6__baseILNS0_6_TraitE0EJfPfP10OutputPortIfEEEC2B7v180000ILj0EJEEENS_16in_place_index_tIXT_EEEDpOT0_ @ -- Begin function _ZNSt3__216__variant_detail6__baseILNS0_6_TraitE0EJfPfP10OutputPortIfEEEC2B7v180000ILj0EJEEENS_16in_place_index_tIXT_EEEDpOT0_
	.weak	_ZNSt3__216__variant_detail6__baseILNS0_6_TraitE0EJfPfP10OutputPortIfEEEC2B7v180000ILj0EJEEENS_16in_place_index_tIXT_EEEDpOT0_
	.p2align	2
	.type	_ZNSt3__216__variant_detail6__baseILNS0_6_TraitE0EJfPfP10OutputPortIfEEEC2B7v180000ILj0EJEEENS_16in_place_index_tIXT_EEEDpOT0_,%function
	.code	16                              @ @_ZNSt3__216__variant_detail6__baseILNS0_6_TraitE0EJfPfP10OutputPortIfEEEC2B7v180000ILj0EJEEENS_16in_place_index_tIXT_EEEDpOT0_
	.thumb_func
_ZNSt3__216__variant_detail6__baseILNS0_6_TraitE0EJfPfP10OutputPortIfEEEC2B7v180000ILj0EJEEENS_16in_place_index_tIXT_EEEDpOT0_:
.Lfunc_begin73:
	.loc	30 812 0 is_stmt 1              @ D:\Embed\MDK\MDK\ARM\ARMCompilerV621\Bin\..\include\libcxx\variant:812:0
	.fnstart
	.cfi_startproc
@ %bb.0:
	.save	{r7, lr}
	push	{r7, lr}
	.cfi_def_cfa_offset 8
	.cfi_offset lr, -4
	.cfi_offset r7, -8
	.pad	#16
	sub	sp, #16
	.cfi_def_cfa_offset 24
	str	r0, [sp, #8]
	ldr	r0, [sp, #8]
.Ltmp246:
	.loc	30 811 9 prologue_end           @ D:\Embed\MDK\MDK\ARM\ARMCompilerV621\Bin\..\include\libcxx\variant:811:9
	str	r0, [sp]                        @ 4-byte Spill
	bl	_ZNSt3__216__variant_detail7__unionILNS0_6_TraitE0ELj0EJfPfP10OutputPortIfEEEC2B7v180000IJEEENS_16in_place_index_tILj0EEEDpOT_
	ldr	r0, [sp]                        @ 4-byte Reload
	movs	r1, #0
	.loc	30 812 9                        @ D:\Embed\MDK\MDK\ARM\ARMCompilerV621\Bin\..\include\libcxx\variant:812:9
	strb	r1, [r0, #4]
	.loc	30 812 23 epilogue_begin is_stmt 0 @ D:\Embed\MDK\MDK\ARM\ARMCompilerV621\Bin\..\include\libcxx\variant:812:23
	add	sp, #16
	pop	{r7, pc}
.Ltmp247:
.Lfunc_end73:
	.size	_ZNSt3__216__variant_detail6__baseILNS0_6_TraitE0EJfPfP10OutputPortIfEEEC2B7v180000ILj0EJEEENS_16in_place_index_tIXT_EEEDpOT0_, .Lfunc_end73-_ZNSt3__216__variant_detail6__baseILNS0_6_TraitE0EJfPfP10OutputPortIfEEEC2B7v180000ILj0EJEEENS_16in_place_index_tIXT_EEEDpOT0_
	.cfi_endproc
	.cantunwind
	.fnend
                                        @ -- End function
	.section	.text._ZNSt3__216__variant_detail7__unionILNS0_6_TraitE0ELj0EJfPfP10OutputPortIfEEEC2B7v180000IJEEENS_16in_place_index_tILj0EEEDpOT_,"axG",%progbits,_ZNSt3__216__variant_detail7__unionILNS0_6_TraitE0ELj0EJfPfP10OutputPortIfEEEC2B7v180000IJEEENS_16in_place_index_tILj0EEEDpOT_,comdat
	.hidden	_ZNSt3__216__variant_detail7__unionILNS0_6_TraitE0ELj0EJfPfP10OutputPortIfEEEC2B7v180000IJEEENS_16in_place_index_tILj0EEEDpOT_ @ -- Begin function _ZNSt3__216__variant_detail7__unionILNS0_6_TraitE0ELj0EJfPfP10OutputPortIfEEEC2B7v180000IJEEENS_16in_place_index_tILj0EEEDpOT_
	.weak	_ZNSt3__216__variant_detail7__unionILNS0_6_TraitE0ELj0EJfPfP10OutputPortIfEEEC2B7v180000IJEEENS_16in_place_index_tILj0EEEDpOT_
	.p2align	2
	.type	_ZNSt3__216__variant_detail7__unionILNS0_6_TraitE0ELj0EJfPfP10OutputPortIfEEEC2B7v180000IJEEENS_16in_place_index_tILj0EEEDpOT_,%function
	.code	16                              @ @_ZNSt3__216__variant_detail7__unionILNS0_6_TraitE0ELj0EJfPfP10OutputPortIfEEEC2B7v180000IJEEENS_16in_place_index_tILj0EEEDpOT_
	.thumb_func
_ZNSt3__216__variant_detail7__unionILNS0_6_TraitE0ELj0EJfPfP10OutputPortIfEEEC2B7v180000IJEEENS_16in_place_index_tILj0EEEDpOT_:
.Lfunc_begin74:
	.loc	30 792 0 is_stmt 1              @ D:\Embed\MDK\MDK\ARM\ARMCompilerV621\Bin\..\include\libcxx\variant:792:0
	.fnstart
	.cfi_startproc
@ %bb.0:
	.save	{r7, lr}
	push	{r7, lr}
	.cfi_def_cfa_offset 8
	.cfi_offset lr, -4
	.cfi_offset r7, -8
	.pad	#16
	sub	sp, #16
	.cfi_def_cfa_offset 24
	str	r0, [sp, #8]
	ldr	r0, [sp, #8]
.Ltmp248:
	.loc	30 792 1 prologue_end           @ D:\Embed\MDK\MDK\ARM\ARMCompilerV621\Bin\..\include\libcxx\variant:792:1
	str	r0, [sp]                        @ 4-byte Spill
	bl	_ZNSt3__216__variant_detail5__altILj0EfEC2B7v180000IJEEENS_10in_place_tEDpOT_
	ldr	r0, [sp]                        @ 4-byte Reload
	.loc	30 792 1 epilogue_begin is_stmt 0 @ D:\Embed\MDK\MDK\ARM\ARMCompilerV621\Bin\..\include\libcxx\variant:792:1
	add	sp, #16
	pop	{r7, pc}
.Ltmp249:
.Lfunc_end74:
	.size	_ZNSt3__216__variant_detail7__unionILNS0_6_TraitE0ELj0EJfPfP10OutputPortIfEEEC2B7v180000IJEEENS_16in_place_index_tILj0EEEDpOT_, .Lfunc_end74-_ZNSt3__216__variant_detail7__unionILNS0_6_TraitE0ELj0EJfPfP10OutputPortIfEEEC2B7v180000IJEEENS_16in_place_index_tILj0EEEDpOT_
	.cfi_endproc
	.cantunwind
	.fnend
                                        @ -- End function
	.section	.text._ZNSt3__216__variant_detail5__altILj0EfEC2B7v180000IJEEENS_10in_place_tEDpOT_,"axG",%progbits,_ZNSt3__216__variant_detail5__altILj0EfEC2B7v180000IJEEENS_10in_place_tEDpOT_,comdat
	.hidden	_ZNSt3__216__variant_detail5__altILj0EfEC2B7v180000IJEEENS_10in_place_tEDpOT_ @ -- Begin function _ZNSt3__216__variant_detail5__altILj0EfEC2B7v180000IJEEENS_10in_place_tEDpOT_
	.weak	_ZNSt3__216__variant_detail5__altILj0EfEC2B7v180000IJEEENS_10in_place_tEDpOT_
	.p2align	2
	.type	_ZNSt3__216__variant_detail5__altILj0EfEC2B7v180000IJEEENS_10in_place_tEDpOT_,%function
	.code	16                              @ @_ZNSt3__216__variant_detail5__altILj0EfEC2B7v180000IJEEENS_10in_place_tEDpOT_
	.thumb_func
_ZNSt3__216__variant_detail5__altILj0EfEC2B7v180000IJEEENS_10in_place_tEDpOT_:
.Lfunc_begin75:
	.loc	30 745 0 is_stmt 1              @ D:\Embed\MDK\MDK\ARM\ARMCompilerV621\Bin\..\include\libcxx\variant:745:0
	.fnstart
	.cfi_startproc
@ %bb.0:
	.pad	#8
	sub	sp, #8
	.cfi_def_cfa_offset 8
	str	r0, [sp]
	ldr	r0, [sp]
	movs	r1, #0
.Ltmp250:
	.loc	30 745 9 prologue_end           @ D:\Embed\MDK\MDK\ARM\ARMCompilerV621\Bin\..\include\libcxx\variant:745:9
	str	r1, [r0]
	.loc	30 745 52 epilogue_begin is_stmt 0 @ D:\Embed\MDK\MDK\ARM\ARMCompilerV621\Bin\..\include\libcxx\variant:745:52
	add	sp, #8
	bx	lr
.Ltmp251:
.Lfunc_end75:
	.size	_ZNSt3__216__variant_detail5__altILj0EfEC2B7v180000IJEEENS_10in_place_tEDpOT_, .Lfunc_end75-_ZNSt3__216__variant_detail5__altILj0EfEC2B7v180000IJEEENS_10in_place_tEDpOT_
	.cfi_endproc
	.cantunwind
	.fnend
                                        @ -- End function
	.section	.text._ZN21TrapezoidalTrajectory8Config_tC2Ev,"axG",%progbits,_ZN21TrapezoidalTrajectory8Config_tC2Ev,comdat
	.hidden	_ZN21TrapezoidalTrajectory8Config_tC2Ev @ -- Begin function _ZN21TrapezoidalTrajectory8Config_tC2Ev
	.weak	_ZN21TrapezoidalTrajectory8Config_tC2Ev
	.p2align	2
	.type	_ZN21TrapezoidalTrajectory8Config_tC2Ev,%function
	.code	16                              @ @_ZN21TrapezoidalTrajectory8Config_tC2Ev
	.thumb_func
_ZN21TrapezoidalTrajectory8Config_tC2Ev:
.Lfunc_begin76:
	.loc	21 6 0 is_stmt 1                @ ../MotorControl\trapTraj.hpp:6:0
	.fnstart
	.cfi_startproc
@ %bb.0:
	.pad	#4
	sub	sp, #4
	.cfi_def_cfa_offset 4
	str	r0, [sp]
	ldr	r0, [sp]
	mov.w	r1, #1073741824
.Ltmp252:
	.loc	21 7 15 prologue_end            @ ../MotorControl\trapTraj.hpp:7:15
	str	r1, [r0]
	mov.w	r1, #1056964608
	.loc	21 8 15                         @ ../MotorControl\trapTraj.hpp:8:15
	str	r1, [r0, #4]
	.loc	21 9 15                         @ ../MotorControl\trapTraj.hpp:9:15
	str	r1, [r0, #8]
	.loc	21 6 12 epilogue_begin          @ ../MotorControl\trapTraj.hpp:6:12
	add	sp, #4
	bx	lr
.Ltmp253:
.Lfunc_end76:
	.size	_ZN21TrapezoidalTrajectory8Config_tC2Ev, .Lfunc_end76-_ZN21TrapezoidalTrajectory8Config_tC2Ev
	.cfi_endproc
	.cantunwind
	.fnend
                                        @ -- End function
	.section	.text._ZL18cpu_enter_criticalv,"ax",%progbits
	.p2align	2                               @ -- Begin function _ZL18cpu_enter_criticalv
	.type	_ZL18cpu_enter_criticalv,%function
	.code	16                              @ @_ZL18cpu_enter_criticalv
	.thumb_func
_ZL18cpu_enter_criticalv:
.Lfunc_begin77:
	.loc	35 31 0                         @ ../../Firmware\Drivers/STM32/stm32_system.h:31:0
	.fnstart
	.cfi_startproc
@ %bb.0:
	.pad	#12
	sub	sp, #12
	.cfi_def_cfa_offset 12
.Ltmp254:
	.file	42 "D:\\ikingtec\\Robot\\ODrive\\Firmware\\MDK-ARM" "../ThirdParty/CMSIS/Include/cmsis_armclang.h"
	.loc	42 377 3 prologue_end           @ ../ThirdParty/CMSIS/Include/cmsis_armclang.h:377:3
	@APP
	mrs	r0, primask
	@NO_APP
	str	r0, [sp, #4]
	.loc	42 378 10                       @ ../ThirdParty/CMSIS/Include/cmsis_armclang.h:378:10
	ldr	r0, [sp, #4]
.Ltmp255:
	.loc	35 32 14                        @ ../../Firmware\Drivers/STM32/stm32_system.h:32:14
	str	r0, [sp]
	.loc	35 33 5                         @ ../../Firmware\Drivers/STM32/stm32_system.h:33:5
	@APP
	mrs	r0, primask
	cpsid i

	@NO_APP
	str	r0, [sp, #8]
	.loc	35 34 12                        @ ../../Firmware\Drivers/STM32/stm32_system.h:34:12
	ldr	r0, [sp]
	.loc	35 34 5 epilogue_begin is_stmt 0 @ ../../Firmware\Drivers/STM32/stm32_system.h:34:5
	add	sp, #12
	bx	lr
.Ltmp256:
.Lfunc_end77:
	.size	_ZL18cpu_enter_criticalv, .Lfunc_end77-_ZL18cpu_enter_criticalv
	.cfi_endproc
	.cantunwind
	.fnend
                                        @ -- End function
	.section	.text._ZL17cpu_exit_criticalj,"ax",%progbits
	.p2align	2                               @ -- Begin function _ZL17cpu_exit_criticalj
	.type	_ZL17cpu_exit_criticalj,%function
	.code	16                              @ @_ZL17cpu_exit_criticalj
	.thumb_func
_ZL17cpu_exit_criticalj:
.Lfunc_begin78:
	.loc	35 37 0 is_stmt 1               @ ../../Firmware\Drivers/STM32/stm32_system.h:37:0
	.fnstart
	.cfi_startproc
@ %bb.0:
	.pad	#8
	sub	sp, #8
	.cfi_def_cfa_offset 8
	str	r0, [sp]
.Ltmp257:
	.loc	35 38 19 prologue_end           @ ../../Firmware\Drivers/STM32/stm32_system.h:38:19
	ldr	r0, [sp]
	str	r0, [sp, #4]
.Ltmp258:
	.loc	42 405 46                       @ ../ThirdParty/CMSIS/Include/cmsis_armclang.h:405:46
	ldr	r0, [sp, #4]
	.loc	42 405 3 is_stmt 0              @ ../ThirdParty/CMSIS/Include/cmsis_armclang.h:405:3
	@APP
	msr	primask, r0
	@NO_APP
.Ltmp259:
	.loc	35 39 1 epilogue_begin is_stmt 1 @ ../../Firmware\Drivers/STM32/stm32_system.h:39:1
	add	sp, #8
	bx	lr
.Ltmp260:
.Lfunc_end78:
	.size	_ZL17cpu_exit_criticalj, .Lfunc_end78-_ZL17cpu_exit_criticalj
	.cfi_endproc
	.cantunwind
	.fnend
                                        @ -- End function
	.section	.text._ZNSt3__227__optional_move_assign_baseI9Iph_ABC_tLb1EEC2Ev,"axG",%progbits,_ZNSt3__227__optional_move_assign_baseI9Iph_ABC_tLb1EEC2Ev,comdat
	.hidden	_ZNSt3__227__optional_move_assign_baseI9Iph_ABC_tLb1EEC2Ev @ -- Begin function _ZNSt3__227__optional_move_assign_baseI9Iph_ABC_tLb1EEC2Ev
	.weak	_ZNSt3__227__optional_move_assign_baseI9Iph_ABC_tLb1EEC2Ev
	.p2align	2
	.type	_ZNSt3__227__optional_move_assign_baseI9Iph_ABC_tLb1EEC2Ev,%function
	.code	16                              @ @_ZNSt3__227__optional_move_assign_baseI9Iph_ABC_tLb1EEC2Ev
	.thumb_func
_ZNSt3__227__optional_move_assign_baseI9Iph_ABC_tLb1EEC2Ev:
.Lfunc_begin79:
	.loc	18 638 0                        @ D:\Embed\MDK\MDK\ARM\ARMCompilerV621\Bin\..\include\libcxx\optional:638:0
	.fnstart
	.cfi_startproc
@ %bb.0:
	.save	{r7, lr}
	push	{r7, lr}
	.cfi_def_cfa_offset 8
	.cfi_offset lr, -4
	.cfi_offset r7, -8
	.pad	#8
	sub	sp, #8
	.cfi_def_cfa_offset 16
	str	r0, [sp, #4]
	ldr	r0, [sp, #4]
.Ltmp261:
	.loc	18 638 8 prologue_end           @ D:\Embed\MDK\MDK\ARM\ARMCompilerV621\Bin\..\include\libcxx\optional:638:8
	str	r0, [sp]                        @ 4-byte Spill
	bl	_ZNSt3__227__optional_copy_assign_baseI9Iph_ABC_tLb1EEC2Ev
	ldr	r0, [sp]                        @ 4-byte Reload
	.loc	18 638 8 epilogue_begin is_stmt 0 @ D:\Embed\MDK\MDK\ARM\ARMCompilerV621\Bin\..\include\libcxx\optional:638:8
	add	sp, #8
	pop	{r7, pc}
.Ltmp262:
.Lfunc_end79:
	.size	_ZNSt3__227__optional_move_assign_baseI9Iph_ABC_tLb1EEC2Ev, .Lfunc_end79-_ZNSt3__227__optional_move_assign_baseI9Iph_ABC_tLb1EEC2Ev
	.cfi_endproc
	.cantunwind
	.fnend
                                        @ -- End function
	.section	.text._ZNSt3__227__optional_copy_assign_baseI9Iph_ABC_tLb1EEC2Ev,"axG",%progbits,_ZNSt3__227__optional_copy_assign_baseI9Iph_ABC_tLb1EEC2Ev,comdat
	.hidden	_ZNSt3__227__optional_copy_assign_baseI9Iph_ABC_tLb1EEC2Ev @ -- Begin function _ZNSt3__227__optional_copy_assign_baseI9Iph_ABC_tLb1EEC2Ev
	.weak	_ZNSt3__227__optional_copy_assign_baseI9Iph_ABC_tLb1EEC2Ev
	.p2align	2
	.type	_ZNSt3__227__optional_copy_assign_baseI9Iph_ABC_tLb1EEC2Ev,%function
	.code	16                              @ @_ZNSt3__227__optional_copy_assign_baseI9Iph_ABC_tLb1EEC2Ev
	.thumb_func
_ZNSt3__227__optional_copy_assign_baseI9Iph_ABC_tLb1EEC2Ev:
.Lfunc_begin80:
	.loc	18 606 0 is_stmt 1              @ D:\Embed\MDK\MDK\ARM\ARMCompilerV621\Bin\..\include\libcxx\optional:606:0
	.fnstart
	.cfi_startproc
@ %bb.0:
	.save	{r7, lr}
	push	{r7, lr}
	.cfi_def_cfa_offset 8
	.cfi_offset lr, -4
	.cfi_offset r7, -8
	.pad	#8
	sub	sp, #8
	.cfi_def_cfa_offset 16
	str	r0, [sp, #4]
	ldr	r0, [sp, #4]
.Ltmp263:
	.loc	18 606 8 prologue_end           @ D:\Embed\MDK\MDK\ARM\ARMCompilerV621\Bin\..\include\libcxx\optional:606:8
	str	r0, [sp]                        @ 4-byte Spill
	bl	_ZNSt3__220__optional_move_baseI9Iph_ABC_tLb1EEC2Ev
	ldr	r0, [sp]                        @ 4-byte Reload
	.loc	18 606 8 epilogue_begin is_stmt 0 @ D:\Embed\MDK\MDK\ARM\ARMCompilerV621\Bin\..\include\libcxx\optional:606:8
	add	sp, #8
	pop	{r7, pc}
.Ltmp264:
.Lfunc_end80:
	.size	_ZNSt3__227__optional_copy_assign_baseI9Iph_ABC_tLb1EEC2Ev, .Lfunc_end80-_ZNSt3__227__optional_copy_assign_baseI9Iph_ABC_tLb1EEC2Ev
	.cfi_endproc
	.cantunwind
	.fnend
                                        @ -- End function
	.section	.text._ZNSt3__220__optional_move_baseI9Iph_ABC_tLb1EEC2Ev,"axG",%progbits,_ZNSt3__220__optional_move_baseI9Iph_ABC_tLb1EEC2Ev,comdat
	.hidden	_ZNSt3__220__optional_move_baseI9Iph_ABC_tLb1EEC2Ev @ -- Begin function _ZNSt3__220__optional_move_baseI9Iph_ABC_tLb1EEC2Ev
	.weak	_ZNSt3__220__optional_move_baseI9Iph_ABC_tLb1EEC2Ev
	.p2align	2
	.type	_ZNSt3__220__optional_move_baseI9Iph_ABC_tLb1EEC2Ev,%function
	.code	16                              @ @_ZNSt3__220__optional_move_baseI9Iph_ABC_tLb1EEC2Ev
	.thumb_func
_ZNSt3__220__optional_move_baseI9Iph_ABC_tLb1EEC2Ev:
.Lfunc_begin81:
	.loc	18 573 0 is_stmt 1              @ D:\Embed\MDK\MDK\ARM\ARMCompilerV621\Bin\..\include\libcxx\optional:573:0
	.fnstart
	.cfi_startproc
@ %bb.0:
	.save	{r7, lr}
	push	{r7, lr}
	.cfi_def_cfa_offset 8
	.cfi_offset lr, -4
	.cfi_offset r7, -8
	.pad	#8
	sub	sp, #8
	.cfi_def_cfa_offset 16
	str	r0, [sp, #4]
	ldr	r0, [sp, #4]
.Ltmp265:
	.loc	18 573 8 prologue_end           @ D:\Embed\MDK\MDK\ARM\ARMCompilerV621\Bin\..\include\libcxx\optional:573:8
	str	r0, [sp]                        @ 4-byte Spill
	bl	_ZNSt3__220__optional_copy_baseI9Iph_ABC_tLb1EEC2Ev
	ldr	r0, [sp]                        @ 4-byte Reload
	.loc	18 573 8 epilogue_begin is_stmt 0 @ D:\Embed\MDK\MDK\ARM\ARMCompilerV621\Bin\..\include\libcxx\optional:573:8
	add	sp, #8
	pop	{r7, pc}
.Ltmp266:
.Lfunc_end81:
	.size	_ZNSt3__220__optional_move_baseI9Iph_ABC_tLb1EEC2Ev, .Lfunc_end81-_ZNSt3__220__optional_move_baseI9Iph_ABC_tLb1EEC2Ev
	.cfi_endproc
	.cantunwind
	.fnend
                                        @ -- End function
	.section	.text._ZNSt3__220__optional_copy_baseI9Iph_ABC_tLb1EEC2Ev,"axG",%progbits,_ZNSt3__220__optional_copy_baseI9Iph_ABC_tLb1EEC2Ev,comdat
	.hidden	_ZNSt3__220__optional_copy_baseI9Iph_ABC_tLb1EEC2Ev @ -- Begin function _ZNSt3__220__optional_copy_baseI9Iph_ABC_tLb1EEC2Ev
	.weak	_ZNSt3__220__optional_copy_baseI9Iph_ABC_tLb1EEC2Ev
	.p2align	2
	.type	_ZNSt3__220__optional_copy_baseI9Iph_ABC_tLb1EEC2Ev,%function
	.code	16                              @ @_ZNSt3__220__optional_copy_baseI9Iph_ABC_tLb1EEC2Ev
	.thumb_func
_ZNSt3__220__optional_copy_baseI9Iph_ABC_tLb1EEC2Ev:
.Lfunc_begin82:
	.loc	18 545 0 is_stmt 1              @ D:\Embed\MDK\MDK\ARM\ARMCompilerV621\Bin\..\include\libcxx\optional:545:0
	.fnstart
	.cfi_startproc
@ %bb.0:
	.save	{r7, lr}
	push	{r7, lr}
	.cfi_def_cfa_offset 8
	.cfi_offset lr, -4
	.cfi_offset r7, -8
	.pad	#8
	sub	sp, #8
	.cfi_def_cfa_offset 16
	str	r0, [sp, #4]
	ldr	r0, [sp, #4]
.Ltmp267:
	.loc	18 545 8 prologue_end           @ D:\Embed\MDK\MDK\ARM\ARMCompilerV621\Bin\..\include\libcxx\optional:545:8
	str	r0, [sp]                        @ 4-byte Spill
	bl	_ZNSt3__223__optional_storage_baseI9Iph_ABC_tLb0EEC2Ev
	ldr	r0, [sp]                        @ 4-byte Reload
	.loc	18 545 8 epilogue_begin is_stmt 0 @ D:\Embed\MDK\MDK\ARM\ARMCompilerV621\Bin\..\include\libcxx\optional:545:8
	add	sp, #8
	pop	{r7, pc}
.Ltmp268:
.Lfunc_end82:
	.size	_ZNSt3__220__optional_copy_baseI9Iph_ABC_tLb1EEC2Ev, .Lfunc_end82-_ZNSt3__220__optional_copy_baseI9Iph_ABC_tLb1EEC2Ev
	.cfi_endproc
	.cantunwind
	.fnend
                                        @ -- End function
	.section	.text._ZNSt3__223__optional_storage_baseI9Iph_ABC_tLb0EEC2Ev,"axG",%progbits,_ZNSt3__223__optional_storage_baseI9Iph_ABC_tLb0EEC2Ev,comdat
	.hidden	_ZNSt3__223__optional_storage_baseI9Iph_ABC_tLb0EEC2Ev @ -- Begin function _ZNSt3__223__optional_storage_baseI9Iph_ABC_tLb0EEC2Ev
	.weak	_ZNSt3__223__optional_storage_baseI9Iph_ABC_tLb0EEC2Ev
	.p2align	2
	.type	_ZNSt3__223__optional_storage_baseI9Iph_ABC_tLb0EEC2Ev,%function
	.code	16                              @ @_ZNSt3__223__optional_storage_baseI9Iph_ABC_tLb0EEC2Ev
	.thumb_func
_ZNSt3__223__optional_storage_baseI9Iph_ABC_tLb0EEC2Ev:
.Lfunc_begin83:
	.loc	18 378 0 is_stmt 1              @ D:\Embed\MDK\MDK\ARM\ARMCompilerV621\Bin\..\include\libcxx\optional:378:0
	.fnstart
	.cfi_startproc
@ %bb.0:
	.save	{r7, lr}
	push	{r7, lr}
	.cfi_def_cfa_offset 8
	.cfi_offset lr, -4
	.cfi_offset r7, -8
	.pad	#8
	sub	sp, #8
	.cfi_def_cfa_offset 16
	str	r0, [sp, #4]
	ldr	r0, [sp, #4]
.Ltmp269:
	.loc	18 378 8 prologue_end           @ D:\Embed\MDK\MDK\ARM\ARMCompilerV621\Bin\..\include\libcxx\optional:378:8
	str	r0, [sp]                        @ 4-byte Spill
	bl	_ZNSt3__224__optional_destruct_baseI9Iph_ABC_tLb1EEC2B7v180000Ev
	ldr	r0, [sp]                        @ 4-byte Reload
	.loc	18 378 8 epilogue_begin is_stmt 0 @ D:\Embed\MDK\MDK\ARM\ARMCompilerV621\Bin\..\include\libcxx\optional:378:8
	add	sp, #8
	pop	{r7, pc}
.Ltmp270:
.Lfunc_end83:
	.size	_ZNSt3__223__optional_storage_baseI9Iph_ABC_tLb0EEC2Ev, .Lfunc_end83-_ZNSt3__223__optional_storage_baseI9Iph_ABC_tLb0EEC2Ev
	.cfi_endproc
	.cantunwind
	.fnend
                                        @ -- End function
	.section	.text._ZNSt3__224__optional_destruct_baseI9Iph_ABC_tLb1EEC2B7v180000Ev,"axG",%progbits,_ZNSt3__224__optional_destruct_baseI9Iph_ABC_tLb1EEC2B7v180000Ev,comdat
	.hidden	_ZNSt3__224__optional_destruct_baseI9Iph_ABC_tLb1EEC2B7v180000Ev @ -- Begin function _ZNSt3__224__optional_destruct_baseI9Iph_ABC_tLb1EEC2B7v180000Ev
	.weak	_ZNSt3__224__optional_destruct_baseI9Iph_ABC_tLb1EEC2B7v180000Ev
	.p2align	2
	.type	_ZNSt3__224__optional_destruct_baseI9Iph_ABC_tLb1EEC2B7v180000Ev,%function
	.code	16                              @ @_ZNSt3__224__optional_destruct_baseI9Iph_ABC_tLb1EEC2B7v180000Ev
	.thumb_func
_ZNSt3__224__optional_destruct_baseI9Iph_ABC_tLb1EEC2B7v180000Ev:
.Lfunc_begin84:
	.loc	18 352 0 is_stmt 1              @ D:\Embed\MDK\MDK\ARM\ARMCompilerV621\Bin\..\include\libcxx\optional:352:0
	.fnstart
	.cfi_startproc
@ %bb.0:
	.pad	#4
	sub	sp, #4
	.cfi_def_cfa_offset 4
	str	r0, [sp]
	ldr	r0, [sp]
	movs	r1, #0
.Ltmp271:
	.loc	18 351 12 prologue_end          @ D:\Embed\MDK\MDK\ARM\ARMCompilerV621\Bin\..\include\libcxx\optional:351:12
	strb	r1, [r0]
	.loc	18 352 12                       @ D:\Embed\MDK\MDK\ARM\ARMCompilerV621\Bin\..\include\libcxx\optional:352:12
	strb	r1, [r0, #12]
	.loc	18 352 31 epilogue_begin is_stmt 0 @ D:\Embed\MDK\MDK\ARM\ARMCompilerV621\Bin\..\include\libcxx\optional:352:31
	add	sp, #4
	bx	lr
.Ltmp272:
.Lfunc_end84:
	.size	_ZNSt3__224__optional_destruct_baseI9Iph_ABC_tLb1EEC2B7v180000Ev, .Lfunc_end84-_ZNSt3__224__optional_destruct_baseI9Iph_ABC_tLb1EEC2B7v180000Ev
	.cfi_endproc
	.cantunwind
	.fnend
                                        @ -- End function
	.section	.text._ZNKSt3__223__optional_storage_baseIfLb0EE9has_valueB7v180000Ev,"axG",%progbits,_ZNKSt3__223__optional_storage_baseIfLb0EE9has_valueB7v180000Ev,comdat
	.hidden	_ZNKSt3__223__optional_storage_baseIfLb0EE9has_valueB7v180000Ev @ -- Begin function _ZNKSt3__223__optional_storage_baseIfLb0EE9has_valueB7v180000Ev
	.weak	_ZNKSt3__223__optional_storage_baseIfLb0EE9has_valueB7v180000Ev
	.p2align	2
	.type	_ZNKSt3__223__optional_storage_baseIfLb0EE9has_valueB7v180000Ev,%function
	.code	16                              @ @_ZNKSt3__223__optional_storage_baseIfLb0EE9has_valueB7v180000Ev
	.thumb_func
_ZNKSt3__223__optional_storage_baseIfLb0EE9has_valueB7v180000Ev:
.Lfunc_begin85:
	.loc	18 386 0 is_stmt 1              @ D:\Embed\MDK\MDK\ARM\ARMCompilerV621\Bin\..\include\libcxx\optional:386:0
	.fnstart
	.cfi_startproc
@ %bb.0:
	.pad	#4
	sub	sp, #4
	.cfi_def_cfa_offset 4
	str	r0, [sp]
	ldr	r0, [sp]
.Ltmp273:
	.loc	18 387 9 prologue_end           @ D:\Embed\MDK\MDK\ARM\ARMCompilerV621\Bin\..\include\libcxx\optional:387:9
	ldrb	r0, [r0, #4]
	and	r0, r0, #1
	.loc	18 387 9 epilogue_begin is_stmt 0 @ D:\Embed\MDK\MDK\ARM\ARMCompilerV621\Bin\..\include\libcxx\optional:387:9
	add	sp, #4
	bx	lr
.Ltmp274:
.Lfunc_end85:
	.size	_ZNKSt3__223__optional_storage_baseIfLb0EE9has_valueB7v180000Ev, .Lfunc_end85-_ZNKSt3__223__optional_storage_baseIfLb0EE9has_valueB7v180000Ev
	.cfi_endproc
	.cantunwind
	.fnend
                                        @ -- End function
	.section	.text._ZNRSt3__28optionalIfEdeB7v180000Ev,"axG",%progbits,_ZNRSt3__28optionalIfEdeB7v180000Ev,comdat
	.hidden	_ZNRSt3__28optionalIfEdeB7v180000Ev @ -- Begin function _ZNRSt3__28optionalIfEdeB7v180000Ev
	.weak	_ZNRSt3__28optionalIfEdeB7v180000Ev
	.p2align	2
	.type	_ZNRSt3__28optionalIfEdeB7v180000Ev,%function
	.code	16                              @ @_ZNRSt3__28optionalIfEdeB7v180000Ev
	.thumb_func
_ZNRSt3__28optionalIfEdeB7v180000Ev:
.Lfunc_begin86:
	.loc	18 1026 0 is_stmt 1             @ D:\Embed\MDK\MDK\ARM\ARMCompilerV621\Bin\..\include\libcxx\optional:1026:0
	.fnstart
	.cfi_startproc
@ %bb.0:
	.save	{r7, lr}
	push	{r7, lr}
	.cfi_def_cfa_offset 8
	.cfi_offset lr, -4
	.cfi_offset r7, -8
	.pad	#8
	sub	sp, #8
	.cfi_def_cfa_offset 16
	str	r0, [sp, #4]
	ldr	r0, [sp, #4]
.Ltmp275:
	.loc	18 1028 22 prologue_end         @ D:\Embed\MDK\MDK\ARM\ARMCompilerV621\Bin\..\include\libcxx\optional:1028:22
	bl	_ZNRSt3__223__optional_storage_baseIfLb0EE5__getB7v180000Ev
	.loc	18 1028 9 epilogue_begin is_stmt 0 @ D:\Embed\MDK\MDK\ARM\ARMCompilerV621\Bin\..\include\libcxx\optional:1028:9
	add	sp, #8
	pop	{r7, pc}
.Ltmp276:
.Lfunc_end86:
	.size	_ZNRSt3__28optionalIfEdeB7v180000Ev, .Lfunc_end86-_ZNRSt3__28optionalIfEdeB7v180000Ev
	.cfi_endproc
	.cantunwind
	.fnend
                                        @ -- End function
	.section	.text._ZNRSt3__223__optional_storage_baseIfLb0EE5__getB7v180000Ev,"axG",%progbits,_ZNRSt3__223__optional_storage_baseIfLb0EE5__getB7v180000Ev,comdat
	.hidden	_ZNRSt3__223__optional_storage_baseIfLb0EE5__getB7v180000Ev @ -- Begin function _ZNRSt3__223__optional_storage_baseIfLb0EE5__getB7v180000Ev
	.weak	_ZNRSt3__223__optional_storage_baseIfLb0EE5__getB7v180000Ev
	.p2align	2
	.type	_ZNRSt3__223__optional_storage_baseIfLb0EE5__getB7v180000Ev,%function
	.code	16                              @ @_ZNRSt3__223__optional_storage_baseIfLb0EE5__getB7v180000Ev
	.thumb_func
_ZNRSt3__223__optional_storage_baseIfLb0EE5__getB7v180000Ev:
.Lfunc_begin87:
	.loc	18 392 0 is_stmt 1              @ D:\Embed\MDK\MDK\ARM\ARMCompilerV621\Bin\..\include\libcxx\optional:392:0
	.fnstart
	.cfi_startproc
@ %bb.0:
	.pad	#4
	sub	sp, #4
	.cfi_def_cfa_offset 4
	str	r0, [sp]
	ldr	r0, [sp]
.Ltmp277:
	.loc	18 393 9 prologue_end epilogue_begin @ D:\Embed\MDK\MDK\ARM\ARMCompilerV621\Bin\..\include\libcxx\optional:393:9
	add	sp, #4
	bx	lr
.Ltmp278:
.Lfunc_end87:
	.size	_ZNRSt3__223__optional_storage_baseIfLb0EE5__getB7v180000Ev, .Lfunc_end87-_ZNRSt3__223__optional_storage_baseIfLb0EE5__getB7v180000Ev
	.cfi_endproc
	.cantunwind
	.fnend
                                        @ -- End function
	.section	.text._ZN9TaskTimer5startEv,"axG",%progbits,_ZN9TaskTimer5startEv,comdat
	.hidden	_ZN9TaskTimer5startEv           @ -- Begin function _ZN9TaskTimer5startEv
	.weak	_ZN9TaskTimer5startEv
	.p2align	2
	.type	_ZN9TaskTimer5startEv,%function
	.code	16                              @ @_ZN9TaskTimer5startEv
	.thumb_func
_ZN9TaskTimer5startEv:
.Lfunc_begin88:
	.loc	2 25 0                          @ ../MotorControl\task_timer.hpp:25:0
	.fnstart
	.cfi_startproc
@ %bb.0:
	.save	{r7, lr}
	push	{r7, lr}
	.cfi_def_cfa_offset 8
	.cfi_offset lr, -4
	.cfi_offset r7, -8
	.pad	#8
	sub	sp, #8
	.cfi_def_cfa_offset 16
	str	r0, [sp, #4]
.Ltmp279:
	.loc	2 26 16 prologue_end            @ ../MotorControl\task_timer.hpp:26:16
	bl	_Z12sample_TIM13v
	.loc	2 26 9 epilogue_begin is_stmt 0 @ ../MotorControl\task_timer.hpp:26:9
	add	sp, #8
	pop	{r7, pc}
.Ltmp280:
.Lfunc_end88:
	.size	_ZN9TaskTimer5startEv, .Lfunc_end88-_ZN9TaskTimer5startEv
	.cfi_endproc
	.cantunwind
	.fnend
                                        @ -- End function
	.section	.text._Z12sample_TIM13v,"axG",%progbits,_Z12sample_TIM13v,comdat
	.hidden	_Z12sample_TIM13v               @ -- Begin function _Z12sample_TIM13v
	.weak	_Z12sample_TIM13v
	.p2align	2
	.type	_Z12sample_TIM13v,%function
	.code	16                              @ @_Z12sample_TIM13v
	.thumb_func
_Z12sample_TIM13v:
.Lfunc_begin89:
	.loc	2 12 0 is_stmt 1                @ ../MotorControl\task_timer.hpp:12:0
	.fnstart
	.cfi_startproc
@ %bb.0:
	.pad	#4
	sub	sp, #4
	.cfi_def_cfa_offset 4
	movs	r0, #2
.Ltmp281:
	.loc	2 13 24 prologue_end            @ ../MotorControl\task_timer.hpp:13:24
	strh.w	r0, [sp, #2]
	movw	r0, #7204
	movt	r0, #16384
	.loc	2 14 36                         @ ../MotorControl\task_timer.hpp:14:36
	ldr	r0, [r0]
	.loc	2 14 27 is_stmt 0               @ ../MotorControl\task_timer.hpp:14:27
	lsls	r0, r0, #1
	.loc	2 14 5                          @ ../MotorControl\task_timer.hpp:14:5
	uxth	r0, r0
	.loc	2 14 5 epilogue_begin           @ ../MotorControl\task_timer.hpp:14:5
	add	sp, #4
	bx	lr
.Ltmp282:
.Lfunc_end89:
	.size	_Z12sample_TIM13v, .Lfunc_end89-_Z12sample_TIM13v
	.cfi_endproc
	.cantunwind
	.fnend
                                        @ -- End function
	.section	.text._ZN9TaskTimer4stopEj,"axG",%progbits,_ZN9TaskTimer4stopEj,comdat
	.hidden	_ZN9TaskTimer4stopEj            @ -- Begin function _ZN9TaskTimer4stopEj
	.weak	_ZN9TaskTimer4stopEj
	.p2align	2
	.type	_ZN9TaskTimer4stopEj,%function
	.code	16                              @ @_ZN9TaskTimer4stopEj
	.thumb_func
_ZN9TaskTimer4stopEj:
.Lfunc_begin90:
	.loc	2 29 0 is_stmt 1                @ ../MotorControl\task_timer.hpp:29:0
	.fnstart
	.cfi_startproc
@ %bb.0:
	.save	{r7, lr}
	push	{r7, lr}
	.cfi_def_cfa_offset 8
	.cfi_offset lr, -4
	.cfi_offset r7, -8
	.pad	#24
	sub	sp, #24
	.cfi_def_cfa_offset 32
	str	r0, [sp, #20]
	str	r1, [sp, #16]
	ldr	r0, [sp, #20]
.Ltmp283:
	.loc	2 30 29 prologue_end            @ ../MotorControl\task_timer.hpp:30:29
	str	r0, [sp, #4]                    @ 4-byte Spill
	bl	_Z12sample_TIM13v
	.loc	2 30 18 is_stmt 0               @ ../MotorControl\task_timer.hpp:30:18
	str	r0, [sp, #12]
	.loc	2 31 27 is_stmt 1               @ ../MotorControl\task_timer.hpp:31:27
	ldr	r0, [sp, #12]
	.loc	2 31 38 is_stmt 0               @ ../MotorControl\task_timer.hpp:31:38
	ldr	r1, [sp, #16]
	.loc	2 31 36                         @ ../MotorControl\task_timer.hpp:31:36
	subs	r0, r0, r1
	.loc	2 31 18                         @ ../MotorControl\task_timer.hpp:31:18
	str	r0, [sp, #8]
.Ltmp284:
	.loc	2 33 13 is_stmt 1               @ ../MotorControl\task_timer.hpp:33:13
	movw	r0, :lower16:_ZN9TaskTimer7enabledE
	movt	r0, :upper16:_ZN9TaskTimer7enabledE
	ldrb	r0, [r0]
.Ltmp285:
	.loc	2 33 13 is_stmt 0               @ ../MotorControl\task_timer.hpp:33:13
	lsls	r0, r0, #31
	cbz	r0, .LBB90_2
	b	.LBB90_1
.LBB90_1:
.Ltmp286:
	.loc	2 35 27 is_stmt 1               @ ../MotorControl\task_timer.hpp:35:27
	ldr	r1, [sp, #4]                    @ 4-byte Reload
	ldr	r0, [sp, #16]
	.loc	2 35 25 is_stmt 0               @ ../MotorControl\task_timer.hpp:35:25
	str	r0, [r1]
	.loc	2 38 25 is_stmt 1               @ ../MotorControl\task_timer.hpp:38:25
	ldr	r0, [sp, #12]
	.loc	2 38 23 is_stmt 0               @ ../MotorControl\task_timer.hpp:38:23
	str	r0, [r1, #4]
	.loc	2 41 23 is_stmt 1               @ ../MotorControl\task_timer.hpp:41:23
	ldr	r0, [sp, #8]
	.loc	2 41 21 is_stmt 0               @ ../MotorControl\task_timer.hpp:41:21
	str	r0, [r1, #8]
	.loc	2 43 9 is_stmt 1                @ ../MotorControl\task_timer.hpp:43:9
	b	.LBB90_2
.Ltmp287:
.LBB90_2:
	.loc	2 45 32                         @ ../MotorControl\task_timer.hpp:45:32
	ldr	r0, [sp, #4]                    @ 4-byte Reload
	adds	r0, #12
	add	r1, sp, #8
	.loc	2 45 23 is_stmt 0               @ ../MotorControl\task_timer.hpp:45:23
	bl	_ZNSt3__23maxB7v180000IjEERKT_S3_S3_
	ldr	r1, [sp, #4]                    @ 4-byte Reload
	ldr	r0, [r0]
	.loc	2 45 21                         @ ../MotorControl\task_timer.hpp:45:21
	str	r0, [r1, #12]
	.loc	2 47 5 epilogue_begin is_stmt 1 @ ../MotorControl\task_timer.hpp:47:5
	add	sp, #24
	pop	{r7, pc}
.Ltmp288:
.Lfunc_end90:
	.size	_ZN9TaskTimer4stopEj, .Lfunc_end90-_ZN9TaskTimer4stopEj
	.cfi_endproc
	.cantunwind
	.fnend
                                        @ -- End function
	.section	.text._ZNSt3__23maxB7v180000IjEERKT_S3_S3_,"axG",%progbits,_ZNSt3__23maxB7v180000IjEERKT_S3_S3_,comdat
	.hidden	_ZNSt3__23maxB7v180000IjEERKT_S3_S3_ @ -- Begin function _ZNSt3__23maxB7v180000IjEERKT_S3_S3_
	.weak	_ZNSt3__23maxB7v180000IjEERKT_S3_S3_
	.p2align	2
	.type	_ZNSt3__23maxB7v180000IjEERKT_S3_S3_,%function
	.code	16                              @ @_ZNSt3__23maxB7v180000IjEERKT_S3_S3_
	.thumb_func
_ZNSt3__23maxB7v180000IjEERKT_S3_S3_:
.Lfunc_begin91:
	.file	43 "D:\\Embed\\MDK\\MDK\\ARM\\ARMCompilerV621\\Bin\\..\\include\\libcxx\\__algorithm" "max.h"
	.loc	43 41 0                         @ D:\Embed\MDK\MDK\ARM\ARMCompilerV621\Bin\..\include\libcxx\__algorithm/max.h:41:0
	.fnstart
	.cfi_startproc
@ %bb.0:
	.save	{r7, lr}
	push	{r7, lr}
	.cfi_def_cfa_offset 8
	.cfi_offset lr, -4
	.cfi_offset r7, -8
	.pad	#16
	sub	sp, #16
	.cfi_def_cfa_offset 24
	str	r0, [sp, #12]
	str	r1, [sp, #8]
.Ltmp289:
	.loc	43 42 23 prologue_end           @ D:\Embed\MDK\MDK\ARM\ARMCompilerV621\Bin\..\include\libcxx\__algorithm/max.h:42:23
	ldr	r0, [sp, #12]
	.loc	43 42 28 is_stmt 0              @ D:\Embed\MDK\MDK\ARM\ARMCompilerV621\Bin\..\include\libcxx\__algorithm/max.h:42:28
	ldr	r1, [sp, #8]
	.loc	43 42 12                        @ D:\Embed\MDK\MDK\ARM\ARMCompilerV621\Bin\..\include\libcxx\__algorithm/max.h:42:12
	bl	_ZNSt3__23maxB7v180000IjNS_6__lessIvvEEEERKT_S5_S5_T0_
	.loc	43 42 5 epilogue_begin          @ D:\Embed\MDK\MDK\ARM\ARMCompilerV621\Bin\..\include\libcxx\__algorithm/max.h:42:5
	add	sp, #16
	pop	{r7, pc}
.Ltmp290:
.Lfunc_end91:
	.size	_ZNSt3__23maxB7v180000IjEERKT_S3_S3_, .Lfunc_end91-_ZNSt3__23maxB7v180000IjEERKT_S3_S3_
	.cfi_endproc
	.cantunwind
	.fnend
                                        @ -- End function
	.section	.text._ZNSt3__23maxB7v180000IjNS_6__lessIvvEEEERKT_S5_S5_T0_,"axG",%progbits,_ZNSt3__23maxB7v180000IjNS_6__lessIvvEEEERKT_S5_S5_T0_,comdat
	.hidden	_ZNSt3__23maxB7v180000IjNS_6__lessIvvEEEERKT_S5_S5_T0_ @ -- Begin function _ZNSt3__23maxB7v180000IjNS_6__lessIvvEEEERKT_S5_S5_T0_
	.weak	_ZNSt3__23maxB7v180000IjNS_6__lessIvvEEEERKT_S5_S5_T0_
	.p2align	2
	.type	_ZNSt3__23maxB7v180000IjNS_6__lessIvvEEEERKT_S5_S5_T0_,%function
	.code	16                              @ @_ZNSt3__23maxB7v180000IjNS_6__lessIvvEEEERKT_S5_S5_T0_
	.thumb_func
_ZNSt3__23maxB7v180000IjNS_6__lessIvvEEEERKT_S5_S5_T0_:
.Lfunc_begin92:
	.loc	43 32 0 is_stmt 1               @ D:\Embed\MDK\MDK\ARM\ARMCompilerV621\Bin\..\include\libcxx\__algorithm/max.h:32:0
	.fnstart
	.cfi_startproc
@ %bb.0:
	.save	{r7, lr}
	push	{r7, lr}
	.cfi_def_cfa_offset 8
	.cfi_offset lr, -4
	.cfi_offset r7, -8
	.pad	#16
	sub	sp, #16
	.cfi_def_cfa_offset 24
	str	r0, [sp, #8]
	str	r1, [sp, #4]
.Ltmp291:
	.loc	43 33 19 prologue_end           @ D:\Embed\MDK\MDK\ARM\ARMCompilerV621\Bin\..\include\libcxx\__algorithm/max.h:33:19
	ldr	r1, [sp, #8]
	.loc	43 33 24 is_stmt 0              @ D:\Embed\MDK\MDK\ARM\ARMCompilerV621\Bin\..\include\libcxx\__algorithm/max.h:33:24
	ldr	r2, [sp, #4]
	add.w	r0, sp, #15
	.loc	43 33 12                        @ D:\Embed\MDK\MDK\ARM\ARMCompilerV621\Bin\..\include\libcxx\__algorithm/max.h:33:12
	bl	_ZNKSt3__26__lessIvvEclB7v180000IjjEEbRKT_RKT0_
	cbz	r0, .LBB92_2
	b	.LBB92_1
.LBB92_1:
	.loc	43 33 31                        @ D:\Embed\MDK\MDK\ARM\ARMCompilerV621\Bin\..\include\libcxx\__algorithm/max.h:33:31
	ldr	r0, [sp, #4]
	.loc	43 33 12                        @ D:\Embed\MDK\MDK\ARM\ARMCompilerV621\Bin\..\include\libcxx\__algorithm/max.h:33:12
	str	r0, [sp]                        @ 4-byte Spill
	b	.LBB92_3
.LBB92_2:
	.loc	43 33 37                        @ D:\Embed\MDK\MDK\ARM\ARMCompilerV621\Bin\..\include\libcxx\__algorithm/max.h:33:37
	ldr	r0, [sp, #8]
	.loc	43 33 12                        @ D:\Embed\MDK\MDK\ARM\ARMCompilerV621\Bin\..\include\libcxx\__algorithm/max.h:33:12
	str	r0, [sp]                        @ 4-byte Spill
	b	.LBB92_3
.LBB92_3:
	ldr	r0, [sp]                        @ 4-byte Reload
	.loc	43 33 5 epilogue_begin          @ D:\Embed\MDK\MDK\ARM\ARMCompilerV621\Bin\..\include\libcxx\__algorithm/max.h:33:5
	add	sp, #16
	pop	{r7, pc}
.Ltmp292:
.Lfunc_end92:
	.size	_ZNSt3__23maxB7v180000IjNS_6__lessIvvEEEERKT_S5_S5_T0_, .Lfunc_end92-_ZNSt3__23maxB7v180000IjNS_6__lessIvvEEEERKT_S5_S5_T0_
	.cfi_endproc
	.cantunwind
	.fnend
                                        @ -- End function
	.section	.text._ZNKSt3__26__lessIvvEclB7v180000IjjEEbRKT_RKT0_,"axG",%progbits,_ZNKSt3__26__lessIvvEclB7v180000IjjEEbRKT_RKT0_,comdat
	.hidden	_ZNKSt3__26__lessIvvEclB7v180000IjjEEbRKT_RKT0_ @ -- Begin function _ZNKSt3__26__lessIvvEclB7v180000IjjEEbRKT_RKT0_
	.weak	_ZNKSt3__26__lessIvvEclB7v180000IjjEEbRKT_RKT0_
	.p2align	2
	.type	_ZNKSt3__26__lessIvvEclB7v180000IjjEEbRKT_RKT0_,%function
	.code	16                              @ @_ZNKSt3__26__lessIvvEclB7v180000IjjEEbRKT_RKT0_
	.thumb_func
_ZNKSt3__26__lessIvvEclB7v180000IjjEEbRKT_RKT0_:
.Lfunc_begin93:
	.file	44 "D:\\Embed\\MDK\\MDK\\ARM\\ARMCompilerV621\\Bin\\..\\include\\libcxx\\__algorithm" "comp.h"
	.loc	44 40 0 is_stmt 1               @ D:\Embed\MDK\MDK\ARM\ARMCompilerV621\Bin\..\include\libcxx\__algorithm/comp.h:40:0
	.fnstart
	.cfi_startproc
@ %bb.0:
	.pad	#12
	sub	sp, #12
	.cfi_def_cfa_offset 12
	str	r0, [sp, #8]
	str	r1, [sp, #4]
	str	r2, [sp]
.Ltmp293:
	.loc	44 41 12 prologue_end           @ D:\Embed\MDK\MDK\ARM\ARMCompilerV621\Bin\..\include\libcxx\__algorithm/comp.h:41:12
	ldr	r0, [sp, #4]
	ldr	r1, [r0]
	.loc	44 41 20 is_stmt 0              @ D:\Embed\MDK\MDK\ARM\ARMCompilerV621\Bin\..\include\libcxx\__algorithm/comp.h:41:20
	ldr	r0, [sp]
	ldr	r2, [r0]
	movs	r0, #0
	.loc	44 41 18                        @ D:\Embed\MDK\MDK\ARM\ARMCompilerV621\Bin\..\include\libcxx\__algorithm/comp.h:41:18
	cmp	r1, r2
	it	lo
	movlo	r0, #1
	.loc	44 41 5 epilogue_begin          @ D:\Embed\MDK\MDK\ARM\ARMCompilerV621\Bin\..\include\libcxx\__algorithm/comp.h:41:5
	add	sp, #12
	bx	lr
.Ltmp294:
.Lfunc_end93:
	.size	_ZNKSt3__26__lessIvvEclB7v180000IjjEEbRKT_RKT0_, .Lfunc_end93-_ZNKSt3__26__lessIvvEclB7v180000IjjEEbRKT_RKT0_
	.cfi_endproc
	.cantunwind
	.fnend
                                        @ -- End function
	.section	.text._ZN10Stm32Timer24start_synchronously_implILj3EJLj0ELj1ELj2EEEEvNSt3__25arrayIP17TIM_HandleTypeDefXT_EEENS2_IjXT_EEENS1_16integer_sequenceIjJXspT0_EEEE,"axG",%progbits,_ZN10Stm32Timer24start_synchronously_implILj3EJLj0ELj1ELj2EEEEvNSt3__25arrayIP17TIM_HandleTypeDefXT_EEENS2_IjXT_EEENS1_16integer_sequenceIjJXspT0_EEEE,comdat
	.hidden	_ZN10Stm32Timer24start_synchronously_implILj3EJLj0ELj1ELj2EEEEvNSt3__25arrayIP17TIM_HandleTypeDefXT_EEENS2_IjXT_EEENS1_16integer_sequenceIjJXspT0_EEEE @ -- Begin function _ZN10Stm32Timer24start_synchronously_implILj3EJLj0ELj1ELj2EEEEvNSt3__25arrayIP17TIM_HandleTypeDefXT_EEENS2_IjXT_EEENS1_16integer_sequenceIjJXspT0_EEEE
	.weak	_ZN10Stm32Timer24start_synchronously_implILj3EJLj0ELj1ELj2EEEEvNSt3__25arrayIP17TIM_HandleTypeDefXT_EEENS2_IjXT_EEENS1_16integer_sequenceIjJXspT0_EEEE
	.p2align	2
	.type	_ZN10Stm32Timer24start_synchronously_implILj3EJLj0ELj1ELj2EEEEvNSt3__25arrayIP17TIM_HandleTypeDefXT_EEENS2_IjXT_EEENS1_16integer_sequenceIjJXspT0_EEEE,%function
	.code	16                              @ @_ZN10Stm32Timer24start_synchronously_implILj3EJLj0ELj1ELj2EEEEvNSt3__25arrayIP17TIM_HandleTypeDefXT_EEENS2_IjXT_EEENS1_16integer_sequenceIjJXspT0_EEEE
	.thumb_func
_ZN10Stm32Timer24start_synchronously_implILj3EJLj0ELj1ELj2EEEEvNSt3__25arrayIP17TIM_HandleTypeDefXT_EEENS2_IjXT_EEENS1_16integer_sequenceIjJXspT0_EEEE:
.Lfunc_begin94:
	.loc	39 44 0 is_stmt 1               @ ../../Firmware\Drivers/STM32/stm32_timer.hpp:44:0
	.fnstart
	.cfi_startproc
@ %bb.0:
	.save	{r4, lr}
	push	{r4, lr}
	.cfi_def_cfa_offset 8
	.cfi_offset lr, -4
	.cfi_offset r4, -8
	.pad	#88
	sub	sp, #88
	.cfi_def_cfa_offset 96
	mov	lr, r2
	mov	r12, r1
	mov	r2, r0
	ldr	r1, [sp, #100]
	ldr	r0, [sp, #96]
                                        @ kill: def $r4 killed $r3
                                        @ kill: def $r4 killed $lr
                                        @ kill: def $r4 killed $r12
                                        @ kill: def $r4 killed $r2
	str.w	lr, [sp, #84]
	str.w	r12, [sp, #80]
	str	r2, [sp, #76]
	str	r1, [sp, #72]
	str	r0, [sp, #68]
	str	r3, [sp, #64]
	movs	r0, #0
.Ltmp295:
	.loc	39 45 21 prologue_end           @ ../../Firmware\Drivers/STM32/stm32_timer.hpp:45:21
	str	r0, [sp, #56]
	.loc	39 45 14 is_stmt 0              @ ../../Firmware\Drivers/STM32/stm32_timer.hpp:45:14
	b	.LBB94_1
.LBB94_1:                               @ =>This Inner Loop Header: Depth=1
.Ltmp296:
	.loc	39 45 28                        @ ../../Firmware\Drivers/STM32/stm32_timer.hpp:45:28
	ldr	r0, [sp, #56]
.Ltmp297:
	.loc	39 45 9                         @ ../../Firmware\Drivers/STM32/stm32_timer.hpp:45:9
	cmp	r0, #2
	bhi	.LBB94_4
	b	.LBB94_2
.LBB94_2:                               @   in Loop: Header=BB94_1 Depth=1
.Ltmp298:
	.loc	39 46 46 is_stmt 1              @ ../../Firmware\Drivers/STM32/stm32_timer.hpp:46:46
	ldr	r1, [sp, #56]
	add	r0, sp, #76
	.loc	39 46 39 is_stmt 0              @ ../../Firmware\Drivers/STM32/stm32_timer.hpp:46:39
	bl	_ZNSt3__25arrayIP17TIM_HandleTypeDefLj3EEixB7v180000Ej
	ldr	r0, [r0]
	.loc	39 46 32                        @ ../../Firmware\Drivers/STM32/stm32_timer.hpp:46:32
	str	r0, [sp, #52]
	.loc	39 49 13 is_stmt 1              @ ../../Firmware\Drivers/STM32/stm32_timer.hpp:49:13
	ldr	r0, [sp, #52]
	.loc	39 49 19 is_stmt 0              @ ../../Firmware\Drivers/STM32/stm32_timer.hpp:49:19
	ldr	r1, [r0]
	.loc	39 49 33                        @ ../../Firmware\Drivers/STM32/stm32_timer.hpp:49:33
	ldr	r0, [r1]
	bic	r0, r0, #1
	str	r0, [r1]
	.loc	39 53 13 is_stmt 1              @ ../../Firmware\Drivers/STM32/stm32_timer.hpp:53:13
	ldr	r0, [sp, #52]
	ldr	r1, [r0]
	ldr	r0, [r1, #12]
	bic	r0, r0, #1
	str	r0, [r1, #12]
	.loc	39 54 13                        @ ../../Firmware\Drivers/STM32/stm32_timer.hpp:54:13
	ldr	r0, [sp, #52]
	.loc	39 54 19 is_stmt 0              @ ../../Firmware\Drivers/STM32/stm32_timer.hpp:54:19
	ldr	r1, [r0]
	.loc	39 54 33                        @ ../../Firmware\Drivers/STM32/stm32_timer.hpp:54:33
	ldr	r0, [r1, #20]
	orr	r0, r0, #1
	str	r0, [r1, #20]
	.loc	39 55 13 is_stmt 1              @ ../../Firmware\Drivers/STM32/stm32_timer.hpp:55:13
	ldr	r0, [sp, #52]
	ldr	r1, [r0]
	mvn	r0, #1
	str	r0, [r1, #16]
	.loc	39 58 44                        @ ../../Firmware\Drivers/STM32/stm32_timer.hpp:58:44
	ldr	r1, [sp, #56]
	add	r0, sp, #64
	.loc	39 58 35 is_stmt 0              @ ../../Firmware\Drivers/STM32/stm32_timer.hpp:58:35
	bl	_ZNSt3__25arrayIjLj3EEixB7v180000Ej
	ldr	r0, [r0]
	.loc	39 58 13                        @ ../../Firmware\Drivers/STM32/stm32_timer.hpp:58:13
	ldr	r1, [sp, #52]
	.loc	39 58 19                        @ ../../Firmware\Drivers/STM32/stm32_timer.hpp:58:19
	ldr	r1, [r1]
	.loc	39 58 33                        @ ../../Firmware\Drivers/STM32/stm32_timer.hpp:58:33
	str	r0, [r1, #36]
	.loc	39 59 9 is_stmt 1               @ ../../Firmware\Drivers/STM32/stm32_timer.hpp:59:9
	b	.LBB94_3
.Ltmp299:
.LBB94_3:                               @   in Loop: Header=BB94_1 Depth=1
	.loc	39 45 35                        @ ../../Firmware\Drivers/STM32/stm32_timer.hpp:45:35
	ldr	r0, [sp, #56]
	adds	r0, #1
	str	r0, [sp, #56]
	.loc	39 45 9 is_stmt 0               @ ../../Firmware\Drivers/STM32/stm32_timer.hpp:45:9
	b	.LBB94_1
.Ltmp300:
.LBB94_4:
	.loc	39 0 9                          @ ../../Firmware\Drivers/STM32/stm32_timer.hpp:0:9
	movs	r0, #0
.Ltmp301:
	.loc	39 65 21 is_stmt 1              @ ../../Firmware\Drivers/STM32/stm32_timer.hpp:65:21
	str	r0, [sp, #24]
	.loc	39 65 14 is_stmt 0              @ ../../Firmware\Drivers/STM32/stm32_timer.hpp:65:14
	b	.LBB94_5
.LBB94_5:                               @ =>This Inner Loop Header: Depth=1
.Ltmp302:
	.loc	39 65 28                        @ ../../Firmware\Drivers/STM32/stm32_timer.hpp:65:28
	ldr	r0, [sp, #24]
.Ltmp303:
	.loc	39 65 9                         @ ../../Firmware\Drivers/STM32/stm32_timer.hpp:65:9
	cmp	r0, #2
	bhi	.LBB94_8
	b	.LBB94_6
.LBB94_6:                               @   in Loop: Header=BB94_5 Depth=1
.Ltmp304:
	.loc	39 66 34 is_stmt 1              @ ../../Firmware\Drivers/STM32/stm32_timer.hpp:66:34
	ldr	r1, [sp, #24]
	add	r0, sp, #76
	.loc	39 66 27 is_stmt 0              @ ../../Firmware\Drivers/STM32/stm32_timer.hpp:66:27
	str	r0, [sp, #4]                    @ 4-byte Spill
	bl	_ZNSt3__25arrayIP17TIM_HandleTypeDefLj3EEixB7v180000Ej
	mov	r1, r0
	ldr	r0, [sp, #4]                    @ 4-byte Reload
	ldr	r1, [r1]
	.loc	39 66 38                        @ ../../Firmware\Drivers/STM32/stm32_timer.hpp:66:38
	ldr	r1, [r1]
	.loc	39 66 21                        @ ../../Firmware\Drivers/STM32/stm32_timer.hpp:66:21
	ldr	r3, [sp, #24]
	add	r2, sp, #40
	.loc	39 66 24                        @ ../../Firmware\Drivers/STM32/stm32_timer.hpp:66:24
	str.w	r1, [r2, r3, lsl #2]
	.loc	39 67 32 is_stmt 1              @ ../../Firmware\Drivers/STM32/stm32_timer.hpp:67:32
	ldr	r1, [sp, #24]
	.loc	39 67 25 is_stmt 0              @ ../../Firmware\Drivers/STM32/stm32_timer.hpp:67:25
	bl	_ZNSt3__25arrayIP17TIM_HandleTypeDefLj3EEixB7v180000Ej
	ldr	r0, [r0]
	.loc	39 67 36                        @ ../../Firmware\Drivers/STM32/stm32_timer.hpp:67:36
	ldr	r0, [r0]
	.loc	39 67 46                        @ ../../Firmware\Drivers/STM32/stm32_timer.hpp:67:46
	ldr	r0, [r0]
	.loc	39 67 50                        @ ../../Firmware\Drivers/STM32/stm32_timer.hpp:67:50
	orr	r0, r0, #1
	.loc	39 67 20                        @ ../../Firmware\Drivers/STM32/stm32_timer.hpp:67:20
	ldr	r2, [sp, #24]
	add	r1, sp, #28
	.loc	39 67 23                        @ ../../Firmware\Drivers/STM32/stm32_timer.hpp:67:23
	str.w	r0, [r1, r2, lsl #2]
	.loc	39 68 9 is_stmt 1               @ ../../Firmware\Drivers/STM32/stm32_timer.hpp:68:9
	b	.LBB94_7
.Ltmp305:
.LBB94_7:                               @   in Loop: Header=BB94_5 Depth=1
	.loc	39 65 35                        @ ../../Firmware\Drivers/STM32/stm32_timer.hpp:65:35
	ldr	r0, [sp, #24]
	adds	r0, #1
	str	r0, [sp, #24]
	.loc	39 65 9 is_stmt 0               @ ../../Firmware\Drivers/STM32/stm32_timer.hpp:65:9
	b	.LBB94_5
.Ltmp306:
.LBB94_8:
	.loc	39 77 25 is_stmt 1              @ ../../Firmware\Drivers/STM32/stm32_timer.hpp:77:25
	bl	_ZL18cpu_enter_criticalv
	.loc	39 77 18 is_stmt 0              @ ../../Firmware\Drivers/STM32/stm32_timer.hpp:77:18
	str	r0, [sp, #20]
	.loc	39 78 41 is_stmt 1              @ ../../Firmware\Drivers/STM32/stm32_timer.hpp:78:41
	ldr	r0, [sp, #28]
	.loc	39 78 27 is_stmt 0              @ ../../Firmware\Drivers/STM32/stm32_timer.hpp:78:27
	ldr	r1, [sp, #40]
	.loc	39 78 39                        @ ../../Firmware\Drivers/STM32/stm32_timer.hpp:78:39
	str	r0, [r1]
	movs	r0, #0
	.loc	39 78 24                        @ ../../Firmware\Drivers/STM32/stm32_timer.hpp:78:24
	str	r0, [sp, #8]
	.loc	39 78 41                        @ ../../Firmware\Drivers/STM32/stm32_timer.hpp:78:41
	ldr	r1, [sp, #32]
	.loc	39 78 27                        @ ../../Firmware\Drivers/STM32/stm32_timer.hpp:78:27
	ldr	r2, [sp, #44]
	.loc	39 78 39                        @ ../../Firmware\Drivers/STM32/stm32_timer.hpp:78:39
	str	r1, [r2]
	.loc	39 78 24                        @ ../../Firmware\Drivers/STM32/stm32_timer.hpp:78:24
	str	r0, [sp, #12]
	.loc	39 78 41                        @ ../../Firmware\Drivers/STM32/stm32_timer.hpp:78:41
	ldr	r1, [sp, #36]
	.loc	39 78 27                        @ ../../Firmware\Drivers/STM32/stm32_timer.hpp:78:27
	ldr	r2, [sp, #48]
	.loc	39 78 39                        @ ../../Firmware\Drivers/STM32/stm32_timer.hpp:78:39
	str	r1, [r2]
	.loc	39 78 24                        @ ../../Firmware\Drivers/STM32/stm32_timer.hpp:78:24
	str	r0, [sp, #16]
	.loc	39 80 27 is_stmt 1              @ ../../Firmware\Drivers/STM32/stm32_timer.hpp:80:27
	ldr	r0, [sp, #20]
	.loc	39 80 9 is_stmt 0               @ ../../Firmware\Drivers/STM32/stm32_timer.hpp:80:9
	bl	_ZL17cpu_exit_criticalj
	.loc	39 81 5 epilogue_begin is_stmt 1 @ ../../Firmware\Drivers/STM32/stm32_timer.hpp:81:5
	add	sp, #88
	pop	{r4, pc}
.Ltmp307:
.Lfunc_end94:
	.size	_ZN10Stm32Timer24start_synchronously_implILj3EJLj0ELj1ELj2EEEEvNSt3__25arrayIP17TIM_HandleTypeDefXT_EEENS2_IjXT_EEENS1_16integer_sequenceIjJXspT0_EEEE, .Lfunc_end94-_ZN10Stm32Timer24start_synchronously_implILj3EJLj0ELj1ELj2EEEEvNSt3__25arrayIP17TIM_HandleTypeDefXT_EEENS2_IjXT_EEENS1_16integer_sequenceIjJXspT0_EEEE
	.cfi_endproc
	.file	45 "D:\\Embed\\MDK\\MDK\\ARM\\ARMCompilerV621\\Bin\\..\\include\\libcxx\\__utility" "integer_sequence.h"
	.cantunwind
	.fnend
                                        @ -- End function
	.section	.text._ZNSt3__25arrayIP17TIM_HandleTypeDefLj3EEixB7v180000Ej,"axG",%progbits,_ZNSt3__25arrayIP17TIM_HandleTypeDefLj3EEixB7v180000Ej,comdat
	.hidden	_ZNSt3__25arrayIP17TIM_HandleTypeDefLj3EEixB7v180000Ej @ -- Begin function _ZNSt3__25arrayIP17TIM_HandleTypeDefLj3EEixB7v180000Ej
	.weak	_ZNSt3__25arrayIP17TIM_HandleTypeDefLj3EEixB7v180000Ej
	.p2align	2
	.type	_ZNSt3__25arrayIP17TIM_HandleTypeDefLj3EEixB7v180000Ej,%function
	.code	16                              @ @_ZNSt3__25arrayIP17TIM_HandleTypeDefLj3EEixB7v180000Ej
	.thumb_func
_ZNSt3__25arrayIP17TIM_HandleTypeDefLj3EEixB7v180000Ej:
.Lfunc_begin95:
	.loc	22 231 0                        @ D:\Embed\MDK\MDK\ARM\ARMCompilerV621\Bin\..\include\libcxx\array:231:0
	.fnstart
	.cfi_startproc
@ %bb.0:
	.pad	#8
	sub	sp, #8
	.cfi_def_cfa_offset 8
	str	r0, [sp, #4]
	str	r1, [sp]
	ldr	r0, [sp, #4]
.Ltmp308:
	.loc	22 233 25 prologue_end          @ D:\Embed\MDK\MDK\ARM\ARMCompilerV621\Bin\..\include\libcxx\array:233:25
	ldr	r1, [sp]
	.loc	22 233 16 is_stmt 0             @ D:\Embed\MDK\MDK\ARM\ARMCompilerV621\Bin\..\include\libcxx\array:233:16
	add.w	r0, r0, r1, lsl #2
	.loc	22 233 9 epilogue_begin         @ D:\Embed\MDK\MDK\ARM\ARMCompilerV621\Bin\..\include\libcxx\array:233:9
	add	sp, #8
	bx	lr
.Ltmp309:
.Lfunc_end95:
	.size	_ZNSt3__25arrayIP17TIM_HandleTypeDefLj3EEixB7v180000Ej, .Lfunc_end95-_ZNSt3__25arrayIP17TIM_HandleTypeDefLj3EEixB7v180000Ej
	.cfi_endproc
	.cantunwind
	.fnend
                                        @ -- End function
	.section	.text._ZNSt3__25arrayIjLj3EEixB7v180000Ej,"axG",%progbits,_ZNSt3__25arrayIjLj3EEixB7v180000Ej,comdat
	.hidden	_ZNSt3__25arrayIjLj3EEixB7v180000Ej @ -- Begin function _ZNSt3__25arrayIjLj3EEixB7v180000Ej
	.weak	_ZNSt3__25arrayIjLj3EEixB7v180000Ej
	.p2align	2
	.type	_ZNSt3__25arrayIjLj3EEixB7v180000Ej,%function
	.code	16                              @ @_ZNSt3__25arrayIjLj3EEixB7v180000Ej
	.thumb_func
_ZNSt3__25arrayIjLj3EEixB7v180000Ej:
.Lfunc_begin96:
	.loc	22 231 0 is_stmt 1              @ D:\Embed\MDK\MDK\ARM\ARMCompilerV621\Bin\..\include\libcxx\array:231:0
	.fnstart
	.cfi_startproc
@ %bb.0:
	.pad	#8
	sub	sp, #8
	.cfi_def_cfa_offset 8
	str	r0, [sp, #4]
	str	r1, [sp]
	ldr	r0, [sp, #4]
.Ltmp310:
	.loc	22 233 25 prologue_end          @ D:\Embed\MDK\MDK\ARM\ARMCompilerV621\Bin\..\include\libcxx\array:233:25
	ldr	r1, [sp]
	.loc	22 233 16 is_stmt 0             @ D:\Embed\MDK\MDK\ARM\ARMCompilerV621\Bin\..\include\libcxx\array:233:16
	add.w	r0, r0, r1, lsl #2
	.loc	22 233 9 epilogue_begin         @ D:\Embed\MDK\MDK\ARM\ARMCompilerV621\Bin\..\include\libcxx\array:233:9
	add	sp, #8
	bx	lr
.Ltmp311:
.Lfunc_end96:
	.size	_ZNSt3__25arrayIjLj3EEixB7v180000Ej, .Lfunc_end96-_ZNSt3__25arrayIjLj3EEixB7v180000Ej
	.cfi_endproc
	.cantunwind
	.fnend
                                        @ -- End function
	.section	.text._ZNKSt3__223__optional_storage_baseI9Iph_ABC_tLb0EE9has_valueB7v180000Ev,"axG",%progbits,_ZNKSt3__223__optional_storage_baseI9Iph_ABC_tLb0EE9has_valueB7v180000Ev,comdat
	.hidden	_ZNKSt3__223__optional_storage_baseI9Iph_ABC_tLb0EE9has_valueB7v180000Ev @ -- Begin function _ZNKSt3__223__optional_storage_baseI9Iph_ABC_tLb0EE9has_valueB7v180000Ev
	.weak	_ZNKSt3__223__optional_storage_baseI9Iph_ABC_tLb0EE9has_valueB7v180000Ev
	.p2align	2
	.type	_ZNKSt3__223__optional_storage_baseI9Iph_ABC_tLb0EE9has_valueB7v180000Ev,%function
	.code	16                              @ @_ZNKSt3__223__optional_storage_baseI9Iph_ABC_tLb0EE9has_valueB7v180000Ev
	.thumb_func
_ZNKSt3__223__optional_storage_baseI9Iph_ABC_tLb0EE9has_valueB7v180000Ev:
.Lfunc_begin97:
	.loc	18 386 0 is_stmt 1              @ D:\Embed\MDK\MDK\ARM\ARMCompilerV621\Bin\..\include\libcxx\optional:386:0
	.fnstart
	.cfi_startproc
@ %bb.0:
	.pad	#4
	sub	sp, #4
	.cfi_def_cfa_offset 4
	str	r0, [sp]
	ldr	r0, [sp]
.Ltmp312:
	.loc	18 387 9 prologue_end           @ D:\Embed\MDK\MDK\ARM\ARMCompilerV621\Bin\..\include\libcxx\optional:387:9
	ldrb	r0, [r0, #12]
	and	r0, r0, #1
	.loc	18 387 9 epilogue_begin is_stmt 0 @ D:\Embed\MDK\MDK\ARM\ARMCompilerV621\Bin\..\include\libcxx\optional:387:9
	add	sp, #4
	bx	lr
.Ltmp313:
.Lfunc_end97:
	.size	_ZNKSt3__223__optional_storage_baseI9Iph_ABC_tLb0EE9has_valueB7v180000Ev, .Lfunc_end97-_ZNKSt3__223__optional_storage_baseI9Iph_ABC_tLb0EE9has_valueB7v180000Ev
	.cfi_endproc
	.cantunwind
	.fnend
                                        @ -- End function
	.section	.text._ZNRSt3__223__optional_storage_baseI9Iph_ABC_tLb0EE5__getB7v180000Ev,"axG",%progbits,_ZNRSt3__223__optional_storage_baseI9Iph_ABC_tLb0EE5__getB7v180000Ev,comdat
	.hidden	_ZNRSt3__223__optional_storage_baseI9Iph_ABC_tLb0EE5__getB7v180000Ev @ -- Begin function _ZNRSt3__223__optional_storage_baseI9Iph_ABC_tLb0EE5__getB7v180000Ev
	.weak	_ZNRSt3__223__optional_storage_baseI9Iph_ABC_tLb0EE5__getB7v180000Ev
	.p2align	2
	.type	_ZNRSt3__223__optional_storage_baseI9Iph_ABC_tLb0EE5__getB7v180000Ev,%function
	.code	16                              @ @_ZNRSt3__223__optional_storage_baseI9Iph_ABC_tLb0EE5__getB7v180000Ev
	.thumb_func
_ZNRSt3__223__optional_storage_baseI9Iph_ABC_tLb0EE5__getB7v180000Ev:
.Lfunc_begin98:
	.loc	18 392 0 is_stmt 1              @ D:\Embed\MDK\MDK\ARM\ARMCompilerV621\Bin\..\include\libcxx\optional:392:0
	.fnstart
	.cfi_startproc
@ %bb.0:
	.pad	#4
	sub	sp, #4
	.cfi_def_cfa_offset 4
	str	r0, [sp]
	ldr	r0, [sp]
.Ltmp314:
	.loc	18 393 9 prologue_end epilogue_begin @ D:\Embed\MDK\MDK\ARM\ARMCompilerV621\Bin\..\include\libcxx\optional:393:9
	add	sp, #4
	bx	lr
.Ltmp315:
.Lfunc_end98:
	.size	_ZNRSt3__223__optional_storage_baseI9Iph_ABC_tLb0EE5__getB7v180000Ev, .Lfunc_end98-_ZNRSt3__223__optional_storage_baseI9Iph_ABC_tLb0EE5__getB7v180000Ev
	.cfi_endproc
	.cantunwind
	.fnend
                                        @ -- End function
	.section	.text._ZNSt3__223__optional_storage_baseI9Iph_ABC_tLb0EE11__constructB7v180000IJS1_EEEvDpOT_,"axG",%progbits,_ZNSt3__223__optional_storage_baseI9Iph_ABC_tLb0EE11__constructB7v180000IJS1_EEEvDpOT_,comdat
	.hidden	_ZNSt3__223__optional_storage_baseI9Iph_ABC_tLb0EE11__constructB7v180000IJS1_EEEvDpOT_ @ -- Begin function _ZNSt3__223__optional_storage_baseI9Iph_ABC_tLb0EE11__constructB7v180000IJS1_EEEvDpOT_
	.weak	_ZNSt3__223__optional_storage_baseI9Iph_ABC_tLb0EE11__constructB7v180000IJS1_EEEvDpOT_
	.p2align	2
	.type	_ZNSt3__223__optional_storage_baseI9Iph_ABC_tLb0EE11__constructB7v180000IJS1_EEEvDpOT_,%function
	.code	16                              @ @_ZNSt3__223__optional_storage_baseI9Iph_ABC_tLb0EE11__constructB7v180000IJS1_EEEvDpOT_
	.thumb_func
_ZNSt3__223__optional_storage_baseI9Iph_ABC_tLb0EE11__constructB7v180000IJS1_EEEvDpOT_:
.Lfunc_begin99:
	.loc	18 414 0                        @ D:\Embed\MDK\MDK\ARM\ARMCompilerV621\Bin\..\include\libcxx\optional:414:0
	.fnstart
	.cfi_startproc
@ %bb.0:
	.pad	#8
	sub	sp, #8
	.cfi_def_cfa_offset 8
	str	r0, [sp, #4]
	str	r1, [sp]
	ldr	r1, [sp, #4]
.Ltmp316:
	.loc	18 419 88 prologue_end          @ D:\Embed\MDK\MDK\ARM\ARMCompilerV621\Bin\..\include\libcxx\optional:419:88
	ldr	r3, [sp]
	.loc	18 419 55 is_stmt 0             @ D:\Embed\MDK\MDK\ARM\ARMCompilerV621\Bin\..\include\libcxx\optional:419:55
	ldr	r0, [r3]
	ldr	r2, [r3, #4]
	ldr	r3, [r3, #8]
	str	r3, [r1, #8]
	str	r2, [r1, #4]
	str	r0, [r1]
	movs	r0, #1
	.loc	18 421 26 is_stmt 1             @ D:\Embed\MDK\MDK\ARM\ARMCompilerV621\Bin\..\include\libcxx\optional:421:26
	strb	r0, [r1, #12]
	.loc	18 422 5 epilogue_begin         @ D:\Embed\MDK\MDK\ARM\ARMCompilerV621\Bin\..\include\libcxx\optional:422:5
	add	sp, #8
	bx	lr
.Ltmp317:
.Lfunc_end99:
	.size	_ZNSt3__223__optional_storage_baseI9Iph_ABC_tLb0EE11__constructB7v180000IJS1_EEEvDpOT_, .Lfunc_end99-_ZNSt3__223__optional_storage_baseI9Iph_ABC_tLb0EE11__constructB7v180000IJS1_EEEvDpOT_
	.cfi_endproc
	.cantunwind
	.fnend
                                        @ -- End function
	.section	.text._GLOBAL__sub_I_board.cpp,"ax",%progbits
	.p2align	2                               @ -- Begin function _GLOBAL__sub_I_board.cpp
	.type	_GLOBAL__sub_I_board.cpp,%function
	.code	16                              @ @_GLOBAL__sub_I_board.cpp
	.thumb_func
_GLOBAL__sub_I_board.cpp:
.Lfunc_begin100:
	.loc	36 0 0                          @ ../Board/v3\board.cpp:0:0
	.fnstart
	.cfi_startproc
@ %bb.0:
	.save	{r7, lr}
	push	{r7, lr}
	.cfi_def_cfa_offset 8
	.cfi_offset lr, -4
	.cfi_offset r7, -8
.Ltmp318:
	bl	__cxx_global_var_init
	bl	__cxx_global_var_init.1
	bl	__cxx_global_var_init.2
	bl	__cxx_global_var_init.3
	bl	__cxx_global_var_init.4
	bl	__cxx_global_var_init.6
	bl	__cxx_global_var_init.7
	bl	__cxx_global_var_init.8
	bl	__cxx_global_var_init.9
	bl	__cxx_global_var_init.10
	bl	__cxx_global_var_init.11
	bl	__cxx_global_var_init.12
	bl	__cxx_global_var_init.13
	bl	__cxx_global_var_init.14
	pop	{r7, pc}
.Ltmp319:
.Lfunc_end100:
	.size	_GLOBAL__sub_I_board.cpp, .Lfunc_end100-_GLOBAL__sub_I_board.cpp
	.cfi_endproc
	.cantunwind
	.fnend
                                        @ -- End function
	.hidden	_ZN9TaskTimer7enabledE          @ @_ZN9TaskTimer7enabledE
	.type	_ZN9TaskTimer7enabledE,%object
	.section	.bss._ZN9TaskTimer7enabledE,"aw",%nobits
	.globl	_ZN9TaskTimer7enabledE
_ZN9TaskTimer7enabledE:
	.byte	0                               @ 0x0
	.size	_ZN9TaskTimer7enabledE, 1

	.hidden	fake_otp                        @ @fake_otp
	.type	fake_otp,%object
	.section	.testdata,"aw",%progbits
	.globl	fake_otp
fake_otp:
	.byte	0                               @ 0x0
	.byte	0                               @ 0x0
	.byte	0                               @ 0x0
	.byte	3                               @ 0x3
	.byte	6                               @ 0x6
	.byte	56                              @ 0x38
	.zero	522
	.size	fake_otp, 528

	.hidden	spi3_arbiter                    @ @spi3_arbiter
	.type	spi3_arbiter,%object
	.section	.bss.spi3_arbiter,"aw",%nobits
	.globl	spi3_arbiter
	.p2align	2, 0x0
spi3_arbiter:
	.zero	8
	.size	spi3_arbiter, 8

	.hidden	ext_spi_arbiter                 @ @ext_spi_arbiter
	.type	ext_spi_arbiter,%object
	.section	.rodata.ext_spi_arbiter,"a",%progbits
	.globl	ext_spi_arbiter
	.p2align	2, 0x0
ext_spi_arbiter:
	.long	spi3_arbiter
	.size	ext_spi_arbiter, 4

	.hidden	uart_a                          @ @uart_a
	.type	uart_a,%object
	.section	.data.uart_a,"aw",%progbits
	.globl	uart_a
	.p2align	2, 0x0
uart_a:
	.long	huart4
	.size	uart_a, 4

	.hidden	uart_b                          @ @uart_b
	.type	uart_b,%object
	.section	.data.uart_b,"aw",%progbits
	.globl	uart_b
	.p2align	2, 0x0
uart_b:
	.long	huart2
	.size	uart_b, 4

	.hidden	uart_c                          @ @uart_c
	.type	uart_c,%object
	.section	.bss.uart_c,"aw",%nobits
	.globl	uart_c
	.p2align	2, 0x0
uart_c:
	.long	0
	.size	uart_c, 4

	.hidden	m0_gate_driver                  @ @m0_gate_driver
	.type	m0_gate_driver,%object
	.section	.bss.m0_gate_driver,"aw",%nobits
	.globl	m0_gate_driver
	.p2align	2, 0x0
m0_gate_driver:
	.zero	48
	.size	m0_gate_driver, 48

	.hidden	m1_gate_driver                  @ @m1_gate_driver
	.type	m1_gate_driver,%object
	.section	.bss.m1_gate_driver,"aw",%nobits
	.globl	m1_gate_driver
	.p2align	2, 0x0
m1_gate_driver:
	.zero	48
	.size	m1_gate_driver, 48

	.hidden	fet_thermistors                 @ @fet_thermistors
	.type	fet_thermistors,%object
	.section	.bss.fet_thermistors,"aw",%nobits
	.globl	fet_thermistors
	.p2align	2, 0x0
fet_thermistors:
	.zero	112
	.size	fet_thermistors, 112

	.type	_ZL26fet_thermistor_poly_coeffs,%object @ @_ZL26fet_thermistor_poly_coeffs
	.section	.rodata._ZL26fet_thermistor_poly_coeffs,"a",%progbits
	.p2align	2, 0x0
_ZL26fet_thermistor_poly_coeffs:
	.long	0x43b5f834                      @ float 363.939087
	.long	0xc3e713ac                      @ float -462.153687
	.long	0x4399c691                      @ float 307.5513
	.long	0xc1ddce39                      @ float -27.7256947
	.size	_ZL26fet_thermistor_poly_coeffs, 16

	.hidden	__dso_handle
	.hidden	motor_thermistors               @ @motor_thermistors
	.type	motor_thermistors,%object
	.section	.bss.motor_thermistors,"aw",%nobits
	.globl	motor_thermistors
	.p2align	2, 0x0
motor_thermistors:
	.zero	160
	.size	motor_thermistors, 160

	.hidden	motors                          @ @motors
	.type	motors,%object
	.section	.bss.motors,"aw",%nobits
	.globl	motors
	.p2align	3, 0x0
motors:
	.zero	880
	.size	motors, 880

	.hidden	encoders                        @ @encoders
	.type	encoders,%object
	.section	.bss.encoders,"aw",%nobits
	.globl	encoders
	.p2align	2, 0x0
encoders:
	.zero	832
	.size	encoders, 832

	.hidden	endstops                        @ @endstops
	.type	endstops,%object
	.section	.data.endstops,"aw",%progbits
	.globl	endstops
	.p2align	2, 0x0
endstops:
	.long	0x00000000                      @ float 0
	.long	50                              @ 0x32
	.short	0                               @ 0x0
	.byte	0                               @ 0x0
	.byte	0                               @ 0x0
	.long	0
	.long	0
	.byte	0                               @ 0x0
	.byte	0                               @ 0x0
	.byte	0                               @ 0x0
	.zero	1
	.long	0x00000000                      @ float 0
	.zero	16
	.long	0x00000000                      @ float 0
	.long	50                              @ 0x32
	.short	0                               @ 0x0
	.byte	0                               @ 0x0
	.byte	0                               @ 0x0
	.long	0
	.long	0
	.byte	0                               @ 0x0
	.byte	0                               @ 0x0
	.byte	0                               @ 0x0
	.zero	1
	.long	0x00000000                      @ float 0
	.zero	16
	.long	0x00000000                      @ float 0
	.long	50                              @ 0x32
	.short	0                               @ 0x0
	.byte	0                               @ 0x0
	.byte	0                               @ 0x0
	.long	0
	.long	0
	.byte	0                               @ 0x0
	.byte	0                               @ 0x0
	.byte	0                               @ 0x0
	.zero	1
	.long	0x00000000                      @ float 0
	.zero	16
	.long	0x00000000                      @ float 0
	.long	50                              @ 0x32
	.short	0                               @ 0x0
	.byte	0                               @ 0x0
	.byte	0                               @ 0x0
	.long	0
	.long	0
	.byte	0                               @ 0x0
	.byte	0                               @ 0x0
	.byte	0                               @ 0x0
	.zero	1
	.long	0x00000000                      @ float 0
	.zero	16
	.size	endstops, 176

	.hidden	mechanical_brakes               @ @mechanical_brakes
	.type	mechanical_brakes,%object
	.section	.bss.mechanical_brakes,"aw",%nobits
	.globl	mechanical_brakes
	.p2align	2, 0x0
mechanical_brakes:
	.zero	32
	.size	mechanical_brakes, 32

	.hidden	sensorless_estimators           @ @sensorless_estimators
	.type	sensorless_estimators,%object
	.section	.bss.sensorless_estimators,"aw",%nobits
	.globl	sensorless_estimators
	.p2align	2, 0x0
sensorless_estimators:
	.zero	128
	.size	sensorless_estimators, 128

	.hidden	controllers                     @ @controllers
	.type	controllers,%object
	.section	.bss.controllers,"aw",%nobits
	.globl	controllers
	.p2align	2, 0x0
controllers:
	.zero	29384
	.size	controllers, 29384

	.hidden	trap                            @ @trap
	.type	trap,%object
	.section	.bss.trap,"aw",%nobits
	.globl	trap
	.p2align	2, 0x0
trap:
	.zero	128
	.size	trap, 128

	.hidden	axes                            @ @axes
	.type	axes,%object
	.section	.bss.axes,"aw",%nobits
	.globl	axes
	.p2align	3, 0x0
axes:
	.zero	1392
	.size	axes, 1392

	.hidden	gpios                           @ @gpios
	.type	gpios,%object
	.section	.bss.gpios,"aw",%nobits
	.globl	gpios
	.p2align	2, 0x0
gpios:
	.zero	136
	.size	gpios, 136

	.hidden	alternate_functions             @ @alternate_functions
	.type	alternate_functions,%object
	.section	.data.alternate_functions,"aw",%progbits
	.globl	alternate_functions
	.p2align	2, 0x0
alternate_functions:
	.long	0                               @ 0x0
	.byte	255                             @ 0xff
	.zero	3
	.long	0                               @ 0x0
	.byte	255                             @ 0xff
	.zero	3
	.long	0                               @ 0x0
	.byte	255                             @ 0xff
	.zero	3
	.long	4                               @ 0x4
	.byte	8                               @ 0x8
	.zero	3
	.long	10                              @ 0xa
	.byte	2                               @ 0x2
	.zero	3
	.long	0                               @ 0x0
	.byte	255                             @ 0xff
	.zero	3
	.long	4                               @ 0x4
	.byte	8                               @ 0x8
	.zero	3
	.long	10                              @ 0xa
	.byte	2                               @ 0x2
	.zero	3
	.long	0                               @ 0x0
	.byte	255                             @ 0xff
	.zero	3
	.long	5                               @ 0x5
	.byte	7                               @ 0x7
	.zero	3
