	.text
	.syntax unified
	.eabi_attribute	67, "2.09"	@ Tag_conformance
	.cpu	cortex-m4
	.eabi_attribute	6, 13	@ Tag_CPU_arch
	.eabi_attribute	7, 77	@ Tag_CPU_arch_profile
	.eabi_attribute	8, 0	@ Tag_ARM_ISA_use
	.eabi_attribute	9, 2	@ Tag_THUMB_ISA_use
	.fpu	fpv4-sp-d16
	.eabi_attribute	27, 1	@ Tag_ABI_HardFP_use
	.eabi_attribute	36, 1	@ Tag_FP_HP_extension
	.eabi_attribute	34, 1	@ Tag_CPU_unaligned_access
	.eabi_attribute	17, 1	@ Tag_ABI_PCS_GOT_use
	.eabi_attribute	20, 2	@ Tag_ABI_FP_denormal
	.eabi_attribute	21, 0	@ Tag_ABI_FP_exceptions
	.eabi_attribute	23, 1	@ Tag_ABI_FP_number_model
	.eabi_attribute	24, 1	@ Tag_ABI_align_needed
	.eabi_attribute	25, 1	@ Tag_ABI_align_preserved
	.eabi_attribute	28, 1	@ Tag_ABI_VFP_args
	.eabi_attribute	38, 1	@ Tag_ABI_FP_16bit_format
	.eabi_attribute	18, 2	@ Tag_ABI_PCS_wchar_t
	.eabi_attribute	26, 1	@ Tag_ABI_enum_size
	.eabi_attribute	14, 0	@ Tag_ABI_PCS_R9_use
	.file	"can_simple.cpp"
	.file	1 "D:\\Embed\\MDK\\MDK\\ARM\\ARMCompilerV621\\Bin\\..\\include\\libcxx\\__utility" "in_place.h"
	.file	2 "D:\\Embed\\MDK\\MDK\\ARM\\ARMCompilerV621\\Bin\\..\\include\\libcxx" "variant"
	.file	3 "D:\\Embed\\MDK\\MDK\\ARM\\ARMCompilerV621\\Bin\\..\\include" "time.h"
	.file	4 "D:\\Embed\\MDK\\MDK\\ARM\\ARMCompilerV621\\Bin\\..\\include\\libcxx" "optional"
	.file	5 "D:\\ikingtec\\Robot\\ODrive\\Firmware\\MDK-ARM" "../../Firmware\\autogen/interfaces.hpp"
	.file	6 "D:\\ikingtec\\Robot\\ODrive\\Firmware\\MDK-ARM" "../communication/can/can_simple.hpp"
	.file	7 "D:\\Embed\\MDK\\MDK\\ARM\\ARMCompilerV621\\Bin\\..\\include" "stdint.h"
	.file	8 "D:\\Embed\\MDK\\MDK\\ARM\\ARMCompilerV621\\Bin\\..\\include\\libcxx" "array"
	.file	9 "D:\\ikingtec\\Robot\\ODrive\\Firmware\\MDK-ARM" "../ThirdParty/CMSIS/Include\\core_cm4.h"
	.file	10 "D:\\Embed\\MDK\\MDK\\ARM\\ARMCompilerV621\\Bin\\..\\include\\libcxx\\__type_traits" "underlying_type.h"
	.file	11 "D:\\Embed\\MDK\\MDK\\ARM\\ARMCompilerV621\\Bin\\..\\include\\libcxx\\__tuple" "sfinae_helpers.h"
	.file	12 "D:\\Embed\\MDK\\MDK\\ARM\\ARMCompilerV621\\Bin\\..\\include\\libcxx\\__type_traits" "add_pointer.h"
	.file	13 "D:\\ikingtec\\Robot\\ODrive\\Firmware\\MDK-ARM" "../ThirdParty/CMSIS/Device/ST/STM32F4xx/Include/stm32f405xx.h"
	.file	14 "D:\\ikingtec\\Robot\\ODrive\\Firmware\\MDK-ARM" "../communication/can/can_simple.cpp"
	.file	15 "D:\\Embed\\MDK\\MDK\\ARM\\ARMCompilerV621\\Bin\\..\\include\\libcxx\\__type_traits" "integral_constant.h"
	.file	16 "D:\\Embed\\MDK\\MDK\\ARM\\ARMCompilerV621\\Bin\\..\\include\\libcxx\\__utility" "pair.h"
	.file	17 "D:\\ikingtec\\Robot\\ODrive\\Firmware\\MDK-ARM" "../communication/can/can_helpers.hpp"
	.file	18 "D:\\ikingtec\\Robot\\ODrive\\Firmware\\MDK-ARM" "../MotorControl/task_timer.hpp"
	.section	.text._ZN9CANSimple4initEv,"ax",%progbits
	.hidden	_ZN9CANSimple4initEv            @ -- Begin function _ZN9CANSimple4initEv
	.globl	_ZN9CANSimple4initEv
	.p2align	2
	.type	_ZN9CANSimple4initEv,%function
	.code	16                              @ @_ZN9CANSimple4initEv
	.thumb_func
_ZN9CANSimple4initEv:
.Lfunc_begin0:
	.loc	14 7 0                          @ ../communication/can/can_simple.cpp:7:0
	.fnstart
	.cfi_sections .debug_frame
	.cfi_startproc
@ %bb.0:
	.save	{r7, lr}
	push	{r7, lr}
	.cfi_def_cfa_offset 8
	.cfi_offset lr, -4
	.cfi_offset r7, -8
	.pad	#16
	sub	sp, #16
	.cfi_def_cfa_offset 24
	str	r0, [sp, #8]
	ldr	r0, [sp, #8]
	str	r0, [sp]                        @ 4-byte Spill
	movs	r0, #0
.Ltmp0:
	.loc	14 8 17 prologue_end            @ ../communication/can/can_simple.cpp:8:17
	str	r0, [sp, #4]
	.loc	14 8 10 is_stmt 0               @ ../communication/can/can_simple.cpp:8:10
	b	.LBB0_1
.LBB0_1:                                @ =>This Inner Loop Header: Depth=1
.Ltmp1:
	.loc	14 8 24                         @ ../communication/can/can_simple.cpp:8:24
	ldr	r0, [sp, #4]
.Ltmp2:
	.loc	14 8 5                          @ ../communication/can/can_simple.cpp:8:5
	cmp	r0, #1
	bhi	.LBB0_6
	b	.LBB0_2
.LBB0_2:                                @   in Loop: Header=BB0_1 Depth=1
.Ltmp3:
	.loc	14 9 33 is_stmt 1               @ ../communication/can/can_simple.cpp:9:33
	ldr	r0, [sp]                        @ 4-byte Reload
	ldr	r1, [sp, #4]
	.loc	14 9 14 is_stmt 0               @ ../communication/can/can_simple.cpp:9:14
	bl	_ZN9CANSimple18renew_subscriptionEj
.Ltmp4:
	.loc	14 9 13                         @ ../communication/can/can_simple.cpp:9:13
	cbnz	r0, .LBB0_4
	b	.LBB0_3
.LBB0_3:
	.loc	14 0 13                         @ ../communication/can/can_simple.cpp:0:13
	movs	r0, #0
.Ltmp5:
	.loc	14 10 13 is_stmt 1              @ ../communication/can/can_simple.cpp:10:13
	strb.w	r0, [sp, #15]
	b	.LBB0_7
.Ltmp6:
.LBB0_4:                                @   in Loop: Header=BB0_1 Depth=1
	.loc	14 12 5                         @ ../communication/can/can_simple.cpp:12:5
	b	.LBB0_5
.Ltmp7:
.LBB0_5:                                @   in Loop: Header=BB0_1 Depth=1
	.loc	14 8 40                         @ ../communication/can/can_simple.cpp:8:40
	ldr	r0, [sp, #4]
	adds	r0, #1
	str	r0, [sp, #4]
	.loc	14 8 5 is_stmt 0                @ ../communication/can/can_simple.cpp:8:5
	b	.LBB0_1
.Ltmp8:
.LBB0_6:
	.loc	14 0 5                          @ ../communication/can/can_simple.cpp:0:5
	movs	r0, #1
	.loc	14 14 5 is_stmt 1               @ ../communication/can/can_simple.cpp:14:5
	strb.w	r0, [sp, #15]
	b	.LBB0_7
.LBB0_7:
	.loc	14 15 1                         @ ../communication/can/can_simple.cpp:15:1
	ldrb.w	r0, [sp, #15]
	.loc	14 15 1 epilogue_begin is_stmt 0 @ ../communication/can/can_simple.cpp:15:1
	add	sp, #16
	pop	{r7, pc}
.Ltmp9:
.Lfunc_end0:
	.size	_ZN9CANSimple4initEv, .Lfunc_end0-_ZN9CANSimple4initEv
	.cfi_endproc
	.cantunwind
	.fnend
                                        @ -- End function
	.section	.text._ZN9CANSimple18renew_subscriptionEj,"ax",%progbits
	.hidden	_ZN9CANSimple18renew_subscriptionEj @ -- Begin function _ZN9CANSimple18renew_subscriptionEj
	.globl	_ZN9CANSimple18renew_subscriptionEj
	.p2align	2
	.type	_ZN9CANSimple18renew_subscriptionEj,%function
	.code	16                              @ @_ZN9CANSimple18renew_subscriptionEj
	.thumb_func
_ZN9CANSimple18renew_subscriptionEj:
.Lfunc_begin1:
	.loc	14 17 0 is_stmt 1               @ ../communication/can/can_simple.cpp:17:0
	.fnstart
	.cfi_startproc
@ %bb.0:
	.save	{r7, lr}
	push	{r7, lr}
	.cfi_def_cfa_offset 8
	.cfi_offset lr, -4
	.cfi_offset r7, -8
	.pad	#48
	sub	sp, #48
	.cfi_def_cfa_offset 56
	str	r0, [sp, #44]
	str	r1, [sp, #40]
	ldr	r0, [sp, #44]
.Ltmp10:
	.loc	14 18 23 prologue_end           @ ../communication/can/can_simple.cpp:18:23
	str	r0, [sp, #12]                   @ 4-byte Spill
	ldr	r1, [sp, #40]
	.loc	14 18 18 is_stmt 0              @ ../communication/can/can_simple.cpp:18:18
	movw	r0, :lower16:axes
	movt	r0, :upper16:axes
	bl	_ZNSt3__25arrayI4AxisLj2EEixB7v180000Ej
	ldr	r1, [sp, #12]                   @ 4-byte Reload
	.loc	14 18 11                        @ ../communication/can/can_simple.cpp:18:11
	str	r0, [sp, #36]
	.loc	14 21 20 is_stmt 1              @ ../communication/can/can_simple.cpp:21:20
	ldr	r0, [sp, #36]
	.loc	14 21 37 is_stmt 0              @ ../communication/can/can_simple.cpp:21:37
	ldr	r0, [r0, #120]
	.loc	14 21 15                        @ ../communication/can/can_simple.cpp:21:15
	ldr	r2, [sp, #40]
	.loc	14 21 5                         @ ../communication/can/can_simple.cpp:21:5
	add.w	r2, r1, r2, lsl #2
	.loc	14 21 18                        @ ../communication/can/can_simple.cpp:21:18
	str	r0, [r2, #12]
	.loc	14 22 29 is_stmt 1              @ ../communication/can/can_simple.cpp:22:29
	ldr	r0, [sp, #36]
	.loc	14 22 46 is_stmt 0              @ ../communication/can/can_simple.cpp:22:46
	ldrb.w	r0, [r0, #124]
	.loc	14 22 24                        @ ../communication/can/can_simple.cpp:22:24
	ldr	r2, [sp, #40]
	.loc	14 22 5                         @ ../communication/can/can_simple.cpp:22:5
	add	r1, r2
	.loc	14 22 27                        @ ../communication/can/can_simple.cpp:22:27
	and	r0, r0, #1
	strb	r0, [r1, #20]
	add	r0, sp, #24
	.loc	14 25 15 is_stmt 1              @ ../communication/can/can_simple.cpp:25:15
	bl	_ZNSt3__27variantIJtjEEC2B7v180000ILb1ELi0EEEv
	mvn	r0, #31
	.loc	14 24 31                        @ ../communication/can/can_simple.cpp:24:31
	str	r0, [sp, #32]
.Ltmp11:
	.loc	14 27 9                         @ ../communication/can/can_simple.cpp:27:9
	ldr	r0, [sp, #36]
	.loc	14 27 26 is_stmt 0              @ ../communication/can/can_simple.cpp:27:26
	ldrb.w	r0, [r0, #124]
.Ltmp12:
	.loc	14 27 9                         @ ../communication/can/can_simple.cpp:27:9
	lsls	r0, r0, #31
	cbz	r0, .LBB1_2
	b	.LBB1_1
.LBB1_1:
.Ltmp13:
	.loc	14 28 32 is_stmt 1              @ ../communication/can/can_simple.cpp:28:32
	ldr	r0, [sp, #36]
	.loc	14 28 49 is_stmt 0              @ ../communication/can/can_simple.cpp:28:49
	ldr	r0, [r0, #120]
	.loc	14 28 57                        @ ../communication/can/can_simple.cpp:28:57
	lsls	r0, r0, #5
	.loc	14 28 21                        @ ../communication/can/can_simple.cpp:28:21
	str	r0, [sp, #20]
	add	r0, sp, #24
	add	r1, sp, #20
	.loc	14 28 19                        @ ../communication/can/can_simple.cpp:28:19
	bl	_ZNSt3__27variantIJtjEEaSB7v180000IjLi0EjLj1ELi0EEERS1_OT_
	.loc	14 29 5 is_stmt 1               @ ../communication/can/can_simple.cpp:29:5
	b	.LBB1_3
.Ltmp14:
.LBB1_2:
	.loc	14 30 32                        @ ../communication/can/can_simple.cpp:30:32
	ldr	r0, [sp, #36]
	.loc	14 30 49 is_stmt 0              @ ../communication/can/can_simple.cpp:30:49
	ldr	r0, [r0, #120]
	.loc	14 30 57                        @ ../communication/can/can_simple.cpp:30:57
	lsls	r0, r0, #5
	.loc	14 30 21                        @ ../communication/can/can_simple.cpp:30:21
	strh.w	r0, [sp, #18]
	add	r0, sp, #24
	add.w	r1, sp, #18
	.loc	14 30 19                        @ ../communication/can/can_simple.cpp:30:19
	bl	_ZNSt3__27variantIJtjEEaSB7v180000ItLi0EtLj0ELi0EEERS1_OT_
	b	.LBB1_3
.Ltmp15:
.LBB1_3:
	.loc	14 33 31 is_stmt 1              @ ../communication/can/can_simple.cpp:33:31
	ldr	r0, [sp, #12]                   @ 4-byte Reload
	ldr	r1, [sp, #40]
	.loc	14 33 9 is_stmt 0               @ ../communication/can/can_simple.cpp:33:9
	add.w	r0, r0, r1, lsl #2
	ldr	r0, [r0, #4]
.Ltmp16:
	.loc	14 33 9                         @ ../communication/can/can_simple.cpp:33:9
	cbz	r0, .LBB1_5
	b	.LBB1_4
.LBB1_4:
.Ltmp17:
	.loc	14 34 9 is_stmt 1               @ ../communication/can/can_simple.cpp:34:9
	ldr	r1, [sp, #12]                   @ 4-byte Reload
	ldr	r0, [r1]
	.loc	14 34 52 is_stmt 0              @ ../communication/can/can_simple.cpp:34:52
	ldr	r2, [sp, #40]
	.loc	14 34 30                        @ ../communication/can/can_simple.cpp:34:30
	add.w	r1, r1, r2, lsl #2
	ldr	r1, [r1, #4]
	.loc	14 34 18                        @ ../communication/can/can_simple.cpp:34:18
	ldr	r2, [r0]
	ldr	r2, [r2, #8]
	blx	r2
	.loc	14 35 5 is_stmt 1               @ ../communication/can/can_simple.cpp:35:5
	b	.LBB1_5
.Ltmp18:
.LBB1_5:
	.loc	14 37 12                        @ ../communication/can/can_simple.cpp:37:12
	ldr	r0, [sp, #12]                   @ 4-byte Reload
	ldr	r0, [r0]
	.loc	14 38 17                        @ ../communication/can/can_simple.cpp:38:17
	str	r0, [sp, #8]                    @ 4-byte Spill
	add.w	r0, sp, #17
	bl	_ZZN9CANSimple18renew_subscriptionEjENK3$_0cvPFvPvRK13can_Message_tEEv
	ldr	r3, [sp, #12]                   @ 4-byte Reload
	mov	r2, r0
	.loc	14 41 38                        @ ../communication/can/can_simple.cpp:41:38
	ldr	r0, [sp, #8]                    @ 4-byte Reload
	ldr	r1, [sp, #40]
	.loc	14 41 16 is_stmt 0              @ ../communication/can/can_simple.cpp:41:16
	add.w	r1, r3, r1, lsl #2
	adds	r1, #4
	.loc	14 37 21 is_stmt 1              @ ../communication/can/can_simple.cpp:37:21
	ldr.w	r12, [r0]
	ldr.w	r12, [r12, #4]
	mov	lr, sp
	str.w	r1, [lr]
	add	r1, sp, #24
	blx	r12
	.loc	14 37 5 epilogue_begin is_stmt 0 @ ../communication/can/can_simple.cpp:37:5
	add	sp, #48
	pop	{r7, pc}
.Ltmp19:
.Lfunc_end1:
	.size	_ZN9CANSimple18renew_subscriptionEj, .Lfunc_end1-_ZN9CANSimple18renew_subscriptionEj
	.cfi_endproc
	.file	19 "D:\\Embed\\MDK\\MDK\\ARM\\ARMCompilerV621\\Bin\\..\\include" "stdio.h"
	.cantunwind
	.fnend
                                        @ -- End function
	.section	.text._ZNSt3__25arrayI4AxisLj2EEixB7v180000Ej,"axG",%progbits,_ZNSt3__25arrayI4AxisLj2EEixB7v180000Ej,comdat
	.hidden	_ZNSt3__25arrayI4AxisLj2EEixB7v180000Ej @ -- Begin function _ZNSt3__25arrayI4AxisLj2EEixB7v180000Ej
	.weak	_ZNSt3__25arrayI4AxisLj2EEixB7v180000Ej
	.p2align	2
	.type	_ZNSt3__25arrayI4AxisLj2EEixB7v180000Ej,%function
	.code	16                              @ @_ZNSt3__25arrayI4AxisLj2EEixB7v180000Ej
	.thumb_func
_ZNSt3__25arrayI4AxisLj2EEixB7v180000Ej:
.Lfunc_begin2:
	.loc	8 231 0 is_stmt 1               @ D:\Embed\MDK\MDK\ARM\ARMCompilerV621\Bin\..\include\libcxx\array:231:0
	.fnstart
	.cfi_startproc
@ %bb.0:
	.pad	#8
	sub	sp, #8
	.cfi_def_cfa_offset 8
	str	r0, [sp, #4]
	str	r1, [sp]
	ldr	r2, [sp, #4]
.Ltmp20:
	.loc	8 233 25 prologue_end           @ D:\Embed\MDK\MDK\ARM\ARMCompilerV621\Bin\..\include\libcxx\array:233:25
	ldr	r0, [sp]
	mov.w	r1, #696
	.loc	8 233 16 is_stmt 0              @ D:\Embed\MDK\MDK\ARM\ARMCompilerV621\Bin\..\include\libcxx\array:233:16
	mla	r0, r0, r1, r2
	.loc	8 233 9 epilogue_begin          @ D:\Embed\MDK\MDK\ARM\ARMCompilerV621\Bin\..\include\libcxx\array:233:9
	add	sp, #8
	bx	lr
.Ltmp21:
.Lfunc_end2:
	.size	_ZNSt3__25arrayI4AxisLj2EEixB7v180000Ej, .Lfunc_end2-_ZNSt3__25arrayI4AxisLj2EEixB7v180000Ej
	.cfi_endproc
	.cantunwind
	.fnend
                                        @ -- End function
	.section	.text._ZNSt3__27variantIJtjEEC2B7v180000ILb1ELi0EEEv,"axG",%progbits,_ZNSt3__27variantIJtjEEC2B7v180000ILb1ELi0EEEv,comdat
	.hidden	_ZNSt3__27variantIJtjEEC2B7v180000ILb1ELi0EEEv @ -- Begin function _ZNSt3__27variantIJtjEEC2B7v180000ILb1ELi0EEEv
	.weak	_ZNSt3__27variantIJtjEEC2B7v180000ILb1ELi0EEEv
	.p2align	2
	.type	_ZNSt3__27variantIJtjEEC2B7v180000ILb1ELi0EEEv,%function
	.code	16                              @ @_ZNSt3__27variantIJtjEEC2B7v180000ILb1ELi0EEEv
	.thumb_func
_ZNSt3__27variantIJtjEEC2B7v180000ILb1ELi0EEEv:
.Lfunc_begin3:
	.loc	2 1327 0 is_stmt 1              @ D:\Embed\MDK\MDK\ARM\ARMCompilerV621\Bin\..\include\libcxx\variant:1327:0
	.fnstart
	.cfi_startproc
@ %bb.0:
	.save	{r7, lr}
	push	{r7, lr}
	.cfi_def_cfa_offset 8
	.cfi_offset lr, -4
	.cfi_offset r7, -8
	.pad	#16
	sub	sp, #16
	.cfi_def_cfa_offset 24
	str	r0, [sp, #12]
	ldr	r0, [sp, #12]
.Ltmp22:
	.loc	2 1327 9 prologue_end           @ D:\Embed\MDK\MDK\ARM\ARMCompilerV621\Bin\..\include\libcxx\variant:1327:9
	str	r0, [sp, #4]                    @ 4-byte Spill
	bl	_ZNSt3__216__variant_detail6__implIJtjEECI2NS0_6__baseILNS0_6_TraitE0EJtjEEEILj0EJEEENS_16in_place_index_tIXT_EEEDpOT0_
	ldr	r0, [sp, #4]                    @ 4-byte Reload
	.loc	2 1327 37 epilogue_begin is_stmt 0 @ D:\Embed\MDK\MDK\ARM\ARMCompilerV621\Bin\..\include\libcxx\variant:1327:37
	add	sp, #16
	pop	{r7, pc}
.Ltmp23:
.Lfunc_end3:
	.size	_ZNSt3__27variantIJtjEEC2B7v180000ILb1ELi0EEEv, .Lfunc_end3-_ZNSt3__27variantIJtjEEC2B7v180000ILb1ELi0EEEv
	.cfi_endproc
	.cantunwind
	.fnend
                                        @ -- End function
	.section	.text._ZNSt3__27variantIJtjEEaSB7v180000IjLi0EjLj1ELi0EEERS1_OT_,"axG",%progbits,_ZNSt3__27variantIJtjEEaSB7v180000IjLi0EjLj1ELi0EEERS1_OT_,comdat
	.hidden	_ZNSt3__27variantIJtjEEaSB7v180000IjLi0EjLj1ELi0EEERS1_OT_ @ -- Begin function _ZNSt3__27variantIJtjEEaSB7v180000IjLi0EjLj1ELi0EEERS1_OT_
	.weak	_ZNSt3__27variantIJtjEEaSB7v180000IjLi0EjLj1ELi0EEERS1_OT_
	.p2align	2
	.type	_ZNSt3__27variantIJtjEEaSB7v180000IjLi0EjLj1ELi0EEERS1_OT_,%function
	.code	16                              @ @_ZNSt3__27variantIJtjEEaSB7v180000IjLi0EjLj1ELi0EEERS1_OT_
	.thumb_func
_ZNSt3__27variantIJtjEEaSB7v180000IjLi0EjLj1ELi0EEERS1_OT_:
.Lfunc_begin4:
	.loc	2 1415 0 is_stmt 1              @ D:\Embed\MDK\MDK\ARM\ARMCompilerV621\Bin\..\include\libcxx\variant:1415:0
	.fnstart
	.cfi_startproc
@ %bb.0:
	.save	{r7, lr}
	push	{r7, lr}
	.cfi_def_cfa_offset 8
	.cfi_offset lr, -4
	.cfi_offset r7, -8
	.pad	#16
	sub	sp, #16
	.cfi_def_cfa_offset 24
	str	r0, [sp, #12]
	str	r1, [sp, #8]
	ldr	r0, [sp, #12]
.Ltmp24:
	.loc	2 1416 57 prologue_end          @ D:\Embed\MDK\MDK\ARM\ARMCompilerV621\Bin\..\include\libcxx\variant:1416:57
	str	r0, [sp, #4]                    @ 4-byte Spill
	ldr	r1, [sp, #8]
	.loc	2 1416 22 is_stmt 0             @ D:\Embed\MDK\MDK\ARM\ARMCompilerV621\Bin\..\include\libcxx\variant:1416:22
	bl	_ZNSt3__216__variant_detail6__implIJtjEE8__assignB7v180000ILj1EjEEvOT0_
	ldr	r0, [sp, #4]                    @ 4-byte Reload
	.loc	2 1417 5 epilogue_begin is_stmt 1 @ D:\Embed\MDK\MDK\ARM\ARMCompilerV621\Bin\..\include\libcxx\variant:1417:5
	add	sp, #16
	pop	{r7, pc}
.Ltmp25:
.Lfunc_end4:
	.size	_ZNSt3__27variantIJtjEEaSB7v180000IjLi0EjLj1ELi0EEERS1_OT_, .Lfunc_end4-_ZNSt3__27variantIJtjEEaSB7v180000IjLi0EjLj1ELi0EEERS1_OT_
	.cfi_endproc
	.cantunwind
	.fnend
                                        @ -- End function
	.section	.text._ZNSt3__27variantIJtjEEaSB7v180000ItLi0EtLj0ELi0EEERS1_OT_,"axG",%progbits,_ZNSt3__27variantIJtjEEaSB7v180000ItLi0EtLj0ELi0EEERS1_OT_,comdat
	.hidden	_ZNSt3__27variantIJtjEEaSB7v180000ItLi0EtLj0ELi0EEERS1_OT_ @ -- Begin function _ZNSt3__27variantIJtjEEaSB7v180000ItLi0EtLj0ELi0EEERS1_OT_
	.weak	_ZNSt3__27variantIJtjEEaSB7v180000ItLi0EtLj0ELi0EEERS1_OT_
	.p2align	2
	.type	_ZNSt3__27variantIJtjEEaSB7v180000ItLi0EtLj0ELi0EEERS1_OT_,%function
	.code	16                              @ @_ZNSt3__27variantIJtjEEaSB7v180000ItLi0EtLj0ELi0EEERS1_OT_
	.thumb_func
_ZNSt3__27variantIJtjEEaSB7v180000ItLi0EtLj0ELi0EEERS1_OT_:
.Lfunc_begin5:
	.loc	2 1415 0                        @ D:\Embed\MDK\MDK\ARM\ARMCompilerV621\Bin\..\include\libcxx\variant:1415:0
	.fnstart
	.cfi_startproc
@ %bb.0:
	.save	{r7, lr}
	push	{r7, lr}
	.cfi_def_cfa_offset 8
	.cfi_offset lr, -4
	.cfi_offset r7, -8
	.pad	#16
	sub	sp, #16
	.cfi_def_cfa_offset 24
	str	r0, [sp, #12]
	str	r1, [sp, #8]
	ldr	r0, [sp, #12]
.Ltmp26:
	.loc	2 1416 57 prologue_end          @ D:\Embed\MDK\MDK\ARM\ARMCompilerV621\Bin\..\include\libcxx\variant:1416:57
	str	r0, [sp, #4]                    @ 4-byte Spill
	ldr	r1, [sp, #8]
	.loc	2 1416 22 is_stmt 0             @ D:\Embed\MDK\MDK\ARM\ARMCompilerV621\Bin\..\include\libcxx\variant:1416:22
	bl	_ZNSt3__216__variant_detail6__implIJtjEE8__assignB7v180000ILj0EtEEvOT0_
	ldr	r0, [sp, #4]                    @ 4-byte Reload
	.loc	2 1417 5 epilogue_begin is_stmt 1 @ D:\Embed\MDK\MDK\ARM\ARMCompilerV621\Bin\..\include\libcxx\variant:1417:5
	add	sp, #16
	pop	{r7, pc}
.Ltmp27:
.Lfunc_end5:
	.size	_ZNSt3__27variantIJtjEEaSB7v180000ItLi0EtLj0ELi0EEERS1_OT_, .Lfunc_end5-_ZNSt3__27variantIJtjEEaSB7v180000ItLi0EtLj0ELi0EEERS1_OT_
	.cfi_endproc
	.cantunwind
	.fnend
                                        @ -- End function
	.section	".text._ZZN9CANSimple18renew_subscriptionEjENK3$_0cvPFvPvRK13can_Message_tEEv","ax",%progbits
	.p2align	2                               @ -- Begin function _ZZN9CANSimple18renew_subscriptionEjENK3$_0cvPFvPvRK13can_Message_tEEv
	.type	_ZZN9CANSimple18renew_subscriptionEjENK3$_0cvPFvPvRK13can_Message_tEEv,%function
	.code	16                              @ @"_ZZN9CANSimple18renew_subscriptionEjENK3$_0cvPFvPvRK13can_Message_tEEv"
	.thumb_func
_ZZN9CANSimple18renew_subscriptionEjENK3$_0cvPFvPvRK13can_Message_tEEv:
.Lfunc_begin6:
	.loc	14 38 0                         @ ../communication/can/can_simple.cpp:38:0
	.fnstart
	.cfi_startproc
@ %bb.0:
	.pad	#4
	sub	sp, #4
	.cfi_def_cfa_offset 4
	str	r0, [sp]
.Ltmp28:
	.loc	14 38 17 prologue_end           @ ../communication/can/can_simple.cpp:38:17
	movw	r0, :lower16:_ZZN9CANSimple18renew_subscriptionEjEN3$_08__invokeEPvRK13can_Message_t
	movt	r0, :upper16:_ZZN9CANSimple18renew_subscriptionEjEN3$_08__invokeEPvRK13can_Message_t
	.loc	14 38 17 epilogue_begin is_stmt 0 @ ../communication/can/can_simple.cpp:38:17
	add	sp, #4
	bx	lr
.Ltmp29:
.Lfunc_end6:
	.size	_ZZN9CANSimple18renew_subscriptionEjENK3$_0cvPFvPvRK13can_Message_tEEv, .Lfunc_end6-_ZZN9CANSimple18renew_subscriptionEjENK3$_0cvPFvPvRK13can_Message_tEEv
	.cfi_endproc
	.cantunwind
	.fnend
                                        @ -- End function
	.section	.text._ZN9CANSimple18handle_can_messageERK13can_Message_t,"ax",%progbits
	.hidden	_ZN9CANSimple18handle_can_messageERK13can_Message_t @ -- Begin function _ZN9CANSimple18handle_can_messageERK13can_Message_t
	.globl	_ZN9CANSimple18handle_can_messageERK13can_Message_t
	.p2align	2
	.type	_ZN9CANSimple18handle_can_messageERK13can_Message_t,%function
	.code	16                              @ @_ZN9CANSimple18handle_can_messageERK13can_Message_t
	.thumb_func
_ZN9CANSimple18handle_can_messageERK13can_Message_t:
.Lfunc_begin7:
	.loc	14 44 0 is_stmt 1               @ ../communication/can/can_simple.cpp:44:0
	.fnstart
	.cfi_startproc
@ %bb.0:
	.save	{r7, lr}
	push	{r7, lr}
	.cfi_def_cfa_offset 8
	.cfi_offset lr, -4
	.cfi_offset r7, -8
	.pad	#40
	sub	sp, #40
	.cfi_def_cfa_offset 48
	str	r0, [sp, #36]
	str	r1, [sp, #32]
	ldr	r0, [sp, #36]
.Ltmp30:
	.loc	14 48 35 prologue_end           @ ../communication/can/can_simple.cpp:48:35
	str	r0, [sp, #4]                    @ 4-byte Spill
	ldr	r0, [sp, #32]
	.loc	14 48 39 is_stmt 0              @ ../communication/can/can_simple.cpp:48:39
	ldr	r0, [r0]
	.loc	14 48 23                        @ ../communication/can/can_simple.cpp:48:23
	bl	_ZN9CANSimple11get_node_idEj
	.loc	14 48 14                        @ ../communication/can/can_simple.cpp:48:14
	str	r0, [sp, #28]
.Ltmp31:
	.loc	14 50 23 is_stmt 1              @ ../communication/can/can_simple.cpp:50:23
	movw	r0, :lower16:axes
	movt	r0, :upper16:axes
	str	r0, [sp, #8]                    @ 4-byte Spill
	str	r0, [sp, #24]
	.loc	14 50 21 is_stmt 0              @ ../communication/can/can_simple.cpp:50:21
	bl	_ZNSt3__25arrayI4AxisLj2EE5beginB7v180000Ev
	mov	r1, r0
	ldr	r0, [sp, #8]                    @ 4-byte Reload
	str	r1, [sp, #20]
	bl	_ZNSt3__25arrayI4AxisLj2EE3endB7v180000Ev
	str	r0, [sp, #16]
	b	.LBB7_1
.LBB7_1:                                @ =>This Inner Loop Header: Depth=1
	ldr	r0, [sp, #20]
	ldr	r1, [sp, #16]
	cmp	r0, r1
	beq	.LBB7_7
	b	.LBB7_2
.LBB7_2:                                @   in Loop: Header=BB7_1 Depth=1
.Ltmp32:
	.loc	14 50 21                        @ ../communication/can/can_simple.cpp:50:21
	ldr	r0, [sp, #20]
	.loc	14 50 16                        @ ../communication/can/can_simple.cpp:50:16
	str	r0, [sp, #12]
.Ltmp33:
	.loc	14 51 14 is_stmt 1              @ ../communication/can/can_simple.cpp:51:14
	ldr	r0, [sp, #12]
	.loc	14 51 31 is_stmt 0              @ ../communication/can/can_simple.cpp:51:31
	ldr	r0, [r0, #120]
	.loc	14 51 42                        @ ../communication/can/can_simple.cpp:51:42
	ldr	r1, [sp, #28]
	.loc	14 51 50                        @ ../communication/can/can_simple.cpp:51:50
	cmp	r0, r1
	bne	.LBB7_5
	b	.LBB7_3
.LBB7_3:                                @   in Loop: Header=BB7_1 Depth=1
	.loc	14 51 54                        @ ../communication/can/can_simple.cpp:51:54
	ldr	r0, [sp, #12]
	ldrb.w	r0, [r0, #124]
	and	r0, r0, #1
	.loc	14 51 86                        @ ../communication/can/can_simple.cpp:51:86
	ldr	r1, [sp, #32]
	ldrb	r1, [r1, #4]
	and	r1, r1, #1
.Ltmp34:
	.loc	14 51 13                        @ ../communication/can/can_simple.cpp:51:13
	cmp	r0, r1
	bne	.LBB7_5
	b	.LBB7_4
.LBB7_4:
.Ltmp35:
	.loc	14 52 24 is_stmt 1              @ ../communication/can/can_simple.cpp:52:24
	ldr	r0, [sp, #4]                    @ 4-byte Reload
	ldr	r1, [sp, #12]
	.loc	14 52 30 is_stmt 0              @ ../communication/can/can_simple.cpp:52:30
	ldr	r2, [sp, #32]
	.loc	14 52 13                        @ ../communication/can/can_simple.cpp:52:13
	bl	_ZN9CANSimple10do_commandER4AxisRK13can_Message_t
	.loc	14 53 13 is_stmt 1              @ ../communication/can/can_simple.cpp:53:13
	b	.LBB7_7
.Ltmp36:
.LBB7_5:                                @   in Loop: Header=BB7_1 Depth=1
	.loc	14 50 5                         @ ../communication/can/can_simple.cpp:50:5
	b	.LBB7_6
.LBB7_6:                                @   in Loop: Header=BB7_1 Depth=1
	.loc	14 50 21 is_stmt 0              @ ../communication/can/can_simple.cpp:50:21
	ldr	r0, [sp, #20]
	add.w	r0, r0, #696
	str	r0, [sp, #20]
	b	.LBB7_1
.Ltmp37:
.LBB7_7:
	.loc	14 56 1 epilogue_begin is_stmt 1 @ ../communication/can/can_simple.cpp:56:1
	add	sp, #40
	pop	{r7, pc}
.Ltmp38:
.Lfunc_end7:
	.size	_ZN9CANSimple18handle_can_messageERK13can_Message_t, .Lfunc_end7-_ZN9CANSimple18handle_can_messageERK13can_Message_t
	.cfi_endproc
	.cantunwind
	.fnend
                                        @ -- End function
	.section	.text._ZN9CANSimple11get_node_idEj,"axG",%progbits,_ZN9CANSimple11get_node_idEj,comdat
	.hidden	_ZN9CANSimple11get_node_idEj    @ -- Begin function _ZN9CANSimple11get_node_idEj
	.weak	_ZN9CANSimple11get_node_idEj
	.p2align	2
	.type	_ZN9CANSimple11get_node_idEj,%function
	.code	16                              @ @_ZN9CANSimple11get_node_idEj
	.thumb_func
_ZN9CANSimple11get_node_idEj:
.Lfunc_begin8:
	.loc	6 96 0                          @ ../communication/can/can_simple.hpp:96:0
	.fnstart
	.cfi_startproc
@ %bb.0:
	.pad	#4
	sub	sp, #4
	.cfi_def_cfa_offset 4
	str	r0, [sp]
.Ltmp39:
	.loc	6 97 17 prologue_end            @ ../communication/can/can_simple.hpp:97:17
	ldr	r0, [sp]
	.loc	6 97 23 is_stmt 0               @ ../communication/can/can_simple.hpp:97:23
	lsrs	r0, r0, #5
	.loc	6 97 9 epilogue_begin           @ ../communication/can/can_simple.hpp:97:9
	add	sp, #4
	bx	lr
.Ltmp40:
.Lfunc_end8:
	.size	_ZN9CANSimple11get_node_idEj, .Lfunc_end8-_ZN9CANSimple11get_node_idEj
	.cfi_endproc
	.cantunwind
	.fnend
                                        @ -- End function
	.section	.text._ZNSt3__25arrayI4AxisLj2EE5beginB7v180000Ev,"axG",%progbits,_ZNSt3__25arrayI4AxisLj2EE5beginB7v180000Ev,comdat
	.hidden	_ZNSt3__25arrayI4AxisLj2EE5beginB7v180000Ev @ -- Begin function _ZNSt3__25arrayI4AxisLj2EE5beginB7v180000Ev
	.weak	_ZNSt3__25arrayI4AxisLj2EE5beginB7v180000Ev
	.p2align	2
	.type	_ZNSt3__25arrayI4AxisLj2EE5beginB7v180000Ev,%function
	.code	16                              @ @_ZNSt3__25arrayI4AxisLj2EE5beginB7v180000Ev
	.thumb_func
_ZNSt3__25arrayI4AxisLj2EE5beginB7v180000Ev:
.Lfunc_begin9:
	.loc	8 195 0 is_stmt 1               @ D:\Embed\MDK\MDK\ARM\ARMCompilerV621\Bin\..\include\libcxx\array:195:0
	.fnstart
	.cfi_startproc
@ %bb.0:
	.save	{r7, lr}
	push	{r7, lr}
	.cfi_def_cfa_offset 8
	.cfi_offset lr, -4
	.cfi_offset r7, -8
	.pad	#8
	sub	sp, #8
	.cfi_def_cfa_offset 16
	str	r0, [sp, #4]
	ldr	r0, [sp, #4]
.Ltmp41:
	.loc	8 195 49 prologue_end           @ D:\Embed\MDK\MDK\ARM\ARMCompilerV621\Bin\..\include\libcxx\array:195:49
	bl	_ZNSt3__25arrayI4AxisLj2EE4dataB7v180000Ev
	.loc	8 195 33 epilogue_begin is_stmt 0 @ D:\Embed\MDK\MDK\ARM\ARMCompilerV621\Bin\..\include\libcxx\array:195:33
	add	sp, #8
	pop	{r7, pc}
.Ltmp42:
.Lfunc_end9:
	.size	_ZNSt3__25arrayI4AxisLj2EE5beginB7v180000Ev, .Lfunc_end9-_ZNSt3__25arrayI4AxisLj2EE5beginB7v180000Ev
	.cfi_endproc
	.cantunwind
	.fnend
                                        @ -- End function
	.section	.text._ZNSt3__25arrayI4AxisLj2EE3endB7v180000Ev,"axG",%progbits,_ZNSt3__25arrayI4AxisLj2EE3endB7v180000Ev,comdat
	.hidden	_ZNSt3__25arrayI4AxisLj2EE3endB7v180000Ev @ -- Begin function _ZNSt3__25arrayI4AxisLj2EE3endB7v180000Ev
	.weak	_ZNSt3__25arrayI4AxisLj2EE3endB7v180000Ev
	.p2align	2
	.type	_ZNSt3__25arrayI4AxisLj2EE3endB7v180000Ev,%function
	.code	16                              @ @_ZNSt3__25arrayI4AxisLj2EE3endB7v180000Ev
	.thumb_func
_ZNSt3__25arrayI4AxisLj2EE3endB7v180000Ev:
.Lfunc_begin10:
	.loc	8 199 0 is_stmt 1               @ D:\Embed\MDK\MDK\ARM\ARMCompilerV621\Bin\..\include\libcxx\array:199:0
	.fnstart
	.cfi_startproc
@ %bb.0:
	.save	{r7, lr}
	push	{r7, lr}
	.cfi_def_cfa_offset 8
	.cfi_offset lr, -4
	.cfi_offset r7, -8
	.pad	#8
	sub	sp, #8
	.cfi_def_cfa_offset 16
	str	r0, [sp, #4]
	ldr	r0, [sp, #4]
.Ltmp43:
	.loc	8 199 47 prologue_end           @ D:\Embed\MDK\MDK\ARM\ARMCompilerV621\Bin\..\include\libcxx\array:199:47
	bl	_ZNSt3__25arrayI4AxisLj2EE4dataB7v180000Ev
	.loc	8 199 54 is_stmt 0              @ D:\Embed\MDK\MDK\ARM\ARMCompilerV621\Bin\..\include\libcxx\array:199:54
	add.w	r0, r0, #1392
	.loc	8 199 31 epilogue_begin         @ D:\Embed\MDK\MDK\ARM\ARMCompilerV621\Bin\..\include\libcxx\array:199:31
	add	sp, #8
	pop	{r7, pc}
.Ltmp44:
.Lfunc_end10:
	.size	_ZNSt3__25arrayI4AxisLj2EE3endB7v180000Ev, .Lfunc_end10-_ZNSt3__25arrayI4AxisLj2EE3endB7v180000Ev
	.cfi_endproc
	.cantunwind
	.fnend
                                        @ -- End function
	.section	.text._ZN9CANSimple10do_commandER4AxisRK13can_Message_t,"ax",%progbits
	.hidden	_ZN9CANSimple10do_commandER4AxisRK13can_Message_t @ -- Begin function _ZN9CANSimple10do_commandER4AxisRK13can_Message_t
	.globl	_ZN9CANSimple10do_commandER4AxisRK13can_Message_t
	.p2align	2
	.type	_ZN9CANSimple10do_commandER4AxisRK13can_Message_t,%function
	.code	16                              @ @_ZN9CANSimple10do_commandER4AxisRK13can_Message_t
	.thumb_func
_ZN9CANSimple10do_commandER4AxisRK13can_Message_t:
.Lfunc_begin11:
	.loc	14 58 0 is_stmt 1               @ ../communication/can/can_simple.cpp:58:0
	.fnstart
	.cfi_startproc
@ %bb.0:
	.save	{r7, lr}
	push	{r7, lr}
	.cfi_def_cfa_offset 8
	.cfi_offset lr, -4
	.cfi_offset r7, -8
	.pad	#24
	sub	sp, #24
	.cfi_def_cfa_offset 32
	str	r0, [sp, #20]
	str	r1, [sp, #16]
	str	r2, [sp, #12]
	ldr	r0, [sp, #20]
.Ltmp45:
	.loc	14 59 37 prologue_end           @ ../communication/can/can_simple.cpp:59:37
	str	r0, [sp]                        @ 4-byte Spill
	ldr	r0, [sp, #12]
	.loc	14 59 41 is_stmt 0              @ ../communication/can/can_simple.cpp:59:41
	ldr	r0, [r0]
	.loc	14 59 26                        @ ../communication/can/can_simple.cpp:59:26
	bl	_ZN9CANSimple10get_cmd_idEj
	.loc	14 59 20                        @ ../communication/can/can_simple.cpp:59:20
	str	r0, [sp, #8]
	.loc	14 60 5 is_stmt 1               @ ../communication/can/can_simple.cpp:60:5
	ldr	r0, [sp, #16]
	.loc	14 60 10 is_stmt 0              @ ../communication/can/can_simple.cpp:60:10
	ldr	r1, [r0]
	ldr	r1, [r1]
	blx	r1
	.loc	14 61 13 is_stmt 1              @ ../communication/can/can_simple.cpp:61:13
	ldr	r0, [sp, #8]
	.loc	14 61 5 is_stmt 0               @ ../communication/can/can_simple.cpp:61:5
	str	r0, [sp, #4]                    @ 4-byte Spill
	cmp	r0, #0
	beq.w	.LBB11_31
	b	.LBB11_1
.LBB11_1:
	ldr	r0, [sp, #4]                    @ 4-byte Reload
	cmp	r0, #1
	beq.w	.LBB11_33
	b	.LBB11_2
.LBB11_2:
	ldr	r0, [sp, #4]                    @ 4-byte Reload
	cmp	r0, #2
	beq.w	.LBB11_34
	b	.LBB11_3
.LBB11_3:
	ldr	r0, [sp, #4]                    @ 4-byte Reload
	cmp	r0, #3
	beq.w	.LBB11_35
	b	.LBB11_4
.LBB11_4:
	ldr	r0, [sp, #4]                    @ 4-byte Reload
	cmp	r0, #4
	beq.w	.LBB11_39
	b	.LBB11_5
.LBB11_5:
	ldr	r0, [sp, #4]                    @ 4-byte Reload
	cmp	r0, #5
	beq.w	.LBB11_43
	b	.LBB11_6
.LBB11_6:
	ldr	r0, [sp, #4]                    @ 4-byte Reload
	cmp	r0, #6
	beq.w	.LBB11_47
	b	.LBB11_7
.LBB11_7:
	ldr	r0, [sp, #4]                    @ 4-byte Reload
	cmp	r0, #7
	beq.w	.LBB11_48
	b	.LBB11_8
.LBB11_8:
	ldr	r0, [sp, #4]                    @ 4-byte Reload
	cmp	r0, #8
	beq.w	.LBB11_49
	b	.LBB11_9
.LBB11_9:
	ldr	r0, [sp, #4]                    @ 4-byte Reload
	cmp	r0, #9
	beq.w	.LBB11_50
	b	.LBB11_10
.LBB11_10:
	ldr	r0, [sp, #4]                    @ 4-byte Reload
	cmp	r0, #10
	beq.w	.LBB11_54
	b	.LBB11_11
.LBB11_11:
	ldr	r0, [sp, #4]                    @ 4-byte Reload
	cmp	r0, #11
	beq.w	.LBB11_61
	b	.LBB11_12
.LBB11_12:
	ldr	r0, [sp, #4]                    @ 4-byte Reload
	cmp	r0, #12
	beq.w	.LBB11_58
	b	.LBB11_13
.LBB11_13:
	ldr	r0, [sp, #4]                    @ 4-byte Reload
	cmp	r0, #13
	beq.w	.LBB11_59
	b	.LBB11_14
.LBB11_14:
	ldr	r0, [sp, #4]                    @ 4-byte Reload
	cmp	r0, #14
	beq.w	.LBB11_60
	b	.LBB11_15
.LBB11_15:
	ldr	r0, [sp, #4]                    @ 4-byte Reload
	cmp	r0, #15
	beq.w	.LBB11_62
	b	.LBB11_16
.LBB11_16:
	ldr	r0, [sp, #4]                    @ 4-byte Reload
	cmp	r0, #16
	beq.w	.LBB11_63
	b	.LBB11_17
.LBB11_17:
	ldr	r0, [sp, #4]                    @ 4-byte Reload
	cmp	r0, #17
	beq.w	.LBB11_66
	b	.LBB11_18
.LBB11_18:
	ldr	r0, [sp, #4]                    @ 4-byte Reload
	cmp	r0, #18
	beq.w	.LBB11_65
	b	.LBB11_19
.LBB11_19:
	ldr	r0, [sp, #4]                    @ 4-byte Reload
	cmp	r0, #19
	beq.w	.LBB11_64
	b	.LBB11_20
.LBB11_20:
	ldr	r0, [sp, #4]                    @ 4-byte Reload
	cmp	r0, #20
	beq.w	.LBB11_67
	b	.LBB11_21
.LBB11_21:
	ldr	r0, [sp, #4]                    @ 4-byte Reload
	cmp	r0, #21
	beq.w	.LBB11_71
	b	.LBB11_22
.LBB11_22:
	ldr	r0, [sp, #4]                    @ 4-byte Reload
	cmp	r0, #22
	beq.w	.LBB11_75
	b	.LBB11_23
.LBB11_23:
	ldr	r0, [sp, #4]                    @ 4-byte Reload
	cmp	r0, #23
	beq.w	.LBB11_76
	b	.LBB11_24
.LBB11_24:
	ldr	r0, [sp, #4]                    @ 4-byte Reload
	cmp	r0, #24
	beq.w	.LBB11_80
	b	.LBB11_25
.LBB11_25:
	ldr	r0, [sp, #4]                    @ 4-byte Reload
	cmp	r0, #25
	beq.w	.LBB11_81
	b	.LBB11_26
.LBB11_26:
	ldr	r0, [sp, #4]                    @ 4-byte Reload
	cmp	r0, #26
	beq.w	.LBB11_82
	b	.LBB11_27
.LBB11_27:
	ldr	r0, [sp, #4]                    @ 4-byte Reload
	cmp	r0, #27
	beq.w	.LBB11_83
	b	.LBB11_28
.LBB11_28:
	ldr	r0, [sp, #4]                    @ 4-byte Reload
	cmp	r0, #28
	beq.w	.LBB11_84
	b	.LBB11_29
.LBB11_29:
	ldr	r0, [sp, #4]                    @ 4-byte Reload
	cmp	r0, #29
	beq.w	.LBB11_85
	b	.LBB11_30
.LBB11_30:
	ldr	r0, [sp, #4]                    @ 4-byte Reload
	cmp.w	r0, #1792
	beq	.LBB11_32
	b	.LBB11_86
.LBB11_31:
.Ltmp46:
	.loc	14 63 13 is_stmt 1              @ ../communication/can/can_simple.cpp:63:13
	b	.LBB11_87
.LBB11_32:
	.loc	14 65 13                        @ ../communication/can/can_simple.cpp:65:13
	b	.LBB11_87
.LBB11_33:
	.loc	14 68 13                        @ ../communication/can/can_simple.cpp:68:13
	b	.LBB11_87
.LBB11_34:
	.loc	14 70 28                        @ ../communication/can/can_simple.cpp:70:28
	ldr	r0, [sp, #16]
	.loc	14 70 34 is_stmt 0              @ ../communication/can/can_simple.cpp:70:34
	ldr	r1, [sp, #12]
	.loc	14 70 13                        @ ../communication/can/can_simple.cpp:70:13
	bl	_ZN9CANSimple14estop_callbackER4AxisRK13can_Message_t
	.loc	14 71 13 is_stmt 1              @ ../communication/can/can_simple.cpp:71:13
	b	.LBB11_87
.LBB11_35:
.Ltmp47:
	.loc	14 73 17                        @ ../communication/can/can_simple.cpp:73:17
	ldr	r0, [sp, #12]
	.loc	14 73 21 is_stmt 0              @ ../communication/can/can_simple.cpp:73:21
	ldrb	r0, [r0, #5]
	.loc	14 73 25                        @ ../communication/can/can_simple.cpp:73:25
	lsls	r0, r0, #31
	cbnz	r0, .LBB11_37
	b	.LBB11_36
.LBB11_36:
	.loc	14 73 28                        @ ../communication/can/can_simple.cpp:73:28
	ldr	r0, [sp, #12]
	.loc	14 73 32                        @ ../communication/can/can_simple.cpp:73:32
	ldrb	r0, [r0, #6]
.Ltmp48:
	.loc	14 73 17                        @ ../communication/can/can_simple.cpp:73:17
	cbnz	r0, .LBB11_38
	b	.LBB11_37
.LBB11_37:
.Ltmp49:
	.loc	14 74 42 is_stmt 1              @ ../communication/can/can_simple.cpp:74:42
	ldr	r0, [sp]                        @ 4-byte Reload
	ldr	r1, [sp, #16]
	.loc	14 74 17 is_stmt 0              @ ../communication/can/can_simple.cpp:74:17
	bl	_ZN9CANSimple24get_motor_error_callbackERK4Axis
	b	.LBB11_38
.Ltmp50:
.LBB11_38:
	.loc	14 75 13 is_stmt 1              @ ../communication/can/can_simple.cpp:75:13
	b	.LBB11_87
.LBB11_39:
.Ltmp51:
	.loc	14 77 17                        @ ../communication/can/can_simple.cpp:77:17
	ldr	r0, [sp, #12]
	.loc	14 77 21 is_stmt 0              @ ../communication/can/can_simple.cpp:77:21
	ldrb	r0, [r0, #5]
	.loc	14 77 25                        @ ../communication/can/can_simple.cpp:77:25
	lsls	r0, r0, #31
	cbnz	r0, .LBB11_41
	b	.LBB11_40
.LBB11_40:
	.loc	14 77 28                        @ ../communication/can/can_simple.cpp:77:28
	ldr	r0, [sp, #12]
	.loc	14 77 32                        @ ../communication/can/can_simple.cpp:77:32
	ldrb	r0, [r0, #6]
.Ltmp52:
	.loc	14 77 17                        @ ../communication/can/can_simple.cpp:77:17
	cbnz	r0, .LBB11_42
	b	.LBB11_41
.LBB11_41:
.Ltmp53:
	.loc	14 78 44 is_stmt 1              @ ../communication/can/can_simple.cpp:78:44
	ldr	r0, [sp]                        @ 4-byte Reload
	ldr	r1, [sp, #16]
	.loc	14 78 17 is_stmt 0              @ ../communication/can/can_simple.cpp:78:17
	bl	_ZN9CANSimple26get_encoder_error_callbackERK4Axis
	b	.LBB11_42
.Ltmp54:
.LBB11_42:
	.loc	14 79 13 is_stmt 1              @ ../communication/can/can_simple.cpp:79:13
	b	.LBB11_87
.LBB11_43:
.Ltmp55:
	.loc	14 81 17                        @ ../communication/can/can_simple.cpp:81:17
	ldr	r0, [sp, #12]
	.loc	14 81 21 is_stmt 0              @ ../communication/can/can_simple.cpp:81:21
	ldrb	r0, [r0, #5]
	.loc	14 81 25                        @ ../communication/can/can_simple.cpp:81:25
	lsls	r0, r0, #31
	cbnz	r0, .LBB11_45
	b	.LBB11_44
.LBB11_44:
	.loc	14 81 28                        @ ../communication/can/can_simple.cpp:81:28
	ldr	r0, [sp, #12]
	.loc	14 81 32                        @ ../communication/can/can_simple.cpp:81:32
	ldrb	r0, [r0, #6]
.Ltmp56:
	.loc	14 81 17                        @ ../communication/can/can_simple.cpp:81:17
	cbnz	r0, .LBB11_46
	b	.LBB11_45
.LBB11_45:
.Ltmp57:
	.loc	14 82 47 is_stmt 1              @ ../communication/can/can_simple.cpp:82:47
	ldr	r0, [sp]                        @ 4-byte Reload
	ldr	r1, [sp, #16]
	.loc	14 82 17 is_stmt 0              @ ../communication/can/can_simple.cpp:82:17
	bl	_ZN9CANSimple29get_sensorless_error_callbackERK4Axis
	b	.LBB11_46
.Ltmp58:
.LBB11_46:
	.loc	14 83 13 is_stmt 1              @ ../communication/can/can_simple.cpp:83:13
	b	.LBB11_87
.LBB11_47:
	.loc	14 85 38                        @ ../communication/can/can_simple.cpp:85:38
	ldr	r0, [sp, #16]
	.loc	14 85 44 is_stmt 0              @ ../communication/can/can_simple.cpp:85:44
	ldr	r1, [sp, #12]
	.loc	14 85 13                        @ ../communication/can/can_simple.cpp:85:13
	bl	_ZN9CANSimple24set_axis_nodeid_callbackER4AxisRK13can_Message_t
	.loc	14 86 13 is_stmt 1              @ ../communication/can/can_simple.cpp:86:13
	b	.LBB11_87
.LBB11_48:
	.loc	14 88 47                        @ ../communication/can/can_simple.cpp:88:47
	ldr	r0, [sp, #16]
	.loc	14 88 53 is_stmt 0              @ ../communication/can/can_simple.cpp:88:53
	ldr	r1, [sp, #12]
	.loc	14 88 13                        @ ../communication/can/can_simple.cpp:88:13
	bl	_ZN9CANSimple33set_axis_requested_state_callbackER4AxisRK13can_Message_t
	.loc	14 89 13 is_stmt 1              @ ../communication/can/can_simple.cpp:89:13
	b	.LBB11_87
.LBB11_49:
	.loc	14 91 46                        @ ../communication/can/can_simple.cpp:91:46
	ldr	r0, [sp, #16]
	.loc	14 91 52 is_stmt 0              @ ../communication/can/can_simple.cpp:91:52
	ldr	r1, [sp, #12]
	.loc	14 91 13                        @ ../communication/can/can_simple.cpp:91:13
	bl	_ZN9CANSimple32set_axis_startup_config_callbackER4AxisRK13can_Message_t
	.loc	14 92 13 is_stmt 1              @ ../communication/can/can_simple.cpp:92:13
	b	.LBB11_87
.LBB11_50:
.Ltmp59:
	.loc	14 94 17                        @ ../communication/can/can_simple.cpp:94:17
	ldr	r0, [sp, #12]
	.loc	14 94 21 is_stmt 0              @ ../communication/can/can_simple.cpp:94:21
	ldrb	r0, [r0, #5]
	.loc	14 94 25                        @ ../communication/can/can_simple.cpp:94:25
	lsls	r0, r0, #31
	cbnz	r0, .LBB11_52
	b	.LBB11_51
.LBB11_51:
	.loc	14 94 28                        @ ../communication/can/can_simple.cpp:94:28
	ldr	r0, [sp, #12]
	.loc	14 94 32                        @ ../communication/can/can_simple.cpp:94:32
	ldrb	r0, [r0, #6]
.Ltmp60:
	.loc	14 94 17                        @ ../communication/can/can_simple.cpp:94:17
	cbnz	r0, .LBB11_53
	b	.LBB11_52
.LBB11_52:
.Ltmp61:
	.loc	14 95 48 is_stmt 1              @ ../communication/can/can_simple.cpp:95:48
	ldr	r0, [sp]                        @ 4-byte Reload
	ldr	r1, [sp, #16]
	.loc	14 95 17 is_stmt 0              @ ../communication/can/can_simple.cpp:95:17
	bl	_ZN9CANSimple30get_encoder_estimates_callbackERK4Axis
	b	.LBB11_53
.Ltmp62:
.LBB11_53:
	.loc	14 96 13 is_stmt 1              @ ../communication/can/can_simple.cpp:96:13
	b	.LBB11_87
.LBB11_54:
.Ltmp63:
	.loc	14 98 17                        @ ../communication/can/can_simple.cpp:98:17
	ldr	r0, [sp, #12]
	.loc	14 98 21 is_stmt 0              @ ../communication/can/can_simple.cpp:98:21
	ldrb	r0, [r0, #5]
	.loc	14 98 25                        @ ../communication/can/can_simple.cpp:98:25
	lsls	r0, r0, #31
	cbnz	r0, .LBB11_56
	b	.LBB11_55
.LBB11_55:
	.loc	14 98 28                        @ ../communication/can/can_simple.cpp:98:28
	ldr	r0, [sp, #12]
	.loc	14 98 32                        @ ../communication/can/can_simple.cpp:98:32
	ldrb	r0, [r0, #6]
.Ltmp64:
	.loc	14 98 17                        @ ../communication/can/can_simple.cpp:98:17
	cbnz	r0, .LBB11_57
	b	.LBB11_56
.LBB11_56:
.Ltmp65:
	.loc	14 99 44 is_stmt 1              @ ../communication/can/can_simple.cpp:99:44
	ldr	r0, [sp]                        @ 4-byte Reload
	ldr	r1, [sp, #16]
	.loc	14 99 17 is_stmt 0              @ ../communication/can/can_simple.cpp:99:17
	bl	_ZN9CANSimple26get_encoder_count_callbackERK4Axis
	b	.LBB11_57
.Ltmp66:
.LBB11_57:
	.loc	14 100 13 is_stmt 1             @ ../communication/can/can_simple.cpp:100:13
	b	.LBB11_87
.LBB11_58:
	.loc	14 102 36                       @ ../communication/can/can_simple.cpp:102:36
	ldr	r0, [sp, #16]
	.loc	14 102 42 is_stmt 0             @ ../communication/can/can_simple.cpp:102:42
	ldr	r1, [sp, #12]
	.loc	14 102 13                       @ ../communication/can/can_simple.cpp:102:13
	bl	_ZN9CANSimple22set_input_pos_callbackER4AxisRK13can_Message_t
	.loc	14 103 13 is_stmt 1             @ ../communication/can/can_simple.cpp:103:13
	b	.LBB11_87
.LBB11_59:
	.loc	14 105 36                       @ ../communication/can/can_simple.cpp:105:36
	ldr	r0, [sp, #16]
	.loc	14 105 42 is_stmt 0             @ ../communication/can/can_simple.cpp:105:42
	ldr	r1, [sp, #12]
	.loc	14 105 13                       @ ../communication/can/can_simple.cpp:105:13
	bl	_ZN9CANSimple22set_input_vel_callbackER4AxisRK13can_Message_t
	.loc	14 106 13 is_stmt 1             @ ../communication/can/can_simple.cpp:106:13
	b	.LBB11_87
.LBB11_60:
	.loc	14 108 39                       @ ../communication/can/can_simple.cpp:108:39
	ldr	r0, [sp, #16]
	.loc	14 108 45 is_stmt 0             @ ../communication/can/can_simple.cpp:108:45
	ldr	r1, [sp, #12]
	.loc	14 108 13                       @ ../communication/can/can_simple.cpp:108:13
	bl	_ZN9CANSimple25set_input_torque_callbackER4AxisRK13can_Message_t
	.loc	14 109 13 is_stmt 1             @ ../communication/can/can_simple.cpp:109:13
	b	.LBB11_87
.LBB11_61:
	.loc	14 111 43                       @ ../communication/can/can_simple.cpp:111:43
	ldr	r0, [sp, #16]
	.loc	14 111 49 is_stmt 0             @ ../communication/can/can_simple.cpp:111:49
	ldr	r1, [sp, #12]
	.loc	14 111 13                       @ ../communication/can/can_simple.cpp:111:13
	bl	_ZN9CANSimple29set_controller_modes_callbackER4AxisRK13can_Message_t
	.loc	14 112 13 is_stmt 1             @ ../communication/can/can_simple.cpp:112:13
	b	.LBB11_87
.LBB11_62:
	.loc	14 114 33                       @ ../communication/can/can_simple.cpp:114:33
	ldr	r0, [sp, #16]
	.loc	14 114 39 is_stmt 0             @ ../communication/can/can_simple.cpp:114:39
	ldr	r1, [sp, #12]
	.loc	14 114 13                       @ ../communication/can/can_simple.cpp:114:13
	bl	_ZN9CANSimple19set_limits_callbackER4AxisRK13can_Message_t
	.loc	14 115 13 is_stmt 1             @ ../communication/can/can_simple.cpp:115:13
	b	.LBB11_87
.LBB11_63:
	.loc	14 117 40                       @ ../communication/can/can_simple.cpp:117:40
	ldr	r0, [sp, #16]
	.loc	14 117 46 is_stmt 0             @ ../communication/can/can_simple.cpp:117:46
	ldr	r1, [sp, #12]
	.loc	14 117 13                       @ ../communication/can/can_simple.cpp:117:13
	bl	_ZN9CANSimple26start_anticogging_callbackERK4AxisRK13can_Message_t
	.loc	14 118 13 is_stmt 1             @ ../communication/can/can_simple.cpp:118:13
	b	.LBB11_87
.LBB11_64:
	.loc	14 120 39                       @ ../communication/can/can_simple.cpp:120:39
	ldr	r0, [sp, #16]
	.loc	14 120 45 is_stmt 0             @ ../communication/can/can_simple.cpp:120:45
	ldr	r1, [sp, #12]
	.loc	14 120 13                       @ ../communication/can/can_simple.cpp:120:13
	bl	_ZN9CANSimple25set_traj_inertia_callbackER4AxisRK13can_Message_t
	.loc	14 121 13 is_stmt 1             @ ../communication/can/can_simple.cpp:121:13
	b	.LBB11_87
.LBB11_65:
	.loc	14 123 44                       @ ../communication/can/can_simple.cpp:123:44
	ldr	r0, [sp, #16]
	.loc	14 123 50 is_stmt 0             @ ../communication/can/can_simple.cpp:123:50
	ldr	r1, [sp, #12]
	.loc	14 123 13                       @ ../communication/can/can_simple.cpp:123:13
	bl	_ZN9CANSimple30set_traj_accel_limits_callbackER4AxisRK13can_Message_t
	.loc	14 124 13 is_stmt 1             @ ../communication/can/can_simple.cpp:124:13
	b	.LBB11_87
.LBB11_66:
	.loc	14 126 41                       @ ../communication/can/can_simple.cpp:126:41
	ldr	r0, [sp, #16]
	.loc	14 126 47 is_stmt 0             @ ../communication/can/can_simple.cpp:126:47
	ldr	r1, [sp, #12]
	.loc	14 126 13                       @ ../communication/can/can_simple.cpp:126:13
	bl	_ZN9CANSimple27set_traj_vel_limit_callbackER4AxisRK13can_Message_t
	.loc	14 127 13 is_stmt 1             @ ../communication/can/can_simple.cpp:127:13
	b	.LBB11_87
.LBB11_67:
.Ltmp67:
	.loc	14 129 17                       @ ../communication/can/can_simple.cpp:129:17
	ldr	r0, [sp, #12]
	.loc	14 129 21 is_stmt 0             @ ../communication/can/can_simple.cpp:129:21
	ldrb	r0, [r0, #5]
	.loc	14 129 25                       @ ../communication/can/can_simple.cpp:129:25
	lsls	r0, r0, #31
	cbnz	r0, .LBB11_69
	b	.LBB11_68
.LBB11_68:
	.loc	14 129 28                       @ ../communication/can/can_simple.cpp:129:28
	ldr	r0, [sp, #12]
	.loc	14 129 32                       @ ../communication/can/can_simple.cpp:129:32
	ldrb	r0, [r0, #6]
.Ltmp68:
	.loc	14 129 17                       @ ../communication/can/can_simple.cpp:129:17
	cbnz	r0, .LBB11_70
	b	.LBB11_69
.LBB11_69:
.Ltmp69:
	.loc	14 130 33 is_stmt 1             @ ../communication/can/can_simple.cpp:130:33
	ldr	r0, [sp]                        @ 4-byte Reload
	ldr	r1, [sp, #16]
	.loc	14 130 17 is_stmt 0             @ ../communication/can/can_simple.cpp:130:17
	bl	_ZN9CANSimple15get_iq_callbackERK4Axis
	b	.LBB11_70
.Ltmp70:
.LBB11_70:
	.loc	14 131 13 is_stmt 1             @ ../communication/can/can_simple.cpp:131:13
	b	.LBB11_87
.LBB11_71:
.Ltmp71:
	.loc	14 133 17                       @ ../communication/can/can_simple.cpp:133:17
	ldr	r0, [sp, #12]
	.loc	14 133 21 is_stmt 0             @ ../communication/can/can_simple.cpp:133:21
	ldrb	r0, [r0, #5]
	.loc	14 133 25                       @ ../communication/can/can_simple.cpp:133:25
	lsls	r0, r0, #31
	cbnz	r0, .LBB11_73
	b	.LBB11_72
.LBB11_72:
	.loc	14 133 28                       @ ../communication/can/can_simple.cpp:133:28
	ldr	r0, [sp, #12]
	.loc	14 133 32                       @ ../communication/can/can_simple.cpp:133:32
	ldrb	r0, [r0, #6]
.Ltmp72:
	.loc	14 133 17                       @ ../communication/can/can_simple.cpp:133:17
	cbnz	r0, .LBB11_74
	b	.LBB11_73
.LBB11_73:
.Ltmp73:
	.loc	14 134 51 is_stmt 1             @ ../communication/can/can_simple.cpp:134:51
	ldr	r0, [sp]                        @ 4-byte Reload
	ldr	r1, [sp, #16]
	.loc	14 134 17 is_stmt 0             @ ../communication/can/can_simple.cpp:134:17
	bl	_ZN9CANSimple33get_sensorless_estimates_callbackERK4Axis
	b	.LBB11_74
.Ltmp74:
.LBB11_74:
	.loc	14 135 13 is_stmt 1             @ ../communication/can/can_simple.cpp:135:13
	b	.LBB11_87
.LBB11_75:
	.loc	14 137 13                       @ ../communication/can/can_simple.cpp:137:13
	bl	_ZL18__NVIC_SystemResetv
.LBB11_76:
.Ltmp75:
	.loc	14 140 17                       @ ../communication/can/can_simple.cpp:140:17
	ldr	r0, [sp, #12]
	.loc	14 140 21 is_stmt 0             @ ../communication/can/can_simple.cpp:140:21
	ldrb	r0, [r0, #5]
	.loc	14 140 25                       @ ../communication/can/can_simple.cpp:140:25
	lsls	r0, r0, #31
	cbnz	r0, .LBB11_78
	b	.LBB11_77
.LBB11_77:
	.loc	14 140 28                       @ ../communication/can/can_simple.cpp:140:28
	ldr	r0, [sp, #12]
	.loc	14 140 32                       @ ../communication/can/can_simple.cpp:140:32
	ldrb	r0, [r0, #6]
.Ltmp76:
	.loc	14 140 17                       @ ../communication/can/can_simple.cpp:140:17
	cbnz	r0, .LBB11_79
	b	.LBB11_78
.LBB11_78:
.Ltmp77:
	.loc	14 141 50 is_stmt 1             @ ../communication/can/can_simple.cpp:141:50
	ldr	r0, [sp]                        @ 4-byte Reload
	ldr	r1, [sp, #16]
	.loc	14 141 17 is_stmt 0             @ ../communication/can/can_simple.cpp:141:17
	bl	_ZN9CANSimple32get_bus_voltage_current_callbackERK4Axis
	b	.LBB11_79
.Ltmp78:
.LBB11_79:
	.loc	14 142 13 is_stmt 1             @ ../communication/can/can_simple.cpp:142:13
	b	.LBB11_87
.LBB11_80:
	.loc	14 144 35                       @ ../communication/can/can_simple.cpp:144:35
	ldr	r0, [sp, #16]
	.loc	14 144 41 is_stmt 0             @ ../communication/can/can_simple.cpp:144:41
	ldr	r1, [sp, #12]
	.loc	14 144 13                       @ ../communication/can/can_simple.cpp:144:13
	bl	_ZN9CANSimple21clear_errors_callbackER4AxisRK13can_Message_t
	.loc	14 145 13 is_stmt 1             @ ../communication/can/can_simple.cpp:145:13
	b	.LBB11_87
.LBB11_81:
	.loc	14 147 39                       @ ../communication/can/can_simple.cpp:147:39
	ldr	r0, [sp, #16]
	.loc	14 147 45 is_stmt 0             @ ../communication/can/can_simple.cpp:147:45
	ldr	r1, [sp, #12]
	.loc	14 147 13                       @ ../communication/can/can_simple.cpp:147:13
	bl	_ZN9CANSimple25set_linear_count_callbackER4AxisRK13can_Message_t
	.loc	14 148 13 is_stmt 1             @ ../communication/can/can_simple.cpp:148:13
	b	.LBB11_87
.LBB11_82:
	.loc	14 150 35                       @ ../communication/can/can_simple.cpp:150:35
	ldr	r0, [sp, #16]
	.loc	14 150 41 is_stmt 0             @ ../communication/can/can_simple.cpp:150:41
	ldr	r1, [sp, #12]
	.loc	14 150 13                       @ ../communication/can/can_simple.cpp:150:13
	bl	_ZN9CANSimple21set_pos_gain_callbackER4AxisRK13can_Message_t
	.loc	14 151 13 is_stmt 1             @ ../communication/can/can_simple.cpp:151:13
	b	.LBB11_87
.LBB11_83:
	.loc	14 153 36                       @ ../communication/can/can_simple.cpp:153:36
	ldr	r0, [sp, #16]
	.loc	14 153 42 is_stmt 0             @ ../communication/can/can_simple.cpp:153:42
	ldr	r1, [sp, #12]
	.loc	14 153 13                       @ ../communication/can/can_simple.cpp:153:13
	bl	_ZN9CANSimple22set_vel_gains_callbackER4AxisRK13can_Message_t
	.loc	14 154 13 is_stmt 1             @ ../communication/can/can_simple.cpp:154:13
	b	.LBB11_87
.LBB11_84:
	.loc	14 156 38                       @ ../communication/can/can_simple.cpp:156:38
	ldr	r0, [sp]                        @ 4-byte Reload
	ldr	r1, [sp, #16]
	.loc	14 156 44 is_stmt 0             @ ../communication/can/can_simple.cpp:156:44
	ldr	r2, [sp, #12]
	.loc	14 156 13                       @ ../communication/can/can_simple.cpp:156:13
	bl	_ZN9CANSimple24get_adc_voltage_callbackERK4AxisRK13can_Message_t
	.loc	14 157 13 is_stmt 1             @ ../communication/can/can_simple.cpp:157:13
	b	.LBB11_87
.LBB11_85:
	.loc	14 159 43                       @ ../communication/can/can_simple.cpp:159:43
	ldr	r0, [sp]                        @ 4-byte Reload
	ldr	r1, [sp, #16]
	.loc	14 159 13 is_stmt 0             @ ../communication/can/can_simple.cpp:159:13
	bl	_ZN9CANSimple29get_controller_error_callbackERK4Axis
	.loc	14 160 13 is_stmt 1             @ ../communication/can/can_simple.cpp:160:13
	b	.LBB11_87
.LBB11_86:
	.loc	14 162 13                       @ ../communication/can/can_simple.cpp:162:13
	b	.LBB11_87
.Ltmp79:
.LBB11_87:
	.loc	14 164 1 epilogue_begin         @ ../communication/can/can_simple.cpp:164:1
	add	sp, #24
	pop	{r7, pc}
.Ltmp80:
.Lfunc_end11:
	.size	_ZN9CANSimple10do_commandER4AxisRK13can_Message_t, .Lfunc_end11-_ZN9CANSimple10do_commandER4AxisRK13can_Message_t
	.cfi_endproc
	.cantunwind
	.fnend
                                        @ -- End function
	.section	.text._ZN9CANSimple10get_cmd_idEj,"axG",%progbits,_ZN9CANSimple10get_cmd_idEj,comdat
	.hidden	_ZN9CANSimple10get_cmd_idEj     @ -- Begin function _ZN9CANSimple10get_cmd_idEj
	.weak	_ZN9CANSimple10get_cmd_idEj
	.p2align	2
	.type	_ZN9CANSimple10get_cmd_idEj,%function
	.code	16                              @ @_ZN9CANSimple10get_cmd_idEj
	.thumb_func
_ZN9CANSimple10get_cmd_idEj:
.Lfunc_begin12:
	.loc	6 100 0                         @ ../communication/can/can_simple.hpp:100:0
	.fnstart
	.cfi_startproc
@ %bb.0:
	.pad	#4
	sub	sp, #4
	.cfi_def_cfa_offset 4
	str	r0, [sp]
.Ltmp81:
	.loc	6 101 17 prologue_end           @ ../communication/can/can_simple.hpp:101:17
	ldr	r0, [sp]
	.loc	6 101 23 is_stmt 0              @ ../communication/can/can_simple.hpp:101:23
	and	r0, r0, #31
	.loc	6 101 9 epilogue_begin          @ ../communication/can/can_simple.hpp:101:9
	add	sp, #4
	bx	lr
.Ltmp82:
.Lfunc_end12:
	.size	_ZN9CANSimple10get_cmd_idEj, .Lfunc_end12-_ZN9CANSimple10get_cmd_idEj
	.cfi_endproc
	.cantunwind
	.fnend
                                        @ -- End function
	.section	.text._ZN9CANSimple14estop_callbackER4AxisRK13can_Message_t,"ax",%progbits
	.hidden	_ZN9CANSimple14estop_callbackER4AxisRK13can_Message_t @ -- Begin function _ZN9CANSimple14estop_callbackER4AxisRK13can_Message_t
	.globl	_ZN9CANSimple14estop_callbackER4AxisRK13can_Message_t
	.p2align	2
	.type	_ZN9CANSimple14estop_callbackER4AxisRK13can_Message_t,%function
	.code	16                              @ @_ZN9CANSimple14estop_callbackER4AxisRK13can_Message_t
	.thumb_func
_ZN9CANSimple14estop_callbackER4AxisRK13can_Message_t:
.Lfunc_begin13:
	.loc	14 170 0 is_stmt 1              @ ../communication/can/can_simple.cpp:170:0
	.fnstart
	.cfi_startproc
@ %bb.0:
	.save	{r7, lr}
	push	{r7, lr}
	.cfi_def_cfa_offset 8
	.cfi_offset lr, -4
	.cfi_offset r7, -8
	.pad	#8
	sub	sp, #8
	.cfi_def_cfa_offset 16
	str	r0, [sp, #4]
	str	r1, [sp]
.Ltmp83:
	.loc	14 171 5 prologue_end           @ ../communication/can/can_simple.cpp:171:5
	ldr	r0, [sp, #4]
	.loc	14 171 10 is_stmt 0             @ ../communication/can/can_simple.cpp:171:10
	add.w	r0, r0, #588
	mov.w	r1, #16384
	.loc	14 171 17                       @ ../communication/can/can_simple.cpp:171:17
	bl	_ZoRRN10ODriveIntf8AxisIntf5ErrorES1_
	.loc	14 172 1 epilogue_begin is_stmt 1 @ ../communication/can/can_simple.cpp:172:1
	add	sp, #8
	pop	{r7, pc}
.Ltmp84:
.Lfunc_end13:
	.size	_ZN9CANSimple14estop_callbackER4AxisRK13can_Message_t, .Lfunc_end13-_ZN9CANSimple14estop_callbackER4AxisRK13can_Message_t
	.cfi_endproc
	.cantunwind
	.fnend
                                        @ -- End function
	.section	.text._ZN9CANSimple24get_motor_error_callbackERK4Axis,"ax",%progbits
	.hidden	_ZN9CANSimple24get_motor_error_callbackERK4Axis @ -- Begin function _ZN9CANSimple24get_motor_error_callbackERK4Axis
	.globl	_ZN9CANSimple24get_motor_error_callbackERK4Axis
	.p2align	2
	.type	_ZN9CANSimple24get_motor_error_callbackERK4Axis,%function
	.code	16                              @ @_ZN9CANSimple24get_motor_error_callbackERK4Axis
	.thumb_func
_ZN9CANSimple24get_motor_error_callbackERK4Axis:
.Lfunc_begin14:
	.loc	14 174 0                        @ ../communication/can/can_simple.cpp:174:0
	.fnstart
	.cfi_startproc
@ %bb.0:
	.save	{r7, lr}
	push	{r7, lr}
	.cfi_def_cfa_offset 8
	.cfi_offset lr, -4
	.cfi_offset r7, -8
	.pad	#40
	sub	sp, #40
	.cfi_def_cfa_offset 48
	str	r0, [sp, #36]
	str	r1, [sp, #32]
	ldr	r0, [sp, #36]
.Ltmp85:
	.loc	14 175 19 prologue_end          @ ../communication/can/can_simple.cpp:175:19
	str	r0, [sp, #8]                    @ 4-byte Spill
	add	r0, sp, #16
	str	r0, [sp, #12]                   @ 4-byte Spill
	bl	_ZN13can_Message_tC2Ev
	ldr	r0, [sp, #12]                   @ 4-byte Reload
	.loc	14 176 16                       @ ../communication/can/can_simple.cpp:176:16
	ldr	r1, [sp, #32]
	.loc	14 176 33 is_stmt 0             @ ../communication/can/can_simple.cpp:176:33
	ldr	r1, [r1, #120]
	.loc	14 176 41                       @ ../communication/can/can_simple.cpp:176:41
	lsls	r1, r1, #5
	.loc	14 176 14                       @ ../communication/can/can_simple.cpp:176:14
	str	r1, [sp, #16]
	.loc	14 177 14 is_stmt 1             @ ../communication/can/can_simple.cpp:177:14
	ldr	r1, [sp, #16]
	adds	r1, #3
	str	r1, [sp, #16]
	.loc	14 178 19                       @ ../communication/can/can_simple.cpp:178:19
	ldr	r1, [sp, #32]
	.loc	14 178 36 is_stmt 0             @ ../communication/can/can_simple.cpp:178:36
	ldrb.w	r1, [r1, #124]
	.loc	14 178 17                       @ ../communication/can/can_simple.cpp:178:17
	and	r1, r1, #1
	strb.w	r1, [sp, #20]
	movs	r1, #8
	.loc	14 179 15 is_stmt 1             @ ../communication/can/can_simple.cpp:179:15
	strb.w	r1, [sp, #22]
	.loc	14 181 26                       @ ../communication/can/can_simple.cpp:181:26
	ldr	r1, [sp, #32]
	.loc	14 181 31 is_stmt 0             @ ../communication/can/can_simple.cpp:181:31
	ldr.w	r1, [r1, #344]
	.loc	14 181 38                       @ ../communication/can/can_simple.cpp:181:38
	adds	r1, #152
	.loc	14 181 5                        @ ../communication/can/can_simple.cpp:181:5
	mov	r3, sp
	movs	r2, #1
	str	r2, [r3]
	movs	r2, #0
	movs	r3, #64
	bl	_Z13can_setSignalIN10ODriveIntf9MotorIntf5ErrorEEvR13can_Message_tRKT_hhb
	ldr	r0, [sp, #8]                    @ 4-byte Reload
	ldr	r1, [sp, #12]                   @ 4-byte Reload
	.loc	14 183 12 is_stmt 1             @ ../communication/can/can_simple.cpp:183:12
	ldr	r0, [r0]
	.loc	14 183 21 is_stmt 0             @ ../communication/can/can_simple.cpp:183:21
	ldr	r2, [r0]
	ldr	r2, [r2]
	blx	r2
	.loc	14 183 5 epilogue_begin         @ ../communication/can/can_simple.cpp:183:5
	add	sp, #40
	pop	{r7, pc}
.Ltmp86:
.Lfunc_end14:
	.size	_ZN9CANSimple24get_motor_error_callbackERK4Axis, .Lfunc_end14-_ZN9CANSimple24get_motor_error_callbackERK4Axis
	.cfi_endproc
	.cantunwind
	.fnend
                                        @ -- End function
	.section	.text._ZN9CANSimple26get_encoder_error_callbackERK4Axis,"ax",%progbits
	.hidden	_ZN9CANSimple26get_encoder_error_callbackERK4Axis @ -- Begin function _ZN9CANSimple26get_encoder_error_callbackERK4Axis
	.globl	_ZN9CANSimple26get_encoder_error_callbackERK4Axis
	.p2align	2
	.type	_ZN9CANSimple26get_encoder_error_callbackERK4Axis,%function
	.code	16                              @ @_ZN9CANSimple26get_encoder_error_callbackERK4Axis
	.thumb_func
_ZN9CANSimple26get_encoder_error_callbackERK4Axis:
.Lfunc_begin15:
	.loc	14 186 0 is_stmt 1              @ ../communication/can/can_simple.cpp:186:0
	.fnstart
	.cfi_startproc
@ %bb.0:
	.save	{r7, lr}
	push	{r7, lr}
	.cfi_def_cfa_offset 8
	.cfi_offset lr, -4
	.cfi_offset r7, -8
	.pad	#40
	sub	sp, #40
	.cfi_def_cfa_offset 48
	str	r0, [sp, #36]
	str	r1, [sp, #32]
	ldr	r0, [sp, #36]
.Ltmp87:
	.loc	14 187 19 prologue_end          @ ../communication/can/can_simple.cpp:187:19
	str	r0, [sp, #8]                    @ 4-byte Spill
	add	r0, sp, #16
	str	r0, [sp, #12]                   @ 4-byte Spill
	bl	_ZN13can_Message_tC2Ev
	ldr	r0, [sp, #12]                   @ 4-byte Reload
	.loc	14 188 16                       @ ../communication/can/can_simple.cpp:188:16
	ldr	r1, [sp, #32]
	.loc	14 188 33 is_stmt 0             @ ../communication/can/can_simple.cpp:188:33
	ldr	r1, [r1, #120]
	.loc	14 188 41                       @ ../communication/can/can_simple.cpp:188:41
	lsls	r1, r1, #5
	.loc	14 188 14                       @ ../communication/can/can_simple.cpp:188:14
	str	r1, [sp, #16]
	.loc	14 189 14 is_stmt 1             @ ../communication/can/can_simple.cpp:189:14
	ldr	r1, [sp, #16]
	adds	r1, #4
	str	r1, [sp, #16]
	.loc	14 190 19                       @ ../communication/can/can_simple.cpp:190:19
	ldr	r1, [sp, #32]
	.loc	14 190 36 is_stmt 0             @ ../communication/can/can_simple.cpp:190:36
	ldrb.w	r1, [r1, #124]
	.loc	14 190 17                       @ ../communication/can/can_simple.cpp:190:17
	and	r1, r1, #1
	strb.w	r1, [sp, #20]
	movs	r1, #8
	.loc	14 191 15 is_stmt 1             @ ../communication/can/can_simple.cpp:191:15
	strb.w	r1, [sp, #22]
	.loc	14 193 26                       @ ../communication/can/can_simple.cpp:193:26
	ldr	r1, [sp, #32]
	.loc	14 193 31 is_stmt 0             @ ../communication/can/can_simple.cpp:193:31
	ldr.w	r1, [r1, #172]
	.loc	14 193 40                       @ ../communication/can/can_simple.cpp:193:40
	adds	r1, #140
	.loc	14 193 5                        @ ../communication/can/can_simple.cpp:193:5
	mov	r3, sp
	movs	r2, #1
	str	r2, [r3]
	movs	r2, #0
	movs	r3, #32
	bl	_Z13can_setSignalIN10ODriveIntf11EncoderIntf5ErrorEEvR13can_Message_tRKT_hhb
	ldr	r0, [sp, #8]                    @ 4-byte Reload
	ldr	r1, [sp, #12]                   @ 4-byte Reload
	.loc	14 195 12 is_stmt 1             @ ../communication/can/can_simple.cpp:195:12
	ldr	r0, [r0]
	.loc	14 195 21 is_stmt 0             @ ../communication/can/can_simple.cpp:195:21
	ldr	r2, [r0]
	ldr	r2, [r2]
	blx	r2
	.loc	14 195 5 epilogue_begin         @ ../communication/can/can_simple.cpp:195:5
	add	sp, #40
	pop	{r7, pc}
.Ltmp88:
.Lfunc_end15:
	.size	_ZN9CANSimple26get_encoder_error_callbackERK4Axis, .Lfunc_end15-_ZN9CANSimple26get_encoder_error_callbackERK4Axis
	.cfi_endproc
	.cantunwind
	.fnend
                                        @ -- End function
	.section	.text._ZN9CANSimple29get_sensorless_error_callbackERK4Axis,"ax",%progbits
	.hidden	_ZN9CANSimple29get_sensorless_error_callbackERK4Axis @ -- Begin function _ZN9CANSimple29get_sensorless_error_callbackERK4Axis
	.globl	_ZN9CANSimple29get_sensorless_error_callbackERK4Axis
	.p2align	2
	.type	_ZN9CANSimple29get_sensorless_error_callbackERK4Axis,%function
	.code	16                              @ @_ZN9CANSimple29get_sensorless_error_callbackERK4Axis
	.thumb_func
_ZN9CANSimple29get_sensorless_error_callbackERK4Axis:
.Lfunc_begin16:
	.loc	14 198 0 is_stmt 1              @ ../communication/can/can_simple.cpp:198:0
	.fnstart
	.cfi_startproc
@ %bb.0:
	.save	{r7, lr}
	push	{r7, lr}
	.cfi_def_cfa_offset 8
	.cfi_offset lr, -4
	.cfi_offset r7, -8
	.pad	#40
	sub	sp, #40
	.cfi_def_cfa_offset 48
	str	r0, [sp, #36]
	str	r1, [sp, #32]
	ldr	r0, [sp, #36]
.Ltmp89:
	.loc	14 199 19 prologue_end          @ ../communication/can/can_simple.cpp:199:19
	str	r0, [sp, #8]                    @ 4-byte Spill
	add	r0, sp, #16
	str	r0, [sp, #12]                   @ 4-byte Spill
	bl	_ZN13can_Message_tC2Ev
	ldr	r0, [sp, #12]                   @ 4-byte Reload
	.loc	14 200 16                       @ ../communication/can/can_simple.cpp:200:16
	ldr	r1, [sp, #32]
	.loc	14 200 33 is_stmt 0             @ ../communication/can/can_simple.cpp:200:33
	ldr	r1, [r1, #120]
	.loc	14 200 41                       @ ../communication/can/can_simple.cpp:200:41
	lsls	r1, r1, #5
	.loc	14 200 14                       @ ../communication/can/can_simple.cpp:200:14
	str	r1, [sp, #16]
	.loc	14 201 14 is_stmt 1             @ ../communication/can/can_simple.cpp:201:14
	ldr	r1, [sp, #16]
	adds	r1, #5
	str	r1, [sp, #16]
	.loc	14 202 19                       @ ../communication/can/can_simple.cpp:202:19
	ldr	r1, [sp, #32]
	.loc	14 202 36 is_stmt 0             @ ../communication/can/can_simple.cpp:202:36
	ldrb.w	r1, [r1, #124]
	.loc	14 202 17                       @ ../communication/can/can_simple.cpp:202:17
	and	r1, r1, #1
	strb.w	r1, [sp, #20]
	movs	r1, #8
	.loc	14 203 15 is_stmt 1             @ ../communication/can/can_simple.cpp:203:15
	strb.w	r1, [sp, #22]
	.loc	14 205 26                       @ ../communication/can/can_simple.cpp:205:26
	ldr	r1, [sp, #32]
	.loc	14 205 31 is_stmt 0             @ ../communication/can/can_simple.cpp:205:31
	ldr.w	r1, [r1, #252]
	.loc	14 205 53                       @ ../communication/can/can_simple.cpp:205:53
	adds	r1, #16
	.loc	14 205 5                        @ ../communication/can/can_simple.cpp:205:5
	mov	r3, sp
	movs	r2, #1
	str	r2, [r3]
	movs	r2, #0
	movs	r3, #32
	bl	_Z13can_setSignalIN10ODriveIntf23SensorlessEstimatorIntf5ErrorEEvR13can_Message_tRKT_hhb
	ldr	r0, [sp, #8]                    @ 4-byte Reload
	ldr	r1, [sp, #12]                   @ 4-byte Reload
	.loc	14 207 12 is_stmt 1             @ ../communication/can/can_simple.cpp:207:12
	ldr	r0, [r0]
	.loc	14 207 21 is_stmt 0             @ ../communication/can/can_simple.cpp:207:21
	ldr	r2, [r0]
	ldr	r2, [r2]
	blx	r2
	.loc	14 207 5 epilogue_begin         @ ../communication/can/can_simple.cpp:207:5
	add	sp, #40
	pop	{r7, pc}
.Ltmp90:
.Lfunc_end16:
	.size	_ZN9CANSimple29get_sensorless_error_callbackERK4Axis, .Lfunc_end16-_ZN9CANSimple29get_sensorless_error_callbackERK4Axis
	.cfi_endproc
	.cantunwind
	.fnend
                                        @ -- End function
	.section	.text._ZN9CANSimple24set_axis_nodeid_callbackER4AxisRK13can_Message_t,"ax",%progbits
	.hidden	_ZN9CANSimple24set_axis_nodeid_callbackER4AxisRK13can_Message_t @ -- Begin function _ZN9CANSimple24set_axis_nodeid_callbackER4AxisRK13can_Message_t
	.globl	_ZN9CANSimple24set_axis_nodeid_callbackER4AxisRK13can_Message_t
	.p2align	2
	.type	_ZN9CANSimple24set_axis_nodeid_callbackER4AxisRK13can_Message_t,%function
	.code	16                              @ @_ZN9CANSimple24set_axis_nodeid_callbackER4AxisRK13can_Message_t
	.thumb_func
_ZN9CANSimple24set_axis_nodeid_callbackER4AxisRK13can_Message_t:
.Lfunc_begin17:
	.loc	14 222 0 is_stmt 1              @ ../communication/can/can_simple.cpp:222:0
	.fnstart
	.cfi_startproc
@ %bb.0:
	.save	{r7, lr}
	push	{r7, lr}
	.cfi_def_cfa_offset 8
	.cfi_offset lr, -4
	.cfi_offset r7, -8
	.pad	#40
	sub	sp, #40
	.cfi_def_cfa_offset 48
	str	r0, [sp, #36]
	str	r1, [sp, #32]
.Ltmp91:
	.loc	14 223 56 prologue_end          @ ../communication/can/can_simple.cpp:223:56
	ldr	r3, [sp, #32]
	ldr	r0, [r3]
	ldr	r1, [r3, #4]
	ldr	r2, [r3, #8]
	ldr	r3, [r3, #12]
	str	r3, [sp, #28]
	str	r2, [sp, #24]
	str	r1, [sp, #20]
	str	r0, [sp, #16]
	.loc	14 223 32 is_stmt 0             @ ../communication/can/can_simple.cpp:223:32
	ldr	r0, [sp, #16]
	ldr	r1, [sp, #20]
	ldr	r2, [sp, #24]
	ldr	r3, [sp, #28]
	mov	lr, sp
	mov.w	r12, #1
	str.w	r12, [lr, #8]
	mov.w	r12, #32
	str.w	r12, [lr, #4]
	mov.w	r12, #0
	str.w	r12, [lr]
	bl	_Z13can_getSignalIjET_13can_Message_thhb
	.loc	14 223 5                        @ ../communication/can/can_simple.cpp:223:5
	ldr	r1, [sp, #36]
	.loc	14 223 30                       @ ../communication/can/can_simple.cpp:223:30
	str	r0, [r1, #120]
	.loc	14 224 1 epilogue_begin is_stmt 1 @ ../communication/can/can_simple.cpp:224:1
	add	sp, #40
	pop	{r7, pc}
.Ltmp92:
.Lfunc_end17:
	.size	_ZN9CANSimple24set_axis_nodeid_callbackER4AxisRK13can_Message_t, .Lfunc_end17-_ZN9CANSimple24set_axis_nodeid_callbackER4AxisRK13can_Message_t
	.cfi_endproc
	.cantunwind
	.fnend
                                        @ -- End function
	.section	.text._ZN9CANSimple33set_axis_requested_state_callbackER4AxisRK13can_Message_t,"ax",%progbits
	.hidden	_ZN9CANSimple33set_axis_requested_state_callbackER4AxisRK13can_Message_t @ -- Begin function _ZN9CANSimple33set_axis_requested_state_callbackER4AxisRK13can_Message_t
	.globl	_ZN9CANSimple33set_axis_requested_state_callbackER4AxisRK13can_Message_t
	.p2align	2
	.type	_ZN9CANSimple33set_axis_requested_state_callbackER4AxisRK13can_Message_t,%function
	.code	16                              @ @_ZN9CANSimple33set_axis_requested_state_callbackER4AxisRK13can_Message_t
	.thumb_func
_ZN9CANSimple33set_axis_requested_state_callbackER4AxisRK13can_Message_t:
.Lfunc_begin18:
	.loc	14 226 0                        @ ../communication/can/can_simple.cpp:226:0
	.fnstart
	.cfi_startproc
@ %bb.0:
	.save	{r7, lr}
	push	{r7, lr}
	.cfi_def_cfa_offset 8
	.cfi_offset lr, -4
	.cfi_offset r7, -8
	.pad	#40
	sub	sp, #40
	.cfi_def_cfa_offset 48
	str	r0, [sp, #36]
	str	r1, [sp, #32]
.Ltmp93:
	.loc	14 227 81 prologue_end          @ ../communication/can/can_simple.cpp:227:81
	ldr	r3, [sp, #32]
	ldr	r0, [r3]
	ldr	r1, [r3, #4]
	ldr	r2, [r3, #8]
	ldr	r3, [r3, #12]
	str	r3, [sp, #28]
	str	r2, [sp, #24]
	str	r1, [sp, #20]
	str	r0, [sp, #16]
	.loc	14 227 58 is_stmt 0             @ ../communication/can/can_simple.cpp:227:58
	ldr	r0, [sp, #16]
	ldr	r1, [sp, #20]
	ldr	r2, [sp, #24]
	ldr	r3, [sp, #28]
	mov	lr, sp
	mov.w	r12, #1
	str.w	r12, [lr, #8]
	mov.w	r12, #32
	str.w	r12, [lr, #4]
	mov.w	r12, #0
	str.w	r12, [lr]
	bl	_Z13can_getSignalIiET_13can_Message_thhb
	.loc	14 227 5                        @ ../communication/can/can_simple.cpp:227:5
	ldr	r1, [sp, #36]
	.loc	14 227 27                       @ ../communication/can/can_simple.cpp:227:27
	strb.w	r0, [r1, #628]
	.loc	14 228 1 epilogue_begin is_stmt 1 @ ../communication/can/can_simple.cpp:228:1
	add	sp, #40
	pop	{r7, pc}
.Ltmp94:
.Lfunc_end18:
	.size	_ZN9CANSimple33set_axis_requested_state_callbackER4AxisRK13can_Message_t, .Lfunc_end18-_ZN9CANSimple33set_axis_requested_state_callbackER4AxisRK13can_Message_t
	.cfi_endproc
	.cantunwind
	.fnend
                                        @ -- End function
	.section	.text._ZN9CANSimple32set_axis_startup_config_callbackER4AxisRK13can_Message_t,"ax",%progbits
	.hidden	_ZN9CANSimple32set_axis_startup_config_callbackER4AxisRK13can_Message_t @ -- Begin function _ZN9CANSimple32set_axis_startup_config_callbackER4AxisRK13can_Message_t
	.globl	_ZN9CANSimple32set_axis_startup_config_callbackER4AxisRK13can_Message_t
	.p2align	2
	.type	_ZN9CANSimple32set_axis_startup_config_callbackER4AxisRK13can_Message_t,%function
	.code	16                              @ @_ZN9CANSimple32set_axis_startup_config_callbackER4AxisRK13can_Message_t
	.thumb_func
_ZN9CANSimple32set_axis_startup_config_callbackER4AxisRK13can_Message_t:
.Lfunc_begin19:
	.loc	14 230 0                        @ ../communication/can/can_simple.cpp:230:0
	.fnstart
	.cfi_startproc
@ %bb.0:
	.pad	#8
	sub	sp, #8
	.cfi_def_cfa_offset 8
	str	r0, [sp, #4]
	str	r1, [sp]
.Ltmp95:
	.loc	14 232 1 prologue_end epilogue_begin @ ../communication/can/can_simple.cpp:232:1
	add	sp, #8
	bx	lr
.Ltmp96:
.Lfunc_end19:
	.size	_ZN9CANSimple32set_axis_startup_config_callbackER4AxisRK13can_Message_t, .Lfunc_end19-_ZN9CANSimple32set_axis_startup_config_callbackER4AxisRK13can_Message_t
	.cfi_endproc
	.cantunwind
	.fnend
                                        @ -- End function
	.section	.text._ZN9CANSimple30get_encoder_estimates_callbackERK4Axis,"ax",%progbits
	.hidden	_ZN9CANSimple30get_encoder_estimates_callbackERK4Axis @ -- Begin function _ZN9CANSimple30get_encoder_estimates_callbackERK4Axis
	.globl	_ZN9CANSimple30get_encoder_estimates_callbackERK4Axis
	.p2align	2
	.type	_ZN9CANSimple30get_encoder_estimates_callbackERK4Axis,%function
	.code	16                              @ @_ZN9CANSimple30get_encoder_estimates_callbackERK4Axis
	.thumb_func
_ZN9CANSimple30get_encoder_estimates_callbackERK4Axis:
.Lfunc_begin20:
	.loc	14 234 0                        @ ../communication/can/can_simple.cpp:234:0
	.fnstart
	.cfi_startproc
@ %bb.0:
	.save	{r7, lr}
	push	{r7, lr}
	.cfi_def_cfa_offset 8
	.cfi_offset lr, -4
	.cfi_offset r7, -8
	.pad	#88
	sub	sp, #88
	.cfi_def_cfa_offset 96
	str	r0, [sp, #84]
	str	r1, [sp, #80]
	ldr	r0, [sp, #84]
.Ltmp97:
	.loc	14 235 19 prologue_end          @ ../communication/can/can_simple.cpp:235:19
	str	r0, [sp, #24]                   @ 4-byte Spill
	add	r0, sp, #64
	str	r0, [sp, #28]                   @ 4-byte Spill
	bl	_ZN13can_Message_tC2Ev
	.loc	14 236 16                       @ ../communication/can/can_simple.cpp:236:16
	ldr	r0, [sp, #80]
	.loc	14 236 33 is_stmt 0             @ ../communication/can/can_simple.cpp:236:33
	ldr	r0, [r0, #120]
	.loc	14 236 41                       @ ../communication/can/can_simple.cpp:236:41
	lsls	r0, r0, #5
	.loc	14 236 14                       @ ../communication/can/can_simple.cpp:236:14
	str	r0, [sp, #64]
	.loc	14 237 14 is_stmt 1             @ ../communication/can/can_simple.cpp:237:14
	ldr	r0, [sp, #64]
	adds	r0, #9
	str	r0, [sp, #64]
	.loc	14 238 19                       @ ../communication/can/can_simple.cpp:238:19
	ldr	r0, [sp, #80]
	.loc	14 238 36 is_stmt 0             @ ../communication/can/can_simple.cpp:238:36
	ldrb.w	r0, [r0, #124]
	.loc	14 238 17                       @ ../communication/can/can_simple.cpp:238:17
	and	r0, r0, #1
	strb.w	r0, [sp, #68]
	movs	r0, #8
	.loc	14 239 15 is_stmt 1             @ ../communication/can/can_simple.cpp:239:15
	strb.w	r0, [sp, #70]
	.loc	14 241 33                       @ ../communication/can/can_simple.cpp:241:33
	ldr	r0, [sp, #80]
	.loc	14 241 38 is_stmt 0             @ ../communication/can/can_simple.cpp:241:38
	ldr.w	r0, [r0, #256]
	movw	r1, #14576
	.loc	14 241 50                       @ ../communication/can/can_simple.cpp:241:50
	add	r1, r0
	add	r0, sp, #52
	.loc	14 241 75                       @ ../communication/can/can_simple.cpp:241:75
	str	r0, [sp, #4]                    @ 4-byte Spill
	bl	_ZN9InputPortIfE3anyEv
	ldr	r0, [sp, #4]                    @ 4-byte Reload
	movs	r1, #0
	.loc	14 241 90                       @ ../communication/can/can_simple.cpp:241:90
	str	r1, [sp, #8]                    @ 4-byte Spill
	str	r1, [sp, #48]
	add	r1, sp, #48
	.loc	14 241 81                       @ ../communication/can/can_simple.cpp:241:81
	bl	_ZNOSt3__28optionalIfE8value_orB7v180000IfEEfOT_
	ldr	r2, [sp, #8]                    @ 4-byte Reload
	ldr	r0, [sp, #28]                   @ 4-byte Reload
	.loc	14 241 33                       @ ../communication/can/can_simple.cpp:241:33
	vstr	s0, [sp, #60]
	.loc	14 241 5                        @ ../communication/can/can_simple.cpp:241:5
	mov	r3, sp
	movs	r1, #1
	str	r1, [sp, #16]                   @ 4-byte Spill
	str	r1, [r3]
	add	r1, sp, #60
	movs	r3, #32
	str	r3, [sp, #20]                   @ 4-byte Spill
	bl	_Z13can_setSignalIfEvR13can_Message_tRKT_hhb
	.loc	14 242 33 is_stmt 1             @ ../communication/can/can_simple.cpp:242:33
	ldr	r0, [sp, #80]
	.loc	14 242 38 is_stmt 0             @ ../communication/can/can_simple.cpp:242:38
	ldr.w	r0, [r0, #256]
	.loc	14 242 50                       @ ../communication/can/can_simple.cpp:242:50
	add.w	r1, r0, #14592
	add	r0, sp, #36
	.loc	14 242 68                       @ ../communication/can/can_simple.cpp:242:68
	str	r0, [sp, #12]                   @ 4-byte Spill
	bl	_ZN9InputPortIfE3anyEv
	ldr	r1, [sp, #8]                    @ 4-byte Reload
	ldr	r0, [sp, #12]                   @ 4-byte Reload
	.loc	14 242 83                       @ ../communication/can/can_simple.cpp:242:83
	str	r1, [sp, #32]
	add	r1, sp, #32
	.loc	14 242 74                       @ ../communication/can/can_simple.cpp:242:74
	bl	_ZNOSt3__28optionalIfE8value_orB7v180000IfEEfOT_
	ldr	r1, [sp, #16]                   @ 4-byte Reload
	ldr	r3, [sp, #20]                   @ 4-byte Reload
	ldr	r0, [sp, #28]                   @ 4-byte Reload
	.loc	14 242 33                       @ ../communication/can/can_simple.cpp:242:33
	vstr	s0, [sp, #44]
	.loc	14 242 5                        @ ../communication/can/can_simple.cpp:242:5
	mov	r2, sp
	str	r1, [r2]
	add	r1, sp, #44
	mov	r2, r3
	bl	_Z13can_setSignalIfEvR13can_Message_tRKT_hhb
	ldr	r0, [sp, #24]                   @ 4-byte Reload
	ldr	r1, [sp, #28]                   @ 4-byte Reload
	.loc	14 244 12 is_stmt 1             @ ../communication/can/can_simple.cpp:244:12
	ldr	r0, [r0]
	.loc	14 244 21 is_stmt 0             @ ../communication/can/can_simple.cpp:244:21
	ldr	r2, [r0]
	ldr	r2, [r2]
	blx	r2
	.loc	14 244 5 epilogue_begin         @ ../communication/can/can_simple.cpp:244:5
	add	sp, #88
	pop	{r7, pc}
.Ltmp98:
.Lfunc_end20:
	.size	_ZN9CANSimple30get_encoder_estimates_callbackERK4Axis, .Lfunc_end20-_ZN9CANSimple30get_encoder_estimates_callbackERK4Axis
	.cfi_endproc
	.cantunwind
	.fnend
                                        @ -- End function
	.section	.text._ZN9CANSimple26get_encoder_count_callbackERK4Axis,"ax",%progbits
	.hidden	_ZN9CANSimple26get_encoder_count_callbackERK4Axis @ -- Begin function _ZN9CANSimple26get_encoder_count_callbackERK4Axis
	.globl	_ZN9CANSimple26get_encoder_count_callbackERK4Axis
	.p2align	2
	.type	_ZN9CANSimple26get_encoder_count_callbackERK4Axis,%function
	.code	16                              @ @_ZN9CANSimple26get_encoder_count_callbackERK4Axis
	.thumb_func
_ZN9CANSimple26get_encoder_count_callbackERK4Axis:
.Lfunc_begin21:
	.loc	14 262 0 is_stmt 1              @ ../communication/can/can_simple.cpp:262:0
	.fnstart
	.cfi_startproc
@ %bb.0:
	.save	{r7, lr}
	push	{r7, lr}
	.cfi_def_cfa_offset 8
	.cfi_offset lr, -4
	.cfi_offset r7, -8
	.pad	#48
	sub	sp, #48
	.cfi_def_cfa_offset 56
	str	r0, [sp, #44]
	str	r1, [sp, #40]
	ldr	r0, [sp, #44]
.Ltmp99:
	.loc	14 263 19 prologue_end          @ ../communication/can/can_simple.cpp:263:19
	str	r0, [sp, #16]                   @ 4-byte Spill
	add	r0, sp, #24
	str	r0, [sp, #20]                   @ 4-byte Spill
	bl	_ZN13can_Message_tC2Ev
	ldr	r0, [sp, #20]                   @ 4-byte Reload
	.loc	14 264 16                       @ ../communication/can/can_simple.cpp:264:16
	ldr	r1, [sp, #40]
	.loc	14 264 33 is_stmt 0             @ ../communication/can/can_simple.cpp:264:33
	ldr	r1, [r1, #120]
	.loc	14 264 41                       @ ../communication/can/can_simple.cpp:264:41
	lsls	r1, r1, #5
	.loc	14 264 14                       @ ../communication/can/can_simple.cpp:264:14
	str	r1, [sp, #24]
	.loc	14 265 14 is_stmt 1             @ ../communication/can/can_simple.cpp:265:14
	ldr	r1, [sp, #24]
	adds	r1, #10
	str	r1, [sp, #24]
	.loc	14 266 19                       @ ../communication/can/can_simple.cpp:266:19
	ldr	r1, [sp, #40]
	.loc	14 266 36 is_stmt 0             @ ../communication/can/can_simple.cpp:266:36
	ldrb.w	r1, [r1, #124]
	.loc	14 266 17                       @ ../communication/can/can_simple.cpp:266:17
	and	r1, r1, #1
	strb.w	r1, [sp, #28]
	movs	r1, #8
	.loc	14 267 15 is_stmt 1             @ ../communication/can/can_simple.cpp:267:15
	strb.w	r1, [sp, #30]
	.loc	14 269 35                       @ ../communication/can/can_simple.cpp:269:35
	ldr	r1, [sp, #40]
	.loc	14 269 40 is_stmt 0             @ ../communication/can/can_simple.cpp:269:40
	ldr.w	r1, [r1, #172]
	.loc	14 269 49                       @ ../communication/can/can_simple.cpp:269:49
	adds	r1, #144
	.loc	14 269 5                        @ ../communication/can/can_simple.cpp:269:5
	mov	r3, sp
	movs	r2, #1
	str	r2, [sp, #8]                    @ 4-byte Spill
	str	r2, [r3]
	movs	r2, #0
	movs	r3, #32
	str	r3, [sp, #12]                   @ 4-byte Spill
	bl	_Z13can_setSignalIiEvR13can_Message_tRKT_hhb
	ldr	r2, [sp, #8]                    @ 4-byte Reload
	ldr	r3, [sp, #12]                   @ 4-byte Reload
	ldr	r0, [sp, #20]                   @ 4-byte Reload
	.loc	14 270 35 is_stmt 1             @ ../communication/can/can_simple.cpp:270:35
	ldr	r1, [sp, #40]
	.loc	14 270 40 is_stmt 0             @ ../communication/can/can_simple.cpp:270:40
	ldr.w	r1, [r1, #172]
	.loc	14 270 49                       @ ../communication/can/can_simple.cpp:270:49
	adds	r1, #148
	.loc	14 270 5                        @ ../communication/can/can_simple.cpp:270:5
	mov	r12, sp
	str.w	r2, [r12]
	mov	r2, r3
	bl	_Z13can_setSignalIiEvR13can_Message_tRKT_hhb
	ldr	r0, [sp, #16]                   @ 4-byte Reload
	ldr	r1, [sp, #20]                   @ 4-byte Reload
	.loc	14 271 12 is_stmt 1             @ ../communication/can/can_simple.cpp:271:12
	ldr	r0, [r0]
	.loc	14 271 21 is_stmt 0             @ ../communication/can/can_simple.cpp:271:21
	ldr	r2, [r0]
	ldr	r2, [r2]
	blx	r2
	.loc	14 271 5 epilogue_begin         @ ../communication/can/can_simple.cpp:271:5
	add	sp, #48
	pop	{r7, pc}
.Ltmp100:
.Lfunc_end21:
	.size	_ZN9CANSimple26get_encoder_count_callbackERK4Axis, .Lfunc_end21-_ZN9CANSimple26get_encoder_count_callbackERK4Axis
	.cfi_endproc
	.cantunwind
	.fnend
                                        @ -- End function
	.section	.text._ZN9CANSimple22set_input_pos_callbackER4AxisRK13can_Message_t,"ax",%progbits
	.hidden	_ZN9CANSimple22set_input_pos_callbackER4AxisRK13can_Message_t @ -- Begin function _ZN9CANSimple22set_input_pos_callbackER4AxisRK13can_Message_t
	.globl	_ZN9CANSimple22set_input_pos_callbackER4AxisRK13can_Message_t
	.p2align	2
	.type	_ZN9CANSimple22set_input_pos_callbackER4AxisRK13can_Message_t,%function
	.code	16                              @ @_ZN9CANSimple22set_input_pos_callbackER4AxisRK13can_Message_t
	.thumb_func
_ZN9CANSimple22set_input_pos_callbackER4AxisRK13can_Message_t:
.Lfunc_begin22:
	.loc	14 274 0 is_stmt 1              @ ../communication/can/can_simple.cpp:274:0
	.fnstart
	.cfi_startproc
@ %bb.0:
	.save	{r4, r5, r7, lr}
	push	{r4, r5, r7, lr}
	.cfi_def_cfa_offset 16
	.cfi_offset lr, -4
	.cfi_offset r7, -8
	.cfi_offset r5, -12
	.cfi_offset r4, -16
	.pad	#88
	sub	sp, #88
	.cfi_def_cfa_offset 104
	str	r0, [sp, #84]
	str	r1, [sp, #80]
.Ltmp101:
	.loc	14 275 5 prologue_end           @ ../communication/can/can_simple.cpp:275:5
	ldr	r0, [sp, #84]
	.loc	14 275 10 is_stmt 0             @ ../communication/can/can_simple.cpp:275:10
	ldr.w	r0, [r0, #256]
	.loc	14 275 67                       @ ../communication/can/can_simple.cpp:275:67
	str	r0, [sp, #12]                   @ 4-byte Spill
	ldr	r3, [sp, #80]
	ldr	r0, [r3]
	ldr	r1, [r3, #4]
	ldr	r2, [r3, #8]
	ldr	r3, [r3, #12]
	str	r3, [sp, #76]
	str	r2, [sp, #72]
	str	r1, [sp, #68]
	str	r0, [sp, #64]
	.loc	14 275 46                       @ ../communication/can/can_simple.cpp:275:46
	ldr	r0, [sp, #64]
	ldr	r1, [sp, #68]
	ldr	r2, [sp, #72]
	ldr	r3, [sp, #76]
	mov	lr, sp
	movs	r4, #1
	str.w	r4, [lr, #8]
	mov.w	r12, #32
	str.w	r12, [sp, #16]                  @ 4-byte Spill
	str.w	r12, [lr, #4]
	mov.w	r12, #0
	str.w	r12, [lr]
	bl	_Z13can_getSignalIfET_13can_Message_thhb
	ldr	r0, [sp, #12]                   @ 4-byte Reload
	.loc	14 275 22                       @ ../communication/can/can_simple.cpp:275:22
	bl	_ZN10Controller23set_input_pos_and_stepsEf
	ldr.w	r12, [sp, #16]                  @ 4-byte Reload
	.loc	14 276 58 is_stmt 1             @ ../communication/can/can_simple.cpp:276:58
	ldr	r3, [sp, #80]
	ldr	r0, [r3]
	ldr	r1, [r3, #4]
	ldr	r2, [r3, #8]
	ldr	r3, [r3, #12]
	str	r3, [sp, #60]
	str	r2, [sp, #56]
	str	r1, [sp, #52]
	str	r0, [sp, #48]
	.loc	14 276 35 is_stmt 0             @ ../communication/can/can_simple.cpp:276:35
	ldr	r0, [sp, #48]
	ldr	r1, [sp, #52]
	ldr	r2, [sp, #56]
	ldr	r3, [sp, #60]
	mov	lr, sp
	str.w	r4, [lr, #8]
	movs	r5, #16
	str	r5, [sp, #20]                   @ 4-byte Spill
	str.w	r5, [lr, #4]
	str.w	r12, [lr]
	vldr	s0, .LCPI22_0
	vstr	s0, [sp, #28]                   @ 4-byte Spill
	vldr	s1, .LCPI22_1
	vstr	s1, [sp, #24]                   @ 4-byte Spill
	bl	_Z13can_getSignalIsEf13can_Message_thhbff
	ldr.w	r12, [sp, #20]                  @ 4-byte Reload
	vldr	s1, [sp, #24]                   @ 4-byte Reload
	vmov.f32	s2, s0
	.loc	14 276 5                        @ ../communication/can/can_simple.cpp:276:5
	vldr	s0, [sp, #28]                   @ 4-byte Reload
	ldr	r0, [sp, #84]
	.loc	14 276 10                       @ ../communication/can/can_simple.cpp:276:10
	ldr.w	r0, [r0, #256]
	movw	r1, #14628
	.loc	14 276 22                       @ ../communication/can/can_simple.cpp:276:22
	add	r0, r1
	.loc	14 276 33                       @ ../communication/can/can_simple.cpp:276:33
	vstr	s2, [r0]
	.loc	14 277 61 is_stmt 1             @ ../communication/can/can_simple.cpp:277:61
	ldr	r3, [sp, #80]
	ldr	r0, [r3]
	ldr	r1, [r3, #4]
	ldr	r2, [r3, #8]
	ldr	r3, [r3, #12]
	str	r3, [sp, #44]
	str	r2, [sp, #40]
	str	r1, [sp, #36]
	str	r0, [sp, #32]
	.loc	14 277 38 is_stmt 0             @ ../communication/can/can_simple.cpp:277:38
	ldr	r0, [sp, #32]
	ldr	r1, [sp, #36]
	ldr	r2, [sp, #40]
	ldr	r3, [sp, #44]
	mov	lr, sp
	str.w	r4, [lr, #8]
	str.w	r12, [lr, #4]
	mov.w	r12, #48
	str.w	r12, [lr]
	bl	_Z13can_getSignalIsEf13can_Message_thhbff
	.loc	14 277 5                        @ ../communication/can/can_simple.cpp:277:5
	ldr	r0, [sp, #84]
	.loc	14 277 10                       @ ../communication/can/can_simple.cpp:277:10
	ldr.w	r0, [r0, #256]
	movw	r1, #14632
	.loc	14 277 22                       @ ../communication/can/can_simple.cpp:277:22
	add	r0, r1
	.loc	14 277 36                       @ ../communication/can/can_simple.cpp:277:36
	vstr	s0, [r0]
	.loc	14 278 5 is_stmt 1              @ ../communication/can/can_simple.cpp:278:5
	ldr	r0, [sp, #84]
	.loc	14 278 10 is_stmt 0             @ ../communication/can/can_simple.cpp:278:10
	ldr.w	r0, [r0, #256]
	.loc	14 278 22                       @ ../communication/can/can_simple.cpp:278:22
	bl	_ZN10Controller17input_pos_updatedEv
	.loc	14 279 1 epilogue_begin is_stmt 1 @ ../communication/can/can_simple.cpp:279:1
	add	sp, #88
	pop	{r4, r5, r7, pc}
.Ltmp102:
	.p2align	2
@ %bb.1:
	.loc	14 0 1 is_stmt 0                @ ../communication/can/can_simple.cpp:0:1
.LCPI22_0:
	.long	0x3a83126f                      @ float 0.00100000005
.LCPI22_1:
	.long	0x00000000                      @ float 0
.Lfunc_end22:
	.size	_ZN9CANSimple22set_input_pos_callbackER4AxisRK13can_Message_t, .Lfunc_end22-_ZN9CANSimple22set_input_pos_callbackER4AxisRK13can_Message_t
	.cfi_endproc
	.cantunwind
	.fnend
                                        @ -- End function
	.section	.text._ZN9CANSimple22set_input_vel_callbackER4AxisRK13can_Message_t,"ax",%progbits
	.hidden	_ZN9CANSimple22set_input_vel_callbackER4AxisRK13can_Message_t @ -- Begin function _ZN9CANSimple22set_input_vel_callbackER4AxisRK13can_Message_t
	.globl	_ZN9CANSimple22set_input_vel_callbackER4AxisRK13can_Message_t
	.p2align	2
	.type	_ZN9CANSimple22set_input_vel_callbackER4AxisRK13can_Message_t,%function
	.code	16                              @ @_ZN9CANSimple22set_input_vel_callbackER4AxisRK13can_Message_t
	.thumb_func
_ZN9CANSimple22set_input_vel_callbackER4AxisRK13can_Message_t:
.Lfunc_begin23:
	.loc	14 281 0 is_stmt 1              @ ../communication/can/can_simple.cpp:281:0
	.fnstart
	.cfi_startproc
@ %bb.0:
	.save	{r4, lr}
	push	{r4, lr}
	.cfi_def_cfa_offset 8
	.cfi_offset lr, -4
	.cfi_offset r4, -8
	.pad	#56
	sub	sp, #56
	.cfi_def_cfa_offset 64
	str	r0, [sp, #52]
	str	r1, [sp, #48]
.Ltmp103:
	.loc	14 282 56 prologue_end          @ ../communication/can/can_simple.cpp:282:56
	ldr	r3, [sp, #48]
	ldr	r0, [r3]
	ldr	r1, [r3, #4]
	ldr	r2, [r3, #8]
	ldr	r3, [r3, #12]
	str	r3, [sp, #44]
	str	r2, [sp, #40]
	str	r1, [sp, #36]
	str	r0, [sp, #32]
	.loc	14 282 35 is_stmt 0             @ ../communication/can/can_simple.cpp:282:35
	ldr	r0, [sp, #32]
	ldr	r1, [sp, #36]
	ldr	r2, [sp, #40]
	ldr	r3, [sp, #44]
	mov	lr, sp
	movs	r4, #1
	str.w	r4, [lr, #8]
	mov.w	r12, #32
	str.w	r12, [sp, #12]                  @ 4-byte Spill
	str.w	r12, [lr, #4]
	mov.w	r12, #0
	str.w	r12, [lr]
	bl	_Z13can_getSignalIfET_13can_Message_thhb
	ldr.w	r12, [sp, #12]                  @ 4-byte Reload
	.loc	14 282 5                        @ ../communication/can/can_simple.cpp:282:5
	ldr	r0, [sp, #52]
	.loc	14 282 10                       @ ../communication/can/can_simple.cpp:282:10
	ldr.w	r0, [r0, #256]
	movw	r1, #14628
	.loc	14 282 22                       @ ../communication/can/can_simple.cpp:282:22
	add	r0, r1
	.loc	14 282 33                       @ ../communication/can/can_simple.cpp:282:33
	vstr	s0, [r0]
	.loc	14 283 59 is_stmt 1             @ ../communication/can/can_simple.cpp:283:59
	ldr	r3, [sp, #48]
	ldr	r0, [r3]
	ldr	r1, [r3, #4]
	ldr	r2, [r3, #8]
	ldr	r3, [r3, #12]
	str	r3, [sp, #28]
	str	r2, [sp, #24]
	str	r1, [sp, #20]
	str	r0, [sp, #16]
	.loc	14 283 38 is_stmt 0             @ ../communication/can/can_simple.cpp:283:38
	ldr	r0, [sp, #16]
	ldr	r1, [sp, #20]
	ldr	r2, [sp, #24]
	ldr	r3, [sp, #28]
	mov	lr, sp
	str.w	r4, [lr, #8]
	str.w	r12, [lr, #4]
	str.w	r12, [lr]
	bl	_Z13can_getSignalIfET_13can_Message_thhb
	.loc	14 283 5                        @ ../communication/can/can_simple.cpp:283:5
	ldr	r0, [sp, #52]
	.loc	14 283 10                       @ ../communication/can/can_simple.cpp:283:10
	ldr.w	r0, [r0, #256]
	movw	r1, #14632
	.loc	14 283 22                       @ ../communication/can/can_simple.cpp:283:22
	add	r0, r1
	.loc	14 283 36                       @ ../communication/can/can_simple.cpp:283:36
	vstr	s0, [r0]
	.loc	14 284 1 epilogue_begin is_stmt 1 @ ../communication/can/can_simple.cpp:284:1
	add	sp, #56
	pop	{r4, pc}
.Ltmp104:
.Lfunc_end23:
	.size	_ZN9CANSimple22set_input_vel_callbackER4AxisRK13can_Message_t, .Lfunc_end23-_ZN9CANSimple22set_input_vel_callbackER4AxisRK13can_Message_t
	.cfi_endproc
	.cantunwind
	.fnend
                                        @ -- End function
	.section	.text._ZN9CANSimple25set_input_torque_callbackER4AxisRK13can_Message_t,"ax",%progbits
	.hidden	_ZN9CANSimple25set_input_torque_callbackER4AxisRK13can_Message_t @ -- Begin function _ZN9CANSimple25set_input_torque_callbackER4AxisRK13can_Message_t
	.globl	_ZN9CANSimple25set_input_torque_callbackER4AxisRK13can_Message_t
	.p2align	2
	.type	_ZN9CANSimple25set_input_torque_callbackER4AxisRK13can_Message_t,%function
	.code	16                              @ @_ZN9CANSimple25set_input_torque_callbackER4AxisRK13can_Message_t
	.thumb_func
_ZN9CANSimple25set_input_torque_callbackER4AxisRK13can_Message_t:
.Lfunc_begin24:
	.loc	14 286 0                        @ ../communication/can/can_simple.cpp:286:0
	.fnstart
	.cfi_startproc
@ %bb.0:
	.save	{r7, lr}
	push	{r7, lr}
	.cfi_def_cfa_offset 8
	.cfi_offset lr, -4
	.cfi_offset r7, -8
	.pad	#40
	sub	sp, #40
	.cfi_def_cfa_offset 48
	str	r0, [sp, #36]
	str	r1, [sp, #32]
.Ltmp105:
	.loc	14 287 59 prologue_end          @ ../communication/can/can_simple.cpp:287:59
	ldr	r3, [sp, #32]
	ldr	r0, [r3]
	ldr	r1, [r3, #4]
	ldr	r2, [r3, #8]
	ldr	r3, [r3, #12]
	str	r3, [sp, #28]
	str	r2, [sp, #24]
	str	r1, [sp, #20]
	str	r0, [sp, #16]
	.loc	14 287 38 is_stmt 0             @ ../communication/can/can_simple.cpp:287:38
	ldr	r0, [sp, #16]
	ldr	r1, [sp, #20]
	ldr	r2, [sp, #24]
	ldr	r3, [sp, #28]
	mov	lr, sp
	mov.w	r12, #1
	str.w	r12, [lr, #8]
	mov.w	r12, #32
	str.w	r12, [lr, #4]
	mov.w	r12, #0
	str.w	r12, [lr]
	bl	_Z13can_getSignalIfET_13can_Message_thhb
	.loc	14 287 5                        @ ../communication/can/can_simple.cpp:287:5
	ldr	r0, [sp, #36]
	.loc	14 287 10                       @ ../communication/can/can_simple.cpp:287:10
	ldr.w	r0, [r0, #256]
	movw	r1, #14632
	.loc	14 287 22                       @ ../communication/can/can_simple.cpp:287:22
	add	r0, r1
	.loc	14 287 36                       @ ../communication/can/can_simple.cpp:287:36
	vstr	s0, [r0]
	.loc	14 288 1 epilogue_begin is_stmt 1 @ ../communication/can/can_simple.cpp:288:1
	add	sp, #40
	pop	{r7, pc}
.Ltmp106:
.Lfunc_end24:
	.size	_ZN9CANSimple25set_input_torque_callbackER4AxisRK13can_Message_t, .Lfunc_end24-_ZN9CANSimple25set_input_torque_callbackER4AxisRK13can_Message_t
	.cfi_endproc
	.cantunwind
	.fnend
                                        @ -- End function
	.section	.text._ZN9CANSimple29set_controller_modes_callbackER4AxisRK13can_Message_t,"ax",%progbits
	.hidden	_ZN9CANSimple29set_controller_modes_callbackER4AxisRK13can_Message_t @ -- Begin function _ZN9CANSimple29set_controller_modes_callbackER4AxisRK13can_Message_t
	.globl	_ZN9CANSimple29set_controller_modes_callbackER4AxisRK13can_Message_t
	.p2align	2
	.type	_ZN9CANSimple29set_controller_modes_callbackER4AxisRK13can_Message_t,%function
	.code	16                              @ @_ZN9CANSimple29set_controller_modes_callbackER4AxisRK13can_Message_t
	.thumb_func
_ZN9CANSimple29set_controller_modes_callbackER4AxisRK13can_Message_t:
.Lfunc_begin25:
	.loc	14 290 0                        @ ../communication/can/can_simple.cpp:290:0
	.fnstart
	.cfi_startproc
@ %bb.0:
	.save	{r4, lr}
	push	{r4, lr}
	.cfi_def_cfa_offset 8
	.cfi_offset lr, -4
	.cfi_offset r4, -8
	.pad	#64
	sub	sp, #64
	.cfi_def_cfa_offset 72
	str	r0, [sp, #60]
	str	r1, [sp, #56]
.Ltmp107:
	.loc	14 291 102 prologue_end         @ ../communication/can/can_simple.cpp:291:102
	ldr	r3, [sp, #56]
	ldr	r0, [r3]
	ldr	r1, [r3, #4]
	ldr	r2, [r3, #8]
	ldr	r3, [r3, #12]
	str	r3, [sp, #48]
	str	r2, [sp, #44]
	str	r1, [sp, #40]
	str	r0, [sp, #36]
	.loc	14 291 79 is_stmt 0             @ ../communication/can/can_simple.cpp:291:79
	ldr	r0, [sp, #36]
	ldr	r1, [sp, #40]
	ldr	r2, [sp, #44]
	ldr	r3, [sp, #48]
	mov	lr, sp
	movs	r4, #1
	str.w	r4, [lr, #8]
	mov.w	r12, #32
	str.w	r12, [sp, #16]                  @ 4-byte Spill
	str.w	r12, [lr, #4]
	mov.w	r12, #0
	str.w	r12, [lr]
	bl	_Z13can_getSignalIiET_13can_Message_thhb
	ldr.w	r12, [sp, #16]                  @ 4-byte Reload
	.loc	14 291 35                       @ ../communication/can/can_simple.cpp:291:35
	strb.w	r0, [sp, #55]
	.loc	14 292 82 is_stmt 1             @ ../communication/can/can_simple.cpp:292:82
	ldrb.w	r0, [sp, #55]
	.loc	14 292 5 is_stmt 0              @ ../communication/can/can_simple.cpp:292:5
	ldr	r1, [sp, #60]
	.loc	14 292 10                       @ ../communication/can/can_simple.cpp:292:10
	ldr.w	r1, [r1, #256]
	.loc	14 292 43                       @ ../communication/can/can_simple.cpp:292:43
	strb	r0, [r1, #24]
	.loc	14 293 101 is_stmt 1            @ ../communication/can/can_simple.cpp:293:101
	ldr	r3, [sp, #56]
	ldr	r0, [r3]
	ldr	r1, [r3, #4]
	ldr	r2, [r3, #8]
	ldr	r3, [r3, #12]
	str	r3, [sp, #32]
	str	r2, [sp, #28]
	str	r1, [sp, #24]
	str	r0, [sp, #20]
	.loc	14 293 78 is_stmt 0             @ ../communication/can/can_simple.cpp:293:78
	ldr	r0, [sp, #20]
	ldr	r1, [sp, #24]
	ldr	r2, [sp, #28]
	ldr	r3, [sp, #32]
	mov	lr, sp
	str.w	r4, [lr, #8]
	str.w	r12, [lr, #4]
	str.w	r12, [lr]
	bl	_Z13can_getSignalIiET_13can_Message_thhb
	.loc	14 293 5                        @ ../communication/can/can_simple.cpp:293:5
	ldr	r1, [sp, #60]
	.loc	14 293 10                       @ ../communication/can/can_simple.cpp:293:10
	ldr.w	r1, [r1, #256]
	.loc	14 293 41                       @ ../communication/can/can_simple.cpp:293:41
	strb	r0, [r1, #25]
	.loc	14 294 5 is_stmt 1              @ ../communication/can/can_simple.cpp:294:5
	ldr	r0, [sp, #60]
	.loc	14 294 10 is_stmt 0             @ ../communication/can/can_simple.cpp:294:10
	ldr.w	r0, [r0, #256]
	.loc	14 294 22                       @ ../communication/can/can_simple.cpp:294:22
	bl	_ZN10Controller20control_mode_updatedEv
	.loc	14 295 1 epilogue_begin is_stmt 1 @ ../communication/can/can_simple.cpp:295:1
	add	sp, #64
	pop	{r4, pc}
.Ltmp108:
.Lfunc_end25:
	.size	_ZN9CANSimple29set_controller_modes_callbackER4AxisRK13can_Message_t, .Lfunc_end25-_ZN9CANSimple29set_controller_modes_callbackER4AxisRK13can_Message_t
	.cfi_endproc
	.cantunwind
	.fnend
                                        @ -- End function
	.section	.text._ZN9CANSimple19set_limits_callbackER4AxisRK13can_Message_t,"ax",%progbits
	.hidden	_ZN9CANSimple19set_limits_callbackER4AxisRK13can_Message_t @ -- Begin function _ZN9CANSimple19set_limits_callbackER4AxisRK13can_Message_t
	.globl	_ZN9CANSimple19set_limits_callbackER4AxisRK13can_Message_t
	.p2align	2
	.type	_ZN9CANSimple19set_limits_callbackER4AxisRK13can_Message_t,%function
	.code	16                              @ @_ZN9CANSimple19set_limits_callbackER4AxisRK13can_Message_t
	.thumb_func
_ZN9CANSimple19set_limits_callbackER4AxisRK13can_Message_t:
.Lfunc_begin26:
	.loc	14 297 0                        @ ../communication/can/can_simple.cpp:297:0
	.fnstart
	.cfi_startproc
@ %bb.0:
	.save	{r4, lr}
	push	{r4, lr}
	.cfi_def_cfa_offset 8
	.cfi_offset lr, -4
	.cfi_offset r4, -8
	.pad	#56
	sub	sp, #56
	.cfi_def_cfa_offset 64
	str	r0, [sp, #52]
	str	r1, [sp, #48]
.Ltmp109:
	.loc	14 298 63 prologue_end          @ ../communication/can/can_simple.cpp:298:63
	ldr	r3, [sp, #48]
	ldr	r0, [r3]
	ldr	r1, [r3, #4]
	ldr	r2, [r3, #8]
	ldr	r3, [r3, #12]
	str	r3, [sp, #44]
	str	r2, [sp, #40]
	str	r1, [sp, #36]
	str	r0, [sp, #32]
	.loc	14 298 42 is_stmt 0             @ ../communication/can/can_simple.cpp:298:42
	ldr	r0, [sp, #32]
	ldr	r1, [sp, #36]
	ldr	r2, [sp, #40]
	ldr	r3, [sp, #44]
	mov	lr, sp
	movs	r4, #1
	str.w	r4, [lr, #8]
	mov.w	r12, #32
	str.w	r12, [sp, #12]                  @ 4-byte Spill
	str.w	r12, [lr, #4]
	mov.w	r12, #0
	str.w	r12, [lr]
	bl	_Z13can_getSignalIfET_13can_Message_thhb
	ldr.w	r12, [sp, #12]                  @ 4-byte Reload
	.loc	14 298 5                        @ ../communication/can/can_simple.cpp:298:5
	ldr	r0, [sp, #52]
	.loc	14 298 10                       @ ../communication/can/can_simple.cpp:298:10
	ldr.w	r0, [r0, #256]
	.loc	14 298 40                       @ ../communication/can/can_simple.cpp:298:40
	vstr	s0, [r0, #40]
	.loc	14 299 60 is_stmt 1             @ ../communication/can/can_simple.cpp:299:60
	ldr	r3, [sp, #48]
	ldr	r0, [r3]
	ldr	r1, [r3, #4]
	ldr	r2, [r3, #8]
	ldr	r3, [r3, #12]
	str	r3, [sp, #28]
	str	r2, [sp, #24]
	str	r1, [sp, #20]
	str	r0, [sp, #16]
	.loc	14 299 39 is_stmt 0             @ ../communication/can/can_simple.cpp:299:39
	ldr	r0, [sp, #16]
	ldr	r1, [sp, #20]
	ldr	r2, [sp, #24]
	ldr	r3, [sp, #28]
	mov	lr, sp
	str.w	r4, [lr, #8]
	str.w	r12, [lr, #4]
	str.w	r12, [lr]
	bl	_Z13can_getSignalIfET_13can_Message_thhb
	.loc	14 299 5                        @ ../communication/can/can_simple.cpp:299:5
	ldr	r0, [sp, #52]
	.loc	14 299 10                       @ ../communication/can/can_simple.cpp:299:10
	ldr.w	r0, [r0, #344]
	.loc	14 299 37                       @ ../communication/can/can_simple.cpp:299:37
	vstr	s0, [r0, #60]
	.loc	14 300 1 epilogue_begin is_stmt 1 @ ../communication/can/can_simple.cpp:300:1
	add	sp, #56
	pop	{r4, pc}
.Ltmp110:
.Lfunc_end26:
	.size	_ZN9CANSimple19set_limits_callbackER4AxisRK13can_Message_t, .Lfunc_end26-_ZN9CANSimple19set_limits_callbackER4AxisRK13can_Message_t
	.cfi_endproc
	.cantunwind
	.fnend
                                        @ -- End function
	.section	.text._ZN9CANSimple26start_anticogging_callbackERK4AxisRK13can_Message_t,"ax",%progbits
	.hidden	_ZN9CANSimple26start_anticogging_callbackERK4AxisRK13can_Message_t @ -- Begin function _ZN9CANSimple26start_anticogging_callbackERK4AxisRK13can_Message_t
	.globl	_ZN9CANSimple26start_anticogging_callbackERK4AxisRK13can_Message_t
	.p2align	2
	.type	_ZN9CANSimple26start_anticogging_callbackERK4AxisRK13can_Message_t,%function
	.code	16                              @ @_ZN9CANSimple26start_anticogging_callbackERK4AxisRK13can_Message_t
	.thumb_func
_ZN9CANSimple26start_anticogging_callbackERK4AxisRK13can_Message_t:
.Lfunc_begin27:
	.loc	14 302 0                        @ ../communication/can/can_simple.cpp:302:0
	.fnstart
	.cfi_startproc
@ %bb.0:
	.save	{r7, lr}
	push	{r7, lr}
	.cfi_def_cfa_offset 8
	.cfi_offset lr, -4
	.cfi_offset r7, -8
	.pad	#8
	sub	sp, #8
	.cfi_def_cfa_offset 16
	str	r0, [sp, #4]
	str	r1, [sp]
.Ltmp111:
	.loc	14 303 5 prologue_end           @ ../communication/can/can_simple.cpp:303:5
	ldr	r0, [sp, #4]
	.loc	14 303 10 is_stmt 0             @ ../communication/can/can_simple.cpp:303:10
	ldr.w	r0, [r0, #256]
	.loc	14 303 22                       @ ../communication/can/can_simple.cpp:303:22
	ldr	r1, [r0]
	ldr	r1, [r1, #4]
	blx	r1
	.loc	14 304 1 epilogue_begin is_stmt 1 @ ../communication/can/can_simple.cpp:304:1
	add	sp, #8
	pop	{r7, pc}
.Ltmp112:
.Lfunc_end27:
	.size	_ZN9CANSimple26start_anticogging_callbackERK4AxisRK13can_Message_t, .Lfunc_end27-_ZN9CANSimple26start_anticogging_callbackERK4AxisRK13can_Message_t
	.cfi_endproc
	.cantunwind
	.fnend
                                        @ -- End function
	.section	.text._ZN9CANSimple25set_traj_inertia_callbackER4AxisRK13can_Message_t,"ax",%progbits
	.hidden	_ZN9CANSimple25set_traj_inertia_callbackER4AxisRK13can_Message_t @ -- Begin function _ZN9CANSimple25set_traj_inertia_callbackER4AxisRK13can_Message_t
	.globl	_ZN9CANSimple25set_traj_inertia_callbackER4AxisRK13can_Message_t
	.p2align	2
	.type	_ZN9CANSimple25set_traj_inertia_callbackER4AxisRK13can_Message_t,%function
	.code	16                              @ @_ZN9CANSimple25set_traj_inertia_callbackER4AxisRK13can_Message_t
	.thumb_func
_ZN9CANSimple25set_traj_inertia_callbackER4AxisRK13can_Message_t:
.Lfunc_begin28:
	.loc	14 315 0                        @ ../communication/can/can_simple.cpp:315:0
	.fnstart
	.cfi_startproc
@ %bb.0:
	.save	{r7, lr}
	push	{r7, lr}
	.cfi_def_cfa_offset 8
	.cfi_offset lr, -4
	.cfi_offset r7, -8
	.pad	#40
	sub	sp, #40
	.cfi_def_cfa_offset 48
	str	r0, [sp, #36]
	str	r1, [sp, #32]
.Ltmp113:
	.loc	14 316 61 prologue_end          @ ../communication/can/can_simple.cpp:316:61
	ldr	r3, [sp, #32]
	ldr	r0, [r3]
	ldr	r1, [r3, #4]
	ldr	r2, [r3, #8]
	ldr	r3, [r3, #12]
	str	r3, [sp, #28]
	str	r2, [sp, #24]
	str	r1, [sp, #20]
	str	r0, [sp, #16]
	.loc	14 316 40 is_stmt 0             @ ../communication/can/can_simple.cpp:316:40
	ldr	r0, [sp, #16]
	ldr	r1, [sp, #20]
	ldr	r2, [sp, #24]
	ldr	r3, [sp, #28]
	mov	lr, sp
	mov.w	r12, #1
	str.w	r12, [lr, #8]
	mov.w	r12, #32
	str.w	r12, [lr, #4]
	mov.w	r12, #0
	str.w	r12, [lr]
	bl	_Z13can_getSignalIfET_13can_Message_thhb
	.loc	14 316 5                        @ ../communication/can/can_simple.cpp:316:5
	ldr	r0, [sp, #36]
	.loc	14 316 10                       @ ../communication/can/can_simple.cpp:316:10
	ldr.w	r0, [r0, #256]
	.loc	14 316 38                       @ ../communication/can/can_simple.cpp:316:38
	vstr	s0, [r0, #72]
	.loc	14 317 1 epilogue_begin is_stmt 1 @ ../communication/can/can_simple.cpp:317:1
	add	sp, #40
	pop	{r7, pc}
.Ltmp114:
.Lfunc_end28:
	.size	_ZN9CANSimple25set_traj_inertia_callbackER4AxisRK13can_Message_t, .Lfunc_end28-_ZN9CANSimple25set_traj_inertia_callbackER4AxisRK13can_Message_t
	.cfi_endproc
	.cantunwind
	.fnend
                                        @ -- End function
	.section	.text._ZN9CANSimple30set_traj_accel_limits_callbackER4AxisRK13can_Message_t,"ax",%progbits
	.hidden	_ZN9CANSimple30set_traj_accel_limits_callbackER4AxisRK13can_Message_t @ -- Begin function _ZN9CANSimple30set_traj_accel_limits_callbackER4AxisRK13can_Message_t
	.globl	_ZN9CANSimple30set_traj_accel_limits_callbackER4AxisRK13can_Message_t
	.p2align	2
	.type	_ZN9CANSimple30set_traj_accel_limits_callbackER4AxisRK13can_Message_t,%function
	.code	16                              @ @_ZN9CANSimple30set_traj_accel_limits_callbackER4AxisRK13can_Message_t
	.thumb_func
_ZN9CANSimple30set_traj_accel_limits_callbackER4AxisRK13can_Message_t:
.Lfunc_begin29:
	.loc	14 310 0                        @ ../communication/can/can_simple.cpp:310:0
	.fnstart
	.cfi_startproc
@ %bb.0:
	.save	{r4, lr}
	push	{r4, lr}
	.cfi_def_cfa_offset 8
	.cfi_offset lr, -4
	.cfi_offset r4, -8
	.pad	#56
	sub	sp, #56
	.cfi_def_cfa_offset 64
	str	r0, [sp, #52]
	str	r1, [sp, #48]
.Ltmp115:
	.loc	14 311 64 prologue_end          @ ../communication/can/can_simple.cpp:311:64
	ldr	r3, [sp, #48]
	ldr	r0, [r3]
	ldr	r1, [r3, #4]
	ldr	r2, [r3, #8]
	ldr	r3, [r3, #12]
	str	r3, [sp, #44]
	str	r2, [sp, #40]
	str	r1, [sp, #36]
	str	r0, [sp, #32]
	.loc	14 311 43 is_stmt 0             @ ../communication/can/can_simple.cpp:311:43
	ldr	r0, [sp, #32]
	ldr	r1, [sp, #36]
	ldr	r2, [sp, #40]
	ldr	r3, [sp, #44]
	mov	lr, sp
	movs	r4, #1
	str.w	r4, [lr, #8]
	mov.w	r12, #32
	str.w	r12, [sp, #12]                  @ 4-byte Spill
	str.w	r12, [lr, #4]
	mov.w	r12, #0
	str.w	r12, [lr]
	bl	_Z13can_getSignalIfET_13can_Message_thhb
	ldr.w	r12, [sp, #12]                  @ 4-byte Reload
	.loc	14 311 5                        @ ../communication/can/can_simple.cpp:311:5
	ldr	r0, [sp, #52]
	.loc	14 311 10                       @ ../communication/can/can_simple.cpp:311:10
	ldr.w	r0, [r0, #348]
	.loc	14 311 41                       @ ../communication/can/can_simple.cpp:311:41
	vstr	s0, [r0, #8]
	.loc	14 312 64 is_stmt 1             @ ../communication/can/can_simple.cpp:312:64
	ldr	r3, [sp, #48]
	ldr	r0, [r3]
	ldr	r1, [r3, #4]
	ldr	r2, [r3, #8]
	ldr	r3, [r3, #12]
	str	r3, [sp, #28]
	str	r2, [sp, #24]
	str	r1, [sp, #20]
	str	r0, [sp, #16]
	.loc	14 312 43 is_stmt 0             @ ../communication/can/can_simple.cpp:312:43
	ldr	r0, [sp, #16]
	ldr	r1, [sp, #20]
	ldr	r2, [sp, #24]
	ldr	r3, [sp, #28]
	mov	lr, sp
	str.w	r4, [lr, #8]
	str.w	r12, [lr, #4]
	str.w	r12, [lr]
	bl	_Z13can_getSignalIfET_13can_Message_thhb
	.loc	14 312 5                        @ ../communication/can/can_simple.cpp:312:5
	ldr	r0, [sp, #52]
	.loc	14 312 10                       @ ../communication/can/can_simple.cpp:312:10
	ldr.w	r0, [r0, #348]
	.loc	14 312 41                       @ ../communication/can/can_simple.cpp:312:41
	vstr	s0, [r0, #12]
	.loc	14 313 1 epilogue_begin is_stmt 1 @ ../communication/can/can_simple.cpp:313:1
	add	sp, #56
	pop	{r4, pc}
.Ltmp116:
.Lfunc_end29:
	.size	_ZN9CANSimple30set_traj_accel_limits_callbackER4AxisRK13can_Message_t, .Lfunc_end29-_ZN9CANSimple30set_traj_accel_limits_callbackER4AxisRK13can_Message_t
	.cfi_endproc
	.cantunwind
	.fnend
                                        @ -- End function
	.section	.text._ZN9CANSimple27set_traj_vel_limit_callbackER4AxisRK13can_Message_t,"ax",%progbits
	.hidden	_ZN9CANSimple27set_traj_vel_limit_callbackER4AxisRK13can_Message_t @ -- Begin function _ZN9CANSimple27set_traj_vel_limit_callbackER4AxisRK13can_Message_t
	.globl	_ZN9CANSimple27set_traj_vel_limit_callbackER4AxisRK13can_Message_t
	.p2align	2
	.type	_ZN9CANSimple27set_traj_vel_limit_callbackER4AxisRK13can_Message_t,%function
	.code	16                              @ @_ZN9CANSimple27set_traj_vel_limit_callbackER4AxisRK13can_Message_t
	.thumb_func
_ZN9CANSimple27set_traj_vel_limit_callbackER4AxisRK13can_Message_t:
.Lfunc_begin30:
	.loc	14 306 0                        @ ../communication/can/can_simple.cpp:306:0
	.fnstart
	.cfi_startproc
@ %bb.0:
	.save	{r7, lr}
	push	{r7, lr}
	.cfi_def_cfa_offset 8
	.cfi_offset lr, -4
	.cfi_offset r7, -8
	.pad	#40
	sub	sp, #40
	.cfi_def_cfa_offset 48
	str	r0, [sp, #36]
	str	r1, [sp, #32]
.Ltmp117:
	.loc	14 307 62 prologue_end          @ ../communication/can/can_simple.cpp:307:62
	ldr	r3, [sp, #32]
	ldr	r0, [r3]
	ldr	r1, [r3, #4]
	ldr	r2, [r3, #8]
	ldr	r3, [r3, #12]
	str	r3, [sp, #28]
	str	r2, [sp, #24]
	str	r1, [sp, #20]
	str	r0, [sp, #16]
	.loc	14 307 41 is_stmt 0             @ ../communication/can/can_simple.cpp:307:41
	ldr	r0, [sp, #16]
	ldr	r1, [sp, #20]
	ldr	r2, [sp, #24]
	ldr	r3, [sp, #28]
	mov	lr, sp
	mov.w	r12, #1
	str.w	r12, [lr, #8]
	mov.w	r12, #32
	str.w	r12, [lr, #4]
	mov.w	r12, #0
	str.w	r12, [lr]
	bl	_Z13can_getSignalIfET_13can_Message_thhb
	.loc	14 307 5                        @ ../communication/can/can_simple.cpp:307:5
	ldr	r0, [sp, #36]
	.loc	14 307 10                       @ ../communication/can/can_simple.cpp:307:10
	ldr.w	r0, [r0, #348]
	.loc	14 307 39                       @ ../communication/can/can_simple.cpp:307:39
	vstr	s0, [r0, #4]
	.loc	14 308 1 epilogue_begin is_stmt 1 @ ../communication/can/can_simple.cpp:308:1
	add	sp, #40
	pop	{r7, pc}
.Ltmp118:
.Lfunc_end30:
	.size	_ZN9CANSimple27set_traj_vel_limit_callbackER4AxisRK13can_Message_t, .Lfunc_end30-_ZN9CANSimple27set_traj_vel_limit_callbackER4AxisRK13can_Message_t
	.cfi_endproc
	.cantunwind
	.fnend
                                        @ -- End function
	.section	.text._ZN9CANSimple15get_iq_callbackERK4Axis,"ax",%progbits
	.hidden	_ZN9CANSimple15get_iq_callbackERK4Axis @ -- Begin function _ZN9CANSimple15get_iq_callbackERK4Axis
	.globl	_ZN9CANSimple15get_iq_callbackERK4Axis
	.p2align	2
	.type	_ZN9CANSimple15get_iq_callbackERK4Axis,%function
	.code	16                              @ @_ZN9CANSimple15get_iq_callbackERK4Axis
	.thumb_func
_ZN9CANSimple15get_iq_callbackERK4Axis:
.Lfunc_begin31:
	.loc	14 332 0                        @ ../communication/can/can_simple.cpp:332:0
	.fnstart
	.cfi_startproc
@ %bb.0:
	.save	{r7, lr}
	push	{r7, lr}
	.cfi_def_cfa_offset 8
	.cfi_offset lr, -4
	.cfi_offset r7, -8
	.pad	#80
	sub	sp, #80
	.cfi_def_cfa_offset 88
	str	r0, [sp, #76]
	str	r1, [sp, #72]
	ldr	r0, [sp, #76]
.Ltmp119:
	.loc	14 333 19 prologue_end          @ ../communication/can/can_simple.cpp:333:19
	str	r0, [sp, #24]                   @ 4-byte Spill
	add	r0, sp, #56
	bl	_ZN13can_Message_tC2Ev
	.loc	14 334 16                       @ ../communication/can/can_simple.cpp:334:16
	ldr	r0, [sp, #72]
	.loc	14 334 33 is_stmt 0             @ ../communication/can/can_simple.cpp:334:33
	ldr	r0, [r0, #120]
	.loc	14 334 41                       @ ../communication/can/can_simple.cpp:334:41
	lsls	r0, r0, #5
	.loc	14 334 14                       @ ../communication/can/can_simple.cpp:334:14
	str	r0, [sp, #56]
	.loc	14 335 14 is_stmt 1             @ ../communication/can/can_simple.cpp:335:14
	ldr	r0, [sp, #56]
	adds	r0, #20
	str	r0, [sp, #56]
	.loc	14 336 19                       @ ../communication/can/can_simple.cpp:336:19
	ldr	r0, [sp, #72]
	.loc	14 336 36 is_stmt 0             @ ../communication/can/can_simple.cpp:336:36
	ldrb.w	r0, [r0, #124]
	.loc	14 336 17                       @ ../communication/can/can_simple.cpp:336:17
	and	r0, r0, #1
	strb.w	r0, [sp, #60]
	movs	r0, #8
	.loc	14 337 15 is_stmt 1             @ ../communication/can/can_simple.cpp:337:15
	strb.w	r0, [sp, #62]
	.loc	14 339 43                       @ ../communication/can/can_simple.cpp:339:43
	ldr	r0, [sp, #72]
	.loc	14 339 48 is_stmt 0             @ ../communication/can/can_simple.cpp:339:48
	ldr.w	r2, [r0, #344]
	.loc	14 339 43                       @ ../communication/can/can_simple.cpp:339:43
	ldr.w	r0, [r2, #284]
	ldr.w	r1, [r2, #288]
	ldr.w	r2, [r2, #292]
	str	r2, [sp, #52]
	str	r1, [sp, #48]
	str	r0, [sp, #44]
	add	r0, sp, #44
.Ltmp120:
	.loc	14 340 23 is_stmt 1             @ ../communication/can/can_simple.cpp:340:23
	bl	_ZNKSt3__223__optional_storage_baseINS_4pairIffEELb0EE9has_valueB7v180000Ev
.Ltmp121:
	.loc	14 340 9 is_stmt 0              @ ../communication/can/can_simple.cpp:340:9
	cbnz	r0, .LBB31_2
	b	.LBB31_1
.LBB31_1:
	.loc	14 0 9                          @ ../communication/can/can_simple.cpp:0:9
	movs	r0, #0
.Ltmp122:
	.loc	14 341 25 is_stmt 1             @ ../communication/can/can_simple.cpp:341:25
	str	r0, [sp, #32]
	.loc	14 341 31 is_stmt 0             @ ../communication/can/can_simple.cpp:341:31
	str	r0, [sp, #28]
	add	r0, sp, #36
	str	r0, [sp, #20]                   @ 4-byte Spill
	add	r1, sp, #32
	add	r2, sp, #28
	.loc	14 341 24                       @ ../communication/can/can_simple.cpp:341:24
	bl	_ZNSt3__24pairIffEC2B7v180000IffLi0EEEOT_OT0_
	ldr	r1, [sp, #20]                   @ 4-byte Reload
	add	r0, sp, #44
	.loc	14 341 22                       @ ../communication/can/can_simple.cpp:341:22
	bl	_ZNSt3__28optionalINS_4pairIffEEEaSB7v180000IS2_vEERS3_OT_
	.loc	14 342 5 is_stmt 1              @ ../communication/can/can_simple.cpp:342:5
	b	.LBB31_2
.Ltmp123:
.LBB31_2:
	.loc	14 0 5 is_stmt 0                @ ../communication/can/can_simple.cpp:0:5
	add	r0, sp, #44
	.loc	14 346 33 is_stmt 1             @ ../communication/can/can_simple.cpp:346:33
	bl	_ZNSt3__28optionalINS_4pairIffEEEptB7v180000Ev
	.loc	14 346 47 is_stmt 0             @ ../communication/can/can_simple.cpp:346:47
	adds	r1, r0, #4
	.loc	14 346 5                        @ ../communication/can/can_simple.cpp:346:5
	mov	r2, sp
	movs	r0, #1
	str	r0, [sp, #8]                    @ 4-byte Spill
	str	r0, [r2]
	add	r0, sp, #56
	str	r0, [sp, #16]                   @ 4-byte Spill
	movs	r2, #0
	movs	r3, #32
	str	r3, [sp, #12]                   @ 4-byte Spill
	bl	_Z13can_setSignalIfEvR13can_Message_tRKT_hhb
	ldr	r2, [sp, #8]                    @ 4-byte Reload
	ldr	r3, [sp, #12]                   @ 4-byte Reload
	ldr	r0, [sp, #16]                   @ 4-byte Reload
	.loc	14 347 33 is_stmt 1             @ ../communication/can/can_simple.cpp:347:33
	ldr	r1, [sp, #72]
	.loc	14 347 38 is_stmt 0             @ ../communication/can/can_simple.cpp:347:38
	ldr.w	r1, [r1, #344]
	.loc	14 347 62                       @ ../communication/can/can_simple.cpp:347:62
	add.w	r1, r1, #352
	.loc	14 347 5                        @ ../communication/can/can_simple.cpp:347:5
	mov	r12, sp
	str.w	r2, [r12]
	mov	r2, r3
	bl	_Z13can_setSignalIfEvR13can_Message_tRKT_hhb
	ldr	r0, [sp, #24]                   @ 4-byte Reload
	ldr	r1, [sp, #16]                   @ 4-byte Reload
	.loc	14 349 12 is_stmt 1             @ ../communication/can/can_simple.cpp:349:12
	ldr	r0, [r0]
	.loc	14 349 21 is_stmt 0             @ ../communication/can/can_simple.cpp:349:21
	ldr	r2, [r0]
	ldr	r2, [r2]
	blx	r2
	.loc	14 349 5 epilogue_begin         @ ../communication/can/can_simple.cpp:349:5
	add	sp, #80
	pop	{r7, pc}
.Ltmp124:
.Lfunc_end31:
	.size	_ZN9CANSimple15get_iq_callbackERK4Axis, .Lfunc_end31-_ZN9CANSimple15get_iq_callbackERK4Axis
	.cfi_endproc
	.cantunwind
	.fnend
                                        @ -- End function
	.section	.text._ZN9CANSimple33get_sensorless_estimates_callbackERK4Axis,"ax",%progbits
	.hidden	_ZN9CANSimple33get_sensorless_estimates_callbackERK4Axis @ -- Begin function _ZN9CANSimple33get_sensorless_estimates_callbackERK4Axis
	.globl	_ZN9CANSimple33get_sensorless_estimates_callbackERK4Axis
	.p2align	2
	.type	_ZN9CANSimple33get_sensorless_estimates_callbackERK4Axis,%function
	.code	16                              @ @_ZN9CANSimple33get_sensorless_estimates_callbackERK4Axis
	.thumb_func
_ZN9CANSimple33get_sensorless_estimates_callbackERK4Axis:
.Lfunc_begin32:
	.loc	14 247 0 is_stmt 1              @ ../communication/can/can_simple.cpp:247:0
	.fnstart
	.cfi_startproc
@ %bb.0:
	.save	{r7, lr}
	push	{r7, lr}
	.cfi_def_cfa_offset 8
	.cfi_offset lr, -4
	.cfi_offset r7, -8
	.pad	#72
	sub	sp, #72
	.cfi_def_cfa_offset 80
	str	r0, [sp, #68]
	str	r1, [sp, #64]
	ldr	r0, [sp, #68]
.Ltmp125:
	.loc	14 248 19 prologue_end          @ ../communication/can/can_simple.cpp:248:19
	str	r0, [sp, #24]                   @ 4-byte Spill
	add	r0, sp, #48
	str	r0, [sp, #28]                   @ 4-byte Spill
	bl	_ZN13can_Message_tC2Ev
	ldr	r0, [sp, #28]                   @ 4-byte Reload
	.loc	14 249 16                       @ ../communication/can/can_simple.cpp:249:16
	ldr	r1, [sp, #64]
	.loc	14 249 33 is_stmt 0             @ ../communication/can/can_simple.cpp:249:33
	ldr	r1, [r1, #120]
	.loc	14 249 41                       @ ../communication/can/can_simple.cpp:249:41
	lsls	r1, r1, #5
	.loc	14 249 14                       @ ../communication/can/can_simple.cpp:249:14
	str	r1, [sp, #48]
	.loc	14 250 14 is_stmt 1             @ ../communication/can/can_simple.cpp:250:14
	ldr	r1, [sp, #48]
	adds	r1, #21
	str	r1, [sp, #48]
	.loc	14 251 19                       @ ../communication/can/can_simple.cpp:251:19
	ldr	r1, [sp, #64]
	.loc	14 251 36 is_stmt 0             @ ../communication/can/can_simple.cpp:251:36
	ldrb.w	r1, [r1, #124]
	.loc	14 251 17                       @ ../communication/can/can_simple.cpp:251:17
	and	r1, r1, #1
	strb.w	r1, [sp, #52]
	movs	r1, #8
	.loc	14 252 15 is_stmt 1             @ ../communication/can/can_simple.cpp:252:15
	strb.w	r1, [sp, #54]
	.loc	14 256 33                       @ ../communication/can/can_simple.cpp:256:33
	ldr	r1, [sp, #64]
	.loc	14 256 38 is_stmt 0             @ ../communication/can/can_simple.cpp:256:38
	ldr.w	r1, [r1, #252]
	.loc	14 256 60                       @ ../communication/can/can_simple.cpp:256:60
	adds	r1, #20
	.loc	14 256 5                        @ ../communication/can/can_simple.cpp:256:5
	mov	r3, sp
	movs	r2, #1
	str	r2, [sp, #16]                   @ 4-byte Spill
	str	r2, [r3]
	movs	r2, #0
	str	r2, [sp, #8]                    @ 4-byte Spill
	movs	r3, #32
	str	r3, [sp, #20]                   @ 4-byte Spill
	bl	_Z13can_setSignalIfEvR13can_Message_tRKT_hhb
	.loc	14 257 33 is_stmt 1             @ ../communication/can/can_simple.cpp:257:33
	ldr	r0, [sp, #64]
	.loc	14 257 38 is_stmt 0             @ ../communication/can/can_simple.cpp:257:38
	ldr.w	r0, [r0, #252]
	.loc	14 257 60                       @ ../communication/can/can_simple.cpp:257:60
	add.w	r1, r0, #56
	add	r0, sp, #36
	.loc	14 257 74                       @ ../communication/can/can_simple.cpp:257:74
	str	r0, [sp, #12]                   @ 4-byte Spill
	bl	_ZN10OutputPortIfE3anyEv
	ldr	r1, [sp, #8]                    @ 4-byte Reload
	ldr	r0, [sp, #12]                   @ 4-byte Reload
	.loc	14 257 89                       @ ../communication/can/can_simple.cpp:257:89
	str	r1, [sp, #32]
	add	r1, sp, #32
	.loc	14 257 80                       @ ../communication/can/can_simple.cpp:257:80
	bl	_ZNOSt3__28optionalIfE8value_orB7v180000IfEEfOT_
	ldr	r1, [sp, #16]                   @ 4-byte Reload
	ldr	r3, [sp, #20]                   @ 4-byte Reload
	ldr	r0, [sp, #28]                   @ 4-byte Reload
	.loc	14 257 33                       @ ../communication/can/can_simple.cpp:257:33
	vstr	s0, [sp, #44]
	.loc	14 257 5                        @ ../communication/can/can_simple.cpp:257:5
	mov	r2, sp
	str	r1, [r2]
	add	r1, sp, #44
	mov	r2, r3
	bl	_Z13can_setSignalIfEvR13can_Message_tRKT_hhb
	ldr	r0, [sp, #24]                   @ 4-byte Reload
	ldr	r1, [sp, #28]                   @ 4-byte Reload
	.loc	14 259 12 is_stmt 1             @ ../communication/can/can_simple.cpp:259:12
	ldr	r0, [r0]
	.loc	14 259 21 is_stmt 0             @ ../communication/can/can_simple.cpp:259:21
	ldr	r2, [r0]
	ldr	r2, [r2]
	blx	r2
	.loc	14 259 5 epilogue_begin         @ ../communication/can/can_simple.cpp:259:5
	add	sp, #72
	pop	{r7, pc}
.Ltmp126:
.Lfunc_end32:
	.size	_ZN9CANSimple33get_sensorless_estimates_callbackERK4Axis, .Lfunc_end32-_ZN9CANSimple33get_sensorless_estimates_callbackERK4Axis
	.cfi_endproc
	.cantunwind
	.fnend
                                        @ -- End function
	.section	.text._ZL18__NVIC_SystemResetv,"ax",%progbits
	.p2align	2                               @ -- Begin function _ZL18__NVIC_SystemResetv
	.type	_ZL18__NVIC_SystemResetv,%function
	.code	16                              @ @_ZL18__NVIC_SystemResetv
	.thumb_func
_ZL18__NVIC_SystemResetv:
.Lfunc_begin33:
	.fnstart
	.cfi_startproc
@ %bb.0:
	.loc	9 1941 3 prologue_end is_stmt 1 @ ../ThirdParty/CMSIS/Include\core_cm4.h:1941:3
	dsb	sy
	movw	r1, #60684
	movt	r1, #57344
	.loc	9 1944 34                       @ ../ThirdParty/CMSIS/Include\core_cm4.h:1944:34
	ldr	r0, [r1]
	.loc	9 1944 40 is_stmt 0             @ ../ThirdParty/CMSIS/Include\core_cm4.h:1944:40
	and	r0, r0, #1792
	movs	r2, #4
	movt	r2, #1530
	.loc	9 1944 66                       @ ../ThirdParty/CMSIS/Include\core_cm4.h:1944:66
	orrs	r0, r2
	.loc	9 1943 15 is_stmt 1             @ ../ThirdParty/CMSIS/Include\core_cm4.h:1943:15
	str	r0, [r1]
	.loc	9 1946 3                        @ ../ThirdParty/CMSIS/Include\core_cm4.h:1946:3
	dsb	sy
	.loc	9 1948 3                        @ ../ThirdParty/CMSIS/Include\core_cm4.h:1948:3
	b	.LBB33_1
.LBB33_1:                               @ =>This Inner Loop Header: Depth=1
.Ltmp127:
	.loc	9 1950 5                        @ ../ThirdParty/CMSIS/Include\core_cm4.h:1950:5
	nop
.Ltmp128:
	.loc	9 1948 3                        @ ../ThirdParty/CMSIS/Include\core_cm4.h:1948:3
	b	.LBB33_1
.Ltmp129:
.Lfunc_end33:
	.size	_ZL18__NVIC_SystemResetv, .Lfunc_end33-_ZL18__NVIC_SystemResetv
	.cfi_endproc
	.cantunwind
	.fnend
                                        @ -- End function
	.section	.text._ZN9CANSimple32get_bus_voltage_current_callbackERK4Axis,"ax",%progbits
	.hidden	_ZN9CANSimple32get_bus_voltage_current_callbackERK4Axis @ -- Begin function _ZN9CANSimple32get_bus_voltage_current_callbackERK4Axis
	.globl	_ZN9CANSimple32get_bus_voltage_current_callbackERK4Axis
	.p2align	2
	.type	_ZN9CANSimple32get_bus_voltage_current_callbackERK4Axis,%function
	.code	16                              @ @_ZN9CANSimple32get_bus_voltage_current_callbackERK4Axis
	.thumb_func
_ZN9CANSimple32get_bus_voltage_current_callbackERK4Axis:
.Lfunc_begin34:
	.loc	14 352 0                        @ ../communication/can/can_simple.cpp:352:0
	.fnstart
	.cfi_startproc
@ %bb.0:
	.save	{r7, lr}
	push	{r7, lr}
	.cfi_def_cfa_offset 8
	.cfi_offset lr, -4
	.cfi_offset r7, -8
	.pad	#48
	sub	sp, #48
	.cfi_def_cfa_offset 56
	str	r0, [sp, #44]
	str	r1, [sp, #40]
	ldr	r0, [sp, #44]
.Ltmp130:
	.loc	14 353 19 prologue_end          @ ../communication/can/can_simple.cpp:353:19
	str	r0, [sp, #16]                   @ 4-byte Spill
	add	r0, sp, #24
	str	r0, [sp, #20]                   @ 4-byte Spill
	bl	_ZN13can_Message_tC2Ev
	ldr	r0, [sp, #20]                   @ 4-byte Reload
	.loc	14 355 16                       @ ../communication/can/can_simple.cpp:355:16
	ldr	r1, [sp, #40]
	.loc	14 355 33 is_stmt 0             @ ../communication/can/can_simple.cpp:355:33
	ldr	r1, [r1, #120]
	.loc	14 355 41                       @ ../communication/can/can_simple.cpp:355:41
	lsls	r1, r1, #5
	.loc	14 355 14                       @ ../communication/can/can_simple.cpp:355:14
	str	r1, [sp, #24]
	.loc	14 356 14 is_stmt 1             @ ../communication/can/can_simple.cpp:356:14
	ldr	r1, [sp, #24]
	adds	r1, #23
	str	r1, [sp, #24]
	.loc	14 357 19                       @ ../communication/can/can_simple.cpp:357:19
	ldr	r1, [sp, #40]
	.loc	14 357 36 is_stmt 0             @ ../communication/can/can_simple.cpp:357:36
	ldrb.w	r1, [r1, #124]
	.loc	14 357 17                       @ ../communication/can/can_simple.cpp:357:17
	and	r1, r1, #1
	strb.w	r1, [sp, #28]
	movs	r1, #8
	.loc	14 358 15 is_stmt 1             @ ../communication/can/can_simple.cpp:358:15
	strb.w	r1, [sp, #30]
	.loc	14 362 5                        @ ../communication/can/can_simple.cpp:362:5
	mov	r2, sp
	movs	r1, #1
	str	r1, [sp, #8]                    @ 4-byte Spill
	str	r1, [r2]
	movw	r1, :lower16:vbus_voltage
	movt	r1, :upper16:vbus_voltage
	movs	r2, #0
	movs	r3, #32
	str	r3, [sp, #12]                   @ 4-byte Spill
	bl	_Z13can_setSignalIfEvR13can_Message_tRKT_hhb
	ldr	r1, [sp, #8]                    @ 4-byte Reload
	ldr	r3, [sp, #12]                   @ 4-byte Reload
	ldr	r0, [sp, #20]                   @ 4-byte Reload
	.loc	14 363 5                        @ ../communication/can/can_simple.cpp:363:5
	mov	r2, sp
	str	r1, [r2]
	movw	r1, :lower16:ibus_
	movt	r1, :upper16:ibus_
	mov	r2, r3
	bl	_Z13can_setSignalIfEvR13can_Message_tRKT_hhb
	ldr	r0, [sp, #16]                   @ 4-byte Reload
	ldr	r1, [sp, #20]                   @ 4-byte Reload
	.loc	14 365 12                       @ ../communication/can/can_simple.cpp:365:12
	ldr	r0, [r0]
	.loc	14 365 21 is_stmt 0             @ ../communication/can/can_simple.cpp:365:21
	ldr	r2, [r0]
	ldr	r2, [r2]
	blx	r2
	.loc	14 365 5 epilogue_begin         @ ../communication/can/can_simple.cpp:365:5
	add	sp, #48
	pop	{r7, pc}
.Ltmp131:
.Lfunc_end34:
	.size	_ZN9CANSimple32get_bus_voltage_current_callbackERK4Axis, .Lfunc_end34-_ZN9CANSimple32get_bus_voltage_current_callbackERK4Axis
	.cfi_endproc
	.cantunwind
	.fnend
                                        @ -- End function
	.section	.text._ZN9CANSimple21clear_errors_callbackER4AxisRK13can_Message_t,"ax",%progbits
	.hidden	_ZN9CANSimple21clear_errors_callbackER4AxisRK13can_Message_t @ -- Begin function _ZN9CANSimple21clear_errors_callbackER4AxisRK13can_Message_t
	.globl	_ZN9CANSimple21clear_errors_callbackER4AxisRK13can_Message_t
	.p2align	2
	.type	_ZN9CANSimple21clear_errors_callbackER4AxisRK13can_Message_t,%function
	.code	16                              @ @_ZN9CANSimple21clear_errors_callbackER4AxisRK13can_Message_t
	.thumb_func
_ZN9CANSimple21clear_errors_callbackER4AxisRK13can_Message_t:
.Lfunc_begin35:
	.loc	14 386 0 is_stmt 1              @ ../communication/can/can_simple.cpp:386:0
	.fnstart
	.cfi_startproc
@ %bb.0:
	.save	{r7, lr}
	push	{r7, lr}
	.cfi_def_cfa_offset 8
	.cfi_offset lr, -4
	.cfi_offset r7, -8
	.pad	#8
	sub	sp, #8
	.cfi_def_cfa_offset 16
	str	r0, [sp, #4]
	str	r1, [sp]
.Ltmp132:
	.loc	14 387 10 prologue_end          @ ../communication/can/can_simple.cpp:387:10
	movw	r0, :lower16:odrv
	movt	r0, :upper16:odrv
	bl	_ZN6ODrive12clear_errorsEv
	.loc	14 388 1 epilogue_begin         @ ../communication/can/can_simple.cpp:388:1
	add	sp, #8
	pop	{r7, pc}
.Ltmp133:
.Lfunc_end35:
	.size	_ZN9CANSimple21clear_errors_callbackER4AxisRK13can_Message_t, .Lfunc_end35-_ZN9CANSimple21clear_errors_callbackER4AxisRK13can_Message_t
	.cfi_endproc
	.cantunwind
	.fnend
                                        @ -- End function
	.section	.text._ZN9CANSimple25set_linear_count_callbackER4AxisRK13can_Message_t,"ax",%progbits
	.hidden	_ZN9CANSimple25set_linear_count_callbackER4AxisRK13can_Message_t @ -- Begin function _ZN9CANSimple25set_linear_count_callbackER4AxisRK13can_Message_t
	.globl	_ZN9CANSimple25set_linear_count_callbackER4AxisRK13can_Message_t
	.p2align	2
	.type	_ZN9CANSimple25set_linear_count_callbackER4AxisRK13can_Message_t,%function
	.code	16                              @ @_ZN9CANSimple25set_linear_count_callbackER4AxisRK13can_Message_t
	.thumb_func
_ZN9CANSimple25set_linear_count_callbackER4AxisRK13can_Message_t:
.Lfunc_begin36:
	.loc	14 319 0                        @ ../communication/can/can_simple.cpp:319:0
	.fnstart
	.cfi_startproc
@ %bb.0:
	.save	{r7, lr}
	push	{r7, lr}
	.cfi_def_cfa_offset 8
	.cfi_offset lr, -4
	.cfi_offset r7, -8
	.pad	#40
	sub	sp, #40
	.cfi_def_cfa_offset 48
	str	r0, [sp, #36]
	str	r1, [sp, #32]
.Ltmp134:
	.loc	14 320 5 prologue_end           @ ../communication/can/can_simple.cpp:320:5
	ldr	r0, [sp, #36]
	.loc	14 320 10 is_stmt 0             @ ../communication/can/can_simple.cpp:320:10
	ldr.w	r0, [r0, #172]
	.loc	14 320 59                       @ ../communication/can/can_simple.cpp:320:59
	str	r0, [sp, #12]                   @ 4-byte Spill
	ldr	r3, [sp, #32]
	ldr	r0, [r3]
	ldr	r1, [r3, #4]
	ldr	r2, [r3, #8]
	ldr	r3, [r3, #12]
	str	r3, [sp, #28]
	str	r2, [sp, #24]
	str	r1, [sp, #20]
	str	r0, [sp, #16]
	.loc	14 320 36                       @ ../communication/can/can_simple.cpp:320:36
	ldr	r0, [sp, #16]
	ldr	r1, [sp, #20]
	ldr	r2, [sp, #24]
	ldr	r3, [sp, #28]
	mov	lr, sp
	mov.w	r12, #1
	str.w	r12, [lr, #8]
	mov.w	r12, #32
	str.w	r12, [lr, #4]
	mov.w	r12, #0
	str.w	r12, [lr]
	bl	_Z13can_getSignalIiET_13can_Message_thhb
	mov	r1, r0
	.loc	14 320 19                       @ ../communication/can/can_simple.cpp:320:19
	ldr	r0, [sp, #12]                   @ 4-byte Reload
	ldr	r2, [r0]
	ldr	r2, [r2]
	blx	r2
	.loc	14 321 1 epilogue_begin is_stmt 1 @ ../communication/can/can_simple.cpp:321:1
	add	sp, #40
	pop	{r7, pc}
.Ltmp135:
.Lfunc_end36:
	.size	_ZN9CANSimple25set_linear_count_callbackER4AxisRK13can_Message_t, .Lfunc_end36-_ZN9CANSimple25set_linear_count_callbackER4AxisRK13can_Message_t
	.cfi_endproc
	.cantunwind
	.fnend
                                        @ -- End function
	.section	.text._ZN9CANSimple21set_pos_gain_callbackER4AxisRK13can_Message_t,"ax",%progbits
	.hidden	_ZN9CANSimple21set_pos_gain_callbackER4AxisRK13can_Message_t @ -- Begin function _ZN9CANSimple21set_pos_gain_callbackER4AxisRK13can_Message_t
	.globl	_ZN9CANSimple21set_pos_gain_callbackER4AxisRK13can_Message_t
	.p2align	2
	.type	_ZN9CANSimple21set_pos_gain_callbackER4AxisRK13can_Message_t,%function
	.code	16                              @ @_ZN9CANSimple21set_pos_gain_callbackER4AxisRK13can_Message_t
	.thumb_func
_ZN9CANSimple21set_pos_gain_callbackER4AxisRK13can_Message_t:
.Lfunc_begin37:
	.loc	14 323 0                        @ ../communication/can/can_simple.cpp:323:0
	.fnstart
	.cfi_startproc
@ %bb.0:
	.save	{r7, lr}
	push	{r7, lr}
	.cfi_def_cfa_offset 8
	.cfi_offset lr, -4
	.cfi_offset r7, -8
	.pad	#40
	sub	sp, #40
	.cfi_def_cfa_offset 48
	str	r0, [sp, #36]
	str	r1, [sp, #32]
.Ltmp136:
	.loc	14 324 62 prologue_end          @ ../communication/can/can_simple.cpp:324:62
	ldr	r3, [sp, #32]
	ldr	r0, [r3]
	ldr	r1, [r3, #4]
	ldr	r2, [r3, #8]
	ldr	r3, [r3, #12]
	str	r3, [sp, #28]
	str	r2, [sp, #24]
	str	r1, [sp, #20]
	str	r0, [sp, #16]
	.loc	14 324 41 is_stmt 0             @ ../communication/can/can_simple.cpp:324:41
	ldr	r0, [sp, #16]
	ldr	r1, [sp, #20]
	ldr	r2, [sp, #24]
	ldr	r3, [sp, #28]
	mov	lr, sp
	mov.w	r12, #1
	str.w	r12, [lr, #8]
	mov.w	r12, #32
	str.w	r12, [lr, #4]
	mov.w	r12, #0
	str.w	r12, [lr]
	bl	_Z13can_getSignalIfET_13can_Message_thhb
	.loc	14 324 5                        @ ../communication/can/can_simple.cpp:324:5
	ldr	r0, [sp, #36]
	.loc	14 324 10                       @ ../communication/can/can_simple.cpp:324:10
	ldr.w	r0, [r0, #256]
	.loc	14 324 39                       @ ../communication/can/can_simple.cpp:324:39
	vstr	s0, [r0, #28]
	.loc	14 325 1 epilogue_begin is_stmt 1 @ ../communication/can/can_simple.cpp:325:1
	add	sp, #40
	pop	{r7, pc}
.Ltmp137:
.Lfunc_end37:
	.size	_ZN9CANSimple21set_pos_gain_callbackER4AxisRK13can_Message_t, .Lfunc_end37-_ZN9CANSimple21set_pos_gain_callbackER4AxisRK13can_Message_t
	.cfi_endproc
	.cantunwind
	.fnend
                                        @ -- End function
	.section	.text._ZN9CANSimple22set_vel_gains_callbackER4AxisRK13can_Message_t,"ax",%progbits
	.hidden	_ZN9CANSimple22set_vel_gains_callbackER4AxisRK13can_Message_t @ -- Begin function _ZN9CANSimple22set_vel_gains_callbackER4AxisRK13can_Message_t
	.globl	_ZN9CANSimple22set_vel_gains_callbackER4AxisRK13can_Message_t
	.p2align	2
	.type	_ZN9CANSimple22set_vel_gains_callbackER4AxisRK13can_Message_t,%function
	.code	16                              @ @_ZN9CANSimple22set_vel_gains_callbackER4AxisRK13can_Message_t
	.thumb_func
_ZN9CANSimple22set_vel_gains_callbackER4AxisRK13can_Message_t:
.Lfunc_begin38:
	.loc	14 327 0                        @ ../communication/can/can_simple.cpp:327:0
	.fnstart
	.cfi_startproc
@ %bb.0:
	.save	{r4, lr}
	push	{r4, lr}
	.cfi_def_cfa_offset 8
	.cfi_offset lr, -4
	.cfi_offset r4, -8
	.pad	#56
	sub	sp, #56
	.cfi_def_cfa_offset 64
	str	r0, [sp, #52]
	str	r1, [sp, #48]
.Ltmp138:
	.loc	14 328 62 prologue_end          @ ../communication/can/can_simple.cpp:328:62
	ldr	r3, [sp, #48]
	ldr	r0, [r3]
	ldr	r1, [r3, #4]
	ldr	r2, [r3, #8]
	ldr	r3, [r3, #12]
	str	r3, [sp, #44]
	str	r2, [sp, #40]
	str	r1, [sp, #36]
	str	r0, [sp, #32]
	.loc	14 328 41 is_stmt 0             @ ../communication/can/can_simple.cpp:328:41
	ldr	r0, [sp, #32]
	ldr	r1, [sp, #36]
	ldr	r2, [sp, #40]
	ldr	r3, [sp, #44]
	mov	lr, sp
	movs	r4, #1
	str.w	r4, [lr, #8]
	mov.w	r12, #32
	str.w	r12, [sp, #12]                  @ 4-byte Spill
	str.w	r12, [lr, #4]
	mov.w	r12, #0
	str.w	r12, [lr]
	bl	_Z13can_getSignalIfET_13can_Message_thhb
	ldr.w	r12, [sp, #12]                  @ 4-byte Reload
	.loc	14 328 5                        @ ../communication/can/can_simple.cpp:328:5
	ldr	r0, [sp, #52]
	.loc	14 328 10                       @ ../communication/can/can_simple.cpp:328:10
	ldr.w	r0, [r0, #256]
	.loc	14 328 39                       @ ../communication/can/can_simple.cpp:328:39
	vstr	s0, [r0, #32]
	.loc	14 329 73 is_stmt 1             @ ../communication/can/can_simple.cpp:329:73
	ldr	r3, [sp, #48]
	ldr	r0, [r3]
	ldr	r1, [r3, #4]
	ldr	r2, [r3, #8]
	ldr	r3, [r3, #12]
	str	r3, [sp, #28]
	str	r2, [sp, #24]
	str	r1, [sp, #20]
	str	r0, [sp, #16]
	.loc	14 329 52 is_stmt 0             @ ../communication/can/can_simple.cpp:329:52
	ldr	r0, [sp, #16]
	ldr	r1, [sp, #20]
	ldr	r2, [sp, #24]
	ldr	r3, [sp, #28]
	mov	lr, sp
	str.w	r4, [lr, #8]
	str.w	r12, [lr, #4]
	str.w	r12, [lr]
	bl	_Z13can_getSignalIfET_13can_Message_thhb
	.loc	14 329 5                        @ ../communication/can/can_simple.cpp:329:5
	ldr	r0, [sp, #52]
	.loc	14 329 10                       @ ../communication/can/can_simple.cpp:329:10
	ldr.w	r0, [r0, #256]
	.loc	14 329 50                       @ ../communication/can/can_simple.cpp:329:50
	vstr	s0, [r0, #36]
	.loc	14 330 1 epilogue_begin is_stmt 1 @ ../communication/can/can_simple.cpp:330:1
	add	sp, #56
	pop	{r4, pc}
.Ltmp139:
.Lfunc_end38:
	.size	_ZN9CANSimple22set_vel_gains_callbackER4AxisRK13can_Message_t, .Lfunc_end38-_ZN9CANSimple22set_vel_gains_callbackER4AxisRK13can_Message_t
	.cfi_endproc
	.cantunwind
	.fnend
                                        @ -- End function
	.section	.text._ZN9CANSimple24get_adc_voltage_callbackERK4AxisRK13can_Message_t,"ax",%progbits
	.hidden	_ZN9CANSimple24get_adc_voltage_callbackERK4AxisRK13can_Message_t @ -- Begin function _ZN9CANSimple24get_adc_voltage_callbackERK4AxisRK13can_Message_t
	.globl	_ZN9CANSimple24get_adc_voltage_callbackERK4AxisRK13can_Message_t
	.p2align	2
	.type	_ZN9CANSimple24get_adc_voltage_callbackERK4AxisRK13can_Message_t,%function
	.code	16                              @ @_ZN9CANSimple24get_adc_voltage_callbackERK4AxisRK13can_Message_t
	.thumb_func
_ZN9CANSimple24get_adc_voltage_callbackERK4AxisRK13can_Message_t:
.Lfunc_begin39:
	.loc	14 368 0                        @ ../communication/can/can_simple.cpp:368:0
	.fnstart
	.cfi_startproc
@ %bb.0:
	.save	{r4, lr}
	push	{r4, lr}
	.cfi_def_cfa_offset 8
	.cfi_offset lr, -4
	.cfi_offset r4, -8
	.pad	#88
	sub	sp, #88
	.cfi_def_cfa_offset 96
	str	r0, [sp, #80]
	str	r1, [sp, #76]
	str	r2, [sp, #72]
	ldr	r0, [sp, #80]
.Ltmp140:
	.loc	14 369 19 prologue_end          @ ../communication/can/can_simple.cpp:369:19
	str	r0, [sp, #20]                   @ 4-byte Spill
	add	r0, sp, #56
	bl	_ZN13can_Message_tC2Ev
	.loc	14 371 16                       @ ../communication/can/can_simple.cpp:371:16
	ldr	r0, [sp, #76]
	.loc	14 371 33 is_stmt 0             @ ../communication/can/can_simple.cpp:371:33
	ldr	r0, [r0, #120]
	.loc	14 371 41                       @ ../communication/can/can_simple.cpp:371:41
	lsls	r0, r0, #5
	.loc	14 371 14                       @ ../communication/can/can_simple.cpp:371:14
	str	r0, [sp, #56]
	.loc	14 372 14 is_stmt 1             @ ../communication/can/can_simple.cpp:372:14
	ldr	r0, [sp, #56]
	adds	r0, #28
	str	r0, [sp, #56]
	.loc	14 373 19                       @ ../communication/can/can_simple.cpp:373:19
	ldr	r0, [sp, #76]
	.loc	14 373 36 is_stmt 0             @ ../communication/can/can_simple.cpp:373:36
	ldrb.w	r0, [r0, #124]
	.loc	14 373 17                       @ ../communication/can/can_simple.cpp:373:17
	and	r0, r0, #1
	strb.w	r0, [sp, #60]
	mov.w	r12, #8
	.loc	14 374 15 is_stmt 1             @ ../communication/can/can_simple.cpp:374:15
	strb.w	r12, [sp, #62]
	.loc	14 376 44                       @ ../communication/can/can_simple.cpp:376:44
	ldr	r3, [sp, #72]
	ldr	r0, [r3]
	ldr	r1, [r3, #4]
	ldr	r2, [r3, #8]
	ldr	r3, [r3, #12]
	str	r3, [sp, #48]
	str	r2, [sp, #44]
	str	r1, [sp, #40]
	str	r0, [sp, #36]
	.loc	14 376 21 is_stmt 0             @ ../communication/can/can_simple.cpp:376:21
	ldr	r0, [sp, #36]
	ldr	r1, [sp, #40]
	ldr	r2, [sp, #44]
	ldr	r3, [sp, #48]
	mov	lr, sp
	movs	r4, #1
	str.w	r4, [lr, #8]
	str.w	r12, [lr, #4]
	mov.w	r12, #0
	str.w	r12, [lr]
	bl	_Z13can_getSignalIhET_13can_Message_thhb
	.loc	14 376 10                       @ ../communication/can/can_simple.cpp:376:10
	strb.w	r0, [sp, #55]
.Ltmp141:
	.loc	14 377 9 is_stmt 1              @ ../communication/can/can_simple.cpp:377:9
	ldrb.w	r0, [sp, #55]
.Ltmp142:
	.loc	14 377 9 is_stmt 0              @ ../communication/can/can_simple.cpp:377:9
	cmp	r0, #16
	bgt	.LBB39_2
	b	.LBB39_1
.LBB39_1:
.Ltmp143:
	.loc	14 378 49 is_stmt 1             @ ../communication/can/can_simple.cpp:378:49
	ldrb.w	r1, [sp, #55]
	add	r0, sp, #24
	.loc	14 378 40 is_stmt 0             @ ../communication/can/can_simple.cpp:378:40
	bl	_ZL8get_gpioj
	.loc	14 378 24                       @ ../communication/can/can_simple.cpp:378:24
	ldr	r0, [sp, #24]
	ldr	r1, [sp, #28]
	bl	get_adc_voltage
	.loc	14 378 14                       @ ../communication/can/can_simple.cpp:378:14
	vstr	s0, [sp, #32]
	.loc	14 379 9 is_stmt 1              @ ../communication/can/can_simple.cpp:379:9
	mov	r1, sp
	movs	r0, #1
	str	r0, [r1]
	add	r0, sp, #56
	str	r0, [sp, #16]                   @ 4-byte Spill
	add	r1, sp, #32
	movs	r2, #0
	movs	r3, #32
	bl	_Z13can_setSignalIfEvR13can_Message_tRKT_hhb
	ldr	r0, [sp, #20]                   @ 4-byte Reload
	ldr	r1, [sp, #16]                   @ 4-byte Reload
	.loc	14 380 16                       @ ../communication/can/can_simple.cpp:380:16
	ldr	r0, [r0]
	.loc	14 380 25 is_stmt 0             @ ../communication/can/can_simple.cpp:380:25
	ldr	r2, [r0]
	ldr	r2, [r2]
	blx	r2
	.loc	14 380 9                        @ ../communication/can/can_simple.cpp:380:9
	strb.w	r0, [sp, #87]
	b	.LBB39_3
.Ltmp144:
.LBB39_2:
	.loc	14 0 9                          @ ../communication/can/can_simple.cpp:0:9
	movs	r0, #0
.Ltmp145:
	.loc	14 382 9 is_stmt 1              @ ../communication/can/can_simple.cpp:382:9
	strb.w	r0, [sp, #87]
	b	.LBB39_3
.Ltmp146:
.LBB39_3:
	.loc	14 384 1                        @ ../communication/can/can_simple.cpp:384:1
	ldrb.w	r0, [sp, #87]
	.loc	14 384 1 epilogue_begin is_stmt 0 @ ../communication/can/can_simple.cpp:384:1
	add	sp, #88
	pop	{r4, pc}
.Ltmp147:
.Lfunc_end39:
	.size	_ZN9CANSimple24get_adc_voltage_callbackERK4AxisRK13can_Message_t, .Lfunc_end39-_ZN9CANSimple24get_adc_voltage_callbackERK4AxisRK13can_Message_t
	.cfi_endproc
	.cantunwind
	.fnend
                                        @ -- End function
	.section	.text._ZN9CANSimple29get_controller_error_callbackERK4Axis,"ax",%progbits
	.hidden	_ZN9CANSimple29get_controller_error_callbackERK4Axis @ -- Begin function _ZN9CANSimple29get_controller_error_callbackERK4Axis
	.globl	_ZN9CANSimple29get_controller_error_callbackERK4Axis
	.p2align	2
	.type	_ZN9CANSimple29get_controller_error_callbackERK4Axis,%function
	.code	16                              @ @_ZN9CANSimple29get_controller_error_callbackERK4Axis
	.thumb_func
_ZN9CANSimple29get_controller_error_callbackERK4Axis:
.Lfunc_begin40:
	.loc	14 210 0 is_stmt 1              @ ../communication/can/can_simple.cpp:210:0
	.fnstart
	.cfi_startproc
@ %bb.0:
	.save	{r7, lr}
	push	{r7, lr}
	.cfi_def_cfa_offset 8
	.cfi_offset lr, -4
	.cfi_offset r7, -8
	.pad	#40
	sub	sp, #40
	.cfi_def_cfa_offset 48
	str	r0, [sp, #36]
	str	r1, [sp, #32]
	ldr	r0, [sp, #36]
.Ltmp148:
	.loc	14 211 19 prologue_end          @ ../communication/can/can_simple.cpp:211:19
	str	r0, [sp, #8]                    @ 4-byte Spill
	add	r0, sp, #16
	str	r0, [sp, #12]                   @ 4-byte Spill
	bl	_ZN13can_Message_tC2Ev
	ldr	r0, [sp, #12]                   @ 4-byte Reload
	.loc	14 212 16                       @ ../communication/can/can_simple.cpp:212:16
	ldr	r1, [sp, #32]
	.loc	14 212 33 is_stmt 0             @ ../communication/can/can_simple.cpp:212:33
	ldr	r1, [r1, #120]
	.loc	14 212 41                       @ ../communication/can/can_simple.cpp:212:41
	lsls	r1, r1, #5
	.loc	14 212 14                       @ ../communication/can/can_simple.cpp:212:14
	str	r1, [sp, #16]
	.loc	14 213 14 is_stmt 1             @ ../communication/can/can_simple.cpp:213:14
	ldr	r1, [sp, #16]
	adds	r1, #29
	str	r1, [sp, #16]
	.loc	14 214 19                       @ ../communication/can/can_simple.cpp:214:19
	ldr	r1, [sp, #32]
	.loc	14 214 36 is_stmt 0             @ ../communication/can/can_simple.cpp:214:36
	ldrb.w	r1, [r1, #124]
	.loc	14 214 17                       @ ../communication/can/can_simple.cpp:214:17
	and	r1, r1, #1
	strb.w	r1, [sp, #20]
	movs	r1, #8
	.loc	14 215 15 is_stmt 1             @ ../communication/can/can_simple.cpp:215:15
	strb.w	r1, [sp, #22]
	.loc	14 217 26                       @ ../communication/can/can_simple.cpp:217:26
	ldr	r1, [sp, #32]
	.loc	14 217 31 is_stmt 0             @ ../communication/can/can_simple.cpp:217:31
	ldr.w	r1, [r1, #256]
	movw	r2, #14568
	.loc	14 217 43                       @ ../communication/can/can_simple.cpp:217:43
	add	r1, r2
	.loc	14 217 5                        @ ../communication/can/can_simple.cpp:217:5
	mov	r3, sp
	movs	r2, #1
	str	r2, [r3]
	movs	r2, #0
	movs	r3, #32
	bl	_Z13can_setSignalIN10ODriveIntf14ControllerIntf5ErrorEEvR13can_Message_tRKT_hhb
	ldr	r0, [sp, #8]                    @ 4-byte Reload
	ldr	r1, [sp, #12]                   @ 4-byte Reload
	.loc	14 219 12 is_stmt 1             @ ../communication/can/can_simple.cpp:219:12
	ldr	r0, [r0]
	.loc	14 219 21 is_stmt 0             @ ../communication/can/can_simple.cpp:219:21
	ldr	r2, [r0]
	ldr	r2, [r2]
	blx	r2
	.loc	14 219 5 epilogue_begin         @ ../communication/can/can_simple.cpp:219:5
	add	sp, #40
	pop	{r7, pc}
.Ltmp149:
.Lfunc_end40:
	.size	_ZN9CANSimple29get_controller_error_callbackERK4Axis, .Lfunc_end40-_ZN9CANSimple29get_controller_error_callbackERK4Axis
	.cfi_endproc
	.cantunwind
	.fnend
                                        @ -- End function
	.section	.text._ZN9CANSimple12nmt_callbackERK4AxisRK13can_Message_t,"ax",%progbits
	.hidden	_ZN9CANSimple12nmt_callbackERK4AxisRK13can_Message_t @ -- Begin function _ZN9CANSimple12nmt_callbackERK4AxisRK13can_Message_t
	.globl	_ZN9CANSimple12nmt_callbackERK4AxisRK13can_Message_t
	.p2align	2
	.type	_ZN9CANSimple12nmt_callbackERK4AxisRK13can_Message_t,%function
	.code	16                              @ @_ZN9CANSimple12nmt_callbackERK4AxisRK13can_Message_t
	.thumb_func
_ZN9CANSimple12nmt_callbackERK4AxisRK13can_Message_t:
.Lfunc_begin41:
	.loc	14 166 0 is_stmt 1              @ ../communication/can/can_simple.cpp:166:0
	.fnstart
	.cfi_startproc
@ %bb.0:
	.pad	#8
	sub	sp, #8
	.cfi_def_cfa_offset 8
	str	r0, [sp, #4]
	str	r1, [sp]
.Ltmp150:
	.loc	14 168 1 prologue_end epilogue_begin @ ../communication/can/can_simple.cpp:168:1
	add	sp, #8
	bx	lr
.Ltmp151:
.Lfunc_end41:
	.size	_ZN9CANSimple12nmt_callbackERK4AxisRK13can_Message_t, .Lfunc_end41-_ZN9CANSimple12nmt_callbackERK4AxisRK13can_Message_t
	.cfi_endproc
	.cantunwind
	.fnend
                                        @ -- End function
	.section	.text._ZoRRN10ODriveIntf8AxisIntf5ErrorES1_,"axG",%progbits,_ZoRRN10ODriveIntf8AxisIntf5ErrorES1_,comdat
	.hidden	_ZoRRN10ODriveIntf8AxisIntf5ErrorES1_ @ -- Begin function _ZoRRN10ODriveIntf8AxisIntf5ErrorES1_
	.weak	_ZoRRN10ODriveIntf8AxisIntf5ErrorES1_
	.p2align	2
	.type	_ZoRRN10ODriveIntf8AxisIntf5ErrorES1_,%function
	.code	16                              @ @_ZoRRN10ODriveIntf8AxisIntf5ErrorES1_
	.thumb_func
_ZoRRN10ODriveIntf8AxisIntf5ErrorES1_:
.Lfunc_begin42:
	.loc	5 1183 0                        @ ../../Firmware\autogen/interfaces.hpp:1183:0
	.fnstart
	.cfi_startproc
@ %bb.0:
	.pad	#8
	sub	sp, #8
	.cfi_def_cfa_offset 8
	str	r0, [sp, #4]
	str	r1, [sp]
.Ltmp152:
	.loc	5 1183 311 prologue_end         @ ../../Firmware\autogen/interfaces.hpp:1183:311
	ldr	r2, [sp]
	.loc	5 1183 240 is_stmt 0            @ ../../Firmware\autogen/interfaces.hpp:1183:240
	ldr	r0, [sp, #4]
	.loc	5 1183 243                      @ ../../Firmware\autogen/interfaces.hpp:1183:243
	ldr	r1, [r0]
	orrs	r1, r2
	str	r1, [r0]
	.loc	5 1183 115 epilogue_begin       @ ../../Firmware\autogen/interfaces.hpp:1183:115
	add	sp, #8
	bx	lr
.Ltmp153:
.Lfunc_end42:
	.size	_ZoRRN10ODriveIntf8AxisIntf5ErrorES1_, .Lfunc_end42-_ZoRRN10ODriveIntf8AxisIntf5ErrorES1_
	.cfi_endproc
	.cantunwind
	.fnend
                                        @ -- End function
	.section	.text._ZN13can_Message_tC2Ev,"axG",%progbits,_ZN13can_Message_tC2Ev,comdat
	.hidden	_ZN13can_Message_tC2Ev          @ -- Begin function _ZN13can_Message_tC2Ev
	.weak	_ZN13can_Message_tC2Ev
	.p2align	2
	.type	_ZN13can_Message_tC2Ev,%function
	.code	16                              @ @_ZN13can_Message_tC2Ev
	.thumb_func
_ZN13can_Message_tC2Ev:
.Lfunc_begin43:
	.loc	17 8 0 is_stmt 1                @ ../communication/can/can_helpers.hpp:8:0
	.fnstart
	.cfi_startproc
@ %bb.0:
	.pad	#4
	sub	sp, #4
	.cfi_def_cfa_offset 4
	str	r0, [sp]
	ldr	r0, [sp]
	movs	r1, #0
.Ltmp154:
	.loc	17 9 14 prologue_end            @ ../communication/can/can_helpers.hpp:9:14
	str	r1, [r0]
	.loc	17 10 10                        @ ../communication/can/can_helpers.hpp:10:10
	strb	r1, [r0, #4]
	.loc	17 11 10                        @ ../communication/can/can_helpers.hpp:11:10
	strb	r1, [r0, #5]
	movs	r2, #8
	.loc	17 12 13                        @ ../communication/can/can_helpers.hpp:12:13
	strb	r2, [r0, #6]
	.loc	17 13 22                        @ ../communication/can/can_helpers.hpp:13:22
	strb	r1, [r0, #7]
	strb	r1, [r0, #8]
	strb	r1, [r0, #9]
	strb	r1, [r0, #10]
	strb	r1, [r0, #11]
	strb	r1, [r0, #12]
	strb	r1, [r0, #13]
	strb	r1, [r0, #14]
	.loc	17 8 8 epilogue_begin           @ ../communication/can/can_helpers.hpp:8:8
	add	sp, #4
	bx	lr
.Ltmp155:
.Lfunc_end43:
	.size	_ZN13can_Message_tC2Ev, .Lfunc_end43-_ZN13can_Message_tC2Ev
	.cfi_endproc
	.cantunwind
	.fnend
                                        @ -- End function
	.section	.text._Z13can_setSignalIN10ODriveIntf9MotorIntf5ErrorEEvR13can_Message_tRKT_hhb,"axG",%progbits,_Z13can_setSignalIN10ODriveIntf9MotorIntf5ErrorEEvR13can_Message_tRKT_hhb,comdat
	.hidden	_Z13can_setSignalIN10ODriveIntf9MotorIntf5ErrorEEvR13can_Message_tRKT_hhb @ -- Begin function _Z13can_setSignalIN10ODriveIntf9MotorIntf5ErrorEEvR13can_Message_tRKT_hhb
	.weak	_Z13can_setSignalIN10ODriveIntf9MotorIntf5ErrorEEvR13can_Message_tRKT_hhb
	.p2align	2
	.type	_Z13can_setSignalIN10ODriveIntf9MotorIntf5ErrorEEvR13can_Message_tRKT_hhb,%function
	.code	16                              @ @_Z13can_setSignalIN10ODriveIntf9MotorIntf5ErrorEEvR13can_Message_tRKT_hhb
	.thumb_func
_Z13can_setSignalIN10ODriveIntf9MotorIntf5ErrorEEvR13can_Message_tRKT_hhb:
.Lfunc_begin44:
	.loc	17 50 0                         @ ../communication/can/can_helpers.hpp:50:0
	.fnstart
	.cfi_startproc
@ %bb.0:
	.save	{r7, lr}
	push	{r7, lr}
	.cfi_def_cfa_offset 8
	.cfi_offset lr, -4
	.cfi_offset r7, -8
	.pad	#64
	sub	sp, #64
	.cfi_def_cfa_offset 72
	mov	r12, r0
	ldr	r0, [sp, #72]
                                        @ kill: def $lr killed $r3
                                        @ kill: def $lr killed $r2
	str.w	r12, [sp, #60]
	str	r1, [sp, #56]
	strb.w	r2, [sp, #55]
	strb.w	r3, [sp, #54]
	strb.w	r0, [sp, #53]
	movs	r0, #0
.Ltmp156:
	.loc	17 51 14 prologue_end           @ ../communication/can/can_helpers.hpp:51:14
	str	r0, [sp, #44]
	str	r0, [sp, #40]
	.loc	17 52 30                        @ ../communication/can/can_helpers.hpp:52:30
	ldr	r1, [sp, #56]
	.loc	17 52 5 is_stmt 0               @ ../communication/can/can_helpers.hpp:52:5
	ldr	r0, [r1]
	ldr	r1, [r1, #4]
	str	r1, [sp, #44]
	str	r0, [sp, #40]
	.loc	17 54 21 is_stmt 1              @ ../communication/can/can_helpers.hpp:54:21
	ldrb.w	r0, [sp, #54]
	cmp	r0, #63
	bgt	.LBB44_2
	b	.LBB44_1
.LBB44_1:
	.loc	17 54 44 is_stmt 0              @ ../communication/can/can_helpers.hpp:54:44
	ldrb.w	r3, [sp, #54]
	.loc	17 54 41                        @ ../communication/can/can_helpers.hpp:54:41
	sub.w	r2, r3, #32
	movs	r1, #1
	lsl.w	r12, r1, r2
	rsb.w	r0, r3, #32
	lsr.w	r0, r1, r0
	cmp	r2, #0
	it	pl
	movpl	r0, r12
	lsls	r1, r3
	cmp	r2, #0
	it	pl
	movpl	r1, #0
	.loc	17 54 52                        @ ../communication/can/can_helpers.hpp:54:52
	subs	r1, #1
	sbc	r0, r0, #0
	str	r1, [sp, #8]                    @ 4-byte Spill
	.loc	17 54 21                        @ ../communication/can/can_helpers.hpp:54:21
	str	r0, [sp, #12]                   @ 4-byte Spill
	b	.LBB44_3
.LBB44_2:
	.loc	17 0 21                         @ ../communication/can/can_helpers.hpp:0:21
	mov.w	r1, #-1
	mov	r0, r1
	str	r1, [sp, #8]                    @ 4-byte Spill
	.loc	17 54 21                        @ ../communication/can/can_helpers.hpp:54:21
	str	r0, [sp, #12]                   @ 4-byte Spill
	b	.LBB44_3
.LBB44_3:
	ldr	r1, [sp, #8]                    @ 4-byte Reload
	ldr	r0, [sp, #12]                   @ 4-byte Reload
	.loc	17 54 14                        @ ../communication/can/can_helpers.hpp:54:14
	str	r1, [sp, #32]
	str	r0, [sp, #36]
.Ltmp157:
	.loc	17 56 9 is_stmt 1               @ ../communication/can/can_helpers.hpp:56:9
	ldrb.w	r0, [sp, #53]
.Ltmp158:
	.loc	17 56 9 is_stmt 0               @ ../communication/can/can_helpers.hpp:56:9
	lsls	r0, r0, #31
	cmp	r0, #0
	beq	.LBB44_5
	b	.LBB44_4
.LBB44_4:
	.loc	17 0 9                          @ ../communication/can/can_helpers.hpp:0:9
	movs	r0, #0
.Ltmp159:
	.loc	17 57 18 is_stmt 1              @ ../communication/can/can_helpers.hpp:57:18
	str	r0, [sp, #28]
	str	r0, [sp, #24]
	.loc	17 58 28                        @ ../communication/can/can_helpers.hpp:58:28
	ldr	r1, [sp, #60]
	.loc	17 58 9 is_stmt 0               @ ../communication/can/can_helpers.hpp:58:9
	ldr.w	r0, [r1, #7]
	ldr.w	r1, [r1, #11]
	str	r1, [sp, #28]
	str	r0, [sp, #24]
	.loc	17 60 19 is_stmt 1              @ ../communication/can/can_helpers.hpp:60:19
	ldr	r1, [sp, #32]
	ldr	r0, [sp, #36]
	.loc	17 60 27 is_stmt 0              @ ../communication/can/can_helpers.hpp:60:27
	ldrb.w	r2, [sp, #55]
	.loc	17 60 24                        @ ../communication/can/can_helpers.hpp:60:24
	lsl.w	r3, r0, r2
	rsb.w	r0, r2, #32
	lsr.w	r0, r1, r0
	orrs	r3, r0
	sub.w	r0, r2, #32
	lsl.w	r12, r1, r0
	cmp	r0, #0
	it	pl
	movpl	r3, r12
	lsl.w	r2, r1, r2
	cmp	r0, #0
	it	pl
	movpl	r2, #0
	.loc	17 60 14                        @ ../communication/can/can_helpers.hpp:60:14
	ldr	r1, [sp, #24]
	ldr	r0, [sp, #28]
	bics	r0, r3
	bics	r1, r2
	str	r1, [sp, #24]
	str	r0, [sp, #28]
	.loc	17 61 17 is_stmt 1              @ ../communication/can/can_helpers.hpp:61:17
	ldr	r1, [sp, #40]
	ldr	r0, [sp, #44]
	.loc	17 61 30 is_stmt 0              @ ../communication/can/can_helpers.hpp:61:30
	ldrb.w	r2, [sp, #55]
	.loc	17 61 27                        @ ../communication/can/can_helpers.hpp:61:27
	lsl.w	r3, r0, r2
	rsb.w	r0, r2, #32
	lsr.w	r0, r1, r0
	orrs	r3, r0
	sub.w	r0, r2, #32
	lsl.w	r12, r1, r0
	cmp	r0, #0
	it	pl
	movpl	r3, r12
	lsl.w	r2, r1, r2
	cmp	r0, #0
	it	pl
	movpl	r2, #0
	.loc	17 61 14                        @ ../communication/can/can_helpers.hpp:61:14
	ldr	r1, [sp, #24]
	ldr	r0, [sp, #28]
	orrs	r0, r3
	orrs	r1, r2
	str	r1, [sp, #24]
	str	r0, [sp, #28]
	.loc	17 63 21 is_stmt 1              @ ../communication/can/can_helpers.hpp:63:21
	ldr	r1, [sp, #60]
	.loc	17 63 9 is_stmt 0               @ ../communication/can/can_helpers.hpp:63:9
	ldr	r0, [sp, #24]
	ldr	r2, [sp, #28]
	str.w	r2, [r1, #11]
	str.w	r0, [r1, #7]
	.loc	17 64 5 is_stmt 1               @ ../communication/can/can_helpers.hpp:64:5
	b	.LBB44_6
.Ltmp160:
.LBB44_5:
	.loc	17 0 5 is_stmt 0                @ ../communication/can/can_helpers.hpp:0:5
	movs	r0, #0
.Ltmp161:
	.loc	17 65 18 is_stmt 1              @ ../communication/can/can_helpers.hpp:65:18
	str	r0, [sp, #20]
	str	r0, [sp, #16]
	.loc	17 66 33                        @ ../communication/can/can_helpers.hpp:66:33
	ldr	r0, [sp, #60]
	.loc	17 66 37 is_stmt 0              @ ../communication/can/can_helpers.hpp:66:37
	adds	r0, #7
	.loc	17 66 22                        @ ../communication/can/can_helpers.hpp:66:22
	bl	_ZNSt3__25beginB7v180000IhLj8EEEPT_RAT0__S1_
	.loc	17 66 52                        @ ../communication/can/can_helpers.hpp:66:52
	str	r0, [sp]                        @ 4-byte Spill
	ldr	r0, [sp, #60]
	.loc	17 66 56                        @ ../communication/can/can_helpers.hpp:66:56
	adds	r0, #7
	.loc	17 66 43                        @ ../communication/can/can_helpers.hpp:66:43
	bl	_ZNSt3__23endB7v180000IhLj8EEEPT_RAT0__S1_
	mov	r1, r0
	.loc	17 66 9                         @ ../communication/can/can_helpers.hpp:66:9
	ldr	r0, [sp]                        @ 4-byte Reload
	bl	_ZNSt3__27reverseB7v180000IPhEEvT_S2_
	.loc	17 67 28 is_stmt 1              @ ../communication/can/can_helpers.hpp:67:28
	ldr	r1, [sp, #60]
	.loc	17 67 9 is_stmt 0               @ ../communication/can/can_helpers.hpp:67:9
	ldr.w	r0, [r1, #7]
	ldr.w	r1, [r1, #11]
	str	r1, [sp, #20]
	str	r0, [sp, #16]
	.loc	17 69 19 is_stmt 1              @ ../communication/can/can_helpers.hpp:69:19
	ldr	r0, [sp, #32]
	ldr.w	r12, [sp, #36]
	.loc	17 69 33 is_stmt 0              @ ../communication/can/can_helpers.hpp:69:33
	ldrb.w	r1, [sp, #55]
	.loc	17 69 44                        @ ../communication/can/can_helpers.hpp:69:44
	ldrb.w	r2, [sp, #54]
	.loc	17 69 42                        @ ../communication/can/can_helpers.hpp:69:42
	add	r1, r2
	rsb.w	r3, r1, #64
	.loc	17 69 24                        @ ../communication/can/can_helpers.hpp:69:24
	lsl.w	r2, r0, r3
	rsb.w	r1, r1, #32
	cmp	r1, #0
	it	pl
	movpl	r2, #0
	lsl.w	r12, r12, r3
	rsb.w	r3, r3, #32
	lsr.w	r3, r0, r3
	orr.w	r3, r3, r12
	lsls	r0, r1
	cmp	r1, #0
	it	pl
	movpl	r3, r0
	.loc	17 69 14                        @ ../communication/can/can_helpers.hpp:69:14
	ldr	r1, [sp, #16]
	ldr	r0, [sp, #20]
	bics	r0, r3
	bics	r1, r2
	str	r1, [sp, #16]
	str	r0, [sp, #20]
	.loc	17 70 17 is_stmt 1              @ ../communication/can/can_helpers.hpp:70:17
	ldr	r0, [sp, #40]
	ldr.w	r12, [sp, #44]
	.loc	17 70 36 is_stmt 0              @ ../communication/can/can_helpers.hpp:70:36
	ldrb.w	r1, [sp, #55]
	.loc	17 70 47                        @ ../communication/can/can_helpers.hpp:70:47
	ldrb.w	r2, [sp, #54]
	.loc	17 70 45                        @ ../communication/can/can_helpers.hpp:70:45
	add	r1, r2
	rsb.w	r3, r1, #64
	.loc	17 70 27                        @ ../communication/can/can_helpers.hpp:70:27
	lsl.w	r2, r0, r3
	rsb.w	r1, r1, #32
	cmp	r1, #0
	it	pl
	movpl	r2, #0
	lsl.w	r12, r12, r3
	rsb.w	r3, r3, #32
	lsr.w	r3, r0, r3
	orr.w	r3, r3, r12
	lsls	r0, r1
	cmp	r1, #0
	it	pl
	movpl	r3, r0
	.loc	17 70 14                        @ ../communication/can/can_helpers.hpp:70:14
	ldr	r1, [sp, #16]
	ldr	r0, [sp, #20]
	orrs	r0, r3
	orrs	r1, r2
	str	r1, [sp, #16]
	str	r0, [sp, #20]
	.loc	17 72 21 is_stmt 1              @ ../communication/can/can_helpers.hpp:72:21
	ldr	r1, [sp, #60]
	.loc	17 72 9 is_stmt 0               @ ../communication/can/can_helpers.hpp:72:9
	ldr	r0, [sp, #16]
	ldr	r2, [sp, #20]
	str.w	r2, [r1, #11]
	str.w	r0, [r1, #7]
	.loc	17 73 33 is_stmt 1              @ ../communication/can/can_helpers.hpp:73:33
	ldr	r0, [sp, #60]
	.loc	17 73 37 is_stmt 0              @ ../communication/can/can_helpers.hpp:73:37
	adds	r0, #7
	.loc	17 73 22                        @ ../communication/can/can_helpers.hpp:73:22
	bl	_ZNSt3__25beginB7v180000IhLj8EEEPT_RAT0__S1_
	.loc	17 73 52                        @ ../communication/can/can_helpers.hpp:73:52
	str	r0, [sp, #4]                    @ 4-byte Spill
	ldr	r0, [sp, #60]
	.loc	17 73 56                        @ ../communication/can/can_helpers.hpp:73:56
	adds	r0, #7
	.loc	17 73 43                        @ ../communication/can/can_helpers.hpp:73:43
	bl	_ZNSt3__23endB7v180000IhLj8EEEPT_RAT0__S1_
	mov	r1, r0
	.loc	17 73 9                         @ ../communication/can/can_helpers.hpp:73:9
	ldr	r0, [sp, #4]                    @ 4-byte Reload
	bl	_ZNSt3__27reverseB7v180000IPhEEvT_S2_
	b	.LBB44_6
.Ltmp162:
.LBB44_6:
	.loc	17 75 1 epilogue_begin is_stmt 1 @ ../communication/can/can_helpers.hpp:75:1
	add	sp, #64
	pop	{r7, pc}
.Ltmp163:
.Lfunc_end44:
	.size	_Z13can_setSignalIN10ODriveIntf9MotorIntf5ErrorEEvR13can_Message_tRKT_hhb, .Lfunc_end44-_Z13can_setSignalIN10ODriveIntf9MotorIntf5ErrorEEvR13can_Message_tRKT_hhb
	.cfi_endproc
	.cantunwind
	.fnend
                                        @ -- End function
	.section	.text._Z13can_setSignalIN10ODriveIntf11EncoderIntf5ErrorEEvR13can_Message_tRKT_hhb,"axG",%progbits,_Z13can_setSignalIN10ODriveIntf11EncoderIntf5ErrorEEvR13can_Message_tRKT_hhb,comdat
	.hidden	_Z13can_setSignalIN10ODriveIntf11EncoderIntf5ErrorEEvR13can_Message_tRKT_hhb @ -- Begin function _Z13can_setSignalIN10ODriveIntf11EncoderIntf5ErrorEEvR13can_Message_tRKT_hhb
	.weak	_Z13can_setSignalIN10ODriveIntf11EncoderIntf5ErrorEEvR13can_Message_tRKT_hhb
	.p2align	2
	.type	_Z13can_setSignalIN10ODriveIntf11EncoderIntf5ErrorEEvR13can_Message_tRKT_hhb,%function
	.code	16                              @ @_Z13can_setSignalIN10ODriveIntf11EncoderIntf5ErrorEEvR13can_Message_tRKT_hhb
	.thumb_func
_Z13can_setSignalIN10ODriveIntf11EncoderIntf5ErrorEEvR13can_Message_tRKT_hhb:
.Lfunc_begin45:
	.loc	17 50 0                         @ ../communication/can/can_helpers.hpp:50:0
	.fnstart
	.cfi_startproc
@ %bb.0:
	.save	{r7, lr}
	push	{r7, lr}
	.cfi_def_cfa_offset 8
	.cfi_offset lr, -4
	.cfi_offset r7, -8
	.pad	#64
	sub	sp, #64
	.cfi_def_cfa_offset 72
	mov	r12, r0
	ldr	r0, [sp, #72]
                                        @ kill: def $lr killed $r3
                                        @ kill: def $lr killed $r2
	str.w	r12, [sp, #60]
	str	r1, [sp, #56]
	strb.w	r2, [sp, #55]
	strb.w	r3, [sp, #54]
	strb.w	r0, [sp, #53]
	movs	r0, #0
.Ltmp164:
	.loc	17 51 14 prologue_end           @ ../communication/can/can_helpers.hpp:51:14
	str	r0, [sp, #44]
	str	r0, [sp, #40]
	.loc	17 52 30                        @ ../communication/can/can_helpers.hpp:52:30
	ldr	r0, [sp, #56]
	.loc	17 52 5 is_stmt 0               @ ../communication/can/can_helpers.hpp:52:5
	ldrh	r0, [r0]
	strh.w	r0, [sp, #40]
	.loc	17 54 21 is_stmt 1              @ ../communication/can/can_helpers.hpp:54:21
	ldrb.w	r0, [sp, #54]
	cmp	r0, #63
	bgt	.LBB45_2
	b	.LBB45_1
.LBB45_1:
	.loc	17 54 44 is_stmt 0              @ ../communication/can/can_helpers.hpp:54:44
	ldrb.w	r3, [sp, #54]
	.loc	17 54 41                        @ ../communication/can/can_helpers.hpp:54:41
	sub.w	r2, r3, #32
	movs	r1, #1
	lsl.w	r12, r1, r2
	rsb.w	r0, r3, #32
	lsr.w	r0, r1, r0
	cmp	r2, #0
	it	pl
	movpl	r0, r12
	lsls	r1, r3
	cmp	r2, #0
	it	pl
	movpl	r1, #0
	.loc	17 54 52                        @ ../communication/can/can_helpers.hpp:54:52
	subs	r1, #1
	sbc	r0, r0, #0
	str	r1, [sp, #8]                    @ 4-byte Spill
	.loc	17 54 21                        @ ../communication/can/can_helpers.hpp:54:21
	str	r0, [sp, #12]                   @ 4-byte Spill
	b	.LBB45_3
.LBB45_2:
	.loc	17 0 21                         @ ../communication/can/can_helpers.hpp:0:21
	mov.w	r1, #-1
	mov	r0, r1
	str	r1, [sp, #8]                    @ 4-byte Spill
	.loc	17 54 21                        @ ../communication/can/can_helpers.hpp:54:21
	str	r0, [sp, #12]                   @ 4-byte Spill
	b	.LBB45_3
.LBB45_3:
	ldr	r1, [sp, #8]                    @ 4-byte Reload
	ldr	r0, [sp, #12]                   @ 4-byte Reload
	.loc	17 54 14                        @ ../communication/can/can_helpers.hpp:54:14
	str	r1, [sp, #32]
	str	r0, [sp, #36]
.Ltmp165:
	.loc	17 56 9 is_stmt 1               @ ../communication/can/can_helpers.hpp:56:9
	ldrb.w	r0, [sp, #53]
.Ltmp166:
	.loc	17 56 9 is_stmt 0               @ ../communication/can/can_helpers.hpp:56:9
	lsls	r0, r0, #31
	cmp	r0, #0
	beq	.LBB45_5
	b	.LBB45_4
.LBB45_4:
	.loc	17 0 9                          @ ../communication/can/can_helpers.hpp:0:9
	movs	r0, #0
.Ltmp167:
	.loc	17 57 18 is_stmt 1              @ ../communication/can/can_helpers.hpp:57:18
	str	r0, [sp, #28]
	str	r0, [sp, #24]
	.loc	17 58 28                        @ ../communication/can/can_helpers.hpp:58:28
	ldr	r1, [sp, #60]
	.loc	17 58 9 is_stmt 0               @ ../communication/can/can_helpers.hpp:58:9
	ldr.w	r0, [r1, #7]
	ldr.w	r1, [r1, #11]
	str	r1, [sp, #28]
	str	r0, [sp, #24]
	.loc	17 60 19 is_stmt 1              @ ../communication/can/can_helpers.hpp:60:19
	ldr	r1, [sp, #32]
	ldr	r0, [sp, #36]
	.loc	17 60 27 is_stmt 0              @ ../communication/can/can_helpers.hpp:60:27
	ldrb.w	r2, [sp, #55]
	.loc	17 60 24                        @ ../communication/can/can_helpers.hpp:60:24
	lsl.w	r3, r0, r2
	rsb.w	r0, r2, #32
	lsr.w	r0, r1, r0
	orrs	r3, r0
	sub.w	r0, r2, #32
	lsl.w	r12, r1, r0
	cmp	r0, #0
	it	pl
	movpl	r3, r12
	lsl.w	r2, r1, r2
	cmp	r0, #0
	it	pl
	movpl	r2, #0
	.loc	17 60 14                        @ ../communication/can/can_helpers.hpp:60:14
	ldr	r1, [sp, #24]
	ldr	r0, [sp, #28]
	bics	r0, r3
	bics	r1, r2
	str	r1, [sp, #24]
	str	r0, [sp, #28]
	.loc	17 61 17 is_stmt 1              @ ../communication/can/can_helpers.hpp:61:17
	ldr	r1, [sp, #40]
	ldr	r0, [sp, #44]
	.loc	17 61 30 is_stmt 0              @ ../communication/can/can_helpers.hpp:61:30
	ldrb.w	r2, [sp, #55]
	.loc	17 61 27                        @ ../communication/can/can_helpers.hpp:61:27
	lsl.w	r3, r0, r2
	rsb.w	r0, r2, #32
	lsr.w	r0, r1, r0
	orrs	r3, r0
	sub.w	r0, r2, #32
	lsl.w	r12, r1, r0
	cmp	r0, #0
	it	pl
	movpl	r3, r12
	lsl.w	r2, r1, r2
	cmp	r0, #0
	it	pl
	movpl	r2, #0
	.loc	17 61 14                        @ ../communication/can/can_helpers.hpp:61:14
	ldr	r1, [sp, #24]
	ldr	r0, [sp, #28]
	orrs	r0, r3
	orrs	r1, r2
	str	r1, [sp, #24]
	str	r0, [sp, #28]
	.loc	17 63 21 is_stmt 1              @ ../communication/can/can_helpers.hpp:63:21
	ldr	r1, [sp, #60]
	.loc	17 63 9 is_stmt 0               @ ../communication/can/can_helpers.hpp:63:9
	ldr	r0, [sp, #24]
	ldr	r2, [sp, #28]
	str.w	r2, [r1, #11]
	str.w	r0, [r1, #7]
	.loc	17 64 5 is_stmt 1               @ ../communication/can/can_helpers.hpp:64:5
	b	.LBB45_6
.Ltmp168:
.LBB45_5:
	.loc	17 0 5 is_stmt 0                @ ../communication/can/can_helpers.hpp:0:5
	movs	r0, #0
.Ltmp169:
	.loc	17 65 18 is_stmt 1              @ ../communication/can/can_helpers.hpp:65:18
	str	r0, [sp, #20]
	str	r0, [sp, #16]
	.loc	17 66 33                        @ ../communication/can/can_helpers.hpp:66:33
	ldr	r0, [sp, #60]
	.loc	17 66 37 is_stmt 0              @ ../communication/can/can_helpers.hpp:66:37
	adds	r0, #7
	.loc	17 66 22                        @ ../communication/can/can_helpers.hpp:66:22
	bl	_ZNSt3__25beginB7v180000IhLj8EEEPT_RAT0__S1_
	.loc	17 66 52                        @ ../communication/can/can_helpers.hpp:66:52
	str	r0, [sp]                        @ 4-byte Spill
	ldr	r0, [sp, #60]
	.loc	17 66 56                        @ ../communication/can/can_helpers.hpp:66:56
	adds	r0, #7
	.loc	17 66 43                        @ ../communication/can/can_helpers.hpp:66:43
	bl	_ZNSt3__23endB7v180000IhLj8EEEPT_RAT0__S1_
	mov	r1, r0
	.loc	17 66 9                         @ ../communication/can/can_helpers.hpp:66:9
	ldr	r0, [sp]                        @ 4-byte Reload
	bl	_ZNSt3__27reverseB7v180000IPhEEvT_S2_
	.loc	17 67 28 is_stmt 1              @ ../communication/can/can_helpers.hpp:67:28
	ldr	r1, [sp, #60]
	.loc	17 67 9 is_stmt 0               @ ../communication/can/can_helpers.hpp:67:9
	ldr.w	r0, [r1, #7]
	ldr.w	r1, [r1, #11]
	str	r1, [sp, #20]
	str	r0, [sp, #16]
	.loc	17 69 19 is_stmt 1              @ ../communication/can/can_helpers.hpp:69:19
	ldr	r0, [sp, #32]
	ldr.w	r12, [sp, #36]
	.loc	17 69 33 is_stmt 0              @ ../communication/can/can_helpers.hpp:69:33
	ldrb.w	r1, [sp, #55]
	.loc	17 69 44                        @ ../communication/can/can_helpers.hpp:69:44
	ldrb.w	r2, [sp, #54]
	.loc	17 69 42                        @ ../communication/can/can_helpers.hpp:69:42
	add	r1, r2
	rsb.w	r3, r1, #64
	.loc	17 69 24                        @ ../communication/can/can_helpers.hpp:69:24
	lsl.w	r2, r0, r3
	rsb.w	r1, r1, #32
	cmp	r1, #0
	it	pl
	movpl	r2, #0
	lsl.w	r12, r12, r3
	rsb.w	r3, r3, #32
	lsr.w	r3, r0, r3
	orr.w	r3, r3, r12
	lsls	r0, r1
	cmp	r1, #0
	it	pl
	movpl	r3, r0
	.loc	17 69 14                        @ ../communication/can/can_helpers.hpp:69:14
	ldr	r1, [sp, #16]
	ldr	r0, [sp, #20]
	bics	r0, r3
	bics	r1, r2
	str	r1, [sp, #16]
	str	r0, [sp, #20]
	.loc	17 70 17 is_stmt 1              @ ../communication/can/can_helpers.hpp:70:17
	ldr	r0, [sp, #40]
	ldr.w	r12, [sp, #44]
	.loc	17 70 36 is_stmt 0              @ ../communication/can/can_helpers.hpp:70:36
	ldrb.w	r1, [sp, #55]
	.loc	17 70 47                        @ ../communication/can/can_helpers.hpp:70:47
	ldrb.w	r2, [sp, #54]
	.loc	17 70 45                        @ ../communication/can/can_helpers.hpp:70:45
	add	r1, r2
	rsb.w	r3, r1, #64
	.loc	17 70 27                        @ ../communication/can/can_helpers.hpp:70:27
	lsl.w	r2, r0, r3
	rsb.w	r1, r1, #32
	cmp	r1, #0
	it	pl
	movpl	r2, #0
	lsl.w	r12, r12, r3
	rsb.w	r3, r3, #32
	lsr.w	r3, r0, r3
	orr.w	r3, r3, r12
	lsls	r0, r1
	cmp	r1, #0
	it	pl
	movpl	r3, r0
	.loc	17 70 14                        @ ../communication/can/can_helpers.hpp:70:14
	ldr	r1, [sp, #16]
	ldr	r0, [sp, #20]
	orrs	r0, r3
	orrs	r1, r2
	str	r1, [sp, #16]
	str	r0, [sp, #20]
	.loc	17 72 21 is_stmt 1              @ ../communication/can/can_helpers.hpp:72:21
	ldr	r1, [sp, #60]
	.loc	17 72 9 is_stmt 0               @ ../communication/can/can_helpers.hpp:72:9
	ldr	r0, [sp, #16]
	ldr	r2, [sp, #20]
	str.w	r2, [r1, #11]
	str.w	r0, [r1, #7]
	.loc	17 73 33 is_stmt 1              @ ../communication/can/can_helpers.hpp:73:33
	ldr	r0, [sp, #60]
	.loc	17 73 37 is_stmt 0              @ ../communication/can/can_helpers.hpp:73:37
	adds	r0, #7
	.loc	17 73 22                        @ ../communication/can/can_helpers.hpp:73:22
	bl	_ZNSt3__25beginB7v180000IhLj8EEEPT_RAT0__S1_
	.loc	17 73 52                        @ ../communication/can/can_helpers.hpp:73:52
	str	r0, [sp, #4]                    @ 4-byte Spill
	ldr	r0, [sp, #60]
	.loc	17 73 56                        @ ../communication/can/can_helpers.hpp:73:56
	adds	r0, #7
	.loc	17 73 43                        @ ../communication/can/can_helpers.hpp:73:43
	bl	_ZNSt3__23endB7v180000IhLj8EEEPT_RAT0__S1_
	mov	r1, r0
	.loc	17 73 9                         @ ../communication/can/can_helpers.hpp:73:9
	ldr	r0, [sp, #4]                    @ 4-byte Reload
	bl	_ZNSt3__27reverseB7v180000IPhEEvT_S2_
	b	.LBB45_6
.Ltmp170:
.LBB45_6:
	.loc	17 75 1 epilogue_begin is_stmt 1 @ ../communication/can/can_helpers.hpp:75:1
	add	sp, #64
	pop	{r7, pc}
.Ltmp171:
.Lfunc_end45:
	.size	_Z13can_setSignalIN10ODriveIntf11EncoderIntf5ErrorEEvR13can_Message_tRKT_hhb, .Lfunc_end45-_Z13can_setSignalIN10ODriveIntf11EncoderIntf5ErrorEEvR13can_Message_tRKT_hhb
	.cfi_endproc
	.cantunwind
	.fnend
                                        @ -- End function
	.section	.text._Z13can_setSignalIN10ODriveIntf23SensorlessEstimatorIntf5ErrorEEvR13can_Message_tRKT_hhb,"axG",%progbits,_Z13can_setSignalIN10ODriveIntf23SensorlessEstimatorIntf5ErrorEEvR13can_Message_tRKT_hhb,comdat
	.hidden	_Z13can_setSignalIN10ODriveIntf23SensorlessEstimatorIntf5ErrorEEvR13can_Message_tRKT_hhb @ -- Begin function _Z13can_setSignalIN10ODriveIntf23SensorlessEstimatorIntf5ErrorEEvR13can_Message_tRKT_hhb
	.weak	_Z13can_setSignalIN10ODriveIntf23SensorlessEstimatorIntf5ErrorEEvR13can_Message_tRKT_hhb
	.p2align	2
	.type	_Z13can_setSignalIN10ODriveIntf23SensorlessEstimatorIntf5ErrorEEvR13can_Message_tRKT_hhb,%function
	.code	16                              @ @_Z13can_setSignalIN10ODriveIntf23SensorlessEstimatorIntf5ErrorEEvR13can_Message_tRKT_hhb
	.thumb_func
_Z13can_setSignalIN10ODriveIntf23SensorlessEstimatorIntf5ErrorEEvR13can_Message_tRKT_hhb:
.Lfunc_begin46:
	.loc	17 50 0                         @ ../communication/can/can_helpers.hpp:50:0
	.fnstart
	.cfi_startproc
@ %bb.0:
	.save	{r7, lr}
	push	{r7, lr}
	.cfi_def_cfa_offset 8
	.cfi_offset lr, -4
	.cfi_offset r7, -8
	.pad	#64
	sub	sp, #64
	.cfi_def_cfa_offset 72
	mov	r12, r0
	ldr	r0, [sp, #72]
                                        @ kill: def $lr killed $r3
                                        @ kill: def $lr killed $r2
	str.w	r12, [sp, #60]
	str	r1, [sp, #56]
	strb.w	r2, [sp, #55]
	strb.w	r3, [sp, #54]
	strb.w	r0, [sp, #53]
	movs	r0, #0
.Ltmp172:
	.loc	17 51 14 prologue_end           @ ../communication/can/can_helpers.hpp:51:14
	str	r0, [sp, #44]
	str	r0, [sp, #40]
	.loc	17 52 30                        @ ../communication/can/can_helpers.hpp:52:30
	ldr	r0, [sp, #56]
	.loc	17 52 5 is_stmt 0               @ ../communication/can/can_helpers.hpp:52:5
	ldrb	r0, [r0]
	strb.w	r0, [sp, #40]
	.loc	17 54 21 is_stmt 1              @ ../communication/can/can_helpers.hpp:54:21
	ldrb.w	r0, [sp, #54]
	cmp	r0, #63
	bgt	.LBB46_2
	b	.LBB46_1
.LBB46_1:
	.loc	17 54 44 is_stmt 0              @ ../communication/can/can_helpers.hpp:54:44
	ldrb.w	r3, [sp, #54]
	.loc	17 54 41                        @ ../communication/can/can_helpers.hpp:54:41
	sub.w	r2, r3, #32
	movs	r1, #1
	lsl.w	r12, r1, r2
	rsb.w	r0, r3, #32
	lsr.w	r0, r1, r0
	cmp	r2, #0
	it	pl
	movpl	r0, r12
	lsls	r1, r3
	cmp	r2, #0
	it	pl
	movpl	r1, #0
	.loc	17 54 52                        @ ../communication/can/can_helpers.hpp:54:52
	subs	r1, #1
	sbc	r0, r0, #0
	str	r1, [sp, #8]                    @ 4-byte Spill
	.loc	17 54 21                        @ ../communication/can/can_helpers.hpp:54:21
	str	r0, [sp, #12]                   @ 4-byte Spill
	b	.LBB46_3
.LBB46_2:
	.loc	17 0 21                         @ ../communication/can/can_helpers.hpp:0:21
	mov.w	r1, #-1
	mov	r0, r1
	str	r1, [sp, #8]                    @ 4-byte Spill
	.loc	17 54 21                        @ ../communication/can/can_helpers.hpp:54:21
	str	r0, [sp, #12]                   @ 4-byte Spill
	b	.LBB46_3
.LBB46_3:
	ldr	r1, [sp, #8]                    @ 4-byte Reload
	ldr	r0, [sp, #12]                   @ 4-byte Reload
	.loc	17 54 14                        @ ../communication/can/can_helpers.hpp:54:14
	str	r1, [sp, #32]
	str	r0, [sp, #36]
.Ltmp173:
	.loc	17 56 9 is_stmt 1               @ ../communication/can/can_helpers.hpp:56:9
	ldrb.w	r0, [sp, #53]
.Ltmp174:
	.loc	17 56 9 is_stmt 0               @ ../communication/can/can_helpers.hpp:56:9
	lsls	r0, r0, #31
	cmp	r0, #0
	beq	.LBB46_5
	b	.LBB46_4
.LBB46_4:
	.loc	17 0 9                          @ ../communication/can/can_helpers.hpp:0:9
	movs	r0, #0
.Ltmp175:
	.loc	17 57 18 is_stmt 1              @ ../communication/can/can_helpers.hpp:57:18
	str	r0, [sp, #28]
	str	r0, [sp, #24]
	.loc	17 58 28                        @ ../communication/can/can_helpers.hpp:58:28
	ldr	r1, [sp, #60]
	.loc	17 58 9 is_stmt 0               @ ../communication/can/can_helpers.hpp:58:9
	ldr.w	r0, [r1, #7]
	ldr.w	r1, [r1, #11]
	str	r1, [sp, #28]
	str	r0, [sp, #24]
	.loc	17 60 19 is_stmt 1              @ ../communication/can/can_helpers.hpp:60:19
	ldr	r1, [sp, #32]
	ldr	r0, [sp, #36]
	.loc	17 60 27 is_stmt 0              @ ../communication/can/can_helpers.hpp:60:27
	ldrb.w	r2, [sp, #55]
	.loc	17 60 24                        @ ../communication/can/can_helpers.hpp:60:24
	lsl.w	r3, r0, r2
	rsb.w	r0, r2, #32
	lsr.w	r0, r1, r0
	orrs	r3, r0
	sub.w	r0, r2, #32
	lsl.w	r12, r1, r0
	cmp	r0, #0
	it	pl
	movpl	r3, r12
	lsl.w	r2, r1, r2
	cmp	r0, #0
	it	pl
	movpl	r2, #0
	.loc	17 60 14                        @ ../communication/can/can_helpers.hpp:60:14
	ldr	r1, [sp, #24]
	ldr	r0, [sp, #28]
	bics	r0, r3
	bics	r1, r2
	str	r1, [sp, #24]
	str	r0, [sp, #28]
	.loc	17 61 17 is_stmt 1              @ ../communication/can/can_helpers.hpp:61:17
	ldr	r1, [sp, #40]
	ldr	r0, [sp, #44]
	.loc	17 61 30 is_stmt 0              @ ../communication/can/can_helpers.hpp:61:30
	ldrb.w	r2, [sp, #55]
	.loc	17 61 27                        @ ../communication/can/can_helpers.hpp:61:27
	lsl.w	r3, r0, r2
	rsb.w	r0, r2, #32
	lsr.w	r0, r1, r0
	orrs	r3, r0
	sub.w	r0, r2, #32
	lsl.w	r12, r1, r0
	cmp	r0, #0
	it	pl
	movpl	r3, r12
	lsl.w	r2, r1, r2
	cmp	r0, #0
	it	pl
	movpl	r2, #0
	.loc	17 61 14                        @ ../communication/can/can_helpers.hpp:61:14
	ldr	r1, [sp, #24]
	ldr	r0, [sp, #28]
	orrs	r0, r3
	orrs	r1, r2
	str	r1, [sp, #24]
	str	r0, [sp, #28]
	.loc	17 63 21 is_stmt 1              @ ../communication/can/can_helpers.hpp:63:21
	ldr	r1, [sp, #60]
	.loc	17 63 9 is_stmt 0               @ ../communication/can/can_helpers.hpp:63:9
	ldr	r0, [sp, #24]
	ldr	r2, [sp, #28]
	str.w	r2, [r1, #11]
	str.w	r0, [r1, #7]
	.loc	17 64 5 is_stmt 1               @ ../communication/can/can_helpers.hpp:64:5
	b	.LBB46_6
.Ltmp176:
.LBB46_5:
	.loc	17 0 5 is_stmt 0                @ ../communication/can/can_helpers.hpp:0:5
	movs	r0, #0
.Ltmp177:
	.loc	17 65 18 is_stmt 1              @ ../communication/can/can_helpers.hpp:65:18
	str	r0, [sp, #20]
	str	r0, [sp, #16]
	.loc	17 66 33                        @ ../communication/can/can_helpers.hpp:66:33
	ldr	r0, [sp, #60]
	.loc	17 66 37 is_stmt 0              @ ../communication/can/can_helpers.hpp:66:37
	adds	r0, #7
	.loc	17 66 22                        @ ../communication/can/can_helpers.hpp:66:22
	bl	_ZNSt3__25beginB7v180000IhLj8EEEPT_RAT0__S1_
	.loc	17 66 52                        @ ../communication/can/can_helpers.hpp:66:52
	str	r0, [sp]                        @ 4-byte Spill
	ldr	r0, [sp, #60]
	.loc	17 66 56                        @ ../communication/can/can_helpers.hpp:66:56
	adds	r0, #7
	.loc	17 66 43                        @ ../communication/can/can_helpers.hpp:66:43
	bl	_ZNSt3__23endB7v180000IhLj8EEEPT_RAT0__S1_
	mov	r1, r0
	.loc	17 66 9                         @ ../communication/can/can_helpers.hpp:66:9
	ldr	r0, [sp]                        @ 4-byte Reload
	bl	_ZNSt3__27reverseB7v180000IPhEEvT_S2_
	.loc	17 67 28 is_stmt 1              @ ../communication/can/can_helpers.hpp:67:28
	ldr	r1, [sp, #60]
	.loc	17 67 9 is_stmt 0               @ ../communication/can/can_helpers.hpp:67:9
	ldr.w	r0, [r1, #7]
	ldr.w	r1, [r1, #11]
	str	r1, [sp, #20]
	str	r0, [sp, #16]
	.loc	17 69 19 is_stmt 1              @ ../communication/can/can_helpers.hpp:69:19
	ldr	r0, [sp, #32]
	ldr.w	r12, [sp, #36]
	.loc	17 69 33 is_stmt 0              @ ../communication/can/can_helpers.hpp:69:33
	ldrb.w	r1, [sp, #55]
	.loc	17 69 44                        @ ../communication/can/can_helpers.hpp:69:44
	ldrb.w	r2, [sp, #54]
	.loc	17 69 42                        @ ../communication/can/can_helpers.hpp:69:42
	add	r1, r2
	rsb.w	r3, r1, #64
	.loc	17 69 24                        @ ../communication/can/can_helpers.hpp:69:24
	lsl.w	r2, r0, r3
	rsb.w	r1, r1, #32
	cmp	r1, #0
	it	pl
	movpl	r2, #0
	lsl.w	r12, r12, r3
	rsb.w	r3, r3, #32
	lsr.w	r3, r0, r3
	orr.w	r3, r3, r12
	lsls	r0, r1
	cmp	r1, #0
	it	pl
	movpl	r3, r0
	.loc	17 69 14                        @ ../communication/can/can_helpers.hpp:69:14
	ldr	r1, [sp, #16]
	ldr	r0, [sp, #20]
	bics	r0, r3
	bics	r1, r2
	str	r1, [sp, #16]
	str	r0, [sp, #20]
	.loc	17 70 17 is_stmt 1              @ ../communication/can/can_helpers.hpp:70:17
	ldr	r0, [sp, #40]
	ldr.w	r12, [sp, #44]
	.loc	17 70 36 is_stmt 0              @ ../communication/can/can_helpers.hpp:70:36
	ldrb.w	r1, [sp, #55]
	.loc	17 70 47                        @ ../communication/can/can_helpers.hpp:70:47
	ldrb.w	r2, [sp, #54]
	.loc	17 70 45                        @ ../communication/can/can_helpers.hpp:70:45
	add	r1, r2
	rsb.w	r3, r1, #64
	.loc	17 70 27                        @ ../communication/can/can_helpers.hpp:70:27
	lsl.w	r2, r0, r3
	rsb.w	r1, r1, #32
	cmp	r1, #0
	it	pl
	movpl	r2, #0
	lsl.w	r12, r12, r3
	rsb.w	r3, r3, #32
	lsr.w	r3, r0, r3
	orr.w	r3, r3, r12
	lsls	r0, r1
	cmp	r1, #0
	it	pl
	movpl	r3, r0
	.loc	17 70 14                        @ ../communication/can/can_helpers.hpp:70:14
	ldr	r1, [sp, #16]
	ldr	r0, [sp, #20]
	orrs	r0, r3
	orrs	r1, r2
	str	r1, [sp, #16]
	str	r0, [sp, #20]
	.loc	17 72 21 is_stmt 1              @ ../communication/can/can_helpers.hpp:72:21
	ldr	r1, [sp, #60]
	.loc	17 72 9 is_stmt 0               @ ../communication/can/can_helpers.hpp:72:9
	ldr	r0, [sp, #16]
	ldr	r2, [sp, #20]
	str.w	r2, [r1, #11]
	str.w	r0, [r1, #7]
	.loc	17 73 33 is_stmt 1              @ ../communication/can/can_helpers.hpp:73:33
	ldr	r0, [sp, #60]
	.loc	17 73 37 is_stmt 0              @ ../communication/can/can_helpers.hpp:73:37
	adds	r0, #7
	.loc	17 73 22                        @ ../communication/can/can_helpers.hpp:73:22
	bl	_ZNSt3__25beginB7v180000IhLj8EEEPT_RAT0__S1_
	.loc	17 73 52                        @ ../communication/can/can_helpers.hpp:73:52
	str	r0, [sp, #4]                    @ 4-byte Spill
	ldr	r0, [sp, #60]
	.loc	17 73 56                        @ ../communication/can/can_helpers.hpp:73:56
	adds	r0, #7
	.loc	17 73 43                        @ ../communication/can/can_helpers.hpp:73:43
	bl	_ZNSt3__23endB7v180000IhLj8EEEPT_RAT0__S1_
	mov	r1, r0
	.loc	17 73 9                         @ ../communication/can/can_helpers.hpp:73:9
	ldr	r0, [sp, #4]                    @ 4-byte Reload
	bl	_ZNSt3__27reverseB7v180000IPhEEvT_S2_
	b	.LBB46_6
.Ltmp178:
.LBB46_6:
	.loc	17 75 1 epilogue_begin is_stmt 1 @ ../communication/can/can_helpers.hpp:75:1
	add	sp, #64
	pop	{r7, pc}
.Ltmp179:
.Lfunc_end46:
	.size	_Z13can_setSignalIN10ODriveIntf23SensorlessEstimatorIntf5ErrorEEvR13can_Message_tRKT_hhb, .Lfunc_end46-_Z13can_setSignalIN10ODriveIntf23SensorlessEstimatorIntf5ErrorEEvR13can_Message_tRKT_hhb
	.cfi_endproc
	.cantunwind
	.fnend
                                        @ -- End function
	.section	.text._Z13can_setSignalIN10ODriveIntf14ControllerIntf5ErrorEEvR13can_Message_tRKT_hhb,"axG",%progbits,_Z13can_setSignalIN10ODriveIntf14ControllerIntf5ErrorEEvR13can_Message_tRKT_hhb,comdat
	.hidden	_Z13can_setSignalIN10ODriveIntf14ControllerIntf5ErrorEEvR13can_Message_tRKT_hhb @ -- Begin function _Z13can_setSignalIN10ODriveIntf14ControllerIntf5ErrorEEvR13can_Message_tRKT_hhb
	.weak	_Z13can_setSignalIN10ODriveIntf14ControllerIntf5ErrorEEvR13can_Message_tRKT_hhb
	.p2align	2
	.type	_Z13can_setSignalIN10ODriveIntf14ControllerIntf5ErrorEEvR13can_Message_tRKT_hhb,%function
	.code	16                              @ @_Z13can_setSignalIN10ODriveIntf14ControllerIntf5ErrorEEvR13can_Message_tRKT_hhb
	.thumb_func
_Z13can_setSignalIN10ODriveIntf14ControllerIntf5ErrorEEvR13can_Message_tRKT_hhb:
.Lfunc_begin47:
	.loc	17 50 0                         @ ../communication/can/can_helpers.hpp:50:0
	.fnstart
	.cfi_startproc
@ %bb.0:
	.save	{r7, lr}
	push	{r7, lr}
	.cfi_def_cfa_offset 8
	.cfi_offset lr, -4
	.cfi_offset r7, -8
	.pad	#64
	sub	sp, #64
	.cfi_def_cfa_offset 72
	mov	r12, r0
	ldr	r0, [sp, #72]
                                        @ kill: def $lr killed $r3
                                        @ kill: def $lr killed $r2
	str.w	r12, [sp, #60]
	str	r1, [sp, #56]
	strb.w	r2, [sp, #55]
	strb.w	r3, [sp, #54]
	strb.w	r0, [sp, #53]
	movs	r0, #0
.Ltmp180:
	.loc	17 51 14 prologue_end           @ ../communication/can/can_helpers.hpp:51:14
	str	r0, [sp, #44]
	str	r0, [sp, #40]
	.loc	17 52 30                        @ ../communication/can/can_helpers.hpp:52:30
	ldr	r0, [sp, #56]
	.loc	17 52 5 is_stmt 0               @ ../communication/can/can_helpers.hpp:52:5
	ldrh	r0, [r0]
	strh.w	r0, [sp, #40]
	.loc	17 54 21 is_stmt 1              @ ../communication/can/can_helpers.hpp:54:21
	ldrb.w	r0, [sp, #54]
	cmp	r0, #63
	bgt	.LBB47_2
	b	.LBB47_1
.LBB47_1:
	.loc	17 54 44 is_stmt 0              @ ../communication/can/can_helpers.hpp:54:44
	ldrb.w	r3, [sp, #54]
	.loc	17 54 41                        @ ../communication/can/can_helpers.hpp:54:41
	sub.w	r2, r3, #32
	movs	r1, #1
	lsl.w	r12, r1, r2
	rsb.w	r0, r3, #32
	lsr.w	r0, r1, r0
	cmp	r2, #0
	it	pl
	movpl	r0, r12
	lsls	r1, r3
	cmp	r2, #0
	it	pl
	movpl	r1, #0
	.loc	17 54 52                        @ ../communication/can/can_helpers.hpp:54:52
	subs	r1, #1
	sbc	r0, r0, #0
	str	r1, [sp, #8]                    @ 4-byte Spill
	.loc	17 54 21                        @ ../communication/can/can_helpers.hpp:54:21
	str	r0, [sp, #12]                   @ 4-byte Spill
	b	.LBB47_3
.LBB47_2:
	.loc	17 0 21                         @ ../communication/can/can_helpers.hpp:0:21
	mov.w	r1, #-1
	mov	r0, r1
	str	r1, [sp, #8]                    @ 4-byte Spill
	.loc	17 54 21                        @ ../communication/can/can_helpers.hpp:54:21
	str	r0, [sp, #12]                   @ 4-byte Spill
	b	.LBB47_3
.LBB47_3:
	ldr	r1, [sp, #8]                    @ 4-byte Reload
	ldr	r0, [sp, #12]                   @ 4-byte Reload
	.loc	17 54 14                        @ ../communication/can/can_helpers.hpp:54:14
	str	r1, [sp, #32]
	str	r0, [sp, #36]
.Ltmp181:
	.loc	17 56 9 is_stmt 1               @ ../communication/can/can_helpers.hpp:56:9
	ldrb.w	r0, [sp, #53]
.Ltmp182:
	.loc	17 56 9 is_stmt 0               @ ../communication/can/can_helpers.hpp:56:9
	lsls	r0, r0, #31
	cmp	r0, #0
	beq	.LBB47_5
	b	.LBB47_4
.LBB47_4:
	.loc	17 0 9                          @ ../communication/can/can_helpers.hpp:0:9
	movs	r0, #0
.Ltmp183:
	.loc	17 57 18 is_stmt 1              @ ../communication/can/can_helpers.hpp:57:18
	str	r0, [sp, #28]
	str	r0, [sp, #24]
	.loc	17 58 28                        @ ../communication/can/can_helpers.hpp:58:28
	ldr	r1, [sp, #60]
	.loc	17 58 9 is_stmt 0               @ ../communication/can/can_helpers.hpp:58:9
	ldr.w	r0, [r1, #7]
	ldr.w	r1, [r1, #11]
	str	r1, [sp, #28]
	str	r0, [sp, #24]
	.loc	17 60 19 is_stmt 1              @ ../communication/can/can_helpers.hpp:60:19
	ldr	r1, [sp, #32]
	ldr	r0, [sp, #36]
	.loc	17 60 27 is_stmt 0              @ ../communication/can/can_helpers.hpp:60:27
	ldrb.w	r2, [sp, #55]
	.loc	17 60 24                        @ ../communication/can/can_helpers.hpp:60:24
	lsl.w	r3, r0, r2
	rsb.w	r0, r2, #32
	lsr.w	r0, r1, r0
	orrs	r3, r0
	sub.w	r0, r2, #32
	lsl.w	r12, r1, r0
	cmp	r0, #0
	it	pl
	movpl	r3, r12
	lsl.w	r2, r1, r2
	cmp	r0, #0
	it	pl
	movpl	r2, #0
	.loc	17 60 14                        @ ../communication/can/can_helpers.hpp:60:14
	ldr	r1, [sp, #24]
	ldr	r0, [sp, #28]
	bics	r0, r3
	bics	r1, r2
	str	r1, [sp, #24]
	str	r0, [sp, #28]
	.loc	17 61 17 is_stmt 1              @ ../communication/can/can_helpers.hpp:61:17
	ldr	r1, [sp, #40]
	ldr	r0, [sp, #44]
	.loc	17 61 30 is_stmt 0              @ ../communication/can/can_helpers.hpp:61:30
	ldrb.w	r2, [sp, #55]
	.loc	17 61 27                        @ ../communication/can/can_helpers.hpp:61:27
	lsl.w	r3, r0, r2
	rsb.w	r0, r2, #32
	lsr.w	r0, r1, r0
	orrs	r3, r0
	sub.w	r0, r2, #32
	lsl.w	r12, r1, r0
	cmp	r0, #0
	it	pl
	movpl	r3, r12
	lsl.w	r2, r1, r2
	cmp	r0, #0
	it	pl
	movpl	r2, #0
	.loc	17 61 14                        @ ../communication/can/can_helpers.hpp:61:14
	ldr	r1, [sp, #24]
	ldr	r0, [sp, #28]
	orrs	r0, r3
	orrs	r1, r2
	str	r1, [sp, #24]
	str	r0, [sp, #28]
	.loc	17 63 21 is_stmt 1              @ ../communication/can/can_helpers.hpp:63:21
	ldr	r1, [sp, #60]
	.loc	17 63 9 is_stmt 0               @ ../communication/can/can_helpers.hpp:63:9
	ldr	r0, [sp, #24]
	ldr	r2, [sp, #28]
	str.w	r2, [r1, #11]
	str.w	r0, [r1, #7]
	.loc	17 64 5 is_stmt 1               @ ../communication/can/can_helpers.hpp:64:5
	b	.LBB47_6
.Ltmp184:
.LBB47_5:
	.loc	17 0 5 is_stmt 0                @ ../communication/can/can_helpers.hpp:0:5
	movs	r0, #0
.Ltmp185:
	.loc	17 65 18 is_stmt 1              @ ../communication/can/can_helpers.hpp:65:18
	str	r0, [sp, #20]
	str	r0, [sp, #16]
	.loc	17 66 33                        @ ../communication/can/can_helpers.hpp:66:33
	ldr	r0, [sp, #60]
	.loc	17 66 37 is_stmt 0              @ ../communication/can/can_helpers.hpp:66:37
	adds	r0, #7
	.loc	17 66 22                        @ ../communication/can/can_helpers.hpp:66:22
	bl	_ZNSt3__25beginB7v180000IhLj8EEEPT_RAT0__S1_
	.loc	17 66 52                        @ ../communication/can/can_helpers.hpp:66:52
	str	r0, [sp]                        @ 4-byte Spill
	ldr	r0, [sp, #60]
	.loc	17 66 56                        @ ../communication/can/can_helpers.hpp:66:56
	adds	r0, #7
	.loc	17 66 43                        @ ../communication/can/can_helpers.hpp:66:43
	bl	_ZNSt3__23endB7v180000IhLj8EEEPT_RAT0__S1_
	mov	r1, r0
	.loc	17 66 9                         @ ../communication/can/can_helpers.hpp:66:9
	ldr	r0, [sp]                        @ 4-byte Reload
	bl	_ZNSt3__27reverseB7v180000IPhEEvT_S2_
	.loc	17 67 28 is_stmt 1              @ ../communication/can/can_helpers.hpp:67:28
	ldr	r1, [sp, #60]
	.loc	17 67 9 is_stmt 0               @ ../communication/can/can_helpers.hpp:67:9
	ldr.w	r0, [r1, #7]
	ldr.w	r1, [r1, #11]
	str	r1, [sp, #20]
	str	r0, [sp, #16]
	.loc	17 69 19 is_stmt 1              @ ../communication/can/can_helpers.hpp:69:19
	ldr	r0, [sp, #32]
	ldr.w	r12, [sp, #36]
	.loc	17 69 33 is_stmt 0              @ ../communication/can/can_helpers.hpp:69:33
	ldrb.w	r1, [sp, #55]
	.loc	17 69 44                        @ ../communication/can/can_helpers.hpp:69:44
	ldrb.w	r2, [sp, #54]
	.loc	17 69 42                        @ ../communication/can/can_helpers.hpp:69:42
	add	r1, r2
	rsb.w	r3, r1, #64
	.loc	17 69 24                        @ ../communication/can/can_helpers.hpp:69:24
	lsl.w	r2, r0, r3
	rsb.w	r1, r1, #32
	cmp	r1, #0
	it	pl
	movpl	r2, #0
	lsl.w	r12, r12, r3
	rsb.w	r3, r3, #32
	lsr.w	r3, r0, r3
	orr.w	r3, r3, r12
	lsls	r0, r1
	cmp	r1, #0
	it	pl
	movpl	r3, r0
	.loc	17 69 14                        @ ../communication/can/can_helpers.hpp:69:14
	ldr	r1, [sp, #16]
	ldr	r0, [sp, #20]
	bics	r0, r3
	bics	r1, r2
	str	r1, [sp, #16]
	str	r0, [sp, #20]
	.loc	17 70 17 is_stmt 1              @ ../communication/can/can_helpers.hpp:70:17
	ldr	r0, [sp, #40]
	ldr.w	r12, [sp, #44]
	.loc	17 70 36 is_stmt 0              @ ../communication/can/can_helpers.hpp:70:36
	ldrb.w	r1, [sp, #55]
	.loc	17 70 47                        @ ../communication/can/can_helpers.hpp:70:47
	ldrb.w	r2, [sp, #54]
	.loc	17 70 45                        @ ../communication/can/can_helpers.hpp:70:45
	add	r1, r2
	rsb.w	r3, r1, #64
	.loc	17 70 27                        @ ../communication/can/can_helpers.hpp:70:27
	lsl.w	r2, r0, r3
	rsb.w	r1, r1, #32
	cmp	r1, #0
	it	pl
	movpl	r2, #0
	lsl.w	r12, r12, r3
	rsb.w	r3, r3, #32
	lsr.w	r3, r0, r3
	orr.w	r3, r3, r12
	lsls	r0, r1
	cmp	r1, #0
	it	pl
	movpl	r3, r0
	.loc	17 70 14                        @ ../communication/can/can_helpers.hpp:70:14
	ldr	r1, [sp, #16]
	ldr	r0, [sp, #20]
	orrs	r0, r3
	orrs	r1, r2
	str	r1, [sp, #16]
	str	r0, [sp, #20]
	.loc	17 72 21 is_stmt 1              @ ../communication/can/can_helpers.hpp:72:21
	ldr	r1, [sp, #60]
	.loc	17 72 9 is_stmt 0               @ ../communication/can/can_helpers.hpp:72:9
	ldr	r0, [sp, #16]
	ldr	r2, [sp, #20]
	str.w	r2, [r1, #11]
	str.w	r0, [r1, #7]
	.loc	17 73 33 is_stmt 1              @ ../communication/can/can_helpers.hpp:73:33
	ldr	r0, [sp, #60]
	.loc	17 73 37 is_stmt 0              @ ../communication/can/can_helpers.hpp:73:37
	adds	r0, #7
	.loc	17 73 22                        @ ../communication/can/can_helpers.hpp:73:22
	bl	_ZNSt3__25beginB7v180000IhLj8EEEPT_RAT0__S1_
	.loc	17 73 52                        @ ../communication/can/can_helpers.hpp:73:52
	str	r0, [sp, #4]                    @ 4-byte Spill
	ldr	r0, [sp, #60]
	.loc	17 73 56                        @ ../communication/can/can_helpers.hpp:73:56
	adds	r0, #7
	.loc	17 73 43                        @ ../communication/can/can_helpers.hpp:73:43
	bl	_ZNSt3__23endB7v180000IhLj8EEEPT_RAT0__S1_
	mov	r1, r0
	.loc	17 73 9                         @ ../communication/can/can_helpers.hpp:73:9
	ldr	r0, [sp, #4]                    @ 4-byte Reload
	bl	_ZNSt3__27reverseB7v180000IPhEEvT_S2_
	b	.LBB47_6
.Ltmp186:
.LBB47_6:
	.loc	17 75 1 epilogue_begin is_stmt 1 @ ../communication/can/can_helpers.hpp:75:1
	add	sp, #64
	pop	{r7, pc}
.Ltmp187:
.Lfunc_end47:
	.size	_Z13can_setSignalIN10ODriveIntf14ControllerIntf5ErrorEEvR13can_Message_tRKT_hhb, .Lfunc_end47-_Z13can_setSignalIN10ODriveIntf14ControllerIntf5ErrorEEvR13can_Message_tRKT_hhb
	.cfi_endproc
	.cantunwind
	.fnend
                                        @ -- End function
	.section	.text._Z13can_getSignalIjET_13can_Message_thhb,"axG",%progbits,_Z13can_getSignalIjET_13can_Message_thhb,comdat
	.hidden	_Z13can_getSignalIjET_13can_Message_thhb @ -- Begin function _Z13can_getSignalIjET_13can_Message_thhb
	.weak	_Z13can_getSignalIjET_13can_Message_thhb
	.p2align	2
	.type	_Z13can_getSignalIjET_13can_Message_thhb,%function
	.code	16                              @ @_Z13can_getSignalIjET_13can_Message_thhb
	.thumb_func
_Z13can_getSignalIjET_13can_Message_thhb:
.Lfunc_begin48:
	.loc	17 31 0                         @ ../communication/can/can_helpers.hpp:31:0
	.fnstart
	.cfi_startproc
@ %bb.0:
	.save	{r4, lr}
	push	{r4, lr}
	.cfi_def_cfa_offset 8
	.cfi_offset lr, -4
	.cfi_offset r4, -8
	.pad	#64
	sub	sp, #64
	.cfi_def_cfa_offset 72
	mov	r4, r3
	mov	lr, r2
	mov	r12, r1
	mov	r3, r0
                                        @ kill: def $r0 killed $r4
                                        @ kill: def $r2 killed $lr
                                        @ kill: def $r1 killed $r12
                                        @ kill: def $r0 killed $r3
	ldr	r0, [sp, #80]
	ldr	r1, [sp, #76]
	ldr	r2, [sp, #72]
	str	r4, [sp, #60]
	str.w	lr, [sp, #56]
	str.w	r12, [sp, #52]
	str	r3, [sp, #48]
	strb.w	r2, [sp, #47]
	strb.w	r1, [sp, #46]
	strb.w	r0, [sp, #45]
	movs	r0, #0
.Ltmp188:
	.loc	17 32 14 prologue_end           @ ../communication/can/can_helpers.hpp:32:14
	str	r0, [sp, #36]
	str	r0, [sp, #32]
	.loc	17 33 21                        @ ../communication/can/can_helpers.hpp:33:21
	ldrb.w	r0, [sp, #46]
	cmp	r0, #63
	bgt	.LBB48_2
	b	.LBB48_1
.LBB48_1:
	.loc	17 33 44 is_stmt 0              @ ../communication/can/can_helpers.hpp:33:44
	ldrb.w	r3, [sp, #46]
	.loc	17 33 41                        @ ../communication/can/can_helpers.hpp:33:41
	sub.w	r2, r3, #32
	movs	r1, #1
	lsl.w	r12, r1, r2
	rsb.w	r0, r3, #32
	lsr.w	r0, r1, r0
	cmp	r2, #0
	it	pl
	movpl	r0, r12
	lsls	r1, r3
	cmp	r2, #0
	it	pl
	movpl	r1, #0
	.loc	17 33 52                        @ ../communication/can/can_helpers.hpp:33:52
	subs	r1, #1
	sbc	r0, r0, #0
	str	r1, [sp, #12]                   @ 4-byte Spill
	.loc	17 33 21                        @ ../communication/can/can_helpers.hpp:33:21
	str	r0, [sp, #16]                   @ 4-byte Spill
	b	.LBB48_3
.LBB48_2:
	.loc	17 0 21                         @ ../communication/can/can_helpers.hpp:0:21
	mov.w	r1, #-1
	mov	r0, r1
	str	r1, [sp, #12]                   @ 4-byte Spill
	.loc	17 33 21                        @ ../communication/can/can_helpers.hpp:33:21
	str	r0, [sp, #16]                   @ 4-byte Spill
	b	.LBB48_3
.LBB48_3:
	ldr	r1, [sp, #12]                   @ 4-byte Reload
	ldr	r0, [sp, #16]                   @ 4-byte Reload
	.loc	17 33 14                        @ ../communication/can/can_helpers.hpp:33:14
	str	r1, [sp, #24]
	str	r0, [sp, #28]
.Ltmp189:
	.loc	17 35 9 is_stmt 1               @ ../communication/can/can_helpers.hpp:35:9
	ldrb.w	r0, [sp, #45]
.Ltmp190:
	.loc	17 35 9 is_stmt 0               @ ../communication/can/can_helpers.hpp:35:9
	lsls	r0, r0, #31
	cbz	r0, .LBB48_5
	b	.LBB48_4
.LBB48_4:
.Ltmp191:
	.loc	17 36 9 is_stmt 1               @ ../communication/can/can_helpers.hpp:36:9
	ldr.w	r0, [sp, #55]
	ldr.w	r1, [sp, #59]
	str	r1, [sp, #36]
	str	r0, [sp, #32]
	.loc	17 37 20                        @ ../communication/can/can_helpers.hpp:37:20
	ldr	r0, [sp, #32]
	ldr	r1, [sp, #36]
	.loc	17 37 31 is_stmt 0              @ ../communication/can/can_helpers.hpp:37:31
	ldrb.w	r3, [sp, #47]
	.loc	17 37 28                        @ ../communication/can/can_helpers.hpp:37:28
	lsrs	r0, r3
	rsb.w	r2, r3, #32
	lsl.w	r2, r1, r2
	orrs	r0, r2
	sub.w	r2, r3, #32
	lsr.w	r12, r1, r2
	cmp	r2, #0
	it	pl
	movpl	r0, r12
	lsrs	r1, r3
	cmp	r2, #0
	it	pl
	movpl	r1, #0
	.loc	17 37 43                        @ ../communication/can/can_helpers.hpp:37:43
	ldr	r3, [sp, #24]
	ldr	r2, [sp, #28]
	.loc	17 37 41                        @ ../communication/can/can_helpers.hpp:37:41
	ands	r0, r3
	ands	r1, r2
	.loc	17 37 17                        @ ../communication/can/can_helpers.hpp:37:17
	str	r1, [sp, #36]
	str	r0, [sp, #32]
	.loc	17 38 5 is_stmt 1               @ ../communication/can/can_helpers.hpp:38:5
	b	.LBB48_6
.Ltmp192:
.LBB48_5:
	.loc	17 0 5 is_stmt 0                @ ../communication/can/can_helpers.hpp:0:5
	add	r0, sp, #48
.Ltmp193:
	.loc	17 39 37 is_stmt 1              @ ../communication/can/can_helpers.hpp:39:37
	adds	r0, #7
	.loc	17 39 22 is_stmt 0              @ ../communication/can/can_helpers.hpp:39:22
	str	r0, [sp, #4]                    @ 4-byte Spill
	bl	_ZNSt3__25beginB7v180000IhLj8EEEPT_RAT0__S1_
	mov	r1, r0
	.loc	17 39 43                        @ ../communication/can/can_helpers.hpp:39:43
	ldr	r0, [sp, #4]                    @ 4-byte Reload
	str	r1, [sp, #8]                    @ 4-byte Spill
	bl	_ZNSt3__23endB7v180000IhLj8EEEPT_RAT0__S1_
	mov	r1, r0
	.loc	17 39 9                         @ ../communication/can/can_helpers.hpp:39:9
	ldr	r0, [sp, #8]                    @ 4-byte Reload
	bl	_ZNSt3__27reverseB7v180000IPhEEvT_S2_
	.loc	17 40 9 is_stmt 1               @ ../communication/can/can_helpers.hpp:40:9
	ldr.w	r0, [sp, #55]
	ldr.w	r1, [sp, #59]
	str	r1, [sp, #36]
	str	r0, [sp, #32]
	.loc	17 41 20                        @ ../communication/can/can_helpers.hpp:41:20
	ldr	r0, [sp, #32]
	ldr	r2, [sp, #36]
	.loc	17 41 37 is_stmt 0              @ ../communication/can/can_helpers.hpp:41:37
	ldrb.w	r1, [sp, #47]
	.loc	17 41 48                        @ ../communication/can/can_helpers.hpp:41:48
	ldrb.w	r3, [sp, #46]
	.loc	17 41 46                        @ ../communication/can/can_helpers.hpp:41:46
	add	r3, r1
	rsb.w	r12, r3, #64
	.loc	17 41 28                        @ ../communication/can/can_helpers.hpp:41:28
	lsr.w	r1, r2, r12
	rsb.w	r3, r3, #32
	cmp	r3, #0
	it	pl
	movpl	r1, #0
	lsr.w	r0, r0, r12
	rsb.w	r12, r12, #32
	lsl.w	r12, r2, r12
	orr.w	r0, r0, r12
	lsrs	r2, r3
	cmp	r3, #0
	it	pl
	movpl	r0, r2
	.loc	17 41 59                        @ ../communication/can/can_helpers.hpp:41:59
	ldr	r3, [sp, #24]
	ldr	r2, [sp, #28]
	.loc	17 41 57                        @ ../communication/can/can_helpers.hpp:41:57
	ands	r0, r3
	ands	r1, r2
	.loc	17 41 17                        @ ../communication/can/can_helpers.hpp:41:17
	str	r1, [sp, #36]
	str	r0, [sp, #32]
	b	.LBB48_6
.Ltmp194:
.LBB48_6:
	.loc	17 45 5 is_stmt 1               @ ../communication/can/can_helpers.hpp:45:5
	ldr	r0, [sp, #32]
	str	r0, [sp, #20]
	.loc	17 46 12                        @ ../communication/can/can_helpers.hpp:46:12
	ldr	r0, [sp, #20]
	.loc	17 46 5 epilogue_begin is_stmt 0 @ ../communication/can/can_helpers.hpp:46:5
	add	sp, #64
	pop	{r4, pc}
.Ltmp195:
.Lfunc_end48:
	.size	_Z13can_getSignalIjET_13can_Message_thhb, .Lfunc_end48-_Z13can_getSignalIjET_13can_Message_thhb
	.cfi_endproc
	.cantunwind
	.fnend
                                        @ -- End function
	.section	.text._Z13can_getSignalIiET_13can_Message_thhb,"axG",%progbits,_Z13can_getSignalIiET_13can_Message_thhb,comdat
	.hidden	_Z13can_getSignalIiET_13can_Message_thhb @ -- Begin function _Z13can_getSignalIiET_13can_Message_thhb
	.weak	_Z13can_getSignalIiET_13can_Message_thhb
	.p2align	2
	.type	_Z13can_getSignalIiET_13can_Message_thhb,%function
	.code	16                              @ @_Z13can_getSignalIiET_13can_Message_thhb
	.thumb_func
_Z13can_getSignalIiET_13can_Message_thhb:
.Lfunc_begin49:
	.loc	17 31 0 is_stmt 1               @ ../communication/can/can_helpers.hpp:31:0
	.fnstart
	.cfi_startproc
@ %bb.0:
	.save	{r4, lr}
	push	{r4, lr}
	.cfi_def_cfa_offset 8
	.cfi_offset lr, -4
	.cfi_offset r4, -8
	.pad	#64
	sub	sp, #64
	.cfi_def_cfa_offset 72
	mov	r4, r3
	mov	lr, r2
	mov	r12, r1
	mov	r3, r0
                                        @ kill: def $r0 killed $r4
                                        @ kill: def $r2 killed $lr
                                        @ kill: def $r1 killed $r12
                                        @ kill: def $r0 killed $r3
	ldr	r0, [sp, #80]
	ldr	r1, [sp, #76]
	ldr	r2, [sp, #72]
	str	r4, [sp, #60]
	str.w	lr, [sp, #56]
	str.w	r12, [sp, #52]
	str	r3, [sp, #48]
	strb.w	r2, [sp, #47]
	strb.w	r1, [sp, #46]
	strb.w	r0, [sp, #45]
	movs	r0, #0
.Ltmp196:
	.loc	17 32 14 prologue_end           @ ../communication/can/can_helpers.hpp:32:14
	str	r0, [sp, #36]
	str	r0, [sp, #32]
	.loc	17 33 21                        @ ../communication/can/can_helpers.hpp:33:21
	ldrb.w	r0, [sp, #46]
	cmp	r0, #63
	bgt	.LBB49_2
	b	.LBB49_1
.LBB49_1:
	.loc	17 33 44 is_stmt 0              @ ../communication/can/can_helpers.hpp:33:44
	ldrb.w	r3, [sp, #46]
	.loc	17 33 41                        @ ../communication/can/can_helpers.hpp:33:41
	sub.w	r2, r3, #32
	movs	r1, #1
	lsl.w	r12, r1, r2
	rsb.w	r0, r3, #32
	lsr.w	r0, r1, r0
	cmp	r2, #0
	it	pl
	movpl	r0, r12
	lsls	r1, r3
	cmp	r2, #0
	it	pl
	movpl	r1, #0
	.loc	17 33 52                        @ ../communication/can/can_helpers.hpp:33:52
	subs	r1, #1
	sbc	r0, r0, #0
	str	r1, [sp, #12]                   @ 4-byte Spill
	.loc	17 33 21                        @ ../communication/can/can_helpers.hpp:33:21
	str	r0, [sp, #16]                   @ 4-byte Spill
	b	.LBB49_3
.LBB49_2:
	.loc	17 0 21                         @ ../communication/can/can_helpers.hpp:0:21
	mov.w	r1, #-1
	mov	r0, r1
	str	r1, [sp, #12]                   @ 4-byte Spill
	.loc	17 33 21                        @ ../communication/can/can_helpers.hpp:33:21
	str	r0, [sp, #16]                   @ 4-byte Spill
	b	.LBB49_3
.LBB49_3:
	ldr	r1, [sp, #12]                   @ 4-byte Reload
	ldr	r0, [sp, #16]                   @ 4-byte Reload
	.loc	17 33 14                        @ ../communication/can/can_helpers.hpp:33:14
	str	r1, [sp, #24]
	str	r0, [sp, #28]
.Ltmp197:
	.loc	17 35 9 is_stmt 1               @ ../communication/can/can_helpers.hpp:35:9
	ldrb.w	r0, [sp, #45]
.Ltmp198:
	.loc	17 35 9 is_stmt 0               @ ../communication/can/can_helpers.hpp:35:9
	lsls	r0, r0, #31
	cbz	r0, .LBB49_5
	b	.LBB49_4
.LBB49_4:
.Ltmp199:
	.loc	17 36 9 is_stmt 1               @ ../communication/can/can_helpers.hpp:36:9
	ldr.w	r0, [sp, #55]
	ldr.w	r1, [sp, #59]
	str	r1, [sp, #36]
	str	r0, [sp, #32]
	.loc	17 37 20                        @ ../communication/can/can_helpers.hpp:37:20
	ldr	r0, [sp, #32]
	ldr	r1, [sp, #36]
	.loc	17 37 31 is_stmt 0              @ ../communication/can/can_helpers.hpp:37:31
	ldrb.w	r3, [sp, #47]
	.loc	17 37 28                        @ ../communication/can/can_helpers.hpp:37:28
	lsrs	r0, r3
	rsb.w	r2, r3, #32
	lsl.w	r2, r1, r2
	orrs	r0, r2
	sub.w	r2, r3, #32
	lsr.w	r12, r1, r2
	cmp	r2, #0
	it	pl
	movpl	r0, r12
	lsrs	r1, r3
	cmp	r2, #0
	it	pl
	movpl	r1, #0
	.loc	17 37 43                        @ ../communication/can/can_helpers.hpp:37:43
	ldr	r3, [sp, #24]
	ldr	r2, [sp, #28]
	.loc	17 37 41                        @ ../communication/can/can_helpers.hpp:37:41
	ands	r0, r3
	ands	r1, r2
	.loc	17 37 17                        @ ../communication/can/can_helpers.hpp:37:17
	str	r1, [sp, #36]
	str	r0, [sp, #32]
	.loc	17 38 5 is_stmt 1               @ ../communication/can/can_helpers.hpp:38:5
	b	.LBB49_6
.Ltmp200:
.LBB49_5:
	.loc	17 0 5 is_stmt 0                @ ../communication/can/can_helpers.hpp:0:5
	add	r0, sp, #48
.Ltmp201:
	.loc	17 39 37 is_stmt 1              @ ../communication/can/can_helpers.hpp:39:37
	adds	r0, #7
	.loc	17 39 22 is_stmt 0              @ ../communication/can/can_helpers.hpp:39:22
	str	r0, [sp, #4]                    @ 4-byte Spill
	bl	_ZNSt3__25beginB7v180000IhLj8EEEPT_RAT0__S1_
	mov	r1, r0
	.loc	17 39 43                        @ ../communication/can/can_helpers.hpp:39:43
	ldr	r0, [sp, #4]                    @ 4-byte Reload
	str	r1, [sp, #8]                    @ 4-byte Spill
	bl	_ZNSt3__23endB7v180000IhLj8EEEPT_RAT0__S1_
	mov	r1, r0
	.loc	17 39 9                         @ ../communication/can/can_helpers.hpp:39:9
	ldr	r0, [sp, #8]                    @ 4-byte Reload
	bl	_ZNSt3__27reverseB7v180000IPhEEvT_S2_
	.loc	17 40 9 is_stmt 1               @ ../communication/can/can_helpers.hpp:40:9
	ldr.w	r0, [sp, #55]
	ldr.w	r1, [sp, #59]
	str	r1, [sp, #36]
	str	r0, [sp, #32]
	.loc	17 41 20                        @ ../communication/can/can_helpers.hpp:41:20
	ldr	r0, [sp, #32]
	ldr	r2, [sp, #36]
	.loc	17 41 37 is_stmt 0              @ ../communication/can/can_helpers.hpp:41:37
	ldrb.w	r1, [sp, #47]
	.loc	17 41 48                        @ ../communication/can/can_helpers.hpp:41:48
	ldrb.w	r3, [sp, #46]
	.loc	17 41 46                        @ ../communication/can/can_helpers.hpp:41:46
	add	r3, r1
	rsb.w	r12, r3, #64
	.loc	17 41 28                        @ ../communication/can/can_helpers.hpp:41:28
	lsr.w	r1, r2, r12
	rsb.w	r3, r3, #32
	cmp	r3, #0
	it	pl
	movpl	r1, #0
	lsr.w	r0, r0, r12
	rsb.w	r12, r12, #32
	lsl.w	r12, r2, r12
	orr.w	r0, r0, r12
	lsrs	r2, r3
	cmp	r3, #0
	it	pl
	movpl	r0, r2
	.loc	17 41 59                        @ ../communication/can/can_helpers.hpp:41:59
	ldr	r3, [sp, #24]
	ldr	r2, [sp, #28]
	.loc	17 41 57                        @ ../communication/can/can_helpers.hpp:41:57
	ands	r0, r3
	ands	r1, r2
	.loc	17 41 17                        @ ../communication/can/can_helpers.hpp:41:17
	str	r1, [sp, #36]
	str	r0, [sp, #32]
	b	.LBB49_6
.Ltmp202:
.LBB49_6:
	.loc	17 45 5 is_stmt 1               @ ../communication/can/can_helpers.hpp:45:5
	ldr	r0, [sp, #32]
	str	r0, [sp, #20]
	.loc	17 46 12                        @ ../communication/can/can_helpers.hpp:46:12
	ldr	r0, [sp, #20]
	.loc	17 46 5 epilogue_begin is_stmt 0 @ ../communication/can/can_helpers.hpp:46:5
	add	sp, #64
	pop	{r4, pc}
.Ltmp203:
.Lfunc_end49:
	.size	_Z13can_getSignalIiET_13can_Message_thhb, .Lfunc_end49-_Z13can_getSignalIiET_13can_Message_thhb
	.cfi_endproc
	.cantunwind
	.fnend
                                        @ -- End function
	.section	.text._Z13can_setSignalIfEvR13can_Message_tRKT_hhb,"axG",%progbits,_Z13can_setSignalIfEvR13can_Message_tRKT_hhb,comdat
	.hidden	_Z13can_setSignalIfEvR13can_Message_tRKT_hhb @ -- Begin function _Z13can_setSignalIfEvR13can_Message_tRKT_hhb
	.weak	_Z13can_setSignalIfEvR13can_Message_tRKT_hhb
	.p2align	2
	.type	_Z13can_setSignalIfEvR13can_Message_tRKT_hhb,%function
	.code	16                              @ @_Z13can_setSignalIfEvR13can_Message_tRKT_hhb
	.thumb_func
_Z13can_setSignalIfEvR13can_Message_tRKT_hhb:
.Lfunc_begin50:
	.loc	17 50 0 is_stmt 1               @ ../communication/can/can_helpers.hpp:50:0
	.fnstart
	.cfi_startproc
@ %bb.0:
	.save	{r7, lr}
	push	{r7, lr}
	.cfi_def_cfa_offset 8
	.cfi_offset lr, -4
	.cfi_offset r7, -8
	.pad	#64
	sub	sp, #64
	.cfi_def_cfa_offset 72
	mov	r12, r0
	ldr	r0, [sp, #72]
                                        @ kill: def $lr killed $r3
                                        @ kill: def $lr killed $r2
	str.w	r12, [sp, #60]
	str	r1, [sp, #56]
	strb.w	r2, [sp, #55]
	strb.w	r3, [sp, #54]
	strb.w	r0, [sp, #53]
	movs	r0, #0
.Ltmp204:
	.loc	17 51 14 prologue_end           @ ../communication/can/can_helpers.hpp:51:14
	str	r0, [sp, #44]
	str	r0, [sp, #40]
	.loc	17 52 30                        @ ../communication/can/can_helpers.hpp:52:30
	ldr	r0, [sp, #56]
	.loc	17 52 5 is_stmt 0               @ ../communication/can/can_helpers.hpp:52:5
	ldr	r0, [r0]
	str	r0, [sp, #40]
	.loc	17 54 21 is_stmt 1              @ ../communication/can/can_helpers.hpp:54:21
	ldrb.w	r0, [sp, #54]
	cmp	r0, #63
	bgt	.LBB50_2
	b	.LBB50_1
.LBB50_1:
	.loc	17 54 44 is_stmt 0              @ ../communication/can/can_helpers.hpp:54:44
	ldrb.w	r3, [sp, #54]
	.loc	17 54 41                        @ ../communication/can/can_helpers.hpp:54:41
	sub.w	r2, r3, #32
	movs	r1, #1
	lsl.w	r12, r1, r2
	rsb.w	r0, r3, #32
	lsr.w	r0, r1, r0
	cmp	r2, #0
	it	pl
	movpl	r0, r12
	lsls	r1, r3
	cmp	r2, #0
	it	pl
	movpl	r1, #0
	.loc	17 54 52                        @ ../communication/can/can_helpers.hpp:54:52
	subs	r1, #1
	sbc	r0, r0, #0
	str	r1, [sp, #8]                    @ 4-byte Spill
	.loc	17 54 21                        @ ../communication/can/can_helpers.hpp:54:21
	str	r0, [sp, #12]                   @ 4-byte Spill
	b	.LBB50_3
.LBB50_2:
	.loc	17 0 21                         @ ../communication/can/can_helpers.hpp:0:21
	mov.w	r1, #-1
	mov	r0, r1
	str	r1, [sp, #8]                    @ 4-byte Spill
	.loc	17 54 21                        @ ../communication/can/can_helpers.hpp:54:21
	str	r0, [sp, #12]                   @ 4-byte Spill
	b	.LBB50_3
.LBB50_3:
	ldr	r1, [sp, #8]                    @ 4-byte Reload
	ldr	r0, [sp, #12]                   @ 4-byte Reload
	.loc	17 54 14                        @ ../communication/can/can_helpers.hpp:54:14
	str	r1, [sp, #32]
	str	r0, [sp, #36]
.Ltmp205:
	.loc	17 56 9 is_stmt 1               @ ../communication/can/can_helpers.hpp:56:9
	ldrb.w	r0, [sp, #53]
.Ltmp206:
	.loc	17 56 9 is_stmt 0               @ ../communication/can/can_helpers.hpp:56:9
	lsls	r0, r0, #31
	cmp	r0, #0
	beq	.LBB50_5
	b	.LBB50_4
.LBB50_4:
	.loc	17 0 9                          @ ../communication/can/can_helpers.hpp:0:9
	movs	r0, #0
.Ltmp207:
	.loc	17 57 18 is_stmt 1              @ ../communication/can/can_helpers.hpp:57:18
	str	r0, [sp, #28]
	str	r0, [sp, #24]
	.loc	17 58 28                        @ ../communication/can/can_helpers.hpp:58:28
	ldr	r1, [sp, #60]
	.loc	17 58 9 is_stmt 0               @ ../communication/can/can_helpers.hpp:58:9
	ldr.w	r0, [r1, #7]
	ldr.w	r1, [r1, #11]
	str	r1, [sp, #28]
	str	r0, [sp, #24]
	.loc	17 60 19 is_stmt 1              @ ../communication/can/can_helpers.hpp:60:19
	ldr	r1, [sp, #32]
	ldr	r0, [sp, #36]
	.loc	17 60 27 is_stmt 0              @ ../communication/can/can_helpers.hpp:60:27
	ldrb.w	r2, [sp, #55]
	.loc	17 60 24                        @ ../communication/can/can_helpers.hpp:60:24
	lsl.w	r3, r0, r2
	rsb.w	r0, r2, #32
	lsr.w	r0, r1, r0
	orrs	r3, r0
	sub.w	r0, r2, #32
	lsl.w	r12, r1, r0
	cmp	r0, #0
	it	pl
	movpl	r3, r12
	lsl.w	r2, r1, r2
	cmp	r0, #0
	it	pl
	movpl	r2, #0
	.loc	17 60 14                        @ ../communication/can/can_helpers.hpp:60:14
	ldr	r1, [sp, #24]
	ldr	r0, [sp, #28]
	bics	r0, r3
	bics	r1, r2
	str	r1, [sp, #24]
	str	r0, [sp, #28]
	.loc	17 61 17 is_stmt 1              @ ../communication/can/can_helpers.hpp:61:17
	ldr	r1, [sp, #40]
	ldr	r0, [sp, #44]
	.loc	17 61 30 is_stmt 0              @ ../communication/can/can_helpers.hpp:61:30
	ldrb.w	r2, [sp, #55]
	.loc	17 61 27                        @ ../communication/can/can_helpers.hpp:61:27
	lsl.w	r3, r0, r2
	rsb.w	r0, r2, #32
	lsr.w	r0, r1, r0
	orrs	r3, r0
	sub.w	r0, r2, #32
	lsl.w	r12, r1, r0
	cmp	r0, #0
	it	pl
	movpl	r3, r12
	lsl.w	r2, r1, r2
	cmp	r0, #0
	it	pl
	movpl	r2, #0
	.loc	17 61 14                        @ ../communication/can/can_helpers.hpp:61:14
	ldr	r1, [sp, #24]
	ldr	r0, [sp, #28]
	orrs	r0, r3
	orrs	r1, r2
	str	r1, [sp, #24]
	str	r0, [sp, #28]
	.loc	17 63 21 is_stmt 1              @ ../communication/can/can_helpers.hpp:63:21
	ldr	r1, [sp, #60]
	.loc	17 63 9 is_stmt 0               @ ../communication/can/can_helpers.hpp:63:9
	ldr	r0, [sp, #24]
	ldr	r2, [sp, #28]
	str.w	r2, [r1, #11]
	str.w	r0, [r1, #7]
	.loc	17 64 5 is_stmt 1               @ ../communication/can/can_helpers.hpp:64:5
	b	.LBB50_6
.Ltmp208:
.LBB50_5:
	.loc	17 0 5 is_stmt 0                @ ../communication/can/can_helpers.hpp:0:5
	movs	r0, #0
.Ltmp209:
	.loc	17 65 18 is_stmt 1              @ ../communication/can/can_helpers.hpp:65:18
	str	r0, [sp, #20]
	str	r0, [sp, #16]
	.loc	17 66 33                        @ ../communication/can/can_helpers.hpp:66:33
	ldr	r0, [sp, #60]
	.loc	17 66 37 is_stmt 0              @ ../communication/can/can_helpers.hpp:66:37
	adds	r0, #7
	.loc	17 66 22                        @ ../communication/can/can_helpers.hpp:66:22
	bl	_ZNSt3__25beginB7v180000IhLj8EEEPT_RAT0__S1_
	.loc	17 66 52                        @ ../communication/can/can_helpers.hpp:66:52
	str	r0, [sp]                        @ 4-byte Spill
	ldr	r0, [sp, #60]
	.loc	17 66 56                        @ ../communication/can/can_helpers.hpp:66:56
	adds	r0, #7
	.loc	17 66 43                        @ ../communication/can/can_helpers.hpp:66:43
	bl	_ZNSt3__23endB7v180000IhLj8EEEPT_RAT0__S1_
	mov	r1, r0
	.loc	17 66 9                         @ ../communication/can/can_helpers.hpp:66:9
	ldr	r0, [sp]                        @ 4-byte Reload
	bl	_ZNSt3__27reverseB7v180000IPhEEvT_S2_
	.loc	17 67 28 is_stmt 1              @ ../communication/can/can_helpers.hpp:67:28
	ldr	r1, [sp, #60]
	.loc	17 67 9 is_stmt 0               @ ../communication/can/can_helpers.hpp:67:9
	ldr.w	r0, [r1, #7]
	ldr.w	r1, [r1, #11]
	str	r1, [sp, #20]
	str	r0, [sp, #16]
	.loc	17 69 19 is_stmt 1              @ ../communication/can/can_helpers.hpp:69:19
	ldr	r0, [sp, #32]
	ldr.w	r12, [sp, #36]
	.loc	17 69 33 is_stmt 0              @ ../communication/can/can_helpers.hpp:69:33
	ldrb.w	r1, [sp, #55]
	.loc	17 69 44                        @ ../communication/can/can_helpers.hpp:69:44
	ldrb.w	r2, [sp, #54]
	.loc	17 69 42                        @ ../communication/can/can_helpers.hpp:69:42
	add	r1, r2
	rsb.w	r3, r1, #64
	.loc	17 69 24                        @ ../communication/can/can_helpers.hpp:69:24
	lsl.w	r2, r0, r3
	rsb.w	r1, r1, #32
	cmp	r1, #0
	it	pl
	movpl	r2, #0
	lsl.w	r12, r12, r3
	rsb.w	r3, r3, #32
	lsr.w	r3, r0, r3
	orr.w	r3, r3, r12
	lsls	r0, r1
	cmp	r1, #0
	it	pl
	movpl	r3, r0
	.loc	17 69 14                        @ ../communication/can/can_helpers.hpp:69:14
	ldr	r1, [sp, #16]
	ldr	r0, [sp, #20]
	bics	r0, r3
	bics	r1, r2
	str	r1, [sp, #16]
	str	r0, [sp, #20]
	.loc	17 70 17 is_stmt 1              @ ../communication/can/can_helpers.hpp:70:17
	ldr	r0, [sp, #40]
	ldr.w	r12, [sp, #44]
	.loc	17 70 36 is_stmt 0              @ ../communication/can/can_helpers.hpp:70:36
	ldrb.w	r1, [sp, #55]
	.loc	17 70 47                        @ ../communication/can/can_helpers.hpp:70:47
	ldrb.w	r2, [sp, #54]
	.loc	17 70 45                        @ ../communication/can/can_helpers.hpp:70:45
	add	r1, r2
	rsb.w	r3, r1, #64
	.loc	17 70 27                        @ ../communication/can/can_helpers.hpp:70:27
	lsl.w	r2, r0, r3
	rsb.w	r1, r1, #32
	cmp	r1, #0
	it	pl
	movpl	r2, #0
	lsl.w	r12, r12, r3
	rsb.w	r3, r3, #32
	lsr.w	r3, r0, r3
	orr.w	r3, r3, r12
	lsls	r0, r1
	cmp	r1, #0
	it	pl
	movpl	r3, r0
	.loc	17 70 14                        @ ../communication/can/can_helpers.hpp:70:14
	ldr	r1, [sp, #16]
	ldr	r0, [sp, #20]
	orrs	r0, r3
	orrs	r1, r2
	str	r1, [sp, #16]
	str	r0, [sp, #20]
	.loc	17 72 21 is_stmt 1              @ ../communication/can/can_helpers.hpp:72:21
	ldr	r1, [sp, #60]
	.loc	17 72 9 is_stmt 0               @ ../communication/can/can_helpers.hpp:72:9
	ldr	r0, [sp, #16]
	ldr	r2, [sp, #20]
	str.w	r2, [r1, #11]
	str.w	r0, [r1, #7]
	.loc	17 73 33 is_stmt 1              @ ../communication/can/can_helpers.hpp:73:33
	ldr	r0, [sp, #60]
	.loc	17 73 37 is_stmt 0              @ ../communication/can/can_helpers.hpp:73:37
	adds	r0, #7
	.loc	17 73 22                        @ ../communication/can/can_helpers.hpp:73:22
	bl	_ZNSt3__25beginB7v180000IhLj8EEEPT_RAT0__S1_
	.loc	17 73 52                        @ ../communication/can/can_helpers.hpp:73:52
	str	r0, [sp, #4]                    @ 4-byte Spill
	ldr	r0, [sp, #60]
	.loc	17 73 56                        @ ../communication/can/can_helpers.hpp:73:56
	adds	r0, #7
	.loc	17 73 43                        @ ../communication/can/can_helpers.hpp:73:43
	bl	_ZNSt3__23endB7v180000IhLj8EEEPT_RAT0__S1_
	mov	r1, r0
	.loc	17 73 9                         @ ../communication/can/can_helpers.hpp:73:9
	ldr	r0, [sp, #4]                    @ 4-byte Reload
	bl	_ZNSt3__27reverseB7v180000IPhEEvT_S2_
	b	.LBB50_6
.Ltmp210:
.LBB50_6:
	.loc	17 75 1 epilogue_begin is_stmt 1 @ ../communication/can/can_helpers.hpp:75:1
	add	sp, #64
	pop	{r7, pc}
.Ltmp211:
.Lfunc_end50:
	.size	_Z13can_setSignalIfEvR13can_Message_tRKT_hhb, .Lfunc_end50-_Z13can_setSignalIfEvR13can_Message_tRKT_hhb
	.cfi_endproc
	.cantunwind
	.fnend
                                        @ -- End function
	.section	.text._ZN9InputPortIfE3anyEv,"axG",%progbits,_ZN9InputPortIfE3anyEv,comdat
	.hidden	_ZN9InputPortIfE3anyEv          @ -- Begin function _ZN9InputPortIfE3anyEv
	.weak	_ZN9InputPortIfE3anyEv
	.p2align	2
	.type	_ZN9InputPortIfE3anyEv,%function
	.code	16                              @ @_ZN9InputPortIfE3anyEv
	.thumb_func
_ZN9InputPortIfE3anyEv:
.Lfunc_begin51:
	.file	20 "D:\\ikingtec\\Robot\\ODrive\\Firmware\\MDK-ARM" "../../Firmware\\MotorControl/component.hpp"
	.loc	20 165 0                        @ ../../Firmware\MotorControl/component.hpp:165:0
	.fnstart
	.cfi_startproc
@ %bb.0:
	.save	{r7, lr}
	push	{r7, lr}
	.cfi_def_cfa_offset 8
	.cfi_offset lr, -4
	.cfi_offset r7, -8
	.pad	#32
	sub	sp, #32
	.cfi_def_cfa_offset 40
	str	r0, [sp, #4]                    @ 4-byte Spill
	str	r1, [sp, #28]
	ldr	r0, [sp, #28]
.Ltmp212:
	.loc	20 166 22 prologue_end          @ ../../Firmware\MotorControl/component.hpp:166:22
	str	r0, [sp, #8]                    @ 4-byte Spill
	bl	_ZNKSt3__27variantIJfPfP10OutputPortIfEEE5indexB7v180000Ev
.Ltmp213:
	.loc	20 166 13 is_stmt 0             @ ../../Firmware\MotorControl/component.hpp:166:13
	cmp	r0, #2
	bne	.LBB51_5
	b	.LBB51_1
.LBB51_1:
.Ltmp214:
	.loc	20 167 34 is_stmt 1             @ ../../Firmware\MotorControl/component.hpp:167:34
	ldr	r0, [sp, #8]                    @ 4-byte Reload
	bl	_ZNSt3__23getB7v180000ILj2EJfPfP10OutputPortIfEEEERNS_19variant_alternativeIXT_ENS_7variantIJDpT0_EEEE4typeERS9_
	ldr	r0, [r0]
	.loc	20 167 28 is_stmt 0             @ ../../Firmware\MotorControl/component.hpp:167:28
	str	r0, [sp, #24]
	.loc	20 168 20 is_stmt 1             @ ../../Firmware\MotorControl/component.hpp:168:20
	ldr	r0, [sp, #24]
	cbz	r0, .LBB51_3
	b	.LBB51_2
.LBB51_2:
	.loc	20 168 26 is_stmt 0             @ ../../Firmware\MotorControl/component.hpp:168:26
	ldr	r0, [sp, #4]                    @ 4-byte Reload
	ldr	r1, [sp, #24]
	.loc	20 168 31                       @ ../../Firmware\MotorControl/component.hpp:168:31
	bl	_ZN10OutputPortIfE3anyEv
	.loc	20 168 20                       @ ../../Firmware\MotorControl/component.hpp:168:20
	b	.LBB51_4
.LBB51_3:
	.loc	20 168 39                       @ ../../Firmware\MotorControl/component.hpp:168:39
	ldr	r0, [sp, #4]                    @ 4-byte Reload
	bl	_ZNSt3__28optionalIfEC2B7v180000ENS_9nullopt_tE
	.loc	20 168 20                       @ ../../Firmware\MotorControl/component.hpp:168:20
	b	.LBB51_4
.LBB51_4:
	.loc	20 168 13                       @ ../../Firmware\MotorControl/component.hpp:168:13
	b	.LBB51_11
.Ltmp215:
.LBB51_5:
	.loc	20 169 29 is_stmt 1             @ ../../Firmware\MotorControl/component.hpp:169:29
	ldr	r0, [sp, #8]                    @ 4-byte Reload
	bl	_ZNKSt3__27variantIJfPfP10OutputPortIfEEE5indexB7v180000Ev
.Ltmp216:
	.loc	20 169 20 is_stmt 0             @ ../../Firmware\MotorControl/component.hpp:169:20
	cmp	r0, #1
	bne	.LBB51_10
	b	.LBB51_6
.LBB51_6:
.Ltmp217:
	.loc	20 170 22 is_stmt 1             @ ../../Firmware\MotorControl/component.hpp:170:22
	ldr	r0, [sp, #8]                    @ 4-byte Reload
	bl	_ZNSt3__23getB7v180000ILj1EJfPfP10OutputPortIfEEEERNS_19variant_alternativeIXT_ENS_7variantIJDpT0_EEEE4typeERS9_
	ldr	r0, [r0]
	.loc	20 170 16 is_stmt 0             @ ../../Firmware\MotorControl/component.hpp:170:16
	str	r0, [sp, #16]
	.loc	20 171 20 is_stmt 1             @ ../../Firmware\MotorControl/component.hpp:171:20
	ldr	r0, [sp, #16]
	cbz	r0, .LBB51_8
	b	.LBB51_7
.LBB51_7:
	.loc	20 171 46 is_stmt 0             @ ../../Firmware\MotorControl/component.hpp:171:46
	ldr	r0, [sp, #4]                    @ 4-byte Reload
	ldr	r1, [sp, #16]
	.loc	20 171 26                       @ ../../Firmware\MotorControl/component.hpp:171:26
	bl	_ZNSt3__213make_optionalB7v180000IRfEENS_8optionalIu7__decayIT_EEEOS3_
	.loc	20 171 20                       @ ../../Firmware\MotorControl/component.hpp:171:20
	b	.LBB51_9
.LBB51_8:
	.loc	20 171 53                       @ ../../Firmware\MotorControl/component.hpp:171:53
	ldr	r0, [sp, #4]                    @ 4-byte Reload
	bl	_ZNSt3__28optionalIfEC2B7v180000ENS_9nullopt_tE
	.loc	20 171 20                       @ ../../Firmware\MotorControl/component.hpp:171:20
	b	.LBB51_9
.LBB51_9:
	.loc	20 171 13                       @ ../../Firmware\MotorControl/component.hpp:171:13
	b	.LBB51_11
.Ltmp218:
.LBB51_10:
	.loc	20 173 20 is_stmt 1             @ ../../Firmware\MotorControl/component.hpp:173:20
	ldr	r0, [sp, #8]                    @ 4-byte Reload
	bl	_ZNSt3__23getB7v180000ILj0EJfPfP10OutputPortIfEEEERNS_19variant_alternativeIXT_ENS_7variantIJDpT0_EEEE4typeERS9_
	mov	r1, r0
	ldr	r0, [sp, #4]                    @ 4-byte Reload
	bl	_ZNSt3__28optionalIfEC2B7v180000IRfLi0EEEOT_
	.loc	20 173 13 is_stmt 0             @ ../../Firmware\MotorControl/component.hpp:173:13
	b	.LBB51_11
.Ltmp219:
.LBB51_11:
	.loc	20 175 5 epilogue_begin is_stmt 1 @ ../../Firmware\MotorControl/component.hpp:175:5
	add	sp, #32
	pop	{r7, pc}
.Ltmp220:
.Lfunc_end51:
	.size	_ZN9InputPortIfE3anyEv, .Lfunc_end51-_ZN9InputPortIfE3anyEv
	.cfi_endproc
	.cantunwind
	.fnend
                                        @ -- End function
	.section	.text._ZNOSt3__28optionalIfE8value_orB7v180000IfEEfOT_,"axG",%progbits,_ZNOSt3__28optionalIfE8value_orB7v180000IfEEfOT_,comdat
	.hidden	_ZNOSt3__28optionalIfE8value_orB7v180000IfEEfOT_ @ -- Begin function _ZNOSt3__28optionalIfE8value_orB7v180000IfEEfOT_
	.weak	_ZNOSt3__28optionalIfE8value_orB7v180000IfEEfOT_
	.p2align	2
	.type	_ZNOSt3__28optionalIfE8value_orB7v180000IfEEfOT_,%function
	.code	16                              @ @_ZNOSt3__28optionalIfE8value_orB7v180000IfEEfOT_
	.thumb_func
_ZNOSt3__28optionalIfE8value_orB7v180000IfEEfOT_:
.Lfunc_begin52:
	.loc	4 1106 0                        @ D:\Embed\MDK\MDK\ARM\ARMCompilerV621\Bin\..\include\libcxx\optional:1106:0
	.fnstart
	.cfi_startproc
@ %bb.0:
	.save	{r7, lr}
	push	{r7, lr}
	.cfi_def_cfa_offset 8
	.cfi_offset lr, -4
	.cfi_offset r7, -8
	.pad	#16
	sub	sp, #16
	.cfi_def_cfa_offset 24
	str	r0, [sp, #12]
	str	r1, [sp, #8]
	ldr	r0, [sp, #12]
.Ltmp221:
	.loc	4 1111 22 prologue_end          @ D:\Embed\MDK\MDK\ARM\ARMCompilerV621\Bin\..\include\libcxx\optional:1111:22
	str	r0, [sp, #4]                    @ 4-byte Spill
	bl	_ZNKSt3__223__optional_storage_baseIfLb0EE9has_valueB7v180000Ev
	.loc	4 1111 16 is_stmt 0             @ D:\Embed\MDK\MDK\ARM\ARMCompilerV621\Bin\..\include\libcxx\optional:1111:16
	cbz	r0, .LBB52_2
	b	.LBB52_1
.LBB52_1:
	.loc	4 1111 54                       @ D:\Embed\MDK\MDK\ARM\ARMCompilerV621\Bin\..\include\libcxx\optional:1111:54
	ldr	r0, [sp, #4]                    @ 4-byte Reload
	bl	_ZNRSt3__223__optional_storage_baseIfLb0EE5__getB7v180000Ev
	.loc	4 1111 36                       @ D:\Embed\MDK\MDK\ARM\ARMCompilerV621\Bin\..\include\libcxx\optional:1111:36
	vldr	s0, [r0]
	vstr	s0, [sp]                        @ 4-byte Spill
	.loc	4 1111 16                       @ D:\Embed\MDK\MDK\ARM\ARMCompilerV621\Bin\..\include\libcxx\optional:1111:16
	b	.LBB52_3
.LBB52_2:
	.loc	4 1112 79 is_stmt 1             @ D:\Embed\MDK\MDK\ARM\ARMCompilerV621\Bin\..\include\libcxx\optional:1112:79
	ldr	r0, [sp, #8]
	.loc	4 1112 59 is_stmt 0             @ D:\Embed\MDK\MDK\ARM\ARMCompilerV621\Bin\..\include\libcxx\optional:1112:59
	vldr	s0, [r0]
	vstr	s0, [sp]                        @ 4-byte Spill
	.loc	4 1111 16 is_stmt 1             @ D:\Embed\MDK\MDK\ARM\ARMCompilerV621\Bin\..\include\libcxx\optional:1111:16
	b	.LBB52_3
.LBB52_3:
	vldr	s0, [sp]                        @ 4-byte Reload
	.loc	4 1111 9 epilogue_begin is_stmt 0 @ D:\Embed\MDK\MDK\ARM\ARMCompilerV621\Bin\..\include\libcxx\optional:1111:9
	add	sp, #16
	pop	{r7, pc}
.Ltmp222:
.Lfunc_end52:
	.size	_ZNOSt3__28optionalIfE8value_orB7v180000IfEEfOT_, .Lfunc_end52-_ZNOSt3__28optionalIfE8value_orB7v180000IfEEfOT_
	.cfi_endproc
	.cantunwind
	.fnend
                                        @ -- End function
	.section	.text._ZN10OutputPortIfE3anyEv,"axG",%progbits,_ZN10OutputPortIfE3anyEv,comdat
	.hidden	_ZN10OutputPortIfE3anyEv        @ -- Begin function _ZN10OutputPortIfE3anyEv
	.weak	_ZN10OutputPortIfE3anyEv
	.p2align	2
	.type	_ZN10OutputPortIfE3anyEv,%function
	.code	16                              @ @_ZN10OutputPortIfE3anyEv
	.thumb_func
_ZN10OutputPortIfE3anyEv:
.Lfunc_begin53:
	.loc	20 102 0 is_stmt 1              @ ../../Firmware\MotorControl/component.hpp:102:0
	.fnstart
	.cfi_startproc
@ %bb.0:
	.save	{r7, lr}
	push	{r7, lr}
	.cfi_def_cfa_offset 8
	.cfi_offset lr, -4
	.cfi_offset r7, -8
	.pad	#8
	sub	sp, #8
	.cfi_def_cfa_offset 16
	str	r1, [sp, #4]
	ldr	r1, [sp, #4]
.Ltmp223:
	.loc	20 103 16 prologue_end          @ ../../Firmware\MotorControl/component.hpp:103:16
	adds	r1, #4
	bl	_ZNSt3__28optionalIfEC2B7v180000IRfLi0EEEOT_
	.loc	20 103 9 epilogue_begin is_stmt 0 @ ../../Firmware\MotorControl/component.hpp:103:9
	add	sp, #8
	pop	{r7, pc}
.Ltmp224:
.Lfunc_end53:
	.size	_ZN10OutputPortIfE3anyEv, .Lfunc_end53-_ZN10OutputPortIfE3anyEv
	.cfi_endproc
	.cantunwind
	.fnend
                                        @ -- End function
	.section	.text._Z13can_setSignalIiEvR13can_Message_tRKT_hhb,"axG",%progbits,_Z13can_setSignalIiEvR13can_Message_tRKT_hhb,comdat
	.hidden	_Z13can_setSignalIiEvR13can_Message_tRKT_hhb @ -- Begin function _Z13can_setSignalIiEvR13can_Message_tRKT_hhb
	.weak	_Z13can_setSignalIiEvR13can_Message_tRKT_hhb
	.p2align	2
	.type	_Z13can_setSignalIiEvR13can_Message_tRKT_hhb,%function
	.code	16                              @ @_Z13can_setSignalIiEvR13can_Message_tRKT_hhb
	.thumb_func
_Z13can_setSignalIiEvR13can_Message_tRKT_hhb:
.Lfunc_begin54:
	.loc	17 50 0 is_stmt 1               @ ../communication/can/can_helpers.hpp:50:0
	.fnstart
	.cfi_startproc
@ %bb.0:
	.save	{r7, lr}
	push	{r7, lr}
	.cfi_def_cfa_offset 8
	.cfi_offset lr, -4
	.cfi_offset r7, -8
	.pad	#64
	sub	sp, #64
	.cfi_def_cfa_offset 72
	mov	r12, r0
	ldr	r0, [sp, #72]
                                        @ kill: def $lr killed $r3
                                        @ kill: def $lr killed $r2
	str.w	r12, [sp, #60]
	str	r1, [sp, #56]
	strb.w	r2, [sp, #55]
	strb.w	r3, [sp, #54]
	strb.w	r0, [sp, #53]
	movs	r0, #0
.Ltmp225:
	.loc	17 51 14 prologue_end           @ ../communication/can/can_helpers.hpp:51:14
	str	r0, [sp, #44]
	str	r0, [sp, #40]
	.loc	17 52 30                        @ ../communication/can/can_helpers.hpp:52:30
	ldr	r0, [sp, #56]
	.loc	17 52 5 is_stmt 0               @ ../communication/can/can_helpers.hpp:52:5
	ldr	r0, [r0]
	str	r0, [sp, #40]
	.loc	17 54 21 is_stmt 1              @ ../communication/can/can_helpers.hpp:54:21
	ldrb.w	r0, [sp, #54]
	cmp	r0, #63
	bgt	.LBB54_2
	b	.LBB54_1
.LBB54_1:
	.loc	17 54 44 is_stmt 0              @ ../communication/can/can_helpers.hpp:54:44
	ldrb.w	r3, [sp, #54]
	.loc	17 54 41                        @ ../communication/can/can_helpers.hpp:54:41
	sub.w	r2, r3, #32
	movs	r1, #1
	lsl.w	r12, r1, r2
	rsb.w	r0, r3, #32
	lsr.w	r0, r1, r0
	cmp	r2, #0
	it	pl
	movpl	r0, r12
	lsls	r1, r3
	cmp	r2, #0
	it	pl
	movpl	r1, #0
	.loc	17 54 52                        @ ../communication/can/can_helpers.hpp:54:52
	subs	r1, #1
	sbc	r0, r0, #0
	str	r1, [sp, #8]                    @ 4-byte Spill
	.loc	17 54 21                        @ ../communication/can/can_helpers.hpp:54:21
	str	r0, [sp, #12]                   @ 4-byte Spill
	b	.LBB54_3
.LBB54_2:
	.loc	17 0 21                         @ ../communication/can/can_helpers.hpp:0:21
	mov.w	r1, #-1
	mov	r0, r1
	str	r1, [sp, #8]                    @ 4-byte Spill
	.loc	17 54 21                        @ ../communication/can/can_helpers.hpp:54:21
	str	r0, [sp, #12]                   @ 4-byte Spill
	b	.LBB54_3
.LBB54_3:
	ldr	r1, [sp, #8]                    @ 4-byte Reload
	ldr	r0, [sp, #12]                   @ 4-byte Reload
	.loc	17 54 14                        @ ../communication/can/can_helpers.hpp:54:14
	str	r1, [sp, #32]
	str	r0, [sp, #36]
.Ltmp226:
	.loc	17 56 9 is_stmt 1               @ ../communication/can/can_helpers.hpp:56:9
	ldrb.w	r0, [sp, #53]
.Ltmp227:
	.loc	17 56 9 is_stmt 0               @ ../communication/can/can_helpers.hpp:56:9
	lsls	r0, r0, #31
	cmp	r0, #0
	beq	.LBB54_5
	b	.LBB54_4
.LBB54_4:
	.loc	17 0 9                          @ ../communication/can/can_helpers.hpp:0:9
	movs	r0, #0
.Ltmp228:
	.loc	17 57 18 is_stmt 1              @ ../communication/can/can_helpers.hpp:57:18
	str	r0, [sp, #28]
	str	r0, [sp, #24]
	.loc	17 58 28                        @ ../communication/can/can_helpers.hpp:58:28
	ldr	r1, [sp, #60]
	.loc	17 58 9 is_stmt 0               @ ../communication/can/can_helpers.hpp:58:9
	ldr.w	r0, [r1, #7]
	ldr.w	r1, [r1, #11]
	str	r1, [sp, #28]
	str	r0, [sp, #24]
	.loc	17 60 19 is_stmt 1              @ ../communication/can/can_helpers.hpp:60:19
	ldr	r1, [sp, #32]
	ldr	r0, [sp, #36]
	.loc	17 60 27 is_stmt 0              @ ../communication/can/can_helpers.hpp:60:27
	ldrb.w	r2, [sp, #55]
	.loc	17 60 24                        @ ../communication/can/can_helpers.hpp:60:24
	lsl.w	r3, r0, r2
	rsb.w	r0, r2, #32
	lsr.w	r0, r1, r0
	orrs	r3, r0
	sub.w	r0, r2, #32
	lsl.w	r12, r1, r0
	cmp	r0, #0
	it	pl
	movpl	r3, r12
	lsl.w	r2, r1, r2
	cmp	r0, #0
	it	pl
	movpl	r2, #0
	.loc	17 60 14                        @ ../communication/can/can_helpers.hpp:60:14
	ldr	r1, [sp, #24]
	ldr	r0, [sp, #28]
	bics	r0, r3
	bics	r1, r2
	str	r1, [sp, #24]
	str	r0, [sp, #28]
	.loc	17 61 17 is_stmt 1              @ ../communication/can/can_helpers.hpp:61:17
	ldr	r1, [sp, #40]
	ldr	r0, [sp, #44]
	.loc	17 61 30 is_stmt 0              @ ../communication/can/can_helpers.hpp:61:30
	ldrb.w	r2, [sp, #55]
	.loc	17 61 27                        @ ../communication/can/can_helpers.hpp:61:27
	lsl.w	r3, r0, r2
	rsb.w	r0, r2, #32
	lsr.w	r0, r1, r0
	orrs	r3, r0
	sub.w	r0, r2, #32
	lsl.w	r12, r1, r0
	cmp	r0, #0
	it	pl
	movpl	r3, r12
	lsl.w	r2, r1, r2
	cmp	r0, #0
	it	pl
	movpl	r2, #0
	.loc	17 61 14                        @ ../communication/can/can_helpers.hpp:61:14
	ldr	r1, [sp, #24]
	ldr	r0, [sp, #28]
	orrs	r0, r3
	orrs	r1, r2
	str	r1, [sp, #24]
	str	r0, [sp, #28]
	.loc	17 63 21 is_stmt 1              @ ../communication/can/can_helpers.hpp:63:21
	ldr	r1, [sp, #60]
	.loc	17 63 9 is_stmt 0               @ ../communication/can/can_helpers.hpp:63:9
	ldr	r0, [sp, #24]
	ldr	r2, [sp, #28]
	str.w	r2, [r1, #11]
	str.w	r0, [r1, #7]
	.loc	17 64 5 is_stmt 1               @ ../communication/can/can_helpers.hpp:64:5
	b	.LBB54_6
.Ltmp229:
.LBB54_5:
	.loc	17 0 5 is_stmt 0                @ ../communication/can/can_helpers.hpp:0:5
	movs	r0, #0
.Ltmp230:
	.loc	17 65 18 is_stmt 1              @ ../communication/can/can_helpers.hpp:65:18
	str	r0, [sp, #20]
	str	r0, [sp, #16]
	.loc	17 66 33                        @ ../communication/can/can_helpers.hpp:66:33
	ldr	r0, [sp, #60]
	.loc	17 66 37 is_stmt 0              @ ../communication/can/can_helpers.hpp:66:37
	adds	r0, #7
	.loc	17 66 22                        @ ../communication/can/can_helpers.hpp:66:22
	bl	_ZNSt3__25beginB7v180000IhLj8EEEPT_RAT0__S1_
	.loc	17 66 52                        @ ../communication/can/can_helpers.hpp:66:52
	str	r0, [sp]                        @ 4-byte Spill
	ldr	r0, [sp, #60]
	.loc	17 66 56                        @ ../communication/can/can_helpers.hpp:66:56
	adds	r0, #7
	.loc	17 66 43                        @ ../communication/can/can_helpers.hpp:66:43
	bl	_ZNSt3__23endB7v180000IhLj8EEEPT_RAT0__S1_
	mov	r1, r0
	.loc	17 66 9                         @ ../communication/can/can_helpers.hpp:66:9
	ldr	r0, [sp]                        @ 4-byte Reload
	bl	_ZNSt3__27reverseB7v180000IPhEEvT_S2_
	.loc	17 67 28 is_stmt 1              @ ../communication/can/can_helpers.hpp:67:28
	ldr	r1, [sp, #60]
	.loc	17 67 9 is_stmt 0               @ ../communication/can/can_helpers.hpp:67:9
	ldr.w	r0, [r1, #7]
	ldr.w	r1, [r1, #11]
	str	r1, [sp, #20]
	str	r0, [sp, #16]
	.loc	17 69 19 is_stmt 1              @ ../communication/can/can_helpers.hpp:69:19
	ldr	r0, [sp, #32]
	ldr.w	r12, [sp, #36]
	.loc	17 69 33 is_stmt 0              @ ../communication/can/can_helpers.hpp:69:33
	ldrb.w	r1, [sp, #55]
	.loc	17 69 44                        @ ../communication/can/can_helpers.hpp:69:44
	ldrb.w	r2, [sp, #54]
	.loc	17 69 42                        @ ../communication/can/can_helpers.hpp:69:42
	add	r1, r2
	rsb.w	r3, r1, #64
	.loc	17 69 24                        @ ../communication/can/can_helpers.hpp:69:24
	lsl.w	r2, r0, r3
	rsb.w	r1, r1, #32
	cmp	r1, #0
	it	pl
	movpl	r2, #0
	lsl.w	r12, r12, r3
	rsb.w	r3, r3, #32
	lsr.w	r3, r0, r3
	orr.w	r3, r3, r12
	lsls	r0, r1
	cmp	r1, #0
	it	pl
	movpl	r3, r0
	.loc	17 69 14                        @ ../communication/can/can_helpers.hpp:69:14
	ldr	r1, [sp, #16]
	ldr	r0, [sp, #20]
	bics	r0, r3
	bics	r1, r2
	str	r1, [sp, #16]
	str	r0, [sp, #20]
	.loc	17 70 17 is_stmt 1              @ ../communication/can/can_helpers.hpp:70:17
	ldr	r0, [sp, #40]
	ldr.w	r12, [sp, #44]
	.loc	17 70 36 is_stmt 0              @ ../communication/can/can_helpers.hpp:70:36
	ldrb.w	r1, [sp, #55]
	.loc	17 70 47                        @ ../communication/can/can_helpers.hpp:70:47
	ldrb.w	r2, [sp, #54]
	.loc	17 70 45                        @ ../communication/can/can_helpers.hpp:70:45
	add	r1, r2
	rsb.w	r3, r1, #64
	.loc	17 70 27                        @ ../communication/can/can_helpers.hpp:70:27
	lsl.w	r2, r0, r3
	rsb.w	r1, r1, #32
	cmp	r1, #0
	it	pl
	movpl	r2, #0
	lsl.w	r12, r12, r3
	rsb.w	r3, r3, #32
	lsr.w	r3, r0, r3
	orr.w	r3, r3, r12
	lsls	r0, r1
	cmp	r1, #0
	it	pl
	movpl	r3, r0
	.loc	17 70 14                        @ ../communication/can/can_helpers.hpp:70:14
	ldr	r1, [sp, #16]
	ldr	r0, [sp, #20]
	orrs	r0, r3
	orrs	r1, r2
	str	r1, [sp, #16]
	str	r0, [sp, #20]
	.loc	17 72 21 is_stmt 1              @ ../communication/can/can_helpers.hpp:72:21
	ldr	r1, [sp, #60]
	.loc	17 72 9 is_stmt 0               @ ../communication/can/can_helpers.hpp:72:9
	ldr	r0, [sp, #16]
	ldr	r2, [sp, #20]
	str.w	r2, [r1, #11]
	str.w	r0, [r1, #7]
	.loc	17 73 33 is_stmt 1              @ ../communication/can/can_helpers.hpp:73:33
	ldr	r0, [sp, #60]
	.loc	17 73 37 is_stmt 0              @ ../communication/can/can_helpers.hpp:73:37
	adds	r0, #7
	.loc	17 73 22                        @ ../communication/can/can_helpers.hpp:73:22
	bl	_ZNSt3__25beginB7v180000IhLj8EEEPT_RAT0__S1_
	.loc	17 73 52                        @ ../communication/can/can_helpers.hpp:73:52
	str	r0, [sp, #4]                    @ 4-byte Spill
	ldr	r0, [sp, #60]
	.loc	17 73 56                        @ ../communication/can/can_helpers.hpp:73:56
	adds	r0, #7
	.loc	17 73 43                        @ ../communication/can/can_helpers.hpp:73:43
	bl	_ZNSt3__23endB7v180000IhLj8EEEPT_RAT0__S1_
	mov	r1, r0
	.loc	17 73 9                         @ ../communication/can/can_helpers.hpp:73:9
	ldr	r0, [sp, #4]                    @ 4-byte Reload
	bl	_ZNSt3__27reverseB7v180000IPhEEvT_S2_
	b	.LBB54_6
.Ltmp231:
.LBB54_6:
	.loc	17 75 1 epilogue_begin is_stmt 1 @ ../communication/can/can_helpers.hpp:75:1
	add	sp, #64
	pop	{r7, pc}
.Ltmp232:
.Lfunc_end54:
	.size	_Z13can_setSignalIiEvR13can_Message_tRKT_hhb, .Lfunc_end54-_Z13can_setSignalIiEvR13can_Message_tRKT_hhb
	.cfi_endproc
	.cantunwind
	.fnend
                                        @ -- End function
	.section	.text._Z13can_getSignalIfET_13can_Message_thhb,"axG",%progbits,_Z13can_getSignalIfET_13can_Message_thhb,comdat
	.hidden	_Z13can_getSignalIfET_13can_Message_thhb @ -- Begin function _Z13can_getSignalIfET_13can_Message_thhb
	.weak	_Z13can_getSignalIfET_13can_Message_thhb
	.p2align	2
	.type	_Z13can_getSignalIfET_13can_Message_thhb,%function
	.code	16                              @ @_Z13can_getSignalIfET_13can_Message_thhb
	.thumb_func
_Z13can_getSignalIfET_13can_Message_thhb:
.Lfunc_begin55:
	.loc	17 31 0                         @ ../communication/can/can_helpers.hpp:31:0
	.fnstart
	.cfi_startproc
@ %bb.0:
	.save	{r4, lr}
	push	{r4, lr}
	.cfi_def_cfa_offset 8
	.cfi_offset lr, -4
	.cfi_offset r4, -8
	.pad	#64
	sub	sp, #64
	.cfi_def_cfa_offset 72
	mov	r4, r3
	mov	lr, r2
	mov	r12, r1
	mov	r3, r0
                                        @ kill: def $r0 killed $r4
                                        @ kill: def $r2 killed $lr
                                        @ kill: def $r1 killed $r12
                                        @ kill: def $r0 killed $r3
	ldr	r0, [sp, #80]
	ldr	r1, [sp, #76]
	ldr	r2, [sp, #72]
	str	r4, [sp, #60]
	str.w	lr, [sp, #56]
	str.w	r12, [sp, #52]
	str	r3, [sp, #48]
	strb.w	r2, [sp, #47]
	strb.w	r1, [sp, #46]
	strb.w	r0, [sp, #45]
	movs	r0, #0
.Ltmp233:
	.loc	17 32 14 prologue_end           @ ../communication/can/can_helpers.hpp:32:14
	str	r0, [sp, #36]
	str	r0, [sp, #32]
	.loc	17 33 21                        @ ../communication/can/can_helpers.hpp:33:21
	ldrb.w	r0, [sp, #46]
	cmp	r0, #63
	bgt	.LBB55_2
	b	.LBB55_1
.LBB55_1:
	.loc	17 33 44 is_stmt 0              @ ../communication/can/can_helpers.hpp:33:44
	ldrb.w	r3, [sp, #46]
	.loc	17 33 41                        @ ../communication/can/can_helpers.hpp:33:41
	sub.w	r2, r3, #32
	movs	r1, #1
	lsl.w	r12, r1, r2
	rsb.w	r0, r3, #32
	lsr.w	r0, r1, r0
	cmp	r2, #0
	it	pl
	movpl	r0, r12
	lsls	r1, r3
	cmp	r2, #0
	it	pl
	movpl	r1, #0
	.loc	17 33 52                        @ ../communication/can/can_helpers.hpp:33:52
	subs	r1, #1
	sbc	r0, r0, #0
	str	r1, [sp, #12]                   @ 4-byte Spill
	.loc	17 33 21                        @ ../communication/can/can_helpers.hpp:33:21
	str	r0, [sp, #16]                   @ 4-byte Spill
	b	.LBB55_3
.LBB55_2:
	.loc	17 0 21                         @ ../communication/can/can_helpers.hpp:0:21
	mov.w	r1, #-1
	mov	r0, r1
	str	r1, [sp, #12]                   @ 4-byte Spill
	.loc	17 33 21                        @ ../communication/can/can_helpers.hpp:33:21
	str	r0, [sp, #16]                   @ 4-byte Spill
	b	.LBB55_3
.LBB55_3:
	ldr	r1, [sp, #12]                   @ 4-byte Reload
	ldr	r0, [sp, #16]                   @ 4-byte Reload
	.loc	17 33 14                        @ ../communication/can/can_helpers.hpp:33:14
	str	r1, [sp, #24]
	str	r0, [sp, #28]
.Ltmp234:
	.loc	17 35 9 is_stmt 1               @ ../communication/can/can_helpers.hpp:35:9
	ldrb.w	r0, [sp, #45]
.Ltmp235:
	.loc	17 35 9 is_stmt 0               @ ../communication/can/can_helpers.hpp:35:9
	lsls	r0, r0, #31
	cbz	r0, .LBB55_5
	b	.LBB55_4
.LBB55_4:
.Ltmp236:
	.loc	17 36 9 is_stmt 1               @ ../communication/can/can_helpers.hpp:36:9
	ldr.w	r0, [sp, #55]
	ldr.w	r1, [sp, #59]
	str	r1, [sp, #36]
	str	r0, [sp, #32]
	.loc	17 37 20                        @ ../communication/can/can_helpers.hpp:37:20
	ldr	r0, [sp, #32]
	ldr	r1, [sp, #36]
	.loc	17 37 31 is_stmt 0              @ ../communication/can/can_helpers.hpp:37:31
	ldrb.w	r3, [sp, #47]
	.loc	17 37 28                        @ ../communication/can/can_helpers.hpp:37:28
	lsrs	r0, r3
	rsb.w	r2, r3, #32
	lsl.w	r2, r1, r2
	orrs	r0, r2
	sub.w	r2, r3, #32
	lsr.w	r12, r1, r2
	cmp	r2, #0
	it	pl
	movpl	r0, r12
	lsrs	r1, r3
	cmp	r2, #0
	it	pl
	movpl	r1, #0
	.loc	17 37 43                        @ ../communication/can/can_helpers.hpp:37:43
	ldr	r3, [sp, #24]
	ldr	r2, [sp, #28]
	.loc	17 37 41                        @ ../communication/can/can_helpers.hpp:37:41
	ands	r0, r3
	ands	r1, r2
	.loc	17 37 17                        @ ../communication/can/can_helpers.hpp:37:17
	str	r1, [sp, #36]
	str	r0, [sp, #32]
	.loc	17 38 5 is_stmt 1               @ ../communication/can/can_helpers.hpp:38:5
	b	.LBB55_6
.Ltmp237:
.LBB55_5:
	.loc	17 0 5 is_stmt 0                @ ../communication/can/can_helpers.hpp:0:5
	add	r0, sp, #48
.Ltmp238:
	.loc	17 39 37 is_stmt 1              @ ../communication/can/can_helpers.hpp:39:37
	adds	r0, #7
	.loc	17 39 22 is_stmt 0              @ ../communication/can/can_helpers.hpp:39:22
	str	r0, [sp, #4]                    @ 4-byte Spill
	bl	_ZNSt3__25beginB7v180000IhLj8EEEPT_RAT0__S1_
	mov	r1, r0
	.loc	17 39 43                        @ ../communication/can/can_helpers.hpp:39:43
	ldr	r0, [sp, #4]                    @ 4-byte Reload
	str	r1, [sp, #8]                    @ 4-byte Spill
	bl	_ZNSt3__23endB7v180000IhLj8EEEPT_RAT0__S1_
	mov	r1, r0
	.loc	17 39 9                         @ ../communication/can/can_helpers.hpp:39:9
	ldr	r0, [sp, #8]                    @ 4-byte Reload
	bl	_ZNSt3__27reverseB7v180000IPhEEvT_S2_
	.loc	17 40 9 is_stmt 1               @ ../communication/can/can_helpers.hpp:40:9
	ldr.w	r0, [sp, #55]
	ldr.w	r1, [sp, #59]
	str	r1, [sp, #36]
	str	r0, [sp, #32]
	.loc	17 41 20                        @ ../communication/can/can_helpers.hpp:41:20
	ldr	r0, [sp, #32]
	ldr	r2, [sp, #36]
	.loc	17 41 37 is_stmt 0              @ ../communication/can/can_helpers.hpp:41:37
	ldrb.w	r1, [sp, #47]
	.loc	17 41 48                        @ ../communication/can/can_helpers.hpp:41:48
	ldrb.w	r3, [sp, #46]
	.loc	17 41 46                        @ ../communication/can/can_helpers.hpp:41:46
	add	r3, r1
	rsb.w	r12, r3, #64
	.loc	17 41 28                        @ ../communication/can/can_helpers.hpp:41:28
	lsr.w	r1, r2, r12
	rsb.w	r3, r3, #32
	cmp	r3, #0
	it	pl
	movpl	r1, #0
	lsr.w	r0, r0, r12
	rsb.w	r12, r12, #32
	lsl.w	r12, r2, r12
	orr.w	r0, r0, r12
	lsrs	r2, r3
	cmp	r3, #0
	it	pl
	movpl	r0, r2
	.loc	17 41 59                        @ ../communication/can/can_helpers.hpp:41:59
	ldr	r3, [sp, #24]
	ldr	r2, [sp, #28]
	.loc	17 41 57                        @ ../communication/can/can_helpers.hpp:41:57
	ands	r0, r3
	ands	r1, r2
	.loc	17 41 17                        @ ../communication/can/can_helpers.hpp:41:17
	str	r1, [sp, #36]
	str	r0, [sp, #32]
	b	.LBB55_6
.Ltmp239:
.LBB55_6:
	.loc	17 45 5 is_stmt 1               @ ../communication/can/can_helpers.hpp:45:5
	ldr	r0, [sp, #32]
	str	r0, [sp, #20]
	.loc	17 46 12                        @ ../communication/can/can_helpers.hpp:46:12
	vldr	s0, [sp, #20]
	.loc	17 46 5 epilogue_begin is_stmt 0 @ ../communication/can/can_helpers.hpp:46:5
	add	sp, #64
	pop	{r4, pc}
.Ltmp240:
.Lfunc_end55:
	.size	_Z13can_getSignalIfET_13can_Message_thhb, .Lfunc_end55-_Z13can_getSignalIfET_13can_Message_thhb
	.cfi_endproc
	.cantunwind
	.fnend
                                        @ -- End function
	.section	.text._Z13can_getSignalIsEf13can_Message_thhbff,"axG",%progbits,_Z13can_getSignalIsEf13can_Message_thhbff,comdat
	.hidden	_Z13can_getSignalIsEf13can_Message_thhbff @ -- Begin function _Z13can_getSignalIsEf13can_Message_thhbff
	.weak	_Z13can_getSignalIsEf13can_Message_thhbff
	.p2align	2
	.type	_Z13can_getSignalIsEf13can_Message_thhbff,%function
	.code	16                              @ @_Z13can_getSignalIsEf13can_Message_thhbff
	.thumb_func
_Z13can_getSignalIsEf13can_Message_thhbff:
.Lfunc_begin56:
	.loc	17 84 0 is_stmt 1               @ ../communication/can/can_helpers.hpp:84:0
	.fnstart
	.cfi_startproc
@ %bb.0:
	.save	{r4, r5, r7, lr}
	push	{r4, r5, r7, lr}
	.cfi_def_cfa_offset 16
	.cfi_offset lr, -4
	.cfi_offset r7, -8
	.cfi_offset r5, -12
	.cfi_offset r4, -16
	.pad	#64
	sub	sp, #64
	.cfi_def_cfa_offset 80
	mov	r4, r3
	mov	lr, r2
	mov	r12, r1
	mov	r3, r0
                                        @ kill: def $r0 killed $r4
                                        @ kill: def $r2 killed $lr
                                        @ kill: def $r1 killed $r12
                                        @ kill: def $r0 killed $r3
	ldr	r0, [sp, #88]
	ldr	r1, [sp, #84]
	ldr	r2, [sp, #80]
	str	r4, [sp, #60]
	str.w	lr, [sp, #56]
	str.w	r12, [sp, #52]
	str	r3, [sp, #48]
	strb.w	r2, [sp, #47]
	strb.w	r1, [sp, #46]
	strb.w	r0, [sp, #45]
	vstr	s0, [sp, #40]
	vstr	s1, [sp, #36]
.Ltmp241:
	.loc	17 85 33 prologue_end           @ ../communication/can/can_helpers.hpp:85:33
	ldr	r0, [sp, #48]
	ldr	r1, [sp, #52]
	ldr	r2, [sp, #56]
	ldr	r3, [sp, #60]
	str	r3, [sp, #28]
	str	r2, [sp, #24]
	str	r1, [sp, #20]
	str	r0, [sp, #16]
	.loc	17 85 38 is_stmt 0              @ ../communication/can/can_helpers.hpp:85:38
	ldrb.w	r12, [sp, #47]
	.loc	17 85 48                        @ ../communication/can/can_helpers.hpp:85:48
	ldrb.w	r4, [sp, #46]
	.loc	17 85 16                        @ ../communication/can/can_helpers.hpp:85:16
	ldr	r0, [sp, #16]
	ldr	r1, [sp, #20]
	ldr	r2, [sp, #24]
	ldr	r3, [sp, #28]
	ldrb.w	lr, [sp, #45]
	and	r5, lr, #1
	mov	lr, sp
	str.w	r5, [lr, #8]
	str.w	r4, [lr, #4]
	str.w	r12, [lr]
	bl	_Z13can_getSignalIsET_13can_Message_thhb
	.loc	17 85 7                         @ ../communication/can/can_helpers.hpp:85:7
	strh.w	r0, [sp, #34]
	.loc	17 86 13 is_stmt 1              @ ../communication/can/can_helpers.hpp:86:13
	ldrsh.w	r0, [sp, #34]
	vmov	s0, r0
	vcvt.f32.s32	s0, s0
	.loc	17 86 22 is_stmt 0              @ ../communication/can/can_helpers.hpp:86:22
	vldr	s4, [sp, #40]
	.loc	17 86 32                        @ ../communication/can/can_helpers.hpp:86:32
	vldr	s2, [sp, #36]
	.loc	17 86 30                        @ ../communication/can/can_helpers.hpp:86:30
	vmul.f32	s0, s0, s4
	vadd.f32	s0, s0, s2
	.loc	17 86 5 epilogue_begin          @ ../communication/can/can_helpers.hpp:86:5
	add	sp, #64
	pop	{r4, r5, r7, pc}
.Ltmp242:
.Lfunc_end56:
	.size	_Z13can_getSignalIsEf13can_Message_thhbff, .Lfunc_end56-_Z13can_getSignalIsEf13can_Message_thhbff
	.cfi_endproc
	.cantunwind
	.fnend
                                        @ -- End function
	.section	.text._ZN10Controller17input_pos_updatedEv,"axG",%progbits,_ZN10Controller17input_pos_updatedEv,comdat
	.hidden	_ZN10Controller17input_pos_updatedEv @ -- Begin function _ZN10Controller17input_pos_updatedEv
	.weak	_ZN10Controller17input_pos_updatedEv
	.p2align	2
	.type	_ZN10Controller17input_pos_updatedEv,%function
	.code	16                              @ @_ZN10Controller17input_pos_updatedEv
	.thumb_func
_ZN10Controller17input_pos_updatedEv:
.Lfunc_begin57:
	.file	21 "D:\\ikingtec\\Robot\\ODrive\\Firmware\\MDK-ARM" "../MotorControl/controller.hpp"
	.loc	21 74 0 is_stmt 1               @ ../MotorControl/controller.hpp:74:0
	.fnstart
	.cfi_startproc
@ %bb.0:
	.pad	#4
	sub	sp, #4
	.cfi_def_cfa_offset 4
	str	r0, [sp]
	ldr	r1, [sp]
	movw	r2, #14664
	movs	r0, #1
.Ltmp243:
	.loc	21 75 28 prologue_end           @ ../MotorControl/controller.hpp:75:28
	strb	r0, [r1, r2]
	.loc	21 76 5 epilogue_begin          @ ../MotorControl/controller.hpp:76:5
	add	sp, #4
	bx	lr
.Ltmp244:
.Lfunc_end57:
	.size	_ZN10Controller17input_pos_updatedEv, .Lfunc_end57-_ZN10Controller17input_pos_updatedEv
	.cfi_endproc
	.cantunwind
	.fnend
                                        @ -- End function
	.section	.text._ZNKSt3__223__optional_storage_baseINS_4pairIffEELb0EE9has_valueB7v180000Ev,"axG",%progbits,_ZNKSt3__223__optional_storage_baseINS_4pairIffEELb0EE9has_valueB7v180000Ev,comdat
	.hidden	_ZNKSt3__223__optional_storage_baseINS_4pairIffEELb0EE9has_valueB7v180000Ev @ -- Begin function _ZNKSt3__223__optional_storage_baseINS_4pairIffEELb0EE9has_valueB7v180000Ev
	.weak	_ZNKSt3__223__optional_storage_baseINS_4pairIffEELb0EE9has_valueB7v180000Ev
	.p2align	2
	.type	_ZNKSt3__223__optional_storage_baseINS_4pairIffEELb0EE9has_valueB7v180000Ev,%function
	.code	16                              @ @_ZNKSt3__223__optional_storage_baseINS_4pairIffEELb0EE9has_valueB7v180000Ev
	.thumb_func
_ZNKSt3__223__optional_storage_baseINS_4pairIffEELb0EE9has_valueB7v180000Ev:
.Lfunc_begin58:
	.loc	4 386 0                         @ D:\Embed\MDK\MDK\ARM\ARMCompilerV621\Bin\..\include\libcxx\optional:386:0
	.fnstart
	.cfi_startproc
@ %bb.0:
	.pad	#4
	sub	sp, #4
	.cfi_def_cfa_offset 4
	str	r0, [sp]
	ldr	r0, [sp]
.Ltmp245:
	.loc	4 387 9 prologue_end            @ D:\Embed\MDK\MDK\ARM\ARMCompilerV621\Bin\..\include\libcxx\optional:387:9
	ldrb	r0, [r0, #8]
	and	r0, r0, #1
	.loc	4 387 9 epilogue_begin is_stmt 0 @ D:\Embed\MDK\MDK\ARM\ARMCompilerV621\Bin\..\include\libcxx\optional:387:9
	add	sp, #4
	bx	lr
.Ltmp246:
.Lfunc_end58:
	.size	_ZNKSt3__223__optional_storage_baseINS_4pairIffEELb0EE9has_valueB7v180000Ev, .Lfunc_end58-_ZNKSt3__223__optional_storage_baseINS_4pairIffEELb0EE9has_valueB7v180000Ev
	.cfi_endproc
	.cantunwind
	.fnend
                                        @ -- End function
	.section	.text._ZNSt3__24pairIffEC2B7v180000IffLi0EEEOT_OT0_,"axG",%progbits,_ZNSt3__24pairIffEC2B7v180000IffLi0EEEOT_OT0_,comdat
	.hidden	_ZNSt3__24pairIffEC2B7v180000IffLi0EEEOT_OT0_ @ -- Begin function _ZNSt3__24pairIffEC2B7v180000IffLi0EEEOT_OT0_
	.weak	_ZNSt3__24pairIffEC2B7v180000IffLi0EEEOT_OT0_
	.p2align	2
	.type	_ZNSt3__24pairIffEC2B7v180000IffLi0EEEOT_OT0_,%function
	.code	16                              @ @_ZNSt3__24pairIffEC2B7v180000IffLi0EEEOT_OT0_
	.thumb_func
_ZNSt3__24pairIffEC2B7v180000IffLi0EEEOT_OT0_:
.Lfunc_begin59:
	.loc	16 222 0 is_stmt 1              @ D:\Embed\MDK\MDK\ARM\ARMCompilerV621\Bin\..\include\libcxx\__utility/pair.h:222:0
	.fnstart
	.cfi_startproc
@ %bb.0:
	.pad	#12
	sub	sp, #12
	.cfi_def_cfa_offset 12
	str	r0, [sp, #8]
	str	r1, [sp, #4]
	str	r2, [sp]
	ldr	r0, [sp, #8]
.Ltmp247:
	.loc	16 222 35 prologue_end          @ D:\Embed\MDK\MDK\ARM\ARMCompilerV621\Bin\..\include\libcxx\__utility/pair.h:222:35
	ldr	r1, [sp, #4]
	.loc	16 222 17 is_stmt 0             @ D:\Embed\MDK\MDK\ARM\ARMCompilerV621\Bin\..\include\libcxx\__utility/pair.h:222:17
	ldr	r1, [r1]
	.loc	16 222 11                       @ D:\Embed\MDK\MDK\ARM\ARMCompilerV621\Bin\..\include\libcxx\__utility/pair.h:222:11
	str	r1, [r0]
	.loc	16 222 68                       @ D:\Embed\MDK\MDK\ARM\ARMCompilerV621\Bin\..\include\libcxx\__utility/pair.h:222:68
	ldr	r1, [sp]
	.loc	16 222 50                       @ D:\Embed\MDK\MDK\ARM\ARMCompilerV621\Bin\..\include\libcxx\__utility/pair.h:222:50
	ldr	r1, [r1]
	.loc	16 222 43                       @ D:\Embed\MDK\MDK\ARM\ARMCompilerV621\Bin\..\include\libcxx\__utility/pair.h:222:43
	str	r1, [r0, #4]
	.loc	16 222 76 epilogue_begin        @ D:\Embed\MDK\MDK\ARM\ARMCompilerV621\Bin\..\include\libcxx\__utility/pair.h:222:76
	add	sp, #12
	bx	lr
.Ltmp248:
.Lfunc_end59:
	.size	_ZNSt3__24pairIffEC2B7v180000IffLi0EEEOT_OT0_, .Lfunc_end59-_ZNSt3__24pairIffEC2B7v180000IffLi0EEEOT_OT0_
	.cfi_endproc
	.cantunwind
	.fnend
                                        @ -- End function
	.section	.text._ZNSt3__28optionalINS_4pairIffEEEaSB7v180000IS2_vEERS3_OT_,"axG",%progbits,_ZNSt3__28optionalINS_4pairIffEEEaSB7v180000IS2_vEERS3_OT_,comdat
	.hidden	_ZNSt3__28optionalINS_4pairIffEEEaSB7v180000IS2_vEERS3_OT_ @ -- Begin function _ZNSt3__28optionalINS_4pairIffEEEaSB7v180000IS2_vEERS3_OT_
	.weak	_ZNSt3__28optionalINS_4pairIffEEEaSB7v180000IS2_vEERS3_OT_
	.p2align	2
	.type	_ZNSt3__28optionalINS_4pairIffEEEaSB7v180000IS2_vEERS3_OT_,%function
	.code	16                              @ @_ZNSt3__28optionalINS_4pairIffEEEaSB7v180000IS2_vEERS3_OT_
	.thumb_func
_ZNSt3__28optionalINS_4pairIffEEEaSB7v180000IS2_vEERS3_OT_:
.Lfunc_begin60:
	.loc	4 907 0 is_stmt 1               @ D:\Embed\MDK\MDK\ARM\ARMCompilerV621\Bin\..\include\libcxx\optional:907:0
	.fnstart
	.cfi_startproc
@ %bb.0:
	.save	{r7, lr}
	push	{r7, lr}
	.cfi_def_cfa_offset 8
	.cfi_offset lr, -4
	.cfi_offset r7, -8
	.pad	#16
	sub	sp, #16
	.cfi_def_cfa_offset 24
	str	r0, [sp, #12]
	str	r1, [sp, #8]
	ldr	r0, [sp, #12]
.Ltmp249:
	.loc	4 908 19 prologue_end           @ D:\Embed\MDK\MDK\ARM\ARMCompilerV621\Bin\..\include\libcxx\optional:908:19
	str	r0, [sp, #4]                    @ 4-byte Spill
	bl	_ZNKSt3__223__optional_storage_baseINS_4pairIffEELb0EE9has_valueB7v180000Ev
.Ltmp250:
	.loc	4 908 13 is_stmt 0              @ D:\Embed\MDK\MDK\ARM\ARMCompilerV621\Bin\..\include\libcxx\optional:908:13
	cbz	r0, .LBB60_2
	b	.LBB60_1
.LBB60_1:
.Ltmp251:
	.loc	4 909 49 is_stmt 1              @ D:\Embed\MDK\MDK\ARM\ARMCompilerV621\Bin\..\include\libcxx\optional:909:49
	ldr	r0, [sp, #4]                    @ 4-byte Reload
	ldr	r1, [sp, #8]
	.loc	4 909 19 is_stmt 0              @ D:\Embed\MDK\MDK\ARM\ARMCompilerV621\Bin\..\include\libcxx\optional:909:19
	str	r1, [sp]                        @ 4-byte Spill
	bl	_ZNRSt3__223__optional_storage_baseINS_4pairIffEELb0EE5__getB7v180000Ev
	ldr	r1, [sp]                        @ 4-byte Reload
	.loc	4 909 27                        @ D:\Embed\MDK\MDK\ARM\ARMCompilerV621\Bin\..\include\libcxx\optional:909:27
	bl	_ZNSt3__24pairIffEaSB7v180000EOS1_
	.loc	4 909 13                        @ D:\Embed\MDK\MDK\ARM\ARMCompilerV621\Bin\..\include\libcxx\optional:909:13
	b	.LBB60_3
.LBB60_2:
	.loc	4 911 51 is_stmt 1              @ D:\Embed\MDK\MDK\ARM\ARMCompilerV621\Bin\..\include\libcxx\optional:911:51
	ldr	r0, [sp, #4]                    @ 4-byte Reload
	ldr	r1, [sp, #8]
	.loc	4 911 19 is_stmt 0              @ D:\Embed\MDK\MDK\ARM\ARMCompilerV621\Bin\..\include\libcxx\optional:911:19
	bl	_ZNSt3__223__optional_storage_baseINS_4pairIffEELb0EE11__constructB7v180000IJS2_EEEvDpOT_
	b	.LBB60_3
.Ltmp252:
.LBB60_3:
	.loc	4 912 9 is_stmt 1               @ D:\Embed\MDK\MDK\ARM\ARMCompilerV621\Bin\..\include\libcxx\optional:912:9
	ldr	r0, [sp, #4]                    @ 4-byte Reload
	.loc	4 912 9 epilogue_begin is_stmt 0 @ D:\Embed\MDK\MDK\ARM\ARMCompilerV621\Bin\..\include\libcxx\optional:912:9
	add	sp, #16
	pop	{r7, pc}
.Ltmp253:
.Lfunc_end60:
	.size	_ZNSt3__28optionalINS_4pairIffEEEaSB7v180000IS2_vEERS3_OT_, .Lfunc_end60-_ZNSt3__28optionalINS_4pairIffEEEaSB7v180000IS2_vEERS3_OT_
	.cfi_endproc
	.cantunwind
	.fnend
                                        @ -- End function
	.section	.text._ZNSt3__28optionalINS_4pairIffEEEptB7v180000Ev,"axG",%progbits,_ZNSt3__28optionalINS_4pairIffEEEptB7v180000Ev,comdat
	.hidden	_ZNSt3__28optionalINS_4pairIffEEEptB7v180000Ev @ -- Begin function _ZNSt3__28optionalINS_4pairIffEEEptB7v180000Ev
	.weak	_ZNSt3__28optionalINS_4pairIffEEEptB7v180000Ev
	.p2align	2
	.type	_ZNSt3__28optionalINS_4pairIffEEEptB7v180000Ev,%function
	.code	16                              @ @_ZNSt3__28optionalINS_4pairIffEEEptB7v180000Ev
	.thumb_func
_ZNSt3__28optionalINS_4pairIffEEEptB7v180000Ev:
.Lfunc_begin61:
	.loc	4 1008 0 is_stmt 1              @ D:\Embed\MDK\MDK\ARM\ARMCompilerV621\Bin\..\include\libcxx\optional:1008:0
	.fnstart
	.cfi_startproc
@ %bb.0:
	.save	{r7, lr}
	push	{r7, lr}
	.cfi_def_cfa_offset 8
	.cfi_offset lr, -4
	.cfi_offset r7, -8
	.pad	#8
	sub	sp, #8
	.cfi_def_cfa_offset 16
	str	r0, [sp, #4]
	ldr	r0, [sp, #4]
.Ltmp254:
	.loc	4 1010 39 prologue_end          @ D:\Embed\MDK\MDK\ARM\ARMCompilerV621\Bin\..\include\libcxx\optional:1010:39
	bl	_ZNRSt3__223__optional_storage_baseINS_4pairIffEELb0EE5__getB7v180000Ev
	.loc	4 1010 9 epilogue_begin is_stmt 0 @ D:\Embed\MDK\MDK\ARM\ARMCompilerV621\Bin\..\include\libcxx\optional:1010:9
	add	sp, #8
	pop	{r7, pc}
.Ltmp255:
.Lfunc_end61:
	.size	_ZNSt3__28optionalINS_4pairIffEEEptB7v180000Ev, .Lfunc_end61-_ZNSt3__28optionalINS_4pairIffEEEptB7v180000Ev
	.cfi_endproc
	.cantunwind
	.fnend
                                        @ -- End function
	.section	.text._Z13can_getSignalIhET_13can_Message_thhb,"axG",%progbits,_Z13can_getSignalIhET_13can_Message_thhb,comdat
	.hidden	_Z13can_getSignalIhET_13can_Message_thhb @ -- Begin function _Z13can_getSignalIhET_13can_Message_thhb
	.weak	_Z13can_getSignalIhET_13can_Message_thhb
	.p2align	2
	.type	_Z13can_getSignalIhET_13can_Message_thhb,%function
	.code	16                              @ @_Z13can_getSignalIhET_13can_Message_thhb
	.thumb_func
_Z13can_getSignalIhET_13can_Message_thhb:
.Lfunc_begin62:
	.loc	17 31 0 is_stmt 1               @ ../communication/can/can_helpers.hpp:31:0
	.fnstart
	.cfi_startproc
@ %bb.0:
	.save	{r4, lr}
	push	{r4, lr}
	.cfi_def_cfa_offset 8
	.cfi_offset lr, -4
	.cfi_offset r4, -8
	.pad	#64
	sub	sp, #64
	.cfi_def_cfa_offset 72
	mov	r4, r3
	mov	lr, r2
	mov	r12, r1
	mov	r3, r0
                                        @ kill: def $r0 killed $r4
                                        @ kill: def $r2 killed $lr
                                        @ kill: def $r1 killed $r12
                                        @ kill: def $r0 killed $r3
	ldr	r0, [sp, #80]
	ldr	r1, [sp, #76]
	ldr	r2, [sp, #72]
	str	r4, [sp, #60]
	str.w	lr, [sp, #56]
	str.w	r12, [sp, #52]
	str	r3, [sp, #48]
	strb.w	r2, [sp, #47]
	strb.w	r1, [sp, #46]
	strb.w	r0, [sp, #45]
	movs	r0, #0
.Ltmp256:
	.loc	17 32 14 prologue_end           @ ../communication/can/can_helpers.hpp:32:14
	str	r0, [sp, #36]
	str	r0, [sp, #32]
	.loc	17 33 21                        @ ../communication/can/can_helpers.hpp:33:21
	ldrb.w	r0, [sp, #46]
	cmp	r0, #63
	bgt	.LBB62_2
	b	.LBB62_1
.LBB62_1:
	.loc	17 33 44 is_stmt 0              @ ../communication/can/can_helpers.hpp:33:44
	ldrb.w	r3, [sp, #46]
	.loc	17 33 41                        @ ../communication/can/can_helpers.hpp:33:41
	sub.w	r2, r3, #32
	movs	r1, #1
	lsl.w	r12, r1, r2
	rsb.w	r0, r3, #32
	lsr.w	r0, r1, r0
	cmp	r2, #0
	it	pl
	movpl	r0, r12
	lsls	r1, r3
	cmp	r2, #0
	it	pl
	movpl	r1, #0
	.loc	17 33 52                        @ ../communication/can/can_helpers.hpp:33:52
	subs	r1, #1
	sbc	r0, r0, #0
	str	r1, [sp, #12]                   @ 4-byte Spill
	.loc	17 33 21                        @ ../communication/can/can_helpers.hpp:33:21
	str	r0, [sp, #16]                   @ 4-byte Spill
	b	.LBB62_3
.LBB62_2:
	.loc	17 0 21                         @ ../communication/can/can_helpers.hpp:0:21
	mov.w	r1, #-1
	mov	r0, r1
	str	r1, [sp, #12]                   @ 4-byte Spill
	.loc	17 33 21                        @ ../communication/can/can_helpers.hpp:33:21
	str	r0, [sp, #16]                   @ 4-byte Spill
	b	.LBB62_3
.LBB62_3:
