	.text
	.syntax unified
	.eabi_attribute	67, "2.09"	@ Tag_conformance
	.cpu	cortex-m4
	.eabi_attribute	6, 13	@ Tag_CPU_arch
	.eabi_attribute	7, 77	@ Tag_CPU_arch_profile
	.eabi_attribute	8, 0	@ Tag_ARM_ISA_use
	.eabi_attribute	9, 2	@ Tag_THUMB_ISA_use
	.fpu	fpv4-sp-d16
	.eabi_attribute	27, 1	@ Tag_ABI_HardFP_use
	.eabi_attribute	36, 1	@ Tag_FP_HP_extension
	.eabi_attribute	34, 1	@ Tag_CPU_unaligned_access
	.eabi_attribute	17, 1	@ Tag_ABI_PCS_GOT_use
	.eabi_attribute	20, 2	@ Tag_ABI_FP_denormal
	.eabi_attribute	21, 0	@ Tag_ABI_FP_exceptions
	.eabi_attribute	23, 1	@ Tag_ABI_FP_number_model
	.eabi_attribute	24, 1	@ Tag_ABI_align_needed
	.eabi_attribute	25, 1	@ Tag_ABI_align_preserved
	.eabi_attribute	28, 1	@ Tag_ABI_VFP_args
	.eabi_attribute	38, 1	@ Tag_ABI_FP_16bit_format
	.eabi_attribute	18, 2	@ Tag_ABI_PCS_wchar_t
	.eabi_attribute	26, 1	@ Tag_ABI_enum_size
	.eabi_attribute	14, 0	@ Tag_ABI_PCS_R9_use
	.file	"channel_discoverer.cpp"
	.file	1 "D:\\ikingtec\\Robot\\ODrive\\Firmware\\MDK-ARM" "../fibre-cpp/channel_discoverer.cpp"
	.section	.text._ZN5fibre17ChannelDiscoverer13try_parse_keyEPKcS2_S2_PS2_S3_,"ax",%progbits
	.hidden	_ZN5fibre17ChannelDiscoverer13try_parse_keyEPKcS2_S2_PS2_S3_ @ -- Begin function _ZN5fibre17ChannelDiscoverer13try_parse_keyEPKcS2_S2_PS2_S3_
	.globl	_ZN5fibre17ChannelDiscoverer13try_parse_keyEPKcS2_S2_PS2_S3_
	.p2align	2
	.type	_ZN5fibre17ChannelDiscoverer13try_parse_keyEPKcS2_S2_PS2_S3_,%function
	.code	16                              @ @_ZN5fibre17ChannelDiscoverer13try_parse_keyEPKcS2_S2_PS2_S3_
	.thumb_func
_ZN5fibre17ChannelDiscoverer13try_parse_keyEPKcS2_S2_PS2_S3_:
.Lfunc_begin0:
	.loc	1 9 0                           @ ../fibre-cpp/channel_discoverer.cpp:9:0
	.fnstart
	.cfi_sections .debug_frame
	.cfi_startproc
@ %bb.0:
	.save	{r7, lr}
	push	{r7, lr}
	.cfi_def_cfa_offset 8
	.cfi_offset lr, -4
	.cfi_offset r7, -8
	.pad	#40
	sub	sp, #40
	.cfi_def_cfa_offset 48
	ldr.w	r12, [sp, #52]
	ldr.w	r12, [sp, #48]
	str	r0, [sp, #32]
	str	r1, [sp, #28]
	str	r2, [sp, #24]
	str	r3, [sp, #20]
.Ltmp0:
	.loc	1 10 29 prologue_end            @ ../fibre-cpp/channel_discoverer.cpp:10:29
	ldr	r0, [sp, #20]
	.loc	1 10 22 is_stmt 0               @ ../fibre-cpp/channel_discoverer.cpp:10:22
	bl	strlen
	.loc	1 10 13                         @ ../fibre-cpp/channel_discoverer.cpp:10:13
	str	r0, [sp, #16]
	.loc	1 12 5 is_stmt 1                @ ../fibre-cpp/channel_discoverer.cpp:12:5
	b	.LBB0_1
.LBB0_1:                                @ =>This Inner Loop Header: Depth=1
	.loc	1 12 12 is_stmt 0               @ ../fibre-cpp/channel_discoverer.cpp:12:12
	ldr	r0, [sp, #28]
	.loc	1 12 21                         @ ../fibre-cpp/channel_discoverer.cpp:12:21
	ldr	r1, [sp, #24]
	.loc	1 12 5                          @ ../fibre-cpp/channel_discoverer.cpp:12:5
	cmp	r0, r1
	beq	.LBB0_11
	b	.LBB0_2
.LBB0_2:                                @   in Loop: Header=BB0_1 Depth=1
.Ltmp1:
	.loc	1 13 44 is_stmt 1               @ ../fibre-cpp/channel_discoverer.cpp:13:44
	ldr	r0, [sp, #28]
	.loc	1 13 51 is_stmt 0               @ ../fibre-cpp/channel_discoverer.cpp:13:51
	ldr	r1, [sp, #24]
	movs	r2, #44
	.loc	1 13 56                         @ ../fibre-cpp/channel_discoverer.cpp:13:56
	strb.w	r2, [sp, #11]
	add.w	r2, sp, #11
	.loc	1 13 34                         @ ../fibre-cpp/channel_discoverer.cpp:13:34
	bl	_ZNSt3__24findB7v180000IPKccEET_S3_S3_RKT0_
	.loc	1 13 21                         @ ../fibre-cpp/channel_discoverer.cpp:13:21
	str	r0, [sp, #12]
.Ltmp2:
	.loc	1 15 14 is_stmt 1               @ ../fibre-cpp/channel_discoverer.cpp:15:14
	ldr	r0, [sp, #12]
	.loc	1 15 27 is_stmt 0               @ ../fibre-cpp/channel_discoverer.cpp:15:27
	ldr	r1, [sp, #28]
	.loc	1 15 25                         @ ../fibre-cpp/channel_discoverer.cpp:15:25
	subs	r0, r0, r1
	.loc	1 15 36                         @ ../fibre-cpp/channel_discoverer.cpp:15:36
	ldr	r1, [sp, #16]
	.loc	1 15 44                         @ ../fibre-cpp/channel_discoverer.cpp:15:44
	cmp	r0, r1
	blt	.LBB0_10
	b	.LBB0_3
.LBB0_3:                                @   in Loop: Header=BB0_1 Depth=1
	.loc	1 15 55                         @ ../fibre-cpp/channel_discoverer.cpp:15:55
	ldr	r0, [sp, #28]
	.loc	1 15 62                         @ ../fibre-cpp/channel_discoverer.cpp:15:62
	ldr	r1, [sp, #20]
	.loc	1 15 67                         @ ../fibre-cpp/channel_discoverer.cpp:15:67
	ldr	r2, [sp, #16]
	.loc	1 15 48                         @ ../fibre-cpp/channel_discoverer.cpp:15:48
	bl	memcmp
.Ltmp3:
	.loc	1 15 13                         @ ../fibre-cpp/channel_discoverer.cpp:15:13
	cbnz	r0, .LBB0_10
	b	.LBB0_4
.LBB0_4:                                @   in Loop: Header=BB0_1 Depth=1
.Ltmp4:
	.loc	1 16 17 is_stmt 1               @ ../fibre-cpp/channel_discoverer.cpp:16:17
	ldr	r0, [sp, #12]
	.loc	1 16 30 is_stmt 0               @ ../fibre-cpp/channel_discoverer.cpp:16:30
	ldr	r1, [sp, #28]
	.loc	1 16 28                         @ ../fibre-cpp/channel_discoverer.cpp:16:28
	subs	r0, r0, r1
	.loc	1 16 39                         @ ../fibre-cpp/channel_discoverer.cpp:16:39
	ldr	r1, [sp, #16]
.Ltmp5:
	.loc	1 16 17                         @ ../fibre-cpp/channel_discoverer.cpp:16:17
	cmp	r0, r1
	bne	.LBB0_6
	b	.LBB0_5
.LBB0_5:
.Ltmp6:
	.loc	1 18 41 is_stmt 1               @ ../fibre-cpp/channel_discoverer.cpp:18:41
	ldr	r0, [sp, #12]
	.loc	1 18 31 is_stmt 0               @ ../fibre-cpp/channel_discoverer.cpp:18:31
	ldr	r1, [sp, #52]
	.loc	1 18 39                         @ ../fibre-cpp/channel_discoverer.cpp:18:39
	str	r0, [r1]
	.loc	1 18 18                         @ ../fibre-cpp/channel_discoverer.cpp:18:18
	ldr	r1, [sp, #48]
	.loc	1 18 28                         @ ../fibre-cpp/channel_discoverer.cpp:18:28
	str	r0, [r1]
	movs	r0, #1
	.loc	1 19 17 is_stmt 1               @ ../fibre-cpp/channel_discoverer.cpp:19:17
	strb.w	r0, [sp, #39]
	b	.LBB0_12
.Ltmp7:
.LBB0_6:                                @   in Loop: Header=BB0_1 Depth=1
	.loc	1 20 24                         @ ../fibre-cpp/channel_discoverer.cpp:20:24
	ldr	r0, [sp, #28]
	.loc	1 20 30 is_stmt 0               @ ../fibre-cpp/channel_discoverer.cpp:20:30
	ldr	r1, [sp, #16]
	.loc	1 20 24                         @ ../fibre-cpp/channel_discoverer.cpp:20:24
	ldrb	r0, [r0, r1]
.Ltmp8:
	.loc	1 20 24                         @ ../fibre-cpp/channel_discoverer.cpp:20:24
	cmp	r0, #61
	bne	.LBB0_8
	b	.LBB0_7
.LBB0_7:
.Ltmp9:
	.loc	1 21 30 is_stmt 1               @ ../fibre-cpp/channel_discoverer.cpp:21:30
	ldr	r0, [sp, #28]
	.loc	1 21 38 is_stmt 0               @ ../fibre-cpp/channel_discoverer.cpp:21:38
	ldr	r1, [sp, #16]
	.loc	1 21 36                         @ ../fibre-cpp/channel_discoverer.cpp:21:36
	add	r0, r1
	.loc	1 21 45                         @ ../fibre-cpp/channel_discoverer.cpp:21:45
	adds	r0, #1
	.loc	1 21 18                         @ ../fibre-cpp/channel_discoverer.cpp:21:18
	ldr	r1, [sp, #48]
	.loc	1 21 28                         @ ../fibre-cpp/channel_discoverer.cpp:21:28
	str	r0, [r1]
	.loc	1 22 28 is_stmt 1               @ ../fibre-cpp/channel_discoverer.cpp:22:28
	ldr	r0, [sp, #12]
	.loc	1 22 18 is_stmt 0               @ ../fibre-cpp/channel_discoverer.cpp:22:18
	ldr	r1, [sp, #52]
	.loc	1 22 26                         @ ../fibre-cpp/channel_discoverer.cpp:22:26
	str	r0, [r1]
	movs	r0, #1
	.loc	1 23 17 is_stmt 1               @ ../fibre-cpp/channel_discoverer.cpp:23:17
	strb.w	r0, [sp, #39]
	b	.LBB0_12
.Ltmp10:
.LBB0_8:                                @   in Loop: Header=BB0_1 Depth=1
	.loc	1 0 17 is_stmt 0                @ ../fibre-cpp/channel_discoverer.cpp:0:17
	b	.LBB0_9
.LBB0_9:                                @   in Loop: Header=BB0_1 Depth=1
	.loc	1 25 9 is_stmt 1                @ ../fibre-cpp/channel_discoverer.cpp:25:9
	b	.LBB0_10
.Ltmp11:
.LBB0_10:                               @   in Loop: Header=BB0_1 Depth=1
	.loc	1 27 26                         @ ../fibre-cpp/channel_discoverer.cpp:27:26
	ldr	r0, [sp, #12]
	.loc	1 27 37 is_stmt 0               @ ../fibre-cpp/channel_discoverer.cpp:27:37
	adds	r0, #1
	.loc	1 27 26                         @ ../fibre-cpp/channel_discoverer.cpp:27:26
	str	r0, [sp, #4]
	add	r0, sp, #4
	add	r1, sp, #24
	.loc	1 27 17                         @ ../fibre-cpp/channel_discoverer.cpp:27:17
	bl	_ZNSt3__23minB7v180000IPKcEERKT_S5_S5_
	ldr	r0, [r0]
	.loc	1 27 15                         @ ../fibre-cpp/channel_discoverer.cpp:27:15
	str	r0, [sp, #28]
.Ltmp12:
	.loc	1 12 5 is_stmt 1                @ ../fibre-cpp/channel_discoverer.cpp:12:5
	b	.LBB0_1
.LBB0_11:
	.loc	1 0 5 is_stmt 0                 @ ../fibre-cpp/channel_discoverer.cpp:0:5
	movs	r0, #0
	.loc	1 30 5 is_stmt 1                @ ../fibre-cpp/channel_discoverer.cpp:30:5
	strb.w	r0, [sp, #39]
	b	.LBB0_12
.LBB0_12:
	.loc	1 31 1                          @ ../fibre-cpp/channel_discoverer.cpp:31:1
	ldrb.w	r0, [sp, #39]
	.loc	1 31 1 epilogue_begin is_stmt 0 @ ../fibre-cpp/channel_discoverer.cpp:31:1
	add	sp, #40
	pop	{r7, pc}
.Ltmp13:
.Lfunc_end0:
	.size	_ZN5fibre17ChannelDiscoverer13try_parse_keyEPKcS2_S2_PS2_S3_, .Lfunc_end0-_ZN5fibre17ChannelDiscoverer13try_parse_keyEPKcS2_S2_PS2_S3_
	.cfi_endproc
	.file	2 "D:\\ikingtec\\Robot\\ODrive\\Firmware\\MDK-ARM" "../fibre-cpp/include\\fibre/channel_discoverer.hpp"
	.cantunwind
	.fnend
                                        @ -- End function
	.section	.text._ZNSt3__24findB7v180000IPKccEET_S3_S3_RKT0_,"axG",%progbits,_ZNSt3__24findB7v180000IPKccEET_S3_S3_RKT0_,comdat
	.hidden	_ZNSt3__24findB7v180000IPKccEET_S3_S3_RKT0_ @ -- Begin function _ZNSt3__24findB7v180000IPKccEET_S3_S3_RKT0_
	.weak	_ZNSt3__24findB7v180000IPKccEET_S3_S3_RKT0_
	.p2align	2
	.type	_ZNSt3__24findB7v180000IPKccEET_S3_S3_RKT0_,%function
	.code	16                              @ @_ZNSt3__24findB7v180000IPKccEET_S3_S3_RKT0_
	.thumb_func
_ZNSt3__24findB7v180000IPKccEET_S3_S3_RKT0_:
.Lfunc_begin1:
	.file	3 "D:\\Embed\\MDK\\MDK\\ARM\\ARMCompilerV621\\Bin\\..\\include\\libcxx\\__algorithm" "find.h"
	.loc	3 123 0 is_stmt 1               @ D:\Embed\MDK\MDK\ARM\ARMCompilerV621\Bin\..\include\libcxx\__algorithm/find.h:123:0
	.fnstart
	.cfi_startproc
@ %bb.0:
	.save	{r7, lr}
	push	{r7, lr}
	.cfi_def_cfa_offset 8
	.cfi_offset lr, -4
	.cfi_offset r7, -8
	.pad	#24
	sub	sp, #24
	.cfi_def_cfa_offset 32
	str	r0, [sp, #20]
	str	r1, [sp, #16]
	str	r2, [sp, #12]
.Ltmp14:
	.loc	3 126 7 prologue_end            @ D:\Embed\MDK\MDK\ARM\ARMCompilerV621\Bin\..\include\libcxx\__algorithm/find.h:126:7
	ldr	r0, [sp, #20]
	.loc	3 126 33 is_stmt 0              @ D:\Embed\MDK\MDK\ARM\ARMCompilerV621\Bin\..\include\libcxx\__algorithm/find.h:126:33
	str	r0, [sp, #4]                    @ 4-byte Spill
	bl	_ZNSt3__213__unwrap_iterB7v180000IPKcNS_18__unwrap_iter_implIS2_Lb1EEELi0EEEDTclsrT0_8__unwrapclsr3stdE7declvalIT_EEEES6_
	.loc	3 126 81                        @ D:\Embed\MDK\MDK\ARM\ARMCompilerV621\Bin\..\include\libcxx\__algorithm/find.h:126:81
	str	r0, [sp]                        @ 4-byte Spill
	ldr	r0, [sp, #16]
	.loc	3 126 62                        @ D:\Embed\MDK\MDK\ARM\ARMCompilerV621\Bin\..\include\libcxx\__algorithm/find.h:126:62
	bl	_ZNSt3__213__unwrap_iterB7v180000IPKcNS_18__unwrap_iter_implIS2_Lb1EEELi0EEEDTclsrT0_8__unwrapclsr3stdE7declvalIT_EEEES6_
	mov	r1, r0
	.loc	3 126 90                        @ D:\Embed\MDK\MDK\ARM\ARMCompilerV621\Bin\..\include\libcxx\__algorithm/find.h:126:90
	ldr	r0, [sp]                        @ 4-byte Reload
	ldr	r2, [sp, #12]
	add.w	r3, sp, #11
	.loc	3 126 16                        @ D:\Embed\MDK\MDK\ARM\ARMCompilerV621\Bin\..\include\libcxx\__algorithm/find.h:126:16
	bl	_ZNSt3__211__find_implB7v180000IKccNS_10__identityELi0EEEPT_S4_S4_RKT0_RT1_
	mov	r1, r0
	.loc	3 125 10 is_stmt 1              @ D:\Embed\MDK\MDK\ARM\ARMCompilerV621\Bin\..\include\libcxx\__algorithm/find.h:125:10
	ldr	r0, [sp, #4]                    @ 4-byte Reload
	bl	_ZNSt3__213__rewrap_iterB7v180000IPKcS2_NS_18__unwrap_iter_implIS2_Lb1EEEEET_S5_T0_
	.loc	3 125 3 epilogue_begin is_stmt 0 @ D:\Embed\MDK\MDK\ARM\ARMCompilerV621\Bin\..\include\libcxx\__algorithm/find.h:125:3
	add	sp, #24
	pop	{r7, pc}
.Ltmp15:
.Lfunc_end1:
	.size	_ZNSt3__24findB7v180000IPKccEET_S3_S3_RKT0_, .Lfunc_end1-_ZNSt3__24findB7v180000IPKccEET_S3_S3_RKT0_
	.cfi_endproc
	.cantunwind
	.fnend
                                        @ -- End function
	.section	.text._ZNSt3__23minB7v180000IPKcEERKT_S5_S5_,"axG",%progbits,_ZNSt3__23minB7v180000IPKcEERKT_S5_S5_,comdat
	.hidden	_ZNSt3__23minB7v180000IPKcEERKT_S5_S5_ @ -- Begin function _ZNSt3__23minB7v180000IPKcEERKT_S5_S5_
	.weak	_ZNSt3__23minB7v180000IPKcEERKT_S5_S5_
	.p2align	2
	.type	_ZNSt3__23minB7v180000IPKcEERKT_S5_S5_,%function
	.code	16                              @ @_ZNSt3__23minB7v180000IPKcEERKT_S5_S5_
	.thumb_func
_ZNSt3__23minB7v180000IPKcEERKT_S5_S5_:
.Lfunc_begin2:
	.file	4 "D:\\Embed\\MDK\\MDK\\ARM\\ARMCompilerV621\\Bin\\..\\include\\libcxx\\__algorithm" "min.h"
	.loc	4 41 0 is_stmt 1                @ D:\Embed\MDK\MDK\ARM\ARMCompilerV621\Bin\..\include\libcxx\__algorithm/min.h:41:0
	.fnstart
	.cfi_startproc
@ %bb.0:
	.save	{r7, lr}
	push	{r7, lr}
	.cfi_def_cfa_offset 8
	.cfi_offset lr, -4
	.cfi_offset r7, -8
	.pad	#16
	sub	sp, #16
	.cfi_def_cfa_offset 24
	str	r0, [sp, #12]
	str	r1, [sp, #8]
.Ltmp16:
	.loc	4 42 23 prologue_end            @ D:\Embed\MDK\MDK\ARM\ARMCompilerV621\Bin\..\include\libcxx\__algorithm/min.h:42:23
	ldr	r0, [sp, #12]
	.loc	4 42 28 is_stmt 0               @ D:\Embed\MDK\MDK\ARM\ARMCompilerV621\Bin\..\include\libcxx\__algorithm/min.h:42:28
	ldr	r1, [sp, #8]
	.loc	4 42 12                         @ D:\Embed\MDK\MDK\ARM\ARMCompilerV621\Bin\..\include\libcxx\__algorithm/min.h:42:12
	bl	_ZNSt3__23minB7v180000IPKcNS_6__lessIvvEEEERKT_S7_S7_T0_
	.loc	4 42 5 epilogue_begin           @ D:\Embed\MDK\MDK\ARM\ARMCompilerV621\Bin\..\include\libcxx\__algorithm/min.h:42:5
	add	sp, #16
	pop	{r7, pc}
.Ltmp17:
.Lfunc_end2:
	.size	_ZNSt3__23minB7v180000IPKcEERKT_S5_S5_, .Lfunc_end2-_ZNSt3__23minB7v180000IPKcEERKT_S5_S5_
	.cfi_endproc
	.cantunwind
	.fnend
                                        @ -- End function
	.section	.text._ZN5fibre17ChannelDiscoverer13try_parse_keyEPKcS2_S2_Pi,"ax",%progbits
	.hidden	_ZN5fibre17ChannelDiscoverer13try_parse_keyEPKcS2_S2_Pi @ -- Begin function _ZN5fibre17ChannelDiscoverer13try_parse_keyEPKcS2_S2_Pi
	.globl	_ZN5fibre17ChannelDiscoverer13try_parse_keyEPKcS2_S2_Pi
	.p2align	2
	.type	_ZN5fibre17ChannelDiscoverer13try_parse_keyEPKcS2_S2_Pi,%function
	.code	16                              @ @_ZN5fibre17ChannelDiscoverer13try_parse_keyEPKcS2_S2_Pi
	.thumb_func
_ZN5fibre17ChannelDiscoverer13try_parse_keyEPKcS2_S2_Pi:
.Lfunc_begin3:
	.loc	1 33 0 is_stmt 1                @ ../fibre-cpp/channel_discoverer.cpp:33:0
	.fnstart
	.cfi_startproc
@ %bb.0:
	.save	{r4, r6, r7, lr}
	push	{r4, r6, r7, lr}
	.cfi_def_cfa_offset 16
	.cfi_offset lr, -4
	.cfi_offset r7, -8
	.cfi_offset r6, -12
	.cfi_offset r4, -16
	.setfp	r7, sp, #8
	add	r7, sp, #8
	.cfi_def_cfa r7, 8
	.pad	#48
	sub	sp, #48
	ldr.w	r12, [r7, #8]
	str	r0, [r7, #-16]
	str	r1, [r7, #-20]
	str	r2, [r7, #-24]
	str	r3, [r7, #-28]
	ldr	r0, [r7, #-16]
.Ltmp18:
	.loc	1 36 24 prologue_end            @ ../fibre-cpp/channel_discoverer.cpp:36:24
	ldr	r1, [r7, #-20]
	.loc	1 36 31 is_stmt 0               @ ../fibre-cpp/channel_discoverer.cpp:36:31
	ldr	r2, [r7, #-24]
	.loc	1 36 36                         @ ../fibre-cpp/channel_discoverer.cpp:36:36
	ldr	r3, [r7, #-28]
	.loc	1 36 10                         @ ../fibre-cpp/channel_discoverer.cpp:36:10
	sub	sp, #8
	mov	lr, sp
	sub.w	r12, r7, #36
	str.w	r12, [lr, #4]
	sub.w	r12, r7, #32
	str.w	r12, [lr]
	bl	_ZN5fibre17ChannelDiscoverer13try_parse_keyEPKcS2_S2_PS2_S3_
	add	sp, #8
.Ltmp19:
	.loc	1 36 9                          @ ../fibre-cpp/channel_discoverer.cpp:36:9
	cbnz	r0, .LBB3_2
	b	.LBB3_1
.LBB3_1:
	.loc	1 0 9                           @ ../fibre-cpp/channel_discoverer.cpp:0:9
	movs	r0, #0
.Ltmp20:
	.loc	1 37 9 is_stmt 1                @ ../fibre-cpp/channel_discoverer.cpp:37:9
	strb	r0, [r7, #-9]
	b	.LBB3_5
.Ltmp21:
.LBB3_2:
	.loc	1 41 14                         @ ../fibre-cpp/channel_discoverer.cpp:41:14
	ldr	r0, [r7, #-36]
	.loc	1 41 24 is_stmt 0               @ ../fibre-cpp/channel_discoverer.cpp:41:24
	ldr	r1, [r7, #-32]
	.loc	1 41 22                         @ ../fibre-cpp/channel_discoverer.cpp:41:22
	subs	r0, r0, r1
	.loc	1 41 34                         @ ../fibre-cpp/channel_discoverer.cpp:41:34
	adds	r1, r0, #1
	.loc	1 41 5                          @ ../fibre-cpp/channel_discoverer.cpp:41:5
	mov	r2, sp
	str	r2, [r7, #-40]
	adds	r0, #8
	bic	r2, r0, #7
	mov	r0, sp
	subs	r0, r0, r2
	.loc	1 41 10                         @ ../fibre-cpp/channel_discoverer.cpp:41:10
	str	r0, [r7, #-52]                  @ 4-byte Spill
.Ltmp22:
	@DEBUG_VALUE: try_parse_key:buf <- [DW_OP_constu 52, DW_OP_minus, DW_OP_deref] [$r7+0]
	.loc	1 41 5                          @ ../fibre-cpp/channel_discoverer.cpp:41:5
	mov	sp, r0
	mov	r2, r0
	str	r2, [r7, #-56]                  @ 4-byte Spill
	str	r1, [r7, #-44]
	.loc	1 42 17 is_stmt 1               @ ../fibre-cpp/channel_discoverer.cpp:42:17
	ldr	r1, [r7, #-32]
	.loc	1 42 28 is_stmt 0               @ ../fibre-cpp/channel_discoverer.cpp:42:28
	ldr	r2, [r7, #-36]
	.loc	1 42 36                         @ ../fibre-cpp/channel_discoverer.cpp:42:36
	subs	r2, r2, r1
	.loc	1 42 5                          @ ../fibre-cpp/channel_discoverer.cpp:42:5
	bl	__aeabi_memcpy
                                        @ kill: def $r1 killed $r0
	.loc	1 43 9 is_stmt 1                @ ../fibre-cpp/channel_discoverer.cpp:43:9
	ldr	r0, [r7, #-52]                  @ 4-byte Reload
	ldr	r1, [r7, #-36]
	.loc	1 43 19 is_stmt 0               @ ../fibre-cpp/channel_discoverer.cpp:43:19
	ldr	r2, [r7, #-32]
	.loc	1 43 17                         @ ../fibre-cpp/channel_discoverer.cpp:43:17
	subs	r2, r1, r2
	movs	r1, #0
	.loc	1 43 30                         @ ../fibre-cpp/channel_discoverer.cpp:43:30
	strb	r1, [r0, r2]
	.loc	1 45 32 is_stmt 1               @ ../fibre-cpp/channel_discoverer.cpp:45:32
	ldr	r2, [r7, #8]
	.loc	1 45 12 is_stmt 0               @ ../fibre-cpp/channel_discoverer.cpp:45:12
	movw	r1, :lower16:.L.str
	movt	r1, :upper16:.L.str
	bl	sscanf
	mov	r1, r0
	movs	r0, #1
	.loc	1 46 9 is_stmt 1                @ ../fibre-cpp/channel_discoverer.cpp:46:9
	cmp	r1, #1
	str	r0, [r7, #-48]                  @ 4-byte Spill
	beq	.LBB3_4
	b	.LBB3_3
.Ltmp23:
.LBB3_3:
	@DEBUG_VALUE: try_parse_key:buf <- [DW_OP_constu 52, DW_OP_minus, DW_OP_deref] [$r7+0]
	.loc	1 46 30 is_stmt 0               @ ../fibre-cpp/channel_discoverer.cpp:46:30
	ldr	r0, [r7, #-56]                  @ 4-byte Reload
	ldr	r2, [r7, #8]
	.loc	1 46 12                         @ ../fibre-cpp/channel_discoverer.cpp:46:12
	movw	r1, :lower16:.L.str.1
	movt	r1, :upper16:.L.str.1
	bl	sscanf
	.loc	1 46 35                         @ ../fibre-cpp/channel_discoverer.cpp:46:35
	subs	r0, #1
	clz	r0, r0
	lsrs	r0, r0, #5
	.loc	1 46 9                          @ ../fibre-cpp/channel_discoverer.cpp:46:9
	str	r0, [r7, #-48]                  @ 4-byte Spill
	b	.LBB3_4
.Ltmp24:
.LBB3_4:
	@DEBUG_VALUE: try_parse_key:buf <- [DW_OP_constu 52, DW_OP_minus, DW_OP_deref] [$r7+0]
	.loc	1 0 9                           @ ../fibre-cpp/channel_discoverer.cpp:0:9
	ldr	r0, [r7, #-48]                  @ 4-byte Reload
	.loc	1 45 5 is_stmt 1                @ ../fibre-cpp/channel_discoverer.cpp:45:5
	and	r0, r0, #1
	strb	r0, [r7, #-9]
	.loc	1 47 1                          @ ../fibre-cpp/channel_discoverer.cpp:47:1
	ldr	r0, [r7, #-40]
	mov	sp, r0
	b	.LBB3_5
.Ltmp25:
.LBB3_5:
	ldrb	r0, [r7, #-9]
	.loc	1 47 1 epilogue_begin is_stmt 0 @ ../fibre-cpp/channel_discoverer.cpp:47:1
	sub.w	r4, r7, #8
	mov	sp, r4
	pop	{r4, r6, r7, pc}
.Ltmp26:
.Lfunc_end3:
	.size	_ZN5fibre17ChannelDiscoverer13try_parse_keyEPKcS2_S2_Pi, .Lfunc_end3-_ZN5fibre17ChannelDiscoverer13try_parse_keyEPKcS2_S2_Pi
	.cfi_endproc
	.cantunwind
	.fnend
                                        @ -- End function
	.section	.text._ZNSt3__23minB7v180000IPKcNS_6__lessIvvEEEERKT_S7_S7_T0_,"axG",%progbits,_ZNSt3__23minB7v180000IPKcNS_6__lessIvvEEEERKT_S7_S7_T0_,comdat
	.hidden	_ZNSt3__23minB7v180000IPKcNS_6__lessIvvEEEERKT_S7_S7_T0_ @ -- Begin function _ZNSt3__23minB7v180000IPKcNS_6__lessIvvEEEERKT_S7_S7_T0_
	.weak	_ZNSt3__23minB7v180000IPKcNS_6__lessIvvEEEERKT_S7_S7_T0_
	.p2align	2
	.type	_ZNSt3__23minB7v180000IPKcNS_6__lessIvvEEEERKT_S7_S7_T0_,%function
	.code	16                              @ @_ZNSt3__23minB7v180000IPKcNS_6__lessIvvEEEERKT_S7_S7_T0_
	.thumb_func
_ZNSt3__23minB7v180000IPKcNS_6__lessIvvEEEERKT_S7_S7_T0_:
.Lfunc_begin4:
	.loc	4 32 0 is_stmt 1                @ D:\Embed\MDK\MDK\ARM\ARMCompilerV621\Bin\..\include\libcxx\__algorithm/min.h:32:0
	.fnstart
	.cfi_startproc
@ %bb.0:
	.save	{r7, lr}
	push	{r7, lr}
	.cfi_def_cfa_offset 8
	.cfi_offset lr, -4
	.cfi_offset r7, -8
	.pad	#16
	sub	sp, #16
	.cfi_def_cfa_offset 24
	str	r0, [sp, #8]
	str	r1, [sp, #4]
.Ltmp27:
	.loc	4 33 19 prologue_end            @ D:\Embed\MDK\MDK\ARM\ARMCompilerV621\Bin\..\include\libcxx\__algorithm/min.h:33:19
	ldr	r1, [sp, #4]
	.loc	4 33 24 is_stmt 0               @ D:\Embed\MDK\MDK\ARM\ARMCompilerV621\Bin\..\include\libcxx\__algorithm/min.h:33:24
	ldr	r2, [sp, #8]
	add.w	r0, sp, #15
	.loc	4 33 12                         @ D:\Embed\MDK\MDK\ARM\ARMCompilerV621\Bin\..\include\libcxx\__algorithm/min.h:33:12
	bl	_ZNKSt3__26__lessIvvEclB7v180000IPKcS4_EEbRKT_RKT0_
	cbz	r0, .LBB4_2
	b	.LBB4_1
.LBB4_1:
	.loc	4 33 31                         @ D:\Embed\MDK\MDK\ARM\ARMCompilerV621\Bin\..\include\libcxx\__algorithm/min.h:33:31
	ldr	r0, [sp, #4]
	.loc	4 33 12                         @ D:\Embed\MDK\MDK\ARM\ARMCompilerV621\Bin\..\include\libcxx\__algorithm/min.h:33:12
	str	r0, [sp]                        @ 4-byte Spill
	b	.LBB4_3
.LBB4_2:
	.loc	4 33 37                         @ D:\Embed\MDK\MDK\ARM\ARMCompilerV621\Bin\..\include\libcxx\__algorithm/min.h:33:37
	ldr	r0, [sp, #8]
	.loc	4 33 12                         @ D:\Embed\MDK\MDK\ARM\ARMCompilerV621\Bin\..\include\libcxx\__algorithm/min.h:33:12
	str	r0, [sp]                        @ 4-byte Spill
	b	.LBB4_3
.LBB4_3:
	ldr	r0, [sp]                        @ 4-byte Reload
	.loc	4 33 5 epilogue_begin           @ D:\Embed\MDK\MDK\ARM\ARMCompilerV621\Bin\..\include\libcxx\__algorithm/min.h:33:5
	add	sp, #16
	pop	{r7, pc}
.Ltmp28:
.Lfunc_end4:
	.size	_ZNSt3__23minB7v180000IPKcNS_6__lessIvvEEEERKT_S7_S7_T0_, .Lfunc_end4-_ZNSt3__23minB7v180000IPKcNS_6__lessIvvEEEERKT_S7_S7_T0_
	.cfi_endproc
	.cantunwind
	.fnend
                                        @ -- End function
	.section	.text._ZNKSt3__26__lessIvvEclB7v180000IPKcS4_EEbRKT_RKT0_,"axG",%progbits,_ZNKSt3__26__lessIvvEclB7v180000IPKcS4_EEbRKT_RKT0_,comdat
	.hidden	_ZNKSt3__26__lessIvvEclB7v180000IPKcS4_EEbRKT_RKT0_ @ -- Begin function _ZNKSt3__26__lessIvvEclB7v180000IPKcS4_EEbRKT_RKT0_
	.weak	_ZNKSt3__26__lessIvvEclB7v180000IPKcS4_EEbRKT_RKT0_
	.p2align	2
	.type	_ZNKSt3__26__lessIvvEclB7v180000IPKcS4_EEbRKT_RKT0_,%function
	.code	16                              @ @_ZNKSt3__26__lessIvvEclB7v180000IPKcS4_EEbRKT_RKT0_
	.thumb_func
_ZNKSt3__26__lessIvvEclB7v180000IPKcS4_EEbRKT_RKT0_:
.Lfunc_begin5:
	.file	5 "D:\\Embed\\MDK\\MDK\\ARM\\ARMCompilerV621\\Bin\\..\\include\\libcxx\\__algorithm" "comp.h"
	.loc	5 40 0 is_stmt 1                @ D:\Embed\MDK\MDK\ARM\ARMCompilerV621\Bin\..\include\libcxx\__algorithm/comp.h:40:0
	.fnstart
	.cfi_startproc
@ %bb.0:
	.pad	#12
	sub	sp, #12
	.cfi_def_cfa_offset 12
	str	r0, [sp, #8]
	str	r1, [sp, #4]
	str	r2, [sp]
.Ltmp29:
	.loc	5 41 12 prologue_end            @ D:\Embed\MDK\MDK\ARM\ARMCompilerV621\Bin\..\include\libcxx\__algorithm/comp.h:41:12
	ldr	r0, [sp, #4]
	ldr	r1, [r0]
	.loc	5 41 20 is_stmt 0               @ D:\Embed\MDK\MDK\ARM\ARMCompilerV621\Bin\..\include\libcxx\__algorithm/comp.h:41:20
	ldr	r0, [sp]
	ldr	r2, [r0]
	movs	r0, #0
	.loc	5 41 18                         @ D:\Embed\MDK\MDK\ARM\ARMCompilerV621\Bin\..\include\libcxx\__algorithm/comp.h:41:18
	cmp	r1, r2
	it	lo
	movlo	r0, #1
	.loc	5 41 5 epilogue_begin           @ D:\Embed\MDK\MDK\ARM\ARMCompilerV621\Bin\..\include\libcxx\__algorithm/comp.h:41:5
	add	sp, #12
	bx	lr
.Ltmp30:
.Lfunc_end5:
	.size	_ZNKSt3__26__lessIvvEclB7v180000IPKcS4_EEbRKT_RKT0_, .Lfunc_end5-_ZNKSt3__26__lessIvvEclB7v180000IPKcS4_EEbRKT_RKT0_
	.cfi_endproc
	.cantunwind
	.fnend
                                        @ -- End function
	.section	.text._ZNSt3__213__rewrap_iterB7v180000IPKcS2_NS_18__unwrap_iter_implIS2_Lb1EEEEET_S5_T0_,"axG",%progbits,_ZNSt3__213__rewrap_iterB7v180000IPKcS2_NS_18__unwrap_iter_implIS2_Lb1EEEEET_S5_T0_,comdat
	.hidden	_ZNSt3__213__rewrap_iterB7v180000IPKcS2_NS_18__unwrap_iter_implIS2_Lb1EEEEET_S5_T0_ @ -- Begin function _ZNSt3__213__rewrap_iterB7v180000IPKcS2_NS_18__unwrap_iter_implIS2_Lb1EEEEET_S5_T0_
	.weak	_ZNSt3__213__rewrap_iterB7v180000IPKcS2_NS_18__unwrap_iter_implIS2_Lb1EEEEET_S5_T0_
	.p2align	2
	.type	_ZNSt3__213__rewrap_iterB7v180000IPKcS2_NS_18__unwrap_iter_implIS2_Lb1EEEEET_S5_T0_,%function
	.code	16                              @ @_ZNSt3__213__rewrap_iterB7v180000IPKcS2_NS_18__unwrap_iter_implIS2_Lb1EEEEET_S5_T0_
	.thumb_func
_ZNSt3__213__rewrap_iterB7v180000IPKcS2_NS_18__unwrap_iter_implIS2_Lb1EEEEET_S5_T0_:
.Lfunc_begin6:
	.file	6 "D:\\Embed\\MDK\\MDK\\ARM\\ARMCompilerV621\\Bin\\..\\include\\libcxx\\__algorithm" "unwrap_iter.h"
	.loc	6 77 0 is_stmt 1                @ D:\Embed\MDK\MDK\ARM\ARMCompilerV621\Bin\..\include\libcxx\__algorithm/unwrap_iter.h:77:0
	.fnstart
	.cfi_startproc
@ %bb.0:
	.save	{r7, lr}
	push	{r7, lr}
	.cfi_def_cfa_offset 8
	.cfi_offset lr, -4
	.cfi_offset r7, -8
	.pad	#8
	sub	sp, #8
	.cfi_def_cfa_offset 16
	str	r0, [sp, #4]
	str	r1, [sp]
.Ltmp31:
	.loc	6 78 26 prologue_end            @ D:\Embed\MDK\MDK\ARM\ARMCompilerV621\Bin\..\include\libcxx\__algorithm/unwrap_iter.h:78:26
	ldr	r0, [sp, #4]
	.loc	6 78 50 is_stmt 0               @ D:\Embed\MDK\MDK\ARM\ARMCompilerV621\Bin\..\include\libcxx\__algorithm/unwrap_iter.h:78:50
	ldr	r1, [sp]
	.loc	6 78 10                         @ D:\Embed\MDK\MDK\ARM\ARMCompilerV621\Bin\..\include\libcxx\__algorithm/unwrap_iter.h:78:10
	bl	_ZNSt3__218__unwrap_iter_implIPKcLb1EE8__rewrapB7v180000ES2_S2_
	.loc	6 78 3 epilogue_begin           @ D:\Embed\MDK\MDK\ARM\ARMCompilerV621\Bin\..\include\libcxx\__algorithm/unwrap_iter.h:78:3
	add	sp, #8
	pop	{r7, pc}
.Ltmp32:
.Lfunc_end6:
	.size	_ZNSt3__213__rewrap_iterB7v180000IPKcS2_NS_18__unwrap_iter_implIS2_Lb1EEEEET_S5_T0_, .Lfunc_end6-_ZNSt3__213__rewrap_iterB7v180000IPKcS2_NS_18__unwrap_iter_implIS2_Lb1EEEEET_S5_T0_
	.cfi_endproc
	.cantunwind
	.fnend
                                        @ -- End function
	.section	.text._ZNSt3__211__find_implB7v180000IKccNS_10__identityELi0EEEPT_S4_S4_RKT0_RT1_,"axG",%progbits,_ZNSt3__211__find_implB7v180000IKccNS_10__identityELi0EEEPT_S4_S4_RKT0_RT1_,comdat
	.hidden	_ZNSt3__211__find_implB7v180000IKccNS_10__identityELi0EEEPT_S4_S4_RKT0_RT1_ @ -- Begin function _ZNSt3__211__find_implB7v180000IKccNS_10__identityELi0EEEPT_S4_S4_RKT0_RT1_
	.weak	_ZNSt3__211__find_implB7v180000IKccNS_10__identityELi0EEEPT_S4_S4_RKT0_RT1_
	.p2align	2
	.type	_ZNSt3__211__find_implB7v180000IKccNS_10__identityELi0EEEPT_S4_S4_RKT0_RT1_,%function
	.code	16                              @ @_ZNSt3__211__find_implB7v180000IKccNS_10__identityELi0EEEPT_S4_S4_RKT0_RT1_
	.thumb_func
_ZNSt3__211__find_implB7v180000IKccNS_10__identityELi0EEEPT_S4_S4_RKT0_RT1_:
.Lfunc_begin7:
	.loc	3 55 0 is_stmt 1                @ D:\Embed\MDK\MDK\ARM\ARMCompilerV621\Bin\..\include\libcxx\__algorithm/find.h:55:0
	.fnstart
	.cfi_startproc
@ %bb.0:
	.save	{r7, lr}
	push	{r7, lr}
	.cfi_def_cfa_offset 8
	.cfi_offset lr, -4
	.cfi_offset r7, -8
	.pad	#24
	sub	sp, #24
	.cfi_def_cfa_offset 32
	str	r0, [sp, #16]
	str	r1, [sp, #12]
	str	r2, [sp, #8]
	str	r3, [sp, #4]
.Ltmp33:
	.loc	3 56 44 prologue_end            @ D:\Embed\MDK\MDK\ARM\ARMCompilerV621\Bin\..\include\libcxx\__algorithm/find.h:56:44
	ldr	r0, [sp, #16]
	.loc	3 56 53 is_stmt 0               @ D:\Embed\MDK\MDK\ARM\ARMCompilerV621\Bin\..\include\libcxx\__algorithm/find.h:56:53
	ldr	r1, [sp, #8]
	ldrb	r1, [r1]
	.loc	3 56 62                         @ D:\Embed\MDK\MDK\ARM\ARMCompilerV621\Bin\..\include\libcxx\__algorithm/find.h:56:62
	ldr	r2, [sp, #12]
	.loc	3 56 69                         @ D:\Embed\MDK\MDK\ARM\ARMCompilerV621\Bin\..\include\libcxx\__algorithm/find.h:56:69
	subs	r2, r2, r0
	.loc	3 56 20                         @ D:\Embed\MDK\MDK\ARM\ARMCompilerV621\Bin\..\include\libcxx\__algorithm/find.h:56:20
	bl	_ZNSt3__218__constexpr_memchrB7v180000IKccEEPT_S3_T0_j
	.loc	3 56 12                         @ D:\Embed\MDK\MDK\ARM\ARMCompilerV621\Bin\..\include\libcxx\__algorithm/find.h:56:12
	str	r0, [sp]
	ldr	r0, [sp]
.Ltmp34:
	.loc	3 56 12                         @ D:\Embed\MDK\MDK\ARM\ARMCompilerV621\Bin\..\include\libcxx\__algorithm/find.h:56:12
	cbz	r0, .LBB7_2
	b	.LBB7_1
.LBB7_1:
.Ltmp35:
	.loc	3 57 12 is_stmt 1               @ D:\Embed\MDK\MDK\ARM\ARMCompilerV621\Bin\..\include\libcxx\__algorithm/find.h:57:12
	ldr	r0, [sp]
	.loc	3 57 5 is_stmt 0                @ D:\Embed\MDK\MDK\ARM\ARMCompilerV621\Bin\..\include\libcxx\__algorithm/find.h:57:5
	str	r0, [sp, #20]
	b	.LBB7_3
.Ltmp36:
.LBB7_2:
	.loc	3 58 10 is_stmt 1               @ D:\Embed\MDK\MDK\ARM\ARMCompilerV621\Bin\..\include\libcxx\__algorithm/find.h:58:10
	ldr	r0, [sp, #12]
	.loc	3 58 3 is_stmt 0                @ D:\Embed\MDK\MDK\ARM\ARMCompilerV621\Bin\..\include\libcxx\__algorithm/find.h:58:3
	str	r0, [sp, #20]
	b	.LBB7_3
.LBB7_3:
	.loc	3 59 1 is_stmt 1                @ D:\Embed\MDK\MDK\ARM\ARMCompilerV621\Bin\..\include\libcxx\__algorithm/find.h:59:1
	ldr	r0, [sp, #20]
	.loc	3 59 1 epilogue_begin is_stmt 0 @ D:\Embed\MDK\MDK\ARM\ARMCompilerV621\Bin\..\include\libcxx\__algorithm/find.h:59:1
	add	sp, #24
	pop	{r7, pc}
.Ltmp37:
.Lfunc_end7:
	.size	_ZNSt3__211__find_implB7v180000IKccNS_10__identityELi0EEEPT_S4_S4_RKT0_RT1_, .Lfunc_end7-_ZNSt3__211__find_implB7v180000IKccNS_10__identityELi0EEEPT_S4_S4_RKT0_RT1_
	.cfi_endproc
	.cantunwind
	.fnend
                                        @ -- End function
	.section	.text._ZNSt3__213__unwrap_iterB7v180000IPKcNS_18__unwrap_iter_implIS2_Lb1EEELi0EEEDTclsrT0_8__unwrapclsr3stdE7declvalIT_EEEES6_,"axG",%progbits,_ZNSt3__213__unwrap_iterB7v180000IPKcNS_18__unwrap_iter_implIS2_Lb1EEELi0EEEDTclsrT0_8__unwrapclsr3stdE7declvalIT_EEEES6_,comdat
	.hidden	_ZNSt3__213__unwrap_iterB7v180000IPKcNS_18__unwrap_iter_implIS2_Lb1EEELi0EEEDTclsrT0_8__unwrapclsr3stdE7declvalIT_EEEES6_ @ -- Begin function _ZNSt3__213__unwrap_iterB7v180000IPKcNS_18__unwrap_iter_implIS2_Lb1EEELi0EEEDTclsrT0_8__unwrapclsr3stdE7declvalIT_EEEES6_
	.weak	_ZNSt3__213__unwrap_iterB7v180000IPKcNS_18__unwrap_iter_implIS2_Lb1EEELi0EEEDTclsrT0_8__unwrapclsr3stdE7declvalIT_EEEES6_
	.p2align	2
	.type	_ZNSt3__213__unwrap_iterB7v180000IPKcNS_18__unwrap_iter_implIS2_Lb1EEELi0EEEDTclsrT0_8__unwrapclsr3stdE7declvalIT_EEEES6_,%function
	.code	16                              @ @_ZNSt3__213__unwrap_iterB7v180000IPKcNS_18__unwrap_iter_implIS2_Lb1EEELi0EEEDTclsrT0_8__unwrapclsr3stdE7declvalIT_EEEES6_
	.thumb_func
_ZNSt3__213__unwrap_iterB7v180000IPKcNS_18__unwrap_iter_implIS2_Lb1EEELi0EEEDTclsrT0_8__unwrapclsr3stdE7declvalIT_EEEES6_:
.Lfunc_begin8:
	.loc	6 64 0 is_stmt 1                @ D:\Embed\MDK\MDK\ARM\ARMCompilerV621\Bin\..\include\libcxx\__algorithm/unwrap_iter.h:64:0
	.fnstart
	.cfi_startproc
@ %bb.0:
	.save	{r7, lr}
	push	{r7, lr}
	.cfi_def_cfa_offset 8
	.cfi_offset lr, -4
	.cfi_offset r7, -8
	.pad	#8
	sub	sp, #8
	.cfi_def_cfa_offset 16
	str	r0, [sp, #4]
.Ltmp38:
	.loc	6 65 26 prologue_end            @ D:\Embed\MDK\MDK\ARM\ARMCompilerV621\Bin\..\include\libcxx\__algorithm/unwrap_iter.h:65:26
	ldr	r0, [sp, #4]
	.loc	6 65 10 is_stmt 0               @ D:\Embed\MDK\MDK\ARM\ARMCompilerV621\Bin\..\include\libcxx\__algorithm/unwrap_iter.h:65:10
	bl	_ZNSt3__218__unwrap_iter_implIPKcLb1EE8__unwrapB7v180000ES2_
	.loc	6 65 3 epilogue_begin           @ D:\Embed\MDK\MDK\ARM\ARMCompilerV621\Bin\..\include\libcxx\__algorithm/unwrap_iter.h:65:3
	add	sp, #8
	pop	{r7, pc}
.Ltmp39:
.Lfunc_end8:
	.size	_ZNSt3__213__unwrap_iterB7v180000IPKcNS_18__unwrap_iter_implIS2_Lb1EEELi0EEEDTclsrT0_8__unwrapclsr3stdE7declvalIT_EEEES6_, .Lfunc_end8-_ZNSt3__213__unwrap_iterB7v180000IPKcNS_18__unwrap_iter_implIS2_Lb1EEELi0EEEDTclsrT0_8__unwrapclsr3stdE7declvalIT_EEEES6_
	.cfi_endproc
	.cantunwind
	.fnend
                                        @ -- End function
	.section	.text._ZNSt3__218__unwrap_iter_implIPKcLb1EE8__rewrapB7v180000ES2_S2_,"axG",%progbits,_ZNSt3__218__unwrap_iter_implIPKcLb1EE8__rewrapB7v180000ES2_S2_,comdat
	.hidden	_ZNSt3__218__unwrap_iter_implIPKcLb1EE8__rewrapB7v180000ES2_S2_ @ -- Begin function _ZNSt3__218__unwrap_iter_implIPKcLb1EE8__rewrapB7v180000ES2_S2_
	.weak	_ZNSt3__218__unwrap_iter_implIPKcLb1EE8__rewrapB7v180000ES2_S2_
	.p2align	2
	.type	_ZNSt3__218__unwrap_iter_implIPKcLb1EE8__rewrapB7v180000ES2_S2_,%function
	.code	16                              @ @_ZNSt3__218__unwrap_iter_implIPKcLb1EE8__rewrapB7v180000ES2_S2_
	.thumb_func
_ZNSt3__218__unwrap_iter_implIPKcLb1EE8__rewrapB7v180000ES2_S2_:
.Lfunc_begin9:
	.loc	6 51 0 is_stmt 1                @ D:\Embed\MDK\MDK\ARM\ARMCompilerV621\Bin\..\include\libcxx\__algorithm/unwrap_iter.h:51:0
	.fnstart
	.cfi_startproc
@ %bb.0:
	.save	{r7, lr}
	push	{r7, lr}
	.cfi_def_cfa_offset 8
	.cfi_offset lr, -4
	.cfi_offset r7, -8
	.pad	#16
	sub	sp, #16
	.cfi_def_cfa_offset 24
	str	r0, [sp, #12]
	str	r1, [sp, #8]
.Ltmp40:
	.loc	6 52 12 prologue_end            @ D:\Embed\MDK\MDK\ARM\ARMCompilerV621\Bin\..\include\libcxx\__algorithm/unwrap_iter.h:52:12
	ldr	r0, [sp, #12]
	.loc	6 52 27 is_stmt 0               @ D:\Embed\MDK\MDK\ARM\ARMCompilerV621\Bin\..\include\libcxx\__algorithm/unwrap_iter.h:52:27
	str	r0, [sp, #4]                    @ 4-byte Spill
	ldr	r1, [sp, #8]
	.loc	6 52 46                         @ D:\Embed\MDK\MDK\ARM\ARMCompilerV621\Bin\..\include\libcxx\__algorithm/unwrap_iter.h:52:46
	str	r1, [sp]                        @ 4-byte Spill
	bl	_ZNSt3__212__to_addressB7v180000IKcEEPT_S3_
	ldr	r1, [sp]                        @ 4-byte Reload
	mov	r2, r0
	.loc	6 52 44                         @ D:\Embed\MDK\MDK\ARM\ARMCompilerV621\Bin\..\include\libcxx\__algorithm/unwrap_iter.h:52:44
	ldr	r0, [sp, #4]                    @ 4-byte Reload
	subs	r1, r1, r2
	.loc	6 52 24                         @ D:\Embed\MDK\MDK\ARM\ARMCompilerV621\Bin\..\include\libcxx\__algorithm/unwrap_iter.h:52:24
	add	r0, r1
	.loc	6 52 5 epilogue_begin           @ D:\Embed\MDK\MDK\ARM\ARMCompilerV621\Bin\..\include\libcxx\__algorithm/unwrap_iter.h:52:5
	add	sp, #16
	pop	{r7, pc}
.Ltmp41:
.Lfunc_end9:
	.size	_ZNSt3__218__unwrap_iter_implIPKcLb1EE8__rewrapB7v180000ES2_S2_, .Lfunc_end9-_ZNSt3__218__unwrap_iter_implIPKcLb1EE8__rewrapB7v180000ES2_S2_
	.cfi_endproc
	.cantunwind
	.fnend
                                        @ -- End function
	.section	.text._ZNSt3__212__to_addressB7v180000IKcEEPT_S3_,"axG",%progbits,_ZNSt3__212__to_addressB7v180000IKcEEPT_S3_,comdat
	.hidden	_ZNSt3__212__to_addressB7v180000IKcEEPT_S3_ @ -- Begin function _ZNSt3__212__to_addressB7v180000IKcEEPT_S3_
	.weak	_ZNSt3__212__to_addressB7v180000IKcEEPT_S3_
	.p2align	2
	.type	_ZNSt3__212__to_addressB7v180000IKcEEPT_S3_,%function
	.code	16                              @ @_ZNSt3__212__to_addressB7v180000IKcEEPT_S3_
	.thumb_func
_ZNSt3__212__to_addressB7v180000IKcEEPT_S3_:
.Lfunc_begin10:
	.file	7 "D:\\Embed\\MDK\\MDK\\ARM\\ARMCompilerV621\\Bin\\..\\include\\libcxx\\__memory" "pointer_traits.h"
	.loc	7 172 0 is_stmt 1               @ D:\Embed\MDK\MDK\ARM\ARMCompilerV621\Bin\..\include\libcxx\__memory/pointer_traits.h:172:0
	.fnstart
	.cfi_startproc
@ %bb.0:
	.pad	#4
	sub	sp, #4
	.cfi_def_cfa_offset 4
	str	r0, [sp]
.Ltmp42:
	.loc	7 174 12 prologue_end           @ D:\Embed\MDK\MDK\ARM\ARMCompilerV621\Bin\..\include\libcxx\__memory/pointer_traits.h:174:12
	ldr	r0, [sp]
	.loc	7 174 5 epilogue_begin is_stmt 0 @ D:\Embed\MDK\MDK\ARM\ARMCompilerV621\Bin\..\include\libcxx\__memory/pointer_traits.h:174:5
	add	sp, #4
	bx	lr
.Ltmp43:
.Lfunc_end10:
	.size	_ZNSt3__212__to_addressB7v180000IKcEEPT_S3_, .Lfunc_end10-_ZNSt3__212__to_addressB7v180000IKcEEPT_S3_
	.cfi_endproc
	.cantunwind
	.fnend
                                        @ -- End function
	.section	.text._ZNSt3__218__constexpr_memchrB7v180000IKccEEPT_S3_T0_j,"axG",%progbits,_ZNSt3__218__constexpr_memchrB7v180000IKccEEPT_S3_T0_j,comdat
	.hidden	_ZNSt3__218__constexpr_memchrB7v180000IKccEEPT_S3_T0_j @ -- Begin function _ZNSt3__218__constexpr_memchrB7v180000IKccEEPT_S3_T0_j
	.weak	_ZNSt3__218__constexpr_memchrB7v180000IKccEEPT_S3_T0_j
	.p2align	2
	.type	_ZNSt3__218__constexpr_memchrB7v180000IKccEEPT_S3_T0_j,%function
	.code	16                              @ @_ZNSt3__218__constexpr_memchrB7v180000IKccEEPT_S3_T0_j
	.thumb_func
_ZNSt3__218__constexpr_memchrB7v180000IKccEEPT_S3_T0_j:
.Lfunc_begin11:
	.file	8 "D:\\Embed\\MDK\\MDK\\ARM\\ARMCompilerV621\\Bin\\..\\include\\libcxx\\__string" "constexpr_c_functions.h"
	.loc	8 116 0 is_stmt 1               @ D:\Embed\MDK\MDK\ARM\ARMCompilerV621\Bin\..\include\libcxx\__string/constexpr_c_functions.h:116:0
	.fnstart
	.cfi_startproc
@ %bb.0:
	.save	{r7, lr}
	push	{r7, lr}
	.cfi_def_cfa_offset 8
	.cfi_offset lr, -4
	.cfi_offset r7, -8
	.pad	#16
	sub	sp, #16
	.cfi_def_cfa_offset 24
                                        @ kill: def $r3 killed $r1
	str	r0, [sp, #12]
	strb.w	r1, [sp, #11]
	str	r2, [sp, #4]
	movs	r0, #0
.Ltmp44:
	.loc	8 134 10 prologue_end           @ D:\Embed\MDK\MDK\ARM\ARMCompilerV621\Bin\..\include\libcxx\__string/constexpr_c_functions.h:134:10
	strb.w	r0, [sp, #3]
	.loc	8 135 5                         @ D:\Embed\MDK\MDK\ARM\ARMCompilerV621\Bin\..\include\libcxx\__string/constexpr_c_functions.h:135:5
	ldrb.w	r0, [sp, #11]
	strb.w	r0, [sp, #3]
	.loc	8 136 47                        @ D:\Embed\MDK\MDK\ARM\ARMCompilerV621\Bin\..\include\libcxx\__string/constexpr_c_functions.h:136:47
	ldr	r0, [sp, #12]
	.loc	8 136 54 is_stmt 0              @ D:\Embed\MDK\MDK\ARM\ARMCompilerV621\Bin\..\include\libcxx\__string/constexpr_c_functions.h:136:54
	ldrb.w	r1, [sp, #3]
	.loc	8 136 70                        @ D:\Embed\MDK\MDK\ARM\ARMCompilerV621\Bin\..\include\libcxx\__string/constexpr_c_functions.h:136:70
	ldr	r2, [sp, #4]
	.loc	8 136 30                        @ D:\Embed\MDK\MDK\ARM\ARMCompilerV621\Bin\..\include\libcxx\__string/constexpr_c_functions.h:136:30
	bl	memchr
	.loc	8 136 5 epilogue_begin          @ D:\Embed\MDK\MDK\ARM\ARMCompilerV621\Bin\..\include\libcxx\__string/constexpr_c_functions.h:136:5
	add	sp, #16
	pop	{r7, pc}
.Ltmp45:
.Lfunc_end11:
	.size	_ZNSt3__218__constexpr_memchrB7v180000IKccEEPT_S3_T0_j, .Lfunc_end11-_ZNSt3__218__constexpr_memchrB7v180000IKccEEPT_S3_T0_j
	.cfi_endproc
	.cantunwind
	.fnend
                                        @ -- End function
	.section	.text._ZNSt3__218__unwrap_iter_implIPKcLb1EE8__unwrapB7v180000ES2_,"axG",%progbits,_ZNSt3__218__unwrap_iter_implIPKcLb1EE8__unwrapB7v180000ES2_,comdat
	.hidden	_ZNSt3__218__unwrap_iter_implIPKcLb1EE8__unwrapB7v180000ES2_ @ -- Begin function _ZNSt3__218__unwrap_iter_implIPKcLb1EE8__unwrapB7v180000ES2_
	.weak	_ZNSt3__218__unwrap_iter_implIPKcLb1EE8__unwrapB7v180000ES2_
	.p2align	2
	.type	_ZNSt3__218__unwrap_iter_implIPKcLb1EE8__unwrapB7v180000ES2_,%function
	.code	16                              @ @_ZNSt3__218__unwrap_iter_implIPKcLb1EE8__unwrapB7v180000ES2_
	.thumb_func
_ZNSt3__218__unwrap_iter_implIPKcLb1EE8__unwrapB7v180000ES2_:
.Lfunc_begin12:
	.loc	6 55 0 is_stmt 1                @ D:\Embed\MDK\MDK\ARM\ARMCompilerV621\Bin\..\include\libcxx\__algorithm/unwrap_iter.h:55:0
	.fnstart
	.cfi_startproc
@ %bb.0:
	.save	{r7, lr}
	push	{r7, lr}
	.cfi_def_cfa_offset 8
	.cfi_offset lr, -4
	.cfi_offset r7, -8
	.pad	#8
	sub	sp, #8
	.cfi_def_cfa_offset 16
	str	r0, [sp, #4]
.Ltmp46:
	.loc	6 56 30 prologue_end            @ D:\Embed\MDK\MDK\ARM\ARMCompilerV621\Bin\..\include\libcxx\__algorithm/unwrap_iter.h:56:30
	ldr	r0, [sp, #4]
	.loc	6 56 12 is_stmt 0               @ D:\Embed\MDK\MDK\ARM\ARMCompilerV621\Bin\..\include\libcxx\__algorithm/unwrap_iter.h:56:12
	bl	_ZNSt3__212__to_addressB7v180000IKcEEPT_S3_
	.loc	6 56 5 epilogue_begin           @ D:\Embed\MDK\MDK\ARM\ARMCompilerV621\Bin\..\include\libcxx\__algorithm/unwrap_iter.h:56:5
	add	sp, #8
	pop	{r7, pc}
.Ltmp47:
.Lfunc_end12:
	.size	_ZNSt3__218__unwrap_iter_implIPKcLb1EE8__unwrapB7v180000ES2_, .Lfunc_end12-_ZNSt3__218__unwrap_iter_implIPKcLb1EE8__unwrapB7v180000ES2_
	.cfi_endproc
	.cantunwind
	.fnend
                                        @ -- End function
	.type	.L.str,%object                  @ @.str
	.section	.rodata.str1.1,"aMS",%progbits,1
.L.str:
	.asciz	"0x%x"
	.size	.L.str, 5

	.type	.L.str.1,%object                @ @.str.1
.L.str.1:
	.asciz	"%d"
	.size	.L.str.1, 3

	.file	9 "D:\\Embed\\MDK\\MDK\\ARM\\ARMCompilerV621\\Bin\\..\\include" "stdlib.h"
	.file	10 "D:\\Embed\\MDK\\MDK\\ARM\\ARMCompilerV621\\Bin\\..\\include" "stddef.h"
	.file	11 "D:\\Embed\\MDK\\MDK\\ARM\\ARMCompilerV621\\Bin\\..\\include\\libcxx" "stddef.h"
	.file	12 "D:\\Embed\\MDK\\MDK\\ARM\\ARMCompilerV621\\Bin\\..\\include\\libcxx" "cstddef"
	.file	13 "D:\\Embed\\MDK\\MDK\\ARM\\ARMCompilerV621\\Bin\\..\\include" "stdint.h"
	.file	14 "D:\\Embed\\MDK\\MDK\\ARM\\ARMCompilerV621\\Bin\\..\\include\\libcxx" "cstdint"
	.file	15 "D:\\Embed\\MDK\\MDK\\ARM\\ARMCompilerV621\\Bin\\..\\include\\libcxx" "cstdlib"
	.file	16 "D:\\Embed\\MDK\\MDK\\ARM\\ARMCompilerV621\\Bin\\..\\include\\libcxx" "stdlib.h"
	.file	17 "D:\\Embed\\MDK\\MDK\\ARM\\ARMCompilerV621\\Bin\\..\\include" "ctype.h"
	.file	18 "D:\\Embed\\MDK\\MDK\\ARM\\ARMCompilerV621\\Bin\\..\\include\\libcxx" "cctype"
	.file	19 "D:\\Embed\\MDK\\MDK\\ARM\\ARMCompilerV621\\Bin\\..\\include" "wctype.h"
	.file	20 "D:\\Embed\\MDK\\MDK\\ARM\\ARMCompilerV621\\Bin\\..\\include\\libcxx" "cwctype"
	.file	21 "D:\\Embed\\MDK\\MDK\\ARM\\ARMCompilerV621\\Bin\\..\\include" "wchar.h"
	.file	22 "D:\\Embed\\MDK\\MDK\\ARM\\ARMCompilerV621\\Bin\\..\\include" "time.h"
	.file	23 "D:\\ikingtec\\Robot\\ODrive\\Firmware\\MDK-ARM" "../fibre-cpp\\channel_discoverer.cpp"
	.file	24 "D:\\Embed\\MDK\\MDK\\ARM\\ARMCompilerV621\\Bin\\..\\include\\libcxx" "cwchar"
	.file	25 "D:\\Embed\\MDK\\MDK\\ARM\\ARMCompilerV621\\Bin\\..\\include\\libcxx" "wchar.h"
	.file	26 "D:\\Embed\\MDK\\MDK\\ARM\\ARMCompilerV621\\Bin\\..\\include" "string.h"
	.file	27 "D:\\Embed\\MDK\\MDK\\ARM\\ARMCompilerV621\\Bin\\..\\include\\libcxx" "cstring"
	.file	28 "D:\\Embed\\MDK\\MDK\\ARM\\ARMCompilerV621\\Bin\\..\\include\\libcxx" "string.h"
	.file	29 "D:\\Embed\\MDK\\MDK\\ARM\\ARMCompilerV621\\Bin\\..\\include\\libcxx" "__std_mbstate_t.h"
	.file	30 "D:\\Embed\\MDK\\MDK\\ARM\\ARMCompilerV621\\Bin\\..\\include" "stdio.h"
	.file	31 "D:\\Embed\\MDK\\MDK\\ARM\\ARMCompilerV621\\Bin\\..\\include\\libcxx" "cstdio"
	.file	32 "D:\\Embed\\MDK\\MDK\\ARM\\ARMCompilerV621\\Bin\\..\\include" "math.h"
	.file	33 "D:\\Embed\\MDK\\MDK\\ARM\\ARMCompilerV621\\Bin\\..\\include\\libcxx\\__math" "traits.h"
	.file	34 "D:\\Embed\\MDK\\MDK\\ARM\\ARMCompilerV621\\Bin\\..\\include\\libcxx" "math.h"
	.file	35 "D:\\Embed\\MDK\\MDK\\ARM\\ARMCompilerV621\\Bin\\..\\include\\libcxx\\__math" "modulo.h"
	.file	36 "D:\\Embed\\MDK\\MDK\\ARM\\ARMCompilerV621\\Bin\\..\\include\\libcxx" "cmath"
	.file	37 "D:\\Embed\\MDK\\MDK\\ARM\\ARMCompilerV621\\Bin\\..\\include\\libcxx\\__chrono" "duration.h"
	.file	38 "D:\\Embed\\MDK\\MDK\\ARM\\ARMCompilerV621\\Bin\\..\\include\\libcxx" "ctime"
	.file	39 "D:\\Embed\\MDK\\MDK\\ARM\\ARMCompilerV621\\Bin\\..\\include" "errno.h"
	.file	40 "D:\\Embed\\MDK\\MDK\\ARM\\ARMCompilerV621\\Bin\\..\\include" "locale.h"
	.file	41 "D:\\Embed\\MDK\\MDK\\ARM\\ARMCompilerV621\\Bin\\..\\include\\libcxx" "clocale"
	.file	42 "D:\\Embed\\MDK\\MDK\\ARM\\ARMCompilerV621\\Bin\\..\\include" "stdarg.h"
	.file	43 "D:\\Embed\\MDK\\MDK\\ARM\\ARMCompilerV621\\Bin\\..\\include\\libcxx" "cstdarg"
	.file	44 "D:\\Embed\\MDK\\MDK\\ARM\\ARMCompilerV621\\Bin\\..\\include\\libcxx\\__functional" "identity.h"
	.section	".note.GNU-stack","",%progbits
	.eabi_attribute	30, 6	@ Tag_ABI_optimization_goals
	.ARM_attribute	16, 1	@ Tag_AV_eba