	.text
	.syntax unified
	.eabi_attribute	67, "2.09"	@ Tag_conformance
	.cpu	cortex-m4
	.eabi_attribute	6, 13	@ Tag_CPU_arch
	.eabi_attribute	7, 77	@ Tag_CPU_arch_profile
	.eabi_attribute	8, 0	@ Tag_ARM_ISA_use
	.eabi_attribute	9, 2	@ Tag_THUMB_ISA_use
	.fpu	fpv4-sp-d16
	.eabi_attribute	27, 1	@ Tag_ABI_HardFP_use
	.eabi_attribute	36, 1	@ Tag_FP_HP_extension
	.eabi_attribute	34, 1	@ Tag_CPU_unaligned_access
	.eabi_attribute	17, 1	@ Tag_ABI_PCS_GOT_use
	.eabi_attribute	20, 2	@ Tag_ABI_FP_denormal
	.eabi_attribute	21, 0	@ Tag_ABI_FP_exceptions
	.eabi_attribute	23, 1	@ Tag_ABI_FP_number_model
	.eabi_attribute	24, 1	@ Tag_ABI_align_needed
	.eabi_attribute	25, 1	@ Tag_ABI_align_preserved
	.eabi_attribute	28, 1	@ Tag_ABI_VFP_args
	.eabi_attribute	38, 1	@ Tag_ABI_FP_16bit_format
	.eabi_attribute	18, 2	@ Tag_ABI_PCS_wchar_t
	.eabi_attribute	26, 1	@ Tag_ABI_enum_size
	.eabi_attribute	14, 0	@ Tag_ABI_PCS_R9_use
	.file	"cmsis_os.c"
	.file	1 "D:\\ikingtec\\Robot\\ODrive\\Firmware\\MDK-ARM" "../ThirdParty/FreeRTOS/Source/CMSIS_RTOS/cmsis_os.h"
	.file	2 "D:\\ikingtec\\Robot\\ODrive\\Firmware\\MDK-ARM" "../ThirdParty/FreeRTOS/Source/include\\task.h"
	.file	3 "D:\\ikingtec\\Robot\\ODrive\\Firmware\\MDK-ARM" "../ThirdParty/FreeRTOS/Source/portable/GCC/ARM_CM4F\\portmacro.h"
	.file	4 "D:\\ikingtec\\Robot\\ODrive\\Firmware\\MDK-ARM" "../ThirdParty/FreeRTOS/Source/include/projdefs.h"
	.file	5 "D:\\Embed\\MDK\\MDK\\ARM\\ARMCompilerV621\\Bin\\..\\include" "stdint.h"
	.file	6 "D:\\ikingtec\\Robot\\ODrive\\Firmware\\MDK-ARM" "../ThirdParty/FreeRTOS/Source/include\\queue.h"
	.section	.text.osKernelStart,"ax",%progbits
	.hidden	osKernelStart                   @ -- Begin function osKernelStart
	.globl	osKernelStart
	.p2align	2
	.type	osKernelStart,%function
	.code	16                              @ @osKernelStart
	.thumb_func
osKernelStart:
.Lfunc_begin0:
	.file	7 "D:\\ikingtec\\Robot\\ODrive\\Firmware\\MDK-ARM" "../ThirdParty/FreeRTOS/Source/CMSIS_RTOS/cmsis_os.c"
	.loc	7 151 0                         @ ../ThirdParty/FreeRTOS/Source/CMSIS_RTOS/cmsis_os.c:151:0
	.fnstart
	.cfi_sections .debug_frame
	.cfi_startproc
@ %bb.0:
	.save	{r7, lr}
	push	{r7, lr}
	.cfi_def_cfa_offset 8
	.cfi_offset lr, -4
	.cfi_offset r7, -8
.Ltmp0:
	.loc	7 152 3 prologue_end            @ ../ThirdParty/FreeRTOS/Source/CMSIS_RTOS/cmsis_os.c:152:3
	bl	vTaskStartScheduler
	movs	r0, #0
	.loc	7 154 3 epilogue_begin          @ ../ThirdParty/FreeRTOS/Source/CMSIS_RTOS/cmsis_os.c:154:3
	pop	{r7, pc}
.Ltmp1:
.Lfunc_end0:
	.size	osKernelStart, .Lfunc_end0-osKernelStart
	.cfi_endproc
	.cantunwind
	.fnend
                                        @ -- End function
	.section	.text.osKernelRunning,"ax",%progbits
	.hidden	osKernelRunning                 @ -- Begin function osKernelRunning
	.globl	osKernelRunning
	.p2align	2
	.type	osKernelRunning,%function
	.code	16                              @ @osKernelRunning
	.thumb_func
osKernelRunning:
.Lfunc_begin1:
	.loc	7 166 0                         @ ../ThirdParty/FreeRTOS/Source/CMSIS_RTOS/cmsis_os.c:166:0
	.fnstart
	.cfi_startproc
@ %bb.0:
	.save	{r7, lr}
	push	{r7, lr}
	.cfi_def_cfa_offset 8
	.cfi_offset lr, -4
	.cfi_offset r7, -8
	.pad	#8
	sub	sp, #8
	.cfi_def_cfa_offset 16
.Ltmp2:
	.loc	7 168 7 prologue_end            @ ../ThirdParty/FreeRTOS/Source/CMSIS_RTOS/cmsis_os.c:168:7
	bl	xTaskGetSchedulerState
.Ltmp3:
	.loc	7 168 7 is_stmt 0               @ ../ThirdParty/FreeRTOS/Source/CMSIS_RTOS/cmsis_os.c:168:7
	cmp	r0, #1
	bne	.LBB1_2
	b	.LBB1_1
.LBB1_1:
	.loc	7 0 7                           @ ../ThirdParty/FreeRTOS/Source/CMSIS_RTOS/cmsis_os.c:0:7
	movs	r0, #0
.Ltmp4:
	.loc	7 169 5 is_stmt 1               @ ../ThirdParty/FreeRTOS/Source/CMSIS_RTOS/cmsis_os.c:169:5
	str	r0, [sp, #4]
	b	.LBB1_3
.LBB1_2:
	.loc	7 0 5 is_stmt 0                 @ ../ThirdParty/FreeRTOS/Source/CMSIS_RTOS/cmsis_os.c:0:5
	movs	r0, #1
	.loc	7 171 5 is_stmt 1               @ ../ThirdParty/FreeRTOS/Source/CMSIS_RTOS/cmsis_os.c:171:5
	str	r0, [sp, #4]
	b	.LBB1_3
.Ltmp5:
.LBB1_3:
	.loc	7 175 1                         @ ../ThirdParty/FreeRTOS/Source/CMSIS_RTOS/cmsis_os.c:175:1
	ldr	r0, [sp, #4]
	.loc	7 175 1 epilogue_begin is_stmt 0 @ ../ThirdParty/FreeRTOS/Source/CMSIS_RTOS/cmsis_os.c:175:1
	add	sp, #8
	pop	{r7, pc}
.Ltmp6:
.Lfunc_end1:
	.size	osKernelRunning, .Lfunc_end1-osKernelRunning
	.cfi_endproc
	.cantunwind
	.fnend
                                        @ -- End function
	.section	.text.osKernelSysTick,"ax",%progbits
	.hidden	osKernelSysTick                 @ -- Begin function osKernelSysTick
	.globl	osKernelSysTick
	.p2align	2
	.type	osKernelSysTick,%function
	.code	16                              @ @osKernelSysTick
	.thumb_func
osKernelSysTick:
.Lfunc_begin2:
	.loc	7 185 0 is_stmt 1               @ ../ThirdParty/FreeRTOS/Source/CMSIS_RTOS/cmsis_os.c:185:0
	.fnstart
	.cfi_startproc
@ %bb.0:
	.save	{r7, lr}
	push	{r7, lr}
	.cfi_def_cfa_offset 8
	.cfi_offset lr, -4
	.cfi_offset r7, -8
	.pad	#8
	sub	sp, #8
	.cfi_def_cfa_offset 16
.Ltmp7:
	.loc	7 186 7 prologue_end            @ ../ThirdParty/FreeRTOS/Source/CMSIS_RTOS/cmsis_os.c:186:7
	bl	inHandlerMode
.Ltmp8:
	.loc	7 186 7 is_stmt 0               @ ../ThirdParty/FreeRTOS/Source/CMSIS_RTOS/cmsis_os.c:186:7
	cbz	r0, .LBB2_2
	b	.LBB2_1
.LBB2_1:
.Ltmp9:
	.loc	7 187 12 is_stmt 1              @ ../ThirdParty/FreeRTOS/Source/CMSIS_RTOS/cmsis_os.c:187:12
	bl	xTaskGetTickCountFromISR
	.loc	7 187 5 is_stmt 0               @ ../ThirdParty/FreeRTOS/Source/CMSIS_RTOS/cmsis_os.c:187:5
	str	r0, [sp, #4]
	b	.LBB2_3
.Ltmp10:
.LBB2_2:
	.loc	7 190 12 is_stmt 1              @ ../ThirdParty/FreeRTOS/Source/CMSIS_RTOS/cmsis_os.c:190:12
	bl	xTaskGetTickCount
	.loc	7 190 5 is_stmt 0               @ ../ThirdParty/FreeRTOS/Source/CMSIS_RTOS/cmsis_os.c:190:5
	str	r0, [sp, #4]
	b	.LBB2_3
.Ltmp11:
.LBB2_3:
	.loc	7 192 1 is_stmt 1               @ ../ThirdParty/FreeRTOS/Source/CMSIS_RTOS/cmsis_os.c:192:1
	ldr	r0, [sp, #4]
	.loc	7 192 1 epilogue_begin is_stmt 0 @ ../ThirdParty/FreeRTOS/Source/CMSIS_RTOS/cmsis_os.c:192:1
	add	sp, #8
	pop	{r7, pc}
.Ltmp12:
.Lfunc_end2:
	.size	osKernelSysTick, .Lfunc_end2-osKernelSysTick
	.cfi_endproc
	.cantunwind
	.fnend
                                        @ -- End function
	.section	.text.inHandlerMode,"ax",%progbits
	.p2align	2                               @ -- Begin function inHandlerMode
	.type	inHandlerMode,%function
	.code	16                              @ @inHandlerMode
	.thumb_func
inHandlerMode:
.Lfunc_begin3:
	.loc	7 131 0 is_stmt 1               @ ../ThirdParty/FreeRTOS/Source/CMSIS_RTOS/cmsis_os.c:131:0
	.fnstart
	.cfi_startproc
@ %bb.0:
	.pad	#4
	sub	sp, #4
	.cfi_def_cfa_offset 4
.Ltmp13:
	.file	8 "D:\\ikingtec\\Robot\\ODrive\\Firmware\\MDK-ARM" "../ThirdParty/CMSIS/Include\\cmsis_gcc.h"
	.loc	8 209 3 prologue_end            @ ../ThirdParty/CMSIS/Include\cmsis_gcc.h:209:3
	@APP
	mrs	r0, ipsr
	@NO_APP
	str	r0, [sp]
	.loc	8 210 10                        @ ../ThirdParty/CMSIS/Include\cmsis_gcc.h:210:10
	ldr	r0, [sp]
.Ltmp14:
	.loc	7 132 23                        @ ../ThirdParty/FreeRTOS/Source/CMSIS_RTOS/cmsis_os.c:132:23
	cmp	r0, #0
	it	ne
	movne	r0, #1
	.loc	7 132 3 epilogue_begin is_stmt 0 @ ../ThirdParty/FreeRTOS/Source/CMSIS_RTOS/cmsis_os.c:132:3
	add	sp, #4
	bx	lr
.Ltmp15:
.Lfunc_end3:
	.size	inHandlerMode, .Lfunc_end3-inHandlerMode
	.cfi_endproc
	.cantunwind
	.fnend
                                        @ -- End function
	.section	.text.osThreadCreate,"ax",%progbits
	.hidden	osThreadCreate                  @ -- Begin function osThreadCreate
	.globl	osThreadCreate
	.p2align	2
	.type	osThreadCreate,%function
	.code	16                              @ @osThreadCreate
	.thumb_func
osThreadCreate:
.Lfunc_begin4:
	.loc	7 203 0 is_stmt 1               @ ../ThirdParty/FreeRTOS/Source/CMSIS_RTOS/cmsis_os.c:203:0
	.fnstart
	.cfi_startproc
@ %bb.0:
	.save	{r4, lr}
	push	{r4, lr}
	.cfi_def_cfa_offset 8
	.cfi_offset lr, -4
	.cfi_offset r4, -8
	.pad	#40
	sub	sp, #40
	.cfi_def_cfa_offset 48
	str	r0, [sp, #32]
	str	r1, [sp, #28]
.Ltmp16:
	.loc	7 225 35 prologue_end           @ ../ThirdParty/FreeRTOS/Source/CMSIS_RTOS/cmsis_os.c:225:35
	ldr	r0, [sp, #32]
	.loc	7 225 85 is_stmt 0              @ ../ThirdParty/FreeRTOS/Source/CMSIS_RTOS/cmsis_os.c:225:85
	ldr	r1, [r0]
	.loc	7 225 47                        @ ../ThirdParty/FreeRTOS/Source/CMSIS_RTOS/cmsis_os.c:225:47
	str	r1, [sp, #8]                    @ 4-byte Spill
	ldr	r1, [r0, #4]
	.loc	7 226 32 is_stmt 1              @ ../ThirdParty/FreeRTOS/Source/CMSIS_RTOS/cmsis_os.c:226:32
	str	r1, [sp, #20]                   @ 4-byte Spill
	ldrh	r1, [r0, #16]
	.loc	7 226 43 is_stmt 0              @ ../ThirdParty/FreeRTOS/Source/CMSIS_RTOS/cmsis_os.c:226:43
	str	r1, [sp, #12]                   @ 4-byte Spill
	ldr	r1, [sp, #28]
	.loc	7 226 86                        @ ../ThirdParty/FreeRTOS/Source/CMSIS_RTOS/cmsis_os.c:226:86
	str	r1, [sp, #16]                   @ 4-byte Spill
	ldrsh.w	r0, [r0, #8]
	.loc	7 226 53                        @ ../ThirdParty/FreeRTOS/Source/CMSIS_RTOS/cmsis_os.c:226:53
	bl	makeFreeRtosPriority
	ldr	r1, [sp, #8]                    @ 4-byte Reload
	ldr	r2, [sp, #12]                   @ 4-byte Reload
	ldr	r3, [sp, #16]                   @ 4-byte Reload
	mov	r12, r0
	.loc	7 225 7 is_stmt 1               @ ../ThirdParty/FreeRTOS/Source/CMSIS_RTOS/cmsis_os.c:225:7
	ldr	r0, [sp, #20]                   @ 4-byte Reload
	mov	lr, sp
	add	r4, sp, #24
	str.w	r4, [lr, #4]
	str.w	r12, [lr]
	bl	xTaskCreate
.Ltmp17:
	.loc	7 225 7 is_stmt 0               @ ../ThirdParty/FreeRTOS/Source/CMSIS_RTOS/cmsis_os.c:225:7
	cmp	r0, #1
	beq	.LBB4_2
	b	.LBB4_1
.LBB4_1:
	.loc	7 0 7                           @ ../ThirdParty/FreeRTOS/Source/CMSIS_RTOS/cmsis_os.c:0:7
	movs	r0, #0
.Ltmp18:
	.loc	7 228 5 is_stmt 1               @ ../ThirdParty/FreeRTOS/Source/CMSIS_RTOS/cmsis_os.c:228:5
	str	r0, [sp, #36]
	b	.LBB4_3
.Ltmp19:
.LBB4_2:
	.loc	7 232 10                        @ ../ThirdParty/FreeRTOS/Source/CMSIS_RTOS/cmsis_os.c:232:10
	ldr	r0, [sp, #24]
	.loc	7 232 3 is_stmt 0               @ ../ThirdParty/FreeRTOS/Source/CMSIS_RTOS/cmsis_os.c:232:3
	str	r0, [sp, #36]
	b	.LBB4_3
.LBB4_3:
	.loc	7 233 1 is_stmt 1               @ ../ThirdParty/FreeRTOS/Source/CMSIS_RTOS/cmsis_os.c:233:1
	ldr	r0, [sp, #36]
	.loc	7 233 1 epilogue_begin is_stmt 0 @ ../ThirdParty/FreeRTOS/Source/CMSIS_RTOS/cmsis_os.c:233:1
	add	sp, #40
	pop	{r4, pc}
.Ltmp20:
.Lfunc_end4:
	.size	osThreadCreate, .Lfunc_end4-osThreadCreate
	.cfi_endproc
	.cantunwind
	.fnend
                                        @ -- End function
	.section	.text.makeFreeRtosPriority,"ax",%progbits
	.p2align	2                               @ -- Begin function makeFreeRtosPriority
	.type	makeFreeRtosPriority,%function
	.code	16                              @ @makeFreeRtosPriority
	.thumb_func
makeFreeRtosPriority:
.Lfunc_begin5:
	.loc	7 104 0 is_stmt 1               @ ../ThirdParty/FreeRTOS/Source/CMSIS_RTOS/cmsis_os.c:104:0
	.fnstart
	.cfi_startproc
@ %bb.0:
	.pad	#8
	sub	sp, #8
	.cfi_def_cfa_offset 8
                                        @ kill: def $r1 killed $r0
	strh.w	r0, [sp, #6]
	movs	r0, #0
.Ltmp21:
	.loc	7 105 26 prologue_end           @ ../ThirdParty/FreeRTOS/Source/CMSIS_RTOS/cmsis_os.c:105:26
	str	r0, [sp]
.Ltmp22:
	.loc	7 107 7                         @ ../ThirdParty/FreeRTOS/Source/CMSIS_RTOS/cmsis_os.c:107:7
	ldrsh.w	r0, [sp, #6]
.Ltmp23:
	.loc	7 107 7 is_stmt 0               @ ../ThirdParty/FreeRTOS/Source/CMSIS_RTOS/cmsis_os.c:107:7
	cmp	r0, #132
	beq	.LBB5_2
	b	.LBB5_1
.LBB5_1:
.Ltmp24:
	.loc	7 108 19 is_stmt 1              @ ../ThirdParty/FreeRTOS/Source/CMSIS_RTOS/cmsis_os.c:108:19
	ldrsh.w	r0, [sp, #6]
	.loc	7 108 15 is_stmt 0              @ ../ThirdParty/FreeRTOS/Source/CMSIS_RTOS/cmsis_os.c:108:15
	ldr	r1, [sp]
	add	r0, r1
	adds	r0, #3
	str	r0, [sp]
	.loc	7 109 3 is_stmt 1               @ ../ThirdParty/FreeRTOS/Source/CMSIS_RTOS/cmsis_os.c:109:3
	b	.LBB5_2
.Ltmp25:
.LBB5_2:
	.loc	7 111 10                        @ ../ThirdParty/FreeRTOS/Source/CMSIS_RTOS/cmsis_os.c:111:10
	ldr	r0, [sp]
	.loc	7 111 3 epilogue_begin is_stmt 0 @ ../ThirdParty/FreeRTOS/Source/CMSIS_RTOS/cmsis_os.c:111:3
	add	sp, #8
	bx	lr
.Ltmp26:
.Lfunc_end5:
	.size	makeFreeRtosPriority, .Lfunc_end5-makeFreeRtosPriority
	.cfi_endproc
	.cantunwind
	.fnend
                                        @ -- End function
	.section	.text.osThreadGetId,"ax",%progbits
	.hidden	osThreadGetId                   @ -- Begin function osThreadGetId
	.globl	osThreadGetId
	.p2align	2
	.type	osThreadGetId,%function
	.code	16                              @ @osThreadGetId
	.thumb_func
osThreadGetId:
.Lfunc_begin6:
	.loc	7 241 0 is_stmt 1               @ ../ThirdParty/FreeRTOS/Source/CMSIS_RTOS/cmsis_os.c:241:0
	.fnstart
	.cfi_startproc
@ %bb.0:
	.save	{r7, lr}
	push	{r7, lr}
	.cfi_def_cfa_offset 8
	.cfi_offset lr, -4
	.cfi_offset r7, -8
.Ltmp27:
	.loc	7 243 10 prologue_end           @ ../ThirdParty/FreeRTOS/Source/CMSIS_RTOS/cmsis_os.c:243:10
	bl	xTaskGetCurrentTaskHandle
	.loc	7 243 3 epilogue_begin is_stmt 0 @ ../ThirdParty/FreeRTOS/Source/CMSIS_RTOS/cmsis_os.c:243:3
	pop	{r7, pc}
.Ltmp28:
.Lfunc_end6:
	.size	osThreadGetId, .Lfunc_end6-osThreadGetId
	.cfi_endproc
	.cantunwind
	.fnend
                                        @ -- End function
	.section	.text.osThreadTerminate,"ax",%progbits
	.hidden	osThreadTerminate               @ -- Begin function osThreadTerminate
	.globl	osThreadTerminate
	.p2align	2
	.type	osThreadTerminate,%function
	.code	16                              @ @osThreadTerminate
	.thumb_func
osThreadTerminate:
.Lfunc_begin7:
	.loc	7 256 0 is_stmt 1               @ ../ThirdParty/FreeRTOS/Source/CMSIS_RTOS/cmsis_os.c:256:0
	.fnstart
	.cfi_startproc
@ %bb.0:
	.save	{r7, lr}
	push	{r7, lr}
	.cfi_def_cfa_offset 8
	.cfi_offset lr, -4
	.cfi_offset r7, -8
	.pad	#8
	sub	sp, #8
	.cfi_def_cfa_offset 16
	str	r0, [sp, #4]
.Ltmp29:
	.loc	7 258 15 prologue_end           @ ../ThirdParty/FreeRTOS/Source/CMSIS_RTOS/cmsis_os.c:258:15
	ldr	r0, [sp, #4]
	.loc	7 258 3 is_stmt 0               @ ../ThirdParty/FreeRTOS/Source/CMSIS_RTOS/cmsis_os.c:258:3
	bl	vTaskDelete
	movs	r0, #0
	.loc	7 259 3 epilogue_begin is_stmt 1 @ ../ThirdParty/FreeRTOS/Source/CMSIS_RTOS/cmsis_os.c:259:3
	add	sp, #8
	pop	{r7, pc}
.Ltmp30:
.Lfunc_end7:
	.size	osThreadTerminate, .Lfunc_end7-osThreadTerminate
	.cfi_endproc
	.cantunwind
	.fnend
                                        @ -- End function
	.section	.text.osThreadYield,"ax",%progbits
	.hidden	osThreadYield                   @ -- Begin function osThreadYield
	.globl	osThreadYield
	.p2align	2
	.type	osThreadYield,%function
	.code	16                              @ @osThreadYield
	.thumb_func
osThreadYield:
.Lfunc_begin8:
	.loc	7 271 0                         @ ../ThirdParty/FreeRTOS/Source/CMSIS_RTOS/cmsis_os.c:271:0
	.fnstart
	.cfi_startproc
@ %bb.0:
	movw	r1, #60676
	movt	r1, #57344
	mov.w	r0, #268435456
.Ltmp31:
	.loc	7 272 3 prologue_end            @ ../ThirdParty/FreeRTOS/Source/CMSIS_RTOS/cmsis_os.c:272:3
	str	r0, [r1]
	@APP
	dsb	sy
	@NO_APP
	@APP
	isb	sy
	@NO_APP
	movs	r0, #0
.Ltmp32:
	.loc	7 274 3                         @ ../ThirdParty/FreeRTOS/Source/CMSIS_RTOS/cmsis_os.c:274:3
	bx	lr
.Ltmp33:
.Lfunc_end8:
	.size	osThreadYield, .Lfunc_end8-osThreadYield
	.cfi_endproc
	.cantunwind
	.fnend
                                        @ -- End function
	.section	.text.osThreadSetPriority,"ax",%progbits
	.hidden	osThreadSetPriority             @ -- Begin function osThreadSetPriority
	.globl	osThreadSetPriority
	.p2align	2
	.type	osThreadSetPriority,%function
	.code	16                              @ @osThreadSetPriority
	.thumb_func
osThreadSetPriority:
.Lfunc_begin9:
	.loc	7 285 0                         @ ../ThirdParty/FreeRTOS/Source/CMSIS_RTOS/cmsis_os.c:285:0
	.fnstart
	.cfi_startproc
@ %bb.0:
	.save	{r7, lr}
	push	{r7, lr}
	.cfi_def_cfa_offset 8
	.cfi_offset lr, -4
	.cfi_offset r7, -8
	.pad	#16
	sub	sp, #16
	.cfi_def_cfa_offset 24
                                        @ kill: def $r2 killed $r1
	str	r0, [sp, #12]
	strh.w	r1, [sp, #10]
.Ltmp34:
	.loc	7 287 20 prologue_end           @ ../ThirdParty/FreeRTOS/Source/CMSIS_RTOS/cmsis_os.c:287:20
	ldr	r0, [sp, #12]
	.loc	7 287 52 is_stmt 0              @ ../ThirdParty/FreeRTOS/Source/CMSIS_RTOS/cmsis_os.c:287:52
	str	r0, [sp, #4]                    @ 4-byte Spill
	ldrsh.w	r0, [sp, #10]
	.loc	7 287 31                        @ ../ThirdParty/FreeRTOS/Source/CMSIS_RTOS/cmsis_os.c:287:31
	bl	makeFreeRtosPriority
	mov	r1, r0
	.loc	7 287 3                         @ ../ThirdParty/FreeRTOS/Source/CMSIS_RTOS/cmsis_os.c:287:3
	ldr	r0, [sp, #4]                    @ 4-byte Reload
	bl	vTaskPrioritySet
	movs	r0, #0
	.loc	7 288 3 epilogue_begin is_stmt 1 @ ../ThirdParty/FreeRTOS/Source/CMSIS_RTOS/cmsis_os.c:288:3
	add	sp, #16
	pop	{r7, pc}
.Ltmp35:
.Lfunc_end9:
	.size	osThreadSetPriority, .Lfunc_end9-osThreadSetPriority
	.cfi_endproc
	.cantunwind
	.fnend
                                        @ -- End function
	.section	.text.osThreadGetPriority,"ax",%progbits
	.hidden	osThreadGetPriority             @ -- Begin function osThreadGetPriority
	.globl	osThreadGetPriority
	.p2align	2
	.type	osThreadGetPriority,%function
	.code	16                              @ @osThreadGetPriority
	.thumb_func
osThreadGetPriority:
.Lfunc_begin10:
	.loc	7 301 0                         @ ../ThirdParty/FreeRTOS/Source/CMSIS_RTOS/cmsis_os.c:301:0
	.fnstart
	.cfi_startproc
@ %bb.0:
	.save	{r7, lr}
	push	{r7, lr}
	.cfi_def_cfa_offset 8
	.cfi_offset lr, -4
	.cfi_offset r7, -8
	.pad	#8
	sub	sp, #8
	.cfi_def_cfa_offset 16
	str	r0, [sp]
.Ltmp36:
	.loc	7 303 7 prologue_end            @ ../ThirdParty/FreeRTOS/Source/CMSIS_RTOS/cmsis_os.c:303:7
	bl	inHandlerMode
.Ltmp37:
	.loc	7 303 7 is_stmt 0               @ ../ThirdParty/FreeRTOS/Source/CMSIS_RTOS/cmsis_os.c:303:7
	cbz	r0, .LBB10_2
	b	.LBB10_1
.LBB10_1:
.Ltmp38:
	.loc	7 305 55 is_stmt 1              @ ../ThirdParty/FreeRTOS/Source/CMSIS_RTOS/cmsis_os.c:305:55
	ldr	r0, [sp]
	.loc	7 305 30 is_stmt 0              @ ../ThirdParty/FreeRTOS/Source/CMSIS_RTOS/cmsis_os.c:305:30
	bl	uxTaskPriorityGetFromISR
	.loc	7 305 12                        @ ../ThirdParty/FreeRTOS/Source/CMSIS_RTOS/cmsis_os.c:305:12
	bl	makeCmsisPriority
	.loc	7 305 5                         @ ../ThirdParty/FreeRTOS/Source/CMSIS_RTOS/cmsis_os.c:305:5
	strh.w	r0, [sp, #6]
	b	.LBB10_3
.Ltmp39:
.LBB10_2:
	.loc	7 309 48 is_stmt 1              @ ../ThirdParty/FreeRTOS/Source/CMSIS_RTOS/cmsis_os.c:309:48
	ldr	r0, [sp]
	.loc	7 309 30 is_stmt 0              @ ../ThirdParty/FreeRTOS/Source/CMSIS_RTOS/cmsis_os.c:309:30
	bl	uxTaskPriorityGet
	.loc	7 309 12                        @ ../ThirdParty/FreeRTOS/Source/CMSIS_RTOS/cmsis_os.c:309:12
	bl	makeCmsisPriority
	.loc	7 309 5                         @ ../ThirdParty/FreeRTOS/Source/CMSIS_RTOS/cmsis_os.c:309:5
	strh.w	r0, [sp, #6]
	b	.LBB10_3
.Ltmp40:
.LBB10_3:
	.loc	7 314 1 is_stmt 1               @ ../ThirdParty/FreeRTOS/Source/CMSIS_RTOS/cmsis_os.c:314:1
	ldrsh.w	r0, [sp, #6]
	.loc	7 314 1 epilogue_begin is_stmt 0 @ ../ThirdParty/FreeRTOS/Source/CMSIS_RTOS/cmsis_os.c:314:1
	add	sp, #8
	pop	{r7, pc}
.Ltmp41:
.Lfunc_end10:
	.size	osThreadGetPriority, .Lfunc_end10-osThreadGetPriority
	.cfi_endproc
	.cantunwind
	.fnend
                                        @ -- End function
	.section	.text.makeCmsisPriority,"ax",%progbits
	.p2align	2                               @ -- Begin function makeCmsisPriority
	.type	makeCmsisPriority,%function
	.code	16                              @ @makeCmsisPriority
	.thumb_func
makeCmsisPriority:
.Lfunc_begin11:
	.loc	7 117 0 is_stmt 1               @ ../ThirdParty/FreeRTOS/Source/CMSIS_RTOS/cmsis_os.c:117:0
	.fnstart
	.cfi_startproc
@ %bb.0:
	.pad	#8
	sub	sp, #8
	.cfi_def_cfa_offset 8
	str	r0, [sp, #4]
	movs	r0, #132
.Ltmp42:
	.loc	7 118 14 prologue_end           @ ../ThirdParty/FreeRTOS/Source/CMSIS_RTOS/cmsis_os.c:118:14
	strh.w	r0, [sp, #2]
.Ltmp43:
	.loc	7 120 8                         @ ../ThirdParty/FreeRTOS/Source/CMSIS_RTOS/cmsis_os.c:120:8
	ldr	r0, [sp, #4]
.Ltmp44:
	.loc	7 120 7 is_stmt 0               @ ../ThirdParty/FreeRTOS/Source/CMSIS_RTOS/cmsis_os.c:120:7
	cmp	r0, #6
	bhi	.LBB11_2
	b	.LBB11_1
.LBB11_1:
.Ltmp45:
	.loc	7 121 57 is_stmt 1              @ ../ThirdParty/FreeRTOS/Source/CMSIS_RTOS/cmsis_os.c:121:57
	ldr	r0, [sp, #4]
	.loc	7 121 49 is_stmt 0              @ ../ThirdParty/FreeRTOS/Source/CMSIS_RTOS/cmsis_os.c:121:49
	subs	r0, #3
	.loc	7 121 14                        @ ../ThirdParty/FreeRTOS/Source/CMSIS_RTOS/cmsis_os.c:121:14
	strh.w	r0, [sp, #2]
	.loc	7 122 3 is_stmt 1               @ ../ThirdParty/FreeRTOS/Source/CMSIS_RTOS/cmsis_os.c:122:3
	b	.LBB11_2
.Ltmp46:
.LBB11_2:
	.loc	7 124 10                        @ ../ThirdParty/FreeRTOS/Source/CMSIS_RTOS/cmsis_os.c:124:10
	ldrsh.w	r0, [sp, #2]
	.loc	7 124 3 epilogue_begin is_stmt 0 @ ../ThirdParty/FreeRTOS/Source/CMSIS_RTOS/cmsis_os.c:124:3
	add	sp, #8
	bx	lr
.Ltmp47:
.Lfunc_end11:
	.size	makeCmsisPriority, .Lfunc_end11-makeCmsisPriority
	.cfi_endproc
	.cantunwind
	.fnend
                                        @ -- End function
	.section	.text.osDelay,"ax",%progbits
	.hidden	osDelay                         @ -- Begin function osDelay
	.globl	osDelay
	.p2align	2
	.type	osDelay,%function
	.code	16                              @ @osDelay
	.thumb_func
osDelay:
.Lfunc_begin12:
	.loc	7 323 0 is_stmt 1               @ ../ThirdParty/FreeRTOS/Source/CMSIS_RTOS/cmsis_os.c:323:0
	.fnstart
	.cfi_startproc
@ %bb.0:
	.save	{r7, lr}
	push	{r7, lr}
	.cfi_def_cfa_offset 8
	.cfi_offset lr, -4
	.cfi_offset r7, -8
	.pad	#16
	sub	sp, #16
	.cfi_def_cfa_offset 24
	str	r0, [sp, #12]
.Ltmp48:
	.loc	7 325 22 prologue_end           @ ../ThirdParty/FreeRTOS/Source/CMSIS_RTOS/cmsis_os.c:325:22
	ldr	r0, [sp, #12]
	.loc	7 325 14 is_stmt 0              @ ../ThirdParty/FreeRTOS/Source/CMSIS_RTOS/cmsis_os.c:325:14
	str	r0, [sp, #8]
	.loc	7 327 14 is_stmt 1              @ ../ThirdParty/FreeRTOS/Source/CMSIS_RTOS/cmsis_os.c:327:14
	ldr	r0, [sp, #8]
	cbz	r0, .LBB12_2
	b	.LBB12_1
.LBB12_1:
	.loc	7 327 22 is_stmt 0              @ ../ThirdParty/FreeRTOS/Source/CMSIS_RTOS/cmsis_os.c:327:22
	ldr	r0, [sp, #8]
	.loc	7 327 14                        @ ../ThirdParty/FreeRTOS/Source/CMSIS_RTOS/cmsis_os.c:327:14
	str	r0, [sp, #4]                    @ 4-byte Spill
	b	.LBB12_3
.LBB12_2:
	.loc	7 0 14                          @ ../ThirdParty/FreeRTOS/Source/CMSIS_RTOS/cmsis_os.c:0:14
	movs	r0, #1
	.loc	7 327 14                        @ ../ThirdParty/FreeRTOS/Source/CMSIS_RTOS/cmsis_os.c:327:14
	str	r0, [sp, #4]                    @ 4-byte Spill
	b	.LBB12_3
.LBB12_3:
	ldr	r0, [sp, #4]                    @ 4-byte Reload
	.loc	7 327 3                         @ ../ThirdParty/FreeRTOS/Source/CMSIS_RTOS/cmsis_os.c:327:3
	bl	vTaskDelay
	movs	r0, #0
	.loc	7 329 3 epilogue_begin is_stmt 1 @ ../ThirdParty/FreeRTOS/Source/CMSIS_RTOS/cmsis_os.c:329:3
	add	sp, #16
	pop	{r7, pc}
.Ltmp49:
.Lfunc_end12:
	.size	osDelay, .Lfunc_end12-osDelay
	.cfi_endproc
	.cantunwind
	.fnend
                                        @ -- End function
	.section	.text.osTimerCreate,"ax",%progbits
	.hidden	osTimerCreate                   @ -- Begin function osTimerCreate
	.globl	osTimerCreate
	.p2align	2
	.type	osTimerCreate,%function
	.code	16                              @ @osTimerCreate
	.thumb_func
osTimerCreate:
.Lfunc_begin13:
	.loc	7 358 0                         @ ../ThirdParty/FreeRTOS/Source/CMSIS_RTOS/cmsis_os.c:358:0
	.fnstart
	.cfi_startproc
@ %bb.0:
	.pad	#12
	sub	sp, #12
	.cfi_def_cfa_offset 12
                                        @ kill: def $r3 killed $r1
	str	r0, [sp, #8]
	strb.w	r1, [sp, #7]
	str	r2, [sp]
	movs	r0, #0
.Ltmp50:
	.loc	7 393 2 prologue_end epilogue_begin @ ../ThirdParty/FreeRTOS/Source/CMSIS_RTOS/cmsis_os.c:393:2
	add	sp, #12
	bx	lr
.Ltmp51:
.Lfunc_end13:
	.size	osTimerCreate, .Lfunc_end13-osTimerCreate
	.cfi_endproc
	.cantunwind
	.fnend
                                        @ -- End function
	.section	.text.osTimerStart,"ax",%progbits
	.hidden	osTimerStart                    @ -- Begin function osTimerStart
	.globl	osTimerStart
	.p2align	2
	.type	osTimerStart,%function
	.code	16                              @ @osTimerStart
	.thumb_func
osTimerStart:
.Lfunc_begin14:
	.loc	7 405 0                         @ ../ThirdParty/FreeRTOS/Source/CMSIS_RTOS/cmsis_os.c:405:0
	.fnstart
	.cfi_startproc
@ %bb.0:
	.pad	#12
	sub	sp, #12
	.cfi_def_cfa_offset 12
	str	r0, [sp, #8]
	str	r1, [sp, #4]
	movs	r0, #0
.Ltmp52:
	.loc	7 406 12 prologue_end           @ ../ThirdParty/FreeRTOS/Source/CMSIS_RTOS/cmsis_os.c:406:12
	str	r0, [sp]
	movs	r0, #255
	.loc	7 432 10                        @ ../ThirdParty/FreeRTOS/Source/CMSIS_RTOS/cmsis_os.c:432:10
	str	r0, [sp]
	.loc	7 434 10                        @ ../ThirdParty/FreeRTOS/Source/CMSIS_RTOS/cmsis_os.c:434:10
	ldr	r0, [sp]
	.loc	7 434 3 epilogue_begin is_stmt 0 @ ../ThirdParty/FreeRTOS/Source/CMSIS_RTOS/cmsis_os.c:434:3
	add	sp, #12
	bx	lr
.Ltmp53:
.Lfunc_end14:
	.size	osTimerStart, .Lfunc_end14-osTimerStart
	.cfi_endproc
	.cantunwind
	.fnend
                                        @ -- End function
	.section	.text.osTimerStop,"ax",%progbits
	.hidden	osTimerStop                     @ -- Begin function osTimerStop
	.globl	osTimerStop
	.p2align	2
	.type	osTimerStop,%function
	.code	16                              @ @osTimerStop
	.thumb_func
osTimerStop:
.Lfunc_begin15:
	.loc	7 444 0 is_stmt 1               @ ../ThirdParty/FreeRTOS/Source/CMSIS_RTOS/cmsis_os.c:444:0
	.fnstart
	.cfi_startproc
@ %bb.0:
	.pad	#8
	sub	sp, #8
	.cfi_def_cfa_offset 8
	str	r0, [sp, #4]
	movs	r0, #0
.Ltmp54:
	.loc	7 445 12 prologue_end           @ ../ThirdParty/FreeRTOS/Source/CMSIS_RTOS/cmsis_os.c:445:12
	str	r0, [sp]
	movs	r0, #255
	.loc	7 461 10                        @ ../ThirdParty/FreeRTOS/Source/CMSIS_RTOS/cmsis_os.c:461:10
	str	r0, [sp]
	.loc	7 463 10                        @ ../ThirdParty/FreeRTOS/Source/CMSIS_RTOS/cmsis_os.c:463:10
	ldr	r0, [sp]
	.loc	7 463 3 epilogue_begin is_stmt 0 @ ../ThirdParty/FreeRTOS/Source/CMSIS_RTOS/cmsis_os.c:463:3
	add	sp, #8
	bx	lr
.Ltmp55:
.Lfunc_end15:
	.size	osTimerStop, .Lfunc_end15-osTimerStop
	.cfi_endproc
	.cantunwind
	.fnend
                                        @ -- End function
	.section	.text.osTimerDelete,"ax",%progbits
	.hidden	osTimerDelete                   @ -- Begin function osTimerDelete
	.globl	osTimerDelete
	.p2align	2
	.type	osTimerDelete,%function
	.code	16                              @ @osTimerDelete
	.thumb_func
osTimerDelete:
.Lfunc_begin16:
	.loc	7 473 0 is_stmt 1               @ ../ThirdParty/FreeRTOS/Source/CMSIS_RTOS/cmsis_os.c:473:0
	.fnstart
	.cfi_startproc
@ %bb.0:
	.pad	#8
	sub	sp, #8
	.cfi_def_cfa_offset 8
	str	r0, [sp, #4]
	movs	r0, #0
.Ltmp56:
	.loc	7 474 10 prologue_end           @ ../ThirdParty/FreeRTOS/Source/CMSIS_RTOS/cmsis_os.c:474:10
	str	r0, [sp]
	movs	r0, #255
	.loc	7 488 10                        @ ../ThirdParty/FreeRTOS/Source/CMSIS_RTOS/cmsis_os.c:488:10
	str	r0, [sp]
	.loc	7 491 10                        @ ../ThirdParty/FreeRTOS/Source/CMSIS_RTOS/cmsis_os.c:491:10
	ldr	r0, [sp]
	.loc	7 491 3 epilogue_begin is_stmt 0 @ ../ThirdParty/FreeRTOS/Source/CMSIS_RTOS/cmsis_os.c:491:3
	add	sp, #8
	bx	lr
.Ltmp57:
.Lfunc_end16:
	.size	osTimerDelete, .Lfunc_end16-osTimerDelete
	.cfi_endproc
	.cantunwind
	.fnend
                                        @ -- End function
	.section	.text.osSignalSet,"ax",%progbits
	.hidden	osSignalSet                     @ -- Begin function osSignalSet
	.globl	osSignalSet
	.p2align	2
	.type	osSignalSet,%function
	.code	16                              @ @osSignalSet
	.thumb_func
osSignalSet:
.Lfunc_begin17:
	.loc	7 503 0 is_stmt 1               @ ../ThirdParty/FreeRTOS/Source/CMSIS_RTOS/cmsis_os.c:503:0
	.fnstart
	.cfi_startproc
@ %bb.0:
	.save	{r7, lr}
	push	{r7, lr}
	.cfi_def_cfa_offset 8
	.cfi_offset lr, -4
	.cfi_offset r7, -8
	.pad	#24
	sub	sp, #24
	.cfi_def_cfa_offset 32
	str	r0, [sp, #16]
	str	r1, [sp, #12]
	movs	r0, #0
.Ltmp58:
	.loc	7 505 14 prologue_end           @ ../ThirdParty/FreeRTOS/Source/CMSIS_RTOS/cmsis_os.c:505:14
	str	r0, [sp, #8]
	.loc	7 506 12                        @ ../ThirdParty/FreeRTOS/Source/CMSIS_RTOS/cmsis_os.c:506:12
	str	r0, [sp, #4]
.Ltmp59:
	.loc	7 508 7                         @ ../ThirdParty/FreeRTOS/Source/CMSIS_RTOS/cmsis_os.c:508:7
	bl	inHandlerMode
.Ltmp60:
	.loc	7 508 7 is_stmt 0               @ ../ThirdParty/FreeRTOS/Source/CMSIS_RTOS/cmsis_os.c:508:7
	cbz	r0, .LBB17_6
	b	.LBB17_1
.LBB17_1:
.Ltmp61:
	.loc	7 510 35 is_stmt 1              @ ../ThirdParty/FreeRTOS/Source/CMSIS_RTOS/cmsis_os.c:510:35
	ldr	r0, [sp, #16]
	.loc	7 510 57 is_stmt 0              @ ../ThirdParty/FreeRTOS/Source/CMSIS_RTOS/cmsis_os.c:510:57
	ldr	r1, [sp, #12]
	.loc	7 510 8                         @ ../ThirdParty/FreeRTOS/Source/CMSIS_RTOS/cmsis_os.c:510:8
	mov	r3, sp
	add	r2, sp, #8
	str	r2, [r3]
	movs	r2, #1
	add	r3, sp, #4
	bl	xTaskGenericNotifyFromISR
.Ltmp62:
	.loc	7 510 8                         @ ../ThirdParty/FreeRTOS/Source/CMSIS_RTOS/cmsis_os.c:510:8
	cmp	r0, #1
	beq	.LBB17_3
	b	.LBB17_2
.LBB17_2:
	.loc	7 0 8                           @ ../ThirdParty/FreeRTOS/Source/CMSIS_RTOS/cmsis_os.c:0:8
	mov.w	r0, #-2147483648
.Ltmp63:
	.loc	7 511 7 is_stmt 1               @ ../ThirdParty/FreeRTOS/Source/CMSIS_RTOS/cmsis_os.c:511:7
	str	r0, [sp, #20]
	b	.LBB17_10
.Ltmp64:
.LBB17_3:
	.loc	7 513 5                         @ ../ThirdParty/FreeRTOS/Source/CMSIS_RTOS/cmsis_os.c:513:5
	ldr	r0, [sp, #8]
.Ltmp65:
	.loc	7 513 5 is_stmt 0               @ ../ThirdParty/FreeRTOS/Source/CMSIS_RTOS/cmsis_os.c:513:5
	cbz	r0, .LBB17_5
	b	.LBB17_4
.LBB17_4:
	.loc	7 0 5                           @ ../ThirdParty/FreeRTOS/Source/CMSIS_RTOS/cmsis_os.c:0:5
	movw	r1, #60676
	movt	r1, #57344
	mov.w	r0, #268435456
.Ltmp66:
	.loc	7 513 5                         @ ../ThirdParty/FreeRTOS/Source/CMSIS_RTOS/cmsis_os.c:513:5
	str	r0, [r1]
	@APP
	dsb	sy
	@NO_APP
	@APP
	isb	sy
	@NO_APP
	b	.LBB17_5
.Ltmp67:
.LBB17_5:
	.loc	7 514 3 is_stmt 1               @ ../ThirdParty/FreeRTOS/Source/CMSIS_RTOS/cmsis_os.c:514:3
	b	.LBB17_9
.Ltmp68:
.LBB17_6:
	.loc	7 515 31                        @ ../ThirdParty/FreeRTOS/Source/CMSIS_RTOS/cmsis_os.c:515:31
	ldr	r0, [sp, #16]
	.loc	7 515 53 is_stmt 0              @ ../ThirdParty/FreeRTOS/Source/CMSIS_RTOS/cmsis_os.c:515:53
	ldr	r1, [sp, #12]
	movs	r2, #1
	add	r3, sp, #4
	.loc	7 515 11                        @ ../ThirdParty/FreeRTOS/Source/CMSIS_RTOS/cmsis_os.c:515:11
	bl	xTaskGenericNotify
.Ltmp69:
	.loc	7 515 11                        @ ../ThirdParty/FreeRTOS/Source/CMSIS_RTOS/cmsis_os.c:515:11
	cmp	r0, #1
	beq	.LBB17_8
	b	.LBB17_7
.LBB17_7:
	.loc	7 0 11                          @ ../ThirdParty/FreeRTOS/Source/CMSIS_RTOS/cmsis_os.c:0:11
	mov.w	r0, #-2147483648
.Ltmp70:
	.loc	7 516 5 is_stmt 1               @ ../ThirdParty/FreeRTOS/Source/CMSIS_RTOS/cmsis_os.c:516:5
	str	r0, [sp, #20]
	b	.LBB17_10
.Ltmp71:
.LBB17_8:
	.loc	7 0 5 is_stmt 0                 @ ../ThirdParty/FreeRTOS/Source/CMSIS_RTOS/cmsis_os.c:0:5
	b	.LBB17_9
.LBB17_9:
	.loc	7 518 10 is_stmt 1              @ ../ThirdParty/FreeRTOS/Source/CMSIS_RTOS/cmsis_os.c:518:10
	ldr	r0, [sp, #4]
	.loc	7 518 3 is_stmt 0               @ ../ThirdParty/FreeRTOS/Source/CMSIS_RTOS/cmsis_os.c:518:3
	str	r0, [sp, #20]
	b	.LBB17_10
.LBB17_10:
	.loc	7 525 1 is_stmt 1               @ ../ThirdParty/FreeRTOS/Source/CMSIS_RTOS/cmsis_os.c:525:1
	ldr	r0, [sp, #20]
	.loc	7 525 1 epilogue_begin is_stmt 0 @ ../ThirdParty/FreeRTOS/Source/CMSIS_RTOS/cmsis_os.c:525:1
	add	sp, #24
	pop	{r7, pc}
.Ltmp72:
.Lfunc_end17:
	.size	osSignalSet, .Lfunc_end17-osSignalSet
	.cfi_endproc
	.cantunwind
	.fnend
                                        @ -- End function
	.section	.text.osSignalWait,"ax",%progbits
	.hidden	osSignalWait                    @ -- Begin function osSignalWait
	.globl	osSignalWait
	.p2align	2
	.type	osSignalWait,%function
	.code	16                              @ @osSignalWait
	.thumb_func
osSignalWait:
.Lfunc_begin18:
	.loc	7 544 0 is_stmt 1               @ ../ThirdParty/FreeRTOS/Source/CMSIS_RTOS/cmsis_os.c:544:0
	.fnstart
	.cfi_startproc
@ %bb.0:
	.save	{r7, lr}
	push	{r7, lr}
	.cfi_def_cfa_offset 8
	.cfi_offset lr, -4
	.cfi_offset r7, -8
	.pad	#24
	sub	sp, #24
	.cfi_def_cfa_offset 32
.Ltmp73:
	@DEBUG_VALUE: osSignalWait:ret <- [$r0+0]
	str	r1, [sp, #4]                    @ 4-byte Spill
	mov	r1, r0
.Ltmp74:
	.loc	7 545 11 prologue_end           @ ../ThirdParty/FreeRTOS/Source/CMSIS_RTOS/cmsis_os.c:545:11
	ldr	r0, [sp, #4]                    @ 4-byte Reload
.Ltmp75:
	str	r1, [sp, #8]                    @ 4-byte Spill
.Ltmp76:
	@DEBUG_VALUE: osSignalWait:ret <- [DW_OP_plus_uconst 8, DW_OP_deref] [$sp+0]
	@DEBUG_VALUE: osSignalWait:ret <- [$r1+0]
	.loc	7 0 11 is_stmt 0                @ ../ThirdParty/FreeRTOS/Source/CMSIS_RTOS/cmsis_os.c:0:11
	str	r0, [sp, #20]
	str	r2, [sp, #16]
	movs	r0, #0
	.loc	7 551 21 is_stmt 1              @ ../ThirdParty/FreeRTOS/Source/CMSIS_RTOS/cmsis_os.c:551:21
	str	r0, [r1, #4]
	.loc	7 552 9                         @ ../ThirdParty/FreeRTOS/Source/CMSIS_RTOS/cmsis_os.c:552:9
	str	r0, [sp, #12]
.Ltmp77:
	.loc	7 553 7                         @ ../ThirdParty/FreeRTOS/Source/CMSIS_RTOS/cmsis_os.c:553:7
	ldr	r0, [sp, #16]
.Ltmp78:
	.loc	7 553 7 is_stmt 0               @ ../ThirdParty/FreeRTOS/Source/CMSIS_RTOS/cmsis_os.c:553:7
	adds	r0, #1
.Ltmp79:
	@DEBUG_VALUE: osSignalWait:ret <- [DW_OP_plus_uconst 8, DW_OP_deref] [$sp+0]
	cbnz	r0, .LBB18_2
	b	.LBB18_1
.Ltmp80:
.LBB18_1:
	@DEBUG_VALUE: osSignalWait:ret <- [DW_OP_plus_uconst 8, DW_OP_deref] [$sp+0]
	.loc	7 0 7                           @ ../ThirdParty/FreeRTOS/Source/CMSIS_RTOS/cmsis_os.c:0:7
	mov.w	r0, #-1
.Ltmp81:
	.loc	7 554 11 is_stmt 1              @ ../ThirdParty/FreeRTOS/Source/CMSIS_RTOS/cmsis_os.c:554:11
	str	r0, [sp, #12]
	.loc	7 555 3                         @ ../ThirdParty/FreeRTOS/Source/CMSIS_RTOS/cmsis_os.c:555:3
	b	.LBB18_7
.Ltmp82:
.LBB18_2:
	@DEBUG_VALUE: osSignalWait:ret <- [DW_OP_plus_uconst 8, DW_OP_deref] [$sp+0]
	.loc	7 556 12                        @ ../ThirdParty/FreeRTOS/Source/CMSIS_RTOS/cmsis_os.c:556:12
	ldr	r0, [sp, #16]
.Ltmp83:
	.loc	7 556 12 is_stmt 0              @ ../ThirdParty/FreeRTOS/Source/CMSIS_RTOS/cmsis_os.c:556:12
	cbz	r0, .LBB18_6
	b	.LBB18_3
.Ltmp84:
.LBB18_3:
	@DEBUG_VALUE: osSignalWait:ret <- [DW_OP_plus_uconst 8, DW_OP_deref] [$sp+0]
	.loc	7 557 13 is_stmt 1              @ ../ThirdParty/FreeRTOS/Source/CMSIS_RTOS/cmsis_os.c:557:13
	ldr	r0, [sp, #16]
	.loc	7 557 11 is_stmt 0              @ ../ThirdParty/FreeRTOS/Source/CMSIS_RTOS/cmsis_os.c:557:11
	str	r0, [sp, #12]
.Ltmp85:
	.loc	7 558 9 is_stmt 1               @ ../ThirdParty/FreeRTOS/Source/CMSIS_RTOS/cmsis_os.c:558:9
	ldr	r0, [sp, #12]
.Ltmp86:
	.loc	7 558 9 is_stmt 0               @ ../ThirdParty/FreeRTOS/Source/CMSIS_RTOS/cmsis_os.c:558:9
	cbnz	r0, .LBB18_5
	b	.LBB18_4
.Ltmp87:
.LBB18_4:
	@DEBUG_VALUE: osSignalWait:ret <- [DW_OP_plus_uconst 8, DW_OP_deref] [$sp+0]
	.loc	7 0 9                           @ ../ThirdParty/FreeRTOS/Source/CMSIS_RTOS/cmsis_os.c:0:9
	movs	r0, #1
.Ltmp88:
	.loc	7 559 13 is_stmt 1              @ ../ThirdParty/FreeRTOS/Source/CMSIS_RTOS/cmsis_os.c:559:13
	str	r0, [sp, #12]
	.loc	7 560 5                         @ ../ThirdParty/FreeRTOS/Source/CMSIS_RTOS/cmsis_os.c:560:5
	b	.LBB18_5
.Ltmp89:
.LBB18_5:
	@DEBUG_VALUE: osSignalWait:ret <- [DW_OP_plus_uconst 8, DW_OP_deref] [$sp+0]
	.loc	7 561 3                         @ ../ThirdParty/FreeRTOS/Source/CMSIS_RTOS/cmsis_os.c:561:3
	b	.LBB18_6
.Ltmp90:
.LBB18_6:
	@DEBUG_VALUE: osSignalWait:ret <- [DW_OP_plus_uconst 8, DW_OP_deref] [$sp+0]
	.loc	7 0 3 is_stmt 0                 @ ../ThirdParty/FreeRTOS/Source/CMSIS_RTOS/cmsis_os.c:0:3
	b	.LBB18_7
.Ltmp91:
.LBB18_7:
	@DEBUG_VALUE: osSignalWait:ret <- [DW_OP_plus_uconst 8, DW_OP_deref] [$sp+0]
	.loc	7 563 7 is_stmt 1               @ ../ThirdParty/FreeRTOS/Source/CMSIS_RTOS/cmsis_os.c:563:7
	bl	inHandlerMode
.Ltmp92:
	.loc	7 563 7 is_stmt 0               @ ../ThirdParty/FreeRTOS/Source/CMSIS_RTOS/cmsis_os.c:563:7
	cbz	r0, .LBB18_9
	b	.LBB18_8
.Ltmp93:
.LBB18_8:
	@DEBUG_VALUE: osSignalWait:ret <- [DW_OP_plus_uconst 8, DW_OP_deref] [$sp+0]
	.loc	7 0 7                           @ ../ThirdParty/FreeRTOS/Source/CMSIS_RTOS/cmsis_os.c:0:7
	ldr	r1, [sp, #8]                    @ 4-byte Reload
	movs	r0, #130
.Ltmp94:
	.loc	7 565 16 is_stmt 1              @ ../ThirdParty/FreeRTOS/Source/CMSIS_RTOS/cmsis_os.c:565:16
	str	r0, [r1]
	.loc	7 566 3                         @ ../ThirdParty/FreeRTOS/Source/CMSIS_RTOS/cmsis_os.c:566:3
	b	.LBB18_19
.Ltmp95:
.LBB18_9:
	@DEBUG_VALUE: osSignalWait:ret <- [DW_OP_plus_uconst 8, DW_OP_deref] [$sp+0]
	.loc	7 569 38                        @ ../ThirdParty/FreeRTOS/Source/CMSIS_RTOS/cmsis_os.c:569:38
	ldr	r0, [sp, #8]                    @ 4-byte Reload
	ldr	r1, [sp, #20]
	.loc	7 569 64 is_stmt 0              @ ../ThirdParty/FreeRTOS/Source/CMSIS_RTOS/cmsis_os.c:569:64
	adds	r2, r0, #4
	.loc	7 569 79                        @ ../ThirdParty/FreeRTOS/Source/CMSIS_RTOS/cmsis_os.c:569:79
	ldr	r3, [sp, #12]
	movs	r0, #0
	.loc	7 569 8                         @ ../ThirdParty/FreeRTOS/Source/CMSIS_RTOS/cmsis_os.c:569:8
	bl	xTaskNotifyWait
.Ltmp96:
	.loc	7 569 8                         @ ../ThirdParty/FreeRTOS/Source/CMSIS_RTOS/cmsis_os.c:569:8
	cmp	r0, #1
	beq	.LBB18_14
	b	.LBB18_10
.Ltmp97:
.LBB18_10:
	@DEBUG_VALUE: osSignalWait:ret <- [DW_OP_plus_uconst 8, DW_OP_deref] [$sp+0]
	.loc	7 571 10 is_stmt 1              @ ../ThirdParty/FreeRTOS/Source/CMSIS_RTOS/cmsis_os.c:571:10
	ldr	r0, [sp, #12]
.Ltmp98:
	.loc	7 571 10 is_stmt 0              @ ../ThirdParty/FreeRTOS/Source/CMSIS_RTOS/cmsis_os.c:571:10
	cbnz	r0, .LBB18_12
	b	.LBB18_11
.Ltmp99:
.LBB18_11:
	@DEBUG_VALUE: osSignalWait:ret <- [DW_OP_plus_uconst 8, DW_OP_deref] [$sp+0]
	.loc	7 0 10                          @ ../ThirdParty/FreeRTOS/Source/CMSIS_RTOS/cmsis_os.c:0:10
	ldr	r1, [sp, #8]                    @ 4-byte Reload
	movs	r0, #0
.Ltmp100:
	.loc	7 571 34                        @ ../ThirdParty/FreeRTOS/Source/CMSIS_RTOS/cmsis_os.c:571:34
	str	r0, [r1]
	.loc	7 571 23                        @ ../ThirdParty/FreeRTOS/Source/CMSIS_RTOS/cmsis_os.c:571:23
	b	.LBB18_13
.Ltmp101:
.LBB18_12:
	@DEBUG_VALUE: osSignalWait:ret <- [DW_OP_plus_uconst 8, DW_OP_deref] [$sp+0]
	.loc	7 0 23                          @ ../ThirdParty/FreeRTOS/Source/CMSIS_RTOS/cmsis_os.c:0:23
	ldr	r1, [sp, #8]                    @ 4-byte Reload
	movs	r0, #64
	.loc	7 572 24 is_stmt 1              @ ../ThirdParty/FreeRTOS/Source/CMSIS_RTOS/cmsis_os.c:572:24
	str	r0, [r1]
	b	.LBB18_13
.Ltmp102:
.LBB18_13:
	@DEBUG_VALUE: osSignalWait:ret <- [DW_OP_plus_uconst 8, DW_OP_deref] [$sp+0]
	.loc	7 573 5                         @ ../ThirdParty/FreeRTOS/Source/CMSIS_RTOS/cmsis_os.c:573:5
	b	.LBB18_18
.Ltmp103:
.LBB18_14:
	@DEBUG_VALUE: osSignalWait:ret <- [DW_OP_plus_uconst 8, DW_OP_deref] [$sp+0]
	.loc	7 574 23                        @ ../ThirdParty/FreeRTOS/Source/CMSIS_RTOS/cmsis_os.c:574:23
	ldr	r0, [sp, #8]                    @ 4-byte Reload
	ldr	r0, [r0, #4]
.Ltmp104:
	.loc	7 574 13 is_stmt 0              @ ../ThirdParty/FreeRTOS/Source/CMSIS_RTOS/cmsis_os.c:574:13
	cmp.w	r0, #-1
	bgt	.LBB18_16
	b	.LBB18_15
.Ltmp105:
.LBB18_15:
	@DEBUG_VALUE: osSignalWait:ret <- [DW_OP_plus_uconst 8, DW_OP_deref] [$sp+0]
	.loc	7 0 13                          @ ../ThirdParty/FreeRTOS/Source/CMSIS_RTOS/cmsis_os.c:0:13
	ldr	r1, [sp, #8]                    @ 4-byte Reload
	movs	r0, #134
.Ltmp106:
	.loc	7 576 18 is_stmt 1              @ ../ThirdParty/FreeRTOS/Source/CMSIS_RTOS/cmsis_os.c:576:18
	str	r0, [r1]
	.loc	7 577 5                         @ ../ThirdParty/FreeRTOS/Source/CMSIS_RTOS/cmsis_os.c:577:5
	b	.LBB18_17
.Ltmp107:
.LBB18_16:
	@DEBUG_VALUE: osSignalWait:ret <- [DW_OP_plus_uconst 8, DW_OP_deref] [$sp+0]
	.loc	7 0 5 is_stmt 0                 @ ../ThirdParty/FreeRTOS/Source/CMSIS_RTOS/cmsis_os.c:0:5
	ldr	r1, [sp, #8]                    @ 4-byte Reload
	movs	r0, #8
	.loc	7 578 22 is_stmt 1              @ ../ThirdParty/FreeRTOS/Source/CMSIS_RTOS/cmsis_os.c:578:22
	str	r0, [r1]
	b	.LBB18_17
.Ltmp108:
.LBB18_17:
	@DEBUG_VALUE: osSignalWait:ret <- [DW_OP_plus_uconst 8, DW_OP_deref] [$sp+0]
	.loc	7 0 22 is_stmt 0                @ ../ThirdParty/FreeRTOS/Source/CMSIS_RTOS/cmsis_os.c:0:22
	b	.LBB18_18
.Ltmp109:
.LBB18_18:
	@DEBUG_VALUE: osSignalWait:ret <- [DW_OP_plus_uconst 8, DW_OP_deref] [$sp+0]
	b	.LBB18_19
.Ltmp110:
.LBB18_19:
	@DEBUG_VALUE: osSignalWait:ret <- [DW_OP_plus_uconst 8, DW_OP_deref] [$sp+0]
	.loc	7 587 3 epilogue_begin is_stmt 1 @ ../ThirdParty/FreeRTOS/Source/CMSIS_RTOS/cmsis_os.c:587:3
	add	sp, #24
	pop	{r7, pc}
.Ltmp111:
.Lfunc_end18:
	.size	osSignalWait, .Lfunc_end18-osSignalWait
	.cfi_endproc
	.cantunwind
	.fnend
                                        @ -- End function
	.section	.text.osMutexCreate,"ax",%progbits
	.hidden	osMutexCreate                   @ -- Begin function osMutexCreate
	.globl	osMutexCreate
	.p2align	2
	.type	osMutexCreate,%function
	.code	16                              @ @osMutexCreate
	.thumb_func
osMutexCreate:
.Lfunc_begin19:
	.loc	7 598 0                         @ ../ThirdParty/FreeRTOS/Source/CMSIS_RTOS/cmsis_os.c:598:0
	.fnstart
	.cfi_startproc
@ %bb.0:
	.save	{r7, lr}
	push	{r7, lr}
	.cfi_def_cfa_offset 8
	.cfi_offset lr, -4
	.cfi_offset r7, -8
	.pad	#8
	sub	sp, #8
	.cfi_def_cfa_offset 16
	str	r0, [sp, #4]
	movs	r0, #1
.Ltmp112:
	.loc	7 612 12 prologue_end           @ ../ThirdParty/FreeRTOS/Source/CMSIS_RTOS/cmsis_os.c:612:12
	bl	xQueueCreateMutex
	.loc	7 612 5 epilogue_begin is_stmt 0 @ ../ThirdParty/FreeRTOS/Source/CMSIS_RTOS/cmsis_os.c:612:5
	add	sp, #8
	pop	{r7, pc}
.Ltmp113:
.Lfunc_end19:
	.size	osMutexCreate, .Lfunc_end19-osMutexCreate
	.cfi_endproc
	.cantunwind
	.fnend
                                        @ -- End function
	.section	.text.osMutexWait,"ax",%progbits
	.hidden	osMutexWait                     @ -- Begin function osMutexWait
	.globl	osMutexWait
	.p2align	2
	.type	osMutexWait,%function
	.code	16                              @ @osMutexWait
	.thumb_func
osMutexWait:
.Lfunc_begin20:
	.loc	7 627 0 is_stmt 1               @ ../ThirdParty/FreeRTOS/Source/CMSIS_RTOS/cmsis_os.c:627:0
	.fnstart
	.cfi_startproc
@ %bb.0:
	.save	{r7, lr}
	push	{r7, lr}
	.cfi_def_cfa_offset 8
	.cfi_offset lr, -4
	.cfi_offset r7, -8
	.pad	#24
	sub	sp, #24
	.cfi_def_cfa_offset 32
	str	r0, [sp, #16]
	str	r1, [sp, #12]
	movs	r0, #0
.Ltmp114:
	.loc	7 629 17 prologue_end           @ ../ThirdParty/FreeRTOS/Source/CMSIS_RTOS/cmsis_os.c:629:17
	str	r0, [sp, #4]
.Ltmp115:
	.loc	7 632 7                         @ ../ThirdParty/FreeRTOS/Source/CMSIS_RTOS/cmsis_os.c:632:7
	ldr	r0, [sp, #16]
.Ltmp116:
	.loc	7 632 7 is_stmt 0               @ ../ThirdParty/FreeRTOS/Source/CMSIS_RTOS/cmsis_os.c:632:7
	cbnz	r0, .LBB20_2
	b	.LBB20_1
.LBB20_1:
	.loc	7 0 7                           @ ../ThirdParty/FreeRTOS/Source/CMSIS_RTOS/cmsis_os.c:0:7
	movs	r0, #128
.Ltmp117:
	.loc	7 633 5 is_stmt 1               @ ../ThirdParty/FreeRTOS/Source/CMSIS_RTOS/cmsis_os.c:633:5
	str	r0, [sp, #20]
	b	.LBB20_19
.Ltmp118:
.LBB20_2:
	.loc	7 0 5 is_stmt 0                 @ ../ThirdParty/FreeRTOS/Source/CMSIS_RTOS/cmsis_os.c:0:5
	movs	r0, #0
	.loc	7 636 9 is_stmt 1               @ ../ThirdParty/FreeRTOS/Source/CMSIS_RTOS/cmsis_os.c:636:9
	str	r0, [sp, #8]
.Ltmp119:
	.loc	7 637 7                         @ ../ThirdParty/FreeRTOS/Source/CMSIS_RTOS/cmsis_os.c:637:7
	ldr	r0, [sp, #12]
.Ltmp120:
	.loc	7 637 7 is_stmt 0               @ ../ThirdParty/FreeRTOS/Source/CMSIS_RTOS/cmsis_os.c:637:7
	adds	r0, #1
	cbnz	r0, .LBB20_4
	b	.LBB20_3
.LBB20_3:
	.loc	7 0 7                           @ ../ThirdParty/FreeRTOS/Source/CMSIS_RTOS/cmsis_os.c:0:7
	mov.w	r0, #-1
.Ltmp121:
	.loc	7 638 11 is_stmt 1              @ ../ThirdParty/FreeRTOS/Source/CMSIS_RTOS/cmsis_os.c:638:11
	str	r0, [sp, #8]
	.loc	7 639 3                         @ ../ThirdParty/FreeRTOS/Source/CMSIS_RTOS/cmsis_os.c:639:3
	b	.LBB20_9
.Ltmp122:
.LBB20_4:
	.loc	7 640 12                        @ ../ThirdParty/FreeRTOS/Source/CMSIS_RTOS/cmsis_os.c:640:12
	ldr	r0, [sp, #12]
.Ltmp123:
	.loc	7 640 12 is_stmt 0              @ ../ThirdParty/FreeRTOS/Source/CMSIS_RTOS/cmsis_os.c:640:12
	cbz	r0, .LBB20_8
	b	.LBB20_5
.LBB20_5:
.Ltmp124:
	.loc	7 641 13 is_stmt 1              @ ../ThirdParty/FreeRTOS/Source/CMSIS_RTOS/cmsis_os.c:641:13
	ldr	r0, [sp, #12]
	.loc	7 641 11 is_stmt 0              @ ../ThirdParty/FreeRTOS/Source/CMSIS_RTOS/cmsis_os.c:641:11
	str	r0, [sp, #8]
.Ltmp125:
	.loc	7 642 9 is_stmt 1               @ ../ThirdParty/FreeRTOS/Source/CMSIS_RTOS/cmsis_os.c:642:9
	ldr	r0, [sp, #8]
.Ltmp126:
	.loc	7 642 9 is_stmt 0               @ ../ThirdParty/FreeRTOS/Source/CMSIS_RTOS/cmsis_os.c:642:9
	cbnz	r0, .LBB20_7
	b	.LBB20_6
.LBB20_6:
	.loc	7 0 9                           @ ../ThirdParty/FreeRTOS/Source/CMSIS_RTOS/cmsis_os.c:0:9
	movs	r0, #1
.Ltmp127:
	.loc	7 643 13 is_stmt 1              @ ../ThirdParty/FreeRTOS/Source/CMSIS_RTOS/cmsis_os.c:643:13
	str	r0, [sp, #8]
	.loc	7 644 5                         @ ../ThirdParty/FreeRTOS/Source/CMSIS_RTOS/cmsis_os.c:644:5
	b	.LBB20_7
.Ltmp128:
.LBB20_7:
	.loc	7 645 3                         @ ../ThirdParty/FreeRTOS/Source/CMSIS_RTOS/cmsis_os.c:645:3
	b	.LBB20_8
.Ltmp129:
.LBB20_8:
	.loc	7 0 3 is_stmt 0                 @ ../ThirdParty/FreeRTOS/Source/CMSIS_RTOS/cmsis_os.c:0:3
	b	.LBB20_9
.LBB20_9:
.Ltmp130:
	.loc	7 647 7 is_stmt 1               @ ../ThirdParty/FreeRTOS/Source/CMSIS_RTOS/cmsis_os.c:647:7
	bl	inHandlerMode
.Ltmp131:
	.loc	7 647 7 is_stmt 0               @ ../ThirdParty/FreeRTOS/Source/CMSIS_RTOS/cmsis_os.c:647:7
	cbz	r0, .LBB20_15
	b	.LBB20_10
.LBB20_10:
.Ltmp132:
	.loc	7 648 9 is_stmt 1               @ ../ThirdParty/FreeRTOS/Source/CMSIS_RTOS/cmsis_os.c:648:9
	ldr	r0, [sp, #16]
	movs	r1, #0
	add	r2, sp, #4
	bl	xQueueReceiveFromISR
.Ltmp133:
	.loc	7 648 9 is_stmt 0               @ ../ThirdParty/FreeRTOS/Source/CMSIS_RTOS/cmsis_os.c:648:9
	cmp	r0, #1
	beq	.LBB20_12
	b	.LBB20_11
.LBB20_11:
	.loc	7 0 9                           @ ../ThirdParty/FreeRTOS/Source/CMSIS_RTOS/cmsis_os.c:0:9
	movs	r0, #255
.Ltmp134:
	.loc	7 649 7 is_stmt 1               @ ../ThirdParty/FreeRTOS/Source/CMSIS_RTOS/cmsis_os.c:649:7
	str	r0, [sp, #20]
	b	.LBB20_19
.Ltmp135:
.LBB20_12:
	.loc	7 651 2                         @ ../ThirdParty/FreeRTOS/Source/CMSIS_RTOS/cmsis_os.c:651:2
	ldr	r0, [sp, #4]
.Ltmp136:
	.loc	7 651 2 is_stmt 0               @ ../ThirdParty/FreeRTOS/Source/CMSIS_RTOS/cmsis_os.c:651:2
	cbz	r0, .LBB20_14
	b	.LBB20_13
.LBB20_13:
	.loc	7 0 2                           @ ../ThirdParty/FreeRTOS/Source/CMSIS_RTOS/cmsis_os.c:0:2
	movw	r1, #60676
	movt	r1, #57344
	mov.w	r0, #268435456
.Ltmp137:
	.loc	7 651 2                         @ ../ThirdParty/FreeRTOS/Source/CMSIS_RTOS/cmsis_os.c:651:2
	str	r0, [r1]
	@APP
	dsb	sy
	@NO_APP
	@APP
	isb	sy
	@NO_APP
	b	.LBB20_14
.Ltmp138:
.LBB20_14:
	.loc	7 652 3 is_stmt 1               @ ../ThirdParty/FreeRTOS/Source/CMSIS_RTOS/cmsis_os.c:652:3
	b	.LBB20_18
.Ltmp139:
.LBB20_15:
	.loc	7 653 12                        @ ../ThirdParty/FreeRTOS/Source/CMSIS_RTOS/cmsis_os.c:653:12
	ldr	r0, [sp, #16]
	ldr	r1, [sp, #8]
	bl	xQueueSemaphoreTake
.Ltmp140:
	.loc	7 653 12 is_stmt 0              @ ../ThirdParty/FreeRTOS/Source/CMSIS_RTOS/cmsis_os.c:653:12
	cmp	r0, #1
	beq	.LBB20_17
	b	.LBB20_16
.LBB20_16:
	.loc	7 0 12                          @ ../ThirdParty/FreeRTOS/Source/CMSIS_RTOS/cmsis_os.c:0:12
	movs	r0, #255
.Ltmp141:
	.loc	7 654 5 is_stmt 1               @ ../ThirdParty/FreeRTOS/Source/CMSIS_RTOS/cmsis_os.c:654:5
	str	r0, [sp, #20]
	b	.LBB20_19
.Ltmp142:
.LBB20_17:
	.loc	7 0 5 is_stmt 0                 @ ../ThirdParty/FreeRTOS/Source/CMSIS_RTOS/cmsis_os.c:0:5
	b	.LBB20_18
.LBB20_18:
	movs	r0, #0
	.loc	7 657 3 is_stmt 1               @ ../ThirdParty/FreeRTOS/Source/CMSIS_RTOS/cmsis_os.c:657:3
	str	r0, [sp, #20]
	b	.LBB20_19
.LBB20_19:
	.loc	7 658 1                         @ ../ThirdParty/FreeRTOS/Source/CMSIS_RTOS/cmsis_os.c:658:1
	ldr	r0, [sp, #20]
	.loc	7 658 1 epilogue_begin is_stmt 0 @ ../ThirdParty/FreeRTOS/Source/CMSIS_RTOS/cmsis_os.c:658:1
	add	sp, #24
	pop	{r7, pc}
.Ltmp143:
.Lfunc_end20:
	.size	osMutexWait, .Lfunc_end20-osMutexWait
	.cfi_endproc
	.cantunwind
	.fnend
                                        @ -- End function
	.section	.text.osMutexRelease,"ax",%progbits
	.hidden	osMutexRelease                  @ -- Begin function osMutexRelease
	.globl	osMutexRelease
	.p2align	2
	.type	osMutexRelease,%function
	.code	16                              @ @osMutexRelease
	.thumb_func
osMutexRelease:
.Lfunc_begin21:
	.loc	7 667 0 is_stmt 1               @ ../ThirdParty/FreeRTOS/Source/CMSIS_RTOS/cmsis_os.c:667:0
	.fnstart
	.cfi_startproc
@ %bb.0:
	.save	{r7, lr}
	push	{r7, lr}
	.cfi_def_cfa_offset 8
	.cfi_offset lr, -4
	.cfi_offset r7, -8
	.pad	#16
	sub	sp, #16
	.cfi_def_cfa_offset 24
	str	r0, [sp, #8]
	movs	r0, #0
.Ltmp144:
	.loc	7 668 12 prologue_end           @ ../ThirdParty/FreeRTOS/Source/CMSIS_RTOS/cmsis_os.c:668:12
	str	r0, [sp, #4]
	.loc	7 669 17                        @ ../ThirdParty/FreeRTOS/Source/CMSIS_RTOS/cmsis_os.c:669:17
	str	r0, [sp]
.Ltmp145:
	.loc	7 671 7                         @ ../ThirdParty/FreeRTOS/Source/CMSIS_RTOS/cmsis_os.c:671:7
	bl	inHandlerMode
.Ltmp146:
	.loc	7 671 7 is_stmt 0               @ ../ThirdParty/FreeRTOS/Source/CMSIS_RTOS/cmsis_os.c:671:7
	cbz	r0, .LBB21_6
	b	.LBB21_1
.LBB21_1:
.Ltmp147:
	.loc	7 672 9 is_stmt 1               @ ../ThirdParty/FreeRTOS/Source/CMSIS_RTOS/cmsis_os.c:672:9
	ldr	r0, [sp, #8]
	mov	r1, sp
	bl	xQueueGiveFromISR
.Ltmp148:
	.loc	7 672 9 is_stmt 0               @ ../ThirdParty/FreeRTOS/Source/CMSIS_RTOS/cmsis_os.c:672:9
	cmp	r0, #1
	beq	.LBB21_3
	b	.LBB21_2
.LBB21_2:
	.loc	7 0 9                           @ ../ThirdParty/FreeRTOS/Source/CMSIS_RTOS/cmsis_os.c:0:9
	movs	r0, #255
.Ltmp149:
	.loc	7 673 7 is_stmt 1               @ ../ThirdParty/FreeRTOS/Source/CMSIS_RTOS/cmsis_os.c:673:7
	str	r0, [sp, #12]
	b	.LBB21_10
.Ltmp150:
.LBB21_3:
	.loc	7 675 5                         @ ../ThirdParty/FreeRTOS/Source/CMSIS_RTOS/cmsis_os.c:675:5
	ldr	r0, [sp]
.Ltmp151:
	.loc	7 675 5 is_stmt 0               @ ../ThirdParty/FreeRTOS/Source/CMSIS_RTOS/cmsis_os.c:675:5
	cbz	r0, .LBB21_5
	b	.LBB21_4
.LBB21_4:
	.loc	7 0 5                           @ ../ThirdParty/FreeRTOS/Source/CMSIS_RTOS/cmsis_os.c:0:5
	movw	r1, #60676
	movt	r1, #57344
	mov.w	r0, #268435456
.Ltmp152:
	.loc	7 675 5                         @ ../ThirdParty/FreeRTOS/Source/CMSIS_RTOS/cmsis_os.c:675:5
	str	r0, [r1]
	@APP
	dsb	sy
	@NO_APP
	@APP
	isb	sy
	@NO_APP
	b	.LBB21_5
.Ltmp153:
.LBB21_5:
	.loc	7 676 3 is_stmt 1               @ ../ThirdParty/FreeRTOS/Source/CMSIS_RTOS/cmsis_os.c:676:3
	b	.LBB21_9
.Ltmp154:
.LBB21_6:
	.loc	7 677 12                        @ ../ThirdParty/FreeRTOS/Source/CMSIS_RTOS/cmsis_os.c:677:12
	ldr	r0, [sp, #8]
	movs	r3, #0
	mov	r1, r3
	mov	r2, r3
	bl	xQueueGenericSend
.Ltmp155:
	.loc	7 677 12 is_stmt 0              @ ../ThirdParty/FreeRTOS/Source/CMSIS_RTOS/cmsis_os.c:677:12
	cmp	r0, #1
	beq	.LBB21_8
	b	.LBB21_7
.LBB21_7:
	.loc	7 0 12                          @ ../ThirdParty/FreeRTOS/Source/CMSIS_RTOS/cmsis_os.c:0:12
	movs	r0, #255
.Ltmp156:
	.loc	7 679 12 is_stmt 1              @ ../ThirdParty/FreeRTOS/Source/CMSIS_RTOS/cmsis_os.c:679:12
	str	r0, [sp, #4]
	.loc	7 680 3                         @ ../ThirdParty/FreeRTOS/Source/CMSIS_RTOS/cmsis_os.c:680:3
	b	.LBB21_8
.Ltmp157:
.LBB21_8:
	.loc	7 0 3 is_stmt 0                 @ ../ThirdParty/FreeRTOS/Source/CMSIS_RTOS/cmsis_os.c:0:3
	b	.LBB21_9
.LBB21_9:
	.loc	7 681 10 is_stmt 1              @ ../ThirdParty/FreeRTOS/Source/CMSIS_RTOS/cmsis_os.c:681:10
	ldr	r0, [sp, #4]
	.loc	7 681 3 is_stmt 0               @ ../ThirdParty/FreeRTOS/Source/CMSIS_RTOS/cmsis_os.c:681:3
	str	r0, [sp, #12]
	b	.LBB21_10
.LBB21_10:
	.loc	7 682 1 is_stmt 1               @ ../ThirdParty/FreeRTOS/Source/CMSIS_RTOS/cmsis_os.c:682:1
	ldr	r0, [sp, #12]
	.loc	7 682 1 epilogue_begin is_stmt 0 @ ../ThirdParty/FreeRTOS/Source/CMSIS_RTOS/cmsis_os.c:682:1
	add	sp, #16
	pop	{r7, pc}
.Ltmp158:
.Lfunc_end21:
	.size	osMutexRelease, .Lfunc_end21-osMutexRelease
	.cfi_endproc
	.cantunwind
	.fnend
                                        @ -- End function
	.section	.text.osMutexDelete,"ax",%progbits
	.hidden	osMutexDelete                   @ -- Begin function osMutexDelete
	.globl	osMutexDelete
	.p2align	2
	.type	osMutexDelete,%function
	.code	16                              @ @osMutexDelete
	.thumb_func
osMutexDelete:
.Lfunc_begin22:
	.loc	7 691 0 is_stmt 1               @ ../ThirdParty/FreeRTOS/Source/CMSIS_RTOS/cmsis_os.c:691:0
	.fnstart
	.cfi_startproc
@ %bb.0:
	.save	{r7, lr}
	push	{r7, lr}
	.cfi_def_cfa_offset 8
	.cfi_offset lr, -4
	.cfi_offset r7, -8
	.pad	#8
	sub	sp, #8
	.cfi_def_cfa_offset 16
	str	r0, [sp]
.Ltmp159:
	.loc	7 692 7 prologue_end            @ ../ThirdParty/FreeRTOS/Source/CMSIS_RTOS/cmsis_os.c:692:7
	bl	inHandlerMode
.Ltmp160:
	.loc	7 692 7 is_stmt 0               @ ../ThirdParty/FreeRTOS/Source/CMSIS_RTOS/cmsis_os.c:692:7
	cbz	r0, .LBB22_2
	b	.LBB22_1
.LBB22_1:
	.loc	7 0 7                           @ ../ThirdParty/FreeRTOS/Source/CMSIS_RTOS/cmsis_os.c:0:7
	movs	r0, #130
.Ltmp161:
	.loc	7 693 5 is_stmt 1               @ ../ThirdParty/FreeRTOS/Source/CMSIS_RTOS/cmsis_os.c:693:5
	str	r0, [sp, #4]
	b	.LBB22_3
.Ltmp162:
.LBB22_2:
	.loc	7 696 16                        @ ../ThirdParty/FreeRTOS/Source/CMSIS_RTOS/cmsis_os.c:696:16
	ldr	r0, [sp]
	.loc	7 696 3 is_stmt 0               @ ../ThirdParty/FreeRTOS/Source/CMSIS_RTOS/cmsis_os.c:696:3
	bl	vQueueDelete
	movs	r0, #0
	.loc	7 698 3 is_stmt 1               @ ../ThirdParty/FreeRTOS/Source/CMSIS_RTOS/cmsis_os.c:698:3
	str	r0, [sp, #4]
	b	.LBB22_3
.LBB22_3:
	.loc	7 699 1                         @ ../ThirdParty/FreeRTOS/Source/CMSIS_RTOS/cmsis_os.c:699:1
	ldr	r0, [sp, #4]
	.loc	7 699 1 epilogue_begin is_stmt 0 @ ../ThirdParty/FreeRTOS/Source/CMSIS_RTOS/cmsis_os.c:699:1
	add	sp, #8
	pop	{r7, pc}
.Ltmp163:
.Lfunc_end22:
	.size	osMutexDelete, .Lfunc_end22-osMutexDelete
	.cfi_endproc
	.cantunwind
	.fnend
                                        @ -- End function
	.section	.text.osSemaphoreCreate,"ax",%progbits
	.hidden	osSemaphoreCreate               @ -- Begin function osSemaphoreCreate
	.globl	osSemaphoreCreate
	.p2align	2
	.type	osSemaphoreCreate,%function
	.code	16                              @ @osSemaphoreCreate
	.thumb_func
osSemaphoreCreate:
.Lfunc_begin23:
	.loc	7 713 0 is_stmt 1               @ ../ThirdParty/FreeRTOS/Source/CMSIS_RTOS/cmsis_os.c:713:0
	.fnstart
	.cfi_startproc
@ %bb.0:
	.save	{r7, lr}
	push	{r7, lr}
	.cfi_def_cfa_offset 8
	.cfi_offset lr, -4
	.cfi_offset r7, -8
	.pad	#16
	sub	sp, #16
	.cfi_def_cfa_offset 24
	str	r0, [sp, #8]
	str	r1, [sp, #4]
.Ltmp164:
	.loc	7 758 7 prologue_end            @ ../ThirdParty/FreeRTOS/Source/CMSIS_RTOS/cmsis_os.c:758:7
	ldr	r0, [sp, #4]
.Ltmp165:
	.loc	7 758 7 is_stmt 0               @ ../ThirdParty/FreeRTOS/Source/CMSIS_RTOS/cmsis_os.c:758:7
	cmp	r0, #1
	bne	.LBB23_4
	b	.LBB23_1
.LBB23_1:
	.loc	7 0 7                           @ ../ThirdParty/FreeRTOS/Source/CMSIS_RTOS/cmsis_os.c:0:7
	movs	r0, #1
	movs	r1, #0
	movs	r2, #3
.Ltmp166:
	.loc	7 759 5 is_stmt 1               @ ../ThirdParty/FreeRTOS/Source/CMSIS_RTOS/cmsis_os.c:759:5
	bl	xQueueGenericCreate
	str	r0, [sp]
.Ltmp167:
	.loc	7 759 5 is_stmt 0               @ ../ThirdParty/FreeRTOS/Source/CMSIS_RTOS/cmsis_os.c:759:5
	ldr	r0, [sp]
.Ltmp168:
	.loc	7 759 5                         @ ../ThirdParty/FreeRTOS/Source/CMSIS_RTOS/cmsis_os.c:759:5
	cbz	r0, .LBB23_3
	b	.LBB23_2
.LBB23_2:
.Ltmp169:
	.loc	7 759 5                         @ ../ThirdParty/FreeRTOS/Source/CMSIS_RTOS/cmsis_os.c:759:5
	ldr	r0, [sp]
	movs	r3, #0
	mov	r1, r3
	mov	r2, r3
	bl	xQueueGenericSend
	b	.LBB23_3
.Ltmp170:
.LBB23_3:
	.loc	7 760 12 is_stmt 1              @ ../ThirdParty/FreeRTOS/Source/CMSIS_RTOS/cmsis_os.c:760:12
	ldr	r0, [sp]
	.loc	7 760 5 is_stmt 0               @ ../ThirdParty/FreeRTOS/Source/CMSIS_RTOS/cmsis_os.c:760:5
	str	r0, [sp, #12]
	b	.LBB23_5
.Ltmp171:
.LBB23_4:
	.loc	7 0 5                           @ ../ThirdParty/FreeRTOS/Source/CMSIS_RTOS/cmsis_os.c:0:5
	movs	r0, #0
.Ltmp172:
	.loc	7 766 5 is_stmt 1               @ ../ThirdParty/FreeRTOS/Source/CMSIS_RTOS/cmsis_os.c:766:5
	str	r0, [sp, #12]
	b	.LBB23_5
.Ltmp173:
.LBB23_5:
	.loc	7 770 1                         @ ../ThirdParty/FreeRTOS/Source/CMSIS_RTOS/cmsis_os.c:770:1
	ldr	r0, [sp, #12]
	.loc	7 770 1 epilogue_begin is_stmt 0 @ ../ThirdParty/FreeRTOS/Source/CMSIS_RTOS/cmsis_os.c:770:1
	add	sp, #16
	pop	{r7, pc}
.Ltmp174:
.Lfunc_end23:
	.size	osSemaphoreCreate, .Lfunc_end23-osSemaphoreCreate
	.cfi_endproc
	.cantunwind
	.fnend
                                        @ -- End function
	.section	.text.osSemaphoreWait,"ax",%progbits
	.hidden	osSemaphoreWait                 @ -- Begin function osSemaphoreWait
	.globl	osSemaphoreWait
	.p2align	2
	.type	osSemaphoreWait,%function
	.code	16                              @ @osSemaphoreWait
	.thumb_func
osSemaphoreWait:
.Lfunc_begin24:
	.loc	7 780 0 is_stmt 1               @ ../ThirdParty/FreeRTOS/Source/CMSIS_RTOS/cmsis_os.c:780:0
	.fnstart
	.cfi_startproc
@ %bb.0:
	.save	{r7, lr}
	push	{r7, lr}
	.cfi_def_cfa_offset 8
	.cfi_offset lr, -4
	.cfi_offset r7, -8
	.pad	#24
	sub	sp, #24
	.cfi_def_cfa_offset 32
	str	r0, [sp, #16]
	str	r1, [sp, #12]
	movs	r0, #0
.Ltmp175:
	.loc	7 782 17 prologue_end           @ ../ThirdParty/FreeRTOS/Source/CMSIS_RTOS/cmsis_os.c:782:17
	str	r0, [sp, #4]
.Ltmp176:
	.loc	7 785 7                         @ ../ThirdParty/FreeRTOS/Source/CMSIS_RTOS/cmsis_os.c:785:7
	ldr	r0, [sp, #16]
.Ltmp177:
	.loc	7 785 7 is_stmt 0               @ ../ThirdParty/FreeRTOS/Source/CMSIS_RTOS/cmsis_os.c:785:7
	cbnz	r0, .LBB24_2
	b	.LBB24_1
.LBB24_1:
	.loc	7 0 7                           @ ../ThirdParty/FreeRTOS/Source/CMSIS_RTOS/cmsis_os.c:0:7
	movs	r0, #128
.Ltmp178:
	.loc	7 786 5 is_stmt 1               @ ../ThirdParty/FreeRTOS/Source/CMSIS_RTOS/cmsis_os.c:786:5
	str	r0, [sp, #20]
	b	.LBB24_19
.Ltmp179:
.LBB24_2:
	.loc	7 0 5 is_stmt 0                 @ ../ThirdParty/FreeRTOS/Source/CMSIS_RTOS/cmsis_os.c:0:5
	movs	r0, #0
	.loc	7 789 9 is_stmt 1               @ ../ThirdParty/FreeRTOS/Source/CMSIS_RTOS/cmsis_os.c:789:9
	str	r0, [sp, #8]
.Ltmp180:
	.loc	7 790 7                         @ ../ThirdParty/FreeRTOS/Source/CMSIS_RTOS/cmsis_os.c:790:7
	ldr	r0, [sp, #12]
.Ltmp181:
	.loc	7 790 7 is_stmt 0               @ ../ThirdParty/FreeRTOS/Source/CMSIS_RTOS/cmsis_os.c:790:7
	adds	r0, #1
	cbnz	r0, .LBB24_4
	b	.LBB24_3
.LBB24_3:
	.loc	7 0 7                           @ ../ThirdParty/FreeRTOS/Source/CMSIS_RTOS/cmsis_os.c:0:7
	mov.w	r0, #-1
.Ltmp182:
	.loc	7 791 11 is_stmt 1              @ ../ThirdParty/FreeRTOS/Source/CMSIS_RTOS/cmsis_os.c:791:11
	str	r0, [sp, #8]
	.loc	7 792 3                         @ ../ThirdParty/FreeRTOS/Source/CMSIS_RTOS/cmsis_os.c:792:3
	b	.LBB24_9
.Ltmp183:
.LBB24_4:
	.loc	7 793 12                        @ ../ThirdParty/FreeRTOS/Source/CMSIS_RTOS/cmsis_os.c:793:12
	ldr	r0, [sp, #12]
.Ltmp184:
	.loc	7 793 12 is_stmt 0              @ ../ThirdParty/FreeRTOS/Source/CMSIS_RTOS/cmsis_os.c:793:12
	cbz	r0, .LBB24_8
	b	.LBB24_5
.LBB24_5:
.Ltmp185:
	.loc	7 794 13 is_stmt 1              @ ../ThirdParty/FreeRTOS/Source/CMSIS_RTOS/cmsis_os.c:794:13
	ldr	r0, [sp, #12]
	.loc	7 794 11 is_stmt 0              @ ../ThirdParty/FreeRTOS/Source/CMSIS_RTOS/cmsis_os.c:794:11
	str	r0, [sp, #8]
.Ltmp186:
	.loc	7 795 9 is_stmt 1               @ ../ThirdParty/FreeRTOS/Source/CMSIS_RTOS/cmsis_os.c:795:9
	ldr	r0, [sp, #8]
.Ltmp187:
	.loc	7 795 9 is_stmt 0               @ ../ThirdParty/FreeRTOS/Source/CMSIS_RTOS/cmsis_os.c:795:9
	cbnz	r0, .LBB24_7
	b	.LBB24_6
.LBB24_6:
	.loc	7 0 9                           @ ../ThirdParty/FreeRTOS/Source/CMSIS_RTOS/cmsis_os.c:0:9
	movs	r0, #1
.Ltmp188:
	.loc	7 796 13 is_stmt 1              @ ../ThirdParty/FreeRTOS/Source/CMSIS_RTOS/cmsis_os.c:796:13
	str	r0, [sp, #8]
	.loc	7 797 5                         @ ../ThirdParty/FreeRTOS/Source/CMSIS_RTOS/cmsis_os.c:797:5
	b	.LBB24_7
.Ltmp189:
.LBB24_7:
	.loc	7 798 3                         @ ../ThirdParty/FreeRTOS/Source/CMSIS_RTOS/cmsis_os.c:798:3
	b	.LBB24_8
.Ltmp190:
.LBB24_8:
	.loc	7 0 3 is_stmt 0                 @ ../ThirdParty/FreeRTOS/Source/CMSIS_RTOS/cmsis_os.c:0:3
	b	.LBB24_9
.LBB24_9:
.Ltmp191:
	.loc	7 800 7 is_stmt 1               @ ../ThirdParty/FreeRTOS/Source/CMSIS_RTOS/cmsis_os.c:800:7
	bl	inHandlerMode
.Ltmp192:
	.loc	7 800 7 is_stmt 0               @ ../ThirdParty/FreeRTOS/Source/CMSIS_RTOS/cmsis_os.c:800:7
	cbz	r0, .LBB24_15
	b	.LBB24_10
.LBB24_10:
.Ltmp193:
	.loc	7 801 9 is_stmt 1               @ ../ThirdParty/FreeRTOS/Source/CMSIS_RTOS/cmsis_os.c:801:9
	ldr	r0, [sp, #16]
	movs	r1, #0
	add	r2, sp, #4
	bl	xQueueReceiveFromISR
.Ltmp194:
	.loc	7 801 9 is_stmt 0               @ ../ThirdParty/FreeRTOS/Source/CMSIS_RTOS/cmsis_os.c:801:9
	cmp	r0, #1
	beq	.LBB24_12
	b	.LBB24_11
.LBB24_11:
	.loc	7 0 9                           @ ../ThirdParty/FreeRTOS/Source/CMSIS_RTOS/cmsis_os.c:0:9
	movs	r0, #255
.Ltmp195:
	.loc	7 802 7 is_stmt 1               @ ../ThirdParty/FreeRTOS/Source/CMSIS_RTOS/cmsis_os.c:802:7
	str	r0, [sp, #20]
	b	.LBB24_19
.Ltmp196:
.LBB24_12:
	.loc	7 804 2                         @ ../ThirdParty/FreeRTOS/Source/CMSIS_RTOS/cmsis_os.c:804:2
	ldr	r0, [sp, #4]
.Ltmp197:
	.loc	7 804 2 is_stmt 0               @ ../ThirdParty/FreeRTOS/Source/CMSIS_RTOS/cmsis_os.c:804:2
	cbz	r0, .LBB24_14
	b	.LBB24_13
.LBB24_13:
	.loc	7 0 2                           @ ../ThirdParty/FreeRTOS/Source/CMSIS_RTOS/cmsis_os.c:0:2
	movw	r1, #60676
	movt	r1, #57344
	mov.w	r0, #268435456
.Ltmp198:
	.loc	7 804 2                         @ ../ThirdParty/FreeRTOS/Source/CMSIS_RTOS/cmsis_os.c:804:2
	str	r0, [r1]
	@APP
	dsb	sy
	@NO_APP
	@APP
	isb	sy
	@NO_APP
	b	.LBB24_14
.Ltmp199:
.LBB24_14:
	.loc	7 805 3 is_stmt 1               @ ../ThirdParty/FreeRTOS/Source/CMSIS_RTOS/cmsis_os.c:805:3
	b	.LBB24_18
.Ltmp200:
.LBB24_15:
	.loc	7 806 12                        @ ../ThirdParty/FreeRTOS/Source/CMSIS_RTOS/cmsis_os.c:806:12
	ldr	r0, [sp, #16]
	ldr	r1, [sp, #8]
	bl	xQueueSemaphoreTake
.Ltmp201:
	.loc	7 806 12 is_stmt 0              @ ../ThirdParty/FreeRTOS/Source/CMSIS_RTOS/cmsis_os.c:806:12
	cmp	r0, #1
	beq	.LBB24_17
	b	.LBB24_16
.LBB24_16:
	.loc	7 0 12                          @ ../ThirdParty/FreeRTOS/Source/CMSIS_RTOS/cmsis_os.c:0:12
	movs	r0, #255
.Ltmp202:
	.loc	7 807 5 is_stmt 1               @ ../ThirdParty/FreeRTOS/Source/CMSIS_RTOS/cmsis_os.c:807:5
	str	r0, [sp, #20]
	b	.LBB24_19
.Ltmp203:
.LBB24_17:
	.loc	7 0 5 is_stmt 0                 @ ../ThirdParty/FreeRTOS/Source/CMSIS_RTOS/cmsis_os.c:0:5
	b	.LBB24_18
.LBB24_18:
	movs	r0, #0
	.loc	7 810 3 is_stmt 1               @ ../ThirdParty/FreeRTOS/Source/CMSIS_RTOS/cmsis_os.c:810:3
	str	r0, [sp, #20]
	b	.LBB24_19
.LBB24_19:
	.loc	7 811 1                         @ ../ThirdParty/FreeRTOS/Source/CMSIS_RTOS/cmsis_os.c:811:1
	ldr	r0, [sp, #20]
	.loc	7 811 1 epilogue_begin is_stmt 0 @ ../ThirdParty/FreeRTOS/Source/CMSIS_RTOS/cmsis_os.c:811:1
	add	sp, #24
	pop	{r7, pc}
.Ltmp204:
.Lfunc_end24:
	.size	osSemaphoreWait, .Lfunc_end24-osSemaphoreWait
	.cfi_endproc
	.cantunwind
	.fnend
                                        @ -- End function
	.section	.text.osSemaphoreRelease,"ax",%progbits
	.hidden	osSemaphoreRelease              @ -- Begin function osSemaphoreRelease
	.globl	osSemaphoreRelease
	.p2align	2
	.type	osSemaphoreRelease,%function
	.code	16                              @ @osSemaphoreRelease
	.thumb_func
osSemaphoreRelease:
.Lfunc_begin25:
	.loc	7 820 0 is_stmt 1               @ ../ThirdParty/FreeRTOS/Source/CMSIS_RTOS/cmsis_os.c:820:0
	.fnstart
	.cfi_startproc
@ %bb.0:
	.save	{r7, lr}
	push	{r7, lr}
	.cfi_def_cfa_offset 8
	.cfi_offset lr, -4
	.cfi_offset r7, -8
	.pad	#16
	sub	sp, #16
	.cfi_def_cfa_offset 24
	str	r0, [sp, #8]
	movs	r0, #0
.Ltmp205:
	.loc	7 821 12 prologue_end           @ ../ThirdParty/FreeRTOS/Source/CMSIS_RTOS/cmsis_os.c:821:12
	str	r0, [sp, #4]
	.loc	7 822 17                        @ ../ThirdParty/FreeRTOS/Source/CMSIS_RTOS/cmsis_os.c:822:17
	str	r0, [sp]
.Ltmp206:
	.loc	7 825 7                         @ ../ThirdParty/FreeRTOS/Source/CMSIS_RTOS/cmsis_os.c:825:7
	bl	inHandlerMode
.Ltmp207:
	.loc	7 825 7 is_stmt 0               @ ../ThirdParty/FreeRTOS/Source/CMSIS_RTOS/cmsis_os.c:825:7
	cbz	r0, .LBB25_6
	b	.LBB25_1
.LBB25_1:
.Ltmp208:
	.loc	7 826 9 is_stmt 1               @ ../ThirdParty/FreeRTOS/Source/CMSIS_RTOS/cmsis_os.c:826:9
	ldr	r0, [sp, #8]
	mov	r1, sp
	bl	xQueueGiveFromISR
.Ltmp209:
	.loc	7 826 9 is_stmt 0               @ ../ThirdParty/FreeRTOS/Source/CMSIS_RTOS/cmsis_os.c:826:9
	cmp	r0, #1
	beq	.LBB25_3
	b	.LBB25_2
.LBB25_2:
	.loc	7 0 9                           @ ../ThirdParty/FreeRTOS/Source/CMSIS_RTOS/cmsis_os.c:0:9
	movs	r0, #255
.Ltmp210:
	.loc	7 827 7 is_stmt 1               @ ../ThirdParty/FreeRTOS/Source/CMSIS_RTOS/cmsis_os.c:827:7
	str	r0, [sp, #12]
	b	.LBB25_10
.Ltmp211:
.LBB25_3:
	.loc	7 829 5                         @ ../ThirdParty/FreeRTOS/Source/CMSIS_RTOS/cmsis_os.c:829:5
	ldr	r0, [sp]
.Ltmp212:
	.loc	7 829 5 is_stmt 0               @ ../ThirdParty/FreeRTOS/Source/CMSIS_RTOS/cmsis_os.c:829:5
	cbz	r0, .LBB25_5
	b	.LBB25_4
.LBB25_4:
	.loc	7 0 5                           @ ../ThirdParty/FreeRTOS/Source/CMSIS_RTOS/cmsis_os.c:0:5
	movw	r1, #60676
	movt	r1, #57344
	mov.w	r0, #268435456
.Ltmp213:
	.loc	7 829 5                         @ ../ThirdParty/FreeRTOS/Source/CMSIS_RTOS/cmsis_os.c:829:5
	str	r0, [r1]
	@APP
	dsb	sy
	@NO_APP
	@APP
	isb	sy
	@NO_APP
	b	.LBB25_5
.Ltmp214:
.LBB25_5:
	.loc	7 830 3 is_stmt 1               @ ../ThirdParty/FreeRTOS/Source/CMSIS_RTOS/cmsis_os.c:830:3
	b	.LBB25_9
.Ltmp215:
.LBB25_6:
	.loc	7 832 9                         @ ../ThirdParty/FreeRTOS/Source/CMSIS_RTOS/cmsis_os.c:832:9
	ldr	r0, [sp, #8]
	movs	r3, #0
	mov	r1, r3
	mov	r2, r3
	bl	xQueueGenericSend
.Ltmp216:
	.loc	7 832 9 is_stmt 0               @ ../ThirdParty/FreeRTOS/Source/CMSIS_RTOS/cmsis_os.c:832:9
	cmp	r0, #1
	beq	.LBB25_8
	b	.LBB25_7
.LBB25_7:
	.loc	7 0 9                           @ ../ThirdParty/FreeRTOS/Source/CMSIS_RTOS/cmsis_os.c:0:9
	movs	r0, #255
.Ltmp217:
	.loc	7 833 14 is_stmt 1              @ ../ThirdParty/FreeRTOS/Source/CMSIS_RTOS/cmsis_os.c:833:14
	str	r0, [sp, #4]
	.loc	7 834 5                         @ ../ThirdParty/FreeRTOS/Source/CMSIS_RTOS/cmsis_os.c:834:5
	b	.LBB25_8
.Ltmp218:
.LBB25_8:
	.loc	7 0 5 is_stmt 0                 @ ../ThirdParty/FreeRTOS/Source/CMSIS_RTOS/cmsis_os.c:0:5
	b	.LBB25_9
.LBB25_9:
	.loc	7 837 10 is_stmt 1              @ ../ThirdParty/FreeRTOS/Source/CMSIS_RTOS/cmsis_os.c:837:10
	ldr	r0, [sp, #4]
	.loc	7 837 3 is_stmt 0               @ ../ThirdParty/FreeRTOS/Source/CMSIS_RTOS/cmsis_os.c:837:3
	str	r0, [sp, #12]
	b	.LBB25_10
.LBB25_10:
	.loc	7 838 1 is_stmt 1               @ ../ThirdParty/FreeRTOS/Source/CMSIS_RTOS/cmsis_os.c:838:1
	ldr	r0, [sp, #12]
	.loc	7 838 1 epilogue_begin is_stmt 0 @ ../ThirdParty/FreeRTOS/Source/CMSIS_RTOS/cmsis_os.c:838:1
	add	sp, #16
	pop	{r7, pc}
.Ltmp219:
.Lfunc_end25:
	.size	osSemaphoreRelease, .Lfunc_end25-osSemaphoreRelease
	.cfi_endproc
	.cantunwind
	.fnend
                                        @ -- End function
	.section	.text.osSemaphoreDelete,"ax",%progbits
	.hidden	osSemaphoreDelete               @ -- Begin function osSemaphoreDelete
	.globl	osSemaphoreDelete
	.p2align	2
	.type	osSemaphoreDelete,%function
	.code	16                              @ @osSemaphoreDelete
	.thumb_func
osSemaphoreDelete:
.Lfunc_begin26:
	.loc	7 847 0 is_stmt 1               @ ../ThirdParty/FreeRTOS/Source/CMSIS_RTOS/cmsis_os.c:847:0
	.fnstart
	.cfi_startproc
@ %bb.0:
	.save	{r7, lr}
	push	{r7, lr}
	.cfi_def_cfa_offset 8
	.cfi_offset lr, -4
	.cfi_offset r7, -8
	.pad	#8
	sub	sp, #8
	.cfi_def_cfa_offset 16
	str	r0, [sp]
.Ltmp220:
	.loc	7 848 7 prologue_end            @ ../ThirdParty/FreeRTOS/Source/CMSIS_RTOS/cmsis_os.c:848:7
	bl	inHandlerMode
.Ltmp221:
	.loc	7 848 7 is_stmt 0               @ ../ThirdParty/FreeRTOS/Source/CMSIS_RTOS/cmsis_os.c:848:7
	cbz	r0, .LBB26_2
	b	.LBB26_1
.LBB26_1:
	.loc	7 0 7                           @ ../ThirdParty/FreeRTOS/Source/CMSIS_RTOS/cmsis_os.c:0:7
	movs	r0, #130
.Ltmp222:
	.loc	7 849 5 is_stmt 1               @ ../ThirdParty/FreeRTOS/Source/CMSIS_RTOS/cmsis_os.c:849:5
	str	r0, [sp, #4]
	b	.LBB26_3
.Ltmp223:
.LBB26_2:
	.loc	7 852 3                         @ ../ThirdParty/FreeRTOS/Source/CMSIS_RTOS/cmsis_os.c:852:3
	ldr	r0, [sp]
	bl	vQueueDelete
	movs	r0, #0
	.loc	7 854 3                         @ ../ThirdParty/FreeRTOS/Source/CMSIS_RTOS/cmsis_os.c:854:3
	str	r0, [sp, #4]
	b	.LBB26_3
.LBB26_3:
	.loc	7 855 1                         @ ../ThirdParty/FreeRTOS/Source/CMSIS_RTOS/cmsis_os.c:855:1
	ldr	r0, [sp, #4]
	.loc	7 855 1 epilogue_begin is_stmt 0 @ ../ThirdParty/FreeRTOS/Source/CMSIS_RTOS/cmsis_os.c:855:1
	add	sp, #8
	pop	{r7, pc}
.Ltmp224:
.Lfunc_end26:
	.size	osSemaphoreDelete, .Lfunc_end26-osSemaphoreDelete
	.cfi_endproc
	.cantunwind
	.fnend
                                        @ -- End function
	.section	.text.osPoolCreate,"ax",%progbits
	.hidden	osPoolCreate                    @ -- Begin function osPoolCreate
	.globl	osPoolCreate
	.p2align	2
	.type	osPoolCreate,%function
	.code	16                              @ @osPoolCreate
	.thumb_func
osPoolCreate:
.Lfunc_begin27:
	.loc	7 884 0 is_stmt 1               @ ../ThirdParty/FreeRTOS/Source/CMSIS_RTOS/cmsis_os.c:884:0
	.fnstart
	.cfi_startproc
@ %bb.0:
	.save	{r7, lr}
	push	{r7, lr}
	.cfi_def_cfa_offset 8
	.cfi_offset lr, -4
	.cfi_offset r7, -8
	.pad	#16
	sub	sp, #16
	.cfi_def_cfa_offset 24
	str	r0, [sp, #12]
.Ltmp225:
	.loc	7 887 24 prologue_end           @ ../ThirdParty/FreeRTOS/Source/CMSIS_RTOS/cmsis_os.c:887:24
	ldr	r0, [sp, #12]
	.loc	7 887 34 is_stmt 0              @ ../ThirdParty/FreeRTOS/Source/CMSIS_RTOS/cmsis_os.c:887:34
	ldr	r0, [r0, #4]
	.loc	7 887 42                        @ ../ThirdParty/FreeRTOS/Source/CMSIS_RTOS/cmsis_os.c:887:42
	adds	r0, #3
	.loc	7 887 20                        @ ../ThirdParty/FreeRTOS/Source/CMSIS_RTOS/cmsis_os.c:887:20
	bic	r0, r0, #3
	.loc	7 887 7                         @ ../ThirdParty/FreeRTOS/Source/CMSIS_RTOS/cmsis_os.c:887:7
	str	r0, [sp, #4]
	movs	r0, #20
	.loc	7 891 12 is_stmt 1              @ ../ThirdParty/FreeRTOS/Source/CMSIS_RTOS/cmsis_os.c:891:12
	bl	pvPortMalloc
	.loc	7 891 10 is_stmt 0              @ ../ThirdParty/FreeRTOS/Source/CMSIS_RTOS/cmsis_os.c:891:10
	str	r0, [sp, #8]
.Ltmp226:
	.loc	7 894 7 is_stmt 1               @ ../ThirdParty/FreeRTOS/Source/CMSIS_RTOS/cmsis_os.c:894:7
	ldr	r0, [sp, #8]
.Ltmp227:
	.loc	7 894 7 is_stmt 0               @ ../ThirdParty/FreeRTOS/Source/CMSIS_RTOS/cmsis_os.c:894:7
	cmp	r0, #0
	beq	.LBB27_12
	b	.LBB27_1
.LBB27_1:
.Ltmp228:
	.loc	7 895 24 is_stmt 1              @ ../ThirdParty/FreeRTOS/Source/CMSIS_RTOS/cmsis_os.c:895:24
	ldr	r0, [sp, #12]
	.loc	7 895 34 is_stmt 0              @ ../ThirdParty/FreeRTOS/Source/CMSIS_RTOS/cmsis_os.c:895:34
	ldr	r0, [r0]
	.loc	7 895 5                         @ ../ThirdParty/FreeRTOS/Source/CMSIS_RTOS/cmsis_os.c:895:5
	ldr	r1, [sp, #8]
	.loc	7 895 22                        @ ../ThirdParty/FreeRTOS/Source/CMSIS_RTOS/cmsis_os.c:895:22
	str	r0, [r1, #8]
	.loc	7 896 24 is_stmt 1              @ ../ThirdParty/FreeRTOS/Source/CMSIS_RTOS/cmsis_os.c:896:24
	ldr	r0, [sp, #4]
	.loc	7 896 5 is_stmt 0               @ ../ThirdParty/FreeRTOS/Source/CMSIS_RTOS/cmsis_os.c:896:5
	ldr	r1, [sp, #8]
	.loc	7 896 22                        @ ../ThirdParty/FreeRTOS/Source/CMSIS_RTOS/cmsis_os.c:896:22
	str	r0, [r1, #12]
	.loc	7 897 5 is_stmt 1               @ ../ThirdParty/FreeRTOS/Source/CMSIS_RTOS/cmsis_os.c:897:5
	ldr	r1, [sp, #8]
	movs	r0, #0
	.loc	7 897 27 is_stmt 0              @ ../ThirdParty/FreeRTOS/Source/CMSIS_RTOS/cmsis_os.c:897:27
	str	r0, [r1, #16]
	.loc	7 900 37 is_stmt 1              @ ../ThirdParty/FreeRTOS/Source/CMSIS_RTOS/cmsis_os.c:900:37
	ldr	r0, [sp, #12]
	.loc	7 900 47 is_stmt 0              @ ../ThirdParty/FreeRTOS/Source/CMSIS_RTOS/cmsis_os.c:900:47
	ldr	r0, [r0]
	.loc	7 900 24                        @ ../ThirdParty/FreeRTOS/Source/CMSIS_RTOS/cmsis_os.c:900:24
	bl	pvPortMalloc
	.loc	7 900 5                         @ ../ThirdParty/FreeRTOS/Source/CMSIS_RTOS/cmsis_os.c:900:5
	ldr	r1, [sp, #8]
	.loc	7 900 22                        @ ../ThirdParty/FreeRTOS/Source/CMSIS_RTOS/cmsis_os.c:900:22
	str	r0, [r1, #4]
.Ltmp229:
	.loc	7 902 9 is_stmt 1               @ ../ThirdParty/FreeRTOS/Source/CMSIS_RTOS/cmsis_os.c:902:9
	ldr	r0, [sp, #8]
	.loc	7 902 18 is_stmt 0              @ ../ThirdParty/FreeRTOS/Source/CMSIS_RTOS/cmsis_os.c:902:18
	ldr	r0, [r0, #4]
.Ltmp230:
	.loc	7 902 9                         @ ../ThirdParty/FreeRTOS/Source/CMSIS_RTOS/cmsis_os.c:902:9
	cbz	r0, .LBB27_10
	b	.LBB27_2
.LBB27_2:
.Ltmp231:
	.loc	7 904 35 is_stmt 1              @ ../ThirdParty/FreeRTOS/Source/CMSIS_RTOS/cmsis_os.c:904:35
	ldr	r0, [sp, #12]
	.loc	7 904 45 is_stmt 0              @ ../ThirdParty/FreeRTOS/Source/CMSIS_RTOS/cmsis_os.c:904:45
	ldr	r0, [r0]
	.loc	7 904 55                        @ ../ThirdParty/FreeRTOS/Source/CMSIS_RTOS/cmsis_os.c:904:55
	ldr	r1, [sp, #4]
	.loc	7 904 53                        @ ../ThirdParty/FreeRTOS/Source/CMSIS_RTOS/cmsis_os.c:904:53
	muls	r0, r1, r0
	.loc	7 904 22                        @ ../ThirdParty/FreeRTOS/Source/CMSIS_RTOS/cmsis_os.c:904:22
	bl	pvPortMalloc
	.loc	7 904 6                         @ ../ThirdParty/FreeRTOS/Source/CMSIS_RTOS/cmsis_os.c:904:6
	ldr	r1, [sp, #8]
	.loc	7 904 20                        @ ../ThirdParty/FreeRTOS/Source/CMSIS_RTOS/cmsis_os.c:904:20
	str	r0, [r1]
.Ltmp232:
	.loc	7 906 11 is_stmt 1              @ ../ThirdParty/FreeRTOS/Source/CMSIS_RTOS/cmsis_os.c:906:11
	ldr	r0, [sp, #8]
	.loc	7 906 20 is_stmt 0              @ ../ThirdParty/FreeRTOS/Source/CMSIS_RTOS/cmsis_os.c:906:20
	ldr	r0, [r0]
.Ltmp233:
	.loc	7 906 11                        @ ../ThirdParty/FreeRTOS/Source/CMSIS_RTOS/cmsis_os.c:906:11
	cbz	r0, .LBB27_8
	b	.LBB27_3
.LBB27_3:
	.loc	7 0 11                          @ ../ThirdParty/FreeRTOS/Source/CMSIS_RTOS/cmsis_os.c:0:11
	movs	r0, #0
.Ltmp234:
	.loc	7 907 16 is_stmt 1              @ ../ThirdParty/FreeRTOS/Source/CMSIS_RTOS/cmsis_os.c:907:16
	str	r0, [sp]
	.loc	7 907 14 is_stmt 0              @ ../ThirdParty/FreeRTOS/Source/CMSIS_RTOS/cmsis_os.c:907:14
	b	.LBB27_4
.LBB27_4:                               @ =>This Inner Loop Header: Depth=1
.Ltmp235:
	.loc	7 907 21                        @ ../ThirdParty/FreeRTOS/Source/CMSIS_RTOS/cmsis_os.c:907:21
	ldr	r0, [sp]
	.loc	7 907 25                        @ ../ThirdParty/FreeRTOS/Source/CMSIS_RTOS/cmsis_os.c:907:25
	ldr	r1, [sp, #12]
	.loc	7 907 35                        @ ../ThirdParty/FreeRTOS/Source/CMSIS_RTOS/cmsis_os.c:907:35
	ldr	r1, [r1]
.Ltmp236:
	.loc	7 907 9                         @ ../ThirdParty/FreeRTOS/Source/CMSIS_RTOS/cmsis_os.c:907:9
	cmp	r0, r1
	bhs	.LBB27_7
	b	.LBB27_5
.LBB27_5:                               @   in Loop: Header=BB27_4 Depth=1
.Ltmp237:
	.loc	7 908 11 is_stmt 1              @ ../ThirdParty/FreeRTOS/Source/CMSIS_RTOS/cmsis_os.c:908:11
	ldr	r0, [sp, #8]
	.loc	7 908 20 is_stmt 0              @ ../ThirdParty/FreeRTOS/Source/CMSIS_RTOS/cmsis_os.c:908:20
	ldr	r1, [r0, #4]
	.loc	7 908 28                        @ ../ThirdParty/FreeRTOS/Source/CMSIS_RTOS/cmsis_os.c:908:28
	ldr	r2, [sp]
	movs	r0, #0
	.loc	7 908 31                        @ ../ThirdParty/FreeRTOS/Source/CMSIS_RTOS/cmsis_os.c:908:31
	strb	r0, [r1, r2]
	.loc	7 909 9 is_stmt 1               @ ../ThirdParty/FreeRTOS/Source/CMSIS_RTOS/cmsis_os.c:909:9
	b	.LBB27_6
.Ltmp238:
.LBB27_6:                               @   in Loop: Header=BB27_4 Depth=1
	.loc	7 907 45                        @ ../ThirdParty/FreeRTOS/Source/CMSIS_RTOS/cmsis_os.c:907:45
	ldr	r0, [sp]
	adds	r0, #1
	str	r0, [sp]
	.loc	7 907 9 is_stmt 0               @ ../ThirdParty/FreeRTOS/Source/CMSIS_RTOS/cmsis_os.c:907:9
	b	.LBB27_4
.Ltmp239:
.LBB27_7:
	.loc	7 910 7 is_stmt 1               @ ../ThirdParty/FreeRTOS/Source/CMSIS_RTOS/cmsis_os.c:910:7
	b	.LBB27_9
.Ltmp240:
.LBB27_8:
	.loc	7 912 19                        @ ../ThirdParty/FreeRTOS/Source/CMSIS_RTOS/cmsis_os.c:912:19
	ldr	r0, [sp, #8]
	.loc	7 912 28 is_stmt 0              @ ../ThirdParty/FreeRTOS/Source/CMSIS_RTOS/cmsis_os.c:912:28
	ldr	r0, [r0, #4]
	.loc	7 912 9                         @ ../ThirdParty/FreeRTOS/Source/CMSIS_RTOS/cmsis_os.c:912:9
	bl	vPortFree
	.loc	7 913 19 is_stmt 1              @ ../ThirdParty/FreeRTOS/Source/CMSIS_RTOS/cmsis_os.c:913:19
	ldr	r0, [sp, #8]
	.loc	7 913 9 is_stmt 0               @ ../ThirdParty/FreeRTOS/Source/CMSIS_RTOS/cmsis_os.c:913:9
	bl	vPortFree
	movs	r0, #0
	.loc	7 914 17 is_stmt 1              @ ../ThirdParty/FreeRTOS/Source/CMSIS_RTOS/cmsis_os.c:914:17
	str	r0, [sp, #8]
	b	.LBB27_9
.Ltmp241:
.LBB27_9:
	.loc	7 916 5                         @ ../ThirdParty/FreeRTOS/Source/CMSIS_RTOS/cmsis_os.c:916:5
	b	.LBB27_11
.Ltmp242:
.LBB27_10:
	.loc	7 918 17                        @ ../ThirdParty/FreeRTOS/Source/CMSIS_RTOS/cmsis_os.c:918:17
	ldr	r0, [sp, #8]
	.loc	7 918 7 is_stmt 0               @ ../ThirdParty/FreeRTOS/Source/CMSIS_RTOS/cmsis_os.c:918:7
	bl	vPortFree
	movs	r0, #0
	.loc	7 919 15 is_stmt 1              @ ../ThirdParty/FreeRTOS/Source/CMSIS_RTOS/cmsis_os.c:919:15
	str	r0, [sp, #8]
	b	.LBB27_11
.Ltmp243:
.LBB27_11:
	.loc	7 921 3                         @ ../ThirdParty/FreeRTOS/Source/CMSIS_RTOS/cmsis_os.c:921:3
	b	.LBB27_12
.Ltmp244:
.LBB27_12:
	.loc	7 923 10                        @ ../ThirdParty/FreeRTOS/Source/CMSIS_RTOS/cmsis_os.c:923:10
	ldr	r0, [sp, #8]
	.loc	7 923 3 epilogue_begin is_stmt 0 @ ../ThirdParty/FreeRTOS/Source/CMSIS_RTOS/cmsis_os.c:923:3
	add	sp, #16
	pop	{r7, pc}
.Ltmp245:
.Lfunc_end27:
	.size	osPoolCreate, .Lfunc_end27-osPoolCreate
	.cfi_endproc
	.cantunwind
	.fnend
                                        @ -- End function
	.section	.text.osPoolAlloc,"ax",%progbits
	.hidden	osPoolAlloc                     @ -- Begin function osPoolAlloc
	.globl	osPoolAlloc
	.p2align	2
	.type	osPoolAlloc,%function
	.code	16                              @ @osPoolAlloc
	.thumb_func
osPoolAlloc:
.Lfunc_begin28:
	.loc	7 937 0 is_stmt 1               @ ../ThirdParty/FreeRTOS/Source/CMSIS_RTOS/cmsis_os.c:937:0
	.fnstart
	.cfi_startproc
@ %bb.0:
	.save	{r7, lr}
	push	{r7, lr}
	.cfi_def_cfa_offset 8
	.cfi_offset lr, -4
	.cfi_offset r7, -8
	.pad	#32
	sub	sp, #32
	.cfi_def_cfa_offset 40
	str	r0, [sp, #16]
	movs	r0, #0
.Ltmp246:
	.loc	7 938 7 prologue_end            @ ../ThirdParty/FreeRTOS/Source/CMSIS_RTOS/cmsis_os.c:938:7
	str	r0, [sp, #12]
	.loc	7 939 9                         @ ../ThirdParty/FreeRTOS/Source/CMSIS_RTOS/cmsis_os.c:939:9
	str	r0, [sp, #8]
.Ltmp247:
	.loc	7 943 7                         @ ../ThirdParty/FreeRTOS/Source/CMSIS_RTOS/cmsis_os.c:943:7
	bl	inHandlerMode
.Ltmp248:
	.loc	7 943 7 is_stmt 0               @ ../ThirdParty/FreeRTOS/Source/CMSIS_RTOS/cmsis_os.c:943:7
	cbz	r0, .LBB28_2
	b	.LBB28_1
.LBB28_1:
.Ltmp249:
	.loc	3 215 2 is_stmt 1               @ ../ThirdParty/FreeRTOS/Source/portable/GCC/ARM_CM4F\portmacro.h:215:2
	@APP
	mrs	r1, basepri
	mov.w	r0, #80
	msr	basepri, r0
	isb	sy
	dsb	sy

	@NO_APP
	str	r1, [sp, #24]
	str	r0, [sp, #20]
	.loc	3 227 9                         @ ../ThirdParty/FreeRTOS/Source/portable/GCC/ARM_CM4F\portmacro.h:227:9
	ldr	r0, [sp, #24]
.Ltmp250:
	.loc	7 944 11                        @ ../ThirdParty/FreeRTOS/Source/CMSIS_RTOS/cmsis_os.c:944:11
	str	r0, [sp, #12]
	.loc	7 945 3                         @ ../ThirdParty/FreeRTOS/Source/CMSIS_RTOS/cmsis_os.c:945:3
	b	.LBB28_3
.Ltmp251:
.LBB28_2:
	.loc	7 947 5                         @ ../ThirdParty/FreeRTOS/Source/CMSIS_RTOS/cmsis_os.c:947:5
	bl	vPortEnterCritical
	b	.LBB28_3
.Ltmp252:
.LBB28_3:
	.loc	7 0 5 is_stmt 0                 @ ../ThirdParty/FreeRTOS/Source/CMSIS_RTOS/cmsis_os.c:0:5
	movs	r0, #0
.Ltmp253:
	.loc	7 950 10 is_stmt 1              @ ../ThirdParty/FreeRTOS/Source/CMSIS_RTOS/cmsis_os.c:950:10
	str	r0, [sp, #4]
	.loc	7 950 8 is_stmt 0               @ ../ThirdParty/FreeRTOS/Source/CMSIS_RTOS/cmsis_os.c:950:8
	b	.LBB28_4
.LBB28_4:                               @ =>This Inner Loop Header: Depth=1
.Ltmp254:
	.loc	7 950 15                        @ ../ThirdParty/FreeRTOS/Source/CMSIS_RTOS/cmsis_os.c:950:15
	ldr	r0, [sp, #4]
	.loc	7 950 19                        @ ../ThirdParty/FreeRTOS/Source/CMSIS_RTOS/cmsis_os.c:950:19
	ldr	r1, [sp, #16]
	.loc	7 950 28                        @ ../ThirdParty/FreeRTOS/Source/CMSIS_RTOS/cmsis_os.c:950:28
	ldr	r1, [r1, #8]
.Ltmp255:
	.loc	7 950 3                         @ ../ThirdParty/FreeRTOS/Source/CMSIS_RTOS/cmsis_os.c:950:3
	cmp	r0, r1
	bhs	.LBB28_9
	b	.LBB28_5
.LBB28_5:                               @   in Loop: Header=BB28_4 Depth=1
.Ltmp256:
	.loc	7 951 14 is_stmt 1              @ ../ThirdParty/FreeRTOS/Source/CMSIS_RTOS/cmsis_os.c:951:14
	ldr	r0, [sp, #16]
	.loc	7 951 52 is_stmt 0              @ ../ThirdParty/FreeRTOS/Source/CMSIS_RTOS/cmsis_os.c:951:52
	ldr	r1, [r0, #8]
	.loc	7 951 23                        @ ../ThirdParty/FreeRTOS/Source/CMSIS_RTOS/cmsis_os.c:951:23
	ldr	r0, [r0, #16]
	.loc	7 951 38                        @ ../ThirdParty/FreeRTOS/Source/CMSIS_RTOS/cmsis_os.c:951:38
	ldr	r2, [sp, #4]
	.loc	7 951 36                        @ ../ThirdParty/FreeRTOS/Source/CMSIS_RTOS/cmsis_os.c:951:36
	add	r2, r0
	.loc	7 951 41                        @ ../ThirdParty/FreeRTOS/Source/CMSIS_RTOS/cmsis_os.c:951:41
	udiv	r0, r2, r1
	mls	r0, r0, r1, r2
	.loc	7 951 11                        @ ../ThirdParty/FreeRTOS/Source/CMSIS_RTOS/cmsis_os.c:951:11
	str	r0, [sp]
.Ltmp257:
	.loc	7 953 9 is_stmt 1               @ ../ThirdParty/FreeRTOS/Source/CMSIS_RTOS/cmsis_os.c:953:9
	ldr	r0, [sp, #16]
	.loc	7 953 18 is_stmt 0              @ ../ThirdParty/FreeRTOS/Source/CMSIS_RTOS/cmsis_os.c:953:18
	ldr	r0, [r0, #4]
	.loc	7 953 26                        @ ../ThirdParty/FreeRTOS/Source/CMSIS_RTOS/cmsis_os.c:953:26
	ldr	r1, [sp]
	.loc	7 953 9                         @ ../ThirdParty/FreeRTOS/Source/CMSIS_RTOS/cmsis_os.c:953:9
	ldrb	r0, [r0, r1]
.Ltmp258:
	.loc	7 953 9                         @ ../ThirdParty/FreeRTOS/Source/CMSIS_RTOS/cmsis_os.c:953:9
	cbnz	r0, .LBB28_7
	b	.LBB28_6
.LBB28_6:
.Ltmp259:
	.loc	7 954 7 is_stmt 1               @ ../ThirdParty/FreeRTOS/Source/CMSIS_RTOS/cmsis_os.c:954:7
	ldr	r0, [sp, #16]
	.loc	7 954 16 is_stmt 0              @ ../ThirdParty/FreeRTOS/Source/CMSIS_RTOS/cmsis_os.c:954:16
	ldr	r1, [r0, #4]
	.loc	7 954 24                        @ ../ThirdParty/FreeRTOS/Source/CMSIS_RTOS/cmsis_os.c:954:24
	ldr	r2, [sp]
	movs	r0, #1
	.loc	7 954 31                        @ ../ThirdParty/FreeRTOS/Source/CMSIS_RTOS/cmsis_os.c:954:31
	strb	r0, [r1, r2]
	.loc	7 955 31 is_stmt 1              @ ../ThirdParty/FreeRTOS/Source/CMSIS_RTOS/cmsis_os.c:955:31
	ldr	r1, [sp, #16]
	.loc	7 955 49 is_stmt 0              @ ../ThirdParty/FreeRTOS/Source/CMSIS_RTOS/cmsis_os.c:955:49
	ldr	r0, [sp]
	.loc	7 955 40                        @ ../ThirdParty/FreeRTOS/Source/CMSIS_RTOS/cmsis_os.c:955:40
	ldr	r2, [r1]
	.loc	7 955 66                        @ ../ThirdParty/FreeRTOS/Source/CMSIS_RTOS/cmsis_os.c:955:66
	ldr	r1, [r1, #12]
	.loc	7 955 46                        @ ../ThirdParty/FreeRTOS/Source/CMSIS_RTOS/cmsis_os.c:955:46
	mla	r0, r0, r1, r2
	.loc	7 955 9                         @ ../ThirdParty/FreeRTOS/Source/CMSIS_RTOS/cmsis_os.c:955:9
	str	r0, [sp, #8]
	.loc	7 956 31 is_stmt 1              @ ../ThirdParty/FreeRTOS/Source/CMSIS_RTOS/cmsis_os.c:956:31
	ldr	r0, [sp]
	.loc	7 956 7 is_stmt 0               @ ../ThirdParty/FreeRTOS/Source/CMSIS_RTOS/cmsis_os.c:956:7
	ldr	r1, [sp, #16]
	.loc	7 956 29                        @ ../ThirdParty/FreeRTOS/Source/CMSIS_RTOS/cmsis_os.c:956:29
	str	r0, [r1, #16]
	.loc	7 957 7 is_stmt 1               @ ../ThirdParty/FreeRTOS/Source/CMSIS_RTOS/cmsis_os.c:957:7
	b	.LBB28_9
.Ltmp260:
.LBB28_7:                               @   in Loop: Header=BB28_4 Depth=1
	.loc	7 959 3                         @ ../ThirdParty/FreeRTOS/Source/CMSIS_RTOS/cmsis_os.c:959:3
	b	.LBB28_8
.Ltmp261:
.LBB28_8:                               @   in Loop: Header=BB28_4 Depth=1
	.loc	7 950 38                        @ ../ThirdParty/FreeRTOS/Source/CMSIS_RTOS/cmsis_os.c:950:38
	ldr	r0, [sp, #4]
	adds	r0, #1
	str	r0, [sp, #4]
	.loc	7 950 3 is_stmt 0               @ ../ThirdParty/FreeRTOS/Source/CMSIS_RTOS/cmsis_os.c:950:3
	b	.LBB28_4
.Ltmp262:
.LBB28_9:
	.loc	7 961 7 is_stmt 1               @ ../ThirdParty/FreeRTOS/Source/CMSIS_RTOS/cmsis_os.c:961:7
	bl	inHandlerMode
.Ltmp263:
	.loc	7 961 7 is_stmt 0               @ ../ThirdParty/FreeRTOS/Source/CMSIS_RTOS/cmsis_os.c:961:7
	cbz	r0, .LBB28_11
	b	.LBB28_10
.LBB28_10:
.Ltmp264:
	.loc	7 962 5 is_stmt 1               @ ../ThirdParty/FreeRTOS/Source/CMSIS_RTOS/cmsis_os.c:962:5
	ldr	r0, [sp, #12]
	str	r0, [sp, #28]
.Ltmp265:
	.loc	3 235 32                        @ ../ThirdParty/FreeRTOS/Source/portable/GCC/ARM_CM4F\portmacro.h:235:32
	ldr	r0, [sp, #28]
	.loc	3 233 2                         @ ../ThirdParty/FreeRTOS/Source/portable/GCC/ARM_CM4F\portmacro.h:233:2
	@APP
	msr	basepri, r0
	@NO_APP
.Ltmp266:
	.loc	7 963 3                         @ ../ThirdParty/FreeRTOS/Source/CMSIS_RTOS/cmsis_os.c:963:3
	b	.LBB28_12
.Ltmp267:
.LBB28_11:
	.loc	7 965 5                         @ ../ThirdParty/FreeRTOS/Source/CMSIS_RTOS/cmsis_os.c:965:5
	bl	vPortExitCritical
	b	.LBB28_12
.Ltmp268:
.LBB28_12:
	.loc	7 968 10                        @ ../ThirdParty/FreeRTOS/Source/CMSIS_RTOS/cmsis_os.c:968:10
	ldr	r0, [sp, #8]
	.loc	7 968 3 epilogue_begin is_stmt 0 @ ../ThirdParty/FreeRTOS/Source/CMSIS_RTOS/cmsis_os.c:968:3
	add	sp, #32
	pop	{r7, pc}
.Ltmp269:
.Lfunc_end28:
	.size	osPoolAlloc, .Lfunc_end28-osPoolAlloc
	.cfi_endproc
	.cantunwind
	.fnend
                                        @ -- End function
	.section	.text.osPoolCAlloc,"ax",%progbits
	.hidden	osPoolCAlloc                    @ -- Begin function osPoolCAlloc
	.globl	osPoolCAlloc
	.p2align	2
	.type	osPoolCAlloc,%function
	.code	16                              @ @osPoolCAlloc
	.thumb_func
osPoolCAlloc:
.Lfunc_begin29:
	.loc	7 978 0 is_stmt 1               @ ../ThirdParty/FreeRTOS/Source/CMSIS_RTOS/cmsis_os.c:978:0
	.fnstart
	.cfi_startproc
@ %bb.0:
	.save	{r7, lr}
	push	{r7, lr}
	.cfi_def_cfa_offset 8
	.cfi_offset lr, -4
	.cfi_offset r7, -8
	.pad	#8
	sub	sp, #8
	.cfi_def_cfa_offset 16
	str	r0, [sp, #4]
.Ltmp270:
	.loc	7 979 25 prologue_end           @ ../ThirdParty/FreeRTOS/Source/CMSIS_RTOS/cmsis_os.c:979:25
	ldr	r0, [sp, #4]
	.loc	7 979 13 is_stmt 0              @ ../ThirdParty/FreeRTOS/Source/CMSIS_RTOS/cmsis_os.c:979:13
	bl	osPoolAlloc
	.loc	7 979 9                         @ ../ThirdParty/FreeRTOS/Source/CMSIS_RTOS/cmsis_os.c:979:9
	str	r0, [sp]
.Ltmp271:
	.loc	7 981 7 is_stmt 1               @ ../ThirdParty/FreeRTOS/Source/CMSIS_RTOS/cmsis_os.c:981:7
	ldr	r0, [sp]
.Ltmp272:
	.loc	7 981 7 is_stmt 0               @ ../ThirdParty/FreeRTOS/Source/CMSIS_RTOS/cmsis_os.c:981:7
	cbz	r0, .LBB29_2
	b	.LBB29_1
.LBB29_1:
.Ltmp273:
	.loc	7 983 12 is_stmt 1              @ ../ThirdParty/FreeRTOS/Source/CMSIS_RTOS/cmsis_os.c:983:12
	ldr	r1, [sp]
	movs	r0, #0
	.loc	7 983 5 is_stmt 0               @ ../ThirdParty/FreeRTOS/Source/CMSIS_RTOS/cmsis_os.c:983:5
	str	r0, [r1]
	.loc	7 984 3 is_stmt 1               @ ../ThirdParty/FreeRTOS/Source/CMSIS_RTOS/cmsis_os.c:984:3
	b	.LBB29_2
.Ltmp274:
.LBB29_2:
	.loc	7 986 10                        @ ../ThirdParty/FreeRTOS/Source/CMSIS_RTOS/cmsis_os.c:986:10
	ldr	r0, [sp]
	.loc	7 986 3 epilogue_begin is_stmt 0 @ ../ThirdParty/FreeRTOS/Source/CMSIS_RTOS/cmsis_os.c:986:3
	add	sp, #8
	pop	{r7, pc}
.Ltmp275:
.Lfunc_end29:
	.size	osPoolCAlloc, .Lfunc_end29-osPoolCAlloc
	.cfi_endproc
	.cantunwind
	.fnend
                                        @ -- End function
	.section	.text.osPoolFree,"ax",%progbits
	.hidden	osPoolFree                      @ -- Begin function osPoolFree
	.globl	osPoolFree
	.p2align	2
	.type	osPoolFree,%function
	.code	16                              @ @osPoolFree
	.thumb_func
osPoolFree:
.Lfunc_begin30:
	.loc	7 997 0 is_stmt 1               @ ../ThirdParty/FreeRTOS/Source/CMSIS_RTOS/cmsis_os.c:997:0
	.fnstart
	.cfi_startproc
@ %bb.0:
	.pad	#16
	sub	sp, #16
	.cfi_def_cfa_offset 16
	str	r0, [sp, #8]
	str	r1, [sp, #4]
.Ltmp276:
	.loc	7 1000 7 prologue_end           @ ../ThirdParty/FreeRTOS/Source/CMSIS_RTOS/cmsis_os.c:1000:7
	ldr	r0, [sp, #8]
.Ltmp277:
	.loc	7 1000 7 is_stmt 0              @ ../ThirdParty/FreeRTOS/Source/CMSIS_RTOS/cmsis_os.c:1000:7
	cbnz	r0, .LBB30_2
	b	.LBB30_1
.LBB30_1:
	.loc	7 0 7                           @ ../ThirdParty/FreeRTOS/Source/CMSIS_RTOS/cmsis_os.c:0:7
	movs	r0, #128
.Ltmp278:
	.loc	7 1001 5 is_stmt 1              @ ../ThirdParty/FreeRTOS/Source/CMSIS_RTOS/cmsis_os.c:1001:5
	str	r0, [sp, #12]
	b	.LBB30_11
.Ltmp279:
.LBB30_2:
	.loc	7 1004 7                        @ ../ThirdParty/FreeRTOS/Source/CMSIS_RTOS/cmsis_os.c:1004:7
	ldr	r0, [sp, #4]
.Ltmp280:
	.loc	7 1004 7 is_stmt 0              @ ../ThirdParty/FreeRTOS/Source/CMSIS_RTOS/cmsis_os.c:1004:7
	cbnz	r0, .LBB30_4
	b	.LBB30_3
.LBB30_3:
	.loc	7 0 7                           @ ../ThirdParty/FreeRTOS/Source/CMSIS_RTOS/cmsis_os.c:0:7
	movs	r0, #128
.Ltmp281:
	.loc	7 1005 5 is_stmt 1              @ ../ThirdParty/FreeRTOS/Source/CMSIS_RTOS/cmsis_os.c:1005:5
	str	r0, [sp, #12]
	b	.LBB30_11
.Ltmp282:
.LBB30_4:
	.loc	7 1008 7                        @ ../ThirdParty/FreeRTOS/Source/CMSIS_RTOS/cmsis_os.c:1008:7
	ldr	r0, [sp, #4]
	.loc	7 1008 15 is_stmt 0             @ ../ThirdParty/FreeRTOS/Source/CMSIS_RTOS/cmsis_os.c:1008:15
	ldr	r1, [sp, #8]
	.loc	7 1008 24                       @ ../ThirdParty/FreeRTOS/Source/CMSIS_RTOS/cmsis_os.c:1008:24
	ldr	r1, [r1]
.Ltmp283:
	.loc	7 1008 7                        @ ../ThirdParty/FreeRTOS/Source/CMSIS_RTOS/cmsis_os.c:1008:7
	cmp	r0, r1
	bhs	.LBB30_6
	b	.LBB30_5
.LBB30_5:
	.loc	7 0 7                           @ ../ThirdParty/FreeRTOS/Source/CMSIS_RTOS/cmsis_os.c:0:7
	movs	r0, #128
.Ltmp284:
	.loc	7 1009 5 is_stmt 1              @ ../ThirdParty/FreeRTOS/Source/CMSIS_RTOS/cmsis_os.c:1009:5
	str	r0, [sp, #12]
	b	.LBB30_11
.Ltmp285:
.LBB30_6:
	.loc	7 1012 21                       @ ../ThirdParty/FreeRTOS/Source/CMSIS_RTOS/cmsis_os.c:1012:21
	ldr	r0, [sp, #4]
	.loc	7 1012 40 is_stmt 0             @ ../ThirdParty/FreeRTOS/Source/CMSIS_RTOS/cmsis_os.c:1012:40
	ldr	r1, [sp, #8]
	.loc	7 1012 49                       @ ../ThirdParty/FreeRTOS/Source/CMSIS_RTOS/cmsis_os.c:1012:49
	ldr	r1, [r1]
	.loc	7 1012 27                       @ ../ThirdParty/FreeRTOS/Source/CMSIS_RTOS/cmsis_os.c:1012:27
	subs	r0, r0, r1
	.loc	7 1012 9                        @ ../ThirdParty/FreeRTOS/Source/CMSIS_RTOS/cmsis_os.c:1012:9
	str	r0, [sp]
.Ltmp286:
	.loc	7 1013 7 is_stmt 1              @ ../ThirdParty/FreeRTOS/Source/CMSIS_RTOS/cmsis_os.c:1013:7
	ldr	r2, [sp]
	.loc	7 1013 15 is_stmt 0             @ ../ThirdParty/FreeRTOS/Source/CMSIS_RTOS/cmsis_os.c:1013:15
	ldr	r0, [sp, #8]
	.loc	7 1013 24                       @ ../ThirdParty/FreeRTOS/Source/CMSIS_RTOS/cmsis_os.c:1013:24
	ldr	r1, [r0, #12]
	.loc	7 1013 13                       @ ../ThirdParty/FreeRTOS/Source/CMSIS_RTOS/cmsis_os.c:1013:13
	udiv	r0, r2, r1
	mls	r0, r0, r1, r2
.Ltmp287:
	.loc	7 1013 7                        @ ../ThirdParty/FreeRTOS/Source/CMSIS_RTOS/cmsis_os.c:1013:7
	cbz	r0, .LBB30_8
	b	.LBB30_7
.LBB30_7:
	.loc	7 0 7                           @ ../ThirdParty/FreeRTOS/Source/CMSIS_RTOS/cmsis_os.c:0:7
	movs	r0, #128
.Ltmp288:
	.loc	7 1014 5 is_stmt 1              @ ../ThirdParty/FreeRTOS/Source/CMSIS_RTOS/cmsis_os.c:1014:5
	str	r0, [sp, #12]
	b	.LBB30_11
.Ltmp289:
.LBB30_8:
	.loc	7 1016 11                       @ ../ThirdParty/FreeRTOS/Source/CMSIS_RTOS/cmsis_os.c:1016:11
	ldr	r0, [sp]
	.loc	7 1016 19 is_stmt 0             @ ../ThirdParty/FreeRTOS/Source/CMSIS_RTOS/cmsis_os.c:1016:19
	ldr	r1, [sp, #8]
	.loc	7 1016 28                       @ ../ThirdParty/FreeRTOS/Source/CMSIS_RTOS/cmsis_os.c:1016:28
	ldr	r1, [r1, #12]
	.loc	7 1016 17                       @ ../ThirdParty/FreeRTOS/Source/CMSIS_RTOS/cmsis_os.c:1016:17
	udiv	r0, r0, r1
	.loc	7 1016 9                        @ ../ThirdParty/FreeRTOS/Source/CMSIS_RTOS/cmsis_os.c:1016:9
	str	r0, [sp]
.Ltmp290:
	.loc	7 1017 7 is_stmt 1              @ ../ThirdParty/FreeRTOS/Source/CMSIS_RTOS/cmsis_os.c:1017:7
	ldr	r0, [sp]
	.loc	7 1017 16 is_stmt 0             @ ../ThirdParty/FreeRTOS/Source/CMSIS_RTOS/cmsis_os.c:1017:16
	ldr	r1, [sp, #8]
	.loc	7 1017 25                       @ ../ThirdParty/FreeRTOS/Source/CMSIS_RTOS/cmsis_os.c:1017:25
	ldr	r1, [r1, #8]
.Ltmp291:
	.loc	7 1017 7                        @ ../ThirdParty/FreeRTOS/Source/CMSIS_RTOS/cmsis_os.c:1017:7
	cmp	r0, r1
	blo	.LBB30_10
	b	.LBB30_9
.LBB30_9:
	.loc	7 0 7                           @ ../ThirdParty/FreeRTOS/Source/CMSIS_RTOS/cmsis_os.c:0:7
	movs	r0, #128
.Ltmp292:
	.loc	7 1018 5 is_stmt 1              @ ../ThirdParty/FreeRTOS/Source/CMSIS_RTOS/cmsis_os.c:1018:5
	str	r0, [sp, #12]
	b	.LBB30_11
.Ltmp293:
.LBB30_10:
	.loc	7 1021 3                        @ ../ThirdParty/FreeRTOS/Source/CMSIS_RTOS/cmsis_os.c:1021:3
	ldr	r0, [sp, #8]
	.loc	7 1021 12 is_stmt 0             @ ../ThirdParty/FreeRTOS/Source/CMSIS_RTOS/cmsis_os.c:1021:12
	ldr	r1, [r0, #4]
	.loc	7 1021 20                       @ ../ThirdParty/FreeRTOS/Source/CMSIS_RTOS/cmsis_os.c:1021:20
	ldr	r2, [sp]
	movs	r0, #0
	.loc	7 1021 27                       @ ../ThirdParty/FreeRTOS/Source/CMSIS_RTOS/cmsis_os.c:1021:27
	strb	r0, [r1, r2]
	.loc	7 1023 3 is_stmt 1              @ ../ThirdParty/FreeRTOS/Source/CMSIS_RTOS/cmsis_os.c:1023:3
	str	r0, [sp, #12]
	b	.LBB30_11
.LBB30_11:
	.loc	7 1024 1                        @ ../ThirdParty/FreeRTOS/Source/CMSIS_RTOS/cmsis_os.c:1024:1
	ldr	r0, [sp, #12]
	.loc	7 1024 1 epilogue_begin is_stmt 0 @ ../ThirdParty/FreeRTOS/Source/CMSIS_RTOS/cmsis_os.c:1024:1
	add	sp, #16
	bx	lr
.Ltmp294:
.Lfunc_end30:
	.size	osPoolFree, .Lfunc_end30-osPoolFree
	.cfi_endproc
	.cantunwind
	.fnend
                                        @ -- End function
	.section	.text.osMessageCreate,"ax",%progbits
	.hidden	osMessageCreate                 @ -- Begin function osMessageCreate
	.globl	osMessageCreate
	.p2align	2
	.type	osMessageCreate,%function
	.code	16                              @ @osMessageCreate
	.thumb_func
osMessageCreate:
.Lfunc_begin31:
	.loc	7 1041 0 is_stmt 1              @ ../ThirdParty/FreeRTOS/Source/CMSIS_RTOS/cmsis_os.c:1041:0
	.fnstart
	.cfi_startproc
@ %bb.0:
	.save	{r7, lr}
	push	{r7, lr}
	.cfi_def_cfa_offset 8
	.cfi_offset lr, -4
	.cfi_offset r7, -8
	.pad	#8
	sub	sp, #8
	.cfi_def_cfa_offset 16
	str	r0, [sp, #4]
	str	r1, [sp]
.Ltmp295:
	.loc	7 1055 10 prologue_end          @ ../ThirdParty/FreeRTOS/Source/CMSIS_RTOS/cmsis_os.c:1055:10
	ldr	r1, [sp, #4]
	ldr	r0, [r1]
	ldr	r1, [r1, #4]
	movs	r2, #0
	bl	xQueueGenericCreate
	.loc	7 1055 3 epilogue_begin is_stmt 0 @ ../ThirdParty/FreeRTOS/Source/CMSIS_RTOS/cmsis_os.c:1055:3
	add	sp, #8
	pop	{r7, pc}
.Ltmp296:
.Lfunc_end31:
	.size	osMessageCreate, .Lfunc_end31-osMessageCreate
	.cfi_endproc
	.cantunwind
	.fnend
                                        @ -- End function
	.section	.text.osMessagePut,"ax",%progbits
	.hidden	osMessagePut                    @ -- Begin function osMessagePut
	.globl	osMessagePut
	.p2align	2
	.type	osMessagePut,%function
	.code	16                              @ @osMessagePut
	.thumb_func
osMessagePut:
.Lfunc_begin32:
	.loc	7 1068 0 is_stmt 1              @ ../ThirdParty/FreeRTOS/Source/CMSIS_RTOS/cmsis_os.c:1068:0
	.fnstart
	.cfi_startproc
@ %bb.0:
	.save	{r7, lr}
	push	{r7, lr}
	.cfi_def_cfa_offset 8
	.cfi_offset lr, -4
	.cfi_offset r7, -8
	.pad	#24
	sub	sp, #24
	.cfi_def_cfa_offset 32
	str	r0, [sp, #16]
	str	r1, [sp, #12]
	str	r2, [sp, #8]
	movs	r0, #0
.Ltmp297:
	.loc	7 1069 17 prologue_end          @ ../ThirdParty/FreeRTOS/Source/CMSIS_RTOS/cmsis_os.c:1069:17
	str	r0, [sp, #4]
	.loc	7 1072 11                       @ ../ThirdParty/FreeRTOS/Source/CMSIS_RTOS/cmsis_os.c:1072:11
	ldr	r0, [sp, #8]
	.loc	7 1072 9 is_stmt 0              @ ../ThirdParty/FreeRTOS/Source/CMSIS_RTOS/cmsis_os.c:1072:9
	str	r0, [sp]
.Ltmp298:
	.loc	7 1073 7 is_stmt 1              @ ../ThirdParty/FreeRTOS/Source/CMSIS_RTOS/cmsis_os.c:1073:7
	ldr	r0, [sp]
.Ltmp299:
	.loc	7 1073 7 is_stmt 0              @ ../ThirdParty/FreeRTOS/Source/CMSIS_RTOS/cmsis_os.c:1073:7
	cbnz	r0, .LBB32_2
	b	.LBB32_1
.LBB32_1:
	.loc	7 0 7                           @ ../ThirdParty/FreeRTOS/Source/CMSIS_RTOS/cmsis_os.c:0:7
	movs	r0, #1
.Ltmp300:
	.loc	7 1074 11 is_stmt 1             @ ../ThirdParty/FreeRTOS/Source/CMSIS_RTOS/cmsis_os.c:1074:11
	str	r0, [sp]
	.loc	7 1075 3                        @ ../ThirdParty/FreeRTOS/Source/CMSIS_RTOS/cmsis_os.c:1075:3
	b	.LBB32_2
.Ltmp301:
.LBB32_2:
	.loc	7 1077 7                        @ ../ThirdParty/FreeRTOS/Source/CMSIS_RTOS/cmsis_os.c:1077:7
	bl	inHandlerMode
.Ltmp302:
	.loc	7 1077 7 is_stmt 0              @ ../ThirdParty/FreeRTOS/Source/CMSIS_RTOS/cmsis_os.c:1077:7
	cbz	r0, .LBB32_8
	b	.LBB32_3
.LBB32_3:
.Ltmp303:
	.loc	7 1078 9 is_stmt 1              @ ../ThirdParty/FreeRTOS/Source/CMSIS_RTOS/cmsis_os.c:1078:9
	ldr	r0, [sp, #16]
	add	r1, sp, #12
	add	r2, sp, #4
	movs	r3, #0
	bl	xQueueGenericSendFromISR
.Ltmp304:
	.loc	7 1078 9 is_stmt 0              @ ../ThirdParty/FreeRTOS/Source/CMSIS_RTOS/cmsis_os.c:1078:9
	cmp	r0, #1
	beq	.LBB32_5
	b	.LBB32_4
.LBB32_4:
	.loc	7 0 9                           @ ../ThirdParty/FreeRTOS/Source/CMSIS_RTOS/cmsis_os.c:0:9
	movs	r0, #255
.Ltmp305:
	.loc	7 1079 7 is_stmt 1              @ ../ThirdParty/FreeRTOS/Source/CMSIS_RTOS/cmsis_os.c:1079:7
	str	r0, [sp, #20]
	b	.LBB32_12
.Ltmp306:
.LBB32_5:
	.loc	7 1081 5                        @ ../ThirdParty/FreeRTOS/Source/CMSIS_RTOS/cmsis_os.c:1081:5
	ldr	r0, [sp, #4]
.Ltmp307:
	.loc	7 1081 5 is_stmt 0              @ ../ThirdParty/FreeRTOS/Source/CMSIS_RTOS/cmsis_os.c:1081:5
	cbz	r0, .LBB32_7
	b	.LBB32_6
.LBB32_6:
	.loc	7 0 5                           @ ../ThirdParty/FreeRTOS/Source/CMSIS_RTOS/cmsis_os.c:0:5
	movw	r1, #60676
	movt	r1, #57344
	mov.w	r0, #268435456
.Ltmp308:
	.loc	7 1081 5                        @ ../ThirdParty/FreeRTOS/Source/CMSIS_RTOS/cmsis_os.c:1081:5
	str	r0, [r1]
	@APP
	dsb	sy
	@NO_APP
	@APP
	isb	sy
	@NO_APP
	b	.LBB32_7
.Ltmp309:
.LBB32_7:
	.loc	7 1082 3 is_stmt 1              @ ../ThirdParty/FreeRTOS/Source/CMSIS_RTOS/cmsis_os.c:1082:3
	b	.LBB32_11
.Ltmp310:
.LBB32_8:
	.loc	7 1084 9                        @ ../ThirdParty/FreeRTOS/Source/CMSIS_RTOS/cmsis_os.c:1084:9
	ldr	r0, [sp, #16]
	ldr	r2, [sp]
	add	r1, sp, #12
	movs	r3, #0
	bl	xQueueGenericSend
.Ltmp311:
	.loc	7 1084 9 is_stmt 0              @ ../ThirdParty/FreeRTOS/Source/CMSIS_RTOS/cmsis_os.c:1084:9
	cmp	r0, #1
	beq	.LBB32_10
	b	.LBB32_9
.LBB32_9:
	.loc	7 0 9                           @ ../ThirdParty/FreeRTOS/Source/CMSIS_RTOS/cmsis_os.c:0:9
	movs	r0, #255
.Ltmp312:
	.loc	7 1085 7 is_stmt 1              @ ../ThirdParty/FreeRTOS/Source/CMSIS_RTOS/cmsis_os.c:1085:7
	str	r0, [sp, #20]
	b	.LBB32_12
.Ltmp313:
.LBB32_10:
	.loc	7 0 7 is_stmt 0                 @ ../ThirdParty/FreeRTOS/Source/CMSIS_RTOS/cmsis_os.c:0:7
	b	.LBB32_11
.LBB32_11:
	movs	r0, #0
	.loc	7 1089 3 is_stmt 1              @ ../ThirdParty/FreeRTOS/Source/CMSIS_RTOS/cmsis_os.c:1089:3
	str	r0, [sp, #20]
	b	.LBB32_12
.LBB32_12:
	.loc	7 1090 1                        @ ../ThirdParty/FreeRTOS/Source/CMSIS_RTOS/cmsis_os.c:1090:1
	ldr	r0, [sp, #20]
	.loc	7 1090 1 epilogue_begin is_stmt 0 @ ../ThirdParty/FreeRTOS/Source/CMSIS_RTOS/cmsis_os.c:1090:1
	add	sp, #24
	pop	{r7, pc}
.Ltmp314:
.Lfunc_end32:
	.size	osMessagePut, .Lfunc_end32-osMessagePut
	.cfi_endproc
	.cantunwind
	.fnend
                                        @ -- End function
	.section	.text.osMessageGet,"ax",%progbits
	.hidden	osMessageGet                    @ -- Begin function osMessageGet
	.globl	osMessageGet
	.p2align	2
	.type	osMessageGet,%function
	.code	16                              @ @osMessageGet
	.thumb_func
osMessageGet:
.Lfunc_begin33:
	.loc	7 1100 0 is_stmt 1              @ ../ThirdParty/FreeRTOS/Source/CMSIS_RTOS/cmsis_os.c:1100:0
	.fnstart
	.cfi_startproc
@ %bb.0:
	.save	{r7, lr}
	push	{r7, lr}
	.cfi_def_cfa_offset 8
	.cfi_offset lr, -4
	.cfi_offset r7, -8
	.pad	#24
	sub	sp, #24
	.cfi_def_cfa_offset 32
.Ltmp315:
	@DEBUG_VALUE: osMessageGet:event <- [$r0+0]
	str	r1, [sp]                        @ 4-byte Spill
	mov	r1, r0
.Ltmp316:
	.loc	7 1103 11 prologue_end          @ ../ThirdParty/FreeRTOS/Source/CMSIS_RTOS/cmsis_os.c:1103:11
	ldr	r0, [sp]                        @ 4-byte Reload
.Ltmp317:
	str	r1, [sp, #4]                    @ 4-byte Spill
.Ltmp318:
	@DEBUG_VALUE: osMessageGet:event <- [DW_OP_plus_uconst 4, DW_OP_deref] [$sp+0]
	@DEBUG_VALUE: osMessageGet:event <- [$r1+0]
	.loc	7 0 11 is_stmt 0                @ ../ThirdParty/FreeRTOS/Source/CMSIS_RTOS/cmsis_os.c:0:11
	str	r0, [sp, #20]
	str	r2, [sp, #16]
	.loc	7 1105 26 is_stmt 1             @ ../ThirdParty/FreeRTOS/Source/CMSIS_RTOS/cmsis_os.c:1105:26
	ldr	r0, [sp, #20]
	.loc	7 1105 24 is_stmt 0             @ ../ThirdParty/FreeRTOS/Source/CMSIS_RTOS/cmsis_os.c:1105:24
	str	r0, [r1, #8]
	movs	r0, #0
	.loc	7 1106 17 is_stmt 1             @ ../ThirdParty/FreeRTOS/Source/CMSIS_RTOS/cmsis_os.c:1106:17
	str	r0, [r1, #4]
.Ltmp319:
	.loc	7 1108 7                        @ ../ThirdParty/FreeRTOS/Source/CMSIS_RTOS/cmsis_os.c:1108:7
	ldr	r0, [sp, #20]
.Ltmp320:
	@DEBUG_VALUE: osMessageGet:event <- [DW_OP_plus_uconst 4, DW_OP_deref] [$sp+0]
	.loc	7 1108 7 is_stmt 0              @ ../ThirdParty/FreeRTOS/Source/CMSIS_RTOS/cmsis_os.c:1108:7
	cbnz	r0, .LBB33_2
	b	.LBB33_1
.Ltmp321:
.LBB33_1:
	@DEBUG_VALUE: osMessageGet:event <- [DW_OP_plus_uconst 4, DW_OP_deref] [$sp+0]
	.loc	7 0 7                           @ ../ThirdParty/FreeRTOS/Source/CMSIS_RTOS/cmsis_os.c:0:7
	ldr	r1, [sp, #4]                    @ 4-byte Reload
	movs	r0, #128
.Ltmp322:
	.loc	7 1109 18 is_stmt 1             @ ../ThirdParty/FreeRTOS/Source/CMSIS_RTOS/cmsis_os.c:1109:18
	str	r0, [r1]
	.loc	7 1110 5                        @ ../ThirdParty/FreeRTOS/Source/CMSIS_RTOS/cmsis_os.c:1110:5
	b	.LBB33_21
.Ltmp323:
.LBB33_2:
	@DEBUG_VALUE: osMessageGet:event <- [DW_OP_plus_uconst 4, DW_OP_deref] [$sp+0]
	.loc	7 0 5 is_stmt 0                 @ ../ThirdParty/FreeRTOS/Source/CMSIS_RTOS/cmsis_os.c:0:5
	movs	r0, #0
	.loc	7 1113 13 is_stmt 1             @ ../ThirdParty/FreeRTOS/Source/CMSIS_RTOS/cmsis_os.c:1113:13
	str	r0, [sp, #12]
	.loc	7 1115 9                        @ ../ThirdParty/FreeRTOS/Source/CMSIS_RTOS/cmsis_os.c:1115:9
	str	r0, [sp, #8]
.Ltmp324:
	.loc	7 1116 7                        @ ../ThirdParty/FreeRTOS/Source/CMSIS_RTOS/cmsis_os.c:1116:7
	ldr	r0, [sp, #16]
.Ltmp325:
	.loc	7 1116 7 is_stmt 0              @ ../ThirdParty/FreeRTOS/Source/CMSIS_RTOS/cmsis_os.c:1116:7
	adds	r0, #1
	cbnz	r0, .LBB33_4
	b	.LBB33_3
.Ltmp326:
.LBB33_3:
	@DEBUG_VALUE: osMessageGet:event <- [DW_OP_plus_uconst 4, DW_OP_deref] [$sp+0]
	.loc	7 0 7                           @ ../ThirdParty/FreeRTOS/Source/CMSIS_RTOS/cmsis_os.c:0:7
	mov.w	r0, #-1
.Ltmp327:
	.loc	7 1117 11 is_stmt 1             @ ../ThirdParty/FreeRTOS/Source/CMSIS_RTOS/cmsis_os.c:1117:11
	str	r0, [sp, #8]
	.loc	7 1118 3                        @ ../ThirdParty/FreeRTOS/Source/CMSIS_RTOS/cmsis_os.c:1118:3
	b	.LBB33_9
.Ltmp328:
.LBB33_4:
	@DEBUG_VALUE: osMessageGet:event <- [DW_OP_plus_uconst 4, DW_OP_deref] [$sp+0]
	.loc	7 1119 12                       @ ../ThirdParty/FreeRTOS/Source/CMSIS_RTOS/cmsis_os.c:1119:12
	ldr	r0, [sp, #16]
.Ltmp329:
	.loc	7 1119 12 is_stmt 0             @ ../ThirdParty/FreeRTOS/Source/CMSIS_RTOS/cmsis_os.c:1119:12
	cbz	r0, .LBB33_8
	b	.LBB33_5
.Ltmp330:
.LBB33_5:
	@DEBUG_VALUE: osMessageGet:event <- [DW_OP_plus_uconst 4, DW_OP_deref] [$sp+0]
	.loc	7 1120 13 is_stmt 1             @ ../ThirdParty/FreeRTOS/Source/CMSIS_RTOS/cmsis_os.c:1120:13
	ldr	r0, [sp, #16]
	.loc	7 1120 11 is_stmt 0             @ ../ThirdParty/FreeRTOS/Source/CMSIS_RTOS/cmsis_os.c:1120:11
	str	r0, [sp, #8]
.Ltmp331:
	.loc	7 1121 9 is_stmt 1              @ ../ThirdParty/FreeRTOS/Source/CMSIS_RTOS/cmsis_os.c:1121:9
	ldr	r0, [sp, #8]
.Ltmp332:
	.loc	7 1121 9 is_stmt 0              @ ../ThirdParty/FreeRTOS/Source/CMSIS_RTOS/cmsis_os.c:1121:9
	cbnz	r0, .LBB33_7
	b	.LBB33_6
.Ltmp333:
.LBB33_6:
	@DEBUG_VALUE: osMessageGet:event <- [DW_OP_plus_uconst 4, DW_OP_deref] [$sp+0]
	.loc	7 0 9                           @ ../ThirdParty/FreeRTOS/Source/CMSIS_RTOS/cmsis_os.c:0:9
	movs	r0, #1
.Ltmp334:
	.loc	7 1122 13 is_stmt 1             @ ../ThirdParty/FreeRTOS/Source/CMSIS_RTOS/cmsis_os.c:1122:13
	str	r0, [sp, #8]
	.loc	7 1123 5                        @ ../ThirdParty/FreeRTOS/Source/CMSIS_RTOS/cmsis_os.c:1123:5
	b	.LBB33_7
.Ltmp335:
.LBB33_7:
	@DEBUG_VALUE: osMessageGet:event <- [DW_OP_plus_uconst 4, DW_OP_deref] [$sp+0]
	.loc	7 1124 3                        @ ../ThirdParty/FreeRTOS/Source/CMSIS_RTOS/cmsis_os.c:1124:3
	b	.LBB33_8
.Ltmp336:
.LBB33_8:
	@DEBUG_VALUE: osMessageGet:event <- [DW_OP_plus_uconst 4, DW_OP_deref] [$sp+0]
	.loc	7 0 3 is_stmt 0                 @ ../ThirdParty/FreeRTOS/Source/CMSIS_RTOS/cmsis_os.c:0:3
	b	.LBB33_9
.Ltmp337:
.LBB33_9:
	@DEBUG_VALUE: osMessageGet:event <- [DW_OP_plus_uconst 4, DW_OP_deref] [$sp+0]
	.loc	7 1126 7 is_stmt 1              @ ../ThirdParty/FreeRTOS/Source/CMSIS_RTOS/cmsis_os.c:1126:7
	bl	inHandlerMode
.Ltmp338:
	.loc	7 1126 7 is_stmt 0              @ ../ThirdParty/FreeRTOS/Source/CMSIS_RTOS/cmsis_os.c:1126:7
	cbz	r0, .LBB33_16
	b	.LBB33_10
.Ltmp339:
.LBB33_10:
	@DEBUG_VALUE: osMessageGet:event <- [DW_OP_plus_uconst 4, DW_OP_deref] [$sp+0]
	.loc	7 1127 30 is_stmt 1             @ ../ThirdParty/FreeRTOS/Source/CMSIS_RTOS/cmsis_os.c:1127:30
	ldr	r1, [sp, #4]                    @ 4-byte Reload
	ldr	r0, [sp, #20]
	.loc	7 1127 47 is_stmt 0             @ ../ThirdParty/FreeRTOS/Source/CMSIS_RTOS/cmsis_os.c:1127:47
	adds	r1, #4
	add	r2, sp, #12
	.loc	7 1127 9                        @ ../ThirdParty/FreeRTOS/Source/CMSIS_RTOS/cmsis_os.c:1127:9
	bl	xQueueReceiveFromISR
.Ltmp340:
	.loc	7 1127 9                        @ ../ThirdParty/FreeRTOS/Source/CMSIS_RTOS/cmsis_os.c:1127:9
	cmp	r0, #1
	bne	.LBB33_12
	b	.LBB33_11
.Ltmp341:
.LBB33_11:
	@DEBUG_VALUE: osMessageGet:event <- [DW_OP_plus_uconst 4, DW_OP_deref] [$sp+0]
	.loc	7 0 9                           @ ../ThirdParty/FreeRTOS/Source/CMSIS_RTOS/cmsis_os.c:0:9
	ldr	r1, [sp, #4]                    @ 4-byte Reload
	movs	r0, #16
.Ltmp342:
	.loc	7 1129 20 is_stmt 1             @ ../ThirdParty/FreeRTOS/Source/CMSIS_RTOS/cmsis_os.c:1129:20
	str	r0, [r1]
	.loc	7 1130 5                        @ ../ThirdParty/FreeRTOS/Source/CMSIS_RTOS/cmsis_os.c:1130:5
	b	.LBB33_13
.Ltmp343:
.LBB33_12:
	@DEBUG_VALUE: osMessageGet:event <- [DW_OP_plus_uconst 4, DW_OP_deref] [$sp+0]
	.loc	7 0 5 is_stmt 0                 @ ../ThirdParty/FreeRTOS/Source/CMSIS_RTOS/cmsis_os.c:0:5
	ldr	r1, [sp, #4]                    @ 4-byte Reload
	movs	r0, #0
.Ltmp344:
	.loc	7 1132 20 is_stmt 1             @ ../ThirdParty/FreeRTOS/Source/CMSIS_RTOS/cmsis_os.c:1132:20
	str	r0, [r1]
	b	.LBB33_13
.Ltmp345:
.LBB33_13:
	@DEBUG_VALUE: osMessageGet:event <- [DW_OP_plus_uconst 4, DW_OP_deref] [$sp+0]
	.loc	7 1134 5                        @ ../ThirdParty/FreeRTOS/Source/CMSIS_RTOS/cmsis_os.c:1134:5
	ldr	r0, [sp, #12]
.Ltmp346:
	.loc	7 1134 5 is_stmt 0              @ ../ThirdParty/FreeRTOS/Source/CMSIS_RTOS/cmsis_os.c:1134:5
	cbz	r0, .LBB33_15
	b	.LBB33_14
.Ltmp347:
.LBB33_14:
	@DEBUG_VALUE: osMessageGet:event <- [DW_OP_plus_uconst 4, DW_OP_deref] [$sp+0]
	.loc	7 0 5                           @ ../ThirdParty/FreeRTOS/Source/CMSIS_RTOS/cmsis_os.c:0:5
	movw	r1, #60676
	movt	r1, #57344
	mov.w	r0, #268435456
.Ltmp348:
	.loc	7 1134 5                        @ ../ThirdParty/FreeRTOS/Source/CMSIS_RTOS/cmsis_os.c:1134:5
	str	r0, [r1]
	@APP
	dsb	sy
	@NO_APP
	@APP
	isb	sy
	@NO_APP
	b	.LBB33_15
.Ltmp349:
.LBB33_15:
	@DEBUG_VALUE: osMessageGet:event <- [DW_OP_plus_uconst 4, DW_OP_deref] [$sp+0]
	.loc	7 1135 3 is_stmt 1              @ ../ThirdParty/FreeRTOS/Source/CMSIS_RTOS/cmsis_os.c:1135:3
	b	.LBB33_20
.Ltmp350:
.LBB33_16:
	@DEBUG_VALUE: osMessageGet:event <- [DW_OP_plus_uconst 4, DW_OP_deref] [$sp+0]
	.loc	7 1137 23                       @ ../ThirdParty/FreeRTOS/Source/CMSIS_RTOS/cmsis_os.c:1137:23
	ldr	r1, [sp, #4]                    @ 4-byte Reload
	ldr	r0, [sp, #20]
	.loc	7 1137 40 is_stmt 0             @ ../ThirdParty/FreeRTOS/Source/CMSIS_RTOS/cmsis_os.c:1137:40
	adds	r1, #4
	.loc	7 1137 49                       @ ../ThirdParty/FreeRTOS/Source/CMSIS_RTOS/cmsis_os.c:1137:49
	ldr	r2, [sp, #8]
	.loc	7 1137 9                        @ ../ThirdParty/FreeRTOS/Source/CMSIS_RTOS/cmsis_os.c:1137:9
	bl	xQueueReceive
.Ltmp351:
	.loc	7 1137 9                        @ ../ThirdParty/FreeRTOS/Source/CMSIS_RTOS/cmsis_os.c:1137:9
	cmp	r0, #1
	bne	.LBB33_18
	b	.LBB33_17
.Ltmp352:
.LBB33_17:
	@DEBUG_VALUE: osMessageGet:event <- [DW_OP_plus_uconst 4, DW_OP_deref] [$sp+0]
	.loc	7 0 9                           @ ../ThirdParty/FreeRTOS/Source/CMSIS_RTOS/cmsis_os.c:0:9
	ldr	r1, [sp, #4]                    @ 4-byte Reload
	movs	r0, #16
.Ltmp353:
	.loc	7 1139 20 is_stmt 1             @ ../ThirdParty/FreeRTOS/Source/CMSIS_RTOS/cmsis_os.c:1139:20
	str	r0, [r1]
	.loc	7 1140 5                        @ ../ThirdParty/FreeRTOS/Source/CMSIS_RTOS/cmsis_os.c:1140:5
	b	.LBB33_19
.Ltmp354:
.LBB33_18:
	@DEBUG_VALUE: osMessageGet:event <- [DW_OP_plus_uconst 4, DW_OP_deref] [$sp+0]
	.loc	7 1142 23                       @ ../ThirdParty/FreeRTOS/Source/CMSIS_RTOS/cmsis_os.c:1142:23
	ldr	r1, [sp, #4]                    @ 4-byte Reload
	ldr	r0, [sp, #8]
	cmp	r0, #0
	it	ne
	movne	r0, #1
	.loc	7 1142 22 is_stmt 0             @ ../ThirdParty/FreeRTOS/Source/CMSIS_RTOS/cmsis_os.c:1142:22
	lsls	r0, r0, #6
	.loc	7 1142 20                       @ ../ThirdParty/FreeRTOS/Source/CMSIS_RTOS/cmsis_os.c:1142:20
	str	r0, [r1]
	b	.LBB33_19
.Ltmp355:
.LBB33_19:
	@DEBUG_VALUE: osMessageGet:event <- [DW_OP_plus_uconst 4, DW_OP_deref] [$sp+0]
	.loc	7 0 20                          @ ../ThirdParty/FreeRTOS/Source/CMSIS_RTOS/cmsis_os.c:0:20
	b	.LBB33_20
.Ltmp356:
.LBB33_20:
	@DEBUG_VALUE: osMessageGet:event <- [DW_OP_plus_uconst 4, DW_OP_deref] [$sp+0]
	.loc	7 1146 3 is_stmt 1              @ ../ThirdParty/FreeRTOS/Source/CMSIS_RTOS/cmsis_os.c:1146:3
	b	.LBB33_21
.Ltmp357:
.LBB33_21:
	@DEBUG_VALUE: osMessageGet:event <- [DW_OP_plus_uconst 4, DW_OP_deref] [$sp+0]
	.loc	7 1147 1 epilogue_begin         @ ../ThirdParty/FreeRTOS/Source/CMSIS_RTOS/cmsis_os.c:1147:1
	add	sp, #24
	pop	{r7, pc}
.Ltmp358:
.Lfunc_end33:
	.size	osMessageGet, .Lfunc_end33-osMessageGet
	.cfi_endproc
	.cantunwind
	.fnend
                                        @ -- End function
	.section	.text.osMailCreate,"ax",%progbits
	.hidden	osMailCreate                    @ -- Begin function osMailCreate
	.globl	osMailCreate
	.p2align	2
	.type	osMailCreate,%function
	.code	16                              @ @osMailCreate
	.thumb_func
osMailCreate:
.Lfunc_begin34:
	.loc	7 1169 0                        @ ../ThirdParty/FreeRTOS/Source/CMSIS_RTOS/cmsis_os.c:1169:0
	.fnstart
	.cfi_startproc
@ %bb.0:
	.save	{r7, lr}
	push	{r7, lr}
	.cfi_def_cfa_offset 8
	.cfi_offset lr, -4
	.cfi_offset r7, -8
	.pad	#24
	sub	sp, #24
	.cfi_def_cfa_offset 32
	str	r0, [sp, #16]
	str	r1, [sp, #12]
.Ltmp359:
	.loc	7 1173 27 prologue_end          @ ../ThirdParty/FreeRTOS/Source/CMSIS_RTOS/cmsis_os.c:1173:27
	ldr	r0, [sp, #16]
	.loc	7 1173 38 is_stmt 0             @ ../ThirdParty/FreeRTOS/Source/CMSIS_RTOS/cmsis_os.c:1173:38
	ldr	r0, [r0]
	.loc	7 1173 26                       @ ../ThirdParty/FreeRTOS/Source/CMSIS_RTOS/cmsis_os.c:1173:26
	str	r0, [sp]
	.loc	7 1173 48                       @ ../ThirdParty/FreeRTOS/Source/CMSIS_RTOS/cmsis_os.c:1173:48
	ldr	r0, [sp, #16]
	.loc	7 1173 59                       @ ../ThirdParty/FreeRTOS/Source/CMSIS_RTOS/cmsis_os.c:1173:59
	ldr	r0, [r0, #4]
	.loc	7 1173 26                       @ ../ThirdParty/FreeRTOS/Source/CMSIS_RTOS/cmsis_os.c:1173:26
	str	r0, [sp, #4]
	movs	r0, #0
	str	r0, [sp, #8]
	movs	r0, #12
	.loc	7 1177 22 is_stmt 1             @ ../ThirdParty/FreeRTOS/Source/CMSIS_RTOS/cmsis_os.c:1177:22
	bl	pvPortMalloc
	.loc	7 1177 5 is_stmt 0              @ ../ThirdParty/FreeRTOS/Source/CMSIS_RTOS/cmsis_os.c:1177:5
	ldr	r1, [sp, #16]
	.loc	7 1177 16                       @ ../ThirdParty/FreeRTOS/Source/CMSIS_RTOS/cmsis_os.c:1177:16
	ldr	r1, [r1, #8]
	.loc	7 1177 20                       @ ../ThirdParty/FreeRTOS/Source/CMSIS_RTOS/cmsis_os.c:1177:20
	str	r0, [r1]
.Ltmp360:
	.loc	7 1179 9 is_stmt 1              @ ../ThirdParty/FreeRTOS/Source/CMSIS_RTOS/cmsis_os.c:1179:9
	ldr	r0, [sp, #16]
	.loc	7 1179 20 is_stmt 0             @ ../ThirdParty/FreeRTOS/Source/CMSIS_RTOS/cmsis_os.c:1179:20
	ldr	r0, [r0, #8]
	.loc	7 1179 7                        @ ../ThirdParty/FreeRTOS/Source/CMSIS_RTOS/cmsis_os.c:1179:7
	ldr	r0, [r0]
.Ltmp361:
	.loc	7 1179 7                        @ ../ThirdParty/FreeRTOS/Source/CMSIS_RTOS/cmsis_os.c:1179:7
	cbnz	r0, .LBB34_2
	b	.LBB34_1
.LBB34_1:
	.loc	7 0 7                           @ ../ThirdParty/FreeRTOS/Source/CMSIS_RTOS/cmsis_os.c:0:7
	movs	r0, #0
.Ltmp362:
	.loc	7 1180 5 is_stmt 1              @ ../ThirdParty/FreeRTOS/Source/CMSIS_RTOS/cmsis_os.c:1180:5
	str	r0, [sp, #20]
	b	.LBB34_7
.Ltmp363:
.LBB34_2:
	.loc	7 1182 35                       @ ../ThirdParty/FreeRTOS/Source/CMSIS_RTOS/cmsis_os.c:1182:35
	ldr	r0, [sp, #16]
	.loc	7 1182 17 is_stmt 0             @ ../ThirdParty/FreeRTOS/Source/CMSIS_RTOS/cmsis_os.c:1182:17
	ldr	r1, [r0, #8]
	.loc	7 1182 4                        @ ../ThirdParty/FreeRTOS/Source/CMSIS_RTOS/cmsis_os.c:1182:4
	ldr	r1, [r1]
	.loc	7 1182 33                       @ ../ThirdParty/FreeRTOS/Source/CMSIS_RTOS/cmsis_os.c:1182:33
	str	r0, [r1]
	.loc	7 1185 32 is_stmt 1             @ ../ThirdParty/FreeRTOS/Source/CMSIS_RTOS/cmsis_os.c:1185:32
	ldr	r0, [sp, #16]
	ldr	r0, [r0]
	movs	r1, #4
	movs	r2, #0
	bl	xQueueGenericCreate
	.loc	7 1185 6 is_stmt 0              @ ../ThirdParty/FreeRTOS/Source/CMSIS_RTOS/cmsis_os.c:1185:6
	ldr	r1, [sp, #16]
	.loc	7 1185 17                       @ ../ThirdParty/FreeRTOS/Source/CMSIS_RTOS/cmsis_os.c:1185:17
	ldr	r1, [r1, #8]
	.loc	7 1185 4                        @ ../ThirdParty/FreeRTOS/Source/CMSIS_RTOS/cmsis_os.c:1185:4
	ldr	r1, [r1]
	.loc	7 1185 30                       @ ../ThirdParty/FreeRTOS/Source/CMSIS_RTOS/cmsis_os.c:1185:30
	str	r0, [r1, #4]
.Ltmp364:
	.loc	7 1188 10 is_stmt 1             @ ../ThirdParty/FreeRTOS/Source/CMSIS_RTOS/cmsis_os.c:1188:10
	ldr	r0, [sp, #16]
	.loc	7 1188 21 is_stmt 0             @ ../ThirdParty/FreeRTOS/Source/CMSIS_RTOS/cmsis_os.c:1188:21
	ldr	r0, [r0, #8]
	.loc	7 1188 8                        @ ../ThirdParty/FreeRTOS/Source/CMSIS_RTOS/cmsis_os.c:1188:8
	ldr	r0, [r0]
	.loc	7 1188 27                       @ ../ThirdParty/FreeRTOS/Source/CMSIS_RTOS/cmsis_os.c:1188:27
	ldr	r0, [r0, #4]
.Ltmp365:
	.loc	7 1188 7                        @ ../ThirdParty/FreeRTOS/Source/CMSIS_RTOS/cmsis_os.c:1188:7
	cbnz	r0, .LBB34_4
	b	.LBB34_3
.LBB34_3:
.Ltmp366:
	.loc	7 1189 17 is_stmt 1             @ ../ThirdParty/FreeRTOS/Source/CMSIS_RTOS/cmsis_os.c:1189:17
	ldr	r0, [sp, #16]
	.loc	7 1189 28 is_stmt 0             @ ../ThirdParty/FreeRTOS/Source/CMSIS_RTOS/cmsis_os.c:1189:28
	ldr	r0, [r0, #8]
	.loc	7 1189 15                       @ ../ThirdParty/FreeRTOS/Source/CMSIS_RTOS/cmsis_os.c:1189:15
	ldr	r0, [r0]
	.loc	7 1189 5                        @ ../ThirdParty/FreeRTOS/Source/CMSIS_RTOS/cmsis_os.c:1189:5
	bl	vPortFree
	movs	r0, #0
	.loc	7 1190 5 is_stmt 1              @ ../ThirdParty/FreeRTOS/Source/CMSIS_RTOS/cmsis_os.c:1190:5
	str	r0, [sp, #20]
	b	.LBB34_7
.Ltmp367:
.LBB34_4:
	.loc	7 0 5 is_stmt 0                 @ ../ThirdParty/FreeRTOS/Source/CMSIS_RTOS/cmsis_os.c:0:5
	mov	r0, sp
	.loc	7 1194 30 is_stmt 1             @ ../ThirdParty/FreeRTOS/Source/CMSIS_RTOS/cmsis_os.c:1194:30
	bl	osPoolCreate
	.loc	7 1194 6 is_stmt 0              @ ../ThirdParty/FreeRTOS/Source/CMSIS_RTOS/cmsis_os.c:1194:6
	ldr	r1, [sp, #16]
	.loc	7 1194 17                       @ ../ThirdParty/FreeRTOS/Source/CMSIS_RTOS/cmsis_os.c:1194:17
	ldr	r1, [r1, #8]
	.loc	7 1194 4                        @ ../ThirdParty/FreeRTOS/Source/CMSIS_RTOS/cmsis_os.c:1194:4
	ldr	r1, [r1]
	.loc	7 1194 28                       @ ../ThirdParty/FreeRTOS/Source/CMSIS_RTOS/cmsis_os.c:1194:28
	str	r0, [r1, #8]
.Ltmp368:
	.loc	7 1195 10 is_stmt 1             @ ../ThirdParty/FreeRTOS/Source/CMSIS_RTOS/cmsis_os.c:1195:10
	ldr	r0, [sp, #16]
	.loc	7 1195 21 is_stmt 0             @ ../ThirdParty/FreeRTOS/Source/CMSIS_RTOS/cmsis_os.c:1195:21
	ldr	r0, [r0, #8]
	.loc	7 1195 8                        @ ../ThirdParty/FreeRTOS/Source/CMSIS_RTOS/cmsis_os.c:1195:8
	ldr	r0, [r0]
	.loc	7 1195 27                       @ ../ThirdParty/FreeRTOS/Source/CMSIS_RTOS/cmsis_os.c:1195:27
	ldr	r0, [r0, #8]
.Ltmp369:
	.loc	7 1195 7                        @ ../ThirdParty/FreeRTOS/Source/CMSIS_RTOS/cmsis_os.c:1195:7
	cbnz	r0, .LBB34_6
	b	.LBB34_5
.LBB34_5:
.Ltmp370:
	.loc	7 1197 17 is_stmt 1             @ ../ThirdParty/FreeRTOS/Source/CMSIS_RTOS/cmsis_os.c:1197:17
	ldr	r0, [sp, #16]
	.loc	7 1197 28 is_stmt 0             @ ../ThirdParty/FreeRTOS/Source/CMSIS_RTOS/cmsis_os.c:1197:28
	ldr	r0, [r0, #8]
	.loc	7 1197 15                       @ ../ThirdParty/FreeRTOS/Source/CMSIS_RTOS/cmsis_os.c:1197:15
	ldr	r0, [r0]
	.loc	7 1197 5                        @ ../ThirdParty/FreeRTOS/Source/CMSIS_RTOS/cmsis_os.c:1197:5
	bl	vPortFree
	movs	r0, #0
	.loc	7 1198 5 is_stmt 1              @ ../ThirdParty/FreeRTOS/Source/CMSIS_RTOS/cmsis_os.c:1198:5
	str	r0, [sp, #20]
	b	.LBB34_7
.Ltmp371:
.LBB34_6:
	.loc	7 1201 12                       @ ../ThirdParty/FreeRTOS/Source/CMSIS_RTOS/cmsis_os.c:1201:12
	ldr	r0, [sp, #16]
	.loc	7 1201 23 is_stmt 0             @ ../ThirdParty/FreeRTOS/Source/CMSIS_RTOS/cmsis_os.c:1201:23
	ldr	r0, [r0, #8]
	.loc	7 1201 10                       @ ../ThirdParty/FreeRTOS/Source/CMSIS_RTOS/cmsis_os.c:1201:10
	ldr	r0, [r0]
	.loc	7 1201 3                        @ ../ThirdParty/FreeRTOS/Source/CMSIS_RTOS/cmsis_os.c:1201:3
	str	r0, [sp, #20]
	b	.LBB34_7
.LBB34_7:
	.loc	7 1205 1 is_stmt 1              @ ../ThirdParty/FreeRTOS/Source/CMSIS_RTOS/cmsis_os.c:1205:1
	ldr	r0, [sp, #20]
	.loc	7 1205 1 epilogue_begin is_stmt 0 @ ../ThirdParty/FreeRTOS/Source/CMSIS_RTOS/cmsis_os.c:1205:1
	add	sp, #24
	pop	{r7, pc}
.Ltmp372:
.Lfunc_end34:
	.size	osMailCreate, .Lfunc_end34-osMailCreate
	.cfi_endproc
	.cantunwind
	.fnend
                                        @ -- End function
	.section	.text.osMailAlloc,"ax",%progbits
	.hidden	osMailAlloc                     @ -- Begin function osMailAlloc
	.globl	osMailAlloc
	.p2align	2
	.type	osMailAlloc,%function
	.code	16                              @ @osMailAlloc
	.thumb_func
osMailAlloc:
.Lfunc_begin35:
	.loc	7 1215 0 is_stmt 1              @ ../ThirdParty/FreeRTOS/Source/CMSIS_RTOS/cmsis_os.c:1215:0
	.fnstart
	.cfi_startproc
@ %bb.0:
	.save	{r7, lr}
	push	{r7, lr}
	.cfi_def_cfa_offset 8
	.cfi_offset lr, -4
	.cfi_offset r7, -8
	.pad	#16
	sub	sp, #16
	.cfi_def_cfa_offset 24
	str	r0, [sp, #8]
	str	r1, [sp, #4]
.Ltmp373:
	.loc	7 1220 7 prologue_end           @ ../ThirdParty/FreeRTOS/Source/CMSIS_RTOS/cmsis_os.c:1220:7
	ldr	r0, [sp, #8]
.Ltmp374:
	.loc	7 1220 7 is_stmt 0              @ ../ThirdParty/FreeRTOS/Source/CMSIS_RTOS/cmsis_os.c:1220:7
	cbnz	r0, .LBB35_2
	b	.LBB35_1
.LBB35_1:
	.loc	7 0 7                           @ ../ThirdParty/FreeRTOS/Source/CMSIS_RTOS/cmsis_os.c:0:7
	movs	r0, #0
.Ltmp375:
	.loc	7 1221 5 is_stmt 1              @ ../ThirdParty/FreeRTOS/Source/CMSIS_RTOS/cmsis_os.c:1221:5
	str	r0, [sp, #12]
	b	.LBB35_3
.Ltmp376:
.LBB35_2:
	.loc	7 1224 19                       @ ../ThirdParty/FreeRTOS/Source/CMSIS_RTOS/cmsis_os.c:1224:19
	ldr	r0, [sp, #8]
	.loc	7 1224 29 is_stmt 0             @ ../ThirdParty/FreeRTOS/Source/CMSIS_RTOS/cmsis_os.c:1224:29
	ldr	r0, [r0, #8]
	.loc	7 1224 7                        @ ../ThirdParty/FreeRTOS/Source/CMSIS_RTOS/cmsis_os.c:1224:7
	bl	osPoolAlloc
	.loc	7 1224 5                        @ ../ThirdParty/FreeRTOS/Source/CMSIS_RTOS/cmsis_os.c:1224:5
	str	r0, [sp]
	.loc	7 1226 10 is_stmt 1             @ ../ThirdParty/FreeRTOS/Source/CMSIS_RTOS/cmsis_os.c:1226:10
	ldr	r0, [sp]
	.loc	7 1226 3 is_stmt 0              @ ../ThirdParty/FreeRTOS/Source/CMSIS_RTOS/cmsis_os.c:1226:3
	str	r0, [sp, #12]
	b	.LBB35_3
.LBB35_3:
	.loc	7 1227 1 is_stmt 1              @ ../ThirdParty/FreeRTOS/Source/CMSIS_RTOS/cmsis_os.c:1227:1
	ldr	r0, [sp, #12]
	.loc	7 1227 1 epilogue_begin is_stmt 0 @ ../ThirdParty/FreeRTOS/Source/CMSIS_RTOS/cmsis_os.c:1227:1
	add	sp, #16
	pop	{r7, pc}
.Ltmp377:
.Lfunc_end35:
	.size	osMailAlloc, .Lfunc_end35-osMailAlloc
	.cfi_endproc
	.cantunwind
	.fnend
                                        @ -- End function
	.section	.text.osMailCAlloc,"ax",%progbits
	.hidden	osMailCAlloc                    @ -- Begin function osMailCAlloc
	.globl	osMailCAlloc
	.p2align	2
	.type	osMailCAlloc,%function
	.code	16                              @ @osMailCAlloc
	.thumb_func
osMailCAlloc:
.Lfunc_begin36:
	.loc	7 1237 0 is_stmt 1              @ ../ThirdParty/FreeRTOS/Source/CMSIS_RTOS/cmsis_os.c:1237:0
	.fnstart
	.cfi_startproc
@ %bb.0:
	.save	{r7, lr}
	push	{r7, lr}
	.cfi_def_cfa_offset 8
	.cfi_offset lr, -4
	.cfi_offset r7, -8
	.pad	#16
	sub	sp, #16
	.cfi_def_cfa_offset 24
	str	r0, [sp, #12]
	str	r1, [sp, #8]
.Ltmp378:
	.loc	7 1239 25 prologue_end          @ ../ThirdParty/FreeRTOS/Source/CMSIS_RTOS/cmsis_os.c:1239:25
	ldr	r0, [sp, #12]
	.loc	7 1239 35 is_stmt 0             @ ../ThirdParty/FreeRTOS/Source/CMSIS_RTOS/cmsis_os.c:1239:35
	ldr	r1, [sp, #8]
	.loc	7 1239 13                       @ ../ThirdParty/FreeRTOS/Source/CMSIS_RTOS/cmsis_os.c:1239:13
	bl	osMailAlloc
	.loc	7 1239 9                        @ ../ThirdParty/FreeRTOS/Source/CMSIS_RTOS/cmsis_os.c:1239:9
	str	r0, [sp]
.Ltmp379:
	.loc	7 1241 7 is_stmt 1              @ ../ThirdParty/FreeRTOS/Source/CMSIS_RTOS/cmsis_os.c:1241:7
	ldr	r0, [sp]
.Ltmp380:
	.loc	7 1241 7 is_stmt 0              @ ../ThirdParty/FreeRTOS/Source/CMSIS_RTOS/cmsis_os.c:1241:7
	cbz	r0, .LBB36_6
	b	.LBB36_1
.LBB36_1:
	.loc	7 0 7                           @ ../ThirdParty/FreeRTOS/Source/CMSIS_RTOS/cmsis_os.c:0:7
	movs	r0, #0
.Ltmp381:
	.loc	7 1242 12 is_stmt 1             @ ../ThirdParty/FreeRTOS/Source/CMSIS_RTOS/cmsis_os.c:1242:12
	str	r0, [sp, #4]
	.loc	7 1242 10 is_stmt 0             @ ../ThirdParty/FreeRTOS/Source/CMSIS_RTOS/cmsis_os.c:1242:10
	b	.LBB36_2
.LBB36_2:                               @ =>This Inner Loop Header: Depth=1
.Ltmp382:
	.loc	7 1242 17                       @ ../ThirdParty/FreeRTOS/Source/CMSIS_RTOS/cmsis_os.c:1242:17
	ldr	r0, [sp, #4]
	.loc	7 1242 21                       @ ../ThirdParty/FreeRTOS/Source/CMSIS_RTOS/cmsis_os.c:1242:21
	ldr	r1, [sp, #12]
	.loc	7 1242 31                       @ ../ThirdParty/FreeRTOS/Source/CMSIS_RTOS/cmsis_os.c:1242:31
	ldr	r1, [r1]
	.loc	7 1242 42                       @ ../ThirdParty/FreeRTOS/Source/CMSIS_RTOS/cmsis_os.c:1242:42
	ldr	r1, [r1, #4]
.Ltmp383:
	.loc	7 1242 5                        @ ../ThirdParty/FreeRTOS/Source/CMSIS_RTOS/cmsis_os.c:1242:5
	cmp	r0, r1
	bhs	.LBB36_5
	b	.LBB36_3
.LBB36_3:                               @   in Loop: Header=BB36_2 Depth=1
.Ltmp384:
	.loc	7 1243 19 is_stmt 1             @ ../ThirdParty/FreeRTOS/Source/CMSIS_RTOS/cmsis_os.c:1243:19
	ldr	r1, [sp]
	.loc	7 1243 22 is_stmt 0             @ ../ThirdParty/FreeRTOS/Source/CMSIS_RTOS/cmsis_os.c:1243:22
	ldr	r2, [sp, #4]
	movs	r0, #0
	.loc	7 1243 25                       @ ../ThirdParty/FreeRTOS/Source/CMSIS_RTOS/cmsis_os.c:1243:25
	strb	r0, [r1, r2]
	.loc	7 1244 5 is_stmt 1              @ ../ThirdParty/FreeRTOS/Source/CMSIS_RTOS/cmsis_os.c:1244:5
	b	.LBB36_4
.Ltmp385:
.LBB36_4:                               @   in Loop: Header=BB36_2 Depth=1
	.loc	7 1242 52                       @ ../ThirdParty/FreeRTOS/Source/CMSIS_RTOS/cmsis_os.c:1242:52
	ldr	r0, [sp, #4]
	adds	r0, #1
	str	r0, [sp, #4]
	.loc	7 1242 5 is_stmt 0              @ ../ThirdParty/FreeRTOS/Source/CMSIS_RTOS/cmsis_os.c:1242:5
	b	.LBB36_2
.Ltmp386:
.LBB36_5:
	.loc	7 1245 3 is_stmt 1              @ ../ThirdParty/FreeRTOS/Source/CMSIS_RTOS/cmsis_os.c:1245:3
	b	.LBB36_6
.Ltmp387:
.LBB36_6:
	.loc	7 1247 10                       @ ../ThirdParty/FreeRTOS/Source/CMSIS_RTOS/cmsis_os.c:1247:10
	ldr	r0, [sp]
	.loc	7 1247 3 epilogue_begin is_stmt 0 @ ../ThirdParty/FreeRTOS/Source/CMSIS_RTOS/cmsis_os.c:1247:3
	add	sp, #16
	pop	{r7, pc}
.Ltmp388:
.Lfunc_end36:
	.size	osMailCAlloc, .Lfunc_end36-osMailCAlloc
	.cfi_endproc
	.cantunwind
	.fnend
                                        @ -- End function
	.section	.text.osMailPut,"ax",%progbits
	.hidden	osMailPut                       @ -- Begin function osMailPut
	.globl	osMailPut
	.p2align	2
	.type	osMailPut,%function
	.code	16                              @ @osMailPut
	.thumb_func
osMailPut:
.Lfunc_begin37:
	.loc	7 1258 0 is_stmt 1              @ ../ThirdParty/FreeRTOS/Source/CMSIS_RTOS/cmsis_os.c:1258:0
	.fnstart
	.cfi_startproc
@ %bb.0:
	.save	{r7, lr}
	push	{r7, lr}
	.cfi_def_cfa_offset 8
	.cfi_offset lr, -4
	.cfi_offset r7, -8
	.pad	#16
	sub	sp, #16
	.cfi_def_cfa_offset 24
	str	r0, [sp, #8]
	str	r1, [sp, #4]
.Ltmp389:
	.loc	7 1262 7 prologue_end           @ ../ThirdParty/FreeRTOS/Source/CMSIS_RTOS/cmsis_os.c:1262:7
	ldr	r0, [sp, #8]
.Ltmp390:
	.loc	7 1262 7 is_stmt 0              @ ../ThirdParty/FreeRTOS/Source/CMSIS_RTOS/cmsis_os.c:1262:7
	cbnz	r0, .LBB37_2
	b	.LBB37_1
.LBB37_1:
	.loc	7 0 7                           @ ../ThirdParty/FreeRTOS/Source/CMSIS_RTOS/cmsis_os.c:0:7
	movs	r0, #128
.Ltmp391:
	.loc	7 1263 5 is_stmt 1              @ ../ThirdParty/FreeRTOS/Source/CMSIS_RTOS/cmsis_os.c:1263:5
	str	r0, [sp, #12]
	b	.LBB37_12
.Ltmp392:
.LBB37_2:
	.loc	7 0 5 is_stmt 0                 @ ../ThirdParty/FreeRTOS/Source/CMSIS_RTOS/cmsis_os.c:0:5
	movs	r0, #0
	.loc	7 1266 13 is_stmt 1             @ ../ThirdParty/FreeRTOS/Source/CMSIS_RTOS/cmsis_os.c:1266:13
	str	r0, [sp]
.Ltmp393:
	.loc	7 1268 7                        @ ../ThirdParty/FreeRTOS/Source/CMSIS_RTOS/cmsis_os.c:1268:7
	bl	inHandlerMode
.Ltmp394:
	.loc	7 1268 7 is_stmt 0              @ ../ThirdParty/FreeRTOS/Source/CMSIS_RTOS/cmsis_os.c:1268:7
	cbz	r0, .LBB37_8
	b	.LBB37_3
.LBB37_3:
.Ltmp395:
	.loc	7 1269 9 is_stmt 1              @ ../ThirdParty/FreeRTOS/Source/CMSIS_RTOS/cmsis_os.c:1269:9
	ldr	r0, [sp, #8]
	ldr	r0, [r0, #4]
	add	r1, sp, #4
	mov	r2, sp
	movs	r3, #0
	bl	xQueueGenericSendFromISR
.Ltmp396:
	.loc	7 1269 9 is_stmt 0              @ ../ThirdParty/FreeRTOS/Source/CMSIS_RTOS/cmsis_os.c:1269:9
	cmp	r0, #1
	beq	.LBB37_5
	b	.LBB37_4
.LBB37_4:
	.loc	7 0 9                           @ ../ThirdParty/FreeRTOS/Source/CMSIS_RTOS/cmsis_os.c:0:9
	movs	r0, #255
.Ltmp397:
	.loc	7 1270 7 is_stmt 1              @ ../ThirdParty/FreeRTOS/Source/CMSIS_RTOS/cmsis_os.c:1270:7
	str	r0, [sp, #12]
	b	.LBB37_12
.Ltmp398:
.LBB37_5:
	.loc	7 1272 5                        @ ../ThirdParty/FreeRTOS/Source/CMSIS_RTOS/cmsis_os.c:1272:5
	ldr	r0, [sp]
.Ltmp399:
	.loc	7 1272 5 is_stmt 0              @ ../ThirdParty/FreeRTOS/Source/CMSIS_RTOS/cmsis_os.c:1272:5
	cbz	r0, .LBB37_7
	b	.LBB37_6
.LBB37_6:
	.loc	7 0 5                           @ ../ThirdParty/FreeRTOS/Source/CMSIS_RTOS/cmsis_os.c:0:5
	movw	r1, #60676
	movt	r1, #57344
	mov.w	r0, #268435456
.Ltmp400:
	.loc	7 1272 5                        @ ../ThirdParty/FreeRTOS/Source/CMSIS_RTOS/cmsis_os.c:1272:5
	str	r0, [r1]
	@APP
	dsb	sy
	@NO_APP
	@APP
	isb	sy
	@NO_APP
	b	.LBB37_7
.Ltmp401:
.LBB37_7:
	.loc	7 1273 3 is_stmt 1              @ ../ThirdParty/FreeRTOS/Source/CMSIS_RTOS/cmsis_os.c:1273:3
	b	.LBB37_11
.Ltmp402:
.LBB37_8:
	.loc	7 1275 9                        @ ../ThirdParty/FreeRTOS/Source/CMSIS_RTOS/cmsis_os.c:1275:9
	ldr	r0, [sp, #8]
	ldr	r0, [r0, #4]
	add	r1, sp, #4
	movs	r3, #0
	mov	r2, r3
	bl	xQueueGenericSend
.Ltmp403:
	.loc	7 1275 9 is_stmt 0              @ ../ThirdParty/FreeRTOS/Source/CMSIS_RTOS/cmsis_os.c:1275:9
	cmp	r0, #1
	beq	.LBB37_10
	b	.LBB37_9
.LBB37_9:
	.loc	7 0 9                           @ ../ThirdParty/FreeRTOS/Source/CMSIS_RTOS/cmsis_os.c:0:9
	movs	r0, #255
.Ltmp404:
	.loc	7 1276 7 is_stmt 1              @ ../ThirdParty/FreeRTOS/Source/CMSIS_RTOS/cmsis_os.c:1276:7
	str	r0, [sp, #12]
	b	.LBB37_12
.Ltmp405:
.LBB37_10:
	.loc	7 0 7 is_stmt 0                 @ ../ThirdParty/FreeRTOS/Source/CMSIS_RTOS/cmsis_os.c:0:7
	b	.LBB37_11
.LBB37_11:
	movs	r0, #0
	.loc	7 1280 3 is_stmt 1              @ ../ThirdParty/FreeRTOS/Source/CMSIS_RTOS/cmsis_os.c:1280:3
	str	r0, [sp, #12]
	b	.LBB37_12
.LBB37_12:
	.loc	7 1281 1                        @ ../ThirdParty/FreeRTOS/Source/CMSIS_RTOS/cmsis_os.c:1281:1
	ldr	r0, [sp, #12]
	.loc	7 1281 1 epilogue_begin is_stmt 0 @ ../ThirdParty/FreeRTOS/Source/CMSIS_RTOS/cmsis_os.c:1281:1
	add	sp, #16
	pop	{r7, pc}
.Ltmp406:
.Lfunc_end37:
	.size	osMailPut, .Lfunc_end37-osMailPut
	.cfi_endproc
	.cantunwind
	.fnend
                                        @ -- End function
	.section	.text.osMailGet,"ax",%progbits
	.hidden	osMailGet                       @ -- Begin function osMailGet
	.globl	osMailGet
	.p2align	2
	.type	osMailGet,%function
	.code	16                              @ @osMailGet
	.thumb_func
osMailGet:
.Lfunc_begin38:
	.loc	7 1291 0 is_stmt 1              @ ../ThirdParty/FreeRTOS/Source/CMSIS_RTOS/cmsis_os.c:1291:0
	.fnstart
	.cfi_startproc
@ %bb.0:
	.save	{r7, lr}
	push	{r7, lr}
	.cfi_def_cfa_offset 8
	.cfi_offset lr, -4
	.cfi_offset r7, -8
	.pad	#24
	sub	sp, #24
	.cfi_def_cfa_offset 32
.Ltmp407:
	@DEBUG_VALUE: osMailGet:event <- [$r0+0]
	str	r1, [sp]                        @ 4-byte Spill
	mov	r1, r0
.Ltmp408:
	.loc	7 1294 11 prologue_end          @ ../ThirdParty/FreeRTOS/Source/CMSIS_RTOS/cmsis_os.c:1294:11
	ldr	r0, [sp]                        @ 4-byte Reload
.Ltmp409:
	str	r1, [sp, #4]                    @ 4-byte Spill
.Ltmp410:
	@DEBUG_VALUE: osMailGet:event <- [DW_OP_plus_uconst 4, DW_OP_deref] [$sp+0]
	@DEBUG_VALUE: osMailGet:event <- [$r1+0]
	.loc	7 0 11 is_stmt 0                @ ../ThirdParty/FreeRTOS/Source/CMSIS_RTOS/cmsis_os.c:0:11
	str	r0, [sp, #20]
	str	r2, [sp, #16]
	.loc	7 1296 23 is_stmt 1             @ ../ThirdParty/FreeRTOS/Source/CMSIS_RTOS/cmsis_os.c:1296:23
	ldr	r0, [sp, #20]
	.loc	7 1296 21 is_stmt 0             @ ../ThirdParty/FreeRTOS/Source/CMSIS_RTOS/cmsis_os.c:1296:21
	str	r0, [r1, #8]
.Ltmp411:
	.loc	7 1298 7 is_stmt 1              @ ../ThirdParty/FreeRTOS/Source/CMSIS_RTOS/cmsis_os.c:1298:7
	ldr	r0, [sp, #20]
.Ltmp412:
	@DEBUG_VALUE: osMailGet:event <- [DW_OP_plus_uconst 4, DW_OP_deref] [$sp+0]
	.loc	7 1298 7 is_stmt 0              @ ../ThirdParty/FreeRTOS/Source/CMSIS_RTOS/cmsis_os.c:1298:7
	cbnz	r0, .LBB38_2
	b	.LBB38_1
.Ltmp413:
.LBB38_1:
	@DEBUG_VALUE: osMailGet:event <- [DW_OP_plus_uconst 4, DW_OP_deref] [$sp+0]
	.loc	7 0 7                           @ ../ThirdParty/FreeRTOS/Source/CMSIS_RTOS/cmsis_os.c:0:7
	ldr	r1, [sp, #4]                    @ 4-byte Reload
	movs	r0, #128
.Ltmp414:
	.loc	7 1299 18 is_stmt 1             @ ../ThirdParty/FreeRTOS/Source/CMSIS_RTOS/cmsis_os.c:1299:18
	str	r0, [r1]
	.loc	7 1300 5                        @ ../ThirdParty/FreeRTOS/Source/CMSIS_RTOS/cmsis_os.c:1300:5
	b	.LBB38_21
.Ltmp415:
.LBB38_2:
	@DEBUG_VALUE: osMailGet:event <- [DW_OP_plus_uconst 4, DW_OP_deref] [$sp+0]
	.loc	7 0 5 is_stmt 0                 @ ../ThirdParty/FreeRTOS/Source/CMSIS_RTOS/cmsis_os.c:0:5
	movs	r0, #0
	.loc	7 1303 13 is_stmt 1             @ ../ThirdParty/FreeRTOS/Source/CMSIS_RTOS/cmsis_os.c:1303:13
	str	r0, [sp, #12]
	.loc	7 1305 9                        @ ../ThirdParty/FreeRTOS/Source/CMSIS_RTOS/cmsis_os.c:1305:9
	str	r0, [sp, #8]
.Ltmp416:
	.loc	7 1306 7                        @ ../ThirdParty/FreeRTOS/Source/CMSIS_RTOS/cmsis_os.c:1306:7
	ldr	r0, [sp, #16]
.Ltmp417:
	.loc	7 1306 7 is_stmt 0              @ ../ThirdParty/FreeRTOS/Source/CMSIS_RTOS/cmsis_os.c:1306:7
	adds	r0, #1
	cbnz	r0, .LBB38_4
	b	.LBB38_3
.Ltmp418:
.LBB38_3:
	@DEBUG_VALUE: osMailGet:event <- [DW_OP_plus_uconst 4, DW_OP_deref] [$sp+0]
	.loc	7 0 7                           @ ../ThirdParty/FreeRTOS/Source/CMSIS_RTOS/cmsis_os.c:0:7
	mov.w	r0, #-1
.Ltmp419:
	.loc	7 1307 11 is_stmt 1             @ ../ThirdParty/FreeRTOS/Source/CMSIS_RTOS/cmsis_os.c:1307:11
	str	r0, [sp, #8]
	.loc	7 1308 3                        @ ../ThirdParty/FreeRTOS/Source/CMSIS_RTOS/cmsis_os.c:1308:3
	b	.LBB38_9
.Ltmp420:
.LBB38_4:
	@DEBUG_VALUE: osMailGet:event <- [DW_OP_plus_uconst 4, DW_OP_deref] [$sp+0]
	.loc	7 1309 12                       @ ../ThirdParty/FreeRTOS/Source/CMSIS_RTOS/cmsis_os.c:1309:12
	ldr	r0, [sp, #16]
.Ltmp421:
	.loc	7 1309 12 is_stmt 0             @ ../ThirdParty/FreeRTOS/Source/CMSIS_RTOS/cmsis_os.c:1309:12
	cbz	r0, .LBB38_8
	b	.LBB38_5
.Ltmp422:
.LBB38_5:
	@DEBUG_VALUE: osMailGet:event <- [DW_OP_plus_uconst 4, DW_OP_deref] [$sp+0]
	.loc	7 1310 13 is_stmt 1             @ ../ThirdParty/FreeRTOS/Source/CMSIS_RTOS/cmsis_os.c:1310:13
	ldr	r0, [sp, #16]
	.loc	7 1310 11 is_stmt 0             @ ../ThirdParty/FreeRTOS/Source/CMSIS_RTOS/cmsis_os.c:1310:11
	str	r0, [sp, #8]
.Ltmp423:
	.loc	7 1311 9 is_stmt 1              @ ../ThirdParty/FreeRTOS/Source/CMSIS_RTOS/cmsis_os.c:1311:9
	ldr	r0, [sp, #8]
.Ltmp424:
	.loc	7 1311 9 is_stmt 0              @ ../ThirdParty/FreeRTOS/Source/CMSIS_RTOS/cmsis_os.c:1311:9
	cbnz	r0, .LBB38_7
	b	.LBB38_6
.Ltmp425:
.LBB38_6:
	@DEBUG_VALUE: osMailGet:event <- [DW_OP_plus_uconst 4, DW_OP_deref] [$sp+0]
	.loc	7 0 9                           @ ../ThirdParty/FreeRTOS/Source/CMSIS_RTOS/cmsis_os.c:0:9
	movs	r0, #1
.Ltmp426:
	.loc	7 1312 13 is_stmt 1             @ ../ThirdParty/FreeRTOS/Source/CMSIS_RTOS/cmsis_os.c:1312:13
	str	r0, [sp, #8]
	.loc	7 1313 5                        @ ../ThirdParty/FreeRTOS/Source/CMSIS_RTOS/cmsis_os.c:1313:5
	b	.LBB38_7
.Ltmp427:
.LBB38_7:
	@DEBUG_VALUE: osMailGet:event <- [DW_OP_plus_uconst 4, DW_OP_deref] [$sp+0]
	.loc	7 1314 3                        @ ../ThirdParty/FreeRTOS/Source/CMSIS_RTOS/cmsis_os.c:1314:3
	b	.LBB38_8
.Ltmp428:
.LBB38_8:
	@DEBUG_VALUE: osMailGet:event <- [DW_OP_plus_uconst 4, DW_OP_deref] [$sp+0]
	.loc	7 0 3 is_stmt 0                 @ ../ThirdParty/FreeRTOS/Source/CMSIS_RTOS/cmsis_os.c:0:3
	b	.LBB38_9
.Ltmp429:
.LBB38_9:
	@DEBUG_VALUE: osMailGet:event <- [DW_OP_plus_uconst 4, DW_OP_deref] [$sp+0]
	.loc	7 1316 7 is_stmt 1              @ ../ThirdParty/FreeRTOS/Source/CMSIS_RTOS/cmsis_os.c:1316:7
	bl	inHandlerMode
.Ltmp430:
	.loc	7 1316 7 is_stmt 0              @ ../ThirdParty/FreeRTOS/Source/CMSIS_RTOS/cmsis_os.c:1316:7
	cbz	r0, .LBB38_16
	b	.LBB38_10
.Ltmp431:
.LBB38_10:
	@DEBUG_VALUE: osMailGet:event <- [DW_OP_plus_uconst 4, DW_OP_deref] [$sp+0]
	.loc	7 1317 30 is_stmt 1             @ ../ThirdParty/FreeRTOS/Source/CMSIS_RTOS/cmsis_os.c:1317:30
	ldr	r1, [sp, #4]                    @ 4-byte Reload
	ldr	r0, [sp, #20]
	.loc	7 1317 40 is_stmt 0             @ ../ThirdParty/FreeRTOS/Source/CMSIS_RTOS/cmsis_os.c:1317:40
	ldr	r0, [r0, #4]
	.loc	7 1317 55                       @ ../ThirdParty/FreeRTOS/Source/CMSIS_RTOS/cmsis_os.c:1317:55
	adds	r1, #4
	add	r2, sp, #12
	.loc	7 1317 9                        @ ../ThirdParty/FreeRTOS/Source/CMSIS_RTOS/cmsis_os.c:1317:9
	bl	xQueueReceiveFromISR
.Ltmp432:
	.loc	7 1317 9                        @ ../ThirdParty/FreeRTOS/Source/CMSIS_RTOS/cmsis_os.c:1317:9
	cmp	r0, #1
	bne	.LBB38_12
	b	.LBB38_11
.Ltmp433:
.LBB38_11:
	@DEBUG_VALUE: osMailGet:event <- [DW_OP_plus_uconst 4, DW_OP_deref] [$sp+0]
	.loc	7 0 9                           @ ../ThirdParty/FreeRTOS/Source/CMSIS_RTOS/cmsis_os.c:0:9
	ldr	r1, [sp, #4]                    @ 4-byte Reload
	movs	r0, #32
.Ltmp434:
	.loc	7 1319 20 is_stmt 1             @ ../ThirdParty/FreeRTOS/Source/CMSIS_RTOS/cmsis_os.c:1319:20
	str	r0, [r1]
	.loc	7 1320 5                        @ ../ThirdParty/FreeRTOS/Source/CMSIS_RTOS/cmsis_os.c:1320:5
	b	.LBB38_13
.Ltmp435:
.LBB38_12:
	@DEBUG_VALUE: osMailGet:event <- [DW_OP_plus_uconst 4, DW_OP_deref] [$sp+0]
	.loc	7 0 5 is_stmt 0                 @ ../ThirdParty/FreeRTOS/Source/CMSIS_RTOS/cmsis_os.c:0:5
	ldr	r1, [sp, #4]                    @ 4-byte Reload
	movs	r0, #0
.Ltmp436:
	.loc	7 1322 20 is_stmt 1             @ ../ThirdParty/FreeRTOS/Source/CMSIS_RTOS/cmsis_os.c:1322:20
	str	r0, [r1]
	b	.LBB38_13
.Ltmp437:
.LBB38_13:
	@DEBUG_VALUE: osMailGet:event <- [DW_OP_plus_uconst 4, DW_OP_deref] [$sp+0]
	.loc	7 1324 5                        @ ../ThirdParty/FreeRTOS/Source/CMSIS_RTOS/cmsis_os.c:1324:5
	ldr	r0, [sp, #12]
.Ltmp438:
	.loc	7 1324 5 is_stmt 0              @ ../ThirdParty/FreeRTOS/Source/CMSIS_RTOS/cmsis_os.c:1324:5
	cbz	r0, .LBB38_15
	b	.LBB38_14
.Ltmp439:
.LBB38_14:
	@DEBUG_VALUE: osMailGet:event <- [DW_OP_plus_uconst 4, DW_OP_deref] [$sp+0]
	.loc	7 0 5                           @ ../ThirdParty/FreeRTOS/Source/CMSIS_RTOS/cmsis_os.c:0:5
	movw	r1, #60676
	movt	r1, #57344
	mov.w	r0, #268435456
.Ltmp440:
	.loc	7 1324 5                        @ ../ThirdParty/FreeRTOS/Source/CMSIS_RTOS/cmsis_os.c:1324:5
	str	r0, [r1]
	@APP
	dsb	sy
	@NO_APP
	@APP
	isb	sy
	@NO_APP
	b	.LBB38_15
.Ltmp441:
.LBB38_15:
	@DEBUG_VALUE: osMailGet:event <- [DW_OP_plus_uconst 4, DW_OP_deref] [$sp+0]
	.loc	7 1325 3 is_stmt 1              @ ../ThirdParty/FreeRTOS/Source/CMSIS_RTOS/cmsis_os.c:1325:3
	b	.LBB38_20
.Ltmp442:
.LBB38_16:
	@DEBUG_VALUE: osMailGet:event <- [DW_OP_plus_uconst 4, DW_OP_deref] [$sp+0]
	.loc	7 1327 23                       @ ../ThirdParty/FreeRTOS/Source/CMSIS_RTOS/cmsis_os.c:1327:23
	ldr	r1, [sp, #4]                    @ 4-byte Reload
	ldr	r0, [sp, #20]
	.loc	7 1327 33 is_stmt 0             @ ../ThirdParty/FreeRTOS/Source/CMSIS_RTOS/cmsis_os.c:1327:33
	ldr	r0, [r0, #4]
	.loc	7 1327 48                       @ ../ThirdParty/FreeRTOS/Source/CMSIS_RTOS/cmsis_os.c:1327:48
	adds	r1, #4
	.loc	7 1327 57                       @ ../ThirdParty/FreeRTOS/Source/CMSIS_RTOS/cmsis_os.c:1327:57
	ldr	r2, [sp, #8]
	.loc	7 1327 9                        @ ../ThirdParty/FreeRTOS/Source/CMSIS_RTOS/cmsis_os.c:1327:9
	bl	xQueueReceive
.Ltmp443:
	.loc	7 1327 9                        @ ../ThirdParty/FreeRTOS/Source/CMSIS_RTOS/cmsis_os.c:1327:9
	cmp	r0, #1
	bne	.LBB38_18
	b	.LBB38_17
.Ltmp444:
.LBB38_17:
	@DEBUG_VALUE: osMailGet:event <- [DW_OP_plus_uconst 4, DW_OP_deref] [$sp+0]
	.loc	7 0 9                           @ ../ThirdParty/FreeRTOS/Source/CMSIS_RTOS/cmsis_os.c:0:9
	ldr	r1, [sp, #4]                    @ 4-byte Reload
	movs	r0, #32
.Ltmp445:
	.loc	7 1329 20 is_stmt 1             @ ../ThirdParty/FreeRTOS/Source/CMSIS_RTOS/cmsis_os.c:1329:20
	str	r0, [r1]
	.loc	7 1330 5                        @ ../ThirdParty/FreeRTOS/Source/CMSIS_RTOS/cmsis_os.c:1330:5
	b	.LBB38_19
.Ltmp446:
.LBB38_18:
	@DEBUG_VALUE: osMailGet:event <- [DW_OP_plus_uconst 4, DW_OP_deref] [$sp+0]
	.loc	7 1332 23                       @ ../ThirdParty/FreeRTOS/Source/CMSIS_RTOS/cmsis_os.c:1332:23
	ldr	r1, [sp, #4]                    @ 4-byte Reload
	ldr	r0, [sp, #8]
	cmp	r0, #0
	it	ne
	movne	r0, #1
	.loc	7 1332 22 is_stmt 0             @ ../ThirdParty/FreeRTOS/Source/CMSIS_RTOS/cmsis_os.c:1332:22
	lsls	r0, r0, #6
	.loc	7 1332 20                       @ ../ThirdParty/FreeRTOS/Source/CMSIS_RTOS/cmsis_os.c:1332:20
	str	r0, [r1]
	b	.LBB38_19
.Ltmp447:
.LBB38_19:
	@DEBUG_VALUE: osMailGet:event <- [DW_OP_plus_uconst 4, DW_OP_deref] [$sp+0]
	.loc	7 0 20                          @ ../ThirdParty/FreeRTOS/Source/CMSIS_RTOS/cmsis_os.c:0:20
	b	.LBB38_20
.Ltmp448:
.LBB38_20:
	@DEBUG_VALUE: osMailGet:event <- [DW_OP_plus_uconst 4, DW_OP_deref] [$sp+0]
	.loc	7 1336 3 is_stmt 1              @ ../ThirdParty/FreeRTOS/Source/CMSIS_RTOS/cmsis_os.c:1336:3
	b	.LBB38_21
.Ltmp449:
.LBB38_21:
	@DEBUG_VALUE: osMailGet:event <- [DW_OP_plus_uconst 4, DW_OP_deref] [$sp+0]
	.loc	7 1337 1 epilogue_begin         @ ../ThirdParty/FreeRTOS/Source/CMSIS_RTOS/cmsis_os.c:1337:1
	add	sp, #24
	pop	{r7, pc}
.Ltmp450:
.Lfunc_end38:
	.size	osMailGet, .Lfunc_end38-osMailGet
	.cfi_endproc
	.cantunwind
	.fnend
                                        @ -- End function
	.section	.text.osMailFree,"ax",%progbits
	.hidden	osMailFree                      @ -- Begin function osMailFree
	.globl	osMailFree
	.p2align	2
	.type	osMailFree,%function
	.code	16                              @ @osMailFree
	.thumb_func
osMailFree:
.Lfunc_begin39:
	.loc	7 1347 0                        @ ../ThirdParty/FreeRTOS/Source/CMSIS_RTOS/cmsis_os.c:1347:0
	.fnstart
	.cfi_startproc
@ %bb.0:
	.save	{r7, lr}
	push	{r7, lr}
	.cfi_def_cfa_offset 8
	.cfi_offset lr, -4
	.cfi_offset r7, -8
	.pad	#16
	sub	sp, #16
	.cfi_def_cfa_offset 24
	str	r0, [sp, #8]
	str	r1, [sp, #4]
.Ltmp451:
	.loc	7 1348 7 prologue_end           @ ../ThirdParty/FreeRTOS/Source/CMSIS_RTOS/cmsis_os.c:1348:7
	ldr	r0, [sp, #8]
.Ltmp452:
	.loc	7 1348 7 is_stmt 0              @ ../ThirdParty/FreeRTOS/Source/CMSIS_RTOS/cmsis_os.c:1348:7
	cbnz	r0, .LBB39_2
	b	.LBB39_1
.LBB39_1:
	.loc	7 0 7                           @ ../ThirdParty/FreeRTOS/Source/CMSIS_RTOS/cmsis_os.c:0:7
	movs	r0, #128
.Ltmp453:
	.loc	7 1349 5 is_stmt 1              @ ../ThirdParty/FreeRTOS/Source/CMSIS_RTOS/cmsis_os.c:1349:5
	str	r0, [sp, #12]
	b	.LBB39_3
.Ltmp454:
.LBB39_2:
	.loc	7 1352 21                       @ ../ThirdParty/FreeRTOS/Source/CMSIS_RTOS/cmsis_os.c:1352:21
	ldr	r0, [sp, #8]
	.loc	7 1352 31 is_stmt 0             @ ../ThirdParty/FreeRTOS/Source/CMSIS_RTOS/cmsis_os.c:1352:31
	ldr	r0, [r0, #8]
	.loc	7 1352 37                       @ ../ThirdParty/FreeRTOS/Source/CMSIS_RTOS/cmsis_os.c:1352:37
	ldr	r1, [sp, #4]
	.loc	7 1352 10                       @ ../ThirdParty/FreeRTOS/Source/CMSIS_RTOS/cmsis_os.c:1352:10
	bl	osPoolFree
	.loc	7 1352 3                        @ ../ThirdParty/FreeRTOS/Source/CMSIS_RTOS/cmsis_os.c:1352:3
	str	r0, [sp, #12]
	b	.LBB39_3
.LBB39_3:
	.loc	7 1353 1 is_stmt 1              @ ../ThirdParty/FreeRTOS/Source/CMSIS_RTOS/cmsis_os.c:1353:1
	ldr	r0, [sp, #12]
	.loc	7 1353 1 epilogue_begin is_stmt 0 @ ../ThirdParty/FreeRTOS/Source/CMSIS_RTOS/cmsis_os.c:1353:1
	add	sp, #16
	pop	{r7, pc}
.Ltmp455:
.Lfunc_end39:
	.size	osMailFree, .Lfunc_end39-osMailFree
	.cfi_endproc
	.cantunwind
	.fnend
                                        @ -- End function
	.section	.text.osSystickHandler,"ax",%progbits
	.hidden	osSystickHandler                @ -- Begin function osSystickHandler
	.globl	osSystickHandler
	.p2align	2
	.type	osSystickHandler,%function
	.code	16                              @ @osSystickHandler
	.thumb_func
osSystickHandler:
.Lfunc_begin40:
	.loc	7 1363 0 is_stmt 1              @ ../ThirdParty/FreeRTOS/Source/CMSIS_RTOS/cmsis_os.c:1363:0
	.fnstart
	.cfi_startproc
@ %bb.0:
	.save	{r7, lr}
	push	{r7, lr}
	.cfi_def_cfa_offset 8
	.cfi_offset lr, -4
	.cfi_offset r7, -8
.Ltmp456:
	.loc	7 1366 7 prologue_end           @ ../ThirdParty/FreeRTOS/Source/CMSIS_RTOS/cmsis_os.c:1366:7
	bl	xTaskGetSchedulerState
.Ltmp457:
	.loc	7 1366 7 is_stmt 0              @ ../ThirdParty/FreeRTOS/Source/CMSIS_RTOS/cmsis_os.c:1366:7
	cmp	r0, #1
	beq	.LBB40_2
	b	.LBB40_1
.LBB40_1:
.Ltmp458:
	.loc	7 1369 5 is_stmt 1              @ ../ThirdParty/FreeRTOS/Source/CMSIS_RTOS/cmsis_os.c:1369:5
	bl	xPortSysTickHandler
	.loc	7 1371 3                        @ ../ThirdParty/FreeRTOS/Source/CMSIS_RTOS/cmsis_os.c:1371:3
	b	.LBB40_2
.Ltmp459:
.LBB40_2:
	.loc	7 1373 1 epilogue_begin         @ ../ThirdParty/FreeRTOS/Source/CMSIS_RTOS/cmsis_os.c:1373:1
	pop	{r7, pc}
.Ltmp460:
.Lfunc_end40:
	.size	osSystickHandler, .Lfunc_end40-osSystickHandler
	.cfi_endproc
	.cantunwind
	.fnend
                                        @ -- End function
	.section	.text.osThreadSuspend,"ax",%progbits
	.hidden	osThreadSuspend                 @ -- Begin function osThreadSuspend
	.globl	osThreadSuspend
	.p2align	2
	.type	osThreadSuspend,%function
	.code	16                              @ @osThreadSuspend
	.thumb_func
osThreadSuspend:
.Lfunc_begin41:
	.loc	7 1433 0                        @ ../ThirdParty/FreeRTOS/Source/CMSIS_RTOS/cmsis_os.c:1433:0
	.fnstart
	.cfi_startproc
@ %bb.0:
	.save	{r7, lr}
	push	{r7, lr}
	.cfi_def_cfa_offset 8
	.cfi_offset lr, -4
	.cfi_offset r7, -8
	.pad	#8
	sub	sp, #8
	.cfi_def_cfa_offset 16
	str	r0, [sp, #4]
.Ltmp461:
	.loc	7 1435 18 prologue_end          @ ../ThirdParty/FreeRTOS/Source/CMSIS_RTOS/cmsis_os.c:1435:18
	ldr	r0, [sp, #4]
	.loc	7 1435 5 is_stmt 0              @ ../ThirdParty/FreeRTOS/Source/CMSIS_RTOS/cmsis_os.c:1435:5
	bl	vTaskSuspend
	movs	r0, #0
	.loc	7 1437 3 epilogue_begin is_stmt 1 @ ../ThirdParty/FreeRTOS/Source/CMSIS_RTOS/cmsis_os.c:1437:3
	add	sp, #8
	pop	{r7, pc}
.Ltmp462:
.Lfunc_end41:
	.size	osThreadSuspend, .Lfunc_end41-osThreadSuspend
	.cfi_endproc
	.cantunwind
	.fnend
                                        @ -- End function
	.section	.text.osThreadResume,"ax",%progbits
	.hidden	osThreadResume                  @ -- Begin function osThreadResume
	.globl	osThreadResume
	.p2align	2
	.type	osThreadResume,%function
	.code	16                              @ @osThreadResume
	.thumb_func
osThreadResume:
.Lfunc_begin42:
	.loc	7 1449 0                        @ ../ThirdParty/FreeRTOS/Source/CMSIS_RTOS/cmsis_os.c:1449:0
	.fnstart
	.cfi_startproc
@ %bb.0:
	.save	{r7, lr}
	push	{r7, lr}
	.cfi_def_cfa_offset 8
	.cfi_offset lr, -4
	.cfi_offset r7, -8
	.pad	#8
	sub	sp, #8
	.cfi_def_cfa_offset 16
	str	r0, [sp, #4]
.Ltmp463:
	.loc	7 1451 6 prologue_end           @ ../ThirdParty/FreeRTOS/Source/CMSIS_RTOS/cmsis_os.c:1451:6
	bl	inHandlerMode
.Ltmp464:
	.loc	7 1451 6 is_stmt 0              @ ../ThirdParty/FreeRTOS/Source/CMSIS_RTOS/cmsis_os.c:1451:6
	cbz	r0, .LBB42_4
	b	.LBB42_1
.LBB42_1:
.Ltmp465:
	.loc	7 1453 28 is_stmt 1             @ ../ThirdParty/FreeRTOS/Source/CMSIS_RTOS/cmsis_os.c:1453:28
	ldr	r0, [sp, #4]
	.loc	7 1453 9 is_stmt 0              @ ../ThirdParty/FreeRTOS/Source/CMSIS_RTOS/cmsis_os.c:1453:9
	bl	xTaskResumeFromISR
.Ltmp466:
	.loc	7 1453 9                        @ ../ThirdParty/FreeRTOS/Source/CMSIS_RTOS/cmsis_os.c:1453:9
	cmp	r0, #1
	bne	.LBB42_3
	b	.LBB42_2
.LBB42_2:
	.loc	7 0 9                           @ ../ThirdParty/FreeRTOS/Source/CMSIS_RTOS/cmsis_os.c:0:9
	movw	r1, #60676
	movt	r1, #57344
	mov.w	r0, #268435456
.Ltmp467:
	.loc	7 1455 7 is_stmt 1              @ ../ThirdParty/FreeRTOS/Source/CMSIS_RTOS/cmsis_os.c:1455:7
	str	r0, [r1]
	@APP
	dsb	sy
	@NO_APP
	@APP
	isb	sy
	@NO_APP
.Ltmp468:
	.loc	7 1456 5                        @ ../ThirdParty/FreeRTOS/Source/CMSIS_RTOS/cmsis_os.c:1456:5
	b	.LBB42_3
.Ltmp469:
.LBB42_3:
	.loc	7 1457 3                        @ ../ThirdParty/FreeRTOS/Source/CMSIS_RTOS/cmsis_os.c:1457:3
	b	.LBB42_5
.Ltmp470:
.LBB42_4:
	.loc	7 1460 17                       @ ../ThirdParty/FreeRTOS/Source/CMSIS_RTOS/cmsis_os.c:1460:17
	ldr	r0, [sp, #4]
	.loc	7 1460 5 is_stmt 0              @ ../ThirdParty/FreeRTOS/Source/CMSIS_RTOS/cmsis_os.c:1460:5
	bl	vTaskResume
	b	.LBB42_5
.Ltmp471:
.LBB42_5:
	.loc	7 0 5                           @ ../ThirdParty/FreeRTOS/Source/CMSIS_RTOS/cmsis_os.c:0:5
	movs	r0, #0
	.loc	7 1462 3 epilogue_begin is_stmt 1 @ ../ThirdParty/FreeRTOS/Source/CMSIS_RTOS/cmsis_os.c:1462:3
	add	sp, #8
	pop	{r7, pc}
.Ltmp472:
.Lfunc_end42:
	.size	osThreadResume, .Lfunc_end42-osThreadResume
	.cfi_endproc
	.cantunwind
	.fnend
                                        @ -- End function
	.section	.text.osThreadSuspendAll,"ax",%progbits
	.hidden	osThreadSuspendAll              @ -- Begin function osThreadSuspendAll
	.globl	osThreadSuspendAll
	.p2align	2
	.type	osThreadSuspendAll,%function
	.code	16                              @ @osThreadSuspendAll
	.thumb_func
osThreadSuspendAll:
.Lfunc_begin43:
	.loc	7 1473 0                        @ ../ThirdParty/FreeRTOS/Source/CMSIS_RTOS/cmsis_os.c:1473:0
	.fnstart
	.cfi_startproc
@ %bb.0:
	.save	{r7, lr}
	push	{r7, lr}
	.cfi_def_cfa_offset 8
	.cfi_offset lr, -4
	.cfi_offset r7, -8
.Ltmp473:
	.loc	7 1474 3 prologue_end           @ ../ThirdParty/FreeRTOS/Source/CMSIS_RTOS/cmsis_os.c:1474:3
	bl	vTaskSuspendAll
	movs	r0, #0
	.loc	7 1476 3 epilogue_begin         @ ../ThirdParty/FreeRTOS/Source/CMSIS_RTOS/cmsis_os.c:1476:3
	pop	{r7, pc}
.Ltmp474:
.Lfunc_end43:
	.size	osThreadSuspendAll, .Lfunc_end43-osThreadSuspendAll
	.cfi_endproc
	.cantunwind
	.fnend
                                        @ -- End function
	.section	.text.osThreadResumeAll,"ax",%progbits
	.hidden	osThreadResumeAll               @ -- Begin function osThreadResumeAll
	.globl	osThreadResumeAll
	.p2align	2
	.type	osThreadResumeAll,%function
	.code	16                              @ @osThreadResumeAll
	.thumb_func
osThreadResumeAll:
.Lfunc_begin44:
	.loc	7 1484 0                        @ ../ThirdParty/FreeRTOS/Source/CMSIS_RTOS/cmsis_os.c:1484:0
	.fnstart
	.cfi_startproc
@ %bb.0:
	.save	{r7, lr}
	push	{r7, lr}
	.cfi_def_cfa_offset 8
	.cfi_offset lr, -4
	.cfi_offset r7, -8
	.pad	#8
	sub	sp, #8
	.cfi_def_cfa_offset 16
.Ltmp475:
	.loc	7 1485 7 prologue_end           @ ../ThirdParty/FreeRTOS/Source/CMSIS_RTOS/cmsis_os.c:1485:7
	bl	xTaskResumeAll
.Ltmp476:
	.loc	7 1485 7 is_stmt 0              @ ../ThirdParty/FreeRTOS/Source/CMSIS_RTOS/cmsis_os.c:1485:7
	cmp	r0, #1
	bne	.LBB44_2
	b	.LBB44_1
.LBB44_1:
	.loc	7 0 7                           @ ../ThirdParty/FreeRTOS/Source/CMSIS_RTOS/cmsis_os.c:0:7
	movs	r0, #0
.Ltmp477:
	.loc	7 1486 5 is_stmt 1              @ ../ThirdParty/FreeRTOS/Source/CMSIS_RTOS/cmsis_os.c:1486:5
	str	r0, [sp, #4]
	b	.LBB44_3
.LBB44_2:
	.loc	7 0 5 is_stmt 0                 @ ../ThirdParty/FreeRTOS/Source/CMSIS_RTOS/cmsis_os.c:0:5
	movs	r0, #255
	.loc	7 1488 5 is_stmt 1              @ ../ThirdParty/FreeRTOS/Source/CMSIS_RTOS/cmsis_os.c:1488:5
	str	r0, [sp, #4]
	b	.LBB44_3
.Ltmp478:
.LBB44_3:
	.loc	7 1490 1                        @ ../ThirdParty/FreeRTOS/Source/CMSIS_RTOS/cmsis_os.c:1490:1
	ldr	r0, [sp, #4]
	.loc	7 1490 1 epilogue_begin is_stmt 0 @ ../ThirdParty/FreeRTOS/Source/CMSIS_RTOS/cmsis_os.c:1490:1
	add	sp, #8
	pop	{r7, pc}
.Ltmp479:
.Lfunc_end44:
	.size	osThreadResumeAll, .Lfunc_end44-osThreadResumeAll
	.cfi_endproc
	.cantunwind
	.fnend
                                        @ -- End function
	.section	.text.osDelayUntil,"ax",%progbits
	.hidden	osDelayUntil                    @ -- Begin function osDelayUntil
	.globl	osDelayUntil
	.p2align	2
	.type	osDelayUntil,%function
	.code	16                              @ @osDelayUntil
	.thumb_func
osDelayUntil:
.Lfunc_begin45:
	.loc	7 1501 0 is_stmt 1              @ ../ThirdParty/FreeRTOS/Source/CMSIS_RTOS/cmsis_os.c:1501:0
	.fnstart
	.cfi_startproc
@ %bb.0:
	.save	{r7, lr}
	push	{r7, lr}
	.cfi_def_cfa_offset 8
	.cfi_offset lr, -4
	.cfi_offset r7, -8
	.pad	#24
	sub	sp, #24
	.cfi_def_cfa_offset 32
	str	r0, [sp, #20]
	str	r1, [sp, #16]
.Ltmp480:
	.loc	7 1503 23 prologue_end          @ ../ThirdParty/FreeRTOS/Source/CMSIS_RTOS/cmsis_os.c:1503:23
	ldr	r0, [sp, #16]
	.loc	7 1503 14 is_stmt 0             @ ../ThirdParty/FreeRTOS/Source/CMSIS_RTOS/cmsis_os.c:1503:14
	str	r0, [sp, #12]
	.loc	7 1504 34 is_stmt 1             @ ../ThirdParty/FreeRTOS/Source/CMSIS_RTOS/cmsis_os.c:1504:34
	ldr	r0, [sp, #20]
	.loc	7 1504 52 is_stmt 0             @ ../ThirdParty/FreeRTOS/Source/CMSIS_RTOS/cmsis_os.c:1504:52
	str	r0, [sp, #8]                    @ 4-byte Spill
	ldr	r0, [sp, #12]
	cbz	r0, .LBB45_2
	b	.LBB45_1
.LBB45_1:
	.loc	7 1504 60                       @ ../ThirdParty/FreeRTOS/Source/CMSIS_RTOS/cmsis_os.c:1504:60
	ldr	r0, [sp, #12]
	.loc	7 1504 52                       @ ../ThirdParty/FreeRTOS/Source/CMSIS_RTOS/cmsis_os.c:1504:52
	str	r0, [sp, #4]                    @ 4-byte Spill
	b	.LBB45_3
.LBB45_2:
	.loc	7 0 52                          @ ../ThirdParty/FreeRTOS/Source/CMSIS_RTOS/cmsis_os.c:0:52
	movs	r0, #1
	.loc	7 1504 52                       @ ../ThirdParty/FreeRTOS/Source/CMSIS_RTOS/cmsis_os.c:1504:52
	str	r0, [sp, #4]                    @ 4-byte Spill
	b	.LBB45_3
.LBB45_3:
	ldr	r0, [sp, #8]                    @ 4-byte Reload
	ldr	r1, [sp, #4]                    @ 4-byte Reload
	.loc	7 1504 3                        @ ../ThirdParty/FreeRTOS/Source/CMSIS_RTOS/cmsis_os.c:1504:3
	bl	vTaskDelayUntil
	movs	r0, #0
	.loc	7 1506 3 epilogue_begin is_stmt 1 @ ../ThirdParty/FreeRTOS/Source/CMSIS_RTOS/cmsis_os.c:1506:3
	add	sp, #24
	pop	{r7, pc}
.Ltmp481:
.Lfunc_end45:
	.size	osDelayUntil, .Lfunc_end45-osDelayUntil
	.cfi_endproc
	.cantunwind
	.fnend
                                        @ -- End function
	.section	.text.osAbortDelay,"ax",%progbits
	.hidden	osAbortDelay                    @ -- Begin function osAbortDelay
	.globl	osAbortDelay
	.p2align	2
	.type	osAbortDelay,%function
	.code	16                              @ @osAbortDelay
	.thumb_func
osAbortDelay:
.Lfunc_begin46:
	.loc	7 1521 0                        @ ../ThirdParty/FreeRTOS/Source/CMSIS_RTOS/cmsis_os.c:1521:0
	.fnstart
	.cfi_startproc
@ %bb.0:
	.pad	#4
	sub	sp, #4
	.cfi_def_cfa_offset 4
	str	r0, [sp]
	movs	r0, #129
.Ltmp482:
	.loc	7 1530 3 prologue_end epilogue_begin @ ../ThirdParty/FreeRTOS/Source/CMSIS_RTOS/cmsis_os.c:1530:3
	add	sp, #4
	bx	lr
.Ltmp483:
.Lfunc_end46:
	.size	osAbortDelay, .Lfunc_end46-osAbortDelay
	.cfi_endproc
	.cantunwind
	.fnend
                                        @ -- End function
	.section	.text.osThreadList,"ax",%progbits
	.hidden	osThreadList                    @ -- Begin function osThreadList
	.globl	osThreadList
	.p2align	2
	.type	osThreadList,%function
	.code	16                              @ @osThreadList
	.thumb_func
osThreadList:
.Lfunc_begin47:
	.loc	7 1542 0                        @ ../ThirdParty/FreeRTOS/Source/CMSIS_RTOS/cmsis_os.c:1542:0
	.fnstart
	.cfi_startproc
@ %bb.0:
	.pad	#4
	sub	sp, #4
	.cfi_def_cfa_offset 4
	str	r0, [sp]
	movs	r0, #0
.Ltmp484:
	.loc	7 1546 3 prologue_end epilogue_begin @ ../ThirdParty/FreeRTOS/Source/CMSIS_RTOS/cmsis_os.c:1546:3
	add	sp, #4
	bx	lr
.Ltmp485:
.Lfunc_end47:
	.size	osThreadList, .Lfunc_end47-osThreadList
	.cfi_endproc
	.cantunwind
	.fnend
                                        @ -- End function
	.section	.text.osMessagePeek,"ax",%progbits
	.hidden	osMessagePeek                   @ -- Begin function osMessagePeek
	.globl	osMessagePeek
	.p2align	2
	.type	osMessagePeek,%function
	.code	16                              @ @osMessagePeek
	.thumb_func
osMessagePeek:
.Lfunc_begin48:
	.loc	7 1556 0                        @ ../ThirdParty/FreeRTOS/Source/CMSIS_RTOS/cmsis_os.c:1556:0
	.fnstart
	.cfi_startproc
@ %bb.0:
	.save	{r7, lr}
	push	{r7, lr}
	.cfi_def_cfa_offset 8
	.cfi_offset lr, -4
	.cfi_offset r7, -8
	.pad	#24
	sub	sp, #24
	.cfi_def_cfa_offset 32
.Ltmp486:
	@DEBUG_VALUE: osMessagePeek:event <- [$r0+0]
	str	r1, [sp, #4]                    @ 4-byte Spill
	mov	r1, r0
.Ltmp487:
	.loc	7 1558 11 prologue_end          @ ../ThirdParty/FreeRTOS/Source/CMSIS_RTOS/cmsis_os.c:1558:11
	ldr	r0, [sp, #4]                    @ 4-byte Reload
.Ltmp488:
	str	r1, [sp, #8]                    @ 4-byte Spill
.Ltmp489:
	@DEBUG_VALUE: osMessagePeek:event <- [DW_OP_plus_uconst 8, DW_OP_deref] [$sp+0]
	@DEBUG_VALUE: osMessagePeek:event <- [$r1+0]
	.loc	7 0 11 is_stmt 0                @ ../ThirdParty/FreeRTOS/Source/CMSIS_RTOS/cmsis_os.c:0:11
	str	r0, [sp, #20]
	str	r2, [sp, #16]
	.loc	7 1560 26 is_stmt 1             @ ../ThirdParty/FreeRTOS/Source/CMSIS_RTOS/cmsis_os.c:1560:26
	ldr	r0, [sp, #20]
	.loc	7 1560 24 is_stmt 0             @ ../ThirdParty/FreeRTOS/Source/CMSIS_RTOS/cmsis_os.c:1560:24
	str	r0, [r1, #8]
.Ltmp490:
	.loc	7 1562 7 is_stmt 1              @ ../ThirdParty/FreeRTOS/Source/CMSIS_RTOS/cmsis_os.c:1562:7
	ldr	r0, [sp, #20]
.Ltmp491:
	@DEBUG_VALUE: osMessagePeek:event <- [DW_OP_plus_uconst 8, DW_OP_deref] [$sp+0]
	.loc	7 1562 7 is_stmt 0              @ ../ThirdParty/FreeRTOS/Source/CMSIS_RTOS/cmsis_os.c:1562:7
	cbnz	r0, .LBB48_2
	b	.LBB48_1
.Ltmp492:
.LBB48_1:
	@DEBUG_VALUE: osMessagePeek:event <- [DW_OP_plus_uconst 8, DW_OP_deref] [$sp+0]
	.loc	7 0 7                           @ ../ThirdParty/FreeRTOS/Source/CMSIS_RTOS/cmsis_os.c:0:7
	ldr	r1, [sp, #8]                    @ 4-byte Reload
	movs	r0, #128
.Ltmp493:
	.loc	7 1563 18 is_stmt 1             @ ../ThirdParty/FreeRTOS/Source/CMSIS_RTOS/cmsis_os.c:1563:18
	str	r0, [r1]
	.loc	7 1564 5                        @ ../ThirdParty/FreeRTOS/Source/CMSIS_RTOS/cmsis_os.c:1564:5
	b	.LBB48_13
.Ltmp494:
.LBB48_2:
	@DEBUG_VALUE: osMessagePeek:event <- [DW_OP_plus_uconst 8, DW_OP_deref] [$sp+0]
	.loc	7 0 5 is_stmt 0                 @ ../ThirdParty/FreeRTOS/Source/CMSIS_RTOS/cmsis_os.c:0:5
	movs	r0, #0
	.loc	7 1567 9 is_stmt 1              @ ../ThirdParty/FreeRTOS/Source/CMSIS_RTOS/cmsis_os.c:1567:9
	str	r0, [sp, #12]
.Ltmp495:
	.loc	7 1568 7                        @ ../ThirdParty/FreeRTOS/Source/CMSIS_RTOS/cmsis_os.c:1568:7
	ldr	r0, [sp, #16]
.Ltmp496:
	.loc	7 1568 7 is_stmt 0              @ ../ThirdParty/FreeRTOS/Source/CMSIS_RTOS/cmsis_os.c:1568:7
	adds	r0, #1
	cbnz	r0, .LBB48_4
	b	.LBB48_3
.Ltmp497:
.LBB48_3:
	@DEBUG_VALUE: osMessagePeek:event <- [DW_OP_plus_uconst 8, DW_OP_deref] [$sp+0]
	.loc	7 0 7                           @ ../ThirdParty/FreeRTOS/Source/CMSIS_RTOS/cmsis_os.c:0:7
	mov.w	r0, #-1
.Ltmp498:
	.loc	7 1569 11 is_stmt 1             @ ../ThirdParty/FreeRTOS/Source/CMSIS_RTOS/cmsis_os.c:1569:11
	str	r0, [sp, #12]
	.loc	7 1570 3                        @ ../ThirdParty/FreeRTOS/Source/CMSIS_RTOS/cmsis_os.c:1570:3
	b	.LBB48_9
.Ltmp499:
.LBB48_4:
	@DEBUG_VALUE: osMessagePeek:event <- [DW_OP_plus_uconst 8, DW_OP_deref] [$sp+0]
	.loc	7 1571 12                       @ ../ThirdParty/FreeRTOS/Source/CMSIS_RTOS/cmsis_os.c:1571:12
	ldr	r0, [sp, #16]
.Ltmp500:
	.loc	7 1571 12 is_stmt 0             @ ../ThirdParty/FreeRTOS/Source/CMSIS_RTOS/cmsis_os.c:1571:12
	cbz	r0, .LBB48_8
	b	.LBB48_5
.Ltmp501:
.LBB48_5:
	@DEBUG_VALUE: osMessagePeek:event <- [DW_OP_plus_uconst 8, DW_OP_deref] [$sp+0]
	.loc	7 1572 13 is_stmt 1             @ ../ThirdParty/FreeRTOS/Source/CMSIS_RTOS/cmsis_os.c:1572:13
	ldr	r0, [sp, #16]
	.loc	7 1572 11 is_stmt 0             @ ../ThirdParty/FreeRTOS/Source/CMSIS_RTOS/cmsis_os.c:1572:11
	str	r0, [sp, #12]
.Ltmp502:
	.loc	7 1573 9 is_stmt 1              @ ../ThirdParty/FreeRTOS/Source/CMSIS_RTOS/cmsis_os.c:1573:9
	ldr	r0, [sp, #12]
.Ltmp503:
	.loc	7 1573 9 is_stmt 0              @ ../ThirdParty/FreeRTOS/Source/CMSIS_RTOS/cmsis_os.c:1573:9
	cbnz	r0, .LBB48_7
	b	.LBB48_6
.Ltmp504:
.LBB48_6:
	@DEBUG_VALUE: osMessagePeek:event <- [DW_OP_plus_uconst 8, DW_OP_deref] [$sp+0]
	.loc	7 0 9                           @ ../ThirdParty/FreeRTOS/Source/CMSIS_RTOS/cmsis_os.c:0:9
	movs	r0, #1
.Ltmp505:
	.loc	7 1574 13 is_stmt 1             @ ../ThirdParty/FreeRTOS/Source/CMSIS_RTOS/cmsis_os.c:1574:13
	str	r0, [sp, #12]
	.loc	7 1575 5                        @ ../ThirdParty/FreeRTOS/Source/CMSIS_RTOS/cmsis_os.c:1575:5
	b	.LBB48_7
.Ltmp506:
.LBB48_7:
	@DEBUG_VALUE: osMessagePeek:event <- [DW_OP_plus_uconst 8, DW_OP_deref] [$sp+0]
	.loc	7 1576 3                        @ ../ThirdParty/FreeRTOS/Source/CMSIS_RTOS/cmsis_os.c:1576:3
	b	.LBB48_8
.Ltmp507:
.LBB48_8:
	@DEBUG_VALUE: osMessagePeek:event <- [DW_OP_plus_uconst 8, DW_OP_deref] [$sp+0]
	.loc	7 0 3 is_stmt 0                 @ ../ThirdParty/FreeRTOS/Source/CMSIS_RTOS/cmsis_os.c:0:3
	b	.LBB48_9
.Ltmp508:
.LBB48_9:
	@DEBUG_VALUE: osMessagePeek:event <- [DW_OP_plus_uconst 8, DW_OP_deref] [$sp+0]
	.loc	7 1578 18 is_stmt 1             @ ../ThirdParty/FreeRTOS/Source/CMSIS_RTOS/cmsis_os.c:1578:18
	ldr	r1, [sp, #8]                    @ 4-byte Reload
	ldr	r0, [sp, #20]
	.loc	7 1578 35 is_stmt 0             @ ../ThirdParty/FreeRTOS/Source/CMSIS_RTOS/cmsis_os.c:1578:35
	adds	r1, #4
	.loc	7 1578 44                       @ ../ThirdParty/FreeRTOS/Source/CMSIS_RTOS/cmsis_os.c:1578:44
	ldr	r2, [sp, #12]
	.loc	7 1578 7                        @ ../ThirdParty/FreeRTOS/Source/CMSIS_RTOS/cmsis_os.c:1578:7
	bl	xQueuePeek
.Ltmp509:
	.loc	7 1578 7                        @ ../ThirdParty/FreeRTOS/Source/CMSIS_RTOS/cmsis_os.c:1578:7
	cmp	r0, #1
	bne	.LBB48_11
	b	.LBB48_10
.Ltmp510:
.LBB48_10:
	@DEBUG_VALUE: osMessagePeek:event <- [DW_OP_plus_uconst 8, DW_OP_deref] [$sp+0]
	.loc	7 0 7                           @ ../ThirdParty/FreeRTOS/Source/CMSIS_RTOS/cmsis_os.c:0:7
	ldr	r1, [sp, #8]                    @ 4-byte Reload
	movs	r0, #16
.Ltmp511:
	.loc	7 1581 18 is_stmt 1             @ ../ThirdParty/FreeRTOS/Source/CMSIS_RTOS/cmsis_os.c:1581:18
	str	r0, [r1]
	.loc	7 1582 3                        @ ../ThirdParty/FreeRTOS/Source/CMSIS_RTOS/cmsis_os.c:1582:3
	b	.LBB48_12
.Ltmp512:
.LBB48_11:
	@DEBUG_VALUE: osMessagePeek:event <- [DW_OP_plus_uconst 8, DW_OP_deref] [$sp+0]
	.loc	7 1585 21                       @ ../ThirdParty/FreeRTOS/Source/CMSIS_RTOS/cmsis_os.c:1585:21
	ldr	r1, [sp, #8]                    @ 4-byte Reload
	ldr	r0, [sp, #12]
	cmp	r0, #0
	it	ne
	movne	r0, #1
	.loc	7 1585 20 is_stmt 0             @ ../ThirdParty/FreeRTOS/Source/CMSIS_RTOS/cmsis_os.c:1585:20
	lsls	r0, r0, #6
	.loc	7 1585 18                       @ ../ThirdParty/FreeRTOS/Source/CMSIS_RTOS/cmsis_os.c:1585:18
	str	r0, [r1]
	b	.LBB48_12
.Ltmp513:
.LBB48_12:
	@DEBUG_VALUE: osMessagePeek:event <- [DW_OP_plus_uconst 8, DW_OP_deref] [$sp+0]
	.loc	7 1588 3 is_stmt 1              @ ../ThirdParty/FreeRTOS/Source/CMSIS_RTOS/cmsis_os.c:1588:3
	b	.LBB48_13
.Ltmp514:
.LBB48_13:
	@DEBUG_VALUE: osMessagePeek:event <- [DW_OP_plus_uconst 8, DW_OP_deref] [$sp+0]
	.loc	7 1589 1 epilogue_begin         @ ../ThirdParty/FreeRTOS/Source/CMSIS_RTOS/cmsis_os.c:1589:1
	add	sp, #24
	pop	{r7, pc}
.Ltmp515:
.Lfunc_end48:
	.size	osMessagePeek, .Lfunc_end48-osMessagePeek
	.cfi_endproc
	.cantunwind
	.fnend
                                        @ -- End function
	.section	.text.osMessageWaiting,"ax",%progbits
	.hidden	osMessageWaiting                @ -- Begin function osMessageWaiting
	.globl	osMessageWaiting
	.p2align	2
	.type	osMessageWaiting,%function
	.code	16                              @ @osMessageWaiting
	.thumb_func
osMessageWaiting:
.Lfunc_begin49:
	.loc	7 1597 0                        @ ../ThirdParty/FreeRTOS/Source/CMSIS_RTOS/cmsis_os.c:1597:0
	.fnstart
	.cfi_startproc
@ %bb.0:
	.save	{r7, lr}
	push	{r7, lr}
	.cfi_def_cfa_offset 8
	.cfi_offset lr, -4
	.cfi_offset r7, -8
	.pad	#8
	sub	sp, #8
	.cfi_def_cfa_offset 16
	str	r0, [sp]
.Ltmp516:
	.loc	7 1598 7 prologue_end           @ ../ThirdParty/FreeRTOS/Source/CMSIS_RTOS/cmsis_os.c:1598:7
	bl	inHandlerMode
.Ltmp517:
	.loc	7 1598 7 is_stmt 0              @ ../ThirdParty/FreeRTOS/Source/CMSIS_RTOS/cmsis_os.c:1598:7
	cbz	r0, .LBB49_2
	b	.LBB49_1
.LBB49_1:
.Ltmp518:
	.loc	7 1599 42 is_stmt 1             @ ../ThirdParty/FreeRTOS/Source/CMSIS_RTOS/cmsis_os.c:1599:42
	ldr	r0, [sp]
	.loc	7 1599 12 is_stmt 0             @ ../ThirdParty/FreeRTOS/Source/CMSIS_RTOS/cmsis_os.c:1599:12
	bl	uxQueueMessagesWaitingFromISR
	.loc	7 1599 5                        @ ../ThirdParty/FreeRTOS/Source/CMSIS_RTOS/cmsis_os.c:1599:5
	str	r0, [sp, #4]
	b	.LBB49_3
.Ltmp519:
.LBB49_2:
	.loc	7 1603 35 is_stmt 1             @ ../ThirdParty/FreeRTOS/Source/CMSIS_RTOS/cmsis_os.c:1603:35
	ldr	r0, [sp]
	.loc	7 1603 12 is_stmt 0             @ ../ThirdParty/FreeRTOS/Source/CMSIS_RTOS/cmsis_os.c:1603:12
	bl	uxQueueMessagesWaiting
	.loc	7 1603 5                        @ ../ThirdParty/FreeRTOS/Source/CMSIS_RTOS/cmsis_os.c:1603:5
	str	r0, [sp, #4]
	b	.LBB49_3
.Ltmp520:
.LBB49_3:
	.loc	7 1605 1 is_stmt 1              @ ../ThirdParty/FreeRTOS/Source/CMSIS_RTOS/cmsis_os.c:1605:1
	ldr	r0, [sp, #4]
	.loc	7 1605 1 epilogue_begin is_stmt 0 @ ../ThirdParty/FreeRTOS/Source/CMSIS_RTOS/cmsis_os.c:1605:1
	add	sp, #8
	pop	{r7, pc}
.Ltmp521:
.Lfunc_end49:
	.size	osMessageWaiting, .Lfunc_end49-osMessageWaiting
	.cfi_endproc
	.cantunwind
	.fnend
                                        @ -- End function
	.section	.text.osMessageAvailableSpace,"ax",%progbits
	.hidden	osMessageAvailableSpace         @ -- Begin function osMessageAvailableSpace
	.globl	osMessageAvailableSpace
	.p2align	2
	.type	osMessageAvailableSpace,%function
	.code	16                              @ @osMessageAvailableSpace
	.thumb_func
osMessageAvailableSpace:
.Lfunc_begin50:
	.loc	7 1613 0 is_stmt 1              @ ../ThirdParty/FreeRTOS/Source/CMSIS_RTOS/cmsis_os.c:1613:0
	.fnstart
	.cfi_startproc
@ %bb.0:
	.save	{r7, lr}
	push	{r7, lr}
	.cfi_def_cfa_offset 8
	.cfi_offset lr, -4
	.cfi_offset r7, -8
	.pad	#8
	sub	sp, #8
	.cfi_def_cfa_offset 16
	str	r0, [sp, #4]
.Ltmp522:
	.loc	7 1614 33 prologue_end          @ ../ThirdParty/FreeRTOS/Source/CMSIS_RTOS/cmsis_os.c:1614:33
	ldr	r0, [sp, #4]
	.loc	7 1614 10 is_stmt 0             @ ../ThirdParty/FreeRTOS/Source/CMSIS_RTOS/cmsis_os.c:1614:10
	bl	uxQueueSpacesAvailable
	.loc	7 1614 3 epilogue_begin         @ ../ThirdParty/FreeRTOS/Source/CMSIS_RTOS/cmsis_os.c:1614:3
	add	sp, #8
	pop	{r7, pc}
.Ltmp523:
.Lfunc_end50:
	.size	osMessageAvailableSpace, .Lfunc_end50-osMessageAvailableSpace
	.cfi_endproc
	.cantunwind
	.fnend
                                        @ -- End function
	.section	.text.osMessageDelete,"ax",%progbits
	.hidden	osMessageDelete                 @ -- Begin function osMessageDelete
	.globl	osMessageDelete
	.p2align	2
	.type	osMessageDelete,%function
	.code	16                              @ @osMessageDelete
	.thumb_func
osMessageDelete:
.Lfunc_begin51:
	.loc	7 1623 0 is_stmt 1              @ ../ThirdParty/FreeRTOS/Source/CMSIS_RTOS/cmsis_os.c:1623:0
	.fnstart
	.cfi_startproc
@ %bb.0:
	.save	{r7, lr}
	push	{r7, lr}
	.cfi_def_cfa_offset 8
	.cfi_offset lr, -4
	.cfi_offset r7, -8
	.pad	#8
	sub	sp, #8
	.cfi_def_cfa_offset 16
	str	r0, [sp]
.Ltmp524:
	.loc	7 1624 7 prologue_end           @ ../ThirdParty/FreeRTOS/Source/CMSIS_RTOS/cmsis_os.c:1624:7
	bl	inHandlerMode
.Ltmp525:
	.loc	7 1624 7 is_stmt 0              @ ../ThirdParty/FreeRTOS/Source/CMSIS_RTOS/cmsis_os.c:1624:7
	cbz	r0, .LBB51_2
	b	.LBB51_1
.LBB51_1:
	.loc	7 0 7                           @ ../ThirdParty/FreeRTOS/Source/CMSIS_RTOS/cmsis_os.c:0:7
	movs	r0, #130
.Ltmp526:
	.loc	7 1625 5 is_stmt 1              @ ../ThirdParty/FreeRTOS/Source/CMSIS_RTOS/cmsis_os.c:1625:5
	str	r0, [sp, #4]
	b	.LBB51_3
.Ltmp527:
.LBB51_2:
	.loc	7 1628 16                       @ ../ThirdParty/FreeRTOS/Source/CMSIS_RTOS/cmsis_os.c:1628:16
	ldr	r0, [sp]
	.loc	7 1628 3 is_stmt 0              @ ../ThirdParty/FreeRTOS/Source/CMSIS_RTOS/cmsis_os.c:1628:3
	bl	vQueueDelete
	movs	r0, #0
	.loc	7 1630 3 is_stmt 1              @ ../ThirdParty/FreeRTOS/Source/CMSIS_RTOS/cmsis_os.c:1630:3
	str	r0, [sp, #4]
	b	.LBB51_3
.LBB51_3:
	.loc	7 1631 1                        @ ../ThirdParty/FreeRTOS/Source/CMSIS_RTOS/cmsis_os.c:1631:1
	ldr	r0, [sp, #4]
	.loc	7 1631 1 epilogue_begin is_stmt 0 @ ../ThirdParty/FreeRTOS/Source/CMSIS_RTOS/cmsis_os.c:1631:1
	add	sp, #8
	pop	{r7, pc}
.Ltmp528:
.Lfunc_end51:
	.size	osMessageDelete, .Lfunc_end51-osMessageDelete
	.cfi_endproc
	.cantunwind
	.fnend
                                        @ -- End function
	.section	.text.osRecursiveMutexCreate,"ax",%progbits
	.hidden	osRecursiveMutexCreate          @ -- Begin function osRecursiveMutexCreate
	.globl	osRecursiveMutexCreate
	.p2align	2
	.type	osRecursiveMutexCreate,%function
	.code	16                              @ @osRecursiveMutexCreate
	.thumb_func
osRecursiveMutexCreate:
.Lfunc_begin52:
	.loc	7 1639 0 is_stmt 1              @ ../ThirdParty/FreeRTOS/Source/CMSIS_RTOS/cmsis_os.c:1639:0
	.fnstart
	.cfi_startproc
@ %bb.0:
	.pad	#4
	sub	sp, #4
	.cfi_def_cfa_offset 4
	str	r0, [sp]
	movs	r0, #0
.Ltmp529:
	.loc	7 1655 3 prologue_end epilogue_begin @ ../ThirdParty/FreeRTOS/Source/CMSIS_RTOS/cmsis_os.c:1655:3
	add	sp, #4
	bx	lr
.Ltmp530:
.Lfunc_end52:
	.size	osRecursiveMutexCreate, .Lfunc_end52-osRecursiveMutexCreate
	.cfi_endproc
	.cantunwind
	.fnend
                                        @ -- End function
	.section	.text.osRecursiveMutexRelease,"ax",%progbits
	.hidden	osRecursiveMutexRelease         @ -- Begin function osRecursiveMutexRelease
	.globl	osRecursiveMutexRelease
	.p2align	2
	.type	osRecursiveMutexRelease,%function
	.code	16                              @ @osRecursiveMutexRelease
	.thumb_func
osRecursiveMutexRelease:
.Lfunc_begin53:
	.loc	7 1665 0                        @ ../ThirdParty/FreeRTOS/Source/CMSIS_RTOS/cmsis_os.c:1665:0
	.fnstart
	.cfi_startproc
@ %bb.0:
	.pad	#4
	sub	sp, #4
	.cfi_def_cfa_offset 4
	str	r0, [sp]
	movs	r0, #129
.Ltmp531:
	.loc	7 1675 2 prologue_end epilogue_begin @ ../ThirdParty/FreeRTOS/Source/CMSIS_RTOS/cmsis_os.c:1675:2
	add	sp, #4
	bx	lr
.Ltmp532:
.Lfunc_end53:
	.size	osRecursiveMutexRelease, .Lfunc_end53-osRecursiveMutexRelease
	.cfi_endproc
	.cantunwind
	.fnend
                                        @ -- End function
	.section	.text.osRecursiveMutexWait,"ax",%progbits
	.hidden	osRecursiveMutexWait            @ -- Begin function osRecursiveMutexWait
	.globl	osRecursiveMutexWait
	.p2align	2
	.type	osRecursiveMutexWait,%function
	.code	16                              @ @osRecursiveMutexWait
	.thumb_func
osRecursiveMutexWait:
.Lfunc_begin54:
	.loc	7 1686 0                        @ ../ThirdParty/FreeRTOS/Source/CMSIS_RTOS/cmsis_os.c:1686:0
	.fnstart
	.cfi_startproc
@ %bb.0:
	.pad	#8
	sub	sp, #8
	.cfi_def_cfa_offset 8
	str	r0, [sp, #4]
	str	r1, [sp]
	movs	r0, #129
.Ltmp533:
	.loc	7 1715 2 prologue_end epilogue_begin @ ../ThirdParty/FreeRTOS/Source/CMSIS_RTOS/cmsis_os.c:1715:2
	add	sp, #8
	bx	lr
.Ltmp534:
.Lfunc_end54:
	.size	osRecursiveMutexWait, .Lfunc_end54-osRecursiveMutexWait
	.cfi_endproc
	.cantunwind
	.fnend
                                        @ -- End function
	.section	.text.osSemaphoreGetCount,"ax",%progbits
	.hidden	osSemaphoreGetCount             @ -- Begin function osSemaphoreGetCount
	.globl	osSemaphoreGetCount
	.p2align	2
	.type	osSemaphoreGetCount,%function
	.code	16                              @ @osSemaphoreGetCount
	.thumb_func
osSemaphoreGetCount:
.Lfunc_begin55:
	.loc	7 1725 0                        @ ../ThirdParty/FreeRTOS/Source/CMSIS_RTOS/cmsis_os.c:1725:0
	.fnstart
	.cfi_startproc
@ %bb.0:
	.save	{r7, lr}
	push	{r7, lr}
	.cfi_def_cfa_offset 8
	.cfi_offset lr, -4
	.cfi_offset r7, -8
	.pad	#8
	sub	sp, #8
	.cfi_def_cfa_offset 16
	str	r0, [sp, #4]
.Ltmp535:
	.loc	7 1726 10 prologue_end          @ ../ThirdParty/FreeRTOS/Source/CMSIS_RTOS/cmsis_os.c:1726:10
	ldr	r0, [sp, #4]
	bl	uxQueueMessagesWaiting
	.loc	7 1726 3 epilogue_begin is_stmt 0 @ ../ThirdParty/FreeRTOS/Source/CMSIS_RTOS/cmsis_os.c:1726:3
	add	sp, #8
	pop	{r7, pc}
.Ltmp536:
.Lfunc_end55:
	.size	osSemaphoreGetCount, .Lfunc_end55-osSemaphoreGetCount
	.cfi_endproc
	.cantunwind
	.fnend
                                        @ -- End function
	.file	9 "D:\\ikingtec\\Robot\\ODrive\\Firmware\\MDK-ARM" "../ThirdParty/FreeRTOS/Source/include\\timers.h"
	.file	10 "D:\\ikingtec\\Robot\\ODrive\\Firmware\\MDK-ARM" "../ThirdParty/FreeRTOS/Source/include\\semphr.h"
	.section	".note.GNU-stack","",%progbits
	.eabi_attribute	30, 6	@ Tag_ABI_optimization_goals
	.ARM_attribute	16, 1	@ Tag_AV_eba