	.text
	.syntax unified
	.eabi_attribute	67, "2.09"	@ Tag_conformance
	.cpu	cortex-m4
	.eabi_attribute	6, 13	@ Tag_CPU_arch
	.eabi_attribute	7, 77	@ Tag_CPU_arch_profile
	.eabi_attribute	8, 0	@ Tag_ARM_ISA_use
	.eabi_attribute	9, 2	@ Tag_THUMB_ISA_use
	.fpu	fpv4-sp-d16
	.eabi_attribute	27, 1	@ Tag_ABI_HardFP_use
	.eabi_attribute	36, 1	@ Tag_FP_HP_extension
	.eabi_attribute	34, 1	@ Tag_CPU_unaligned_access
	.eabi_attribute	17, 1	@ Tag_ABI_PCS_GOT_use
	.eabi_attribute	20, 2	@ Tag_ABI_FP_denormal
	.eabi_attribute	21, 0	@ Tag_ABI_FP_exceptions
	.eabi_attribute	23, 1	@ Tag_ABI_FP_number_model
	.eabi_attribute	24, 1	@ Tag_ABI_align_needed
	.eabi_attribute	25, 1	@ Tag_ABI_align_preserved
	.eabi_attribute	28, 1	@ Tag_ABI_VFP_args
	.eabi_attribute	38, 1	@ Tag_ABI_FP_16bit_format
	.eabi_attribute	18, 2	@ Tag_ABI_PCS_wchar_t
	.eabi_attribute	26, 1	@ Tag_ABI_enum_size
	.eabi_attribute	14, 0	@ Tag_ABI_PCS_R9_use
	.file	"drv8301.cpp"
	.file	1 "D:\\Embed\\MDK\\MDK\\ARM\\ARMCompilerV621\\Bin\\..\\include" "stdint.h"
	.file	2 "D:\\ikingtec\\Robot\\ODrive\\Firmware\\MDK-ARM" "../ThirdParty/STM32F4xx_HAL_Driver/Inc\\stm32f4xx_hal_spi.h"
	.file	3 "D:\\ikingtec\\Robot\\ODrive\\Firmware\\MDK-ARM" "../Drivers/DRV8301/drv8301.hpp"
	.file	4 "D:\\ikingtec\\Robot\\ODrive\\Firmware\\MDK-ARM" "../ThirdParty/STM32F4xx_HAL_Driver/Inc\\stm32f4xx_hal_gpio.h"
	.file	5 "D:\\ikingtec\\Robot\\ODrive\\Firmware\\MDK-ARM" "../../Firmware\\Drivers/STM32/stm32_system.h"
	.section	.text._ZN7Drv83016configEfPf,"ax",%progbits
	.hidden	_ZN7Drv83016configEfPf          @ -- Begin function _ZN7Drv83016configEfPf
	.globl	_ZN7Drv83016configEfPf
	.p2align	2
	.type	_ZN7Drv83016configEfPf,%function
	.code	16                              @ @_ZN7Drv83016configEfPf
	.thumb_func
_ZN7Drv83016configEfPf:
.Lfunc_begin0:
	.file	6 "D:\\ikingtec\\Robot\\ODrive\\Firmware\\MDK-ARM" "../Drivers/DRV8301/drv8301.cpp"
	.loc	6 21 0                          @ ../Drivers/DRV8301/drv8301.cpp:21:0
	.fnstart
	.cfi_sections .debug_frame
	.cfi_startproc
@ %bb.0:
	.save	{r7, lr}
	push	{r7, lr}
	.cfi_def_cfa_offset 8
	.cfi_offset lr, -4
	.cfi_offset r7, -8
	.pad	#56
	sub	sp, #56
	.cfi_def_cfa_offset 64
	add	r2, sp, #48
	str	r2, [sp, #8]                    @ 4-byte Spill
	mov	r2, r0
	ldr	r0, [sp, #8]                    @ 4-byte Reload
	str	r2, [sp, #52]
	vstr	s0, [r0]
	str	r1, [sp, #44]
	ldr	r0, [sp, #52]
	str	r0, [sp, #12]                   @ 4-byte Spill
	movs	r0, #3
.Ltmp0:
	.loc	6 31 14 prologue_end            @ ../Drivers/DRV8301/drv8301.cpp:31:14
	strh.w	r0, [sp, #42]
	movs	r0, #0
	movt	r0, #17056
	.loc	6 32 11                         @ ../Drivers/DRV8301/drv8301.cpp:32:11
	str	r0, [sp, #36]
	movs	r0, #0
	movt	r0, #16928
	str	r0, [sp, #32]
	movs	r0, #0
	movt	r0, #16800
	str	r0, [sp, #28]
	movs	r0, #0
	movt	r0, #16672
	str	r0, [sp, #24]
	.loc	6 33 5                          @ ../Drivers/DRV8301/drv8301.cpp:33:5
	b	.LBB0_1
.LBB0_1:                                @ =>This Inner Loop Header: Depth=1
	.loc	6 33 12 is_stmt 0               @ ../Drivers/DRV8301/drv8301.cpp:33:12
	ldrh.w	r1, [sp, #42]
	movs	r0, #0
	.loc	6 33 25                         @ ../Drivers/DRV8301/drv8301.cpp:33:25
	str	r0, [sp, #4]                    @ 4-byte Spill
	cbz	r1, .LBB0_3
	b	.LBB0_2
.LBB0_2:                                @   in Loop: Header=BB0_1 Depth=1
	.loc	6 33 42                         @ ../Drivers/DRV8301/drv8301.cpp:33:42
	ldr	r0, [sp, #8]                    @ 4-byte Reload
	ldrh.w	r2, [sp, #42]
	add	r1, sp, #24
	.loc	6 33 29                         @ ../Drivers/DRV8301/drv8301.cpp:33:29
	add.w	r1, r1, r2, lsl #2
	vldr	s0, [r1]
	.loc	6 33 58                         @ ../Drivers/DRV8301/drv8301.cpp:33:58
	vldr	s2, [r0]
	movs	r0, #0
	.loc	6 33 56                         @ ../Drivers/DRV8301/drv8301.cpp:33:56
	vcmp.f32	s0, s2
	vmrs	APSR_nzcv, fpscr
	it	gt
	movgt	r0, #1
	str	r0, [sp, #4]                    @ 4-byte Spill
	b	.LBB0_3
.LBB0_3:                                @   in Loop: Header=BB0_1 Depth=1
	.loc	6 0 0                           @ ../Drivers/DRV8301/drv8301.cpp:0:0
	ldr	r0, [sp, #4]                    @ 4-byte Reload
	.loc	6 33 5                          @ ../Drivers/DRV8301/drv8301.cpp:33:5
	lsls	r0, r0, #31
	cbz	r0, .LBB0_5
	b	.LBB0_4
.LBB0_4:                                @   in Loop: Header=BB0_1 Depth=1
.Ltmp1:
	.loc	6 34 21 is_stmt 1               @ ../Drivers/DRV8301/drv8301.cpp:34:21
	ldrh.w	r0, [sp, #42]
	subs	r0, #1
	strh.w	r0, [sp, #42]
.Ltmp2:
	.loc	6 33 5                          @ ../Drivers/DRV8301/drv8301.cpp:33:5
	b	.LBB0_1
.LBB0_5:
.Ltmp3:
	.loc	6 37 9                          @ ../Drivers/DRV8301/drv8301.cpp:37:9
	ldr	r0, [sp, #44]
.Ltmp4:
	.loc	6 37 9 is_stmt 0                @ ../Drivers/DRV8301/drv8301.cpp:37:9
	cbz	r0, .LBB0_7
	b	.LBB0_6
.LBB0_6:
.Ltmp5:
	.loc	6 38 37 is_stmt 1               @ ../Drivers/DRV8301/drv8301.cpp:38:37
	ldrh.w	r1, [sp, #42]
	add	r0, sp, #24
	.loc	6 38 24 is_stmt 0               @ ../Drivers/DRV8301/drv8301.cpp:38:24
	ldr.w	r0, [r0, r1, lsl #2]
	.loc	6 38 10                         @ ../Drivers/DRV8301/drv8301.cpp:38:10
	ldr	r1, [sp, #44]
	.loc	6 38 22                         @ ../Drivers/DRV8301/drv8301.cpp:38:22
	str	r0, [r1]
	.loc	6 39 5 is_stmt 1                @ ../Drivers/DRV8301/drv8301.cpp:39:5
	b	.LBB0_7
.Ltmp6:
.LBB0_7:
	.loc	6 0 5 is_stmt 0                 @ ../Drivers/DRV8301/drv8301.cpp:0:5
	ldr	r0, [sp, #12]                   @ 4-byte Reload
	mov.w	r1, #1360
	.loc	6 43 35 is_stmt 1               @ ../Drivers/DRV8301/drv8301.cpp:43:35
	strh.w	r1, [sp, #20]
	.loc	6 53 12                         @ ../Drivers/DRV8301/drv8301.cpp:53:12
	ldrh.w	r1, [sp, #42]
	.loc	6 53 25 is_stmt 0               @ ../Drivers/DRV8301/drv8301.cpp:53:25
	lsls	r1, r1, #2
	.loc	6 50 35 is_stmt 1               @ ../Drivers/DRV8301/drv8301.cpp:50:35
	strh.w	r1, [sp, #22]
	.loc	6 56 30                         @ ../Drivers/DRV8301/drv8301.cpp:56:30
	ldrh	r1, [r0, #36]
	.loc	6 56 63 is_stmt 0               @ ../Drivers/DRV8301/drv8301.cpp:56:63
	ldrh.w	r2, [sp, #20]
	movs	r0, #0
	.loc	6 57 20 is_stmt 1               @ ../Drivers/DRV8301/drv8301.cpp:57:20
	cmp	r1, r2
	str	r0, [sp]                        @ 4-byte Spill
	bne	.LBB0_9
	b	.LBB0_8
.LBB0_8:
	.loc	6 57 30 is_stmt 0               @ ../Drivers/DRV8301/drv8301.cpp:57:30
	ldr	r0, [sp, #12]                   @ 4-byte Reload
	ldrh	r0, [r0, #38]
	.loc	6 57 63                         @ ../Drivers/DRV8301/drv8301.cpp:57:63
	ldrh.w	r1, [sp, #22]
	.loc	6 57 49                         @ ../Drivers/DRV8301/drv8301.cpp:57:49
	subs	r0, r0, r1
	clz	r0, r0
	lsrs	r0, r0, #5
	str	r0, [sp]                        @ 4-byte Spill
	b	.LBB0_9
.LBB0_9:
	.loc	6 0 0                           @ ../Drivers/DRV8301/drv8301.cpp:0:0
	ldr	r0, [sp]                        @ 4-byte Reload
	.loc	6 56 10 is_stmt 1               @ ../Drivers/DRV8301/drv8301.cpp:56:10
	and	r0, r0, #1
	strb.w	r0, [sp, #19]
.Ltmp7:
	.loc	6 59 10                         @ ../Drivers/DRV8301/drv8301.cpp:59:10
	ldrb.w	r0, [sp, #19]
.Ltmp8:
	.loc	6 59 9 is_stmt 0                @ ../Drivers/DRV8301/drv8301.cpp:59:9
	lsls	r0, r0, #31
	cbnz	r0, .LBB0_11
	b	.LBB0_10
.LBB0_10:
.Ltmp9:
	.loc	6 60 15 is_stmt 1               @ ../Drivers/DRV8301/drv8301.cpp:60:15
	ldr	r0, [sp, #12]                   @ 4-byte Reload
	ldr	r1, [sp, #20]
	str	r1, [r0, #36]
	movs	r1, #0
	.loc	6 61 16                         @ ../Drivers/DRV8301/drv8301.cpp:61:16
	strb.w	r1, [r0, #44]
	.loc	6 62 9                          @ ../Drivers/DRV8301/drv8301.cpp:62:9
	adds	r0, #20
	.loc	6 62 22 is_stmt 0               @ ../Drivers/DRV8301/drv8301.cpp:62:22
	bl	_ZN9Stm32Gpio5writeEb
	.loc	6 63 5 is_stmt 1                @ ../Drivers/DRV8301/drv8301.cpp:63:5
	b	.LBB0_11
.Ltmp10:
.LBB0_11:
	.loc	6 0 5 is_stmt 0                 @ ../Drivers/DRV8301/drv8301.cpp:0:5
	movs	r0, #1
	.loc	6 65 5 epilogue_begin is_stmt 1 @ ../Drivers/DRV8301/drv8301.cpp:65:5
	add	sp, #56
	pop	{r7, pc}
.Ltmp11:
.Lfunc_end0:
	.size	_ZN7Drv83016configEfPf, .Lfunc_end0-_ZN7Drv83016configEfPf
	.cfi_endproc
	.cantunwind
	.fnend
                                        @ -- End function
	.section	.text._ZN9Stm32Gpio5writeEb,"axG",%progbits,_ZN9Stm32Gpio5writeEb,comdat
	.hidden	_ZN9Stm32Gpio5writeEb           @ -- Begin function _ZN9Stm32Gpio5writeEb
	.weak	_ZN9Stm32Gpio5writeEb
	.p2align	2
	.type	_ZN9Stm32Gpio5writeEb,%function
	.code	16                              @ @_ZN9Stm32Gpio5writeEb
	.thumb_func
_ZN9Stm32Gpio5writeEb:
.Lfunc_begin1:
	.file	7 "D:\\ikingtec\\Robot\\ODrive\\Firmware\\MDK-ARM" "../../Firmware\\Drivers/STM32/stm32_gpio.hpp"
	.loc	7 24 0                          @ ../../Firmware\Drivers/STM32/stm32_gpio.hpp:24:0
	.fnstart
	.cfi_startproc
@ %bb.0:
	.save	{r7, lr}
	push	{r7, lr}
	.cfi_def_cfa_offset 8
	.cfi_offset lr, -4
	.cfi_offset r7, -8
	.pad	#16
	sub	sp, #16
	.cfi_def_cfa_offset 24
                                        @ kill: def $r2 killed $r1
	str	r0, [sp, #12]
	strb.w	r1, [sp, #11]
	ldr	r0, [sp, #12]
.Ltmp12:
	.loc	7 25 13 prologue_end            @ ../../Firmware\Drivers/STM32/stm32_gpio.hpp:25:13
	str	r0, [sp, #4]                    @ 4-byte Spill
	ldr	r0, [r0]
.Ltmp13:
	.loc	7 25 13 is_stmt 0               @ ../../Firmware\Drivers/STM32/stm32_gpio.hpp:25:13
	cbz	r0, .LBB1_2
	b	.LBB1_1
.LBB1_1:
.Ltmp14:
	.loc	7 26 31 is_stmt 1               @ ../../Firmware\Drivers/STM32/stm32_gpio.hpp:26:31
	ldr	r1, [sp, #4]                    @ 4-byte Reload
	ldr	r0, [r1]
	.loc	7 26 38 is_stmt 0               @ ../../Firmware\Drivers/STM32/stm32_gpio.hpp:26:38
	ldrh	r1, [r1, #4]
	.loc	7 26 13                         @ ../../Firmware\Drivers/STM32/stm32_gpio.hpp:26:13
	ldrb.w	r2, [sp, #11]
	and	r2, r2, #1
	bl	HAL_GPIO_WritePin
	.loc	7 27 9 is_stmt 1                @ ../../Firmware\Drivers/STM32/stm32_gpio.hpp:27:9
	b	.LBB1_2
.Ltmp15:
.LBB1_2:
	.loc	7 28 5 epilogue_begin           @ ../../Firmware\Drivers/STM32/stm32_gpio.hpp:28:5
	add	sp, #16
	pop	{r7, pc}
.Ltmp16:
.Lfunc_end1:
	.size	_ZN9Stm32Gpio5writeEb, .Lfunc_end1-_ZN9Stm32Gpio5writeEb
	.cfi_endproc
	.cantunwind
	.fnend
                                        @ -- End function
	.section	.text._ZN7Drv83014initEv,"ax",%progbits
	.hidden	_ZN7Drv83014initEv              @ -- Begin function _ZN7Drv83014initEv
	.globl	_ZN7Drv83014initEv
	.p2align	2
	.type	_ZN7Drv83014initEv,%function
	.code	16                              @ @_ZN7Drv83014initEv
	.thumb_func
_ZN7Drv83014initEv:
.Lfunc_begin2:
	.loc	6 68 0                          @ ../Drivers/DRV8301/drv8301.cpp:68:0
	.fnstart
	.cfi_startproc
@ %bb.0:
	.save	{r7, lr}
	push	{r7, lr}
	.cfi_def_cfa_offset 8
	.cfi_offset lr, -4
	.cfi_offset r7, -8
	.pad	#40
	sub	sp, #40
	.cfi_def_cfa_offset 48
	str	r0, [sp, #32]
	ldr	r0, [sp, #32]
.Ltmp17:
	.loc	6 71 9 prologue_end             @ ../Drivers/DRV8301/drv8301.cpp:71:9
	str	r0, [sp, #16]                   @ 4-byte Spill
	ldrb.w	r0, [r0, #44]
.Ltmp18:
	.loc	6 71 9 is_stmt 0                @ ../Drivers/DRV8301/drv8301.cpp:71:9
	cmp	r0, #2
	bne	.LBB2_2
	b	.LBB2_1
.LBB2_1:
	.loc	6 0 9                           @ ../Drivers/DRV8301/drv8301.cpp:0:9
	movs	r0, #1
.Ltmp19:
	.loc	6 72 9 is_stmt 1                @ ../Drivers/DRV8301/drv8301.cpp:72:9
	strb.w	r0, [sp, #39]
	b	.LBB2_26
.Ltmp20:
.LBB2_2:
	.loc	6 77 5                          @ ../Drivers/DRV8301/drv8301.cpp:77:5
	ldr	r0, [sp, #16]                   @ 4-byte Reload
	adds	r0, #20
	.loc	6 77 18 is_stmt 0               @ ../Drivers/DRV8301/drv8301.cpp:77:18
	str	r0, [sp, #4]                    @ 4-byte Spill
	movs	r1, #0
	str	r1, [sp, #8]                    @ 4-byte Spill
	bl	_ZN9Stm32Gpio5writeEb
	movs	r0, #40
	.loc	6 78 5 is_stmt 1                @ ../Drivers/DRV8301/drv8301.cpp:78:5
	bl	_Z8delay_usj
	ldr	r0, [sp, #4]                    @ 4-byte Reload
	ldr	r2, [sp, #16]                   @ 4-byte Reload
	ldr	r1, [sp, #8]                    @ 4-byte Reload
	.loc	6 79 12                         @ ../Drivers/DRV8301/drv8301.cpp:79:12
	strb.w	r1, [r2, #44]
	movs	r1, #1
	.loc	6 80 18                         @ ../Drivers/DRV8301/drv8301.cpp:80:18
	bl	_ZN9Stm32Gpio5writeEb
	movs	r0, #20
	.loc	6 81 5                          @ ../Drivers/DRV8301/drv8301.cpp:81:5
	bl	osDelay
                                        @ kill: def $r1 killed $r0
	.loc	6 84 57                         @ ../Drivers/DRV8301/drv8301.cpp:84:57
	ldr	r0, [sp, #16]                   @ 4-byte Reload
	ldrh	r2, [r0, #36]
	mov.w	r1, #4096
	.loc	6 84 23 is_stmt 0               @ ../Drivers/DRV8301/drv8301.cpp:84:23
	bl	_ZN7Drv83019write_regENS_9RegName_eEt
	mov	r1, r0
	ldr	r0, [sp, #8]                    @ 4-byte Reload
	.loc	6 85 24 is_stmt 1               @ ../Drivers/DRV8301/drv8301.cpp:85:24
	str	r0, [sp, #12]                   @ 4-byte Spill
	cbz	r1, .LBB2_8
	b	.LBB2_3
.LBB2_3:
	.loc	6 85 61 is_stmt 0               @ ../Drivers/DRV8301/drv8301.cpp:85:61
	ldr	r0, [sp, #16]                   @ 4-byte Reload
	ldrh	r2, [r0, #36]
	mov.w	r1, #4096
	.loc	6 85 27                         @ ../Drivers/DRV8301/drv8301.cpp:85:27
	bl	_ZN7Drv83019write_regENS_9RegName_eEt
	mov	r1, r0
	movs	r0, #0
	.loc	6 86 24 is_stmt 1               @ ../Drivers/DRV8301/drv8301.cpp:86:24
	str	r0, [sp, #12]                   @ 4-byte Spill
	cbz	r1, .LBB2_8
	b	.LBB2_4
.LBB2_4:
	.loc	6 86 61 is_stmt 0               @ ../Drivers/DRV8301/drv8301.cpp:86:61
	ldr	r0, [sp, #16]                   @ 4-byte Reload
	ldrh	r2, [r0, #36]
	mov.w	r1, #4096
	.loc	6 86 27                         @ ../Drivers/DRV8301/drv8301.cpp:86:27
	bl	_ZN7Drv83019write_regENS_9RegName_eEt
	mov	r1, r0
	movs	r0, #0
	.loc	6 87 24 is_stmt 1               @ ../Drivers/DRV8301/drv8301.cpp:87:24
	str	r0, [sp, #12]                   @ 4-byte Spill
	cbz	r1, .LBB2_8
	b	.LBB2_5
.LBB2_5:
	.loc	6 87 61 is_stmt 0               @ ../Drivers/DRV8301/drv8301.cpp:87:61
	ldr	r0, [sp, #16]                   @ 4-byte Reload
	ldrh	r2, [r0, #36]
	mov.w	r1, #4096
	.loc	6 87 27                         @ ../Drivers/DRV8301/drv8301.cpp:87:27
	bl	_ZN7Drv83019write_regENS_9RegName_eEt
	mov	r1, r0
	movs	r0, #0
	.loc	6 88 24 is_stmt 1               @ ../Drivers/DRV8301/drv8301.cpp:88:24
	str	r0, [sp, #12]                   @ 4-byte Spill
	cbz	r1, .LBB2_8
	b	.LBB2_6
.LBB2_6:
	.loc	6 88 61 is_stmt 0               @ ../Drivers/DRV8301/drv8301.cpp:88:61
	ldr	r0, [sp, #16]                   @ 4-byte Reload
	ldrh	r2, [r0, #36]
	mov.w	r1, #4096
	.loc	6 88 27                         @ ../Drivers/DRV8301/drv8301.cpp:88:27
	bl	_ZN7Drv83019write_regENS_9RegName_eEt
	mov	r1, r0
	movs	r0, #0
	.loc	6 89 24 is_stmt 1               @ ../Drivers/DRV8301/drv8301.cpp:89:24
	str	r0, [sp, #12]                   @ 4-byte Spill
	cbz	r1, .LBB2_8
	b	.LBB2_7
.LBB2_7:
	.loc	6 89 61 is_stmt 0               @ ../Drivers/DRV8301/drv8301.cpp:89:61
	ldr	r0, [sp, #16]                   @ 4-byte Reload
	ldrh	r2, [r0, #38]
	mov.w	r1, #6144
	.loc	6 89 27                         @ ../Drivers/DRV8301/drv8301.cpp:89:27
	bl	_ZN7Drv83019write_regENS_9RegName_eEt
	str	r0, [sp, #12]                   @ 4-byte Spill
	b	.LBB2_8
.LBB2_8:
	.loc	6 0 0                           @ ../Drivers/DRV8301/drv8301.cpp:0:0
	ldr	r0, [sp, #12]                   @ 4-byte Reload
	.loc	6 84 10 is_stmt 1               @ ../Drivers/DRV8301/drv8301.cpp:84:10
	and	r0, r0, #1
	strb.w	r0, [sp, #29]
.Ltmp21:
	.loc	6 90 10                         @ ../Drivers/DRV8301/drv8301.cpp:90:10
	ldrb.w	r0, [sp, #29]
.Ltmp22:
	.loc	6 90 9 is_stmt 0                @ ../Drivers/DRV8301/drv8301.cpp:90:9
	lsls	r0, r0, #31
	cbnz	r0, .LBB2_10
	b	.LBB2_9
.LBB2_9:
	.loc	6 0 9                           @ ../Drivers/DRV8301/drv8301.cpp:0:9
	movs	r0, #0
.Ltmp23:
	.loc	6 91 9 is_stmt 1                @ ../Drivers/DRV8301/drv8301.cpp:91:9
	strb.w	r0, [sp, #39]
	b	.LBB2_26
.Ltmp24:
.LBB2_10:
	.loc	6 0 9 is_stmt 0                 @ ../Drivers/DRV8301/drv8301.cpp:0:9
	movs	r0, #100
	.loc	6 95 5 is_stmt 1                @ ../Drivers/DRV8301/drv8301.cpp:95:5
	bl	_Z8delay_usj
	ldr	r0, [sp, #16]                   @ 4-byte Reload
	movs	r1, #1
	.loc	6 96 12                         @ ../Drivers/DRV8301/drv8301.cpp:96:12
	strb.w	r1, [r0, #44]
	mov.w	r1, #4096
	add.w	r2, sp, #30
	.loc	6 98 25                         @ ../Drivers/DRV8301/drv8301.cpp:98:25
	bl	_ZN7Drv83018read_regENS_9RegName_eEPt
	mov	r1, r0
	movs	r0, #0
	.loc	6 98 58 is_stmt 0               @ ../Drivers/DRV8301/drv8301.cpp:98:58
	str	r0, [sp]                        @ 4-byte Spill
	cbz	r1, .LBB2_14
	b	.LBB2_11
.LBB2_11:
	.loc	6 98 62                         @ ../Drivers/DRV8301/drv8301.cpp:98:62
	ldr	r0, [sp, #16]                   @ 4-byte Reload
	ldrh.w	r1, [sp, #30]
	.loc	6 98 75                         @ ../Drivers/DRV8301/drv8301.cpp:98:75
	ldrh	r2, [r0, #36]
	movs	r0, #0
	.loc	6 99 23 is_stmt 1               @ ../Drivers/DRV8301/drv8301.cpp:99:23
	cmp	r1, r2
	str	r0, [sp]                        @ 4-byte Spill
	bne	.LBB2_14
	b	.LBB2_12
.LBB2_12:
	.loc	6 99 26 is_stmt 0               @ ../Drivers/DRV8301/drv8301.cpp:99:26
	ldr	r0, [sp, #16]                   @ 4-byte Reload
	mov.w	r1, #6144
	add.w	r2, sp, #30
	bl	_ZN7Drv83018read_regENS_9RegName_eEPt
	mov	r1, r0
	movs	r0, #0
	.loc	6 99 59                         @ ../Drivers/DRV8301/drv8301.cpp:99:59
	str	r0, [sp]                        @ 4-byte Spill
	cbz	r1, .LBB2_14
	b	.LBB2_13
.LBB2_13:
	.loc	6 99 63                         @ ../Drivers/DRV8301/drv8301.cpp:99:63
	ldr	r1, [sp, #16]                   @ 4-byte Reload
	ldrh.w	r0, [sp, #30]
	.loc	6 99 76                         @ ../Drivers/DRV8301/drv8301.cpp:99:76
	ldrh	r1, [r1, #38]
	.loc	6 99 67                         @ ../Drivers/DRV8301/drv8301.cpp:99:67
	subs	r0, r0, r1
	clz	r0, r0
	lsrs	r0, r0, #5
	str	r0, [sp]                        @ 4-byte Spill
	b	.LBB2_14
.LBB2_14:
	.loc	6 0 0                           @ ../Drivers/DRV8301/drv8301.cpp:0:0
	ldr	r0, [sp]                        @ 4-byte Reload
	.loc	6 98 10 is_stmt 1               @ ../Drivers/DRV8301/drv8301.cpp:98:10
	and	r0, r0, #1
	strb.w	r0, [sp, #28]
.Ltmp25:
	.loc	6 100 10                        @ ../Drivers/DRV8301/drv8301.cpp:100:10
	ldrb.w	r0, [sp, #28]
.Ltmp26:
	.loc	6 100 9 is_stmt 0               @ ../Drivers/DRV8301/drv8301.cpp:100:9
	lsls	r0, r0, #31
	cbnz	r0, .LBB2_16
	b	.LBB2_15
.LBB2_15:
	.loc	6 0 9                           @ ../Drivers/DRV8301/drv8301.cpp:0:9
	movs	r0, #0
.Ltmp27:
	.loc	6 101 9 is_stmt 1               @ ../Drivers/DRV8301/drv8301.cpp:101:9
	strb.w	r0, [sp, #39]
	b	.LBB2_26
.Ltmp28:
.LBB2_16:
	.loc	6 104 9                         @ ../Drivers/DRV8301/drv8301.cpp:104:9
	ldr	r0, [sp, #16]                   @ 4-byte Reload
	bl	_ZN7Drv83019get_errorEv
.Ltmp29:
	.loc	6 104 9 is_stmt 0               @ ../Drivers/DRV8301/drv8301.cpp:104:9
	cbz	r0, .LBB2_18
	b	.LBB2_17
.LBB2_17:
	.loc	6 0 9                           @ ../Drivers/DRV8301/drv8301.cpp:0:9
	movs	r0, #0
.Ltmp30:
	.loc	6 105 9 is_stmt 1               @ ../Drivers/DRV8301/drv8301.cpp:105:9
	strb.w	r0, [sp, #39]
	b	.LBB2_26
.Ltmp31:
.LBB2_18:
	.loc	6 0 9 is_stmt 0                 @ ../Drivers/DRV8301/drv8301.cpp:0:9
	add	r0, sp, #20
.Ltmp32:
	.loc	6 110 5 is_stmt 1               @ ../Drivers/DRV8301/drv8301.cpp:110:5
	bl	_ZN22CriticalSectionContextC2Ev
	b	.LBB2_19
.LBB2_19:                               @ =>This Inner Loop Header: Depth=1
.Ltmp33:
	.loc	6 110 5 is_stmt 0               @ ../Drivers/DRV8301/drv8301.cpp:110:5
	ldrb.w	r0, [sp, #24]
.Ltmp34:
	.loc	6 110 5                         @ ../Drivers/DRV8301/drv8301.cpp:110:5
	lsls	r0, r0, #31
	cbz	r0, .LBB2_21
	b	.LBB2_20
.LBB2_20:
	.loc	6 0 5                           @ ../Drivers/DRV8301/drv8301.cpp:0:5
	add	r0, sp, #20
.Ltmp35:
	.loc	6 110 5                         @ ../Drivers/DRV8301/drv8301.cpp:110:5
	bl	_ZN22CriticalSectionContextD2Ev
	b	.LBB2_25
.LBB2_21:                               @   in Loop: Header=BB2_19 Depth=1
.Ltmp36:
	.loc	6 111 13 is_stmt 1              @ ../Drivers/DRV8301/drv8301.cpp:111:13
	ldr	r0, [sp, #16]                   @ 4-byte Reload
	ldrb.w	r0, [r0, #44]
.Ltmp37:
	.loc	6 111 13 is_stmt 0              @ ../Drivers/DRV8301/drv8301.cpp:111:13
	cmp	r0, #1
	bne	.LBB2_23
	b	.LBB2_22
.LBB2_22:                               @   in Loop: Header=BB2_19 Depth=1
	.loc	6 0 13                          @ ../Drivers/DRV8301/drv8301.cpp:0:13
	ldr	r1, [sp, #16]                   @ 4-byte Reload
	movs	r0, #2
.Ltmp38:
	.loc	6 112 20 is_stmt 1              @ ../Drivers/DRV8301/drv8301.cpp:112:20
	strb.w	r0, [r1, #44]
	.loc	6 113 9                         @ ../Drivers/DRV8301/drv8301.cpp:113:9
	b	.LBB2_23
.Ltmp39:
.LBB2_23:                               @   in Loop: Header=BB2_19 Depth=1
	.loc	6 114 5                         @ ../Drivers/DRV8301/drv8301.cpp:114:5
	b	.LBB2_24
.Ltmp40:
.LBB2_24:                               @   in Loop: Header=BB2_19 Depth=1
	.loc	6 0 5 is_stmt 0                 @ ../Drivers/DRV8301/drv8301.cpp:0:5
	movs	r0, #1
	.loc	6 110 5 is_stmt 1               @ ../Drivers/DRV8301/drv8301.cpp:110:5
	strb.w	r0, [sp, #24]
	b	.LBB2_19
.Ltmp41:
.LBB2_25:
	.loc	6 116 12                        @ ../Drivers/DRV8301/drv8301.cpp:116:12
	ldr	r0, [sp, #16]                   @ 4-byte Reload
	ldrb.w	r0, [r0, #44]
	.loc	6 116 19 is_stmt 0              @ ../Drivers/DRV8301/drv8301.cpp:116:19
	subs	r0, #2
	clz	r0, r0
	lsrs	r0, r0, #5
	.loc	6 116 5                         @ ../Drivers/DRV8301/drv8301.cpp:116:5
	strb.w	r0, [sp, #39]
	b	.LBB2_26
.LBB2_26:
	.loc	6 117 1 is_stmt 1               @ ../Drivers/DRV8301/drv8301.cpp:117:1
	ldrb.w	r0, [sp, #39]
	.loc	6 117 1 epilogue_begin is_stmt 0 @ ../Drivers/DRV8301/drv8301.cpp:117:1
	add	sp, #40
	pop	{r7, pc}
.Ltmp42:
.Lfunc_end2:
	.size	_ZN7Drv83014initEv, .Lfunc_end2-_ZN7Drv83014initEv
	.cfi_endproc
	.cantunwind
	.fnend
                                        @ -- End function
	.section	.text._ZN7Drv83019write_regENS_9RegName_eEt,"ax",%progbits
	.hidden	_ZN7Drv83019write_regENS_9RegName_eEt @ -- Begin function _ZN7Drv83019write_regENS_9RegName_eEt
	.globl	_ZN7Drv83019write_regENS_9RegName_eEt
	.p2align	2
	.type	_ZN7Drv83019write_regENS_9RegName_eEt,%function
	.code	16                              @ @_ZN7Drv83019write_regENS_9RegName_eEt
	.thumb_func
_ZN7Drv83019write_regENS_9RegName_eEt:
.Lfunc_begin3:
	.loc	6 167 0 is_stmt 1               @ ../Drivers/DRV8301/drv8301.cpp:167:0
	.fnstart
	.cfi_startproc
@ %bb.0:
	.save	{r4, r5, r6, r7, r8, r9, r10, r11, lr}
	push.w	{r4, r5, r6, r7, r8, r9, r10, r11, lr}
	.cfi_def_cfa_offset 36
	.cfi_offset lr, -4
	.cfi_offset r11, -8
	.cfi_offset r10, -12
	.cfi_offset r9, -16
	.cfi_offset r8, -20
	.cfi_offset r7, -24
	.cfi_offset r6, -28
	.cfi_offset r5, -32
	.cfi_offset r4, -36
	.pad	#156
	sub	sp, #156
	.cfi_def_cfa_offset 192
                                        @ kill: def $r3 killed $r2
                                        @ kill: def $r3 killed $r1
	str	r0, [sp, #148]
	strh.w	r1, [sp, #146]
	strh.w	r2, [sp, #144]
	ldr	r0, [sp, #148]
.Ltmp43:
	.loc	6 169 55 prologue_end           @ ../Drivers/DRV8301/drv8301.cpp:169:55
	str	r0, [sp, #64]                   @ 4-byte Spill
	ldrh.w	r1, [sp, #146]
	.loc	6 169 64 is_stmt 0              @ ../Drivers/DRV8301/drv8301.cpp:169:64
	ldrh.w	r2, [sp, #144]
	movs	r0, #0
	.loc	6 169 15                        @ ../Drivers/DRV8301/drv8301.cpp:169:15
	str	r0, [sp, #72]                   @ 4-byte Spill
	bl	_ZN7Drv830115build_ctrl_wordENS_10CtrlMode_eENS_9RegName_eEt
	ldr	r1, [sp, #64]                   @ 4-byte Reload
	.loc	6 169 13                        @ ../Drivers/DRV8301/drv8301.cpp:169:13
	strh	r0, [r1, #40]!
.Ltmp44:
	.loc	6 170 10 is_stmt 1              @ ../Drivers/DRV8301/drv8301.cpp:170:10
	str	r1, [sp, #76]                   @ 4-byte Spill
	ldr	r0, [r1, #-32]
	.loc	6 170 33 is_stmt 0              @ ../Drivers/DRV8301/drv8301.cpp:170:33
	str	r0, [sp, #84]                   @ 4-byte Spill
	movw	lr, :lower16:_ZN7Drv830111spi_config_E
	movt	lr, :upper16:_ZN7Drv830111spi_config_E
	str.w	lr, [sp, #68]                   @ 4-byte Spill
	ldr.w	r0, [lr]
	ldr.w	r2, [lr, #4]
	ldr.w	r3, [lr, #8]
	ldr.w	r12, [lr, #12]
	ldr.w	r4, [lr, #16]
	ldr.w	r5, [lr, #20]
	str	r5, [sp, #120]
	str	r4, [sp, #116]
	str.w	r12, [sp, #112]
	str	r3, [sp, #108]
	str	r2, [sp, #104]
	str	r0, [sp, #100]
	ldr.w	r0, [lr, #24]
	ldr.w	r2, [lr, #28]
	ldr.w	r3, [lr, #32]
	ldr.w	r12, [lr, #36]
	ldr.w	lr, [lr, #40]
	str.w	lr, [sp, #140]
	str.w	r12, [sp, #136]
	str	r3, [sp, #132]
	str	r2, [sp, #128]
	str	r0, [sp, #124]
	.loc	6 170 46                        @ ../Drivers/DRV8301/drv8301.cpp:170:46
	ldr	r0, [r1, #-28]
	ldr	r1, [r1, #-24]
	str	r1, [sp, #96]
	str	r0, [sp, #92]
	.loc	6 170 24                        @ ../Drivers/DRV8301/drv8301.cpp:170:24
	ldr	r0, [sp, #100]
	str	r0, [sp, #80]                   @ 4-byte Spill
	ldr	r2, [sp, #104]
	ldr	r3, [sp, #108]
	ldr.w	r12, [sp, #112]
	ldr	r4, [sp, #116]
	ldr	r5, [sp, #120]
	ldr	r6, [sp, #124]
	ldr	r7, [sp, #128]
	ldr.w	r8, [sp, #132]
	ldr.w	r9, [sp, #136]
	ldr.w	r10, [sp, #140]
	ldr.w	r11, [sp, #92]
	ldr.w	lr, [sp, #96]
	mov	r1, sp
	str	r1, [sp, #88]                   @ 4-byte Spill
	mov.w	r0, #1000
	str	r0, [r1, #52]
	movs	r0, #1
	str	r0, [r1, #48]
	ldr	r1, [sp, #72]                   @ 4-byte Reload
	ldr	r0, [sp, #88]                   @ 4-byte Reload
	str	r1, [r0, #44]
	ldr	r0, [sp, #76]                   @ 4-byte Reload
	ldr	r1, [sp, #88]                   @ 4-byte Reload
	str	r0, [r1, #40]
	ldr	r1, [sp, #80]                   @ 4-byte Reload
	ldr	r0, [sp, #88]                   @ 4-byte Reload
	str.w	lr, [r0, #36]
	ldr	r0, [sp, #84]                   @ 4-byte Reload
	ldr.w	lr, [sp, #88]                   @ 4-byte Reload
	str.w	r11, [lr, #32]
	str.w	r10, [lr, #28]
	str.w	r9, [lr, #24]
	str.w	r8, [lr, #20]
	str.w	r7, [lr, #16]
	str.w	r6, [lr, #12]
	str.w	r5, [lr, #8]
	str.w	r4, [lr, #4]
	str.w	r12, [lr]
	bl	_ZN15Stm32SpiArbiter8transferE15SPI_InitTypeDef9Stm32GpioPKhPhjj
.Ltmp45:
	.loc	6 170 9                         @ ../Drivers/DRV8301/drv8301.cpp:170:9
	cbnz	r0, .LBB3_2
	b	.LBB3_1
.LBB3_1:
	.loc	6 0 9                           @ ../Drivers/DRV8301/drv8301.cpp:0:9
	movs	r0, #0
.Ltmp46:
	.loc	6 171 9 is_stmt 1               @ ../Drivers/DRV8301/drv8301.cpp:171:9
	strb.w	r0, [sp, #155]
	b	.LBB3_3
.Ltmp47:
.LBB3_2:
	.loc	6 0 9 is_stmt 0                 @ ../Drivers/DRV8301/drv8301.cpp:0:9
	movs	r0, #1
	.loc	6 173 5 is_stmt 1               @ ../Drivers/DRV8301/drv8301.cpp:173:5
	str	r0, [sp, #60]                   @ 4-byte Spill
	bl	_Z8delay_usj
	ldr	r0, [sp, #60]                   @ 4-byte Reload
	.loc	6 175 5                         @ ../Drivers/DRV8301/drv8301.cpp:175:5
	strb.w	r0, [sp, #155]
	b	.LBB3_3
.LBB3_3:
	.loc	6 176 1                         @ ../Drivers/DRV8301/drv8301.cpp:176:1
	ldrb.w	r0, [sp, #155]
	.loc	6 176 1 epilogue_begin is_stmt 0 @ ../Drivers/DRV8301/drv8301.cpp:176:1
	add	sp, #156
	pop.w	{r4, r5, r6, r7, r8, r9, r10, r11, pc}
.Ltmp48:
.Lfunc_end3:
	.size	_ZN7Drv83019write_regENS_9RegName_eEt, .Lfunc_end3-_ZN7Drv83019write_regENS_9RegName_eEt
	.cfi_endproc
	.cantunwind
	.fnend
                                        @ -- End function
	.section	.text._ZN7Drv83018read_regENS_9RegName_eEPt,"ax",%progbits
	.hidden	_ZN7Drv83018read_regENS_9RegName_eEPt @ -- Begin function _ZN7Drv83018read_regENS_9RegName_eEPt
	.globl	_ZN7Drv83018read_regENS_9RegName_eEPt
	.p2align	2
	.type	_ZN7Drv83018read_regENS_9RegName_eEPt,%function
	.code	16                              @ @_ZN7Drv83018read_regENS_9RegName_eEPt
	.thumb_func
_ZN7Drv83018read_regENS_9RegName_eEPt:
.Lfunc_begin4:
	.loc	6 140 0 is_stmt 1               @ ../Drivers/DRV8301/drv8301.cpp:140:0
	.fnstart
	.cfi_startproc
@ %bb.0:
	.save	{r4, r5, r6, r7, r8, r9, r10, r11, lr}
	push.w	{r4, r5, r6, r7, r8, r9, r10, r11, lr}
	.cfi_def_cfa_offset 36
	.cfi_offset lr, -4
	.cfi_offset r11, -8
	.cfi_offset r10, -12
	.cfi_offset r9, -16
	.cfi_offset r8, -20
	.cfi_offset r7, -24
	.cfi_offset r6, -28
	.cfi_offset r5, -32
	.cfi_offset r4, -36
	.pad	#236
	sub	sp, #236
	.cfi_def_cfa_offset 272
                                        @ kill: def $r3 killed $r1
	str	r0, [sp, #228]
	strh.w	r1, [sp, #226]
	str	r2, [sp, #220]
	ldr	r0, [sp, #228]
.Ltmp49:
	.loc	6 141 54 prologue_end           @ ../Drivers/DRV8301/drv8301.cpp:141:54
	str	r0, [sp, #88]                   @ 4-byte Spill
	ldrh.w	r1, [sp, #226]
	mov.w	r0, #32768
	movs	r2, #0
	.loc	6 141 15 is_stmt 0              @ ../Drivers/DRV8301/drv8301.cpp:141:15
	str	r2, [sp, #96]                   @ 4-byte Spill
	bl	_ZN7Drv830115build_ctrl_wordENS_10CtrlMode_eENS_9RegName_eEt
	ldr	r1, [sp, #88]                   @ 4-byte Reload
	mov	r2, r0
	.loc	6 141 13                        @ ../Drivers/DRV8301/drv8301.cpp:141:13
	mov	r0, r1
	strh	r2, [r0, #40]!
.Ltmp50:
	.loc	6 142 10 is_stmt 1              @ ../Drivers/DRV8301/drv8301.cpp:142:10
	str	r0, [sp, #100]                  @ 4-byte Spill
	ldr	r0, [r1, #8]
	.loc	6 142 33 is_stmt 0              @ ../Drivers/DRV8301/drv8301.cpp:142:33
	str	r0, [sp, #108]                  @ 4-byte Spill
	movw	lr, :lower16:_ZN7Drv830111spi_config_E
	movt	lr, :upper16:_ZN7Drv830111spi_config_E
	str.w	lr, [sp, #92]                   @ 4-byte Spill
	ldr.w	r0, [lr]
	ldr.w	r2, [lr, #4]
	ldr.w	r3, [lr, #8]
	ldr.w	r12, [lr, #12]
	ldr.w	r4, [lr, #16]
	ldr.w	r5, [lr, #20]
	str	r5, [sp, #196]
	str	r4, [sp, #192]
	str.w	r12, [sp, #188]
	str	r3, [sp, #184]
	str	r2, [sp, #180]
	str	r0, [sp, #176]
	ldr.w	r0, [lr, #24]
	ldr.w	r2, [lr, #28]
	ldr.w	r3, [lr, #32]
	ldr.w	r12, [lr, #36]
	ldr.w	lr, [lr, #40]
	str.w	lr, [sp, #216]
	str.w	r12, [sp, #212]
	str	r3, [sp, #208]
	str	r2, [sp, #204]
	str	r0, [sp, #200]
	.loc	6 142 46                        @ ../Drivers/DRV8301/drv8301.cpp:142:46
	ldr	r0, [r1, #12]
	ldr	r1, [r1, #16]
	str	r1, [sp, #172]
	str	r0, [sp, #168]
	.loc	6 142 24                        @ ../Drivers/DRV8301/drv8301.cpp:142:24
	ldr	r0, [sp, #176]
	str	r0, [sp, #104]                  @ 4-byte Spill
	ldr	r2, [sp, #180]
	ldr	r3, [sp, #184]
	ldr.w	r12, [sp, #188]
	ldr	r4, [sp, #192]
	ldr	r5, [sp, #196]
	ldr	r6, [sp, #200]
	ldr	r7, [sp, #204]
	ldr.w	r8, [sp, #208]
	ldr.w	r9, [sp, #212]
	ldr.w	r10, [sp, #216]
	ldr.w	r11, [sp, #168]
	ldr.w	lr, [sp, #172]
	mov	r1, sp
	str	r1, [sp, #112]                  @ 4-byte Spill
	mov.w	r0, #1000
	str	r0, [r1, #52]
	movs	r0, #1
	str	r0, [r1, #48]
	ldr	r1, [sp, #96]                   @ 4-byte Reload
	ldr	r0, [sp, #112]                  @ 4-byte Reload
	str	r1, [r0, #44]
	ldr	r0, [sp, #100]                  @ 4-byte Reload
	ldr	r1, [sp, #112]                  @ 4-byte Reload
	str	r0, [r1, #40]
	ldr	r1, [sp, #104]                  @ 4-byte Reload
	ldr	r0, [sp, #112]                  @ 4-byte Reload
	str.w	lr, [r0, #36]
	ldr	r0, [sp, #108]                  @ 4-byte Reload
	ldr.w	lr, [sp, #112]                  @ 4-byte Reload
	str.w	r11, [lr, #32]
	str.w	r10, [lr, #28]
	str.w	r9, [lr, #24]
	str.w	r8, [lr, #20]
	str.w	r7, [lr, #16]
	str.w	r6, [lr, #12]
	str.w	r5, [lr, #8]
	str.w	r4, [lr, #4]
	str.w	r12, [lr]
	bl	_ZN15Stm32SpiArbiter8transferE15SPI_InitTypeDef9Stm32GpioPKhPhjj
.Ltmp51:
	.loc	6 142 9                         @ ../Drivers/DRV8301/drv8301.cpp:142:9
	cbnz	r0, .LBB4_2
	b	.LBB4_1
.LBB4_1:
	.loc	6 0 9                           @ ../Drivers/DRV8301/drv8301.cpp:0:9
	movs	r0, #0
.Ltmp52:
	.loc	6 143 9 is_stmt 1               @ ../Drivers/DRV8301/drv8301.cpp:143:9
	strb.w	r0, [sp, #235]
	b	.LBB4_9
.Ltmp53:
.LBB4_2:
	.loc	6 0 9 is_stmt 0                 @ ../Drivers/DRV8301/drv8301.cpp:0:9
	movs	r0, #1
	.loc	6 146 5 is_stmt 1               @ ../Drivers/DRV8301/drv8301.cpp:146:5
	str	r0, [sp, #64]                   @ 4-byte Spill
	bl	_Z8delay_usj
	.loc	6 148 54                        @ ../Drivers/DRV8301/drv8301.cpp:148:54
	ldrh.w	r1, [sp, #226]
	mov.w	r0, #32768
	movs	r2, #0
	.loc	6 148 15 is_stmt 0              @ ../Drivers/DRV8301/drv8301.cpp:148:15
	bl	_ZN7Drv830115build_ctrl_wordENS_10CtrlMode_eENS_9RegName_eEt
	ldr	r1, [sp, #88]                   @ 4-byte Reload
	mov	r2, r0
	.loc	6 148 13                        @ ../Drivers/DRV8301/drv8301.cpp:148:13
	mov	r0, r1
	strh	r2, [r0, #40]!
	str	r0, [sp, #72]                   @ 4-byte Spill
	movw	r0, #65535
	.loc	6 149 13 is_stmt 1              @ ../Drivers/DRV8301/drv8301.cpp:149:13
	strh	r0, [r1, #42]!
.Ltmp54:
	.loc	6 150 10                        @ ../Drivers/DRV8301/drv8301.cpp:150:10
	str	r1, [sp, #68]                   @ 4-byte Spill
	ldr	r0, [r1, #-34]
	.loc	6 150 33 is_stmt 0              @ ../Drivers/DRV8301/drv8301.cpp:150:33
	str	r0, [sp, #80]                   @ 4-byte Spill
	movw	lr, :lower16:_ZN7Drv830111spi_config_E
	movt	lr, :upper16:_ZN7Drv830111spi_config_E
	str.w	lr, [sp, #60]                   @ 4-byte Spill
	ldr.w	r0, [lr]
	ldr.w	r2, [lr, #4]
	ldr.w	r3, [lr, #8]
	ldr.w	r12, [lr, #12]
	ldr.w	r4, [lr, #16]
	ldr.w	r5, [lr, #20]
	str	r5, [sp, #144]
	str	r4, [sp, #140]
	str.w	r12, [sp, #136]
	str	r3, [sp, #132]
	str	r2, [sp, #128]
	str	r0, [sp, #124]
	ldr.w	r0, [lr, #24]
	ldr.w	r2, [lr, #28]
	ldr.w	r3, [lr, #32]
	ldr.w	r12, [lr, #36]
	ldr.w	lr, [lr, #40]
	str.w	lr, [sp, #164]
	str.w	r12, [sp, #160]
	str	r3, [sp, #156]
	str	r2, [sp, #152]
	str	r0, [sp, #148]
	.loc	6 150 46                        @ ../Drivers/DRV8301/drv8301.cpp:150:46
	ldr	r0, [r1, #-30]
	ldr	r1, [r1, #-26]
	str	r1, [sp, #120]
	str	r0, [sp, #116]
	.loc	6 150 24                        @ ../Drivers/DRV8301/drv8301.cpp:150:24
	ldr	r0, [sp, #124]
	str	r0, [sp, #76]                   @ 4-byte Spill
	ldr	r2, [sp, #128]
	ldr	r3, [sp, #132]
	ldr.w	r12, [sp, #136]
	ldr	r4, [sp, #140]
	ldr	r5, [sp, #144]
	ldr	r6, [sp, #148]
	ldr	r7, [sp, #152]
	ldr.w	r8, [sp, #156]
	ldr.w	r9, [sp, #160]
	ldr.w	r10, [sp, #164]
	ldr.w	r11, [sp, #116]
	ldr.w	lr, [sp, #120]
	mov	r0, sp
	str	r0, [sp, #84]                   @ 4-byte Spill
	mov.w	r1, #1000
	str	r1, [r0, #52]
	ldr	r0, [sp, #64]                   @ 4-byte Reload
	ldr	r1, [sp, #84]                   @ 4-byte Reload
	str	r0, [r1, #48]
	ldr	r1, [sp, #68]                   @ 4-byte Reload
	ldr	r0, [sp, #84]                   @ 4-byte Reload
	str	r1, [r0, #44]
	ldr	r0, [sp, #72]                   @ 4-byte Reload
	ldr	r1, [sp, #84]                   @ 4-byte Reload
	str	r0, [r1, #40]
	ldr	r1, [sp, #76]                   @ 4-byte Reload
	ldr	r0, [sp, #84]                   @ 4-byte Reload
	str.w	lr, [r0, #36]
	ldr	r0, [sp, #80]                   @ 4-byte Reload
	ldr.w	lr, [sp, #84]                   @ 4-byte Reload
	str.w	r11, [lr, #32]
	str.w	r10, [lr, #28]
	str.w	r9, [lr, #24]
	str.w	r8, [lr, #20]
	str.w	r7, [lr, #16]
	str.w	r6, [lr, #12]
	str.w	r5, [lr, #8]
	str.w	r4, [lr, #4]
	str.w	r12, [lr]
	bl	_ZN15Stm32SpiArbiter8transferE15SPI_InitTypeDef9Stm32GpioPKhPhjj
.Ltmp55:
	.loc	6 150 9                         @ ../Drivers/DRV8301/drv8301.cpp:150:9
	cbnz	r0, .LBB4_4
	b	.LBB4_3
.LBB4_3:
	.loc	6 0 9                           @ ../Drivers/DRV8301/drv8301.cpp:0:9
	movs	r0, #0
.Ltmp56:
	.loc	6 151 9 is_stmt 1               @ ../Drivers/DRV8301/drv8301.cpp:151:9
	strb.w	r0, [sp, #235]
	b	.LBB4_9
.Ltmp57:
.LBB4_4:
	.loc	6 0 9 is_stmt 0                 @ ../Drivers/DRV8301/drv8301.cpp:0:9
	movs	r0, #1
	.loc	6 154 5 is_stmt 1               @ ../Drivers/DRV8301/drv8301.cpp:154:5
	bl	_Z8delay_usj
	ldr	r0, [sp, #88]                   @ 4-byte Reload
.Ltmp58:
	.loc	6 156 9                         @ ../Drivers/DRV8301/drv8301.cpp:156:9
	ldrh	r0, [r0, #42]
	movw	r1, #48879
.Ltmp59:
	.loc	6 156 9 is_stmt 0               @ ../Drivers/DRV8301/drv8301.cpp:156:9
	cmp	r0, r1
	bne	.LBB4_6
	b	.LBB4_5
.LBB4_5:
	.loc	6 0 9                           @ ../Drivers/DRV8301/drv8301.cpp:0:9
	movs	r0, #0
.Ltmp60:
	.loc	6 157 9 is_stmt 1               @ ../Drivers/DRV8301/drv8301.cpp:157:9
	strb.w	r0, [sp, #235]
	b	.LBB4_9
.Ltmp61:
.LBB4_6:
	.loc	6 160 9                         @ ../Drivers/DRV8301/drv8301.cpp:160:9
	ldr	r0, [sp, #220]
.Ltmp62:
	.loc	6 160 9 is_stmt 0               @ ../Drivers/DRV8301/drv8301.cpp:160:9
	cbz	r0, .LBB4_8
	b	.LBB4_7
.LBB4_7:
.Ltmp63:
	.loc	6 161 17 is_stmt 1              @ ../Drivers/DRV8301/drv8301.cpp:161:17
	ldr	r0, [sp, #88]                   @ 4-byte Reload
	ldrh	r0, [r0, #42]
	.loc	6 161 25 is_stmt 0              @ ../Drivers/DRV8301/drv8301.cpp:161:25
	bfc	r0, #11, #21
	.loc	6 161 10                        @ ../Drivers/DRV8301/drv8301.cpp:161:10
	ldr	r1, [sp, #220]
	.loc	6 161 15                        @ ../Drivers/DRV8301/drv8301.cpp:161:15
	strh	r0, [r1]
	.loc	6 162 5 is_stmt 1               @ ../Drivers/DRV8301/drv8301.cpp:162:5
	b	.LBB4_8
.Ltmp64:
.LBB4_8:
	.loc	6 0 5 is_stmt 0                 @ ../Drivers/DRV8301/drv8301.cpp:0:5
	movs	r0, #1
	.loc	6 164 5 is_stmt 1               @ ../Drivers/DRV8301/drv8301.cpp:164:5
	strb.w	r0, [sp, #235]
	b	.LBB4_9
.LBB4_9:
	.loc	6 165 1                         @ ../Drivers/DRV8301/drv8301.cpp:165:1
	ldrb.w	r0, [sp, #235]
	.loc	6 165 1 epilogue_begin is_stmt 0 @ ../Drivers/DRV8301/drv8301.cpp:165:1
	add	sp, #236
	pop.w	{r4, r5, r6, r7, r8, r9, r10, r11, pc}
.Ltmp65:
.Lfunc_end4:
	.size	_ZN7Drv83018read_regENS_9RegName_eEPt, .Lfunc_end4-_ZN7Drv83018read_regENS_9RegName_eEPt
	.cfi_endproc
	.cantunwind
	.fnend
                                        @ -- End function
	.section	.text._ZN7Drv83019get_errorEv,"ax",%progbits
	.hidden	_ZN7Drv83019get_errorEv         @ -- Begin function _ZN7Drv83019get_errorEv
	.globl	_ZN7Drv83019get_errorEv
	.p2align	2
	.type	_ZN7Drv83019get_errorEv,%function
	.code	16                              @ @_ZN7Drv83019get_errorEv
	.thumb_func
_ZN7Drv83019get_errorEv:
.Lfunc_begin5:
	.loc	6 129 0 is_stmt 1               @ ../Drivers/DRV8301/drv8301.cpp:129:0
	.fnstart
	.cfi_startproc
@ %bb.0:
	.save	{r7, lr}
	push	{r7, lr}
	.cfi_def_cfa_offset 8
	.cfi_offset lr, -4
	.cfi_offset r7, -8
	.pad	#16
	sub	sp, #16
	.cfi_def_cfa_offset 24
	str	r0, [sp, #8]
	ldr	r0, [sp, #8]
.Ltmp66:
	.loc	6 132 10 prologue_end           @ ../Drivers/DRV8301/drv8301.cpp:132:10
	str	r0, [sp]                        @ 4-byte Spill
	movs	r1, #0
	add.w	r2, sp, #6
	bl	_ZN7Drv83018read_regENS_9RegName_eEPt
	.loc	6 132 45 is_stmt 0              @ ../Drivers/DRV8301/drv8301.cpp:132:45
	cbz	r0, .LBB5_2
	b	.LBB5_1
.LBB5_1:
	.loc	6 133 10 is_stmt 1              @ ../Drivers/DRV8301/drv8301.cpp:133:10
	ldr	r0, [sp]                        @ 4-byte Reload
	mov.w	r1, #2048
	add	r2, sp, #4
	bl	_ZN7Drv83018read_regENS_9RegName_eEPt
.Ltmp67:
	.loc	6 132 9                         @ ../Drivers/DRV8301/drv8301.cpp:132:9
	cbnz	r0, .LBB5_3
	b	.LBB5_2
.LBB5_2:
	.loc	6 0 9 is_stmt 0                 @ ../Drivers/DRV8301/drv8301.cpp:0:9
	mov.w	r0, #-1
.Ltmp68:
	.loc	6 134 9 is_stmt 1               @ ../Drivers/DRV8301/drv8301.cpp:134:9
	str	r0, [sp, #12]
	b	.LBB5_4
.Ltmp69:
.LBB5_3:
	.loc	6 137 36                        @ ../Drivers/DRV8301/drv8301.cpp:137:36
	ldrh.w	r0, [sp, #6]
	.loc	6 137 57 is_stmt 0              @ ../Drivers/DRV8301/drv8301.cpp:137:57
	ldrh.w	r1, [sp, #4]
	.loc	6 137 64                        @ ../Drivers/DRV8301/drv8301.cpp:137:64
	and	r1, r1, #128
	.loc	6 137 43                        @ ../Drivers/DRV8301/drv8301.cpp:137:43
	orr.w	r0, r0, r1, lsl #16
	.loc	6 137 5                         @ ../Drivers/DRV8301/drv8301.cpp:137:5
	str	r0, [sp, #12]
	b	.LBB5_4
.LBB5_4:
	.loc	6 138 1 is_stmt 1               @ ../Drivers/DRV8301/drv8301.cpp:138:1
	ldr	r0, [sp, #12]
	.loc	6 138 1 epilogue_begin is_stmt 0 @ ../Drivers/DRV8301/drv8301.cpp:138:1
	add	sp, #16
	pop	{r7, pc}
.Ltmp70:
.Lfunc_end5:
	.size	_ZN7Drv83019get_errorEv, .Lfunc_end5-_ZN7Drv83019get_errorEv
	.cfi_endproc
	.cantunwind
	.fnend
                                        @ -- End function
	.section	.text._ZN22CriticalSectionContextC2Ev,"axG",%progbits,_ZN22CriticalSectionContextC2Ev,comdat
	.hidden	_ZN22CriticalSectionContextC2Ev @ -- Begin function _ZN22CriticalSectionContextC2Ev
	.weak	_ZN22CriticalSectionContextC2Ev
	.p2align	2
	.type	_ZN22CriticalSectionContextC2Ev,%function
	.code	16                              @ @_ZN22CriticalSectionContextC2Ev
	.thumb_func
_ZN22CriticalSectionContextC2Ev:
.Lfunc_begin6:
	.loc	5 56 0 is_stmt 1                @ ../../Firmware\Drivers/STM32/stm32_system.h:56:0
	.fnstart
	.cfi_startproc
@ %bb.0:
	.save	{r7, lr}
	push	{r7, lr}
	.cfi_def_cfa_offset 8
	.cfi_offset lr, -4
	.cfi_offset r7, -8
	.pad	#8
	sub	sp, #8
	.cfi_def_cfa_offset 16
	str	r0, [sp, #4]
	ldr	r0, [sp, #4]
.Ltmp71:
	.loc	5 56 38 prologue_end            @ ../../Firmware\Drivers/STM32/stm32_system.h:56:38
	str	r0, [sp]                        @ 4-byte Spill
	bl	_ZL18cpu_enter_criticalv
	mov	r1, r0
	.loc	5 56 32 is_stmt 0               @ ../../Firmware\Drivers/STM32/stm32_system.h:56:32
	ldr	r0, [sp]                        @ 4-byte Reload
	str	r1, [r0]
	movs	r1, #0
	.loc	5 59 10 is_stmt 1               @ ../../Firmware\Drivers/STM32/stm32_system.h:59:10
	strb	r1, [r0, #4]
	.loc	5 56 61 epilogue_begin          @ ../../Firmware\Drivers/STM32/stm32_system.h:56:61
	add	sp, #8
	pop	{r7, pc}
.Ltmp72:
.Lfunc_end6:
	.size	_ZN22CriticalSectionContextC2Ev, .Lfunc_end6-_ZN22CriticalSectionContextC2Ev
	.cfi_endproc
	.cantunwind
	.fnend
                                        @ -- End function
	.section	.text._ZN22CriticalSectionContextD2Ev,"axG",%progbits,_ZN22CriticalSectionContextD2Ev,comdat
	.hidden	_ZN22CriticalSectionContextD2Ev @ -- Begin function _ZN22CriticalSectionContextD2Ev
	.weak	_ZN22CriticalSectionContextD2Ev
	.p2align	2
	.type	_ZN22CriticalSectionContextD2Ev,%function
	.code	16                              @ @_ZN22CriticalSectionContextD2Ev
	.thumb_func
_ZN22CriticalSectionContextD2Ev:
.Lfunc_begin7:
	.loc	5 57 0                          @ ../../Firmware\Drivers/STM32/stm32_system.h:57:0
	.fnstart
	.cfi_startproc
@ %bb.0:
	.save	{r7, lr}
	push	{r7, lr}
	.cfi_def_cfa_offset 8
	.cfi_offset lr, -4
	.cfi_offset r7, -8
	.pad	#8
	sub	sp, #8
	.cfi_def_cfa_offset 16
	str	r0, [sp, #4]
	ldr	r0, [sp, #4]
.Ltmp73:
	.loc	5 57 51 prologue_end            @ ../../Firmware\Drivers/STM32/stm32_system.h:57:51
	str	r0, [sp]                        @ 4-byte Spill
	ldr	r0, [r0]
	.loc	5 57 33 is_stmt 0               @ ../../Firmware\Drivers/STM32/stm32_system.h:57:33
	bl	_ZL17cpu_exit_criticalj
	ldr	r0, [sp]                        @ 4-byte Reload
.Ltmp74:
	.loc	5 57 59 epilogue_begin          @ ../../Firmware\Drivers/STM32/stm32_system.h:57:59
	add	sp, #8
	pop	{r7, pc}
.Ltmp75:
.Lfunc_end7:
	.size	_ZN22CriticalSectionContextD2Ev, .Lfunc_end7-_ZN22CriticalSectionContextD2Ev
	.cfi_endproc
	.cantunwind
	.fnend
                                        @ -- End function
	.section	.text._ZN7Drv83019do_checksEv,"ax",%progbits
	.hidden	_ZN7Drv83019do_checksEv         @ -- Begin function _ZN7Drv83019do_checksEv
	.globl	_ZN7Drv83019do_checksEv
	.p2align	2
	.type	_ZN7Drv83019do_checksEv,%function
	.code	16                              @ @_ZN7Drv83019do_checksEv
	.thumb_func
_ZN7Drv83019do_checksEv:
.Lfunc_begin8:
	.loc	6 119 0 is_stmt 1               @ ../Drivers/DRV8301/drv8301.cpp:119:0
	.fnstart
	.cfi_startproc
@ %bb.0:
	.save	{r7, lr}
	push	{r7, lr}
	.cfi_def_cfa_offset 8
	.cfi_offset lr, -4
	.cfi_offset r7, -8
	.pad	#8
	sub	sp, #8
	.cfi_def_cfa_offset 16
	str	r0, [sp, #4]
	ldr	r0, [sp, #4]
.Ltmp76:
	.loc	6 120 9 prologue_end            @ ../Drivers/DRV8301/drv8301.cpp:120:9
	str	r0, [sp]                        @ 4-byte Spill
	ldrb.w	r0, [r0, #44]
	.loc	6 120 39 is_stmt 0              @ ../Drivers/DRV8301/drv8301.cpp:120:39
	cbz	r0, .LBB8_3
	b	.LBB8_1
.LBB8_1:
	.loc	6 120 43                        @ ../Drivers/DRV8301/drv8301.cpp:120:43
	ldr	r0, [sp]                        @ 4-byte Reload
	adds	r0, #28
	.loc	6 120 56                        @ ../Drivers/DRV8301/drv8301.cpp:120:56
	bl	_ZN9Stm32Gpio4readEv
.Ltmp77:
	.loc	6 120 9                         @ ../Drivers/DRV8301/drv8301.cpp:120:9
	cbnz	r0, .LBB8_3
	b	.LBB8_2
.LBB8_2:
	.loc	6 0 9                           @ ../Drivers/DRV8301/drv8301.cpp:0:9
	ldr	r1, [sp]                        @ 4-byte Reload
	movs	r0, #0
.Ltmp78:
	.loc	6 121 16 is_stmt 1              @ ../Drivers/DRV8301/drv8301.cpp:121:16
	strb.w	r0, [r1, #44]
	.loc	6 122 5                         @ ../Drivers/DRV8301/drv8301.cpp:122:5
	b	.LBB8_3
.Ltmp79:
.LBB8_3:
	.loc	6 123 1 epilogue_begin          @ ../Drivers/DRV8301/drv8301.cpp:123:1
	add	sp, #8
	pop	{r7, pc}
.Ltmp80:
.Lfunc_end8:
	.size	_ZN7Drv83019do_checksEv, .Lfunc_end8-_ZN7Drv83019do_checksEv
	.cfi_endproc
	.cantunwind
	.fnend
                                        @ -- End function
	.section	.text._ZN9Stm32Gpio4readEv,"axG",%progbits,_ZN9Stm32Gpio4readEv,comdat
	.hidden	_ZN9Stm32Gpio4readEv            @ -- Begin function _ZN9Stm32Gpio4readEv
	.weak	_ZN9Stm32Gpio4readEv
	.p2align	2
	.type	_ZN9Stm32Gpio4readEv,%function
	.code	16                              @ @_ZN9Stm32Gpio4readEv
	.thumb_func
_ZN9Stm32Gpio4readEv:
.Lfunc_begin9:
	.loc	7 30 0                          @ ../../Firmware\Drivers/STM32/stm32_gpio.hpp:30:0
	.fnstart
	.cfi_startproc
@ %bb.0:
	.pad	#12
	sub	sp, #12
	.cfi_def_cfa_offset 12
	str	r0, [sp, #8]
	ldr	r0, [sp, #8]
.Ltmp81:
	.loc	7 31 16 prologue_end            @ ../../Firmware\Drivers/STM32/stm32_gpio.hpp:31:16
	str	r0, [sp]                        @ 4-byte Spill
	ldr	r1, [r0]
	movs	r0, #0
	.loc	7 31 22 is_stmt 0               @ ../../Firmware\Drivers/STM32/stm32_gpio.hpp:31:22
	str	r0, [sp, #4]                    @ 4-byte Spill
	cbz	r1, .LBB9_2
	b	.LBB9_1
.LBB9_1:
	.loc	7 31 26                         @ ../../Firmware\Drivers/STM32/stm32_gpio.hpp:31:26
	ldr	r1, [sp]                        @ 4-byte Reload
	ldr	r0, [r1]
	.loc	7 31 33                         @ ../../Firmware\Drivers/STM32/stm32_gpio.hpp:31:33
	ldr	r0, [r0, #16]
	.loc	7 31 39                         @ ../../Firmware\Drivers/STM32/stm32_gpio.hpp:31:39
	ldrh	r1, [r1, #4]
	.loc	7 31 37                         @ ../../Firmware\Drivers/STM32/stm32_gpio.hpp:31:37
	ands	r0, r1
	.loc	7 31 25                         @ ../../Firmware\Drivers/STM32/stm32_gpio.hpp:31:25
	cmp	r0, #0
	it	ne
	movne	r0, #1
	str	r0, [sp, #4]                    @ 4-byte Spill
	b	.LBB9_2
.LBB9_2:
	.loc	7 0 0                           @ ../../Firmware\Drivers/STM32/stm32_gpio.hpp:0:0
	ldr	r0, [sp, #4]                    @ 4-byte Reload
	.loc	7 31 9                          @ ../../Firmware\Drivers/STM32/stm32_gpio.hpp:31:9
	and	r0, r0, #1
	.loc	7 31 9 epilogue_begin           @ ../../Firmware\Drivers/STM32/stm32_gpio.hpp:31:9
	add	sp, #12
	bx	lr
.Ltmp82:
.Lfunc_end9:
	.size	_ZN9Stm32Gpio4readEv, .Lfunc_end9-_ZN9Stm32Gpio4readEv
	.cfi_endproc
	.cantunwind
	.fnend
                                        @ -- End function
	.section	.text._ZN7Drv83018is_readyEv,"ax",%progbits
	.hidden	_ZN7Drv83018is_readyEv          @ -- Begin function _ZN7Drv83018is_readyEv
	.globl	_ZN7Drv83018is_readyEv
	.p2align	2
	.type	_ZN7Drv83018is_readyEv,%function
	.code	16                              @ @_ZN7Drv83018is_readyEv
	.thumb_func
_ZN7Drv83018is_readyEv:
.Lfunc_begin10:
	.loc	6 125 0 is_stmt 1               @ ../Drivers/DRV8301/drv8301.cpp:125:0
	.fnstart
	.cfi_startproc
@ %bb.0:
	.pad	#4
	sub	sp, #4
	.cfi_def_cfa_offset 4
	str	r0, [sp]
	ldr	r0, [sp]
.Ltmp83:
	.loc	6 126 12 prologue_end           @ ../Drivers/DRV8301/drv8301.cpp:126:12
	ldrb.w	r0, [r0, #44]
	.loc	6 126 19 is_stmt 0              @ ../Drivers/DRV8301/drv8301.cpp:126:19
	subs	r0, #2
	clz	r0, r0
	lsrs	r0, r0, #5
	.loc	6 126 5 epilogue_begin          @ ../Drivers/DRV8301/drv8301.cpp:126:5
	add	sp, #4
	bx	lr
.Ltmp84:
.Lfunc_end10:
	.size	_ZN7Drv83018is_readyEv, .Lfunc_end10-_ZN7Drv83018is_readyEv
	.cfi_endproc
	.cantunwind
	.fnend
                                        @ -- End function
	.section	.text._ZThn4_N7Drv83018is_readyEv,"ax",%progbits
	.hidden	_ZThn4_N7Drv83018is_readyEv     @ -- Begin function _ZThn4_N7Drv83018is_readyEv
	.globl	_ZThn4_N7Drv83018is_readyEv
	.p2align	2
	.type	_ZThn4_N7Drv83018is_readyEv,%function
	.code	16                              @ @_ZThn4_N7Drv83018is_readyEv
	.thumb_func
_ZThn4_N7Drv83018is_readyEv:
.Lfunc_begin11:
	.loc	6 0 0 is_stmt 1                 @ ../Drivers/DRV8301/drv8301.cpp:0:0
	.fnstart
	.cfi_startproc
@ %bb.0:
	.pad	#4
	sub	sp, #4
	.cfi_def_cfa_offset 4
	str	r0, [sp]
.Ltmp85:
	ldr	r0, [sp]
	subs	r0, #4
	add	sp, #4
	b	_ZN7Drv83018is_readyEv
.Ltmp86:
.Lfunc_end11:
	.size	_ZThn4_N7Drv83018is_readyEv, .Lfunc_end11-_ZThn4_N7Drv83018is_readyEv
	.cfi_endproc
	.cantunwind
	.fnend
                                        @ -- End function
	.section	.text._ZN7Drv830115build_ctrl_wordENS_10CtrlMode_eENS_9RegName_eEt,"axG",%progbits,_ZN7Drv830115build_ctrl_wordENS_10CtrlMode_eENS_9RegName_eEt,comdat
	.hidden	_ZN7Drv830115build_ctrl_wordENS_10CtrlMode_eENS_9RegName_eEt @ -- Begin function _ZN7Drv830115build_ctrl_wordENS_10CtrlMode_eENS_9RegName_eEt
	.weak	_ZN7Drv830115build_ctrl_wordENS_10CtrlMode_eENS_9RegName_eEt
	.p2align	2
	.type	_ZN7Drv830115build_ctrl_wordENS_10CtrlMode_eENS_9RegName_eEt,%function
	.code	16                              @ @_ZN7Drv830115build_ctrl_wordENS_10CtrlMode_eENS_9RegName_eEt
	.thumb_func
_ZN7Drv830115build_ctrl_wordENS_10CtrlMode_eENS_9RegName_eEt:
.Lfunc_begin12:
	.loc	3 111 0                         @ ../Drivers/DRV8301/drv8301.hpp:111:0
	.fnstart
	.cfi_startproc
@ %bb.0:
	.pad	#8
	sub	sp, #8
	.cfi_def_cfa_offset 8
                                        @ kill: def $r3 killed $r2
                                        @ kill: def $r3 killed $r1
                                        @ kill: def $r3 killed $r0
	strh.w	r0, [sp, #6]
	strh.w	r1, [sp, #4]
	strh.w	r2, [sp, #2]
.Ltmp87:
	.loc	3 112 16 prologue_end           @ ../Drivers/DRV8301/drv8301.hpp:112:16
	ldrh.w	r0, [sp, #6]
	.loc	3 112 27 is_stmt 0              @ ../Drivers/DRV8301/drv8301.hpp:112:27
	ldrh.w	r1, [sp, #4]
	.loc	3 112 25                        @ ../Drivers/DRV8301/drv8301.hpp:112:25
	orrs	r0, r1
	.loc	3 112 38                        @ ../Drivers/DRV8301/drv8301.hpp:112:38
	ldrh.w	r1, [sp, #2]
	.loc	3 112 43                        @ ../Drivers/DRV8301/drv8301.hpp:112:43
	bfc	r1, #11, #21
	.loc	3 112 35                        @ ../Drivers/DRV8301/drv8301.hpp:112:35
	orrs	r0, r1
	.loc	3 112 9 epilogue_begin          @ ../Drivers/DRV8301/drv8301.hpp:112:9
	add	sp, #8
	bx	lr
.Ltmp88:
.Lfunc_end12:
	.size	_ZN7Drv830115build_ctrl_wordENS_10CtrlMode_eENS_9RegName_eEt, .Lfunc_end12-_ZN7Drv830115build_ctrl_wordENS_10CtrlMode_eENS_9RegName_eEt
	.cfi_endproc
	.cantunwind
	.fnend
                                        @ -- End function
	.section	.text._ZN7Drv830111set_enabledEb,"axG",%progbits,_ZN7Drv830111set_enabledEb,comdat
	.hidden	_ZN7Drv830111set_enabledEb      @ -- Begin function _ZN7Drv830111set_enabledEb
	.weak	_ZN7Drv830111set_enabledEb
	.p2align	2
	.type	_ZN7Drv830111set_enabledEb,%function
	.code	16                              @ @_ZN7Drv830111set_enabledEb
	.thumb_func
_ZN7Drv830111set_enabledEb:
.Lfunc_begin13:
	.loc	3 79 0 is_stmt 1                @ ../Drivers/DRV8301/drv8301.hpp:79:0
	.fnstart
	.cfi_startproc
@ %bb.0:
	.pad	#8
	sub	sp, #8
	.cfi_def_cfa_offset 8
                                        @ kill: def $r2 killed $r1
	str	r0, [sp, #4]
	strb.w	r1, [sp, #3]
	movs	r0, #1
.Ltmp89:
	.loc	3 79 44 prologue_end epilogue_begin @ ../Drivers/DRV8301/drv8301.hpp:79:44
	add	sp, #8
	bx	lr
.Ltmp90:
.Lfunc_end13:
	.size	_ZN7Drv830111set_enabledEb, .Lfunc_end13-_ZN7Drv830111set_enabledEb
	.cfi_endproc
	.cantunwind
	.fnend
                                        @ -- End function
	.section	.text._ZN7Drv830112get_midpointEv,"axG",%progbits,_ZN7Drv830112get_midpointEv,comdat
	.hidden	_ZN7Drv830112get_midpointEv     @ -- Begin function _ZN7Drv830112get_midpointEv
	.weak	_ZN7Drv830112get_midpointEv
	.p2align	2
	.type	_ZN7Drv830112get_midpointEv,%function
	.code	16                              @ @_ZN7Drv830112get_midpointEv
	.thumb_func
_ZN7Drv830112get_midpointEv:
.Lfunc_begin14:
	.loc	3 83 0                          @ ../Drivers/DRV8301/drv8301.hpp:83:0
	.fnstart
	.cfi_startproc
@ %bb.0:
	.pad	#4
	sub	sp, #4
	.cfi_def_cfa_offset 4
	str	r0, [sp]
	vmov.f32	s0, #5.000000e-01
.Ltmp91:
	.loc	3 84 9 prologue_end epilogue_begin @ ../Drivers/DRV8301/drv8301.hpp:84:9
	add	sp, #4
	bx	lr
.Ltmp92:
.Lfunc_end14:
	.size	_ZN7Drv830112get_midpointEv, .Lfunc_end14-_ZN7Drv830112get_midpointEv
	.cfi_endproc
	.cantunwind
	.fnend
                                        @ -- End function
	.section	.text._ZN7Drv830120get_max_output_swingEv,"axG",%progbits,_ZN7Drv830120get_max_output_swingEv,comdat
	.hidden	_ZN7Drv830120get_max_output_swingEv @ -- Begin function _ZN7Drv830120get_max_output_swingEv
	.weak	_ZN7Drv830120get_max_output_swingEv
	.p2align	2
	.type	_ZN7Drv830120get_max_output_swingEv,%function
	.code	16                              @ @_ZN7Drv830120get_max_output_swingEv
	.thumb_func
_ZN7Drv830120get_max_output_swingEv:
.Lfunc_begin15:
	.loc	3 87 0                          @ ../Drivers/DRV8301/drv8301.hpp:87:0
	.fnstart
	.cfi_startproc
@ %bb.0:
	.pad	#4
	sub	sp, #4
	.cfi_def_cfa_offset 4
	str	r0, [sp]
	vldr	s0, .LCPI15_0
.Ltmp93:
	.loc	3 88 9 prologue_end epilogue_begin @ ../Drivers/DRV8301/drv8301.hpp:88:9
	add	sp, #4
	bx	lr
.Ltmp94:
	.p2align	2
@ %bb.1:
	.loc	3 0 9 is_stmt 0                 @ ../Drivers/DRV8301/drv8301.hpp:0:9
.LCPI15_0:
	.long	0x3f51745e                      @ float 0.818181872
.Lfunc_end15:
	.size	_ZN7Drv830120get_max_output_swingEv, .Lfunc_end15-_ZN7Drv830120get_max_output_swingEv
	.cfi_endproc
	.cantunwind
	.fnend
                                        @ -- End function
	.section	.text._ZThn4_N7Drv830112get_midpointEv,"axG",%progbits,_ZThn4_N7Drv830112get_midpointEv,comdat
	.hidden	_ZThn4_N7Drv830112get_midpointEv @ -- Begin function _ZThn4_N7Drv830112get_midpointEv
	.weak	_ZThn4_N7Drv830112get_midpointEv
	.p2align	2
	.type	_ZThn4_N7Drv830112get_midpointEv,%function
	.code	16                              @ @_ZThn4_N7Drv830112get_midpointEv
	.thumb_func
_ZThn4_N7Drv830112get_midpointEv:
.Lfunc_begin16:
	.loc	3 0 0 is_stmt 1                 @ ../Drivers/DRV8301/drv8301.hpp:0:0
	.fnstart
	.cfi_startproc
@ %bb.0:
	.pad	#4
	sub	sp, #4
	.cfi_def_cfa_offset 4
	str	r0, [sp]
.Ltmp95:
	ldr	r0, [sp]
	subs	r0, #4
	add	sp, #4
	b	_ZN7Drv830112get_midpointEv
.Ltmp96:
.Lfunc_end16:
	.size	_ZThn4_N7Drv830112get_midpointEv, .Lfunc_end16-_ZThn4_N7Drv830112get_midpointEv
	.cfi_endproc
	.cantunwind
	.fnend
                                        @ -- End function
	.section	.text._ZThn4_N7Drv830120get_max_output_swingEv,"axG",%progbits,_ZThn4_N7Drv830120get_max_output_swingEv,comdat
	.hidden	_ZThn4_N7Drv830120get_max_output_swingEv @ -- Begin function _ZThn4_N7Drv830120get_max_output_swingEv
	.weak	_ZThn4_N7Drv830120get_max_output_swingEv
	.p2align	2
	.type	_ZThn4_N7Drv830120get_max_output_swingEv,%function
	.code	16                              @ @_ZThn4_N7Drv830120get_max_output_swingEv
	.thumb_func
_ZThn4_N7Drv830120get_max_output_swingEv:
.Lfunc_begin17:
	.loc	3 0 0                           @ ../Drivers/DRV8301/drv8301.hpp:0:0
	.fnstart
	.cfi_startproc
@ %bb.0:
	.pad	#4
	sub	sp, #4
	.cfi_def_cfa_offset 4
	str	r0, [sp]
.Ltmp97:
	ldr	r0, [sp]
	subs	r0, #4
	add	sp, #4
	b	_ZN7Drv830120get_max_output_swingEv
.Ltmp98:
.Lfunc_end17:
	.size	_ZThn4_N7Drv830120get_max_output_swingEv, .Lfunc_end17-_ZThn4_N7Drv830120get_max_output_swingEv
	.cfi_endproc
	.cantunwind
	.fnend
                                        @ -- End function
	.section	.text._ZL18cpu_enter_criticalv,"ax",%progbits
	.p2align	2                               @ -- Begin function _ZL18cpu_enter_criticalv
	.type	_ZL18cpu_enter_criticalv,%function
	.code	16                              @ @_ZL18cpu_enter_criticalv
	.thumb_func
_ZL18cpu_enter_criticalv:
.Lfunc_begin18:
	.loc	5 31 0                          @ ../../Firmware\Drivers/STM32/stm32_system.h:31:0
	.fnstart
	.cfi_startproc
@ %bb.0:
	.pad	#12
	sub	sp, #12
	.cfi_def_cfa_offset 12
.Ltmp99:
	.file	8 "D:\\ikingtec\\Robot\\ODrive\\Firmware\\MDK-ARM" "../ThirdParty/CMSIS/Include/cmsis_armclang.h"
	.loc	8 377 3 prologue_end            @ ../ThirdParty/CMSIS/Include/cmsis_armclang.h:377:3
	@APP
	mrs	r0, primask
	@NO_APP
	str	r0, [sp, #4]
	.loc	8 378 10                        @ ../ThirdParty/CMSIS/Include/cmsis_armclang.h:378:10
	ldr	r0, [sp, #4]
.Ltmp100:
	.loc	5 32 14                         @ ../../Firmware\Drivers/STM32/stm32_system.h:32:14
	str	r0, [sp]
	.loc	5 33 5                          @ ../../Firmware\Drivers/STM32/stm32_system.h:33:5
	@APP
	mrs	r0, primask
	cpsid i

	@NO_APP
	str	r0, [sp, #8]
	.loc	5 34 12                         @ ../../Firmware\Drivers/STM32/stm32_system.h:34:12
	ldr	r0, [sp]
	.loc	5 34 5 epilogue_begin is_stmt 0 @ ../../Firmware\Drivers/STM32/stm32_system.h:34:5
	add	sp, #12
	bx	lr
.Ltmp101:
.Lfunc_end18:
	.size	_ZL18cpu_enter_criticalv, .Lfunc_end18-_ZL18cpu_enter_criticalv
	.cfi_endproc
	.cantunwind
	.fnend
                                        @ -- End function
	.section	.text._ZL17cpu_exit_criticalj,"ax",%progbits
	.p2align	2                               @ -- Begin function _ZL17cpu_exit_criticalj
	.type	_ZL17cpu_exit_criticalj,%function
	.code	16                              @ @_ZL17cpu_exit_criticalj
	.thumb_func
_ZL17cpu_exit_criticalj:
.Lfunc_begin19:
	.loc	5 37 0 is_stmt 1                @ ../../Firmware\Drivers/STM32/stm32_system.h:37:0
	.fnstart
	.cfi_startproc
@ %bb.0:
	.pad	#8
	sub	sp, #8
	.cfi_def_cfa_offset 8
	str	r0, [sp]
.Ltmp102:
	.loc	5 38 19 prologue_end            @ ../../Firmware\Drivers/STM32/stm32_system.h:38:19
	ldr	r0, [sp]
	str	r0, [sp, #4]
.Ltmp103:
	.loc	8 405 46                        @ ../ThirdParty/CMSIS/Include/cmsis_armclang.h:405:46
	ldr	r0, [sp, #4]
	.loc	8 405 3 is_stmt 0               @ ../ThirdParty/CMSIS/Include/cmsis_armclang.h:405:3
	@APP
	msr	primask, r0
	@NO_APP
.Ltmp104:
	.loc	5 39 1 epilogue_begin is_stmt 1 @ ../../Firmware\Drivers/STM32/stm32_system.h:39:1
	add	sp, #8
	bx	lr
.Ltmp105:
.Lfunc_end19:
	.size	_ZL17cpu_exit_criticalj, .Lfunc_end19-_ZL17cpu_exit_criticalj
	.cfi_endproc
	.cantunwind
	.fnend
                                        @ -- End function
	.hidden	_ZN7Drv830111spi_config_E       @ @_ZN7Drv830111spi_config_E
	.type	_ZN7Drv830111spi_config_E,%object
	.section	.rodata._ZN7Drv830111spi_config_E,"a",%progbits
	.globl	_ZN7Drv830111spi_config_E
	.p2align	2, 0x0
_ZN7Drv830111spi_config_E:
	.long	260                             @ 0x104
	.long	0                               @ 0x0
	.long	2048                            @ 0x800
	.long	0                               @ 0x0
	.long	1                               @ 0x1
	.long	512                             @ 0x200
	.long	24                              @ 0x18
	.long	0                               @ 0x0
	.long	0                               @ 0x0
	.long	0                               @ 0x0
	.long	10                              @ 0xa
	.size	_ZN7Drv830111spi_config_E, 44

	.type	.L__const._ZN7Drv83016configEfPf.gain_choices,%object @ @__const._ZN7Drv83016configEfPf.gain_choices
	.section	.rodata.cst16,"aM",%progbits,16
	.p2align	2, 0x0
.L__const._ZN7Drv83016configEfPf.gain_choices:
	.long	0x41200000                      @ float 10
	.long	0x41a00000                      @ float 20
	.long	0x42200000                      @ float 40
	.long	0x42a00000                      @ float 80
	.size	.L__const._ZN7Drv83016configEfPf.gain_choices, 16

	.hidden	_ZTV7Drv8301                    @ @_ZTV7Drv8301
	.type	_ZTV7Drv8301,%object
	.section	.rodata._ZTV7Drv8301,"a",%progbits
	.globl	_ZTV7Drv8301
	.p2align	2, 0x0
_ZTV7Drv8301:
	.long	0
	.long	_ZTI7Drv8301
	.long	_ZN7Drv830111set_enabledEb
	.long	_ZN7Drv83018is_readyEv
	.long	_ZN7Drv830112get_midpointEv
	.long	_ZN7Drv830120get_max_output_swingEv
	.long	4294967292
	.long	_ZTI7Drv8301
	.long	_ZThn4_N7Drv83018is_readyEv
	.long	_ZThn4_N7Drv830112get_midpointEv
	.long	_ZThn4_N7Drv830120get_max_output_swingEv
	.size	_ZTV7Drv8301, 44

	.hidden	_ZTS7Drv8301                    @ @_ZTS7Drv8301
	.type	_ZTS7Drv8301,%object
	.section	.rodata._ZTS7Drv8301,"a",%progbits
	.globl	_ZTS7Drv8301
_ZTS7Drv8301:
	.asciz	"7Drv8301"
	.size	_ZTS7Drv8301, 9

	.hidden	_ZTS14GateDriverBase            @ @_ZTS14GateDriverBase
	.type	_ZTS14GateDriverBase,%object
	.section	.rodata._ZTS14GateDriverBase,"aG",%progbits,_ZTS14GateDriverBase,comdat
	.weak	_ZTS14GateDriverBase
_ZTS14GateDriverBase:
	.asciz	"14GateDriverBase"
	.size	_ZTS14GateDriverBase, 17

	.hidden	_ZTI14GateDriverBase            @ @_ZTI14GateDriverBase
	.type	_ZTI14GateDriverBase,%object
	.section	.rodata._ZTI14GateDriverBase,"aG",%progbits,_ZTI14GateDriverBase,comdat
	.weak	_ZTI14GateDriverBase
	.p2align	2, 0x0
_ZTI14GateDriverBase:
	.long	_ZTVN10__cxxabiv117__class_type_infoE+8
	.long	_ZTS14GateDriverBase
	.size	_ZTI14GateDriverBase, 8

	.hidden	_ZTS9OpAmpBase                  @ @_ZTS9OpAmpBase
	.type	_ZTS9OpAmpBase,%object
	.section	.rodata._ZTS9OpAmpBase,"aG",%progbits,_ZTS9OpAmpBase,comdat
	.weak	_ZTS9OpAmpBase
_ZTS9OpAmpBase:
	.asciz	"9OpAmpBase"
	.size	_ZTS9OpAmpBase, 11

	.hidden	_ZTI9OpAmpBase                  @ @_ZTI9OpAmpBase
	.type	_ZTI9OpAmpBase,%object
	.section	.rodata._ZTI9OpAmpBase,"aG",%progbits,_ZTI9OpAmpBase,comdat
	.weak	_ZTI9OpAmpBase
	.p2align	2, 0x0
_ZTI9OpAmpBase:
	.long	_ZTVN10__cxxabiv117__class_type_infoE+8
	.long	_ZTS9OpAmpBase
	.size	_ZTI9OpAmpBase, 8

	.hidden	_ZTI7Drv8301                    @ @_ZTI7Drv8301
	.type	_ZTI7Drv8301,%object
	.section	.rodata._ZTI7Drv8301,"a",%progbits
	.globl	_ZTI7Drv8301
	.p2align	2, 0x0
_ZTI7Drv8301:
	.long	_ZTVN10__cxxabiv121__vmi_class_type_infoE+8
	.long	_ZTS7Drv8301
	.long	0                               @ 0x0
	.long	2                               @ 0x2
	.long	_ZTI14GateDriverBase
	.long	2                               @ 0x2
	.long	_ZTI9OpAmpBase
	.long	1026                            @ 0x402
	.size	_ZTI7Drv8301, 32

	.file	9 "D:\\Embed\\MDK\\MDK\\ARM\\ARMCompilerV621\\Bin\\..\\include" "stdio.h"
	.file	10 "D:\\ikingtec\\Robot\\ODrive\\Firmware\\MDK-ARM" "../Drivers/DRV8301\\drv8301.cpp"
	.file	11 "D:\\Embed\\MDK\\MDK\\ARM\\ARMCompilerV621\\Bin\\..\\include" "stddef.h"
	.file	12 "D:\\Embed\\MDK\\MDK\\ARM\\ARMCompilerV621\\Bin\\..\\include\\libcxx" "stddef.h"
	.file	13 "D:\\Embed\\MDK\\MDK\\ARM\\ARMCompilerV621\\Bin\\..\\include\\libcxx" "cstddef"
	.file	14 "D:\\Embed\\MDK\\MDK\\ARM\\ARMCompilerV621\\Bin\\..\\include\\libcxx" "cstdint"
	.file	15 "D:\\Embed\\MDK\\MDK\\ARM\\ARMCompilerV621\\Bin\\..\\include" "stdlib.h"
	.file	16 "D:\\Embed\\MDK\\MDK\\ARM\\ARMCompilerV621\\Bin\\..\\include\\libcxx" "cstdlib"
	.file	17 "D:\\Embed\\MDK\\MDK\\ARM\\ARMCompilerV621\\Bin\\..\\include\\libcxx" "stdlib.h"
	.file	18 "D:\\Embed\\MDK\\MDK\\ARM\\ARMCompilerV621\\Bin\\..\\include" "ctype.h"
	.file	19 "D:\\Embed\\MDK\\MDK\\ARM\\ARMCompilerV621\\Bin\\..\\include\\libcxx" "cctype"
	.file	20 "D:\\Embed\\MDK\\MDK\\ARM\\ARMCompilerV621\\Bin\\..\\include" "wctype.h"
	.file	21 "D:\\Embed\\MDK\\MDK\\ARM\\ARMCompilerV621\\Bin\\..\\include\\libcxx" "cwctype"
	.file	22 "D:\\Embed\\MDK\\MDK\\ARM\\ARMCompilerV621\\Bin\\..\\include" "wchar.h"
	.file	23 "D:\\Embed\\MDK\\MDK\\ARM\\ARMCompilerV621\\Bin\\..\\include" "time.h"
	.file	24 "D:\\Embed\\MDK\\MDK\\ARM\\ARMCompilerV621\\Bin\\..\\include\\libcxx" "cwchar"
	.file	25 "D:\\Embed\\MDK\\MDK\\ARM\\ARMCompilerV621\\Bin\\..\\include\\libcxx" "wchar.h"
	.file	26 "D:\\Embed\\MDK\\MDK\\ARM\\ARMCompilerV621\\Bin\\..\\include" "string.h"
	.file	27 "D:\\Embed\\MDK\\MDK\\ARM\\ARMCompilerV621\\Bin\\..\\include\\libcxx" "cstring"
	.file	28 "D:\\Embed\\MDK\\MDK\\ARM\\ARMCompilerV621\\Bin\\..\\include\\libcxx" "string.h"
	.file	29 "D:\\Embed\\MDK\\MDK\\ARM\\ARMCompilerV621\\Bin\\..\\include\\libcxx\\__chrono" "duration.h"
	.file	30 "D:\\Embed\\MDK\\MDK\\ARM\\ARMCompilerV621\\Bin\\..\\include\\libcxx" "ctime"
	.file	31 "D:\\Embed\\MDK\\MDK\\ARM\\ARMCompilerV621\\Bin\\..\\include" "errno.h"
	.file	32 "D:\\Embed\\MDK\\MDK\\ARM\\ARMCompilerV621\\Bin\\..\\include\\libcxx" "__std_mbstate_t.h"
	.file	33 "D:\\Embed\\MDK\\MDK\\ARM\\ARMCompilerV621\\Bin\\..\\include" "math.h"
	.file	34 "D:\\Embed\\MDK\\MDK\\ARM\\ARMCompilerV621\\Bin\\..\\include\\libcxx\\__math" "traits.h"
	.file	35 "D:\\Embed\\MDK\\MDK\\ARM\\ARMCompilerV621\\Bin\\..\\include\\libcxx" "math.h"
	.file	36 "D:\\Embed\\MDK\\MDK\\ARM\\ARMCompilerV621\\Bin\\..\\include\\libcxx\\__math" "modulo.h"
	.file	37 "D:\\Embed\\MDK\\MDK\\ARM\\ARMCompilerV621\\Bin\\..\\include\\libcxx" "cmath"
	.file	38 "D:\\Embed\\MDK\\MDK\\ARM\\ARMCompilerV621\\Bin\\..\\include\\libcxx" "cstdio"
	.file	39 "D:\\Embed\\MDK\\MDK\\ARM\\ARMCompilerV621\\Bin\\..\\include" "locale.h"
	.file	40 "D:\\Embed\\MDK\\MDK\\ARM\\ARMCompilerV621\\Bin\\..\\include\\libcxx" "clocale"
	.file	41 "D:\\Embed\\MDK\\MDK\\ARM\\ARMCompilerV621\\Bin\\..\\include" "stdarg.h"
	.file	42 "D:\\Embed\\MDK\\MDK\\ARM\\ARMCompilerV621\\Bin\\..\\include\\libcxx" "cstdarg"
	.section	".note.GNU-stack","",%progbits
	.eabi_attribute	30, 6	@ Tag_ABI_optimization_goals
	.ARM_attribute	16, 1	@ Tag_AV_eba