	.text
	.syntax unified
	.eabi_attribute	67, "2.09"	@ Tag_conformance
	.cpu	cortex-m4
	.eabi_attribute	6, 13	@ Tag_CPU_arch
	.eabi_attribute	7, 77	@ Tag_CPU_arch_profile
	.eabi_attribute	8, 0	@ Tag_ARM_ISA_use
	.eabi_attribute	9, 2	@ Tag_THUMB_ISA_use
	.fpu	fpv4-sp-d16
	.eabi_attribute	27, 1	@ Tag_ABI_HardFP_use
	.eabi_attribute	36, 1	@ Tag_FP_HP_extension
	.eabi_attribute	34, 1	@ Tag_CPU_unaligned_access
	.eabi_attribute	17, 1	@ Tag_ABI_PCS_GOT_use
	.eabi_attribute	20, 2	@ Tag_ABI_FP_denormal
	.eabi_attribute	21, 0	@ Tag_ABI_FP_exceptions
	.eabi_attribute	23, 1	@ Tag_ABI_FP_number_model
	.eabi_attribute	24, 1	@ Tag_ABI_align_needed
	.eabi_attribute	25, 1	@ Tag_ABI_align_preserved
	.eabi_attribute	28, 1	@ Tag_ABI_VFP_args
	.eabi_attribute	38, 1	@ Tag_ABI_FP_16bit_format
	.eabi_attribute	18, 2	@ Tag_ABI_PCS_wchar_t
	.eabi_attribute	26, 1	@ Tag_ABI_enum_size
	.eabi_attribute	14, 0	@ Tag_ABI_PCS_R9_use
	.file	"encoder.cpp"
	.file	1 "D:\\Embed\\MDK\\MDK\\ARM\\ARMCompilerV621\\Bin\\..\\include" "stdint.h"
	.file	2 "D:\\ikingtec\\Robot\\ODrive\\Firmware\\MDK-ARM" "../../Firmware\\autogen/interfaces.hpp"
	.file	3 "D:\\ikingtec\\Robot\\ODrive\\Firmware\\MDK-ARM" "../../Firmware\\MotorControl/encoder.hpp"
	.file	4 "D:\\Embed\\MDK\\MDK\\ARM\\ARMCompilerV621\\Bin\\..\\include\\libcxx" "array"
	.file	5 "D:\\Embed\\MDK\\MDK\\ARM\\ARMCompilerV621\\Bin\\..\\include" "stddef.h"
	.file	6 "D:\\ikingtec\\Robot\\ODrive\\Firmware\\MDK-ARM" "../ThirdParty/CMSIS/Device/ST/STM32F4xx/Include/stm32f405xx.h"
	.file	7 "D:\\ikingtec\\Robot\\ODrive\\Firmware\\MDK-ARM" "../ThirdParty/STM32F4xx_HAL_Driver/Inc\\stm32f4xx_hal_tim.h"
	.file	8 "D:\\ikingtec\\Robot\\ODrive\\Firmware\\MDK-ARM" "../ThirdParty/STM32F4xx_HAL_Driver/Inc\\stm32f4xx_hal_dma.h"
	.file	9 "D:\\ikingtec\\Robot\\ODrive\\Firmware\\MDK-ARM" "../ThirdParty/STM32F4xx_HAL_Driver/Inc/stm32f4xx_hal_def.h"
	.file	10 "D:\\ikingtec\\Robot\\ODrive\\Firmware\\MDK-ARM" "../../Firmware\\Drivers/STM32/stm32_gpio.hpp"
	.file	11 "D:\\ikingtec\\Robot\\ODrive\\Firmware\\MDK-ARM" "../../Firmware\\MotorControl/component.hpp"
	.file	12 "D:\\Embed\\MDK\\MDK\\ARM\\ARMCompilerV621\\Bin\\..\\include\\libcxx" "optional"
	.file	13 "D:\\Embed\\MDK\\MDK\\ARM\\ARMCompilerV621\\Bin\\..\\include\\libcxx\\__tuple" "sfinae_helpers.h"
	.file	14 "D:\\Embed\\MDK\\MDK\\ARM\\ARMCompilerV621\\Bin\\..\\include\\libcxx\\__type_traits" "add_pointer.h"
	.file	15 "D:\\ikingtec\\Robot\\ODrive\\Firmware\\MDK-ARM" "../ThirdParty/STM32F4xx_HAL_Driver/Inc\\stm32f4xx_hal_spi.h"
	.file	16 "D:\\ikingtec\\Robot\\ODrive\\Firmware\\MDK-ARM" "../../Firmware\\Drivers/STM32/stm32_spi_arbiter.hpp"
	.file	17 "D:\\ikingtec\\Robot\\ODrive\\Firmware\\MDK-ARM" "../Board/v3/Inc\\board.h"
	.file	18 "D:\\ikingtec\\Robot\\ODrive\\Firmware\\MDK-ARM" "../../Firmware\\MotorControl/utils.hpp"
	.file	19 "D:\\Embed\\MDK\\MDK\\ARM\\ARMCompilerV621\\Bin\\..\\include\\libcxx\\__functional" "function.h"
	.file	20 "D:\\ikingtec\\Robot\\ODrive\\Firmware\\MDK-ARM" "../MotorControl/encoder.cpp"
	.file	21 "D:\\Embed\\MDK\\MDK\\ARM\\ARMCompilerV621\\Bin\\..\\include\\libcxx\\__type_traits" "integral_constant.h"
	.file	22 "D:\\Embed\\MDK\\MDK\\ARM\\ARMCompilerV621\\Bin\\..\\include\\libcxx" "variant"
	.file	23 "D:\\Embed\\MDK\\MDK\\ARM\\ARMCompilerV621\\Bin\\..\\include" "time.h"
	.file	24 "D:\\Embed\\MDK\\MDK\\ARM\\ARMCompilerV621\\Bin\\..\\include\\libcxx\\__utility" "in_place.h"
	.file	25 "D:\\ikingtec\\Robot\\ODrive\\Firmware\\MDK-ARM" "../ThirdParty/STM32F4xx_HAL_Driver/Inc\\stm32f4xx_hal_gpio.h"
	.file	26 "D:\\Embed\\MDK\\MDK\\ARM\\ARMCompilerV621\\Bin\\..\\include\\libcxx\\__type_traits" "underlying_type.h"
	.file	27 "D:\\Embed\\MDK\\MDK\\ARM\\ARMCompilerV621\\Bin\\..\\include\\libcxx" "bitset"
	.file	28 "D:\\Embed\\MDK\\MDK\\ARM\\ARMCompilerV621\\Bin\\..\\include\\libcxx" "__bit_reference"
	.file	29 "D:\\ikingtec\\Robot\\ODrive\\Firmware\\MDK-ARM" "../../Firmware\\Drivers/STM32/stm32_system.h"
	.file	30 "D:\\Embed\\MDK\\MDK\\ARM\\ARMCompilerV621\\Bin\\..\\include\\libcxx\\__utility" "pair.h"
	.file	31 "D:\\Embed\\MDK\\MDK\\ARM\\ARMCompilerV621\\Bin\\..\\include\\libcxx\\__functional" "unary_function.h"
	.file	32 "D:\\Embed\\MDK\\MDK\\ARM\\ARMCompilerV621\\Bin\\..\\include\\libcxx" "stddef.h"
	.section	.text._ZN7EncoderC2EP17TIM_HandleTypeDef9Stm32GpioS2_S2_S2_P15Stm32SpiArbiter,"ax",%progbits
	.hidden	_ZN7EncoderC2EP17TIM_HandleTypeDef9Stm32GpioS2_S2_S2_P15Stm32SpiArbiter @ -- Begin function _ZN7EncoderC2EP17TIM_HandleTypeDef9Stm32GpioS2_S2_S2_P15Stm32SpiArbiter
	.globl	_ZN7EncoderC2EP17TIM_HandleTypeDef9Stm32GpioS2_S2_S2_P15Stm32SpiArbiter
	.p2align	2
	.type	_ZN7EncoderC2EP17TIM_HandleTypeDef9Stm32GpioS2_S2_S2_P15Stm32SpiArbiter,%function
	.code	16                              @ @_ZN7EncoderC2EP17TIM_HandleTypeDef9Stm32GpioS2_S2_S2_P15Stm32SpiArbiter
	.thumb_func
_ZN7EncoderC2EP17TIM_HandleTypeDef9Stm32GpioS2_S2_S2_P15Stm32SpiArbiter:
.Lfunc_begin0:
	.loc	20 14 0                         @ ../MotorControl/encoder.cpp:14:0
	.fnstart
	.cfi_sections .debug_frame
	.cfi_startproc
@ %bb.0:
	.save	{r4, r5, r6, r7, r8, lr}
	push.w	{r4, r5, r6, r7, r8, lr}
	.cfi_def_cfa_offset 24
	.cfi_offset lr, -4
	.cfi_offset r8, -8
	.cfi_offset r7, -12
	.cfi_offset r6, -16
	.cfi_offset r5, -20
	.cfi_offset r4, -24
	.pad	#56
	sub	sp, #56
	.cfi_def_cfa_offset 80
	mov	r7, r3
	mov	r6, r2
	ldr	r3, [sp, #100]
	ldr	r2, [sp, #96]
	ldr.w	lr, [sp, #92]
	ldr.w	r12, [sp, #88]
	ldr	r5, [sp, #84]
	ldr	r4, [sp, #80]
                                        @ kill: def $r8 killed $r7
                                        @ kill: def $r8 killed $r6
	ldr.w	r8, [sp, #104]
	str	r7, [sp, #52]
	str	r6, [sp, #48]
	str	r5, [sp, #44]
	str	r4, [sp, #40]
	str.w	lr, [sp, #36]
	str.w	r12, [sp, #32]
	str	r3, [sp, #28]
	str	r2, [sp, #24]
	str	r0, [sp, #20]
	str	r1, [sp, #16]
	ldr	r0, [sp, #20]
.Ltmp0:
	.loc	20 8 10 prologue_end            @ ../MotorControl/encoder.cpp:8:10
	str	r0, [sp, #8]                    @ 4-byte Spill
	bl	_ZN10ODriveIntf11EncoderIntfC2Ev
	ldr	r0, [sp, #8]                    @ 4-byte Reload
	.loc	20 14 1                         @ ../MotorControl/encoder.cpp:14:1
	movw	r1, :lower16:_ZTV7Encoder
	movt	r1, :upper16:_ZTV7Encoder
	adds	r1, #8
	str	r1, [r0]
	.loc	20 11 16                        @ ../MotorControl/encoder.cpp:11:16
	ldr	r1, [sp, #16]
	.loc	20 11 9 is_stmt 0               @ ../MotorControl/encoder.cpp:11:9
	str	r1, [r0, #8]
	.loc	20 11 24                        @ ../MotorControl/encoder.cpp:11:24
	ldr	r1, [sp, #48]
	ldr	r2, [sp, #52]
	str	r2, [r0, #16]
	str	r1, [r0, #12]
	.loc	20 12 9 is_stmt 1               @ ../MotorControl/encoder.cpp:12:9
	ldr	r1, [sp, #40]
	ldr	r2, [sp, #44]
	str	r2, [r0, #24]
	str	r1, [r0, #20]
	.loc	20 12 34 is_stmt 0              @ ../MotorControl/encoder.cpp:12:34
	ldr	r1, [sp, #32]
	ldr	r2, [sp, #36]
	str	r2, [r0, #32]
	str	r1, [r0, #28]
	.loc	20 12 59                        @ ../MotorControl/encoder.cpp:12:59
	ldr	r1, [sp, #24]
	ldr	r2, [sp, #28]
	str	r2, [r0, #40]
	str	r1, [r0, #36]
	.loc	20 13 22 is_stmt 1              @ ../MotorControl/encoder.cpp:13:22
	ldr	r1, [sp, #104]
	.loc	20 13 9 is_stmt 0               @ ../MotorControl/encoder.cpp:13:9
	str	r1, [r0, #44]
	movs	r1, #0
	.loc	3 92 11 is_stmt 1               @ ../../Firmware\MotorControl/encoder.hpp:92:11
	str	r1, [sp, #4]                    @ 4-byte Spill
	str	r1, [r0, #48]
	.loc	20 8 10                         @ ../MotorControl/encoder.cpp:8:10
	adds	r0, #52
	bl	_ZN7Encoder8Config_tC2Ev
	ldr	r0, [sp, #8]                    @ 4-byte Reload
	ldr	r1, [sp, #4]                    @ 4-byte Reload
	.loc	3 96 11                         @ ../../Firmware\MotorControl/encoder.hpp:96:11
	strh.w	r1, [r0, #140]
	.loc	3 97 10                         @ ../../Firmware\MotorControl/encoder.hpp:97:10
	strb.w	r1, [r0, #142]
	.loc	3 98 10                         @ ../../Firmware\MotorControl/encoder.hpp:98:10
	strb.w	r1, [r0, #143]
	.loc	3 99 13                         @ ../../Firmware\MotorControl/encoder.hpp:99:13
	str.w	r1, [r0, #144]
	.loc	3 100 13                        @ ../../Firmware\MotorControl/encoder.hpp:100:13
	str.w	r1, [r0, #148]
	.loc	3 101 11                        @ ../../Firmware\MotorControl/encoder.hpp:101:11
	str.w	r1, [r0, #152]
	.loc	3 102 23                        @ ../../Firmware\MotorControl/encoder.hpp:102:23
	adds	r0, #156
	vldr	s0, .LCPI0_0
	vstr	s0, [sp]                        @ 4-byte Spill
	.loc	3 102 32 is_stmt 0              @ ../../Firmware\MotorControl/encoder.hpp:102:32
	bl	_ZN10OutputPortIfEC2Ef
	ldr	r0, [sp, #8]                    @ 4-byte Reload
	vldr	s0, [sp]                        @ 4-byte Reload
	.loc	3 103 23 is_stmt 1              @ ../../Firmware\MotorControl/encoder.hpp:103:23
	adds	r0, #164
	.loc	3 103 36 is_stmt 0              @ ../../Firmware\MotorControl/encoder.hpp:103:36
	bl	_ZN10OutputPortIfEC2Ef
	ldr	r0, [sp, #8]                    @ 4-byte Reload
	vldr	s0, [sp]                        @ 4-byte Reload
	ldr	r1, [sp, #4]                    @ 4-byte Reload
	.loc	3 104 11 is_stmt 1              @ ../../Firmware\MotorControl/encoder.hpp:104:11
	str.w	r1, [r0, #172]
	.loc	3 105 11                        @ ../../Firmware\MotorControl/encoder.hpp:105:11
	str.w	r1, [r0, #176]
	.loc	3 106 11                        @ ../../Firmware\MotorControl/encoder.hpp:106:11
	str.w	r1, [r0, #180]
	.loc	3 107 11                        @ ../../Firmware\MotorControl/encoder.hpp:107:11
	str.w	r1, [r0, #184]
	.loc	3 108 11                        @ ../../Firmware\MotorControl/encoder.hpp:108:11
	str.w	r1, [r0, #188]
	.loc	3 109 11                        @ ../../Firmware\MotorControl/encoder.hpp:109:11
	str.w	r1, [r0, #192]
	.loc	3 110 11                        @ ../../Firmware\MotorControl/encoder.hpp:110:11
	str.w	r1, [r0, #196]
	.loc	3 111 13                        @ ../../Firmware\MotorControl/encoder.hpp:111:13
	str.w	r1, [r0, #200]
	.loc	3 112 11                        @ ../../Firmware\MotorControl/encoder.hpp:112:11
	str.w	r1, [r0, #204]
	.loc	3 114 23                        @ ../../Firmware\MotorControl/encoder.hpp:114:23
	adds	r0, #208
	.loc	3 114 39 is_stmt 0              @ ../../Firmware\MotorControl/encoder.hpp:114:39
	bl	_ZN10OutputPortIfEC2Ef
	ldr	r0, [sp, #8]                    @ 4-byte Reload
	vldr	s0, [sp]                        @ 4-byte Reload
	.loc	3 115 23 is_stmt 1              @ ../../Firmware\MotorControl/encoder.hpp:115:23
	adds	r0, #216
	.loc	3 115 39 is_stmt 0              @ ../../Firmware\MotorControl/encoder.hpp:115:39
	bl	_ZN10OutputPortIfEC2Ef
	ldr	r0, [sp, #8]                    @ 4-byte Reload
	vldr	s0, [sp]                        @ 4-byte Reload
	.loc	3 116 23 is_stmt 1              @ ../../Firmware\MotorControl/encoder.hpp:116:23
	adds	r0, #224
	.loc	3 116 39 is_stmt 0              @ ../../Firmware\MotorControl/encoder.hpp:116:39
	bl	_ZN10OutputPortIfEC2Ef
	ldr	r0, [sp, #8]                    @ 4-byte Reload
	ldr	r1, [sp, #4]                    @ 4-byte Reload
	.loc	3 118 10 is_stmt 1              @ ../../Firmware\MotorControl/encoder.hpp:118:10
	strb.w	r1, [r0, #232]
	.loc	3 119 10                        @ ../../Firmware\MotorControl/encoder.hpp:119:10
	strb.w	r1, [r0, #233]
	.loc	3 121 13                        @ ../../Firmware\MotorControl/encoder.hpp:121:13
	strh.w	r1, [r0, #234]
	.loc	3 127 13                        @ ../../Firmware\MotorControl/encoder.hpp:127:13
	strb.w	r1, [r0, #242]
	.loc	3 128 28                        @ ../../Firmware\MotorControl/encoder.hpp:128:28
	adds	r0, #243
	.loc	3 128 45 is_stmt 0              @ ../../Firmware\MotorControl/encoder.hpp:128:45
	bl	_ZNSt3__28optionalIhEC2B7v180000ENS_9nullopt_tE
	ldr	r0, [sp, #8]                    @ 4-byte Reload
	ldr	r1, [sp, #4]                    @ 4-byte Reload
	.loc	3 129 10 is_stmt 1              @ ../../Firmware\MotorControl/encoder.hpp:129:10
	strb.w	r1, [r0, #245]
	.loc	3 130 10                        @ ../../Firmware\MotorControl/encoder.hpp:130:10
	strb.w	r1, [r0, #246]
	.loc	3 131 10                        @ ../../Firmware\MotorControl/encoder.hpp:131:10
	strb.w	r1, [r0, #247]
	.loc	3 135 11                        @ ../../Firmware\MotorControl/encoder.hpp:135:11
	str.w	r1, [r0, #304]
	.loc	3 136 11                        @ ../../Firmware\MotorControl/encoder.hpp:136:11
	str.w	r1, [r0, #308]
	.loc	3 141 10                        @ ../../Firmware\MotorControl/encoder.hpp:141:10
	strb.w	r1, [r0, #312]
	.loc	3 142 10                        @ ../../Firmware\MotorControl/encoder.hpp:142:10
	strh.w	r1, [r0, #314]
	.loc	20 8 10                         @ ../MotorControl/encoder.cpp:8:10
	add.w	r0, r0, #316
	bl	_ZN9Stm32GpioC2Ev
	ldr	r0, [sp, #8]                    @ 4-byte Reload
	movw	r1, #65535
	.loc	3 146 35                        @ ../../Firmware\MotorControl/encoder.hpp:146:35
	strh.w	r1, [r0, #332]
	.loc	20 8 10                         @ ../MotorControl/encoder.cpp:8:10
	add.w	r0, r0, #336
	bl	_ZN15Stm32SpiArbiter7SpiTaskC2Ev
	ldr	r0, [sp, #8]                    @ 4-byte Reload
	.loc	20 15 1 epilogue_begin          @ ../MotorControl/encoder.cpp:15:1
	add	sp, #56
	pop.w	{r4, r5, r6, r7, r8, pc}
.Ltmp1:
	.p2align	2
@ %bb.1:
	.loc	20 0 1 is_stmt 0                @ ../MotorControl/encoder.cpp:0:1
.LCPI0_0:
	.long	0x00000000                      @ float 0
.Lfunc_end0:
	.size	_ZN7EncoderC2EP17TIM_HandleTypeDef9Stm32GpioS2_S2_S2_P15Stm32SpiArbiter, .Lfunc_end0-_ZN7EncoderC2EP17TIM_HandleTypeDef9Stm32GpioS2_S2_S2_P15Stm32SpiArbiter
	.cfi_endproc
	.cantunwind
	.fnend
                                        @ -- End function
	.section	.text._ZN10ODriveIntf11EncoderIntfC2Ev,"axG",%progbits,_ZN10ODriveIntf11EncoderIntfC2Ev,comdat
	.hidden	_ZN10ODriveIntf11EncoderIntfC2Ev @ -- Begin function _ZN10ODriveIntf11EncoderIntfC2Ev
	.weak	_ZN10ODriveIntf11EncoderIntfC2Ev
	.p2align	2
	.type	_ZN10ODriveIntf11EncoderIntfC2Ev,%function
	.code	16                              @ @_ZN10ODriveIntf11EncoderIntfC2Ev
	.thumb_func
_ZN10ODriveIntf11EncoderIntfC2Ev:
.Lfunc_begin1:
	.loc	2 711 0 is_stmt 1               @ ../../Firmware\autogen/interfaces.hpp:711:0
	.fnstart
	.cfi_startproc
@ %bb.0:
	.pad	#4
	sub	sp, #4
	.cfi_def_cfa_offset 4
	str	r0, [sp]
	ldr	r0, [sp]
.Ltmp2:
	.loc	2 711 11 prologue_end           @ ../../Firmware\autogen/interfaces.hpp:711:11
	movw	r1, :lower16:_ZTVN10ODriveIntf11EncoderIntfE
	movt	r1, :upper16:_ZTVN10ODriveIntf11EncoderIntfE
	adds	r1, #8
	str	r1, [r0]
	.loc	2 711 11 epilogue_begin is_stmt 0 @ ../../Firmware\autogen/interfaces.hpp:711:11
	add	sp, #4
	bx	lr
.Ltmp3:
.Lfunc_end1:
	.size	_ZN10ODriveIntf11EncoderIntfC2Ev, .Lfunc_end1-_ZN10ODriveIntf11EncoderIntfC2Ev
	.cfi_endproc
	.cantunwind
	.fnend
                                        @ -- End function
	.section	.text._ZN7Encoder8Config_tC2Ev,"axG",%progbits,_ZN7Encoder8Config_tC2Ev,comdat
	.hidden	_ZN7Encoder8Config_tC2Ev        @ -- Begin function _ZN7Encoder8Config_tC2Ev
	.weak	_ZN7Encoder8Config_tC2Ev
	.p2align	2
	.type	_ZN7Encoder8Config_tC2Ev,%function
	.code	16                              @ @_ZN7Encoder8Config_tC2Ev
	.thumb_func
_ZN7Encoder8Config_tC2Ev:
.Lfunc_begin2:
	.loc	3 19 0 is_stmt 1                @ ../../Firmware\MotorControl/encoder.hpp:19:0
	.fnstart
	.cfi_startproc
@ %bb.0:
	.save	{r4, r5, r6, lr}
	push	{r4, r5, r6, lr}
	.cfi_def_cfa_offset 16
	.cfi_offset lr, -4
	.cfi_offset r6, -8
	.cfi_offset r5, -12
	.cfi_offset r4, -16
	.pad	#4
	sub	sp, #4
	.cfi_def_cfa_offset 20
	str	r0, [sp]
	ldr	r0, [sp]
	movs	r1, #0
.Ltmp4:
	.loc	3 20 14 prologue_end            @ ../../Firmware\MotorControl/encoder.hpp:20:14
	strh	r1, [r0]
	movw	r2, #55050
	movt	r2, #15523
	.loc	3 21 15                         @ ../../Firmware\MotorControl/encoder.hpp:21:15
	str	r2, [r0, #4]
	movw	r2, #4059
	movt	r2, #16969
	.loc	3 22 15                         @ ../../Firmware\MotorControl/encoder.hpp:22:15
	str	r2, [r0, #8]
	movw	r2, #4059
	movt	r2, #16713
	.loc	3 23 15                         @ ../../Firmware\MotorControl/encoder.hpp:23:15
	str	r2, [r0, #12]
	movs	r2, #0
	movt	r2, #17530
	.loc	3 24 15                         @ ../../Firmware\MotorControl/encoder.hpp:24:15
	str	r2, [r0, #16]
	.loc	3 25 17                         @ ../../Firmware\MotorControl/encoder.hpp:25:17
	str	r1, [r0, #20]
	.loc	3 26 15                         @ ../../Firmware\MotorControl/encoder.hpp:26:15
	str	r1, [r0, #24]
	mov.w	r2, #8192
	.loc	3 27 17                         @ ../../Firmware\MotorControl/encoder.hpp:27:17
	str	r2, [r0, #28]
	.loc	3 28 15                         @ ../../Firmware\MotorControl/encoder.hpp:28:15
	str	r1, [r0, #32]
	.loc	3 29 14                         @ ../../Firmware\MotorControl/encoder.hpp:29:14
	strb.w	r1, [r0, #36]
	.loc	3 30 14                         @ ../../Firmware\MotorControl/encoder.hpp:30:14
	strb.w	r1, [r0, #37]
	.loc	3 35 17                         @ ../../Firmware\MotorControl/encoder.hpp:35:17
	str	r1, [r0, #40]
	movs	r2, #1
	.loc	3 36 14                         @ ../../Firmware\MotorControl/encoder.hpp:36:14
	strb.w	r2, [r0, #44]
	.loc	3 37 14                         @ ../../Firmware\MotorControl/encoder.hpp:37:14
	strb.w	r2, [r0, #45]
	.loc	3 38 14                         @ ../../Firmware\MotorControl/encoder.hpp:38:14
	strb.w	r1, [r0, #46]
	.loc	3 39 14                         @ ../../Firmware\MotorControl/encoder.hpp:39:14
	strb.w	r1, [r0, #47]
	.loc	3 40 17                         @ ../../Firmware\MotorControl/encoder.hpp:40:17
	strb.w	r1, [r0, #48]
	.loc	3 41 14                         @ ../../Firmware\MotorControl/encoder.hpp:41:14
	strb.w	r1, [r0, #49]
	.loc	3 42 46                         @ ../../Firmware\MotorControl/encoder.hpp:42:46
	movw	r6, :lower16:_ZN7Encoder18hall_edge_defaultsE
	movt	r6, :upper16:_ZN7Encoder18hall_edge_defaultsE
	ldr	r3, [r6]
	ldr.w	r12, [r6, #4]
	ldr.w	lr, [r6, #8]
	ldr	r4, [r6, #12]
	ldr	r5, [r6, #16]
	ldr	r6, [r6, #20]
	str	r6, [r0, #72]
	str	r5, [r0, #68]
	str	r4, [r0, #64]
	str.w	lr, [r0, #60]
	str.w	r12, [r0, #56]
	str	r3, [r0, #52]
	.loc	3 43 18                         @ ../../Firmware\MotorControl/encoder.hpp:43:18
	strh.w	r2, [r0, #76]
	movs	r2, #3
	.loc	3 44 18                         @ ../../Firmware\MotorControl/encoder.hpp:44:18
	strh.w	r2, [r0, #78]
	movs	r2, #4
	.loc	3 45 18                         @ ../../Firmware\MotorControl/encoder.hpp:45:18
	strh.w	r2, [r0, #80]
	.loc	3 49 18                         @ ../../Firmware\MotorControl/encoder.hpp:49:18
	str	r1, [r0, #84]
	.loc	3 19 12 epilogue_begin          @ ../../Firmware\MotorControl/encoder.hpp:19:12
	add	sp, #4
	pop	{r4, r5, r6, pc}
.Ltmp5:
.Lfunc_end2:
	.size	_ZN7Encoder8Config_tC2Ev, .Lfunc_end2-_ZN7Encoder8Config_tC2Ev
	.cfi_endproc
	.cantunwind
	.fnend
                                        @ -- End function
	.section	.text._ZN10OutputPortIfEC2Ef,"axG",%progbits,_ZN10OutputPortIfEC2Ef,comdat
	.hidden	_ZN10OutputPortIfEC2Ef          @ -- Begin function _ZN10OutputPortIfEC2Ef
	.weak	_ZN10OutputPortIfEC2Ef
	.p2align	2
	.type	_ZN10OutputPortIfEC2Ef,%function
	.code	16                              @ @_ZN10OutputPortIfEC2Ef
	.thumb_func
_ZN10OutputPortIfEC2Ef:
.Lfunc_begin3:
	.loc	11 47 0                         @ ../../Firmware\MotorControl/component.hpp:47:0
	.fnstart
	.cfi_startproc
@ %bb.0:
	.pad	#8
	sub	sp, #8
	.cfi_def_cfa_offset 8
	str	r0, [sp, #4]
	vstr	s0, [sp]
	ldr	r0, [sp, #4]
	movs	r1, #2
.Ltmp6:
	.loc	11 107 14 prologue_end          @ ../../Firmware\MotorControl/component.hpp:107:14
	str	r1, [r0]
	.loc	11 47 34                        @ ../../Firmware\MotorControl/component.hpp:47:34
	ldr	r1, [sp]
	.loc	11 47 25 is_stmt 0              @ ../../Firmware\MotorControl/component.hpp:47:25
	str	r1, [r0, #4]
	.loc	11 47 40 epilogue_begin         @ ../../Firmware\MotorControl/component.hpp:47:40
	add	sp, #8
	bx	lr
.Ltmp7:
.Lfunc_end3:
	.size	_ZN10OutputPortIfEC2Ef, .Lfunc_end3-_ZN10OutputPortIfEC2Ef
	.cfi_endproc
	.cantunwind
	.fnend
                                        @ -- End function
	.section	.text._ZNSt3__28optionalIhEC2B7v180000ENS_9nullopt_tE,"axG",%progbits,_ZNSt3__28optionalIhEC2B7v180000ENS_9nullopt_tE,comdat
	.hidden	_ZNSt3__28optionalIhEC2B7v180000ENS_9nullopt_tE @ -- Begin function _ZNSt3__28optionalIhEC2B7v180000ENS_9nullopt_tE
	.weak	_ZNSt3__28optionalIhEC2B7v180000ENS_9nullopt_tE
	.p2align	2
	.type	_ZNSt3__28optionalIhEC2B7v180000ENS_9nullopt_tE,%function
	.code	16                              @ @_ZNSt3__28optionalIhEC2B7v180000ENS_9nullopt_tE
	.thumb_func
_ZNSt3__28optionalIhEC2B7v180000ENS_9nullopt_tE:
.Lfunc_begin4:
	.loc	12 803 0 is_stmt 1              @ D:\Embed\MDK\MDK\ARM\ARMCompilerV621\Bin\..\include\libcxx\optional:803:0
	.fnstart
	.cfi_startproc
@ %bb.0:
	.save	{r7, lr}
	push	{r7, lr}
	.cfi_def_cfa_offset 8
	.cfi_offset lr, -4
	.cfi_offset r7, -8
	.pad	#16
	sub	sp, #16
	.cfi_def_cfa_offset 24
	str	r0, [sp, #8]
	ldr	r0, [sp, #8]
.Ltmp8:
	.loc	12 803 41 prologue_end          @ D:\Embed\MDK\MDK\ARM\ARMCompilerV621\Bin\..\include\libcxx\optional:803:41
	str	r0, [sp, #4]                    @ 4-byte Spill
	bl	_ZNSt3__227__optional_move_assign_baseIhLb1EEC2Ev
	ldr	r0, [sp, #4]                    @ 4-byte Reload
	.loc	12 803 71 epilogue_begin is_stmt 0 @ D:\Embed\MDK\MDK\ARM\ARMCompilerV621\Bin\..\include\libcxx\optional:803:71
	add	sp, #16
	pop	{r7, pc}
.Ltmp9:
.Lfunc_end4:
	.size	_ZNSt3__28optionalIhEC2B7v180000ENS_9nullopt_tE, .Lfunc_end4-_ZNSt3__28optionalIhEC2B7v180000ENS_9nullopt_tE
	.cfi_endproc
	.cantunwind
	.fnend
                                        @ -- End function
	.section	.text._ZN9Stm32GpioC2Ev,"axG",%progbits,_ZN9Stm32GpioC2Ev,comdat
	.hidden	_ZN9Stm32GpioC2Ev               @ -- Begin function _ZN9Stm32GpioC2Ev
	.weak	_ZN9Stm32GpioC2Ev
	.p2align	2
	.type	_ZN9Stm32GpioC2Ev,%function
	.code	16                              @ @_ZN9Stm32GpioC2Ev
	.thumb_func
_ZN9Stm32GpioC2Ev:
.Lfunc_begin5:
	.loc	10 10 0 is_stmt 1               @ ../../Firmware\Drivers/STM32/stm32_gpio.hpp:10:0
	.fnstart
	.cfi_startproc
@ %bb.0:
	.pad	#4
	sub	sp, #4
	.cfi_def_cfa_offset 4
	str	r0, [sp]
	ldr	r0, [sp]
	movs	r1, #0
.Ltmp10:
	.loc	10 10 19 prologue_end           @ ../../Firmware\Drivers/STM32/stm32_gpio.hpp:10:19
	str	r1, [r0]
	.loc	10 10 35 is_stmt 0              @ ../../Firmware\Drivers/STM32/stm32_gpio.hpp:10:35
	strh	r1, [r0, #4]
	.loc	10 10 49 epilogue_begin         @ ../../Firmware\Drivers/STM32/stm32_gpio.hpp:10:49
	add	sp, #4
	bx	lr
.Ltmp11:
.Lfunc_end5:
	.size	_ZN9Stm32GpioC2Ev, .Lfunc_end5-_ZN9Stm32GpioC2Ev
	.cfi_endproc
	.cantunwind
	.fnend
                                        @ -- End function
	.section	.text._ZN15Stm32SpiArbiter7SpiTaskC2Ev,"axG",%progbits,_ZN15Stm32SpiArbiter7SpiTaskC2Ev,comdat
	.hidden	_ZN15Stm32SpiArbiter7SpiTaskC2Ev @ -- Begin function _ZN15Stm32SpiArbiter7SpiTaskC2Ev
	.weak	_ZN15Stm32SpiArbiter7SpiTaskC2Ev
	.p2align	2
	.type	_ZN15Stm32SpiArbiter7SpiTaskC2Ev,%function
	.code	16                              @ @_ZN15Stm32SpiArbiter7SpiTaskC2Ev
	.thumb_func
_ZN15Stm32SpiArbiter7SpiTaskC2Ev:
.Lfunc_begin6:
	.loc	16 10 0 is_stmt 1               @ ../../Firmware\Drivers/STM32/stm32_spi_arbiter.hpp:10:0
	.fnstart
	.cfi_startproc
@ %bb.0:
	.save	{r7, lr}
	push	{r7, lr}
	.cfi_def_cfa_offset 8
	.cfi_offset lr, -4
	.cfi_offset r7, -8
	.pad	#8
	sub	sp, #8
	.cfi_def_cfa_offset 16
	str	r0, [sp, #4]
	ldr	r0, [sp, #4]
.Ltmp12:
	.loc	16 10 12 prologue_end           @ ../../Firmware\Drivers/STM32/stm32_spi_arbiter.hpp:10:12
	str	r0, [sp]                        @ 4-byte Spill
	adds	r0, #44
	bl	_ZN9Stm32GpioC2Ev
	ldr	r0, [sp]                        @ 4-byte Reload
	movs	r1, #0
	.loc	16 18 14                        @ ../../Firmware\Drivers/STM32/stm32_spi_arbiter.hpp:18:14
	strb.w	r1, [r0, #72]
	.loc	16 10 12 epilogue_begin         @ ../../Firmware\Drivers/STM32/stm32_spi_arbiter.hpp:10:12
	add	sp, #8
	pop	{r7, pc}
.Ltmp13:
.Lfunc_end6:
	.size	_ZN15Stm32SpiArbiter7SpiTaskC2Ev, .Lfunc_end6-_ZN15Stm32SpiArbiter7SpiTaskC2Ev
	.cfi_endproc
	.cantunwind
	.fnend
                                        @ -- End function
	.section	.text._ZN7Encoder12apply_configEN10ODriveIntf9MotorIntf9MotorTypeE,"ax",%progbits
	.hidden	_ZN7Encoder12apply_configEN10ODriveIntf9MotorIntf9MotorTypeE @ -- Begin function _ZN7Encoder12apply_configEN10ODriveIntf9MotorIntf9MotorTypeE
	.globl	_ZN7Encoder12apply_configEN10ODriveIntf9MotorIntf9MotorTypeE
	.p2align	2
	.type	_ZN7Encoder12apply_configEN10ODriveIntf9MotorIntf9MotorTypeE,%function
	.code	16                              @ @_ZN7Encoder12apply_configEN10ODriveIntf9MotorIntf9MotorTypeE
	.thumb_func
_ZN7Encoder12apply_configEN10ODriveIntf9MotorIntf9MotorTypeE:
.Lfunc_begin7:
	.loc	20 21 0                         @ ../MotorControl/encoder.cpp:21:0
	.fnstart
	.cfi_startproc
@ %bb.0:
	.save	{r7, lr}
	push	{r7, lr}
	.cfi_def_cfa_offset 8
	.cfi_offset lr, -4
	.cfi_offset r7, -8
	.pad	#16
	sub	sp, #16
	.cfi_def_cfa_offset 24
                                        @ kill: def $r2 killed $r1
	str	r0, [sp, #12]
	strb.w	r1, [sp, #11]
	ldr	r0, [sp, #12]
.Ltmp14:
	.loc	20 22 20 prologue_end           @ ../MotorControl/encoder.cpp:22:20
	str	r0, [sp, #4]                    @ 4-byte Spill
	str.w	r0, [r0, #136]
	.loc	20 24 5                         @ ../MotorControl/encoder.cpp:24:5
	bl	_ZN7Encoder16update_pll_gainsEv
	ldr	r0, [sp, #4]                    @ 4-byte Reload
.Ltmp15:
	.loc	20 26 17                        @ ../MotorControl/encoder.cpp:26:17
	ldrb.w	r0, [r0, #89]
.Ltmp16:
	.loc	20 26 9 is_stmt 0               @ ../MotorControl/encoder.cpp:26:9
	lsls	r0, r0, #31
	cbz	r0, .LBB7_9
	b	.LBB7_1
.LBB7_1:
.Ltmp17:
	.loc	20 27 21 is_stmt 1              @ ../MotorControl/encoder.cpp:27:21
	ldr	r0, [sp, #4]                    @ 4-byte Reload
	ldrh	r0, [r0, #52]
	.loc	20 27 48 is_stmt 0              @ ../MotorControl/encoder.cpp:27:48
	cmp	r0, #1
	bne	.LBB7_4
	b	.LBB7_2
.LBB7_2:
	.loc	20 27 59                        @ ../MotorControl/encoder.cpp:27:59
	ldr	r0, [sp, #4]                    @ 4-byte Reload
	ldrb.w	r0, [r0, #101]
.Ltmp18:
	.loc	20 27 13                        @ ../MotorControl/encoder.cpp:27:13
	lsls	r0, r0, #31
	cbz	r0, .LBB7_4
	b	.LBB7_3
.LBB7_3:
	.loc	20 0 13                         @ ../MotorControl/encoder.cpp:0:13
	ldr	r1, [sp, #4]                    @ 4-byte Reload
	movs	r0, #1
.Ltmp19:
	.loc	20 28 23 is_stmt 1              @ ../MotorControl/encoder.cpp:28:23
	strb.w	r0, [r1, #143]
	.loc	20 28 13 is_stmt 0              @ ../MotorControl/encoder.cpp:28:13
	b	.LBB7_4
.Ltmp20:
.LBB7_4:
	.loc	20 29 21 is_stmt 1              @ ../MotorControl/encoder.cpp:29:21
	ldr	r0, [sp, #4]                    @ 4-byte Reload
	ldrh	r0, [r0, #52]
.Ltmp21:
	.loc	20 29 13 is_stmt 0              @ ../MotorControl/encoder.cpp:29:13
	cmp	r0, #2
	bne	.LBB7_6
	b	.LBB7_5
.LBB7_5:
	.loc	20 0 13                         @ ../MotorControl/encoder.cpp:0:13
	ldr	r1, [sp, #4]                    @ 4-byte Reload
	movs	r0, #1
.Ltmp22:
	.loc	20 30 23 is_stmt 1              @ ../MotorControl/encoder.cpp:30:23
	strb.w	r0, [r1, #143]
	.loc	20 30 13 is_stmt 0              @ ../MotorControl/encoder.cpp:30:13
	b	.LBB7_6
.Ltmp23:
.LBB7_6:
	.loc	20 31 13 is_stmt 1              @ ../MotorControl/encoder.cpp:31:13
	ldrb.w	r0, [sp, #11]
.Ltmp24:
	.loc	20 31 13 is_stmt 0              @ ../MotorControl/encoder.cpp:31:13
	cmp	r0, #3
	bne	.LBB7_8
	b	.LBB7_7
.LBB7_7:
	.loc	20 0 13                         @ ../MotorControl/encoder.cpp:0:13
	ldr	r1, [sp, #4]                    @ 4-byte Reload
	movs	r0, #1
.Ltmp25:
	.loc	20 32 23 is_stmt 1              @ ../MotorControl/encoder.cpp:32:23
	strb.w	r0, [r1, #143]
	.loc	20 32 13 is_stmt 0              @ ../MotorControl/encoder.cpp:32:13
	b	.LBB7_8
.Ltmp26:
.LBB7_8:
	.loc	20 33 5 is_stmt 1               @ ../MotorControl/encoder.cpp:33:5
	b	.LBB7_9
.Ltmp27:
.LBB7_9:
	.loc	20 0 5 is_stmt 0                @ ../MotorControl/encoder.cpp:0:5
	movs	r0, #1
	.loc	20 35 5 epilogue_begin is_stmt 1 @ ../MotorControl/encoder.cpp:35:5
	add	sp, #16
	pop	{r7, pc}
.Ltmp28:
.Lfunc_end7:
	.size	_ZN7Encoder12apply_configEN10ODriveIntf9MotorIntf9MotorTypeE, .Lfunc_end7-_ZN7Encoder12apply_configEN10ODriveIntf9MotorIntf9MotorTypeE
	.cfi_endproc
	.cantunwind
	.fnend
                                        @ -- End function
	.section	.text._ZN7Encoder16update_pll_gainsEv,"ax",%progbits
	.hidden	_ZN7Encoder16update_pll_gainsEv @ -- Begin function _ZN7Encoder16update_pll_gainsEv
	.globl	_ZN7Encoder16update_pll_gainsEv
	.p2align	2
	.type	_ZN7Encoder16update_pll_gainsEv,%function
	.code	16                              @ @_ZN7Encoder16update_pll_gainsEv
	.thumb_func
_ZN7Encoder16update_pll_gainsEv:
.Lfunc_begin8:
	.loc	20 122 0                        @ ../MotorControl/encoder.cpp:122:0
	.fnstart
	.cfi_startproc
@ %bb.0:
	.save	{r7, lr}
	push	{r7, lr}
	.cfi_def_cfa_offset 8
	.cfi_offset lr, -4
	.cfi_offset r7, -8
	.pad	#8
	sub	sp, #8
	.cfi_def_cfa_offset 16
	str	r0, [sp, #4]
	ldr	r0, [sp, #4]
.Ltmp29:
	.loc	20 123 30 prologue_end          @ ../MotorControl/encoder.cpp:123:30
	str	r0, [sp]                        @ 4-byte Spill
	vldr	s0, [r0, #68]
	.loc	20 123 20 is_stmt 0             @ ../MotorControl/encoder.cpp:123:20
	vadd.f32	s0, s0, s0
	.loc	20 123 13                       @ ../MotorControl/encoder.cpp:123:13
	vstr	s0, [r0, #188]
	.loc	20 124 24 is_stmt 1             @ ../MotorControl/encoder.cpp:124:24
	vldr	s0, [r0, #188]
	.loc	20 124 32 is_stmt 0             @ ../MotorControl/encoder.cpp:124:32
	vmul.f32	s0, s0, s0
	vmov.f32	s2, #2.500000e-01
	.loc	20 124 21                       @ ../MotorControl/encoder.cpp:124:21
	vmul.f32	s0, s0, s2
	.loc	20 124 13                       @ ../MotorControl/encoder.cpp:124:13
	vstr	s0, [r0, #192]
.Ltmp30:
	.loc	20 127 33 is_stmt 1             @ ../MotorControl/encoder.cpp:127:33
	vldr	s0, [r0, #188]
	vldr	s2, .LCPI8_0
	.loc	20 127 31 is_stmt 0             @ ../MotorControl/encoder.cpp:127:31
	vmul.f32	s0, s0, s2
	vmov.f32	s2, #1.000000e+00
.Ltmp31:
	.loc	20 127 9                        @ ../MotorControl/encoder.cpp:127:9
	vcmp.f32	s0, s2
	vmrs	APSR_nzcv, fpscr
	blt	.LBB8_2
	b	.LBB8_1
.LBB8_1:
.Ltmp32:
	.loc	20 128 9 is_stmt 1              @ ../MotorControl/encoder.cpp:128:9
	ldr	r0, [sp]                        @ 4-byte Reload
	movs	r1, #1
	bl	_ZN7Encoder9set_errorEN10ODriveIntf11EncoderIntf5ErrorE
	.loc	20 129 5                        @ ../MotorControl/encoder.cpp:129:5
	b	.LBB8_2
.Ltmp33:
.LBB8_2:
	.loc	20 130 1 epilogue_begin         @ ../MotorControl/encoder.cpp:130:1
	add	sp, #8
	pop	{r7, pc}
.Ltmp34:
	.p2align	2
@ %bb.3:
	.loc	20 0 1 is_stmt 0                @ ../MotorControl/encoder.cpp:0:1
.LCPI8_0:
	.long	0x3903126f                      @ float 1.25000006E-4
.Lfunc_end8:
	.size	_ZN7Encoder16update_pll_gainsEv, .Lfunc_end8-_ZN7Encoder16update_pll_gainsEv
	.cfi_endproc
	.cantunwind
	.fnend
                                        @ -- End function
	.section	.text._ZN7Encoder5setupEv,"ax",%progbits
	.hidden	_ZN7Encoder5setupEv             @ -- Begin function _ZN7Encoder5setupEv
	.globl	_ZN7Encoder5setupEv
	.p2align	2
	.type	_ZN7Encoder5setupEv,%function
	.code	16                              @ @_ZN7Encoder5setupEv
	.thumb_func
_ZN7Encoder5setupEv:
.Lfunc_begin9:
	.loc	20 38 0 is_stmt 1               @ ../MotorControl/encoder.cpp:38:0
	.fnstart
	.cfi_startproc
@ %bb.0:
	.save	{r4, lr}
	push	{r4, lr}
	.cfi_def_cfa_offset 8
	.cfi_offset lr, -4
	.cfi_offset r4, -8
	.pad	#64
	sub	sp, #64
	.cfi_def_cfa_offset 72
	str	r0, [sp, #60]
	ldr	r0, [sp, #60]
.Ltmp35:
	.loc	20 39 27 prologue_end           @ ../MotorControl/encoder.cpp:39:27
	str	r0, [sp, #4]                    @ 4-byte Spill
	ldr	r0, [r0, #8]
	movs	r1, #24
	.loc	20 39 5 is_stmt 0               @ ../MotorControl/encoder.cpp:39:5
	bl	HAL_TIM_Encoder_Start
                                        @ kill: def $r1 killed $r0
	.loc	20 40 5 is_stmt 1               @ ../MotorControl/encoder.cpp:40:5
	ldr	r0, [sp, #4]                    @ 4-byte Reload
	movs	r1, #0
	str	r1, [sp]                        @ 4-byte Spill
	bl	_ZN7Encoder17set_idx_subscribeEb
	ldr	r1, [sp]                        @ 4-byte Reload
	ldr	r0, [sp, #4]                    @ 4-byte Reload
	.loc	20 42 21                        @ ../MotorControl/encoder.cpp:42:21
	ldrh	r2, [r0, #52]
	.loc	20 42 11 is_stmt 0              @ ../MotorControl/encoder.cpp:42:11
	strh.w	r2, [r0, #314]
	mov.w	r2, #260
	.loc	20 44 24 is_stmt 1              @ ../MotorControl/encoder.cpp:44:24
	str	r2, [sp, #16]
	str	r1, [sp, #20]
	mov.w	r1, #2048
	str	r1, [sp, #24]
	add	r1, sp, #16
	adds	r1, #12
	.loc	20 48 25                        @ ../MotorControl/encoder.cpp:48:25
	str	r1, [sp, #8]                    @ 4-byte Spill
	ldrh.w	r1, [r0, #314]
	movs	r0, #1
	.loc	20 48 52 is_stmt 0              @ ../MotorControl/encoder.cpp:48:52
	cmp.w	r1, #258
	str	r0, [sp, #12]                   @ 4-byte Spill
	beq	.LBB9_2
	b	.LBB9_1
.LBB9_1:
	.loc	20 48 55                        @ ../MotorControl/encoder.cpp:48:55
	ldr	r0, [sp, #4]                    @ 4-byte Reload
	ldrh.w	r0, [r0, #314]
	.loc	20 48 61                        @ ../MotorControl/encoder.cpp:48:61
	sub.w	r0, r0, #260
	clz	r0, r0
	lsrs	r0, r0, #5
	.loc	20 48 52                        @ ../MotorControl/encoder.cpp:48:52
	str	r0, [sp, #12]                   @ 4-byte Spill
	b	.LBB9_2
.LBB9_2:
	.loc	20 0 52                         @ ../MotorControl/encoder.cpp:0:52
	ldr	r0, [sp, #4]                    @ 4-byte Reload
	ldr	r2, [sp, #8]                    @ 4-byte Reload
	ldr	r1, [sp, #12]                   @ 4-byte Reload
	.loc	20 48 24                        @ ../MotorControl/encoder.cpp:48:24
	and	r1, r1, #1
	cmp	r1, #0
	it	ne
	movne	r1, #2
	.loc	20 44 24 is_stmt 1              @ ../MotorControl/encoder.cpp:44:24
	str	r1, [r2]
	movs	r1, #1
	str	r1, [sp, #32]
	mov.w	r1, #512
	str	r1, [sp, #36]
	movs	r1, #24
	str	r1, [sp, #40]
	movs	r1, #0
	str	r1, [sp, #44]
	str	r1, [sp, #48]
	str	r1, [sp, #52]
	movs	r1, #10
	str	r1, [sp, #56]
	.loc	20 44 22 is_stmt 0              @ ../MotorControl/encoder.cpp:44:22
	ldr	r1, [sp, #16]
	ldr	r2, [sp, #20]
	ldr	r3, [sp, #24]
	ldr.w	r12, [sp, #28]
	ldr.w	lr, [sp, #32]
	ldr	r4, [sp, #36]
	str.w	r4, [r0, #356]
	str.w	lr, [r0, #352]
	str.w	r12, [r0, #348]
	str.w	r3, [r0, #344]
	str.w	r2, [r0, #340]
	str.w	r1, [r0, #336]
	ldr	r1, [sp, #40]
	ldr	r2, [sp, #44]
	ldr	r3, [sp, #48]
	ldr.w	r12, [sp, #52]
	ldr.w	lr, [sp, #56]
	str.w	lr, [r0, #376]
	str.w	r12, [r0, #372]
	str.w	r3, [r0, #368]
	str.w	r2, [r0, #364]
	str.w	r1, [r0, #360]
.Ltmp36:
	.loc	20 58 9 is_stmt 1               @ ../MotorControl/encoder.cpp:58:9
	ldrh.w	r0, [r0, #314]
.Ltmp37:
	.loc	20 58 9 is_stmt 0               @ ../MotorControl/encoder.cpp:58:9
	cmp.w	r0, #260
	bne	.LBB9_4
	b	.LBB9_3
.LBB9_3:
	.loc	20 0 9                          @ ../MotorControl/encoder.cpp:0:9
	ldr	r1, [sp, #4]                    @ 4-byte Reload
	movs	r0, #0
.Ltmp38:
	.loc	20 59 28 is_stmt 1              @ ../MotorControl/encoder.cpp:59:28
	strh.w	r0, [r1, #332]
	.loc	20 60 5                         @ ../MotorControl/encoder.cpp:60:5
	b	.LBB9_4
.Ltmp39:
.LBB9_4:
	.loc	20 62 8                         @ ../MotorControl/encoder.cpp:62:8
	ldr	r0, [sp, #4]                    @ 4-byte Reload
	ldrh.w	r0, [r0, #314]
.Ltmp40:
	.loc	20 62 8 is_stmt 0               @ ../MotorControl/encoder.cpp:62:8
	lsls	r0, r0, #23
	cmp	r0, #0
	bpl	.LBB9_8
	b	.LBB9_5
.LBB9_5:
.Ltmp41:
	.loc	20 63 9 is_stmt 1               @ ../MotorControl/encoder.cpp:63:9
	ldr	r0, [sp, #4]                    @ 4-byte Reload
	bl	_ZN7Encoder19abs_spi_cs_pin_initEv
	ldr	r0, [sp, #4]                    @ 4-byte Reload
.Ltmp42:
	.loc	20 65 13                        @ ../MotorControl/encoder.cpp:65:13
	ldr	r0, [r0, #48]
	.loc	20 65 20 is_stmt 0              @ ../MotorControl/encoder.cpp:65:20
	ldr.w	r0, [r0, #256]
	movw	r1, #14488
	.loc	20 65 52                        @ ../MotorControl/encoder.cpp:65:52
	ldrb	r0, [r0, r1]
.Ltmp43:
	.loc	20 65 13                        @ ../MotorControl/encoder.cpp:65:13
	lsls	r0, r0, #31
	cbz	r0, .LBB9_7
	b	.LBB9_6
.LBB9_6:
.Ltmp44:
	.loc	20 66 13 is_stmt 1              @ ../MotorControl/encoder.cpp:66:13
	ldr	r0, [sp, #4]                    @ 4-byte Reload
	ldr	r0, [r0, #48]
	.loc	20 66 20 is_stmt 0              @ ../MotorControl/encoder.cpp:66:20
	ldr.w	r1, [r0, #256]
	movw	r2, #14666
	movs	r0, #1
	.loc	20 66 51                        @ ../MotorControl/encoder.cpp:66:51
	strb	r0, [r1, r2]
	.loc	20 67 9 is_stmt 1               @ ../MotorControl/encoder.cpp:67:9
	b	.LBB9_7
.Ltmp45:
.LBB9_7:
	.loc	20 68 5                         @ ../MotorControl/encoder.cpp:68:5
	b	.LBB9_8
.Ltmp46:
.LBB9_8:
	.loc	20 69 1 epilogue_begin          @ ../MotorControl/encoder.cpp:69:1
	add	sp, #64
	pop	{r4, pc}
.Ltmp47:
.Lfunc_end9:
	.size	_ZN7Encoder5setupEv, .Lfunc_end9-_ZN7Encoder5setupEv
	.cfi_endproc
	.cantunwind
	.fnend
                                        @ -- End function
	.section	.text._ZN7Encoder17set_idx_subscribeEb,"ax",%progbits
	.hidden	_ZN7Encoder17set_idx_subscribeEb @ -- Begin function _ZN7Encoder17set_idx_subscribeEb
	.globl	_ZN7Encoder17set_idx_subscribeEb
	.p2align	2
	.type	_ZN7Encoder17set_idx_subscribeEb,%function
	.code	16                              @ @_ZN7Encoder17set_idx_subscribeEb
	.thumb_func
_ZN7Encoder17set_idx_subscribeEb:
.Lfunc_begin10:
	.loc	20 112 0                        @ ../MotorControl/encoder.cpp:112:0
	.fnstart
	.cfi_startproc
@ %bb.0:
	.save	{r7, lr}
	push	{r7, lr}
	.cfi_def_cfa_offset 8
	.cfi_offset lr, -4
	.cfi_offset r7, -8
	.pad	#16
	sub	sp, #16
	.cfi_def_cfa_offset 24
                                        @ kill: def $r2 killed $r1
	str	r0, [sp, #12]
	strb.w	r1, [sp, #11]
	ldr	r0, [sp, #12]
.Ltmp48:
	.loc	20 113 17 prologue_end          @ ../MotorControl/encoder.cpp:113:17
	str	r0, [sp, #4]                    @ 4-byte Spill
	ldrb.w	r0, [r0, #88]
	.loc	20 113 27 is_stmt 0             @ ../MotorControl/encoder.cpp:113:27
	lsls	r0, r0, #31
	cbz	r0, .LBB10_6
	b	.LBB10_1
.LBB10_1:
	.loc	20 113 31                       @ ../MotorControl/encoder.cpp:113:31
	ldrb.w	r0, [sp, #11]
	.loc	20 113 47                       @ ../MotorControl/encoder.cpp:113:47
	lsls	r0, r0, #31
	cbnz	r0, .LBB10_3
	b	.LBB10_2
.LBB10_2:
	.loc	20 113 59                       @ ../MotorControl/encoder.cpp:113:59
	ldr	r0, [sp, #4]                    @ 4-byte Reload
	ldrb.w	r0, [r0, #98]
.Ltmp49:
	.loc	20 113 9                        @ ../MotorControl/encoder.cpp:113:9
	lsls	r0, r0, #31
	cbnz	r0, .LBB10_6
	b	.LBB10_3
.LBB10_3:
.Ltmp50:
	.loc	20 114 14 is_stmt 1             @ ../MotorControl/encoder.cpp:114:14
	ldr	r1, [sp, #4]                    @ 4-byte Reload
	add.w	r0, r1, #12
	.loc	20 114 26 is_stmt 0             @ ../MotorControl/encoder.cpp:114:26
	mov	r2, sp
	str	r1, [r2]
	movw	r3, :lower16:_ZL20enc_index_cb_wrapperPv
	movt	r3, :upper16:_ZL20enc_index_cb_wrapperPv
	movs	r1, #1
	movs	r2, #0
	bl	_ZN9Stm32Gpio9subscribeEbbPFvPvES0_
.Ltmp51:
	.loc	20 114 13                       @ ../MotorControl/encoder.cpp:114:13
	cbnz	r0, .LBB10_5
	b	.LBB10_4
.LBB10_4:
.Ltmp52:
	.loc	20 115 33 is_stmt 1             @ ../MotorControl/encoder.cpp:115:33
	movw	r1, :lower16:odrv
	movt	r1, :upper16:odrv
	movw	r2, #17100
	movs	r0, #1
	strb	r0, [r1, r2]
	.loc	20 116 9                        @ ../MotorControl/encoder.cpp:116:9
	b	.LBB10_5
.Ltmp53:
.LBB10_5:
	.loc	20 117 5                        @ ../MotorControl/encoder.cpp:117:5
	b	.LBB10_10
.Ltmp54:
.LBB10_6:
	.loc	20 117 25 is_stmt 0             @ ../MotorControl/encoder.cpp:117:25
	ldr	r0, [sp, #4]                    @ 4-byte Reload
	ldrb.w	r0, [r0, #88]
	.loc	20 117 35                       @ ../MotorControl/encoder.cpp:117:35
	lsls	r0, r0, #31
	cbz	r0, .LBB10_8
	b	.LBB10_7
.LBB10_7:
	.loc	20 117 46                       @ ../MotorControl/encoder.cpp:117:46
	ldr	r0, [sp, #4]                    @ 4-byte Reload
	ldrb.w	r0, [r0, #98]
.Ltmp55:
	.loc	20 117 16                       @ ../MotorControl/encoder.cpp:117:16
	lsls	r0, r0, #31
	cbz	r0, .LBB10_9
	b	.LBB10_8
.LBB10_8:
.Ltmp56:
	.loc	20 118 9 is_stmt 1              @ ../MotorControl/encoder.cpp:118:9
	ldr	r0, [sp, #4]                    @ 4-byte Reload
	adds	r0, #12
	.loc	20 118 21 is_stmt 0             @ ../MotorControl/encoder.cpp:118:21
	bl	_ZN9Stm32Gpio11unsubscribeEv
	.loc	20 119 5 is_stmt 1              @ ../MotorControl/encoder.cpp:119:5
	b	.LBB10_9
.Ltmp57:
.LBB10_9:
	.loc	20 0 5 is_stmt 0                @ ../MotorControl/encoder.cpp:0:5
	b	.LBB10_10
.LBB10_10:
	.loc	20 120 1 epilogue_begin is_stmt 1 @ ../MotorControl/encoder.cpp:120:1
	add	sp, #16
	pop	{r7, pc}
.Ltmp58:
.Lfunc_end10:
	.size	_ZN7Encoder17set_idx_subscribeEb, .Lfunc_end10-_ZN7Encoder17set_idx_subscribeEb
	.cfi_endproc
	.cantunwind
	.fnend
                                        @ -- End function
	.section	.text._ZN7Encoder19abs_spi_cs_pin_initEv,"ax",%progbits
	.hidden	_ZN7Encoder19abs_spi_cs_pin_initEv @ -- Begin function _ZN7Encoder19abs_spi_cs_pin_initEv
	.globl	_ZN7Encoder19abs_spi_cs_pin_initEv
	.p2align	2
	.type	_ZN7Encoder19abs_spi_cs_pin_initEv,%function
	.code	16                              @ @_ZN7Encoder19abs_spi_cs_pin_initEv
	.thumb_func
_ZN7Encoder19abs_spi_cs_pin_initEv:
.Lfunc_begin11:
	.loc	20 616 0                        @ ../MotorControl/encoder.cpp:616:0
	.fnstart
	.cfi_startproc
@ %bb.0:
	.save	{r7, lr}
	push	{r7, lr}
	.cfi_def_cfa_offset 8
	.cfi_offset lr, -4
	.cfi_offset r7, -8
	.pad	#24
	sub	sp, #24
	.cfi_def_cfa_offset 32
	str	r0, [sp, #20]
	ldr	r0, [sp, #20]
.Ltmp59:
	.loc	20 623 41 prologue_end          @ ../MotorControl/encoder.cpp:623:41
	str	r0, [sp]                        @ 4-byte Spill
	ldrh.w	r1, [r0, #128]
	add	r0, sp, #12
	.loc	20 623 24 is_stmt 0             @ ../MotorControl/encoder.cpp:623:24
	bl	_ZL8get_gpioj
	ldr	r2, [sp]                        @ 4-byte Reload
	.loc	20 623 5                        @ ../MotorControl/encoder.cpp:623:5
	add.w	r0, r2, #316
	.loc	20 623 22                       @ ../MotorControl/encoder.cpp:623:22
	str	r0, [sp, #8]                    @ 4-byte Spill
	ldrh.w	r1, [sp, #16]
	strh.w	r1, [r2, #320]
	ldr	r1, [sp, #12]
	str.w	r1, [r2, #316]
	movs	r2, #1
	str	r2, [sp, #4]                    @ 4-byte Spill
	movs	r3, #0
	.loc	20 625 22 is_stmt 1             @ ../MotorControl/encoder.cpp:625:22
	mov	r1, r2
	bl	_ZN9Stm32Gpio6configEjjj
	ldr	r1, [sp, #4]                    @ 4-byte Reload
                                        @ kill: def $r2 killed $r0
	.loc	20 628 22                       @ ../MotorControl/encoder.cpp:628:22
	ldr	r0, [sp, #8]                    @ 4-byte Reload
	bl	_ZN9Stm32Gpio5writeEb
	.loc	20 629 1 epilogue_begin         @ ../MotorControl/encoder.cpp:629:1
	add	sp, #24
	pop	{r7, pc}
.Ltmp60:
.Lfunc_end11:
	.size	_ZN7Encoder19abs_spi_cs_pin_initEv, .Lfunc_end11-_ZN7Encoder19abs_spi_cs_pin_initEv
	.cfi_endproc
	.cantunwind
	.fnend
                                        @ -- End function
	.section	.text._ZN7Encoder9set_errorEN10ODriveIntf11EncoderIntf5ErrorE,"ax",%progbits
	.hidden	_ZN7Encoder9set_errorEN10ODriveIntf11EncoderIntf5ErrorE @ -- Begin function _ZN7Encoder9set_errorEN10ODriveIntf11EncoderIntf5ErrorE
	.globl	_ZN7Encoder9set_errorEN10ODriveIntf11EncoderIntf5ErrorE
	.p2align	2
	.type	_ZN7Encoder9set_errorEN10ODriveIntf11EncoderIntf5ErrorE,%function
	.code	16                              @ @_ZN7Encoder9set_errorEN10ODriveIntf11EncoderIntf5ErrorE
	.thumb_func
_ZN7Encoder9set_errorEN10ODriveIntf11EncoderIntf5ErrorE:
.Lfunc_begin12:
	.loc	20 71 0                         @ ../MotorControl/encoder.cpp:71:0
	.fnstart
	.cfi_startproc
@ %bb.0:
	.save	{r7, lr}
	push	{r7, lr}
	.cfi_def_cfa_offset 8
	.cfi_offset lr, -4
	.cfi_offset r7, -8
	.pad	#16
	sub	sp, #16
	.cfi_def_cfa_offset 24
                                        @ kill: def $r2 killed $r1
	str	r0, [sp, #12]
	strh.w	r1, [sp, #10]
	ldr	r0, [sp, #12]
	str	r0, [sp, #4]                    @ 4-byte Spill
	movs	r1, #0
.Ltmp61:
	.loc	20 72 25 prologue_end           @ ../MotorControl/encoder.cpp:72:25
	strb.w	r1, [r0, #233]
	.loc	20 73 25                        @ ../MotorControl/encoder.cpp:73:25
	strb.w	r1, [r0, #232]
	.loc	20 74 15                        @ ../MotorControl/encoder.cpp:74:15
	ldrh.w	r1, [sp, #10]
	.loc	20 74 5 is_stmt 0               @ ../MotorControl/encoder.cpp:74:5
	adds	r0, #140
	.loc	20 74 12                        @ ../MotorControl/encoder.cpp:74:12
	bl	_ZoRRN10ODriveIntf11EncoderIntf5ErrorES1_
                                        @ kill: def $r1 killed $r0
	.loc	20 75 5 is_stmt 1               @ ../MotorControl/encoder.cpp:75:5
	ldr	r0, [sp, #4]                    @ 4-byte Reload
	ldr	r0, [r0, #48]
	.loc	20 75 12 is_stmt 0              @ ../MotorControl/encoder.cpp:75:12
	add.w	r0, r0, #588
	mov.w	r1, #256
	.loc	20 75 19                        @ ../MotorControl/encoder.cpp:75:19
	bl	_ZoRRN10ODriveIntf8AxisIntf5ErrorES1_
	.loc	20 76 1 epilogue_begin is_stmt 1 @ ../MotorControl/encoder.cpp:76:1
	add	sp, #16
	pop	{r7, pc}
.Ltmp62:
.Lfunc_end12:
	.size	_ZN7Encoder9set_errorEN10ODriveIntf11EncoderIntf5ErrorE, .Lfunc_end12-_ZN7Encoder9set_errorEN10ODriveIntf11EncoderIntf5ErrorE
	.cfi_endproc
	.cantunwind
	.fnend
                                        @ -- End function
	.section	.text._ZoRRN10ODriveIntf11EncoderIntf5ErrorES1_,"axG",%progbits,_ZoRRN10ODriveIntf11EncoderIntf5ErrorES1_,comdat
	.hidden	_ZoRRN10ODriveIntf11EncoderIntf5ErrorES1_ @ -- Begin function _ZoRRN10ODriveIntf11EncoderIntf5ErrorES1_
	.weak	_ZoRRN10ODriveIntf11EncoderIntf5ErrorES1_
	.p2align	2
	.type	_ZoRRN10ODriveIntf11EncoderIntf5ErrorES1_,%function
	.code	16                              @ @_ZoRRN10ODriveIntf11EncoderIntf5ErrorES1_
	.thumb_func
_ZoRRN10ODriveIntf11EncoderIntf5ErrorES1_:
.Lfunc_begin13:
	.loc	2 1207 0                        @ ../../Firmware\autogen/interfaces.hpp:1207:0
	.fnstart
	.cfi_startproc
@ %bb.0:
	.pad	#8
	sub	sp, #8
	.cfi_def_cfa_offset 8
                                        @ kill: def $r2 killed $r1
	str	r0, [sp, #4]
	strh.w	r1, [sp, #2]
.Ltmp63:
	.loc	2 1207 261 prologue_end         @ ../../Firmware\autogen/interfaces.hpp:1207:261
	ldrh.w	r2, [sp, #2]
	.loc	2 1207 255 is_stmt 0            @ ../../Firmware\autogen/interfaces.hpp:1207:255
	ldr	r0, [sp, #4]
	.loc	2 1207 258                      @ ../../Firmware\autogen/interfaces.hpp:1207:258
	ldrh	r1, [r0]
	orrs	r1, r2
	strh	r1, [r0]
	.loc	2 1207 124 epilogue_begin       @ ../../Firmware\autogen/interfaces.hpp:1207:124
	add	sp, #8
	bx	lr
.Ltmp64:
.Lfunc_end13:
	.size	_ZoRRN10ODriveIntf11EncoderIntf5ErrorES1_, .Lfunc_end13-_ZoRRN10ODriveIntf11EncoderIntf5ErrorES1_
	.cfi_endproc
	.cantunwind
	.fnend
                                        @ -- End function
	.section	.text._ZoRRN10ODriveIntf8AxisIntf5ErrorES1_,"axG",%progbits,_ZoRRN10ODriveIntf8AxisIntf5ErrorES1_,comdat
	.hidden	_ZoRRN10ODriveIntf8AxisIntf5ErrorES1_ @ -- Begin function _ZoRRN10ODriveIntf8AxisIntf5ErrorES1_
	.weak	_ZoRRN10ODriveIntf8AxisIntf5ErrorES1_
	.p2align	2
	.type	_ZoRRN10ODriveIntf8AxisIntf5ErrorES1_,%function
	.code	16                              @ @_ZoRRN10ODriveIntf8AxisIntf5ErrorES1_
	.thumb_func
_ZoRRN10ODriveIntf8AxisIntf5ErrorES1_:
.Lfunc_begin14:
	.loc	2 1183 0 is_stmt 1              @ ../../Firmware\autogen/interfaces.hpp:1183:0
	.fnstart
	.cfi_startproc
@ %bb.0:
	.pad	#8
	sub	sp, #8
	.cfi_def_cfa_offset 8
	str	r0, [sp, #4]
	str	r1, [sp]
.Ltmp65:
	.loc	2 1183 311 prologue_end         @ ../../Firmware\autogen/interfaces.hpp:1183:311
	ldr	r2, [sp]
	.loc	2 1183 240 is_stmt 0            @ ../../Firmware\autogen/interfaces.hpp:1183:240
	ldr	r0, [sp, #4]
	.loc	2 1183 243                      @ ../../Firmware\autogen/interfaces.hpp:1183:243
	ldr	r1, [r0]
	orrs	r1, r2
	str	r1, [r0]
	.loc	2 1183 115 epilogue_begin       @ ../../Firmware\autogen/interfaces.hpp:1183:115
	add	sp, #8
	bx	lr
.Ltmp66:
.Lfunc_end14:
	.size	_ZoRRN10ODriveIntf8AxisIntf5ErrorES1_, .Lfunc_end14-_ZoRRN10ODriveIntf8AxisIntf5ErrorES1_
	.cfi_endproc
	.cantunwind
	.fnend
                                        @ -- End function
	.section	.text._ZN7Encoder9do_checksEv,"ax",%progbits
	.hidden	_ZN7Encoder9do_checksEv         @ -- Begin function _ZN7Encoder9do_checksEv
	.globl	_ZN7Encoder9do_checksEv
	.p2align	2
	.type	_ZN7Encoder9do_checksEv,%function
	.code	16                              @ @_ZN7Encoder9do_checksEv
	.thumb_func
_ZN7Encoder9do_checksEv:
.Lfunc_begin15:
	.loc	20 78 0 is_stmt 1               @ ../MotorControl/encoder.cpp:78:0
	.fnstart
	.cfi_startproc
@ %bb.0:
	.pad	#4
	sub	sp, #4
	.cfi_def_cfa_offset 4
	str	r0, [sp]
	ldr	r0, [sp]
.Ltmp67:
	.loc	20 79 12 prologue_end           @ ../MotorControl/encoder.cpp:79:12
	ldrh.w	r0, [r0, #140]
	.loc	20 79 19 is_stmt 0              @ ../MotorControl/encoder.cpp:79:19
	clz	r0, r0
	lsrs	r0, r0, #5
	.loc	20 79 5 epilogue_begin          @ ../MotorControl/encoder.cpp:79:5
	add	sp, #4
	bx	lr
.Ltmp68:
.Lfunc_end15:
	.size	_ZN7Encoder9do_checksEv, .Lfunc_end15-_ZN7Encoder9do_checksEv
	.cfi_endproc
	.cantunwind
	.fnend
                                        @ -- End function
	.section	.text._ZN7Encoder12enc_index_cbEv,"ax",%progbits
	.hidden	_ZN7Encoder12enc_index_cbEv     @ -- Begin function _ZN7Encoder12enc_index_cbEv
	.globl	_ZN7Encoder12enc_index_cbEv
	.p2align	2
	.type	_ZN7Encoder12enc_index_cbEv,%function
	.code	16                              @ @_ZN7Encoder12enc_index_cbEv
	.thumb_func
_ZN7Encoder12enc_index_cbEv:
.Lfunc_begin16:
	.loc	20 89 0 is_stmt 1               @ ../MotorControl/encoder.cpp:89:0
	.fnstart
	.cfi_startproc
@ %bb.0:
	.save	{r7, lr}
	push	{r7, lr}
	.cfi_def_cfa_offset 8
	.cfi_offset lr, -4
	.cfi_offset r7, -8
	.pad	#8
	sub	sp, #8
	.cfi_def_cfa_offset 16
	str	r0, [sp, #4]
	ldr	r0, [sp, #4]
.Ltmp69:
	.loc	20 90 17 prologue_end           @ ../MotorControl/encoder.cpp:90:17
	str	r0, [sp]                        @ 4-byte Spill
	ldrb.w	r0, [r0, #88]
.Ltmp70:
	.loc	20 90 9 is_stmt 0               @ ../MotorControl/encoder.cpp:90:9
	lsls	r0, r0, #31
	cmp	r0, #0
	beq	.LBB16_9
	b	.LBB16_1
.LBB16_1:
.Ltmp71:
	.loc	20 91 9 is_stmt 1               @ ../MotorControl/encoder.cpp:91:9
	ldr	r0, [sp]                        @ 4-byte Reload
	movs	r2, #0
	mov	r1, r2
	bl	_ZN7Encoder18set_circular_countEib
	ldr	r0, [sp]                        @ 4-byte Reload
.Ltmp72:
	.loc	20 92 21                        @ ../MotorControl/encoder.cpp:92:21
	ldrb.w	r0, [r0, #96]
.Ltmp73:
	.loc	20 92 13 is_stmt 0              @ ../MotorControl/encoder.cpp:92:13
	lsls	r0, r0, #31
	cbz	r0, .LBB16_3
	b	.LBB16_2
.LBB16_2:
.Ltmp74:
	.loc	20 93 48 is_stmt 1              @ ../MotorControl/encoder.cpp:93:48
	ldr	r0, [sp]                        @ 4-byte Reload
	vldr	s0, [r0, #84]
	.loc	20 93 63 is_stmt 0              @ ../MotorControl/encoder.cpp:93:63
	vldr	s2, [r0, #80]
	vcvt.f32.s32	s2, s2
	.loc	20 93 61                        @ ../MotorControl/encoder.cpp:93:61
	vmul.f32	s0, s0, s2
	.loc	20 93 39                        @ ../MotorControl/encoder.cpp:93:39
	vcvt.s32.f32	s0, s0
	vmov	r1, s0
	.loc	20 93 13                        @ ../MotorControl/encoder.cpp:93:13
	ldr	r2, [r0]
	ldr	r2, [r2]
	blx	r2
	b	.LBB16_3
.Ltmp75:
.LBB16_3:
	.loc	20 94 21 is_stmt 1              @ ../MotorControl/encoder.cpp:94:21
	ldr	r0, [sp]                        @ 4-byte Reload
	ldrb.w	r0, [r0, #89]
.Ltmp76:
	.loc	20 94 13 is_stmt 0              @ ../MotorControl/encoder.cpp:94:13
	lsls	r0, r0, #31
	cbz	r0, .LBB16_7
	b	.LBB16_4
.LBB16_4:
	.loc	20 0 13                         @ ../MotorControl/encoder.cpp:0:13
	ldr	r0, [sp]                        @ 4-byte Reload
	movs	r1, #1
.Ltmp77:
	.loc	20 95 23 is_stmt 1              @ ../MotorControl/encoder.cpp:95:23
	strb.w	r1, [r0, #143]
.Ltmp78:
	.loc	20 96 16                        @ ../MotorControl/encoder.cpp:96:16
	ldr	r0, [r0, #48]
	.loc	20 96 23 is_stmt 0              @ ../MotorControl/encoder.cpp:96:23
	ldr.w	r0, [r0, #256]
	movw	r1, #14488
	.loc	20 96 55                        @ ../MotorControl/encoder.cpp:96:55
	ldrb	r0, [r0, r1]
.Ltmp79:
	.loc	20 96 16                        @ ../MotorControl/encoder.cpp:96:16
	lsls	r0, r0, #31
	cbz	r0, .LBB16_6
	b	.LBB16_5
.LBB16_5:
.Ltmp80:
	.loc	20 97 17 is_stmt 1              @ ../MotorControl/encoder.cpp:97:17
	ldr	r0, [sp]                        @ 4-byte Reload
	ldr	r0, [r0, #48]
	.loc	20 97 24 is_stmt 0              @ ../MotorControl/encoder.cpp:97:24
	ldr.w	r1, [r0, #256]
	movw	r2, #14666
	movs	r0, #1
	.loc	20 97 55                        @ ../MotorControl/encoder.cpp:97:55
	strb	r0, [r1, r2]
	.loc	20 98 13 is_stmt 1              @ ../MotorControl/encoder.cpp:98:13
	b	.LBB16_6
.Ltmp81:
.LBB16_6:
	.loc	20 99 9                         @ ../MotorControl/encoder.cpp:99:9
	b	.LBB16_8
.Ltmp82:
.LBB16_7:
	.loc	20 0 9 is_stmt 0                @ ../MotorControl/encoder.cpp:0:9
	ldr	r1, [sp]                        @ 4-byte Reload
	movs	r0, #0
.Ltmp83:
	.loc	20 103 23 is_stmt 1             @ ../MotorControl/encoder.cpp:103:23
	strb.w	r0, [r1, #143]
	b	.LBB16_8
.Ltmp84:
.LBB16_8:
	.loc	20 0 23 is_stmt 0               @ ../MotorControl/encoder.cpp:0:23
	ldr	r1, [sp]                        @ 4-byte Reload
	movs	r0, #1
	.loc	20 105 22 is_stmt 1             @ ../MotorControl/encoder.cpp:105:22
	strb.w	r0, [r1, #142]
	.loc	20 106 5                        @ ../MotorControl/encoder.cpp:106:5
	b	.LBB16_9
.Ltmp85:
.LBB16_9:
	.loc	20 109 5                        @ ../MotorControl/encoder.cpp:109:5
	ldr	r0, [sp]                        @ 4-byte Reload
	adds	r0, #12
	.loc	20 109 17 is_stmt 0             @ ../MotorControl/encoder.cpp:109:17
	bl	_ZN9Stm32Gpio11unsubscribeEv
	.loc	20 110 1 epilogue_begin is_stmt 1 @ ../MotorControl/encoder.cpp:110:1
	add	sp, #8
	pop	{r7, pc}
.Ltmp86:
.Lfunc_end16:
	.size	_ZN7Encoder12enc_index_cbEv, .Lfunc_end16-_ZN7Encoder12enc_index_cbEv
	.cfi_endproc
	.cantunwind
	.fnend
                                        @ -- End function
	.section	.text._ZN7Encoder18set_circular_countEib,"ax",%progbits
	.hidden	_ZN7Encoder18set_circular_countEib @ -- Begin function _ZN7Encoder18set_circular_countEib
	.globl	_ZN7Encoder18set_circular_countEib
	.p2align	2
	.type	_ZN7Encoder18set_circular_countEib,%function
	.code	16                              @ @_ZN7Encoder18set_circular_countEib
	.thumb_func
_ZN7Encoder18set_circular_countEib:
.Lfunc_begin17:
	.loc	20 160 0                        @ ../MotorControl/encoder.cpp:160:0
	.fnstart
	.cfi_startproc
@ %bb.0:
	.save	{r7, lr}
	push	{r7, lr}
	.cfi_def_cfa_offset 8
	.cfi_offset lr, -4
	.cfi_offset r7, -8
	.pad	#24
	sub	sp, #24
	.cfi_def_cfa_offset 32
                                        @ kill: def $r3 killed $r2
	str	r0, [sp, #20]
	str	r1, [sp, #16]
	strb.w	r2, [sp, #15]
	ldr	r0, [sp, #20]
.Ltmp87:
	.loc	20 162 21 prologue_end          @ ../MotorControl/encoder.cpp:162:21
	str	r0, [sp, #4]                    @ 4-byte Spill
	bl	_ZL18cpu_enter_criticalv
	.loc	20 162 14 is_stmt 0             @ ../MotorControl/encoder.cpp:162:14
	str	r0, [sp, #8]
.Ltmp88:
	.loc	20 164 9 is_stmt 1              @ ../MotorControl/encoder.cpp:164:9
	ldrb.w	r0, [sp, #15]
.Ltmp89:
	.loc	20 164 9 is_stmt 0              @ ../MotorControl/encoder.cpp:164:9
	lsls	r0, r0, #31
	cbz	r0, .LBB17_2
	b	.LBB17_1
.LBB17_1:
.Ltmp90:
	.loc	20 165 33 is_stmt 1             @ ../MotorControl/encoder.cpp:165:33
	ldr	r1, [sp, #4]                    @ 4-byte Reload
	ldr	r2, [sp, #16]
	.loc	20 165 30 is_stmt 0             @ ../MotorControl/encoder.cpp:165:30
	ldr	r0, [r1, #72]
	.loc	20 165 41                       @ ../MotorControl/encoder.cpp:165:41
	ldr.w	r3, [r1, #148]
	.loc	20 165 39                       @ ../MotorControl/encoder.cpp:165:39
	subs	r2, r2, r3
	.loc	20 165 30                       @ ../MotorControl/encoder.cpp:165:30
	add	r0, r2
	str	r0, [r1, #72]
	.loc	20 166 44 is_stmt 1             @ ../MotorControl/encoder.cpp:166:44
	ldr	r0, [r1, #72]
	.loc	20 166 66 is_stmt 0             @ ../MotorControl/encoder.cpp:166:66
	ldr	r1, [r1, #80]
	.loc	20 166 32                       @ ../MotorControl/encoder.cpp:166:32
	bl	_Z3modii
	ldr	r1, [sp, #4]                    @ 4-byte Reload
	.loc	20 166 30                       @ ../MotorControl/encoder.cpp:166:30
	str	r0, [r1, #72]
	.loc	20 167 5 is_stmt 1              @ ../MotorControl/encoder.cpp:167:5
	b	.LBB17_2
.Ltmp91:
.LBB17_2:
	.loc	20 170 25                       @ ../MotorControl/encoder.cpp:170:25
	ldr	r1, [sp, #4]                    @ 4-byte Reload
	ldr	r0, [sp, #16]
	.loc	20 170 40 is_stmt 0             @ ../MotorControl/encoder.cpp:170:40
	ldr	r1, [r1, #80]
	.loc	20 170 21                       @ ../MotorControl/encoder.cpp:170:21
	bl	_Z3modii
	mov	r1, r0
	.loc	20 170 19                       @ ../MotorControl/encoder.cpp:170:19
	ldr	r0, [sp, #4]                    @ 4-byte Reload
	str.w	r1, [r0, #148]
	.loc	20 171 30 is_stmt 1             @ ../MotorControl/encoder.cpp:171:30
	vldr	s0, [r0, #148]
	vcvt.f32.s32	s0, s0
	.loc	20 171 21 is_stmt 0             @ ../MotorControl/encoder.cpp:171:21
	vstr	s0, [r0, #176]
	.loc	20 173 23 is_stmt 1             @ ../MotorControl/encoder.cpp:173:23
	ldr	r0, [sp, #8]
	.loc	20 173 5 is_stmt 0              @ ../MotorControl/encoder.cpp:173:5
	bl	_ZL17cpu_exit_criticalj
	.loc	20 174 1 epilogue_begin is_stmt 1 @ ../MotorControl/encoder.cpp:174:1
	add	sp, #24
	pop	{r7, pc}
.Ltmp92:
.Lfunc_end17:
	.size	_ZN7Encoder18set_circular_countEib, .Lfunc_end17-_ZN7Encoder18set_circular_countEib
	.cfi_endproc
	.cantunwind
	.fnend
                                        @ -- End function
	.section	.text._ZL20enc_index_cb_wrapperPv,"ax",%progbits
	.p2align	2                               @ -- Begin function _ZL20enc_index_cb_wrapperPv
	.type	_ZL20enc_index_cb_wrapperPv,%function
	.code	16                              @ @_ZL20enc_index_cb_wrapperPv
	.thumb_func
_ZL20enc_index_cb_wrapperPv:
.Lfunc_begin18:
	.loc	20 17 0                         @ ../MotorControl/encoder.cpp:17:0
	.fnstart
	.cfi_startproc
@ %bb.0:
	.save	{r7, lr}
	push	{r7, lr}
	.cfi_def_cfa_offset 8
	.cfi_offset lr, -4
	.cfi_offset r7, -8
	.pad	#8
	sub	sp, #8
	.cfi_def_cfa_offset 16
	str	r0, [sp, #4]
.Ltmp93:
	.loc	20 18 32 prologue_end           @ ../MotorControl/encoder.cpp:18:32
	ldr	r0, [sp, #4]
	.loc	20 18 38 is_stmt 0              @ ../MotorControl/encoder.cpp:18:38
	bl	_ZN7Encoder12enc_index_cbEv
	.loc	20 19 1 epilogue_begin is_stmt 1 @ ../MotorControl/encoder.cpp:19:1
	add	sp, #8
	pop	{r7, pc}
.Ltmp94:
.Lfunc_end18:
	.size	_ZL20enc_index_cb_wrapperPv, .Lfunc_end18-_ZL20enc_index_cb_wrapperPv
	.cfi_endproc
	.cantunwind
	.fnend
                                        @ -- End function
	.section	.text._ZN7Encoder20check_pre_calibratedEv,"ax",%progbits
	.hidden	_ZN7Encoder20check_pre_calibratedEv @ -- Begin function _ZN7Encoder20check_pre_calibratedEv
	.globl	_ZN7Encoder20check_pre_calibratedEv
	.p2align	2
	.type	_ZN7Encoder20check_pre_calibratedEv,%function
	.code	16                              @ @_ZN7Encoder20check_pre_calibratedEv
	.thumb_func
_ZN7Encoder20check_pre_calibratedEv:
.Lfunc_begin19:
	.loc	20 132 0                        @ ../MotorControl/encoder.cpp:132:0
	.fnstart
	.cfi_startproc
@ %bb.0:
	.pad	#8
	sub	sp, #8
	.cfi_def_cfa_offset 8
	str	r0, [sp, #4]
	ldr	r0, [sp, #4]
.Ltmp95:
	.loc	20 134 9 prologue_end           @ ../MotorControl/encoder.cpp:134:9
	str	r0, [sp]                        @ 4-byte Spill
	ldr	r0, [r0, #48]
	.loc	20 134 16 is_stmt 0             @ ../MotorControl/encoder.cpp:134:16
	ldr.w	r0, [r0, #344]
	.loc	20 134 31                       @ ../MotorControl/encoder.cpp:134:31
	ldrb.w	r0, [r0, #56]
.Ltmp96:
	.loc	20 134 9                        @ ../MotorControl/encoder.cpp:134:9
	cmp	r0, #3
	beq	.LBB19_7
	b	.LBB19_1
.LBB19_1:
.Ltmp97:
	.loc	20 135 14 is_stmt 1             @ ../MotorControl/encoder.cpp:135:14
	ldr	r0, [sp]                        @ 4-byte Reload
	ldrb.w	r0, [r0, #143]
.Ltmp98:
	.loc	20 135 13 is_stmt 0             @ ../MotorControl/encoder.cpp:135:13
	lsls	r0, r0, #31
	cbnz	r0, .LBB19_3
	b	.LBB19_2
.LBB19_2:
	.loc	20 0 13                         @ ../MotorControl/encoder.cpp:0:13
	ldr	r1, [sp]                        @ 4-byte Reload
	movs	r0, #0
.Ltmp99:
	.loc	20 136 36 is_stmt 1             @ ../MotorControl/encoder.cpp:136:36
	strb.w	r0, [r1, #89]
	.loc	20 136 13 is_stmt 0             @ ../MotorControl/encoder.cpp:136:13
	b	.LBB19_3
.Ltmp100:
.LBB19_3:
	.loc	20 137 13 is_stmt 1             @ ../MotorControl/encoder.cpp:137:13
	ldr	r0, [sp]                        @ 4-byte Reload
	ldrh.w	r0, [r0, #314]
	.loc	20 137 39 is_stmt 0             @ ../MotorControl/encoder.cpp:137:39
	cbnz	r0, .LBB19_6
	b	.LBB19_4
.LBB19_4:
	.loc	20 137 43                       @ ../MotorControl/encoder.cpp:137:43
	ldr	r0, [sp]                        @ 4-byte Reload
	ldrb.w	r0, [r0, #142]
.Ltmp101:
	.loc	20 137 13                       @ ../MotorControl/encoder.cpp:137:13
	lsls	r0, r0, #31
	cbnz	r0, .LBB19_6
	b	.LBB19_5
.LBB19_5:
	.loc	20 0 13                         @ ../MotorControl/encoder.cpp:0:13
	ldr	r1, [sp]                        @ 4-byte Reload
	movs	r0, #0
.Ltmp102:
	.loc	20 138 36 is_stmt 1             @ ../MotorControl/encoder.cpp:138:36
	strb.w	r0, [r1, #89]
	.loc	20 138 13 is_stmt 0             @ ../MotorControl/encoder.cpp:138:13
	b	.LBB19_6
.Ltmp103:
.LBB19_6:
	.loc	20 139 5 is_stmt 1              @ ../MotorControl/encoder.cpp:139:5
	b	.LBB19_7
.Ltmp104:
.LBB19_7:
	.loc	20 140 1 epilogue_begin         @ ../MotorControl/encoder.cpp:140:1
	add	sp, #8
	bx	lr
.Ltmp105:
.Lfunc_end19:
	.size	_ZN7Encoder20check_pre_calibratedEv, .Lfunc_end19-_ZN7Encoder20check_pre_calibratedEv
	.cfi_endproc
	.cantunwind
	.fnend
                                        @ -- End function
	.section	.text._ZN7Encoder16set_linear_countEi,"ax",%progbits
	.hidden	_ZN7Encoder16set_linear_countEi @ -- Begin function _ZN7Encoder16set_linear_countEi
	.globl	_ZN7Encoder16set_linear_countEi
	.p2align	2
	.type	_ZN7Encoder16set_linear_countEi,%function
	.code	16                              @ @_ZN7Encoder16set_linear_countEi
	.thumb_func
_ZN7Encoder16set_linear_countEi:
.Lfunc_begin20:
	.loc	20 143 0                        @ ../MotorControl/encoder.cpp:143:0
	.fnstart
	.cfi_startproc
@ %bb.0:
	.save	{r7, lr}
	push	{r7, lr}
	.cfi_def_cfa_offset 8
	.cfi_offset lr, -4
	.cfi_offset r7, -8
	.pad	#16
	sub	sp, #16
	.cfi_def_cfa_offset 24
	str	r0, [sp, #12]
	str	r1, [sp, #8]
	ldr	r0, [sp, #12]
.Ltmp106:
	.loc	20 145 21 prologue_end          @ ../MotorControl/encoder.cpp:145:21
	str	r0, [sp]                        @ 4-byte Spill
	bl	_ZL18cpu_enter_criticalv
	ldr	r1, [sp]                        @ 4-byte Reload
	.loc	20 145 14 is_stmt 0             @ ../MotorControl/encoder.cpp:145:14
	str	r0, [sp, #4]
	.loc	20 148 21 is_stmt 1             @ ../MotorControl/encoder.cpp:148:21
	ldr	r0, [sp, #8]
	.loc	20 148 19 is_stmt 0             @ ../MotorControl/encoder.cpp:148:19
	str.w	r0, [r1, #144]
	.loc	20 149 35 is_stmt 1             @ ../MotorControl/encoder.cpp:149:35
	vldr	s0, [sp, #8]
	vcvt.f32.s32	s0, s0
	.loc	20 149 26 is_stmt 0             @ ../MotorControl/encoder.cpp:149:26
	vstr	s0, [r1, #172]
	.loc	20 150 23 is_stmt 1             @ ../MotorControl/encoder.cpp:150:23
	ldr	r0, [sp, #8]
	.loc	20 150 21 is_stmt 0             @ ../MotorControl/encoder.cpp:150:21
	strh.w	r0, [r1, #234]
	.loc	20 153 29 is_stmt 1             @ ../MotorControl/encoder.cpp:153:29
	ldr	r0, [sp, #8]
	.loc	20 153 5 is_stmt 0              @ ../MotorControl/encoder.cpp:153:5
	ldr	r1, [r1, #8]
	.loc	20 153 13                       @ ../MotorControl/encoder.cpp:153:13
	ldr	r1, [r1]
	.loc	20 153 27                       @ ../MotorControl/encoder.cpp:153:27
	str	r0, [r1, #36]
	.loc	20 155 23 is_stmt 1             @ ../MotorControl/encoder.cpp:155:23
	ldr	r0, [sp, #4]
	.loc	20 155 5 is_stmt 0              @ ../MotorControl/encoder.cpp:155:5
	bl	_ZL17cpu_exit_criticalj
	.loc	20 156 1 epilogue_begin is_stmt 1 @ ../MotorControl/encoder.cpp:156:1
	add	sp, #16
	pop	{r7, pc}
.Ltmp107:
.Lfunc_end20:
	.size	_ZN7Encoder16set_linear_countEi, .Lfunc_end20-_ZN7Encoder16set_linear_countEi
	.cfi_endproc
	.cantunwind
	.fnend
                                        @ -- End function
	.section	.text._ZL18cpu_enter_criticalv,"ax",%progbits
	.p2align	2                               @ -- Begin function _ZL18cpu_enter_criticalv
	.type	_ZL18cpu_enter_criticalv,%function
	.code	16                              @ @_ZL18cpu_enter_criticalv
	.thumb_func
_ZL18cpu_enter_criticalv:
.Lfunc_begin21:
	.loc	29 31 0                         @ ../../Firmware\Drivers/STM32/stm32_system.h:31:0
	.fnstart
	.cfi_startproc
@ %bb.0:
	.pad	#12
	sub	sp, #12
	.cfi_def_cfa_offset 12
.Ltmp108:
	.file	33 "D:\\ikingtec\\Robot\\ODrive\\Firmware\\MDK-ARM" "../ThirdParty/CMSIS/Include/cmsis_armclang.h"
	.loc	33 377 3 prologue_end           @ ../ThirdParty/CMSIS/Include/cmsis_armclang.h:377:3
	@APP
	mrs	r0, primask
	@NO_APP
	str	r0, [sp, #4]
	.loc	33 378 10                       @ ../ThirdParty/CMSIS/Include/cmsis_armclang.h:378:10
	ldr	r0, [sp, #4]
.Ltmp109:
	.loc	29 32 14                        @ ../../Firmware\Drivers/STM32/stm32_system.h:32:14
	str	r0, [sp]
	.loc	29 33 5                         @ ../../Firmware\Drivers/STM32/stm32_system.h:33:5
	@APP
	mrs	r0, primask
	cpsid i

	@NO_APP
	str	r0, [sp, #8]
	.loc	29 34 12                        @ ../../Firmware\Drivers/STM32/stm32_system.h:34:12
	ldr	r0, [sp]
	.loc	29 34 5 epilogue_begin is_stmt 0 @ ../../Firmware\Drivers/STM32/stm32_system.h:34:5
	add	sp, #12
	bx	lr
.Ltmp110:
.Lfunc_end21:
	.size	_ZL18cpu_enter_criticalv, .Lfunc_end21-_ZL18cpu_enter_criticalv
	.cfi_endproc
	.cantunwind
	.fnend
                                        @ -- End function
	.section	.text._ZL17cpu_exit_criticalj,"ax",%progbits
	.p2align	2                               @ -- Begin function _ZL17cpu_exit_criticalj
	.type	_ZL17cpu_exit_criticalj,%function
	.code	16                              @ @_ZL17cpu_exit_criticalj
	.thumb_func
_ZL17cpu_exit_criticalj:
.Lfunc_begin22:
	.loc	29 37 0 is_stmt 1               @ ../../Firmware\Drivers/STM32/stm32_system.h:37:0
	.fnstart
	.cfi_startproc
@ %bb.0:
	.pad	#8
	sub	sp, #8
	.cfi_def_cfa_offset 8
	str	r0, [sp]
.Ltmp111:
	.loc	29 38 19 prologue_end           @ ../../Firmware\Drivers/STM32/stm32_system.h:38:19
	ldr	r0, [sp]
	str	r0, [sp, #4]
.Ltmp112:
	.loc	33 405 46                       @ ../ThirdParty/CMSIS/Include/cmsis_armclang.h:405:46
	ldr	r0, [sp, #4]
	.loc	33 405 3 is_stmt 0              @ ../ThirdParty/CMSIS/Include/cmsis_armclang.h:405:3
	@APP
	msr	primask, r0
	@NO_APP
.Ltmp113:
	.loc	29 39 1 epilogue_begin is_stmt 1 @ ../../Firmware\Drivers/STM32/stm32_system.h:39:1
	add	sp, #8
	bx	lr
.Ltmp114:
.Lfunc_end22:
	.size	_ZL17cpu_exit_criticalj, .Lfunc_end22-_ZL17cpu_exit_criticalj
	.cfi_endproc
	.cantunwind
	.fnend
                                        @ -- End function
	.section	.text._Z3modii,"axG",%progbits,_Z3modii,comdat
	.hidden	_Z3modii                        @ -- Begin function _Z3modii
	.weak	_Z3modii
	.p2align	2
	.type	_Z3modii,%function
	.code	16                              @ @_Z3modii
	.thumb_func
_Z3modii:
.Lfunc_begin23:
	.loc	18 154 0                        @ ../../Firmware\MotorControl/utils.hpp:154:0
	.fnstart
	.cfi_startproc
@ %bb.0:
	.pad	#12
	sub	sp, #12
	.cfi_def_cfa_offset 12
	str	r0, [sp, #8]
	str	r1, [sp, #4]
.Ltmp115:
	.loc	18 155 13 prologue_end          @ ../../Firmware\MotorControl/utils.hpp:155:13
	ldr	r2, [sp, #8]
	.loc	18 155 24 is_stmt 0             @ ../../Firmware\MotorControl/utils.hpp:155:24
	ldr	r1, [sp, #4]
	.loc	18 155 22                       @ ../../Firmware\MotorControl/utils.hpp:155:22
	sdiv	r0, r2, r1
	mls	r0, r0, r1, r2
	.loc	18 155 9                        @ ../../Firmware\MotorControl/utils.hpp:155:9
	str	r0, [sp]
.Ltmp116:
	.loc	18 156 9 is_stmt 1              @ ../../Firmware\MotorControl/utils.hpp:156:9
	ldr	r0, [sp]
.Ltmp117:
	.loc	18 156 9 is_stmt 0              @ ../../Firmware\MotorControl/utils.hpp:156:9
	cmp.w	r0, #-1
	bgt	.LBB23_2
	b	.LBB23_1
.LBB23_1:
.Ltmp118:
	.loc	18 156 21                       @ ../../Firmware\MotorControl/utils.hpp:156:21
	ldr	r1, [sp, #4]
	.loc	18 156 18                       @ ../../Firmware\MotorControl/utils.hpp:156:18
	ldr	r0, [sp]
	add	r0, r1
	str	r0, [sp]
	.loc	18 156 16                       @ ../../Firmware\MotorControl/utils.hpp:156:16
	b	.LBB23_2
.Ltmp119:
.LBB23_2:
	.loc	18 157 12 is_stmt 1             @ ../../Firmware\MotorControl/utils.hpp:157:12
	ldr	r0, [sp]
	.loc	18 157 5 epilogue_begin is_stmt 0 @ ../../Firmware\MotorControl/utils.hpp:157:5
	add	sp, #12
	bx	lr
.Ltmp120:
.Lfunc_end23:
	.size	_Z3modii, .Lfunc_end23-_Z3modii
	.cfi_endproc
	.cantunwind
	.fnend
                                        @ -- End function
	.section	.text._ZN7Encoder16run_index_searchEv,"ax",%progbits
	.hidden	_ZN7Encoder16run_index_searchEv @ -- Begin function _ZN7Encoder16run_index_searchEv
	.globl	_ZN7Encoder16run_index_searchEv
	.p2align	2
	.type	_ZN7Encoder16run_index_searchEv,%function
	.code	16                              @ @_ZN7Encoder16run_index_searchEv
	.thumb_func
_ZN7Encoder16run_index_searchEv:
.Lfunc_begin24:
	.loc	20 176 0 is_stmt 1              @ ../MotorControl/encoder.cpp:176:0
	.fnstart
	.cfi_startproc
@ %bb.0:
	.save	{r7, lr}
	push	{r7, lr}
	.cfi_def_cfa_offset 8
	.cfi_offset lr, -4
	.cfi_offset r7, -8
	.pad	#48
	sub	sp, #48
	.cfi_def_cfa_offset 56
	str	r0, [sp, #44]
	ldr	r0, [sp, #44]
	str	r0, [sp]                        @ 4-byte Spill
	movs	r1, #1
.Ltmp121:
	.loc	20 177 23 prologue_end          @ ../MotorControl/encoder.cpp:177:23
	strb.w	r1, [r0, #88]
	movs	r1, #0
	.loc	20 178 18                       @ ../MotorControl/encoder.cpp:178:18
	str	r1, [sp, #12]                   @ 4-byte Spill
	strb.w	r1, [r0, #142]
	.loc	20 179 5                        @ ../MotorControl/encoder.cpp:179:5
	bl	_ZN7Encoder17set_idx_subscribeEb
	ldr	r0, [sp]                        @ 4-byte Reload
	.loc	20 181 20                       @ ../MotorControl/encoder.cpp:181:20
	ldr	r0, [r0, #48]
	.loc	20 181 58 is_stmt 0             @ ../MotorControl/encoder.cpp:181:58
	str	r0, [sp, #4]                    @ 4-byte Spill
	adds	r0, #36
	.loc	20 181 27                       @ ../MotorControl/encoder.cpp:181:27
	str	r0, [sp, #8]                    @ 4-byte Spill
	add	r0, sp, #24
	str	r0, [sp, #16]                   @ 4-byte Spill
	bl	_ZNSt3__28functionIFbbEEC2B7v180000Ev
	ldr	r0, [sp, #4]                    @ 4-byte Reload
	ldr	r1, [sp, #8]                    @ 4-byte Reload
	ldr	r2, [sp, #12]                   @ 4-byte Reload
	ldr	r3, [sp, #16]                   @ 4-byte Reload
	bl	_ZN4Axis15run_lockin_spinERKNS_14LockinConfig_tEbNSt3__28functionIFbbEEE
	mov	r1, r0
	.loc	20 181 20                       @ ../MotorControl/encoder.cpp:181:20
	ldr	r0, [sp, #16]                   @ 4-byte Reload
	str	r1, [sp, #20]                   @ 4-byte Spill
	bl	_ZNSt3__28functionIFbbEED2Ev
	ldr	r0, [sp, #20]                   @ 4-byte Reload
	.loc	20 181 10                       @ ../MotorControl/encoder.cpp:181:10
	strb.w	r0, [sp, #43]
	.loc	20 182 5 is_stmt 1              @ ../MotorControl/encoder.cpp:182:5
	ldrb.w	r0, [sp, #43]
	and	r0, r0, #1
	.loc	20 182 5 epilogue_begin is_stmt 0 @ ../MotorControl/encoder.cpp:182:5
	add	sp, #48
	pop	{r7, pc}
.Ltmp122:
.Lfunc_end24:
	.size	_ZN7Encoder16run_index_searchEv, .Lfunc_end24-_ZN7Encoder16run_index_searchEv
	.cfi_endproc
	.cantunwind
	.fnend
                                        @ -- End function
	.section	.text._ZNSt3__28functionIFbbEEC2B7v180000Ev,"axG",%progbits,_ZNSt3__28functionIFbbEEC2B7v180000Ev,comdat
	.hidden	_ZNSt3__28functionIFbbEEC2B7v180000Ev @ -- Begin function _ZNSt3__28functionIFbbEEC2B7v180000Ev
	.weak	_ZNSt3__28functionIFbbEEC2B7v180000Ev
	.p2align	2
	.type	_ZNSt3__28functionIFbbEEC2B7v180000Ev,%function
	.code	16                              @ @_ZNSt3__28functionIFbbEEC2B7v180000Ev
	.thumb_func
_ZNSt3__28functionIFbbEEC2B7v180000Ev:
.Lfunc_begin25:
	.loc	19 1010 0 is_stmt 1             @ D:\Embed\MDK\MDK\ARM\ARMCompilerV621\Bin\..\include\libcxx\__functional/function.h:1010:0
	.fnstart
	.cfi_startproc
@ %bb.0:
	.save	{r7, lr}
	push	{r7, lr}
	.cfi_def_cfa_offset 8
	.cfi_offset lr, -4
	.cfi_offset r7, -8
	.pad	#8
	sub	sp, #8
	.cfi_def_cfa_offset 16
	str	r0, [sp, #4]
	ldr	r0, [sp, #4]
.Ltmp123:
	.loc	19 1010 5 prologue_end          @ D:\Embed\MDK\MDK\ARM\ARMCompilerV621\Bin\..\include\libcxx\__functional/function.h:1010:5
	str	r0, [sp]                        @ 4-byte Spill
	bl	_ZNSt3__210__function13__policy_funcIFbbEEC2B7v180000Ev
	ldr	r0, [sp]                        @ 4-byte Reload
	.loc	19 1010 28 epilogue_begin is_stmt 0 @ D:\Embed\MDK\MDK\ARM\ARMCompilerV621\Bin\..\include\libcxx\__functional/function.h:1010:28
	add	sp, #8
	pop	{r7, pc}
.Ltmp124:
.Lfunc_end25:
	.size	_ZNSt3__28functionIFbbEEC2B7v180000Ev, .Lfunc_end25-_ZNSt3__28functionIFbbEEC2B7v180000Ev
	.cfi_endproc
	.cantunwind
	.fnend
                                        @ -- End function
	.section	.text._ZNSt3__28functionIFbbEED2Ev,"axG",%progbits,_ZNSt3__28functionIFbbEED2Ev,comdat
	.hidden	_ZNSt3__28functionIFbbEED2Ev    @ -- Begin function _ZNSt3__28functionIFbbEED2Ev
	.weak	_ZNSt3__28functionIFbbEED2Ev
	.p2align	2
	.type	_ZNSt3__28functionIFbbEED2Ev,%function
	.code	16                              @ @_ZNSt3__28functionIFbbEED2Ev
	.thumb_func
_ZNSt3__28functionIFbbEED2Ev:
.Lfunc_begin26:
	.loc	19 1154 0 is_stmt 1             @ D:\Embed\MDK\MDK\ARM\ARMCompilerV621\Bin\..\include\libcxx\__functional/function.h:1154:0
	.fnstart
	.cfi_startproc
@ %bb.0:
	.save	{r7, lr}
	push	{r7, lr}
	.cfi_def_cfa_offset 8
	.cfi_offset lr, -4
	.cfi_offset r7, -8
	.pad	#8
	sub	sp, #8
	.cfi_def_cfa_offset 16
	str	r0, [sp, #4]
	ldr	r0, [sp, #4]
.Ltmp125:
	.loc	19 1154 43 prologue_end         @ D:\Embed\MDK\MDK\ARM\ARMCompilerV621\Bin\..\include\libcxx\__functional/function.h:1154:43
	str	r0, [sp]                        @ 4-byte Spill
	bl	_ZNSt3__210__function13__policy_funcIFbbEED2B7v180000Ev
	ldr	r0, [sp]                        @ 4-byte Reload
.Ltmp126:
	.loc	19 1154 43 epilogue_begin is_stmt 0 @ D:\Embed\MDK\MDK\ARM\ARMCompilerV621\Bin\..\include\libcxx\__functional/function.h:1154:43
	add	sp, #8
	pop	{r7, pc}
.Ltmp127:
.Lfunc_end26:
	.size	_ZNSt3__28functionIFbbEED2Ev, .Lfunc_end26-_ZNSt3__28functionIFbbEED2Ev
	.cfi_endproc
	.cantunwind
	.fnend
                                        @ -- End function
	.section	.text._ZN7Encoder18run_direction_findEv,"ax",%progbits
	.hidden	_ZN7Encoder18run_direction_findEv @ -- Begin function _ZN7Encoder18run_direction_findEv
	.globl	_ZN7Encoder18run_direction_findEv
	.p2align	2
	.type	_ZN7Encoder18run_direction_findEv,%function
	.code	16                              @ @_ZN7Encoder18run_direction_findEv
	.thumb_func
_ZN7Encoder18run_direction_findEv:
.Lfunc_begin27:
	.loc	20 185 0 is_stmt 1              @ ../MotorControl/encoder.cpp:185:0
	.fnstart
	.cfi_startproc
@ %bb.0:
	.save	{r4, r5, r7, lr}
	push	{r4, r5, r7, lr}
	.cfi_def_cfa_offset 16
	.cfi_offset lr, -4
	.cfi_offset r7, -8
	.cfi_offset r5, -12
	.cfi_offset r4, -16
	.pad	#80
	sub	sp, #80
	.cfi_def_cfa_offset 96
	str	r0, [sp, #76]
	ldr	r0, [sp, #76]
.Ltmp128:
	.loc	20 186 28 prologue_end          @ ../MotorControl/encoder.cpp:186:28
	str	r0, [sp, #4]                    @ 4-byte Spill
	ldr.w	r1, [r0, #144]
	.loc	20 186 13 is_stmt 0             @ ../MotorControl/encoder.cpp:186:13
	str	r1, [sp, #72]
	.loc	20 188 42 is_stmt 1             @ ../MotorControl/encoder.cpp:188:42
	ldr	r1, [r0, #48]
	ldr	r2, [r1, #36]
	ldr	r3, [r1, #40]
	ldr.w	r12, [r1, #44]
	ldr.w	lr, [r1, #48]
	ldr	r4, [r1, #52]
	ldr	r5, [r1, #56]
	str	r5, [sp, #64]
	str	r4, [sp, #60]
	str.w	lr, [sp, #56]
	str.w	r12, [sp, #52]
	str	r3, [sp, #48]
	str	r2, [sp, #44]
	ldr	r1, [r1, #60]
	str	r1, [sp, #68]
	.loc	20 189 51                       @ ../MotorControl/encoder.cpp:189:51
	vldr	s0, [sp, #60]
	vmov.f32	s2, #3.000000e+00
	.loc	20 189 55 is_stmt 0             @ ../MotorControl/encoder.cpp:189:55
	vmul.f32	s0, s0, s2
	.loc	20 189 35                       @ ../MotorControl/encoder.cpp:189:35
	vstr	s0, [sp, #64]
	movs	r1, #1
	.loc	20 190 38 is_stmt 1             @ ../MotorControl/encoder.cpp:190:38
	strb.w	r1, [sp, #69]
	movs	r1, #0
	.loc	20 191 37                       @ ../MotorControl/encoder.cpp:191:37
	str	r1, [sp, #12]                   @ 4-byte Spill
	strb.w	r1, [sp, #70]
	.loc	20 192 33                       @ ../MotorControl/encoder.cpp:192:33
	strb.w	r1, [sp, #68]
	.loc	20 193 20                       @ ../MotorControl/encoder.cpp:193:20
	ldr	r0, [r0, #48]
	.loc	20 193 27 is_stmt 0             @ ../MotorControl/encoder.cpp:193:27
	str	r0, [sp, #8]                    @ 4-byte Spill
	add	r0, sp, #24
	str	r0, [sp, #16]                   @ 4-byte Spill
	bl	_ZNSt3__28functionIFbbEEC2B7v180000Ev
	ldr	r0, [sp, #8]                    @ 4-byte Reload
	ldr	r2, [sp, #12]                   @ 4-byte Reload
	ldr	r3, [sp, #16]                   @ 4-byte Reload
	add	r1, sp, #44
	bl	_ZN4Axis15run_lockin_spinERKNS_14LockinConfig_tEbNSt3__28functionIFbbEEE
	mov	r1, r0
	.loc	20 193 20                       @ ../MotorControl/encoder.cpp:193:20
	ldr	r0, [sp, #16]                   @ 4-byte Reload
	str	r1, [sp, #20]                   @ 4-byte Spill
	bl	_ZNSt3__28functionIFbbEED2Ev
	ldr	r0, [sp, #20]                   @ 4-byte Reload
	.loc	20 193 10                       @ ../MotorControl/encoder.cpp:193:10
	strb.w	r0, [sp, #43]
.Ltmp129:
	.loc	20 195 9 is_stmt 1              @ ../MotorControl/encoder.cpp:195:9
	ldrb.w	r0, [sp, #43]
.Ltmp130:
	.loc	20 195 9 is_stmt 0              @ ../MotorControl/encoder.cpp:195:9
	lsls	r0, r0, #31
	cbz	r0, .LBB27_8
	b	.LBB27_1
.LBB27_1:
.Ltmp131:
	.loc	20 197 13 is_stmt 1             @ ../MotorControl/encoder.cpp:197:13
	ldr	r0, [sp, #4]                    @ 4-byte Reload
	ldr.w	r0, [r0, #144]
	.loc	20 197 29 is_stmt 0             @ ../MotorControl/encoder.cpp:197:29
	ldr	r1, [sp, #72]
	.loc	20 197 42                       @ ../MotorControl/encoder.cpp:197:42
	adds	r1, #8
.Ltmp132:
	.loc	20 197 13                       @ ../MotorControl/encoder.cpp:197:13
	cmp	r0, r1
	ble	.LBB27_3
	b	.LBB27_2
.LBB27_2:
	.loc	20 0 13                         @ ../MotorControl/encoder.cpp:0:13
	ldr	r1, [sp, #4]                    @ 4-byte Reload
	movs	r0, #1
.Ltmp133:
	.loc	20 199 31 is_stmt 1             @ ../MotorControl/encoder.cpp:199:31
	str	r0, [r1, #92]
	.loc	20 200 9                        @ ../MotorControl/encoder.cpp:200:9
	b	.LBB27_7
.Ltmp134:
.LBB27_3:
	.loc	20 200 20 is_stmt 0             @ ../MotorControl/encoder.cpp:200:20
	ldr	r0, [sp, #4]                    @ 4-byte Reload
	ldr.w	r0, [r0, #144]
	.loc	20 200 36                       @ ../MotorControl/encoder.cpp:200:36
	ldr	r1, [sp, #72]
	.loc	20 200 49                       @ ../MotorControl/encoder.cpp:200:49
	subs	r1, #8
.Ltmp135:
	.loc	20 200 20                       @ ../MotorControl/encoder.cpp:200:20
	cmp	r0, r1
	bge	.LBB27_5
	b	.LBB27_4
.LBB27_4:
	.loc	20 0 20                         @ ../MotorControl/encoder.cpp:0:20
	ldr	r1, [sp, #4]                    @ 4-byte Reload
	mov.w	r0, #-1
.Ltmp136:
	.loc	20 202 31 is_stmt 1             @ ../MotorControl/encoder.cpp:202:31
	str	r0, [r1, #92]
	.loc	20 203 9                        @ ../MotorControl/encoder.cpp:203:9
	b	.LBB27_6
.Ltmp137:
.LBB27_5:
	.loc	20 0 9 is_stmt 0                @ ../MotorControl/encoder.cpp:0:9
	ldr	r1, [sp, #4]                    @ 4-byte Reload
	movs	r0, #0
.Ltmp138:
	.loc	20 204 31 is_stmt 1             @ ../MotorControl/encoder.cpp:204:31
	str	r0, [r1, #92]
	b	.LBB27_6
.Ltmp139:
.LBB27_6:
	.loc	20 0 31 is_stmt 0               @ ../MotorControl/encoder.cpp:0:31
	b	.LBB27_7
.LBB27_7:
	.loc	20 206 5 is_stmt 1              @ ../MotorControl/encoder.cpp:206:5
	b	.LBB27_8
.Ltmp140:
.LBB27_8:
	.loc	20 208 5                        @ ../MotorControl/encoder.cpp:208:5
	ldrb.w	r0, [sp, #43]
	and	r0, r0, #1
	.loc	20 208 5 epilogue_begin is_stmt 0 @ ../MotorControl/encoder.cpp:208:5
	add	sp, #80
	pop	{r4, r5, r7, pc}
.Ltmp141:
.Lfunc_end27:
	.size	_ZN7Encoder18run_direction_findEv, .Lfunc_end27-_ZN7Encoder18run_direction_findEv
	.cfi_endproc
	.cantunwind
	.fnend
                                        @ -- End function
	.section	.text._ZN7Encoder29run_hall_polarity_calibrationEv,"ax",%progbits
	.hidden	_ZN7Encoder29run_hall_polarity_calibrationEv @ -- Begin function _ZN7Encoder29run_hall_polarity_calibrationEv
	.globl	_ZN7Encoder29run_hall_polarity_calibrationEv
	.p2align	2
	.type	_ZN7Encoder29run_hall_polarity_calibrationEv,%function
	.code	16                              @ @_ZN7Encoder29run_hall_polarity_calibrationEv
	.thumb_func
_ZN7Encoder29run_hall_polarity_calibrationEv:
.Lfunc_begin28:
	.loc	20 212 0 is_stmt 1              @ ../MotorControl/encoder.cpp:212:0
	.fnstart
	.cfi_startproc
@ %bb.0:
	.save	{r4, r5, r6, lr}
	push	{r4, r5, r6, lr}
	.cfi_def_cfa_offset 16
	.cfi_offset lr, -4
	.cfi_offset r6, -8
	.cfi_offset r5, -12
	.cfi_offset r4, -16
	.pad	#128
	sub	sp, #128
	.cfi_def_cfa_offset 144
	add	r1, sp, #108
	str	r0, [sp, #120]
	ldr	r0, [sp, #120]
.Ltmp142:
	.loc	20 213 42 prologue_end          @ ../MotorControl/encoder.cpp:213:42
	str	r0, [sp, #24]                   @ 4-byte Spill
	ldr	r2, [r0, #48]
	ldr	r3, [r2, #36]
	ldr.w	r12, [r2, #40]
	ldr.w	lr, [r2, #44]
	ldr	r4, [r2, #48]
	ldr	r5, [r2, #52]
	ldr	r6, [r2, #56]
	str	r6, [sp, #112]
	str	r5, [sp, #108]
	str	r4, [sp, #104]
	str.w	lr, [sp, #100]
	str.w	r12, [sp, #96]
	str	r3, [sp, #92]
	ldr	r2, [r2, #60]
	str	r2, [sp, #116]
	.loc	20 214 51                       @ ../MotorControl/encoder.cpp:214:51
	vldr	s0, [r1]
	vmov.f32	s2, #3.000000e+00
	.loc	20 214 55 is_stmt 0             @ ../MotorControl/encoder.cpp:214:55
	vmul.f32	s0, s0, s2
	.loc	20 214 35                       @ ../MotorControl/encoder.cpp:214:35
	vstr	s0, [r1, #4]
	movs	r1, #1
	.loc	20 215 38 is_stmt 1             @ ../MotorControl/encoder.cpp:215:38
	strb.w	r1, [sp, #117]
	movs	r1, #0
	.loc	20 216 37                       @ ../MotorControl/encoder.cpp:216:37
	str	r1, [sp, #16]                   @ 4-byte Spill
	strb.w	r1, [sp, #118]
	.loc	20 217 33                       @ ../MotorControl/encoder.cpp:217:33
	strb.w	r1, [sp, #116]
	.loc	20 219 20                       @ ../MotorControl/encoder.cpp:219:20
	str	r0, [sp, #88]
	.loc	20 226 38                       @ ../MotorControl/encoder.cpp:226:38
	strb.w	r1, [r0, #101]
	.loc	20 227 5                        @ ../MotorControl/encoder.cpp:227:5
	adds	r0, #248
	.loc	20 227 29 is_stmt 0             @ ../MotorControl/encoder.cpp:227:29
	str	r1, [sp, #84]
	add	r1, sp, #84
	.loc	20 227 24                       @ ../MotorControl/encoder.cpp:227:24
	bl	_ZNSt3__25arrayIiLj8EE4fillB7v180000ERKi
	ldr	r0, [sp, #24]                   @ 4-byte Reload
	.loc	20 228 20 is_stmt 1             @ ../MotorControl/encoder.cpp:228:20
	ldr	r0, [r0, #48]
	.loc	20 228 65 is_stmt 0             @ ../MotorControl/encoder.cpp:228:65
	str	r0, [sp, #8]                    @ 4-byte Spill
	ldr	r0, [sp, #88]
	str	r0, [sp, #60]
	ldr	r1, [sp, #60]
	add	r0, sp, #64
	str	r0, [sp, #12]                   @ 4-byte Spill
	bl	_ZNSt3__28functionIFbbEEC2IZN7Encoder29run_hall_polarity_calibrationEvE3$_0vEET_
	ldr	r0, [sp, #8]                    @ 4-byte Reload
	ldr	r3, [sp, #12]                   @ 4-byte Reload
	ldr	r2, [sp, #16]                   @ 4-byte Reload
	add	r1, sp, #92
	.loc	20 228 27                       @ ../MotorControl/encoder.cpp:228:27
	bl	_ZN4Axis15run_lockin_spinERKNS_14LockinConfig_tEbNSt3__28functionIFbbEEE
	mov	r1, r0
	.loc	20 228 20                       @ ../MotorControl/encoder.cpp:228:20
	ldr	r0, [sp, #12]                   @ 4-byte Reload
	str	r1, [sp, #20]                   @ 4-byte Spill
	bl	_ZNSt3__28functionIFbbEED2Ev
	ldr	r0, [sp, #16]                   @ 4-byte Reload
	ldr	r2, [sp, #20]                   @ 4-byte Reload
	ldr	r1, [sp, #24]                   @ 4-byte Reload
	.loc	20 228 10                       @ ../MotorControl/encoder.cpp:228:10
	strb.w	r2, [sp, #83]
	.loc	20 229 25 is_stmt 1             @ ../MotorControl/encoder.cpp:229:25
	strb.w	r0, [r1, #246]
.Ltmp143:
	.loc	20 231 9                        @ ../MotorControl/encoder.cpp:231:9
	ldrb.w	r0, [sp, #83]
.Ltmp144:
	.loc	20 231 9 is_stmt 0              @ ../MotorControl/encoder.cpp:231:9
	lsls	r0, r0, #31
	cmp	r0, #0
	beq.w	.LBB28_24
	b	.LBB28_1
.LBB28_1:
	.loc	20 0 9                          @ ../MotorControl/encoder.cpp:0:9
	add	r0, sp, #56
.Ltmp145:
	.loc	20 232 24 is_stmt 1             @ ../MotorControl/encoder.cpp:232:24
	bl	_ZNSt3__26bitsetILj8EEC2B7v180000Ev
	add	r0, sp, #52
	.loc	20 233 24                       @ ../MotorControl/encoder.cpp:233:24
	bl	_ZNSt3__26bitsetILj8EEC2B7v180000Ev
	movs	r0, #0
.Ltmp146:
	.loc	20 234 18                       @ ../MotorControl/encoder.cpp:234:18
	str	r0, [sp, #48]
	.loc	20 234 14 is_stmt 0             @ ../MotorControl/encoder.cpp:234:14
	b	.LBB28_2
.LBB28_2:                               @ =>This Inner Loop Header: Depth=1
.Ltmp147:
	.loc	20 234 25                       @ ../MotorControl/encoder.cpp:234:25
	ldr	r0, [sp, #48]
.Ltmp148:
	.loc	20 234 9                        @ ../MotorControl/encoder.cpp:234:9
	cmp	r0, #7
	bgt	.LBB28_9
	b	.LBB28_3
.LBB28_3:                               @   in Loop: Header=BB28_2 Depth=1
.Ltmp149:
	.loc	20 235 17 is_stmt 1             @ ../MotorControl/encoder.cpp:235:17
	ldr	r0, [sp, #24]                   @ 4-byte Reload
	adds	r0, #248
	.loc	20 235 36 is_stmt 0             @ ../MotorControl/encoder.cpp:235:36
	ldr	r1, [sp, #48]
	.loc	20 235 17                       @ ../MotorControl/encoder.cpp:235:17
	bl	_ZNSt3__25arrayIiLj8EEixB7v180000Ej
	ldr	r0, [r0]
.Ltmp150:
	.loc	20 235 17                       @ ../MotorControl/encoder.cpp:235:17
	cmp	r0, #1
	blt	.LBB28_5
	b	.LBB28_4
.LBB28_4:                               @   in Loop: Header=BB28_2 Depth=1
.Ltmp151:
	.loc	20 236 28 is_stmt 1             @ ../MotorControl/encoder.cpp:236:28
	ldr	r2, [sp, #48]
	add	r0, sp, #40
	str	r0, [sp, #4]                    @ 4-byte Spill
	add	r1, sp, #56
	.loc	20 236 17 is_stmt 0             @ ../MotorControl/encoder.cpp:236:17
	bl	_ZNSt3__26bitsetILj8EEixB7v180000Ej
	ldr	r0, [sp, #4]                    @ 4-byte Reload
	movs	r1, #1
	.loc	20 236 31                       @ ../MotorControl/encoder.cpp:236:31
	bl	_ZNSt3__215__bit_referenceINS_8__bitsetILj1ELj8EEELb1EEaSB7v180000Eb
	.loc	20 236 17                       @ ../MotorControl/encoder.cpp:236:17
	b	.LBB28_5
.Ltmp152:
.LBB28_5:                               @   in Loop: Header=BB28_2 Depth=1
	.loc	20 237 17 is_stmt 1             @ ../MotorControl/encoder.cpp:237:17
	ldr	r0, [sp, #24]                   @ 4-byte Reload
	adds	r0, #248
	.loc	20 237 36 is_stmt 0             @ ../MotorControl/encoder.cpp:237:36
	ldr	r1, [sp, #48]
	.loc	20 237 17                       @ ../MotorControl/encoder.cpp:237:17
	bl	_ZNSt3__25arrayIiLj8EEixB7v180000Ej
	ldr	r0, [r0]
.Ltmp153:
	.loc	20 237 17                       @ ../MotorControl/encoder.cpp:237:17
	cmp	r0, #51
	blt	.LBB28_7
	b	.LBB28_6
.LBB28_6:                               @   in Loop: Header=BB28_2 Depth=1
.Ltmp154:
	.loc	20 238 33 is_stmt 1             @ ../MotorControl/encoder.cpp:238:33
	ldr	r2, [sp, #48]
	add	r0, sp, #32
	str	r0, [sp]                        @ 4-byte Spill
	add	r1, sp, #52
	.loc	20 238 17 is_stmt 0             @ ../MotorControl/encoder.cpp:238:17
	bl	_ZNSt3__26bitsetILj8EEixB7v180000Ej
	ldr	r0, [sp]                        @ 4-byte Reload
	movs	r1, #1
	.loc	20 238 36                       @ ../MotorControl/encoder.cpp:238:36
	bl	_ZNSt3__215__bit_referenceINS_8__bitsetILj1ELj8EEELb1EEaSB7v180000Eb
	.loc	20 238 17                       @ ../MotorControl/encoder.cpp:238:17
	b	.LBB28_7
.Ltmp155:
.LBB28_7:                               @   in Loop: Header=BB28_2 Depth=1
	.loc	20 239 9 is_stmt 1              @ ../MotorControl/encoder.cpp:239:9
	b	.LBB28_8
.Ltmp156:
.LBB28_8:                               @   in Loop: Header=BB28_2 Depth=1
	.loc	20 234 33                       @ ../MotorControl/encoder.cpp:234:33
	ldr	r0, [sp, #48]
	adds	r0, #1
	str	r0, [sp, #48]
	.loc	20 234 9 is_stmt 0              @ ../MotorControl/encoder.cpp:234:9
	b	.LBB28_2
.Ltmp157:
.LBB28_9:
	.loc	20 0 9                          @ ../MotorControl/encoder.cpp:0:9
	add	r0, sp, #56
	add	r1, sp, #52
.Ltmp158:
	.loc	20 240 26 is_stmt 1             @ ../MotorControl/encoder.cpp:240:26
	bl	_ZNKSt3__26bitsetILj8EEeqB7v180000ERKS1_
.Ltmp159:
	.loc	20 240 13 is_stmt 0             @ ../MotorControl/encoder.cpp:240:13
	cbnz	r0, .LBB28_11
	b	.LBB28_10
.LBB28_10:
.Ltmp160:
	.loc	20 241 13 is_stmt 1             @ ../MotorControl/encoder.cpp:241:13
	ldr	r0, [sp, #24]                   @ 4-byte Reload
	movs	r1, #16
	bl	_ZN7Encoder9set_errorEN10ODriveIntf11EncoderIntf5ErrorE
	movs	r0, #0
	.loc	20 242 13                       @ ../MotorControl/encoder.cpp:242:13
	strb.w	r0, [sp, #127]
	b	.LBB28_25
.Ltmp161:
.LBB28_11:
	.loc	20 0 13 is_stmt 0               @ ../MotorControl/encoder.cpp:0:13
	add	r0, sp, #56
	.loc	20 249 37 is_stmt 1             @ ../MotorControl/encoder.cpp:249:37
	bl	_ZNKSt3__26bitsetILj8EE8to_ulongB7v180000Ev
	.loc	20 249 17 is_stmt 0             @ ../MotorControl/encoder.cpp:249:17
	strb.w	r0, [sp, #31]
	movs	r2, #0
	.loc	20 250 17 is_stmt 1             @ ../MotorControl/encoder.cpp:250:17
	strb.w	r2, [sp, #30]
.Ltmp162:
	.loc	20 254 25                       @ ../MotorControl/encoder.cpp:254:25
	ldrb.w	r1, [sp, #31]
	add.w	r0, sp, #29
	.loc	20 254 13 is_stmt 0             @ ../MotorControl/encoder.cpp:254:13
	bl	_ZZN7Encoder29run_hall_polarity_calibrationEvENK3$_1clEhj
.Ltmp163:
	.loc	20 254 13                       @ ../MotorControl/encoder.cpp:254:13
	cbz	r0, .LBB28_13
	b	.LBB28_12
.LBB28_12:
	.loc	20 0 13                         @ ../MotorControl/encoder.cpp:0:13
	movs	r0, #0
.Ltmp164:
	.loc	20 255 27 is_stmt 1             @ ../MotorControl/encoder.cpp:255:27
	strb.w	r0, [sp, #30]
	.loc	20 256 9                        @ ../MotorControl/encoder.cpp:256:9
	b	.LBB28_23
.Ltmp165:
.LBB28_13:
	.loc	20 256 32 is_stmt 0             @ ../MotorControl/encoder.cpp:256:32
	ldrb.w	r1, [sp, #31]
	add.w	r0, sp, #29
	movs	r2, #1
	.loc	20 256 20                       @ ../MotorControl/encoder.cpp:256:20
	bl	_ZZN7Encoder29run_hall_polarity_calibrationEvENK3$_1clEhj
.Ltmp166:
	.loc	20 256 20                       @ ../MotorControl/encoder.cpp:256:20
	cbz	r0, .LBB28_15
	b	.LBB28_14
.LBB28_14:
	.loc	20 0 20                         @ ../MotorControl/encoder.cpp:0:20
	movs	r0, #1
.Ltmp167:
	.loc	20 257 27 is_stmt 1             @ ../MotorControl/encoder.cpp:257:27
	strb.w	r0, [sp, #30]
	.loc	20 258 9                        @ ../MotorControl/encoder.cpp:258:9
	b	.LBB28_22
.Ltmp168:
.LBB28_15:
	.loc	20 258 32 is_stmt 0             @ ../MotorControl/encoder.cpp:258:32
	ldrb.w	r1, [sp, #31]
	add.w	r0, sp, #29
	movs	r2, #2
	.loc	20 258 20                       @ ../MotorControl/encoder.cpp:258:20
	bl	_ZZN7Encoder29run_hall_polarity_calibrationEvENK3$_1clEhj
.Ltmp169:
	.loc	20 258 20                       @ ../MotorControl/encoder.cpp:258:20
	cbz	r0, .LBB28_17
	b	.LBB28_16
.LBB28_16:
	.loc	20 0 20                         @ ../MotorControl/encoder.cpp:0:20
	movs	r0, #2
.Ltmp170:
	.loc	20 259 27 is_stmt 1             @ ../MotorControl/encoder.cpp:259:27
	strb.w	r0, [sp, #30]
	.loc	20 260 9                        @ ../MotorControl/encoder.cpp:260:9
	b	.LBB28_21
.Ltmp171:
.LBB28_17:
	.loc	20 260 32 is_stmt 0             @ ../MotorControl/encoder.cpp:260:32
	ldrb.w	r1, [sp, #31]
	add.w	r0, sp, #29
	movs	r2, #3
	.loc	20 260 20                       @ ../MotorControl/encoder.cpp:260:20
	bl	_ZZN7Encoder29run_hall_polarity_calibrationEvENK3$_1clEhj
.Ltmp172:
	.loc	20 260 20                       @ ../MotorControl/encoder.cpp:260:20
	cbz	r0, .LBB28_19
	b	.LBB28_18
.LBB28_18:
	.loc	20 0 20                         @ ../MotorControl/encoder.cpp:0:20
	movs	r0, #4
.Ltmp173:
	.loc	20 261 27 is_stmt 1             @ ../MotorControl/encoder.cpp:261:27
	strb.w	r0, [sp, #30]
	.loc	20 262 9                        @ ../MotorControl/encoder.cpp:262:9
	b	.LBB28_20
.Ltmp174:
.LBB28_19:
	.loc	20 263 13                       @ ../MotorControl/encoder.cpp:263:13
	ldr	r0, [sp, #24]                   @ 4-byte Reload
	movs	r1, #16
	bl	_ZN7Encoder9set_errorEN10ODriveIntf11EncoderIntf5ErrorE
	movs	r0, #0
	.loc	20 264 13                       @ ../MotorControl/encoder.cpp:264:13
	strb.w	r0, [sp, #127]
	b	.LBB28_25
.Ltmp175:
.LBB28_20:
	.loc	20 0 13 is_stmt 0               @ ../MotorControl/encoder.cpp:0:13
	b	.LBB28_21
.LBB28_21:
	b	.LBB28_22
.LBB28_22:
	b	.LBB28_23
.LBB28_23:
	.loc	20 266 33 is_stmt 1             @ ../MotorControl/encoder.cpp:266:33
	ldr	r1, [sp, #24]                   @ 4-byte Reload
	ldrb.w	r0, [sp, #30]
	.loc	20 266 31 is_stmt 0             @ ../MotorControl/encoder.cpp:266:31
	strb.w	r0, [r1, #100]
	movs	r0, #1
	.loc	20 267 42 is_stmt 1             @ ../MotorControl/encoder.cpp:267:42
	strb.w	r0, [r1, #101]
	.loc	20 268 5                        @ ../MotorControl/encoder.cpp:268:5
	b	.LBB28_24
.Ltmp176:
.LBB28_24:
	.loc	20 270 12                       @ ../MotorControl/encoder.cpp:270:12
	ldrb.w	r0, [sp, #83]
	.loc	20 270 5 is_stmt 0              @ ../MotorControl/encoder.cpp:270:5
	and	r0, r0, #1
	strb.w	r0, [sp, #127]
	b	.LBB28_25
.LBB28_25:
	.loc	20 271 1 is_stmt 1              @ ../MotorControl/encoder.cpp:271:1
	ldrb.w	r0, [sp, #127]
	.loc	20 271 1 epilogue_begin is_stmt 0 @ ../MotorControl/encoder.cpp:271:1
	add	sp, #128
	pop	{r4, r5, r6, pc}
.Ltmp177:
.Lfunc_end28:
	.size	_ZN7Encoder29run_hall_polarity_calibrationEv, .Lfunc_end28-_ZN7Encoder29run_hall_polarity_calibrationEv
	.cfi_endproc
	.cantunwind
	.fnend
                                        @ -- End function
	.section	.text._ZNSt3__25arrayIiLj8EE4fillB7v180000ERKi,"axG",%progbits,_ZNSt3__25arrayIiLj8EE4fillB7v180000ERKi,comdat
	.hidden	_ZNSt3__25arrayIiLj8EE4fillB7v180000ERKi @ -- Begin function _ZNSt3__25arrayIiLj8EE4fillB7v180000ERKi
	.weak	_ZNSt3__25arrayIiLj8EE4fillB7v180000ERKi
	.p2align	2
	.type	_ZNSt3__25arrayIiLj8EE4fillB7v180000ERKi,%function
	.code	16                              @ @_ZNSt3__25arrayIiLj8EE4fillB7v180000ERKi
	.thumb_func
_ZNSt3__25arrayIiLj8EE4fillB7v180000ERKi:
.Lfunc_begin29:
	.loc	4 184 0 is_stmt 1               @ D:\Embed\MDK\MDK\ARM\ARMCompilerV621\Bin\..\include\libcxx\array:184:0
	.fnstart
	.cfi_startproc
@ %bb.0:
	.save	{r7, lr}
	push	{r7, lr}
	.cfi_def_cfa_offset 8
	.cfi_offset lr, -4
	.cfi_offset r7, -8
	.pad	#8
	sub	sp, #8
	.cfi_def_cfa_offset 16
	str	r0, [sp, #4]
	str	r1, [sp]
	ldr	r0, [sp, #4]
.Ltmp178:
	.loc	4 185 23 prologue_end           @ D:\Embed\MDK\MDK\ARM\ARMCompilerV621\Bin\..\include\libcxx\array:185:23
	bl	_ZNSt3__25arrayIiLj8EE4dataB7v180000Ev
	.loc	4 185 38 is_stmt 0              @ D:\Embed\MDK\MDK\ARM\ARMCompilerV621\Bin\..\include\libcxx\array:185:38
	ldr	r2, [sp]
	movs	r1, #8
	.loc	4 185 9                         @ D:\Embed\MDK\MDK\ARM\ARMCompilerV621\Bin\..\include\libcxx\array:185:9
	bl	_ZNSt3__26fill_nB7v180000IPijiEET_S2_T0_RKT1_
	.loc	4 186 5 epilogue_begin is_stmt 1 @ D:\Embed\MDK\MDK\ARM\ARMCompilerV621\Bin\..\include\libcxx\array:186:5
	add	sp, #8
	pop	{r7, pc}
.Ltmp179:
.Lfunc_end29:
	.size	_ZNSt3__25arrayIiLj8EE4fillB7v180000ERKi, .Lfunc_end29-_ZNSt3__25arrayIiLj8EE4fillB7v180000ERKi
	.cfi_endproc
	.cantunwind
	.fnend
                                        @ -- End function
	.section	".text._ZNSt3__28functionIFbbEEC2IZN7Encoder29run_hall_polarity_calibrationEvE3$_0vEET_","ax",%progbits
	.p2align	2                               @ -- Begin function _ZNSt3__28functionIFbbEEC2IZN7Encoder29run_hall_polarity_calibrationEvE3$_0vEET_
	.type	_ZNSt3__28functionIFbbEEC2IZN7Encoder29run_hall_polarity_calibrationEvE3$_0vEET_,%function
	.code	16                              @ @"_ZNSt3__28functionIFbbEEC2IZN7Encoder29run_hall_polarity_calibrationEvE3$_0vEET_"
	.thumb_func
_ZNSt3__28functionIFbbEEC2IZN7Encoder29run_hall_polarity_calibrationEvE3$_0vEET_:
.Lfunc_begin30:
	.loc	19 1110 0                       @ D:\Embed\MDK\MDK\ARM\ARMCompilerV621\Bin\..\include\libcxx\__functional/function.h:1110:0
	.fnstart
	.cfi_startproc
@ %bb.0:
	.save	{r7, lr}
	push	{r7, lr}
	.cfi_def_cfa_offset 8
	.cfi_offset lr, -4
	.cfi_offset r7, -8
	.pad	#16
	sub	sp, #16
	.cfi_def_cfa_offset 24
	str	r1, [sp, #12]
	str	r0, [sp, #8]
	ldr	r0, [sp, #8]
.Ltmp180:
	.loc	19 1110 50 prologue_end         @ D:\Embed\MDK\MDK\ARM\ARMCompilerV621\Bin\..\include\libcxx\__functional/function.h:1110:50
	str	r0, [sp, #4]                    @ 4-byte Spill
	add	r1, sp, #12
	bl	_ZNSt3__210__function13__policy_funcIFbbEEC2B7v180000IZN7Encoder29run_hall_polarity_calibrationEvE3$_0Li0EEEOT_
	ldr	r0, [sp, #4]                    @ 4-byte Reload
	.loc	19 1110 74 epilogue_begin is_stmt 0 @ D:\Embed\MDK\MDK\ARM\ARMCompilerV621\Bin\..\include\libcxx\__functional/function.h:1110:74
	add	sp, #16
	pop	{r7, pc}
.Ltmp181:
.Lfunc_end30:
	.size	_ZNSt3__28functionIFbbEEC2IZN7Encoder29run_hall_polarity_calibrationEvE3$_0vEET_, .Lfunc_end30-_ZNSt3__28functionIFbbEEC2IZN7Encoder29run_hall_polarity_calibrationEvE3$_0vEET_
	.cfi_endproc
	.cantunwind
	.fnend
                                        @ -- End function
	.section	.text._ZNSt3__26bitsetILj8EEC2B7v180000Ev,"axG",%progbits,_ZNSt3__26bitsetILj8EEC2B7v180000Ev,comdat
	.hidden	_ZNSt3__26bitsetILj8EEC2B7v180000Ev @ -- Begin function _ZNSt3__26bitsetILj8EEC2B7v180000Ev
	.weak	_ZNSt3__26bitsetILj8EEC2B7v180000Ev
	.p2align	2
	.type	_ZNSt3__26bitsetILj8EEC2B7v180000Ev,%function
	.code	16                              @ @_ZNSt3__26bitsetILj8EEC2B7v180000Ev
	.thumb_func
_ZNSt3__26bitsetILj8EEC2B7v180000Ev:
.Lfunc_begin31:
	.loc	27 703 0 is_stmt 1              @ D:\Embed\MDK\MDK\ARM\ARMCompilerV621\Bin\..\include\libcxx\bitset:703:0
	.fnstart
	.cfi_startproc
@ %bb.0:
	.save	{r7, lr}
	push	{r7, lr}
	.cfi_def_cfa_offset 8
	.cfi_offset lr, -4
	.cfi_offset r7, -8
	.pad	#8
	sub	sp, #8
	.cfi_def_cfa_offset 16
	str	r0, [sp, #4]
	ldr	r0, [sp, #4]
.Ltmp182:
	.loc	27 703 49 prologue_end          @ D:\Embed\MDK\MDK\ARM\ARMCompilerV621\Bin\..\include\libcxx\bitset:703:49
	str	r0, [sp]                        @ 4-byte Spill
	bl	_ZNSt3__28__bitsetILj1ELj8EEC2Ev
	ldr	r0, [sp]                        @ 4-byte Reload
	.loc	27 703 69 epilogue_begin is_stmt 0 @ D:\Embed\MDK\MDK\ARM\ARMCompilerV621\Bin\..\include\libcxx\bitset:703:69
	add	sp, #8
	pop	{r7, pc}
.Ltmp183:
.Lfunc_end31:
	.size	_ZNSt3__26bitsetILj8EEC2B7v180000Ev, .Lfunc_end31-_ZNSt3__26bitsetILj8EEC2B7v180000Ev
	.cfi_endproc
	.cantunwind
	.fnend
                                        @ -- End function
	.section	.text._ZNSt3__25arrayIiLj8EEixB7v180000Ej,"axG",%progbits,_ZNSt3__25arrayIiLj8EEixB7v180000Ej,comdat
	.hidden	_ZNSt3__25arrayIiLj8EEixB7v180000Ej @ -- Begin function _ZNSt3__25arrayIiLj8EEixB7v180000Ej
	.weak	_ZNSt3__25arrayIiLj8EEixB7v180000Ej
	.p2align	2
	.type	_ZNSt3__25arrayIiLj8EEixB7v180000Ej,%function
	.code	16                              @ @_ZNSt3__25arrayIiLj8EEixB7v180000Ej
	.thumb_func
_ZNSt3__25arrayIiLj8EEixB7v180000Ej:
.Lfunc_begin32:
	.loc	4 231 0 is_stmt 1               @ D:\Embed\MDK\MDK\ARM\ARMCompilerV621\Bin\..\include\libcxx\array:231:0
	.fnstart
	.cfi_startproc
@ %bb.0:
	.pad	#8
	sub	sp, #8
	.cfi_def_cfa_offset 8
	str	r0, [sp, #4]
	str	r1, [sp]
	ldr	r0, [sp, #4]
.Ltmp184:
	.loc	4 233 25 prologue_end           @ D:\Embed\MDK\MDK\ARM\ARMCompilerV621\Bin\..\include\libcxx\array:233:25
	ldr	r1, [sp]
	.loc	4 233 16 is_stmt 0              @ D:\Embed\MDK\MDK\ARM\ARMCompilerV621\Bin\..\include\libcxx\array:233:16
	add.w	r0, r0, r1, lsl #2
	.loc	4 233 9 epilogue_begin          @ D:\Embed\MDK\MDK\ARM\ARMCompilerV621\Bin\..\include\libcxx\array:233:9
	add	sp, #8
	bx	lr
.Ltmp185:
.Lfunc_end32:
	.size	_ZNSt3__25arrayIiLj8EEixB7v180000Ej, .Lfunc_end32-_ZNSt3__25arrayIiLj8EEixB7v180000Ej
	.cfi_endproc
	.cantunwind
	.fnend
                                        @ -- End function
	.section	.text._ZNSt3__26bitsetILj8EEixB7v180000Ej,"axG",%progbits,_ZNSt3__26bitsetILj8EEixB7v180000Ej,comdat
	.hidden	_ZNSt3__26bitsetILj8EEixB7v180000Ej @ -- Begin function _ZNSt3__26bitsetILj8EEixB7v180000Ej
	.weak	_ZNSt3__26bitsetILj8EEixB7v180000Ej
	.p2align	2
	.type	_ZNSt3__26bitsetILj8EEixB7v180000Ej,%function
	.code	16                              @ @_ZNSt3__26bitsetILj8EEixB7v180000Ej
	.thumb_func
_ZNSt3__26bitsetILj8EEixB7v180000Ej:
.Lfunc_begin33:
	.loc	27 782 0 is_stmt 1              @ D:\Embed\MDK\MDK\ARM\ARMCompilerV621\Bin\..\include\libcxx\bitset:782:0
	.fnstart
	.cfi_startproc
@ %bb.0:
	.save	{r7, lr}
	push	{r7, lr}
	.cfi_def_cfa_offset 8
	.cfi_offset lr, -4
	.cfi_offset r7, -8
	.pad	#8
	sub	sp, #8
	.cfi_def_cfa_offset 16
	str	r1, [sp, #4]
	str	r2, [sp]
	ldr	r1, [sp, #4]
.Ltmp186:
	.loc	27 782 121 prologue_end         @ D:\Embed\MDK\MDK\ARM\ARMCompilerV621\Bin\..\include\libcxx\bitset:782:121
	ldr	r2, [sp]
	.loc	27 782 110 is_stmt 0            @ D:\Embed\MDK\MDK\ARM\ARMCompilerV621\Bin\..\include\libcxx\bitset:782:110
	bl	_ZNSt3__28__bitsetILj1ELj8EE10__make_refB7v180000Ej
	.loc	27 782 97 epilogue_begin        @ D:\Embed\MDK\MDK\ARM\ARMCompilerV621\Bin\..\include\libcxx\bitset:782:97
	add	sp, #8
	pop	{r7, pc}
.Ltmp187:
.Lfunc_end33:
	.size	_ZNSt3__26bitsetILj8EEixB7v180000Ej, .Lfunc_end33-_ZNSt3__26bitsetILj8EEixB7v180000Ej
	.cfi_endproc
	.cantunwind
	.fnend
                                        @ -- End function
	.section	.text._ZNSt3__215__bit_referenceINS_8__bitsetILj1ELj8EEELb1EEaSB7v180000Eb,"axG",%progbits,_ZNSt3__215__bit_referenceINS_8__bitsetILj1ELj8EEELb1EEaSB7v180000Eb,comdat
	.hidden	_ZNSt3__215__bit_referenceINS_8__bitsetILj1ELj8EEELb1EEaSB7v180000Eb @ -- Begin function _ZNSt3__215__bit_referenceINS_8__bitsetILj1ELj8EEELb1EEaSB7v180000Eb
	.weak	_ZNSt3__215__bit_referenceINS_8__bitsetILj1ELj8EEELb1EEaSB7v180000Eb
	.p2align	2
	.type	_ZNSt3__215__bit_referenceINS_8__bitsetILj1ELj8EEELb1EEaSB7v180000Eb,%function
	.code	16                              @ @_ZNSt3__215__bit_referenceINS_8__bitsetILj1ELj8EEELb1EEaSB7v180000Eb
	.thumb_func
_ZNSt3__215__bit_referenceINS_8__bitsetILj1ELj8EEELb1EEaSB7v180000Eb:
.Lfunc_begin34:
	.loc	28 70 0 is_stmt 1               @ D:\Embed\MDK\MDK\ARM\ARMCompilerV621\Bin\..\include\libcxx\__bit_reference:70:0
	.fnstart
	.cfi_startproc
@ %bb.0:
	.pad	#12
	sub	sp, #12
	.cfi_def_cfa_offset 12
                                        @ kill: def $r2 killed $r1
	str	r0, [sp, #8]
	strb.w	r1, [sp, #7]
	ldr	r0, [sp, #8]
.Ltmp188:
	.loc	28 71 9 prologue_end            @ D:\Embed\MDK\MDK\ARM\ARMCompilerV621\Bin\..\include\libcxx\__bit_reference:71:9
	str	r0, [sp]                        @ 4-byte Spill
	ldrb.w	r0, [sp, #7]
.Ltmp189:
	.loc	28 71 9 is_stmt 0               @ D:\Embed\MDK\MDK\ARM\ARMCompilerV621\Bin\..\include\libcxx\__bit_reference:71:9
	lsls	r0, r0, #31
	cbz	r0, .LBB34_2
	b	.LBB34_1
.LBB34_1:
.Ltmp190:
	.loc	28 72 8 is_stmt 1               @ D:\Embed\MDK\MDK\ARM\ARMCompilerV621\Bin\..\include\libcxx\__bit_reference:72:8
	ldr	r0, [sp]                        @ 4-byte Reload
	ldr	r1, [r0]
	.loc	28 72 18 is_stmt 0              @ D:\Embed\MDK\MDK\ARM\ARMCompilerV621\Bin\..\include\libcxx\__bit_reference:72:18
	ldr	r2, [r0, #4]
	.loc	28 72 15                        @ D:\Embed\MDK\MDK\ARM\ARMCompilerV621\Bin\..\include\libcxx\__bit_reference:72:15
	ldr	r0, [r1]
	orrs	r0, r2
	str	r0, [r1]
	.loc	28 72 7                         @ D:\Embed\MDK\MDK\ARM\ARMCompilerV621\Bin\..\include\libcxx\__bit_reference:72:7
	b	.LBB34_3
.LBB34_2:
	.loc	28 74 8 is_stmt 1               @ D:\Embed\MDK\MDK\ARM\ARMCompilerV621\Bin\..\include\libcxx\__bit_reference:74:8
	ldr	r0, [sp]                        @ 4-byte Reload
	ldr	r1, [r0]
	.loc	28 74 19 is_stmt 0              @ D:\Embed\MDK\MDK\ARM\ARMCompilerV621\Bin\..\include\libcxx\__bit_reference:74:19
	ldr	r2, [r0, #4]
	.loc	28 74 15                        @ D:\Embed\MDK\MDK\ARM\ARMCompilerV621\Bin\..\include\libcxx\__bit_reference:74:15
	ldr	r0, [r1]
	bics	r0, r2
	str	r0, [r1]
	b	.LBB34_3
.Ltmp191:
.LBB34_3:
	.loc	28 75 5 is_stmt 1               @ D:\Embed\MDK\MDK\ARM\ARMCompilerV621\Bin\..\include\libcxx\__bit_reference:75:5
	ldr	r0, [sp]                        @ 4-byte Reload
	.loc	28 75 5 epilogue_begin is_stmt 0 @ D:\Embed\MDK\MDK\ARM\ARMCompilerV621\Bin\..\include\libcxx\__bit_reference:75:5
	add	sp, #12
	bx	lr
.Ltmp192:
.Lfunc_end34:
	.size	_ZNSt3__215__bit_referenceINS_8__bitsetILj1ELj8EEELb1EEaSB7v180000Eb, .Lfunc_end34-_ZNSt3__215__bit_referenceINS_8__bitsetILj1ELj8EEELb1EEaSB7v180000Eb
	.cfi_endproc
	.cantunwind
	.fnend
                                        @ -- End function
	.section	.text._ZNKSt3__26bitsetILj8EEeqB7v180000ERKS1_,"axG",%progbits,_ZNKSt3__26bitsetILj8EEeqB7v180000ERKS1_,comdat
	.hidden	_ZNKSt3__26bitsetILj8EEeqB7v180000ERKS1_ @ -- Begin function _ZNKSt3__26bitsetILj8EEeqB7v180000ERKS1_
	.weak	_ZNKSt3__26bitsetILj8EEeqB7v180000ERKS1_
	.p2align	2
	.type	_ZNKSt3__26bitsetILj8EEeqB7v180000ERKS1_,%function
	.code	16                              @ @_ZNKSt3__26bitsetILj8EEeqB7v180000ERKS1_
	.thumb_func
_ZNKSt3__26bitsetILj8EEeqB7v180000ERKS1_:
.Lfunc_begin35:
	.loc	27 1053 0 is_stmt 1             @ D:\Embed\MDK\MDK\ARM\ARMCompilerV621\Bin\..\include\libcxx\bitset:1053:0
	.fnstart
	.cfi_startproc
@ %bb.0:
	.save	{r4, lr}
	push	{r4, lr}
	.cfi_def_cfa_offset 8
	.cfi_offset lr, -4
	.cfi_offset r4, -8
	.pad	#48
	sub	sp, #48
	.cfi_def_cfa_offset 56
	str	r0, [sp, #44]
	str	r1, [sp, #40]
	ldr	r1, [sp, #44]
.Ltmp193:
	.loc	27 1054 31 prologue_end         @ D:\Embed\MDK\MDK\ARM\ARMCompilerV621\Bin\..\include\libcxx\bitset:1054:31
	str	r1, [sp, #8]                    @ 4-byte Spill
	add	r0, sp, #32
	movs	r2, #0
	str	r2, [sp, #12]                   @ 4-byte Spill
	bl	_ZNKSt3__28__bitsetILj1ELj8EE11__make_iterB7v180000Ej
	ldr	r1, [sp, #8]                    @ 4-byte Reload
	add	r0, sp, #24
	movs	r2, #8
	.loc	27 1054 53 is_stmt 0            @ D:\Embed\MDK\MDK\ARM\ARMCompilerV621\Bin\..\include\libcxx\bitset:1054:53
	bl	_ZNKSt3__28__bitsetILj1ELj8EE11__make_iterB7v180000Ej
	ldr	r2, [sp, #12]                   @ 4-byte Reload
	.loc	27 1054 73                      @ D:\Embed\MDK\MDK\ARM\ARMCompilerV621\Bin\..\include\libcxx\bitset:1054:73
	ldr	r1, [sp, #40]
	add	r0, sp, #16
	.loc	27 1054 79                      @ D:\Embed\MDK\MDK\ARM\ARMCompilerV621\Bin\..\include\libcxx\bitset:1054:79
	bl	_ZNKSt3__28__bitsetILj1ELj8EE11__make_iterB7v180000Ej
	.loc	27 1054 12                      @ D:\Embed\MDK\MDK\ARM\ARMCompilerV621\Bin\..\include\libcxx\bitset:1054:12
	ldr	r0, [sp, #32]
	ldr	r1, [sp, #36]
	ldr	r2, [sp, #24]
	ldr	r3, [sp, #28]
	ldr.w	r12, [sp, #16]
	ldr	r4, [sp, #20]
	mov	lr, sp
	str.w	r4, [lr, #4]
	str.w	r12, [lr]
	bl	_ZNSt3__25equalB7v180000INS_8__bitsetILj1ELj8EEELb1ELb1EEEbNS_14__bit_iteratorIT_XT0_ELi0EEES5_NS3_IS4_XT1_ELi0EEE
	.loc	27 1054 5 epilogue_begin        @ D:\Embed\MDK\MDK\ARM\ARMCompilerV621\Bin\..\include\libcxx\bitset:1054:5
	add	sp, #48
	pop	{r4, pc}
.Ltmp194:
.Lfunc_end35:
	.size	_ZNKSt3__26bitsetILj8EEeqB7v180000ERKS1_, .Lfunc_end35-_ZNKSt3__26bitsetILj8EEeqB7v180000ERKS1_
	.cfi_endproc
	.cantunwind
	.fnend
                                        @ -- End function
	.section	.text._ZNKSt3__26bitsetILj8EE8to_ulongB7v180000Ev,"axG",%progbits,_ZNKSt3__26bitsetILj8EE8to_ulongB7v180000Ev,comdat
	.hidden	_ZNKSt3__26bitsetILj8EE8to_ulongB7v180000Ev @ -- Begin function _ZNKSt3__26bitsetILj8EE8to_ulongB7v180000Ev
	.weak	_ZNKSt3__26bitsetILj8EE8to_ulongB7v180000Ev
	.p2align	2
	.type	_ZNKSt3__26bitsetILj8EE8to_ulongB7v180000Ev,%function
	.code	16                              @ @_ZNKSt3__26bitsetILj8EE8to_ulongB7v180000Ev
	.thumb_func
_ZNKSt3__26bitsetILj8EE8to_ulongB7v180000Ev:
.Lfunc_begin36:
	.loc	27 982 0 is_stmt 1              @ D:\Embed\MDK\MDK\ARM\ARMCompilerV621\Bin\..\include\libcxx\bitset:982:0
	.fnstart
	.cfi_startproc
@ %bb.0:
	.save	{r7, lr}
	push	{r7, lr}
	.cfi_def_cfa_offset 8
	.cfi_offset lr, -4
	.cfi_offset r7, -8
	.pad	#8
	sub	sp, #8
	.cfi_def_cfa_offset 16
	str	r0, [sp, #4]
	ldr	r0, [sp, #4]
.Ltmp195:
	.loc	27 983 18 prologue_end          @ D:\Embed\MDK\MDK\ARM\ARMCompilerV621\Bin\..\include\libcxx\bitset:983:18
	bl	_ZNKSt3__28__bitsetILj1ELj8EE8to_ulongEv
	.loc	27 983 5 epilogue_begin is_stmt 0 @ D:\Embed\MDK\MDK\ARM\ARMCompilerV621\Bin\..\include\libcxx\bitset:983:5
	add	sp, #8
	pop	{r7, pc}
.Ltmp196:
.Lfunc_end36:
	.size	_ZNKSt3__26bitsetILj8EE8to_ulongB7v180000Ev, .Lfunc_end36-_ZNKSt3__26bitsetILj8EE8to_ulongB7v180000Ev
	.cfi_endproc
	.cantunwind
	.fnend
                                        @ -- End function
	.section	".text._ZZN7Encoder29run_hall_polarity_calibrationEvENK3$_1clEhj","ax",%progbits
	.p2align	2                               @ -- Begin function _ZZN7Encoder29run_hall_polarity_calibrationEvENK3$_1clEhj
	.type	_ZZN7Encoder29run_hall_polarity_calibrationEvENK3$_1clEhj,%function
	.code	16                              @ @"_ZZN7Encoder29run_hall_polarity_calibrationEvENK3$_1clEhj"
	.thumb_func
_ZZN7Encoder29run_hall_polarity_calibrationEvENK3$_1clEhj:
.Lfunc_begin37:
	.loc	20 251 0 is_stmt 1              @ ../MotorControl/encoder.cpp:251:0
	.fnstart
	.cfi_startproc
@ %bb.0:
	.pad	#12
	sub	sp, #12
	.cfi_def_cfa_offset 12
                                        @ kill: def $r3 killed $r1
	str	r0, [sp, #8]
	strb.w	r1, [sp, #7]
	str	r2, [sp]
.Ltmp197:
	.loc	20 252 22 prologue_end          @ ../MotorControl/encoder.cpp:252:22
	ldrb.w	r0, [sp, #7]
	.loc	20 252 29 is_stmt 0             @ ../MotorControl/encoder.cpp:252:29
	eor	r0, r0, #255
	.loc	20 252 47                       @ ../MotorControl/encoder.cpp:252:47
	ldr	r3, [sp]
	movs	r2, #1
	.loc	20 252 42                       @ ../MotorControl/encoder.cpp:252:42
	lsl.w	r1, r2, r3
	.loc	20 252 59                       @ ../MotorControl/encoder.cpp:252:59
	rsb.w	r3, r3, #7
	.loc	20 252 55                       @ ../MotorControl/encoder.cpp:252:55
	lsls	r2, r3
	.loc	20 252 52                       @ ../MotorControl/encoder.cpp:252:52
	orrs	r1, r2
	.loc	20 252 37                       @ ../MotorControl/encoder.cpp:252:37
	subs	r0, r0, r1
	clz	r0, r0
	lsrs	r0, r0, #5
	.loc	20 252 13 epilogue_begin        @ ../MotorControl/encoder.cpp:252:13
	add	sp, #12
	bx	lr
.Ltmp198:
.Lfunc_end37:
	.size	_ZZN7Encoder29run_hall_polarity_calibrationEvENK3$_1clEhj, .Lfunc_end37-_ZZN7Encoder29run_hall_polarity_calibrationEvENK3$_1clEhj
	.cfi_endproc
	.cantunwind
	.fnend
                                        @ -- End function
	.section	.text._ZN7Encoder26run_hall_phase_calibrationEv,"ax",%progbits
	.hidden	_ZN7Encoder26run_hall_phase_calibrationEv @ -- Begin function _ZN7Encoder26run_hall_phase_calibrationEv
	.globl	_ZN7Encoder26run_hall_phase_calibrationEv
	.p2align	2
	.type	_ZN7Encoder26run_hall_phase_calibrationEv,%function
	.code	16                              @ @_ZN7Encoder26run_hall_phase_calibrationEv
	.thumb_func
_ZN7Encoder26run_hall_phase_calibrationEv:
.Lfunc_begin38:
	.loc	20 273 0 is_stmt 1              @ ../MotorControl/encoder.cpp:273:0
	.fnstart
	.cfi_startproc
@ %bb.0:
	.save	{r4, r5, r7, lr}
	push	{r4, r5, r7, lr}
	.cfi_def_cfa_offset 16
	.cfi_offset lr, -4
	.cfi_offset r7, -8
	.cfi_offset r5, -12
	.cfi_offset r4, -16
	.pad	#144
	sub	sp, #144
	.cfi_def_cfa_offset 160
	str	r0, [sp, #140]
	ldr	r0, [sp, #140]
.Ltmp199:
	.loc	20 274 42 prologue_end          @ ../MotorControl/encoder.cpp:274:42
	str	r0, [sp, #40]                   @ 4-byte Spill
	ldr	r1, [r0, #48]
	ldr	r2, [r1, #36]
	ldr	r3, [r1, #40]
	ldr.w	r12, [r1, #44]
	ldr.w	lr, [r1, #48]
	ldr	r4, [r1, #52]
	ldr	r5, [r1, #56]
	str	r5, [sp, #132]
	str	r4, [sp, #128]
	str.w	lr, [sp, #124]
	str.w	r12, [sp, #120]
	str	r3, [sp, #116]
	str	r2, [sp, #112]
	ldr	r1, [r1, #60]
	str	r1, [sp, #136]
	.loc	20 275 51                       @ ../MotorControl/encoder.cpp:275:51
	vldr	s0, [sp, #128]
	vmov.f32	s2, #3.000000e+01
	.loc	20 275 55 is_stmt 0             @ ../MotorControl/encoder.cpp:275:55
	vmul.f32	s0, s0, s2
	.loc	20 275 35                       @ ../MotorControl/encoder.cpp:275:35
	vstr	s0, [sp, #132]
	movs	r2, #1
	.loc	20 276 38 is_stmt 1             @ ../MotorControl/encoder.cpp:276:38
	strb.w	r2, [sp, #137]
	movs	r1, #0
	.loc	20 277 37                       @ ../MotorControl/encoder.cpp:277:37
	str	r1, [sp, #32]                   @ 4-byte Spill
	strb.w	r1, [sp, #138]
	.loc	20 278 33                       @ ../MotorControl/encoder.cpp:278:33
	strb.w	r1, [sp, #136]
	.loc	20 280 20                       @ ../MotorControl/encoder.cpp:280:20
	str	r0, [sp, #108]
	.loc	20 291 27                       @ ../MotorControl/encoder.cpp:291:27
	strb.w	r2, [r0, #245]
	.loc	20 292 13                       @ ../MotorControl/encoder.cpp:292:13
	adds	r0, #104
	.loc	20 292 34 is_stmt 0             @ ../MotorControl/encoder.cpp:292:34
	str	r1, [sp, #104]
	add	r1, sp, #104
	.loc	20 292 29                       @ ../MotorControl/encoder.cpp:292:29
	bl	_ZNSt3__25arrayIfLj6EE4fillB7v180000ERKf
	ldr	r1, [sp, #32]                   @ 4-byte Reload
	ldr	r0, [sp, #40]                   @ 4-byte Reload
	.loc	20 293 5 is_stmt 1              @ ../MotorControl/encoder.cpp:293:5
	add.w	r0, r0, #280
	.loc	20 293 39 is_stmt 0             @ ../MotorControl/encoder.cpp:293:39
	str	r1, [sp, #100]
	add	r1, sp, #100
	.loc	20 293 34                       @ ../MotorControl/encoder.cpp:293:34
	bl	_ZNSt3__25arrayIiLj6EE4fillB7v180000ERKi
	ldr	r0, [sp, #40]                   @ 4-byte Reload
	.loc	20 294 20 is_stmt 1             @ ../MotorControl/encoder.cpp:294:20
	ldr	r0, [r0, #48]
	.loc	20 294 65 is_stmt 0             @ ../MotorControl/encoder.cpp:294:65
	str	r0, [sp, #28]                   @ 4-byte Spill
	ldr	r0, [sp, #108]
	str	r0, [sp, #76]
	ldr	r1, [sp, #76]
	add	r0, sp, #80
	str	r0, [sp, #36]                   @ 4-byte Spill
	bl	_ZNSt3__28functionIFbbEEC2IZN7Encoder26run_hall_phase_calibrationEvE3$_0vEET_
	ldr	r0, [sp, #28]                   @ 4-byte Reload
	ldr	r2, [sp, #32]                   @ 4-byte Reload
	ldr	r3, [sp, #36]                   @ 4-byte Reload
	add	r1, sp, #112
	.loc	20 294 27                       @ ../MotorControl/encoder.cpp:294:27
	bl	_ZN4Axis15run_lockin_spinERKNS_14LockinConfig_tEbNSt3__28functionIFbbEEE
	mov	r1, r0
	.loc	20 294 20                       @ ../MotorControl/encoder.cpp:294:20
	ldr	r0, [sp, #36]                   @ 4-byte Reload
	str	r1, [sp, #44]                   @ 4-byte Spill
	bl	_ZNSt3__28functionIFbbEED2Ev
	ldr	r0, [sp, #40]                   @ 4-byte Reload
	ldr	r1, [sp, #44]                   @ 4-byte Reload
	.loc	20 294 10                       @ ../MotorControl/encoder.cpp:294:10
	strb.w	r1, [sp, #99]
.Ltmp200:
	.loc	20 295 9 is_stmt 1              @ ../MotorControl/encoder.cpp:295:9
	ldrh.w	r0, [r0, #140]
	movs	r1, #16
	.loc	20 295 16 is_stmt 0             @ ../MotorControl/encoder.cpp:295:16
	bl	_ZanN10ODriveIntf11EncoderIntf5ErrorES1_
.Ltmp201:
	.loc	20 295 9                        @ ../MotorControl/encoder.cpp:295:9
	cbz	r0, .LBB38_2
	b	.LBB38_1
.LBB38_1:
	.loc	20 0 9                          @ ../MotorControl/encoder.cpp:0:9
	movs	r0, #0
.Ltmp202:
	.loc	20 296 17 is_stmt 1             @ ../MotorControl/encoder.cpp:296:17
	strb.w	r0, [sp, #99]
	.loc	20 296 9 is_stmt 0              @ ../MotorControl/encoder.cpp:296:9
	b	.LBB38_2
.Ltmp203:
.LBB38_2:
	.loc	20 298 9 is_stmt 1              @ ../MotorControl/encoder.cpp:298:9
	ldrb.w	r0, [sp, #99]
.Ltmp204:
	.loc	20 298 9 is_stmt 0              @ ../MotorControl/encoder.cpp:298:9
	lsls	r0, r0, #31
	cmp	r0, #0
	beq.w	.LBB38_22
	b	.LBB38_3
.LBB38_3:
	.loc	20 0 9                          @ ../MotorControl/encoder.cpp:0:9
	movs	r0, #0
.Ltmp205:
	.loc	20 300 15 is_stmt 1             @ ../MotorControl/encoder.cpp:300:15
	str	r0, [sp, #72]
.Ltmp206:
	.loc	20 301 18                       @ ../MotorControl/encoder.cpp:301:18
	str	r0, [sp, #68]
	.loc	20 301 14 is_stmt 0             @ ../MotorControl/encoder.cpp:301:14
	b	.LBB38_4
.LBB38_4:                               @ =>This Inner Loop Header: Depth=1
.Ltmp207:
	.loc	20 301 25                       @ ../MotorControl/encoder.cpp:301:25
	ldr	r0, [sp, #68]
.Ltmp208:
	.loc	20 301 9                        @ ../MotorControl/encoder.cpp:301:9
	cmp	r0, #5
	bgt	.LBB38_10
	b	.LBB38_5
.LBB38_5:                               @   in Loop: Header=BB38_4 Depth=1
.Ltmp209:
	.loc	20 302 27 is_stmt 1             @ ../MotorControl/encoder.cpp:302:27
	ldr	r0, [sp, #68]
	.loc	20 302 26 is_stmt 0             @ ../MotorControl/encoder.cpp:302:26
	cmp	r0, #5
	bne	.LBB38_7
	b	.LBB38_6
.LBB38_6:                               @   in Loop: Header=BB38_4 Depth=1
	.loc	20 0 26                         @ ../MotorControl/encoder.cpp:0:26
	movs	r0, #0
	.loc	20 302 26                       @ ../MotorControl/encoder.cpp:302:26
	str	r0, [sp, #24]                   @ 4-byte Spill
	b	.LBB38_8
.LBB38_7:                               @   in Loop: Header=BB38_4 Depth=1
	.loc	20 302 41                       @ ../MotorControl/encoder.cpp:302:41
	ldr	r0, [sp, #68]
	.loc	20 302 42                       @ ../MotorControl/encoder.cpp:302:42
	adds	r0, #1
	.loc	20 302 26                       @ ../MotorControl/encoder.cpp:302:26
	str	r0, [sp, #24]                   @ 4-byte Spill
	b	.LBB38_8
.LBB38_8:                               @   in Loop: Header=BB38_4 Depth=1
	ldr	r0, [sp, #40]                   @ 4-byte Reload
	ldr	r1, [sp, #24]                   @ 4-byte Reload
	.loc	20 302 17                       @ ../MotorControl/encoder.cpp:302:17
	str	r1, [sp, #64]
	.loc	20 303 47 is_stmt 1             @ ../MotorControl/encoder.cpp:303:47
	adds	r0, #104
	.loc	20 303 63 is_stmt 0             @ ../MotorControl/encoder.cpp:303:63
	str	r0, [sp, #16]                   @ 4-byte Spill
	ldr	r1, [sp, #64]
	.loc	20 303 39                       @ ../MotorControl/encoder.cpp:303:39
	bl	_ZNSt3__25arrayIfLj6EEixB7v180000Ej
	mov	r1, r0
	ldr	r0, [sp, #16]                   @ 4-byte Reload
	vldr	s0, [r1]
	vstr	s0, [sp, #20]                   @ 4-byte Spill
	.loc	20 303 97                       @ ../MotorControl/encoder.cpp:303:97
	ldr	r1, [sp, #68]
	.loc	20 303 73                       @ ../MotorControl/encoder.cpp:303:73
	bl	_ZNSt3__25arrayIfLj6EEixB7v180000Ej
	vldr	s0, [sp, #20]                   @ 4-byte Reload
	vldr	s2, [r0]
	.loc	20 303 71                       @ ../MotorControl/encoder.cpp:303:71
	vsub.f32	s0, s0, s2
	.loc	20 303 28                       @ ../MotorControl/encoder.cpp:303:28
	bl	_Z10wrap_pm_pif
	vmov.f32	s2, s0
	.loc	20 303 25                       @ ../MotorControl/encoder.cpp:303:25
	vldr	s0, [sp, #72]
	vadd.f32	s0, s0, s2
	vstr	s0, [sp, #72]
	.loc	20 304 9 is_stmt 1              @ ../MotorControl/encoder.cpp:304:9
	b	.LBB38_9
.Ltmp210:
.LBB38_9:                               @   in Loop: Header=BB38_4 Depth=1
	.loc	20 301 33                       @ ../MotorControl/encoder.cpp:301:33
	ldr	r0, [sp, #68]
	adds	r0, #1
	str	r0, [sp, #68]
	.loc	20 301 9 is_stmt 0              @ ../MotorControl/encoder.cpp:301:9
	b	.LBB38_4
.Ltmp211:
.LBB38_10:
	.loc	20 306 13 is_stmt 1             @ ../MotorControl/encoder.cpp:306:13
	vldr	s0, [sp, #72]
.Ltmp212:
	.loc	20 306 13 is_stmt 0             @ ../MotorControl/encoder.cpp:306:13
	vcmp.f32	s0, #0
	vmrs	APSR_nzcv, fpscr
	bge	.LBB38_16
	b	.LBB38_11
.LBB38_11:
	.loc	20 0 13                         @ ../MotorControl/encoder.cpp:0:13
	ldr	r1, [sp, #40]                   @ 4-byte Reload
	mov.w	r0, #-1
.Ltmp213:
	.loc	20 307 31 is_stmt 1             @ ../MotorControl/encoder.cpp:307:31
	str	r0, [r1, #92]
	movs	r0, #0
.Ltmp214:
	.loc	20 308 22                       @ ../MotorControl/encoder.cpp:308:22
	str	r0, [sp, #60]
	.loc	20 308 18 is_stmt 0             @ ../MotorControl/encoder.cpp:308:18
	b	.LBB38_12
.LBB38_12:                              @ =>This Inner Loop Header: Depth=1
.Ltmp215:
	.loc	20 308 29                       @ ../MotorControl/encoder.cpp:308:29
	ldr	r0, [sp, #60]
.Ltmp216:
	.loc	20 308 13                       @ ../MotorControl/encoder.cpp:308:13
	cmp	r0, #5
	bgt	.LBB38_15
	b	.LBB38_13
.LBB38_13:                              @   in Loop: Header=BB38_12 Depth=1
.Ltmp217:
	.loc	20 309 66 is_stmt 1             @ ../MotorControl/encoder.cpp:309:66
	ldr	r0, [sp, #40]                   @ 4-byte Reload
	adds	r0, #104
	.loc	20 309 82 is_stmt 0             @ ../MotorControl/encoder.cpp:309:82
	str	r0, [sp, #8]                    @ 4-byte Spill
	ldr	r1, [sp, #60]
	.loc	20 309 58                       @ ../MotorControl/encoder.cpp:309:58
	bl	_ZNSt3__25arrayIfLj6EEixB7v180000Ej
	vldr	s0, [r0]
	.loc	20 309 57                       @ ../MotorControl/encoder.cpp:309:57
	vneg.f32	s0, s0
	.loc	20 309 46                       @ ../MotorControl/encoder.cpp:309:46
	bl	_Z10wrap_pm_pif
	ldr	r0, [sp, #8]                    @ 4-byte Reload
	vstr	s0, [sp, #12]                   @ 4-byte Spill
	.loc	20 309 41                       @ ../MotorControl/encoder.cpp:309:41
	ldr	r1, [sp, #60]
	.loc	20 309 17                       @ ../MotorControl/encoder.cpp:309:17
	bl	_ZNSt3__25arrayIfLj6EEixB7v180000Ej
	vldr	s0, [sp, #12]                   @ 4-byte Reload
	.loc	20 309 44                       @ ../MotorControl/encoder.cpp:309:44
	vstr	s0, [r0]
	.loc	20 309 17                       @ ../MotorControl/encoder.cpp:309:17
	b	.LBB38_14
.LBB38_14:                              @   in Loop: Header=BB38_12 Depth=1
	.loc	20 308 37 is_stmt 1             @ ../MotorControl/encoder.cpp:308:37
	ldr	r0, [sp, #60]
	adds	r0, #1
	str	r0, [sp, #60]
	.loc	20 308 13 is_stmt 0             @ ../MotorControl/encoder.cpp:308:13
	b	.LBB38_12
.Ltmp218:
.LBB38_15:
	.loc	20 310 9 is_stmt 1              @ ../MotorControl/encoder.cpp:310:9
	b	.LBB38_17
.Ltmp219:
.LBB38_16:
	.loc	20 0 9 is_stmt 0                @ ../MotorControl/encoder.cpp:0:9
	ldr	r1, [sp, #40]                   @ 4-byte Reload
	movs	r0, #1
.Ltmp220:
	.loc	20 311 31 is_stmt 1             @ ../MotorControl/encoder.cpp:311:31
	str	r0, [r1, #92]
	b	.LBB38_17
.Ltmp221:
.LBB38_17:
	.loc	20 314 32                       @ ../MotorControl/encoder.cpp:314:32
	ldr	r0, [sp, #40]                   @ 4-byte Reload
	adds	r0, #104
	movs	r1, #0
	.loc	20 314 24 is_stmt 0             @ ../MotorControl/encoder.cpp:314:24
	str	r1, [sp, #4]                    @ 4-byte Spill
	bl	_ZNSt3__25arrayIfLj6EEixB7v180000Ej
	mov	r1, r0
	ldr	r0, [sp, #4]                    @ 4-byte Reload
	ldr	r1, [r1]
	.loc	20 314 15                       @ ../MotorControl/encoder.cpp:314:15
	str	r1, [sp, #56]
.Ltmp222:
	.loc	20 315 18 is_stmt 1             @ ../MotorControl/encoder.cpp:315:18
	str	r0, [sp, #52]
	.loc	20 315 14 is_stmt 0             @ ../MotorControl/encoder.cpp:315:14
	b	.LBB38_18
.LBB38_18:                              @ =>This Inner Loop Header: Depth=1
.Ltmp223:
	.loc	20 315 25                       @ ../MotorControl/encoder.cpp:315:25
	ldr	r0, [sp, #52]
.Ltmp224:
	.loc	20 315 9                        @ ../MotorControl/encoder.cpp:315:9
	cmp	r0, #5
	bgt	.LBB38_21
	b	.LBB38_19
.LBB38_19:                              @   in Loop: Header=BB38_18 Depth=1
.Ltmp225:
	.loc	20 316 36 is_stmt 1             @ ../MotorControl/encoder.cpp:316:36
	ldr	r0, [sp, #40]                   @ 4-byte Reload
	adds	r0, #104
	.loc	20 316 52 is_stmt 0             @ ../MotorControl/encoder.cpp:316:52
	ldr	r1, [sp, #52]
	.loc	20 316 28                       @ ../MotorControl/encoder.cpp:316:28
	bl	_ZNSt3__25arrayIfLj6EEixB7v180000Ej
	.loc	20 316 20                       @ ../MotorControl/encoder.cpp:316:20
	str	r0, [sp, #48]
	.loc	20 317 57 is_stmt 1             @ ../MotorControl/encoder.cpp:317:57
	ldr	r0, [sp, #48]
	vldr	s0, [r0]
	.loc	20 317 65 is_stmt 0             @ ../MotorControl/encoder.cpp:317:65
	vldr	s2, [sp, #56]
	.loc	20 317 63                       @ ../MotorControl/encoder.cpp:317:63
	vsub.f32	s0, s0, s2
	vldr	s2, .LCPI38_0
	.loc	20 317 54                       @ ../MotorControl/encoder.cpp:317:54
	vmul.f32	s0, s0, s2
	vmov.f32	s1, #6.000000e+00
	.loc	20 317 21                       @ ../MotorControl/encoder.cpp:317:21
	bl	_Z9fmodf_posff
	.loc	20 317 13                       @ ../MotorControl/encoder.cpp:317:13
	ldr	r0, [sp, #48]
	.loc	20 317 19                       @ ../MotorControl/encoder.cpp:317:19
	vstr	s0, [r0]
	.loc	20 318 9 is_stmt 1              @ ../MotorControl/encoder.cpp:318:9
	b	.LBB38_20
.Ltmp226:
.LBB38_20:                              @   in Loop: Header=BB38_18 Depth=1
	.loc	20 315 33                       @ ../MotorControl/encoder.cpp:315:33
	ldr	r0, [sp, #52]
	adds	r0, #1
	str	r0, [sp, #52]
	.loc	20 315 9 is_stmt 0              @ ../MotorControl/encoder.cpp:315:9
	b	.LBB38_18
.Ltmp227:
.LBB38_21:
	.loc	20 319 5 is_stmt 1              @ ../MotorControl/encoder.cpp:319:5
	b	.LBB38_23
.Ltmp228:
.LBB38_22:
	.loc	20 320 33                       @ ../MotorControl/encoder.cpp:320:33
	ldr	r1, [sp, #40]                   @ 4-byte Reload
	movw	r4, :lower16:_ZN7Encoder18hall_edge_defaultsE
	movt	r4, :upper16:_ZN7Encoder18hall_edge_defaultsE
	ldr	r0, [r4]
	ldr	r2, [r4, #4]
	ldr	r3, [r4, #8]
	ldr.w	r12, [r4, #12]
	ldr.w	lr, [r4, #16]
	ldr	r4, [r4, #20]
	str	r4, [r1, #124]
	str.w	lr, [r1, #120]
	str.w	r12, [r1, #116]
	str	r3, [r1, #112]
	str	r2, [r1, #108]
	str	r0, [r1, #104]
	b	.LBB38_23
.Ltmp229:
.LBB38_23:
	.loc	20 0 33 is_stmt 0               @ ../MotorControl/encoder.cpp:0:33
	ldr	r1, [sp, #40]                   @ 4-byte Reload
	movs	r0, #0
	.loc	20 323 27 is_stmt 1             @ ../MotorControl/encoder.cpp:323:27
	strb.w	r0, [r1, #245]
	.loc	20 324 5                        @ ../MotorControl/encoder.cpp:324:5
	ldrb.w	r0, [sp, #99]
	and	r0, r0, #1
	.loc	20 324 5 epilogue_begin is_stmt 0 @ ../MotorControl/encoder.cpp:324:5
	add	sp, #144
	pop	{r4, r5, r7, pc}
.Ltmp230:
	.p2align	2
@ %bb.24:
	.loc	20 0 5                          @ ../MotorControl/encoder.cpp:0:5
.LCPI38_0:
	.long	0x3f747645                      @ float 0.954929649
.Lfunc_end38:
	.size	_ZN7Encoder26run_hall_phase_calibrationEv, .Lfunc_end38-_ZN7Encoder26run_hall_phase_calibrationEv
	.cfi_endproc
	.cantunwind
	.fnend
                                        @ -- End function
	.section	.text._ZNSt3__25arrayIfLj6EE4fillB7v180000ERKf,"axG",%progbits,_ZNSt3__25arrayIfLj6EE4fillB7v180000ERKf,comdat
	.hidden	_ZNSt3__25arrayIfLj6EE4fillB7v180000ERKf @ -- Begin function _ZNSt3__25arrayIfLj6EE4fillB7v180000ERKf
	.weak	_ZNSt3__25arrayIfLj6EE4fillB7v180000ERKf
	.p2align	2
	.type	_ZNSt3__25arrayIfLj6EE4fillB7v180000ERKf,%function
	.code	16                              @ @_ZNSt3__25arrayIfLj6EE4fillB7v180000ERKf
	.thumb_func
_ZNSt3__25arrayIfLj6EE4fillB7v180000ERKf:
.Lfunc_begin39:
	.loc	4 184 0 is_stmt 1               @ D:\Embed\MDK\MDK\ARM\ARMCompilerV621\Bin\..\include\libcxx\array:184:0
	.fnstart
	.cfi_startproc
@ %bb.0:
	.save	{r7, lr}
	push	{r7, lr}
	.cfi_def_cfa_offset 8
	.cfi_offset lr, -4
	.cfi_offset r7, -8
	.pad	#8
	sub	sp, #8
	.cfi_def_cfa_offset 16
	str	r0, [sp, #4]
	str	r1, [sp]
	ldr	r0, [sp, #4]
.Ltmp231:
	.loc	4 185 23 prologue_end           @ D:\Embed\MDK\MDK\ARM\ARMCompilerV621\Bin\..\include\libcxx\array:185:23
	bl	_ZNSt3__25arrayIfLj6EE4dataB7v180000Ev
	.loc	4 185 38 is_stmt 0              @ D:\Embed\MDK\MDK\ARM\ARMCompilerV621\Bin\..\include\libcxx\array:185:38
	ldr	r2, [sp]
	movs	r1, #6
	.loc	4 185 9                         @ D:\Embed\MDK\MDK\ARM\ARMCompilerV621\Bin\..\include\libcxx\array:185:9
	bl	_ZNSt3__26fill_nB7v180000IPfjfEET_S2_T0_RKT1_
	.loc	4 186 5 epilogue_begin is_stmt 1 @ D:\Embed\MDK\MDK\ARM\ARMCompilerV621\Bin\..\include\libcxx\array:186:5
	add	sp, #8
	pop	{r7, pc}
.Ltmp232:
.Lfunc_end39:
	.size	_ZNSt3__25arrayIfLj6EE4fillB7v180000ERKf, .Lfunc_end39-_ZNSt3__25arrayIfLj6EE4fillB7v180000ERKf
	.cfi_endproc
	.cantunwind
	.fnend
                                        @ -- End function
	.section	.text._ZNSt3__25arrayIiLj6EE4fillB7v180000ERKi,"axG",%progbits,_ZNSt3__25arrayIiLj6EE4fillB7v180000ERKi,comdat
	.hidden	_ZNSt3__25arrayIiLj6EE4fillB7v180000ERKi @ -- Begin function _ZNSt3__25arrayIiLj6EE4fillB7v180000ERKi
	.weak	_ZNSt3__25arrayIiLj6EE4fillB7v180000ERKi
	.p2align	2
	.type	_ZNSt3__25arrayIiLj6EE4fillB7v180000ERKi,%function
	.code	16                              @ @_ZNSt3__25arrayIiLj6EE4fillB7v180000ERKi
	.thumb_func
_ZNSt3__25arrayIiLj6EE4fillB7v180000ERKi:
.Lfunc_begin40:
	.loc	4 184 0                         @ D:\Embed\MDK\MDK\ARM\ARMCompilerV621\Bin\..\include\libcxx\array:184:0
	.fnstart
	.cfi_startproc
@ %bb.0:
	.save	{r7, lr}
	push	{r7, lr}
	.cfi_def_cfa_offset 8
	.cfi_offset lr, -4
	.cfi_offset r7, -8
	.pad	#8
	sub	sp, #8
	.cfi_def_cfa_offset 16
	str	r0, [sp, #4]
	str	r1, [sp]
	ldr	r0, [sp, #4]
.Ltmp233:
	.loc	4 185 23 prologue_end           @ D:\Embed\MDK\MDK\ARM\ARMCompilerV621\Bin\..\include\libcxx\array:185:23
	bl	_ZNSt3__25arrayIiLj6EE4dataB7v180000Ev
	.loc	4 185 38 is_stmt 0              @ D:\Embed\MDK\MDK\ARM\ARMCompilerV621\Bin\..\include\libcxx\array:185:38
	ldr	r2, [sp]
	movs	r1, #6
	.loc	4 185 9                         @ D:\Embed\MDK\MDK\ARM\ARMCompilerV621\Bin\..\include\libcxx\array:185:9
	bl	_ZNSt3__26fill_nB7v180000IPijiEET_S2_T0_RKT1_
	.loc	4 186 5 epilogue_begin is_stmt 1 @ D:\Embed\MDK\MDK\ARM\ARMCompilerV621\Bin\..\include\libcxx\array:186:5
	add	sp, #8
	pop	{r7, pc}
.Ltmp234:
.Lfunc_end40:
	.size	_ZNSt3__25arrayIiLj6EE4fillB7v180000ERKi, .Lfunc_end40-_ZNSt3__25arrayIiLj6EE4fillB7v180000ERKi
	.cfi_endproc
	.cantunwind
	.fnend
                                        @ -- End function
	.section	".text._ZNSt3__28functionIFbbEEC2IZN7Encoder26run_hall_phase_calibrationEvE3$_0vEET_","ax",%progbits
	.p2align	2                               @ -- Begin function _ZNSt3__28functionIFbbEEC2IZN7Encoder26run_hall_phase_calibrationEvE3$_0vEET_
	.type	_ZNSt3__28functionIFbbEEC2IZN7Encoder26run_hall_phase_calibrationEvE3$_0vEET_,%function
	.code	16                              @ @"_ZNSt3__28functionIFbbEEC2IZN7Encoder26run_hall_phase_calibrationEvE3$_0vEET_"
	.thumb_func
_ZNSt3__28functionIFbbEEC2IZN7Encoder26run_hall_phase_calibrationEvE3$_0vEET_:
.Lfunc_begin41:
	.loc	19 1110 0                       @ D:\Embed\MDK\MDK\ARM\ARMCompilerV621\Bin\..\include\libcxx\__functional/function.h:1110:0
	.fnstart
	.cfi_startproc
@ %bb.0:
	.save	{r7, lr}
	push	{r7, lr}
	.cfi_def_cfa_offset 8
	.cfi_offset lr, -4
	.cfi_offset r7, -8
	.pad	#16
	sub	sp, #16
	.cfi_def_cfa_offset 24
	str	r1, [sp, #12]
	str	r0, [sp, #8]
	ldr	r0, [sp, #8]
.Ltmp235:
	.loc	19 1110 50 prologue_end         @ D:\Embed\MDK\MDK\ARM\ARMCompilerV621\Bin\..\include\libcxx\__functional/function.h:1110:50
	str	r0, [sp, #4]                    @ 4-byte Spill
	add	r1, sp, #12
	bl	_ZNSt3__210__function13__policy_funcIFbbEEC2B7v180000IZN7Encoder26run_hall_phase_calibrationEvE3$_0Li0EEEOT_
	ldr	r0, [sp, #4]                    @ 4-byte Reload
	.loc	19 1110 74 epilogue_begin is_stmt 0 @ D:\Embed\MDK\MDK\ARM\ARMCompilerV621\Bin\..\include\libcxx\__functional/function.h:1110:74
	add	sp, #16
	pop	{r7, pc}
.Ltmp236:
.Lfunc_end41:
	.size	_ZNSt3__28functionIFbbEEC2IZN7Encoder26run_hall_phase_calibrationEvE3$_0vEET_, .Lfunc_end41-_ZNSt3__28functionIFbbEEC2IZN7Encoder26run_hall_phase_calibrationEvE3$_0vEET_
	.cfi_endproc
	.cantunwind
	.fnend
                                        @ -- End function
	.section	.text._ZanN10ODriveIntf11EncoderIntf5ErrorES1_,"axG",%progbits,_ZanN10ODriveIntf11EncoderIntf5ErrorES1_,comdat
	.hidden	_ZanN10ODriveIntf11EncoderIntf5ErrorES1_ @ -- Begin function _ZanN10ODriveIntf11EncoderIntf5ErrorES1_
	.weak	_ZanN10ODriveIntf11EncoderIntf5ErrorES1_
	.p2align	2
	.type	_ZanN10ODriveIntf11EncoderIntf5ErrorES1_,%function
	.code	16                              @ @_ZanN10ODriveIntf11EncoderIntf5ErrorES1_
	.thumb_func
_ZanN10ODriveIntf11EncoderIntf5ErrorES1_:
.Lfunc_begin42:
	.loc	2 1205 0 is_stmt 1              @ ../../Firmware\autogen/interfaces.hpp:1205:0
	.fnstart
	.cfi_startproc
@ %bb.0:
	.pad	#4
	sub	sp, #4
	.cfi_def_cfa_offset 4
                                        @ kill: def $r2 killed $r1
                                        @ kill: def $r2 killed $r0
	strh.w	r0, [sp, #2]
	strh.w	r1, [sp]
.Ltmp237:
	.loc	2 1205 240 prologue_end         @ ../../Firmware\autogen/interfaces.hpp:1205:240
	ldrh.w	r0, [sp, #2]
	.loc	2 1205 313 is_stmt 0            @ ../../Firmware\autogen/interfaces.hpp:1205:313
	ldrh.w	r1, [sp]
	.loc	2 1205 243                      @ ../../Firmware\autogen/interfaces.hpp:1205:243
	ands	r0, r1
	.loc	2 1205 121 epilogue_begin       @ ../../Firmware\autogen/interfaces.hpp:1205:121
	add	sp, #4
	bx	lr
.Ltmp238:
.Lfunc_end42:
	.size	_ZanN10ODriveIntf11EncoderIntf5ErrorES1_, .Lfunc_end42-_ZanN10ODriveIntf11EncoderIntf5ErrorES1_
	.cfi_endproc
	.cantunwind
	.fnend
                                        @ -- End function
	.section	.text._Z10wrap_pm_pif,"axG",%progbits,_Z10wrap_pm_pif,comdat
	.hidden	_Z10wrap_pm_pif                 @ -- Begin function _Z10wrap_pm_pif
	.weak	_Z10wrap_pm_pif
	.p2align	2
	.type	_Z10wrap_pm_pif,%function
	.code	16                              @ @_Z10wrap_pm_pif
	.thumb_func
_Z10wrap_pm_pif:
.Lfunc_begin43:
	.loc	18 139 0 is_stmt 1              @ ../../Firmware\MotorControl/utils.hpp:139:0
	.fnstart
	.cfi_startproc
@ %bb.0:
	.save	{r7, lr}
	push	{r7, lr}
	.cfi_def_cfa_offset 8
	.cfi_offset lr, -4
	.cfi_offset r7, -8
	.pad	#8
	sub	sp, #8
	.cfi_def_cfa_offset 16
	vstr	s0, [sp, #4]
.Ltmp239:
	.loc	18 140 20 prologue_end          @ ../../Firmware\MotorControl/utils.hpp:140:20
	vldr	s0, [sp, #4]
	vldr	s1, .LCPI43_0
	.loc	18 140 12 is_stmt 0             @ ../../Firmware\MotorControl/utils.hpp:140:12
	bl	_Z7wrap_pmff
	.loc	18 140 5 epilogue_begin         @ ../../Firmware\MotorControl/utils.hpp:140:5
	add	sp, #8
	pop	{r7, pc}
.Ltmp240:
	.p2align	2
@ %bb.1:
	.loc	18 0 5                          @ ../../Firmware\MotorControl/utils.hpp:0:5
.LCPI43_0:
	.long	0x40c90fdb                      @ float 6.28318548
.Lfunc_end43:
	.size	_Z10wrap_pm_pif, .Lfunc_end43-_Z10wrap_pm_pif
	.cfi_endproc
	.cantunwind
	.fnend
                                        @ -- End function
	.section	.text._ZNSt3__25arrayIfLj6EEixB7v180000Ej,"axG",%progbits,_ZNSt3__25arrayIfLj6EEixB7v180000Ej,comdat
	.hidden	_ZNSt3__25arrayIfLj6EEixB7v180000Ej @ -- Begin function _ZNSt3__25arrayIfLj6EEixB7v180000Ej
	.weak	_ZNSt3__25arrayIfLj6EEixB7v180000Ej
	.p2align	2
	.type	_ZNSt3__25arrayIfLj6EEixB7v180000Ej,%function
	.code	16                              @ @_ZNSt3__25arrayIfLj6EEixB7v180000Ej
	.thumb_func
_ZNSt3__25arrayIfLj6EEixB7v180000Ej:
.Lfunc_begin44:
	.loc	4 231 0 is_stmt 1               @ D:\Embed\MDK\MDK\ARM\ARMCompilerV621\Bin\..\include\libcxx\array:231:0
	.fnstart
	.cfi_startproc
@ %bb.0:
	.pad	#8
	sub	sp, #8
	.cfi_def_cfa_offset 8
	str	r0, [sp, #4]
	str	r1, [sp]
	ldr	r0, [sp, #4]
.Ltmp241:
	.loc	4 233 25 prologue_end           @ D:\Embed\MDK\MDK\ARM\ARMCompilerV621\Bin\..\include\libcxx\array:233:25
	ldr	r1, [sp]
	.loc	4 233 16 is_stmt 0              @ D:\Embed\MDK\MDK\ARM\ARMCompilerV621\Bin\..\include\libcxx\array:233:16
	add.w	r0, r0, r1, lsl #2
	.loc	4 233 9 epilogue_begin          @ D:\Embed\MDK\MDK\ARM\ARMCompilerV621\Bin\..\include\libcxx\array:233:9
	add	sp, #8
	bx	lr
.Ltmp242:
.Lfunc_end44:
	.size	_ZNSt3__25arrayIfLj6EEixB7v180000Ej, .Lfunc_end44-_ZNSt3__25arrayIfLj6EEixB7v180000Ej
	.cfi_endproc
	.cantunwind
	.fnend
                                        @ -- End function
	.section	.text._Z9fmodf_posff,"axG",%progbits,_Z9fmodf_posff,comdat
	.hidden	_Z9fmodf_posff                  @ -- Begin function _Z9fmodf_posff
	.weak	_Z9fmodf_posff
	.p2align	2
	.type	_Z9fmodf_posff,%function
	.code	16                              @ @_Z9fmodf_posff
	.thumb_func
_Z9fmodf_posff:
.Lfunc_begin45:
	.loc	18 133 0 is_stmt 1              @ ../../Firmware\MotorControl/utils.hpp:133:0
	.fnstart
	.cfi_startproc
@ %bb.0:
	.save	{r7, lr}
	push	{r7, lr}
	.cfi_def_cfa_offset 8
	.cfi_offset lr, -4
	.cfi_offset r7, -8
	.pad	#16
	sub	sp, #16
	.cfi_def_cfa_offset 24
	vstr	s0, [sp, #12]
	vstr	s1, [sp, #8]
.Ltmp243:
	.loc	18 134 25 prologue_end          @ ../../Firmware\MotorControl/utils.hpp:134:25
	vldr	s0, [sp, #12]
	.loc	18 134 28 is_stmt 0             @ ../../Firmware\MotorControl/utils.hpp:134:28
	vldr	s1, [sp, #8]
	.loc	18 134 17                       @ ../../Firmware\MotorControl/utils.hpp:134:17
	bl	_Z7wrap_pmff
	.loc	18 134 11                       @ ../../Firmware\MotorControl/utils.hpp:134:11
	vstr	s0, [sp, #4]
.Ltmp244:
	.loc	18 135 9 is_stmt 1              @ ../../Firmware\MotorControl/utils.hpp:135:9
	vldr	s0, [sp, #4]
.Ltmp245:
	.loc	18 135 9 is_stmt 0              @ ../../Firmware\MotorControl/utils.hpp:135:9
	vcmp.f32	s0, #0
	vmrs	APSR_nzcv, fpscr
	bge	.LBB45_2
	b	.LBB45_1
.LBB45_1:
.Ltmp246:
	.loc	18 135 25                       @ ../../Firmware\MotorControl/utils.hpp:135:25
	vldr	s2, [sp, #8]
	.loc	18 135 22                       @ ../../Firmware\MotorControl/utils.hpp:135:22
	vldr	s0, [sp, #4]
	vadd.f32	s0, s0, s2
	vstr	s0, [sp, #4]
	.loc	18 135 18                       @ ../../Firmware\MotorControl/utils.hpp:135:18
	b	.LBB45_2
.Ltmp247:
.LBB45_2:
	.loc	18 136 12 is_stmt 1             @ ../../Firmware\MotorControl/utils.hpp:136:12
	vldr	s0, [sp, #4]
	.loc	18 136 5 epilogue_begin is_stmt 0 @ ../../Firmware\MotorControl/utils.hpp:136:5
	add	sp, #16
	pop	{r7, pc}
.Ltmp248:
.Lfunc_end45:
	.size	_Z9fmodf_posff, .Lfunc_end45-_Z9fmodf_posff
	.cfi_endproc
	.cantunwind
	.fnend
                                        @ -- End function
	.section	.text._ZN7Encoder22run_offset_calibrationEv,"ax",%progbits
	.hidden	_ZN7Encoder22run_offset_calibrationEv @ -- Begin function _ZN7Encoder22run_offset_calibrationEv
	.globl	_ZN7Encoder22run_offset_calibrationEv
	.p2align	2
	.type	_ZN7Encoder22run_offset_calibrationEv,%function
	.code	16                              @ @_ZN7Encoder22run_offset_calibrationEv
	.thumb_func
_ZN7Encoder22run_offset_calibrationEv:
.Lfunc_begin46:
	.loc	20 330 0 is_stmt 1              @ ../MotorControl/encoder.cpp:330:0
	.fnstart
	.cfi_startproc
@ %bb.0:
	.save	{r7, lr}
	push	{r7, lr}
	.cfi_def_cfa_offset 8
	.cfi_offset lr, -4
	.cfi_offset r7, -8
	.pad	#200
	sub	sp, #200
	.cfi_def_cfa_offset 208
	str	r0, [sp, #192]
	ldr	r0, [sp, #192]
	str	r0, [sp, #56]                   @ 4-byte Spill
	mov.w	r1, #1065353216
.Ltmp249:
	.loc	20 331 17 prologue_end          @ ../MotorControl/encoder.cpp:331:17
	str	r1, [sp, #188]
.Ltmp250:
	.loc	20 334 17                       @ ../MotorControl/encoder.cpp:334:17
	ldrb.w	r0, [r0, #88]
	.loc	20 334 27 is_stmt 0             @ ../MotorControl/encoder.cpp:334:27
	lsls	r0, r0, #31
	cbz	r0, .LBB46_3
	b	.LBB46_1
.LBB46_1:
	.loc	20 334 31                       @ ../MotorControl/encoder.cpp:334:31
	ldr	r0, [sp, #56]                   @ 4-byte Reload
	ldrb.w	r0, [r0, #142]
.Ltmp251:
	.loc	20 334 9                        @ ../MotorControl/encoder.cpp:334:9
	lsls	r0, r0, #31
	cbnz	r0, .LBB46_3
	b	.LBB46_2
.LBB46_2:
.Ltmp252:
	.loc	20 335 9 is_stmt 1              @ ../MotorControl/encoder.cpp:335:9
	ldr	r0, [sp, #56]                   @ 4-byte Reload
	movs	r1, #32
	bl	_ZN7Encoder9set_errorEN10ODriveIntf11EncoderIntf5ErrorE
	movs	r0, #0
	.loc	20 336 9                        @ ../MotorControl/encoder.cpp:336:9
	strb.w	r0, [sp, #199]
	b	.LBB46_63
.Ltmp253:
.LBB46_3:
	.loc	20 339 17                       @ ../MotorControl/encoder.cpp:339:17
	ldr	r0, [sp, #56]                   @ 4-byte Reload
	ldrh	r0, [r0, #52]
	.loc	20 339 35 is_stmt 0             @ ../MotorControl/encoder.cpp:339:35
	cmp	r0, #1
	bne	.LBB46_6
	b	.LBB46_4
.LBB46_4:
	.loc	20 339 47                       @ ../MotorControl/encoder.cpp:339:47
	ldr	r0, [sp, #56]                   @ 4-byte Reload
	ldrb.w	r0, [r0, #101]
.Ltmp254:
	.loc	20 339 9                        @ ../MotorControl/encoder.cpp:339:9
	lsls	r0, r0, #31
	cbnz	r0, .LBB46_6
	b	.LBB46_5
.LBB46_5:
.Ltmp255:
	.loc	20 340 9 is_stmt 1              @ ../MotorControl/encoder.cpp:340:9
	ldr	r0, [sp, #56]                   @ 4-byte Reload
	mov.w	r1, #512
	bl	_ZN7Encoder9set_errorEN10ODriveIntf11EncoderIntf5ErrorE
	movs	r0, #0
	.loc	20 341 9                        @ ../MotorControl/encoder.cpp:341:9
	strb.w	r0, [sp, #199]
	b	.LBB46_63
.Ltmp256:
.LBB46_6:
	.loc	20 346 21                       @ ../MotorControl/encoder.cpp:346:21
	ldr	r1, [sp, #56]                   @ 4-byte Reload
	ldr.w	r0, [r1, #148]
	.loc	20 346 19 is_stmt 0             @ ../MotorControl/encoder.cpp:346:19
	str.w	r0, [r1, #144]
	add	r0, sp, #180
.Ltmp257:
	.loc	20 348 5 is_stmt 1              @ ../MotorControl/encoder.cpp:348:5
	bl	_ZN22CriticalSectionContextC2Ev
	b	.LBB46_7
.LBB46_7:                               @ =>This Inner Loop Header: Depth=1
.Ltmp258:
	.loc	20 348 5 is_stmt 0              @ ../MotorControl/encoder.cpp:348:5
	ldrb.w	r0, [sp, #184]
.Ltmp259:
	.loc	20 348 5                        @ ../MotorControl/encoder.cpp:348:5
	lsls	r0, r0, #31
	cbz	r0, .LBB46_9
	b	.LBB46_8
.LBB46_8:
	.loc	20 0 5                          @ ../MotorControl/encoder.cpp:0:5
	add	r0, sp, #180
.Ltmp260:
	.loc	20 348 5                        @ ../MotorControl/encoder.cpp:348:5
	bl	_ZN22CriticalSectionContextD2Ev
	b	.LBB46_17
.LBB46_9:                               @   in Loop: Header=BB46_7 Depth=1
	.loc	20 0 5                          @ ../MotorControl/encoder.cpp:0:5
	movs	r0, #0
.Ltmp261:
	.loc	20 350 55 is_stmt 1             @ ../MotorControl/encoder.cpp:350:55
	str	r0, [sp, #48]                   @ 4-byte Spill
	str	r0, [sp, #168]
	.loc	20 350 61 is_stmt 0             @ ../MotorControl/encoder.cpp:350:61
	str	r0, [sp, #164]
	add	r0, sp, #172
	add	r1, sp, #168
	add	r2, sp, #164
	.loc	20 350 54                       @ ../MotorControl/encoder.cpp:350:54
	bl	_ZNSt3__24pairIffEC2B7v180000IffLi0EEEOT_OT0_
	ldr	r0, [sp, #56]                   @ 4-byte Reload
	.loc	20 350 9                        @ ../MotorControl/encoder.cpp:350:9
	ldr	r0, [r0, #48]
	.loc	20 350 38                       @ ../MotorControl/encoder.cpp:350:38
	add.w	r0, r0, #296
	.loc	20 350 52                       @ ../MotorControl/encoder.cpp:350:52
	vldr	s0, [sp, #172]
	vldr	s1, [sp, #176]
	bl	_ZN10OutputPortINSt3__24pairIffEEEaSES2_
	ldr	r0, [sp, #48]                   @ 4-byte Reload
	.loc	20 351 55 is_stmt 1             @ ../MotorControl/encoder.cpp:351:55
	str	r0, [sp, #152]
	.loc	20 351 61 is_stmt 0             @ ../MotorControl/encoder.cpp:351:61
	str	r0, [sp, #148]
	add	r0, sp, #156
	add	r1, sp, #152
	add	r2, sp, #148
	.loc	20 351 54                       @ ../MotorControl/encoder.cpp:351:54
	bl	_ZNSt3__24pairIffEC2B7v180000IffLi0EEEOT_OT0_
	ldr	r0, [sp, #56]                   @ 4-byte Reload
	.loc	20 351 9                        @ ../MotorControl/encoder.cpp:351:9
	ldr	r0, [r0, #48]
	.loc	20 351 38                       @ ../MotorControl/encoder.cpp:351:38
	add.w	r0, r0, #308
	.loc	20 351 52                       @ ../MotorControl/encoder.cpp:351:52
	vldr	s0, [sp, #156]
	vldr	s1, [sp, #160]
	bl	_ZN10OutputPortINSt3__24pairIffEEEaSES2_
	ldr	r0, [sp, #56]                   @ 4-byte Reload
	.loc	20 352 9 is_stmt 1              @ ../MotorControl/encoder.cpp:352:9
	ldr	r0, [r0, #48]
	.loc	20 352 38 is_stmt 0             @ ../MotorControl/encoder.cpp:352:38
	add.w	r0, r0, #320
	vldr	s0, .LCPI46_2
	vstr	s0, [sp, #52]                   @ 4-byte Spill
	.loc	20 352 45                       @ ../MotorControl/encoder.cpp:352:45
	bl	_ZN10OutputPortIfEaSEf
	vldr	s0, [sp, #52]                   @ 4-byte Reload
	ldr	r0, [sp, #56]                   @ 4-byte Reload
	.loc	20 353 9 is_stmt 1              @ ../MotorControl/encoder.cpp:353:9
	ldr	r0, [r0, #48]
	.loc	20 353 38 is_stmt 0             @ ../MotorControl/encoder.cpp:353:38
	add.w	r0, r0, #328
	.loc	20 353 49                       @ ../MotorControl/encoder.cpp:353:49
	bl	_ZN10OutputPortIfEaSEf
	ldr	r0, [sp, #56]                   @ 4-byte Reload
	.loc	20 355 34 is_stmt 1             @ ../MotorControl/encoder.cpp:355:34
	ldr	r1, [r0, #48]
	.loc	20 355 41 is_stmt 0             @ ../MotorControl/encoder.cpp:355:41
	ldr.w	r1, [r1, #344]
	.loc	20 355 56                       @ ../MotorControl/encoder.cpp:355:56
	vldr	s0, [r1, #36]
	.loc	20 355 98                       @ ../MotorControl/encoder.cpp:355:98
	vadd.f32	s0, s0, s0
	.loc	20 355 15                       @ ../MotorControl/encoder.cpp:355:15
	vstr	s0, [sp, #144]
	.loc	20 356 58 is_stmt 1             @ ../MotorControl/encoder.cpp:356:58
	ldr	r1, [sp, #144]
	.loc	20 356 9 is_stmt 0              @ ../MotorControl/encoder.cpp:356:9
	ldr	r2, [r0, #48]
	.loc	20 356 56                       @ ../MotorControl/encoder.cpp:356:56
	str.w	r1, [r2, #264]
	.loc	20 357 58 is_stmt 1             @ ../MotorControl/encoder.cpp:357:58
	ldr	r1, [sp, #144]
	.loc	20 357 9 is_stmt 0              @ ../MotorControl/encoder.cpp:357:9
	ldr	r2, [r0, #48]
	.loc	20 357 56                       @ ../MotorControl/encoder.cpp:357:56
	str.w	r1, [r2, #268]
	.loc	20 358 9 is_stmt 1              @ ../MotorControl/encoder.cpp:358:9
	ldr	r2, [r0, #48]
	mov.w	r1, #2139095040
	.loc	20 358 58 is_stmt 0             @ ../MotorControl/encoder.cpp:358:58
	str.w	r1, [r2, #272]
	.loc	20 359 56 is_stmt 1             @ ../MotorControl/encoder.cpp:359:56
	ldr	r0, [r0, #48]
	.loc	20 359 63 is_stmt 0             @ ../MotorControl/encoder.cpp:359:63
	ldr.w	r0, [r0, #344]
	.loc	20 359 78                       @ ../MotorControl/encoder.cpp:359:78
	ldrb.w	r0, [r0, #56]
	.loc	20 359 56                       @ ../MotorControl/encoder.cpp:359:56
	cmp	r0, #2
	beq	.LBB46_11
	b	.LBB46_10
.LBB46_10:                              @   in Loop: Header=BB46_7 Depth=1
	.loc	20 359 119                      @ ../MotorControl/encoder.cpp:359:119
	ldr	r0, [sp, #56]                   @ 4-byte Reload
	ldr	r0, [r0, #48]
	.loc	20 359 126                      @ ../MotorControl/encoder.cpp:359:126
	ldr.w	r0, [r0, #344]
	.loc	20 359 141                      @ ../MotorControl/encoder.cpp:359:141
	vldr	s0, [r0, #36]
	vstr	s0, [sp, #44]                   @ 4-byte Spill
	.loc	20 359 56                       @ ../MotorControl/encoder.cpp:359:56
	b	.LBB46_12
.LBB46_11:                              @   in Loop: Header=BB46_7 Depth=1
	.loc	20 0 56                         @ ../MotorControl/encoder.cpp:0:56
	vldr	s0, .LCPI46_2
	vstr	s0, [sp, #44]                   @ 4-byte Spill
	.loc	20 359 56                       @ ../MotorControl/encoder.cpp:359:56
	b	.LBB46_12
.LBB46_12:                              @   in Loop: Header=BB46_7 Depth=1
	ldr	r0, [sp, #56]                   @ 4-byte Reload
	vldr	s0, [sp, #44]                   @ 4-byte Reload
	.loc	20 359 9                        @ ../MotorControl/encoder.cpp:359:9
	ldr	r1, [r0, #48]
	.loc	20 359 54                       @ ../MotorControl/encoder.cpp:359:54
	vstr	s0, [r1, #280]
	.loc	20 360 56 is_stmt 1             @ ../MotorControl/encoder.cpp:360:56
	ldr	r0, [r0, #48]
	.loc	20 360 63 is_stmt 0             @ ../MotorControl/encoder.cpp:360:63
	ldr.w	r0, [r0, #344]
	.loc	20 360 78                       @ ../MotorControl/encoder.cpp:360:78
	ldrb.w	r0, [r0, #56]
	.loc	20 360 56                       @ ../MotorControl/encoder.cpp:360:56
	cmp	r0, #2
	beq	.LBB46_14
	b	.LBB46_13
.LBB46_13:                              @   in Loop: Header=BB46_7 Depth=1
	.loc	20 0 56                         @ ../MotorControl/encoder.cpp:0:56
	vldr	s0, .LCPI46_2
	vstr	s0, [sp, #40]                   @ 4-byte Spill
	.loc	20 360 56                       @ ../MotorControl/encoder.cpp:360:56
	b	.LBB46_15
.LBB46_14:                              @   in Loop: Header=BB46_7 Depth=1
	.loc	20 360 126                      @ ../MotorControl/encoder.cpp:360:126
	ldr	r0, [sp, #56]                   @ 4-byte Reload
	ldr	r0, [r0, #48]
	.loc	20 360 133                      @ ../MotorControl/encoder.cpp:360:133
	ldr.w	r0, [r0, #344]
	.loc	20 360 148                      @ ../MotorControl/encoder.cpp:360:148
	vldr	s0, [r0, #36]
	vstr	s0, [sp, #40]                   @ 4-byte Spill
	.loc	20 360 56                       @ ../MotorControl/encoder.cpp:360:56
	b	.LBB46_15
.LBB46_15:                              @   in Loop: Header=BB46_7 Depth=1
	ldr	r0, [sp, #56]                   @ 4-byte Reload
	vldr	s0, [sp, #40]                   @ 4-byte Reload
	.loc	20 360 9                        @ ../MotorControl/encoder.cpp:360:9
	ldr	r1, [r0, #48]
	.loc	20 360 54                       @ ../MotorControl/encoder.cpp:360:54
	vstr	s0, [r1, #284]
	.loc	20 361 9 is_stmt 1              @ ../MotorControl/encoder.cpp:361:9
	ldr	r2, [r0, #48]
	movs	r1, #0
	.loc	20 361 50 is_stmt 0             @ ../MotorControl/encoder.cpp:361:50
	str.w	r1, [r2, #276]
	.loc	20 362 9 is_stmt 1              @ ../MotorControl/encoder.cpp:362:9
	ldr	r0, [r0, #48]
	.loc	20 362 38 is_stmt 0             @ ../MotorControl/encoder.cpp:362:38
	add.w	r0, r0, #336
	vldr	s0, .LCPI46_2
	.loc	20 362 54                       @ ../MotorControl/encoder.cpp:362:54
	bl	_ZN10OutputPortIfEaSEf
	ldr	r0, [sp, #56]                   @ 4-byte Reload
	.loc	20 363 116 is_stmt 1            @ ../MotorControl/encoder.cpp:363:116
	vldr	s0, [r0, #60]
	vmov.f32	s2, #-2.000000e+00
	.loc	20 363 136 is_stmt 0            @ ../MotorControl/encoder.cpp:363:136
	vdiv.f32	s0, s0, s2
	.loc	20 363 93                       @ ../MotorControl/encoder.cpp:363:93
	bl	_Z10wrap_pm_pif
	ldr	r0, [sp, #56]                   @ 4-byte Reload
	.loc	20 363 47                       @ ../MotorControl/encoder.cpp:363:47
	ldr	r1, [r0, #48]
	.loc	20 363 91                       @ ../MotorControl/encoder.cpp:363:91
	vstr	s0, [r1, #288]
	.loc	20 363 9                        @ ../MotorControl/encoder.cpp:363:9
	ldr	r0, [r0, #48]
	.loc	20 363 38                       @ ../MotorControl/encoder.cpp:363:38
	add.w	r0, r0, #320
	.loc	20 363 45                       @ ../MotorControl/encoder.cpp:363:45
	bl	_ZN10OutputPortIfEaSEf
	ldr	r0, [sp, #56]                   @ 4-byte Reload
	.loc	20 365 71 is_stmt 1             @ ../MotorControl/encoder.cpp:365:71
	ldr	r1, [r0, #48]
	.loc	20 365 78 is_stmt 0             @ ../MotorControl/encoder.cpp:365:78
	ldr.w	r2, [r1, #344]
	.loc	20 365 93                       @ ../MotorControl/encoder.cpp:365:93
	ldrb.w	r1, [r2, #56]
	.loc	20 365 104                      @ ../MotorControl/encoder.cpp:365:104
	subs	r1, #2
	it	ne
	movne	r1, #1
	.loc	20 365 68                       @ ../MotorControl/encoder.cpp:365:68
	strb.w	r1, [r2, #232]
	.loc	20 366 9 is_stmt 1              @ ../MotorControl/encoder.cpp:366:9
	ldr	r1, [r0, #48]
	.loc	20 366 16 is_stmt 0             @ ../MotorControl/encoder.cpp:366:16
	ldr.w	r0, [r1, #344]
	.loc	20 366 40                       @ ../MotorControl/encoder.cpp:366:40
	adds	r0, #236
	.loc	20 366 99                       @ ../MotorControl/encoder.cpp:366:99
	add.w	r1, r1, #296
	.loc	20 366 58                       @ ../MotorControl/encoder.cpp:366:58
	bl	_ZN9InputPortINSt3__24pairIffEEE10connect_toEP10OutputPortIS2_E
	ldr	r0, [sp, #56]                   @ 4-byte Reload
	.loc	20 367 9 is_stmt 1              @ ../MotorControl/encoder.cpp:367:9
	ldr	r1, [r0, #48]
	.loc	20 367 16 is_stmt 0             @ ../MotorControl/encoder.cpp:367:16
	ldr.w	r0, [r1, #344]
	.loc	20 367 40                       @ ../MotorControl/encoder.cpp:367:40
	adds	r0, #248
	.loc	20 367 99                       @ ../MotorControl/encoder.cpp:367:99
	add.w	r1, r1, #308
	.loc	20 367 58                       @ ../MotorControl/encoder.cpp:367:58
	bl	_ZN9InputPortINSt3__24pairIffEEE10connect_toEP10OutputPortIS2_E
	ldr	r0, [sp, #56]                   @ 4-byte Reload
	.loc	20 369 9 is_stmt 1              @ ../MotorControl/encoder.cpp:369:9
	ldr	r1, [r0, #48]
	.loc	20 369 16 is_stmt 0             @ ../MotorControl/encoder.cpp:369:16
	ldr.w	r0, [r1, #344]
	.loc	20 369 40                       @ ../MotorControl/encoder.cpp:369:40
	add.w	r0, r0, #260
	.loc	20 369 92                       @ ../MotorControl/encoder.cpp:369:92
	add.w	r1, r1, #320
	.loc	20 369 51                       @ ../MotorControl/encoder.cpp:369:51
	bl	_ZN9InputPortIfE10connect_toEP10OutputPortIfE
	ldr	r0, [sp, #56]                   @ 4-byte Reload
	.loc	20 370 9 is_stmt 1              @ ../MotorControl/encoder.cpp:370:9
	ldr	r1, [r0, #48]
	.loc	20 370 32 is_stmt 0             @ ../MotorControl/encoder.cpp:370:32
	add.w	r0, r1, #184
	.loc	20 370 90                       @ ../MotorControl/encoder.cpp:370:90
	add.w	r1, r1, #320
	.loc	20 370 49                       @ ../MotorControl/encoder.cpp:370:49
	bl	_ZN9InputPortIfE10connect_toEP10OutputPortIfE
	ldr	r0, [sp, #56]                   @ 4-byte Reload
	.loc	20 372 9 is_stmt 1              @ ../MotorControl/encoder.cpp:372:9
	ldr	r1, [r0, #48]
	.loc	20 372 16 is_stmt 0             @ ../MotorControl/encoder.cpp:372:16
	ldr.w	r0, [r1, #344]
	.loc	20 372 23                       @ ../MotorControl/encoder.cpp:372:23
	add.w	r0, r0, #396
	.loc	20 372 79                       @ ../MotorControl/encoder.cpp:372:79
	add.w	r1, r1, #328
	.loc	20 372 38                       @ ../MotorControl/encoder.cpp:372:38
	bl	_ZN9InputPortIfE10connect_toEP10OutputPortIfE
	ldr	r0, [sp, #56]                   @ 4-byte Reload
	.loc	20 373 9 is_stmt 1              @ ../MotorControl/encoder.cpp:373:9
	ldr	r1, [r0, #48]
	.loc	20 373 16 is_stmt 0             @ ../MotorControl/encoder.cpp:373:16
	ldr.w	r0, [r1, #344]
	.loc	20 373 40                       @ ../MotorControl/encoder.cpp:373:40
	add.w	r0, r0, #268
	.loc	20 373 96                       @ ../MotorControl/encoder.cpp:373:96
	add.w	r1, r1, #328
	.loc	20 373 55                       @ ../MotorControl/encoder.cpp:373:55
	bl	_ZN9InputPortIfE10connect_toEP10OutputPortIfE
	ldr	r0, [sp, #56]                   @ 4-byte Reload
	.loc	20 374 9 is_stmt 1              @ ../MotorControl/encoder.cpp:374:9
	ldr	r1, [r0, #48]
	.loc	20 374 32 is_stmt 0             @ ../MotorControl/encoder.cpp:374:32
	add.w	r0, r1, #192
	.loc	20 374 94                       @ ../MotorControl/encoder.cpp:374:94
	add.w	r1, r1, #328
	.loc	20 374 53                       @ ../MotorControl/encoder.cpp:374:53
	bl	_ZN9InputPortIfE10connect_toEP10OutputPortIfE
	.loc	20 375 5 is_stmt 1              @ ../MotorControl/encoder.cpp:375:5
	b	.LBB46_16
.Ltmp262:
.LBB46_16:                              @   in Loop: Header=BB46_7 Depth=1
	.loc	20 0 5 is_stmt 0                @ ../MotorControl/encoder.cpp:0:5
	movs	r0, #1
	.loc	20 348 5 is_stmt 1              @ ../MotorControl/encoder.cpp:348:5
	strb.w	r0, [sp, #184]
	b	.LBB46_7
.Ltmp263:
.LBB46_17:
	.loc	20 376 5                        @ ../MotorControl/encoder.cpp:376:5
	ldr	r0, [sp, #56]                   @ 4-byte Reload
	ldr	r0, [r0, #48]
	.loc	20 376 12 is_stmt 0             @ ../MotorControl/encoder.cpp:376:12
	bl	_ZN4Axis26wait_for_control_iterationEv
                                        @ kill: def $r1 killed $r0
	.loc	20 378 5 is_stmt 1              @ ../MotorControl/encoder.cpp:378:5
	ldr	r0, [sp, #56]                   @ 4-byte Reload
	ldr	r0, [r0, #48]
	.loc	20 378 12 is_stmt 0             @ ../MotorControl/encoder.cpp:378:12
	ldr.w	r0, [r0, #344]
	.loc	20 378 38                       @ ../MotorControl/encoder.cpp:378:38
	add.w	r1, r0, #208
	.loc	20 378 19                       @ ../MotorControl/encoder.cpp:378:19
	bl	_ZN5Motor3armEP15PhaseControlLawILj3EE
	movs	r0, #0
.Ltmp264:
	.loc	20 381 17 is_stmt 1             @ ../MotorControl/encoder.cpp:381:17
	str	r0, [sp, #140]
	.loc	20 381 10 is_stmt 0             @ ../MotorControl/encoder.cpp:381:10
	b	.LBB46_18
.LBB46_18:                              @ =>This Inner Loop Header: Depth=1
.Ltmp265:
	.loc	20 381 24                       @ ../MotorControl/encoder.cpp:381:24
	ldr	r0, [sp, #140]
.Ltmp266:
	.loc	20 381 5                        @ ../MotorControl/encoder.cpp:381:5
	lsrs	r0, r0, #3
	cmp	r0, #124
	bhi	.LBB46_25
	b	.LBB46_19
.LBB46_19:                              @   in Loop: Header=BB46_18 Depth=1
.Ltmp267:
	.loc	20 382 14 is_stmt 1             @ ../MotorControl/encoder.cpp:382:14
	ldr	r0, [sp, #56]                   @ 4-byte Reload
	ldr	r0, [r0, #48]
	.loc	20 382 21 is_stmt 0             @ ../MotorControl/encoder.cpp:382:21
	ldr.w	r0, [r0, #344]
	.loc	20 382 28                       @ ../MotorControl/encoder.cpp:382:28
	ldrb.w	r0, [r0, #164]
.Ltmp268:
	.loc	20 382 13                       @ ../MotorControl/encoder.cpp:382:13
	lsls	r0, r0, #31
	cbnz	r0, .LBB46_21
	b	.LBB46_20
.LBB46_20:
	.loc	20 0 13                         @ ../MotorControl/encoder.cpp:0:13
	movs	r0, #0
.Ltmp269:
	.loc	20 383 13 is_stmt 1             @ ../MotorControl/encoder.cpp:383:13
	strb.w	r0, [sp, #199]
	b	.LBB46_63
.Ltmp270:
.LBB46_21:                              @   in Loop: Header=BB46_18 Depth=1
	.loc	20 385 13                       @ ../MotorControl/encoder.cpp:385:13
	ldr	r0, [sp, #56]                   @ 4-byte Reload
	ldr	r0, [r0, #48]
	.loc	20 385 20 is_stmt 0             @ ../MotorControl/encoder.cpp:385:20
	ldrb.w	r0, [r0, #628]
.Ltmp271:
	.loc	20 385 13                       @ ../MotorControl/encoder.cpp:385:13
	cbz	r0, .LBB46_23
	b	.LBB46_22
.LBB46_22:
.Ltmp272:
	.loc	20 386 13 is_stmt 1             @ ../MotorControl/encoder.cpp:386:13
	ldr	r0, [sp, #56]                   @ 4-byte Reload
	ldr	r0, [r0, #48]
	.loc	20 386 20 is_stmt 0             @ ../MotorControl/encoder.cpp:386:20
	ldr.w	r0, [r0, #344]
	movs	r1, #0
	.loc	20 386 27                       @ ../MotorControl/encoder.cpp:386:27
	str	r1, [sp, #36]                   @ 4-byte Spill
	bl	_ZN5Motor6disarmEPb
                                        @ kill: def $r1 killed $r0
	.loc	20 387 13 is_stmt 1             @ ../MotorControl/encoder.cpp:387:13
	ldr	r0, [sp, #36]                   @ 4-byte Reload
	strb.w	r0, [sp, #199]
	b	.LBB46_63
.Ltmp273:
.LBB46_23:                              @   in Loop: Header=BB46_18 Depth=1
	.loc	20 0 13 is_stmt 0               @ ../MotorControl/encoder.cpp:0:13
	movs	r0, #1
	.loc	20 389 9 is_stmt 1              @ ../MotorControl/encoder.cpp:389:9
	bl	osDelay
	.loc	20 390 5                        @ ../MotorControl/encoder.cpp:390:5
	b	.LBB46_24
.Ltmp274:
.LBB46_24:                              @   in Loop: Header=BB46_18 Depth=1
	.loc	20 381 69                       @ ../MotorControl/encoder.cpp:381:69
	ldr	r0, [sp, #140]
	adds	r0, #1
	str	r0, [sp, #140]
	.loc	20 381 5 is_stmt 0              @ ../MotorControl/encoder.cpp:381:5
	b	.LBB46_18
.Ltmp275:
.LBB46_25:
	.loc	20 393 28 is_stmt 1             @ ../MotorControl/encoder.cpp:393:28
	ldr	r0, [sp, #56]                   @ 4-byte Reload
	ldr.w	r0, [r0, #144]
	.loc	20 393 13 is_stmt 0             @ ../MotorControl/encoder.cpp:393:13
	str	r0, [sp, #136]
	movs	r0, #0
	.loc	20 394 14 is_stmt 1             @ ../MotorControl/encoder.cpp:394:14
	str	r0, [sp, #132]
	.loc	20 395 13                       @ ../MotorControl/encoder.cpp:395:13
	str	r0, [sp, #124]
	str	r0, [sp, #120]
	add	r0, sp, #112
.Ltmp276:
	.loc	20 397 5                        @ ../MotorControl/encoder.cpp:397:5
	bl	_ZN22CriticalSectionContextC2Ev
	b	.LBB46_26
.LBB46_26:                              @ =>This Inner Loop Header: Depth=1
.Ltmp277:
	.loc	20 397 5 is_stmt 0              @ ../MotorControl/encoder.cpp:397:5
	ldrb.w	r0, [sp, #116]
.Ltmp278:
	.loc	20 397 5                        @ ../MotorControl/encoder.cpp:397:5
	lsls	r0, r0, #31
	cbz	r0, .LBB46_28
	b	.LBB46_27
.LBB46_27:
	.loc	20 0 5                          @ ../MotorControl/encoder.cpp:0:5
	add	r0, sp, #112
.Ltmp279:
	.loc	20 397 5                        @ ../MotorControl/encoder.cpp:397:5
	bl	_ZN22CriticalSectionContextD2Ev
	b	.LBB46_30
.LBB46_28:                              @   in Loop: Header=BB46_26 Depth=1
.Ltmp280:
	.loc	20 398 9 is_stmt 1              @ ../MotorControl/encoder.cpp:398:9
	ldr	r0, [sp, #56]                   @ 4-byte Reload
	ldr	r2, [r0, #48]
	.loc	20 398 60 is_stmt 0             @ ../MotorControl/encoder.cpp:398:60
	ldr	r1, [r0, #64]
	.loc	20 398 50                       @ ../MotorControl/encoder.cpp:398:50
	str.w	r1, [r2, #276]
	.loc	20 399 9 is_stmt 1              @ ../MotorControl/encoder.cpp:399:9
	ldr	r0, [r0, #48]
	.loc	20 399 38 is_stmt 0             @ ../MotorControl/encoder.cpp:399:38
	add.w	r0, r0, #336
	vldr	s0, .LCPI46_1
	.loc	20 399 54                       @ ../MotorControl/encoder.cpp:399:54
	bl	_ZN10OutputPortIfEaSEf
	.loc	20 400 5 is_stmt 1              @ ../MotorControl/encoder.cpp:400:5
	b	.LBB46_29
.Ltmp281:
.LBB46_29:                              @   in Loop: Header=BB46_26 Depth=1
	.loc	20 0 5 is_stmt 0                @ ../MotorControl/encoder.cpp:0:5
	movs	r0, #1
	.loc	20 397 5 is_stmt 1              @ ../MotorControl/encoder.cpp:397:5
	strb.w	r0, [sp, #116]
	b	.LBB46_26
.Ltmp282:
.LBB46_30:
	.loc	20 403 5                        @ ../MotorControl/encoder.cpp:403:5
	b	.LBB46_31
.LBB46_31:                              @ =>This Inner Loop Header: Depth=1
	.loc	20 403 13 is_stmt 0             @ ../MotorControl/encoder.cpp:403:13
	ldr	r0, [sp, #56]                   @ 4-byte Reload
	ldr	r0, [r0, #48]
	.loc	20 403 20                       @ ../MotorControl/encoder.cpp:403:20
	ldrb.w	r1, [r0, #628]
	movs	r0, #0
	.loc	20 403 68                       @ ../MotorControl/encoder.cpp:403:68
	str	r0, [sp, #32]                   @ 4-byte Spill
	cbnz	r1, .LBB46_33
	b	.LBB46_32
.LBB46_32:                              @   in Loop: Header=BB46_31 Depth=1
	.loc	20 403 71                       @ ../MotorControl/encoder.cpp:403:71
	ldr	r0, [sp, #56]                   @ 4-byte Reload
	ldr	r0, [r0, #48]
	.loc	20 403 78                       @ ../MotorControl/encoder.cpp:403:78
	ldr.w	r0, [r0, #344]
	.loc	20 403 85                       @ ../MotorControl/encoder.cpp:403:85
	ldrb.w	r0, [r0, #164]
	str	r0, [sp, #32]                   @ 4-byte Spill
	b	.LBB46_33
.LBB46_33:                              @   in Loop: Header=BB46_31 Depth=1
	.loc	20 0 0                          @ ../MotorControl/encoder.cpp:0:0
	ldr	r0, [sp, #32]                   @ 4-byte Reload
	.loc	20 403 5                        @ ../MotorControl/encoder.cpp:403:5
	lsls	r0, r0, #31
	cbz	r0, .LBB46_37
	b	.LBB46_34
.LBB46_34:                              @   in Loop: Header=BB46_31 Depth=1
.Ltmp283:
	.loc	20 404 36 is_stmt 1             @ ../MotorControl/encoder.cpp:404:36
	ldr	r0, [sp, #56]                   @ 4-byte Reload
	ldr	r0, [r0, #48]
	.loc	20 404 65 is_stmt 0             @ ../MotorControl/encoder.cpp:404:65
	add.w	r1, r0, #336
	add	r0, sp, #100
	.loc	20 404 81                       @ ../MotorControl/encoder.cpp:404:81
	str	r0, [sp, #28]                   @ 4-byte Spill
	bl	_ZN10OutputPortIfE3anyEv
	ldr	r0, [sp, #28]                   @ 4-byte Reload
	movs	r1, #0
	movt	r1, #65408
	.loc	20 404 96                       @ ../MotorControl/encoder.cpp:404:96
	str	r1, [sp, #96]
	add	r1, sp, #96
	.loc	20 404 87                       @ ../MotorControl/encoder.cpp:404:87
	bl	_ZNOSt3__28optionalIfE8value_orB7v180000IfEEfOT_
	ldr	r0, [sp, #56]                   @ 4-byte Reload
	.loc	20 404 118                      @ ../MotorControl/encoder.cpp:404:118
	vldr	s2, [r0, #60]
	movs	r0, #0
	.loc	20 404 107                      @ ../MotorControl/encoder.cpp:404:107
	vcmp.f32	s0, s2
	vmrs	APSR_nzcv, fpscr
	it	ge
	movge	r0, #1
	.loc	20 404 14                       @ ../MotorControl/encoder.cpp:404:14
	strb.w	r0, [sp, #111]
.Ltmp284:
	.loc	20 405 13 is_stmt 1             @ ../MotorControl/encoder.cpp:405:13
	ldrb.w	r0, [sp, #111]
.Ltmp285:
	.loc	20 405 13 is_stmt 0             @ ../MotorControl/encoder.cpp:405:13
	lsls	r0, r0, #31
	cbz	r0, .LBB46_36
	b	.LBB46_35
.LBB46_35:
.Ltmp286:
	.loc	20 406 13 is_stmt 1             @ ../MotorControl/encoder.cpp:406:13
	b	.LBB46_37
.Ltmp287:
.LBB46_36:                              @   in Loop: Header=BB46_31 Depth=1
	.loc	20 408 24                       @ ../MotorControl/encoder.cpp:408:24
	ldr	r0, [sp, #56]                   @ 4-byte Reload
	ldr.w	r2, [r0, #144]
	.loc	20 408 21 is_stmt 0             @ ../MotorControl/encoder.cpp:408:21
	ldr	r1, [sp, #120]
	ldr	r0, [sp, #124]
	adds	r1, r1, r2
	adc.w	r0, r0, r2, asr #31
	str	r1, [sp, #120]
	str	r0, [sp, #124]
	.loc	20 409 18 is_stmt 1             @ ../MotorControl/encoder.cpp:409:18
	ldr	r0, [sp, #132]
	adds	r0, #1
	str	r0, [sp, #132]
	movs	r0, #1
	.loc	20 410 9                        @ ../MotorControl/encoder.cpp:410:9
	bl	osDelay
.Ltmp288:
	.loc	20 403 5                        @ ../MotorControl/encoder.cpp:403:5
	b	.LBB46_31
.LBB46_37:
.Ltmp289:
	.loc	20 414 9                        @ ../MotorControl/encoder.cpp:414:9
	ldr	r0, [sp, #56]                   @ 4-byte Reload
	ldr.w	r0, [r0, #144]
	.loc	20 414 25 is_stmt 0             @ ../MotorControl/encoder.cpp:414:25
	ldr	r1, [sp, #136]
	.loc	20 414 38                       @ ../MotorControl/encoder.cpp:414:38
	adds	r1, #8
.Ltmp290:
	.loc	20 414 9                        @ ../MotorControl/encoder.cpp:414:9
	cmp	r0, r1
	ble	.LBB46_39
	b	.LBB46_38
.LBB46_38:
	.loc	20 0 9                          @ ../MotorControl/encoder.cpp:0:9
	ldr	r1, [sp, #56]                   @ 4-byte Reload
	movs	r0, #1
.Ltmp291:
	.loc	20 416 27 is_stmt 1             @ ../MotorControl/encoder.cpp:416:27
	str	r0, [r1, #92]
	.loc	20 417 5                        @ ../MotorControl/encoder.cpp:417:5
	b	.LBB46_44
.Ltmp292:
.LBB46_39:
	.loc	20 417 16 is_stmt 0             @ ../MotorControl/encoder.cpp:417:16
	ldr	r0, [sp, #56]                   @ 4-byte Reload
	ldr.w	r0, [r0, #144]
	.loc	20 417 32                       @ ../MotorControl/encoder.cpp:417:32
	ldr	r1, [sp, #136]
	.loc	20 417 45                       @ ../MotorControl/encoder.cpp:417:45
	subs	r1, #8
.Ltmp293:
	.loc	20 417 16                       @ ../MotorControl/encoder.cpp:417:16
	cmp	r0, r1
	bge	.LBB46_41
	b	.LBB46_40
.LBB46_40:
	.loc	20 0 16                         @ ../MotorControl/encoder.cpp:0:16
	ldr	r1, [sp, #56]                   @ 4-byte Reload
	mov.w	r0, #-1
.Ltmp294:
	.loc	20 419 27 is_stmt 1             @ ../MotorControl/encoder.cpp:419:27
	str	r0, [r1, #92]
	.loc	20 420 5                        @ ../MotorControl/encoder.cpp:420:5
	b	.LBB46_43
.Ltmp295:
.LBB46_41:
	.loc	20 422 9                        @ ../MotorControl/encoder.cpp:422:9
	ldr	r0, [sp, #56]                   @ 4-byte Reload
	movs	r1, #4
	bl	_ZN7Encoder9set_errorEN10ODriveIntf11EncoderIntf5ErrorE
	ldr	r0, [sp, #56]                   @ 4-byte Reload
	.loc	20 423 9                        @ ../MotorControl/encoder.cpp:423:9
	ldr	r0, [r0, #48]
	.loc	20 423 16 is_stmt 0             @ ../MotorControl/encoder.cpp:423:16
	ldr.w	r0, [r0, #344]
	movs	r1, #0
	.loc	20 423 23                       @ ../MotorControl/encoder.cpp:423:23
	str	r1, [sp, #24]                   @ 4-byte Spill
	bl	_ZN5Motor6disarmEPb
                                        @ kill: def $r1 killed $r0
	.loc	20 424 9 is_stmt 1              @ ../MotorControl/encoder.cpp:424:9
	ldr	r0, [sp, #24]                   @ 4-byte Reload
	strb.w	r0, [sp, #199]
	b	.LBB46_63
.Ltmp296:
	.p2align	2
@ %bb.42:
	.loc	20 0 9 is_stmt 0                @ ../MotorControl/encoder.cpp:0:9
.LCPI46_2:
	.long	0x00000000                      @ float 0
	.p2align	1
.LBB46_43:
	b	.LBB46_44
.LBB46_44:
	.loc	20 428 30 is_stmt 1             @ ../MotorControl/encoder.cpp:428:30
	ldr	r0, [sp, #56]                   @ 4-byte Reload
	ldr	r1, [r0, #48]
	.loc	20 428 37 is_stmt 0             @ ../MotorControl/encoder.cpp:428:37
	ldr.w	r1, [r1, #344]
	.loc	20 428 52                       @ ../MotorControl/encoder.cpp:428:52
	ldr	r1, [r1, #32]
	.loc	20 428 63                       @ ../MotorControl/encoder.cpp:428:63
	lsls	r1, r1, #1
	.loc	20 428 30                       @ ../MotorControl/encoder.cpp:428:30
	vmov	s0, r1
	vcvt.f32.s32	s0, s0
	vldr	s2, .LCPI46_0
	.loc	20 428 67                       @ ../MotorControl/encoder.cpp:428:67
	vmul.f32	s0, s0, s2
	.loc	20 428 91                       @ ../MotorControl/encoder.cpp:428:91
	vldr	s2, [r0, #80]
	vcvt.f32.s32	s4, s2
	vmov.f32	s2, #1.000000e+00
	.loc	20 428 82                       @ ../MotorControl/encoder.cpp:428:82
	vdiv.f32	s2, s2, s4
	.loc	20 428 74                       @ ../MotorControl/encoder.cpp:428:74
	vmul.f32	s0, s0, s2
	.loc	20 428 11                       @ ../MotorControl/encoder.cpp:428:11
	vstr	s0, [sp, #92]
	.loc	20 429 44 is_stmt 1             @ ../MotorControl/encoder.cpp:429:44
	vldr	s0, [r0, #60]
	.loc	20 429 66 is_stmt 0             @ ../MotorControl/encoder.cpp:429:66
	vldr	s2, [sp, #92]
	.loc	20 429 64                       @ ../MotorControl/encoder.cpp:429:64
	vdiv.f32	s0, s0, s2
	.loc	20 429 11                       @ ../MotorControl/encoder.cpp:429:11
	vstr	s0, [sp, #88]
	.loc	20 430 37 is_stmt 1             @ ../MotorControl/encoder.cpp:430:37
	ldr.w	r0, [r0, #144]
	.loc	20 430 53 is_stmt 0             @ ../MotorControl/encoder.cpp:430:53
	ldr	r1, [sp, #136]
	.loc	20 430 51                       @ ../MotorControl/encoder.cpp:430:51
	subs	r0, r0, r1
	.loc	20 430 28                       @ ../MotorControl/encoder.cpp:430:28
	str	r0, [sp, #16]                   @ 4-byte Spill
	cmp	r0, #0
	str	r0, [sp, #20]                   @ 4-byte Spill
	bpl	.LBB46_46
@ %bb.45:
	ldr	r0, [sp, #16]                   @ 4-byte Reload
	rsbs	r0, r0, #0
	str	r0, [sp, #20]                   @ 4-byte Spill
.LBB46_46:
	ldr	r0, [sp, #56]                   @ 4-byte Reload
	ldr	r1, [sp, #20]                   @ 4-byte Reload
	vmov	s0, r1
	vcvt.f32.s32	s0, s0
	.loc	20 430 26                       @ ../MotorControl/encoder.cpp:430:26
	vstr	s0, [r0, #196]
.Ltmp297:
	.loc	20 431 18 is_stmt 1             @ ../MotorControl/encoder.cpp:431:18
	vldr	s0, [r0, #196]
	.loc	20 431 41 is_stmt 0             @ ../MotorControl/encoder.cpp:431:41
	vldr	s2, [sp, #88]
	.loc	20 431 39                       @ ../MotorControl/encoder.cpp:431:39
	vsub.f32	s0, s0, s2
	.loc	20 431 9                        @ ../MotorControl/encoder.cpp:431:9
	bl	_Z3absB7v180000f
	ldr	r0, [sp, #56]                   @ 4-byte Reload
	.loc	20 431 67                       @ ../MotorControl/encoder.cpp:431:67
	vldr	s2, [sp, #88]
	.loc	20 431 65                       @ ../MotorControl/encoder.cpp:431:65
	vdiv.f32	s0, s0, s2
	.loc	20 431 100                      @ ../MotorControl/encoder.cpp:431:100
	vldr	s2, [r0, #56]
.Ltmp298:
	.loc	20 431 9                        @ ../MotorControl/encoder.cpp:431:9
	vcmp.f32	s0, s2
	vmrs	APSR_nzcv, fpscr
	ble	.LBB46_48
	b	.LBB46_47
.LBB46_47:
.Ltmp299:
	.loc	20 432 9 is_stmt 1              @ ../MotorControl/encoder.cpp:432:9
	ldr	r0, [sp, #56]                   @ 4-byte Reload
	movs	r1, #2
	bl	_ZN7Encoder9set_errorEN10ODriveIntf11EncoderIntf5ErrorE
	ldr	r0, [sp, #56]                   @ 4-byte Reload
	.loc	20 433 9                        @ ../MotorControl/encoder.cpp:433:9
	ldr	r0, [r0, #48]
	.loc	20 433 16 is_stmt 0             @ ../MotorControl/encoder.cpp:433:16
	ldr.w	r0, [r0, #344]
	movs	r1, #0
	.loc	20 433 23                       @ ../MotorControl/encoder.cpp:433:23
	str	r1, [sp, #12]                   @ 4-byte Spill
	bl	_ZN5Motor6disarmEPb
                                        @ kill: def $r1 killed $r0
	.loc	20 434 9 is_stmt 1              @ ../MotorControl/encoder.cpp:434:9
	ldr	r0, [sp, #12]                   @ 4-byte Reload
	strb.w	r0, [sp, #199]
	b	.LBB46_63
.Ltmp300:
.LBB46_48:
	.loc	20 0 9 is_stmt 0                @ ../MotorControl/encoder.cpp:0:9
	add	r0, sp, #80
.Ltmp301:
	.loc	20 437 5 is_stmt 1              @ ../MotorControl/encoder.cpp:437:5
	bl	_ZN22CriticalSectionContextC2Ev
	b	.LBB46_49
.LBB46_49:                              @ =>This Inner Loop Header: Depth=1
.Ltmp302:
	.loc	20 437 5 is_stmt 0              @ ../MotorControl/encoder.cpp:437:5
	ldrb.w	r0, [sp, #84]
.Ltmp303:
	.loc	20 437 5                        @ ../MotorControl/encoder.cpp:437:5
	lsls	r0, r0, #31
	cbz	r0, .LBB46_51
	b	.LBB46_50
.LBB46_50:
	.loc	20 0 5                          @ ../MotorControl/encoder.cpp:0:5
	add	r0, sp, #80
.Ltmp304:
	.loc	20 437 5                        @ ../MotorControl/encoder.cpp:437:5
	bl	_ZN22CriticalSectionContextD2Ev
	b	.LBB46_53
.LBB46_51:                              @   in Loop: Header=BB46_49 Depth=1
.Ltmp305:
	.loc	20 438 61 is_stmt 1             @ ../MotorControl/encoder.cpp:438:61
	ldr	r0, [sp, #56]                   @ 4-byte Reload
	vldr	s0, [r0, #64]
	.loc	20 438 52 is_stmt 0             @ ../MotorControl/encoder.cpp:438:52
	vneg.f32	s0, s0
	.loc	20 438 9                        @ ../MotorControl/encoder.cpp:438:9
	ldr	r0, [r0, #48]
	.loc	20 438 50                       @ ../MotorControl/encoder.cpp:438:50
	vstr	s0, [r0, #276]
	.loc	20 439 5 is_stmt 1              @ ../MotorControl/encoder.cpp:439:5
	b	.LBB46_52
.Ltmp306:
.LBB46_52:                              @   in Loop: Header=BB46_49 Depth=1
	.loc	20 0 5 is_stmt 0                @ ../MotorControl/encoder.cpp:0:5
	movs	r0, #1
	.loc	20 437 5 is_stmt 1              @ ../MotorControl/encoder.cpp:437:5
	strb.w	r0, [sp, #84]
	b	.LBB46_49
.Ltmp307:
.LBB46_53:
	.loc	20 442 5                        @ ../MotorControl/encoder.cpp:442:5
	b	.LBB46_54
.LBB46_54:                              @ =>This Inner Loop Header: Depth=1
	.loc	20 442 13 is_stmt 0             @ ../MotorControl/encoder.cpp:442:13
	ldr	r0, [sp, #56]                   @ 4-byte Reload
	ldr	r0, [r0, #48]
	.loc	20 442 20                       @ ../MotorControl/encoder.cpp:442:20
	ldrb.w	r1, [r0, #628]
	movs	r0, #0
	.loc	20 442 68                       @ ../MotorControl/encoder.cpp:442:68
	str	r0, [sp, #8]                    @ 4-byte Spill
	cbnz	r1, .LBB46_56
	b	.LBB46_55
.LBB46_55:                              @   in Loop: Header=BB46_54 Depth=1
	.loc	20 442 71                       @ ../MotorControl/encoder.cpp:442:71
	ldr	r0, [sp, #56]                   @ 4-byte Reload
	ldr	r0, [r0, #48]
	.loc	20 442 78                       @ ../MotorControl/encoder.cpp:442:78
	ldr.w	r0, [r0, #344]
	.loc	20 442 85                       @ ../MotorControl/encoder.cpp:442:85
	ldrb.w	r0, [r0, #164]
	str	r0, [sp, #8]                    @ 4-byte Spill
	b	.LBB46_56
.LBB46_56:                              @   in Loop: Header=BB46_54 Depth=1
	.loc	20 0 0                          @ ../MotorControl/encoder.cpp:0:0
	ldr	r0, [sp, #8]                    @ 4-byte Reload
	.loc	20 442 5                        @ ../MotorControl/encoder.cpp:442:5
	lsls	r0, r0, #31
	cbz	r0, .LBB46_60
	b	.LBB46_57
.LBB46_57:                              @   in Loop: Header=BB46_54 Depth=1
.Ltmp308:
	.loc	20 443 36 is_stmt 1             @ ../MotorControl/encoder.cpp:443:36
	ldr	r0, [sp, #56]                   @ 4-byte Reload
	ldr	r0, [r0, #48]
	.loc	20 443 65 is_stmt 0             @ ../MotorControl/encoder.cpp:443:65
	add.w	r1, r0, #336
	add	r0, sp, #68
	.loc	20 443 81                       @ ../MotorControl/encoder.cpp:443:81
	str	r0, [sp, #4]                    @ 4-byte Spill
	bl	_ZN10OutputPortIfE3anyEv
	ldr	r0, [sp, #4]                    @ 4-byte Reload
	mov.w	r1, #2139095040
	.loc	20 443 96                       @ ../MotorControl/encoder.cpp:443:96
	str	r1, [sp, #64]
	add	r1, sp, #64
	.loc	20 443 87                       @ ../MotorControl/encoder.cpp:443:87
	bl	_ZNOSt3__28optionalIfE8value_orB7v180000IfEEfOT_
	movs	r0, #0
	.loc	20 443 106                      @ ../MotorControl/encoder.cpp:443:106
	vcmp.f32	s0, #0
	vmrs	APSR_nzcv, fpscr
	it	le
	movle	r0, #1
	.loc	20 443 14                       @ ../MotorControl/encoder.cpp:443:14
	strb.w	r0, [sp, #79]
.Ltmp309:
	.loc	20 444 13 is_stmt 1             @ ../MotorControl/encoder.cpp:444:13
	ldrb.w	r0, [sp, #79]
.Ltmp310:
	.loc	20 444 13 is_stmt 0             @ ../MotorControl/encoder.cpp:444:13
	lsls	r0, r0, #31
	cbz	r0, .LBB46_59
	b	.LBB46_58
.LBB46_58:
.Ltmp311:
	.loc	20 445 13 is_stmt 1             @ ../MotorControl/encoder.cpp:445:13
	b	.LBB46_60
.Ltmp312:
.LBB46_59:                              @   in Loop: Header=BB46_54 Depth=1
	.loc	20 447 24                       @ ../MotorControl/encoder.cpp:447:24
	ldr	r0, [sp, #56]                   @ 4-byte Reload
	ldr.w	r2, [r0, #144]
	.loc	20 447 21 is_stmt 0             @ ../MotorControl/encoder.cpp:447:21
	ldr	r1, [sp, #120]
	ldr	r0, [sp, #124]
	adds	r1, r1, r2
	adc.w	r0, r0, r2, asr #31
	str	r1, [sp, #120]
	str	r0, [sp, #124]
	.loc	20 448 18 is_stmt 1             @ ../MotorControl/encoder.cpp:448:18
	ldr	r0, [sp, #132]
	adds	r0, #1
	str	r0, [sp, #132]
	movs	r0, #1
	.loc	20 449 9                        @ ../MotorControl/encoder.cpp:449:9
	bl	osDelay
.Ltmp313:
	.loc	20 442 5                        @ ../MotorControl/encoder.cpp:442:5
	b	.LBB46_54
.LBB46_60:
.Ltmp314:
	.loc	20 453 10                       @ ../MotorControl/encoder.cpp:453:10
	ldr	r0, [sp, #56]                   @ 4-byte Reload
	ldr	r0, [r0, #48]
	.loc	20 453 17 is_stmt 0             @ ../MotorControl/encoder.cpp:453:17
	ldr.w	r0, [r0, #344]
	.loc	20 453 24                       @ ../MotorControl/encoder.cpp:453:24
	ldrb.w	r0, [r0, #164]
.Ltmp315:
	.loc	20 453 9                        @ ../MotorControl/encoder.cpp:453:9
	lsls	r0, r0, #31
	cbnz	r0, .LBB46_62
	b	.LBB46_61
.LBB46_61:
	.loc	20 0 9                          @ ../MotorControl/encoder.cpp:0:9
	movs	r0, #0
.Ltmp316:
	.loc	20 454 9 is_stmt 1              @ ../MotorControl/encoder.cpp:454:9
	strb.w	r0, [sp, #199]
	b	.LBB46_63
.Ltmp317:
.LBB46_62:
	.loc	20 457 5                        @ ../MotorControl/encoder.cpp:457:5
	ldr	r0, [sp, #56]                   @ 4-byte Reload
	ldr	r0, [r0, #48]
	.loc	20 457 12 is_stmt 0             @ ../MotorControl/encoder.cpp:457:12
	ldr.w	r0, [r0, #344]
	movs	r1, #0
	.loc	20 457 19                       @ ../MotorControl/encoder.cpp:457:19
	str	r1, [sp]                        @ 4-byte Spill
	bl	_ZN5Motor6disarmEPb
	ldr	r3, [sp]                        @ 4-byte Reload
	.loc	20 459 28 is_stmt 1             @ ../MotorControl/encoder.cpp:459:28
	ldr	r0, [sp, #120]
	ldr	r1, [sp, #124]
	.loc	20 459 42 is_stmt 0             @ ../MotorControl/encoder.cpp:459:42
	ldr	r2, [sp, #132]
	.loc	20 459 40                       @ ../MotorControl/encoder.cpp:459:40
	bl	__aeabi_ldivmod
	ldr	r1, [sp, #56]                   @ 4-byte Reload
	.loc	20 459 26                       @ ../MotorControl/encoder.cpp:459:26
	str	r0, [r1, #72]
	.loc	20 460 24 is_stmt 1             @ ../MotorControl/encoder.cpp:460:24
	ldr	r3, [sp, #120]
	.loc	20 460 48 is_stmt 0             @ ../MotorControl/encoder.cpp:460:48
	ldr	r0, [r1, #72]
	.loc	20 460 80                       @ ../MotorControl/encoder.cpp:460:80
	ldr	r2, [sp, #132]
	.loc	20 460 36                       @ ../MotorControl/encoder.cpp:460:36
	mls	r0, r0, r2, r3
	.loc	20 460 13                       @ ../MotorControl/encoder.cpp:460:13
	str	r0, [sp, #60]
	.loc	20 461 41 is_stmt 1             @ ../MotorControl/encoder.cpp:461:41
	vldr	s0, [sp, #60]
	vcvt.f32.s32	s0, s0
	.loc	20 461 59 is_stmt 0             @ ../MotorControl/encoder.cpp:461:59
	vldr	s2, [sp, #132]
	vcvt.f32.u32	s2, s2
	.loc	20 461 50                       @ ../MotorControl/encoder.cpp:461:50
	vdiv.f32	s0, s0, s2
	vmov.f32	s2, #5.000000e-01
	.loc	20 461 69                       @ ../MotorControl/encoder.cpp:461:69
	vadd.f32	s0, s0, s2
	.loc	20 461 32                       @ ../MotorControl/encoder.cpp:461:32
	vstr	s0, [r1, #76]
	movs	r0, #1
	.loc	20 463 15 is_stmt 1             @ ../MotorControl/encoder.cpp:463:15
	strb.w	r0, [r1, #143]
	.loc	20 464 5                        @ ../MotorControl/encoder.cpp:464:5
	strb.w	r0, [sp, #199]
	b	.LBB46_63
.LBB46_63:
	.loc	20 465 1                        @ ../MotorControl/encoder.cpp:465:1
	ldrb.w	r0, [sp, #199]
	.loc	20 465 1 epilogue_begin is_stmt 0 @ ../MotorControl/encoder.cpp:465:1
	add	sp, #200
	pop	{r7, pc}
.Ltmp318:
	.p2align	2
@ %bb.64:
	.loc	20 0 1                          @ ../MotorControl/encoder.cpp:0:1
.LCPI46_0:
	.long	0x40490fdb                      @ float 3.14159274
.LCPI46_1:
	.long	0x00000000                      @ float 0
.Lfunc_end46:
	.size	_ZN7Encoder22run_offset_calibrationEv, .Lfunc_end46-_ZN7Encoder22run_offset_calibrationEv
	.cfi_endproc
	.cantunwind
	.fnend
                                        @ -- End function
	.section	.text._ZN22CriticalSectionContextC2Ev,"axG",%progbits,_ZN22CriticalSectionContextC2Ev,comdat
	.hidden	_ZN22CriticalSectionContextC2Ev @ -- Begin function _ZN22CriticalSectionContextC2Ev
	.weak	_ZN22CriticalSectionContextC2Ev
	.p2align	2
	.type	_ZN22CriticalSectionContextC2Ev,%function
	.code	16                              @ @_ZN22CriticalSectionContextC2Ev
	.thumb_func
_ZN22CriticalSectionContextC2Ev:
.Lfunc_begin47:
	.loc	29 56 0 is_stmt 1               @ ../../Firmware\Drivers/STM32/stm32_system.h:56:0
	.fnstart
	.cfi_startproc
@ %bb.0:
	.save	{r7, lr}
	push	{r7, lr}
	.cfi_def_cfa_offset 8
	.cfi_offset lr, -4
	.cfi_offset r7, -8
	.pad	#8
	sub	sp, #8
	.cfi_def_cfa_offset 16
	str	r0, [sp, #4]
	ldr	r0, [sp, #4]
.Ltmp319:
	.loc	29 56 38 prologue_end           @ ../../Firmware\Drivers/STM32/stm32_system.h:56:38
	str	r0, [sp]                        @ 4-byte Spill
	bl	_ZL18cpu_enter_criticalv
	mov	r1, r0
	.loc	29 56 32 is_stmt 0              @ ../../Firmware\Drivers/STM32/stm32_system.h:56:32
	ldr	r0, [sp]                        @ 4-byte Reload
	str	r1, [r0]
	movs	r1, #0
	.loc	29 59 10 is_stmt 1              @ ../../Firmware\Drivers/STM32/stm32_system.h:59:10
	strb	r1, [r0, #4]
	.loc	29 56 61 epilogue_begin         @ ../../Firmware\Drivers/STM32/stm32_system.h:56:61
	add	sp, #8
	pop	{r7, pc}
.Ltmp320:
.Lfunc_end47:
	.size	_ZN22CriticalSectionContextC2Ev, .Lfunc_end47-_ZN22CriticalSectionContextC2Ev
	.cfi_endproc
	.cantunwind
	.fnend
                                        @ -- End function
	.section	.text._ZNSt3__24pairIffEC2B7v180000IffLi0EEEOT_OT0_,"axG",%progbits,_ZNSt3__24pairIffEC2B7v180000IffLi0EEEOT_OT0_,comdat
	.hidden	_ZNSt3__24pairIffEC2B7v180000IffLi0EEEOT_OT0_ @ -- Begin function _ZNSt3__24pairIffEC2B7v180000IffLi0EEEOT_OT0_
	.weak	_ZNSt3__24pairIffEC2B7v180000IffLi0EEEOT_OT0_
	.p2align	2
	.type	_ZNSt3__24pairIffEC2B7v180000IffLi0EEEOT_OT0_,%function
	.code	16                              @ @_ZNSt3__24pairIffEC2B7v180000IffLi0EEEOT_OT0_
	.thumb_func
_ZNSt3__24pairIffEC2B7v180000IffLi0EEEOT_OT0_:
.Lfunc_begin48:
	.loc	30 222 0                        @ D:\Embed\MDK\MDK\ARM\ARMCompilerV621\Bin\..\include\libcxx\__utility/pair.h:222:0
	.fnstart
	.cfi_startproc
@ %bb.0:
	.pad	#12
	sub	sp, #12
	.cfi_def_cfa_offset 12
	str	r0, [sp, #8]
	str	r1, [sp, #4]
	str	r2, [sp]
	ldr	r0, [sp, #8]
.Ltmp321:
	.loc	30 222 35 prologue_end          @ D:\Embed\MDK\MDK\ARM\ARMCompilerV621\Bin\..\include\libcxx\__utility/pair.h:222:35
	ldr	r1, [sp, #4]
	.loc	30 222 17 is_stmt 0             @ D:\Embed\MDK\MDK\ARM\ARMCompilerV621\Bin\..\include\libcxx\__utility/pair.h:222:17
	ldr	r1, [r1]
	.loc	30 222 11                       @ D:\Embed\MDK\MDK\ARM\ARMCompilerV621\Bin\..\include\libcxx\__utility/pair.h:222:11
	str	r1, [r0]
	.loc	30 222 68                       @ D:\Embed\MDK\MDK\ARM\ARMCompilerV621\Bin\..\include\libcxx\__utility/pair.h:222:68
	ldr	r1, [sp]
	.loc	30 222 50                       @ D:\Embed\MDK\MDK\ARM\ARMCompilerV621\Bin\..\include\libcxx\__utility/pair.h:222:50
	ldr	r1, [r1]
	.loc	30 222 43                       @ D:\Embed\MDK\MDK\ARM\ARMCompilerV621\Bin\..\include\libcxx\__utility/pair.h:222:43
	str	r1, [r0, #4]
	.loc	30 222 76 epilogue_begin        @ D:\Embed\MDK\MDK\ARM\ARMCompilerV621\Bin\..\include\libcxx\__utility/pair.h:222:76
	add	sp, #12
	bx	lr
.Ltmp322:
.Lfunc_end48:
	.size	_ZNSt3__24pairIffEC2B7v180000IffLi0EEEOT_OT0_, .Lfunc_end48-_ZNSt3__24pairIffEC2B7v180000IffLi0EEEOT_OT0_
	.cfi_endproc
	.cantunwind
	.fnend
                                        @ -- End function
	.section	.text._ZN10OutputPortINSt3__24pairIffEEEaSES2_,"axG",%progbits,_ZN10OutputPortINSt3__24pairIffEEEaSES2_,comdat
	.hidden	_ZN10OutputPortINSt3__24pairIffEEEaSES2_ @ -- Begin function _ZN10OutputPortINSt3__24pairIffEEEaSES2_
	.weak	_ZN10OutputPortINSt3__24pairIffEEEaSES2_
	.p2align	2
	.type	_ZN10OutputPortINSt3__24pairIffEEEaSES2_,%function
	.code	16                              @ @_ZN10OutputPortINSt3__24pairIffEEEaSES2_
	.thumb_func
_ZN10OutputPortINSt3__24pairIffEEEaSES2_:
.Lfunc_begin49:
	.loc	11 52 0 is_stmt 1               @ ../../Firmware\MotorControl/component.hpp:52:0
	.fnstart
	.cfi_startproc
@ %bb.0:
	.save	{r7, lr}
	push	{r7, lr}
	.cfi_def_cfa_offset 8
	.cfi_offset lr, -4
	.cfi_offset r7, -8
	.pad	#16
	sub	sp, #16
	.cfi_def_cfa_offset 24
                                        @ kill: def $s2 killed $s1
                                        @ kill: def $s2 killed $s0
	vstr	s1, [sp, #12]
	vstr	s0, [sp, #8]
	str	r0, [sp, #4]
	ldr	r0, [sp, #4]
.Ltmp323:
	.loc	11 53 9 prologue_end            @ ../../Firmware\MotorControl/component.hpp:53:9
	str	r0, [sp]                        @ 4-byte Spill
	adds	r0, #4
	add	r1, sp, #8
	.loc	11 53 18 is_stmt 0              @ ../../Firmware\MotorControl/component.hpp:53:18
	bl	_ZNSt3__24pairIffEaSB7v180000ERKS1_
	ldr	r1, [sp]                        @ 4-byte Reload
	movs	r0, #0
	.loc	11 54 14 is_stmt 1              @ ../../Firmware\MotorControl/component.hpp:54:14
	str	r0, [r1]
	.loc	11 55 5 epilogue_begin          @ ../../Firmware\MotorControl/component.hpp:55:5
	add	sp, #16
	pop	{r7, pc}
.Ltmp324:
.Lfunc_end49:
	.size	_ZN10OutputPortINSt3__24pairIffEEEaSES2_, .Lfunc_end49-_ZN10OutputPortINSt3__24pairIffEEEaSES2_
	.cfi_endproc
	.cantunwind
	.fnend
                                        @ -- End function
	.section	.text._ZN10OutputPortIfEaSEf,"axG",%progbits,_ZN10OutputPortIfEaSEf,comdat
	.hidden	_ZN10OutputPortIfEaSEf          @ -- Begin function _ZN10OutputPortIfEaSEf
	.weak	_ZN10OutputPortIfEaSEf
	.p2align	2
	.type	_ZN10OutputPortIfEaSEf,%function
	.code	16                              @ @_ZN10OutputPortIfEaSEf
	.thumb_func
_ZN10OutputPortIfEaSEf:
.Lfunc_begin50:
	.loc	11 52 0                         @ ../../Firmware\MotorControl/component.hpp:52:0
	.fnstart
	.cfi_startproc
@ %bb.0:
	.pad	#8
	sub	sp, #8
	.cfi_def_cfa_offset 8
	str	r0, [sp, #4]
	vstr	s0, [sp]
	ldr	r1, [sp, #4]
.Ltmp325:
	.loc	11 53 20 prologue_end           @ ../../Firmware\MotorControl/component.hpp:53:20
	ldr	r0, [sp]
	.loc	11 53 18 is_stmt 0              @ ../../Firmware\MotorControl/component.hpp:53:18
	str	r0, [r1, #4]
	movs	r0, #0
	.loc	11 54 14 is_stmt 1              @ ../../Firmware\MotorControl/component.hpp:54:14
	str	r0, [r1]
	.loc	11 55 5 epilogue_begin          @ ../../Firmware\MotorControl/component.hpp:55:5
	add	sp, #8
	bx	lr
.Ltmp326:
.Lfunc_end50:
	.size	_ZN10OutputPortIfEaSEf, .Lfunc_end50-_ZN10OutputPortIfEaSEf
	.cfi_endproc
	.cantunwind
	.fnend
                                        @ -- End function
	.section	.text._ZN9InputPortINSt3__24pairIffEEE10connect_toEP10OutputPortIS2_E,"axG",%progbits,_ZN9InputPortINSt3__24pairIffEEE10connect_toEP10OutputPortIS2_E,comdat
	.hidden	_ZN9InputPortINSt3__24pairIffEEE10connect_toEP10OutputPortIS2_E @ -- Begin function _ZN9InputPortINSt3__24pairIffEEE10connect_toEP10OutputPortIS2_E
	.weak	_ZN9InputPortINSt3__24pairIffEEE10connect_toEP10OutputPortIS2_E
	.p2align	2
	.type	_ZN9InputPortINSt3__24pairIffEEE10connect_toEP10OutputPortIS2_E,%function
	.code	16                              @ @_ZN9InputPortINSt3__24pairIffEEE10connect_toEP10OutputPortIS2_E
	.thumb_func
_ZN9InputPortINSt3__24pairIffEEE10connect_toEP10OutputPortIS2_E:
.Lfunc_begin51:
	.loc	11 125 0                        @ ../../Firmware\MotorControl/component.hpp:125:0
	.fnstart
	.cfi_startproc
@ %bb.0:
	.save	{r7, lr}
	push	{r7, lr}
	.cfi_def_cfa_offset 8
	.cfi_offset lr, -4
	.cfi_offset r7, -8
	.pad	#8
	sub	sp, #8
	.cfi_def_cfa_offset 16
	str	r0, [sp, #4]
	str	r1, [sp]
	ldr	r0, [sp, #4]
	mov	r1, sp
.Ltmp327:
	.loc	11 126 18 prologue_end          @ ../../Firmware\MotorControl/component.hpp:126:18
	bl	_ZNSt3__27variantIJNS_4pairIffEEPS2_P10OutputPortIS2_EEEaSB7v180000IRS6_Li0ES6_Lj2ELi0EEERS7_OT_
	.loc	11 127 5 epilogue_begin         @ ../../Firmware\MotorControl/component.hpp:127:5
	add	sp, #8
	pop	{r7, pc}
.Ltmp328:
.Lfunc_end51:
	.size	_ZN9InputPortINSt3__24pairIffEEE10connect_toEP10OutputPortIS2_E, .Lfunc_end51-_ZN9InputPortINSt3__24pairIffEEE10connect_toEP10OutputPortIS2_E
	.cfi_endproc
	.cantunwind
	.fnend
                                        @ -- End function
	.section	.text._ZN9InputPortIfE10connect_toEP10OutputPortIfE,"axG",%progbits,_ZN9InputPortIfE10connect_toEP10OutputPortIfE,comdat
	.hidden	_ZN9InputPortIfE10connect_toEP10OutputPortIfE @ -- Begin function _ZN9InputPortIfE10connect_toEP10OutputPortIfE
	.weak	_ZN9InputPortIfE10connect_toEP10OutputPortIfE
	.p2align	2
	.type	_ZN9InputPortIfE10connect_toEP10OutputPortIfE,%function
	.code	16                              @ @_ZN9InputPortIfE10connect_toEP10OutputPortIfE
	.thumb_func
_ZN9InputPortIfE10connect_toEP10OutputPortIfE:
.Lfunc_begin52:
	.loc	11 125 0                        @ ../../Firmware\MotorControl/component.hpp:125:0
	.fnstart
	.cfi_startproc
@ %bb.0:
	.save	{r7, lr}
	push	{r7, lr}
	.cfi_def_cfa_offset 8
	.cfi_offset lr, -4
	.cfi_offset r7, -8
	.pad	#8
	sub	sp, #8
	.cfi_def_cfa_offset 16
	str	r0, [sp, #4]
	str	r1, [sp]
	ldr	r0, [sp, #4]
	mov	r1, sp
.Ltmp329:
	.loc	11 126 18 prologue_end          @ ../../Firmware\MotorControl/component.hpp:126:18
	bl	_ZNSt3__27variantIJfPfP10OutputPortIfEEEaSB7v180000IRS4_Li0ES4_Lj2ELi0EEERS5_OT_
	.loc	11 127 5 epilogue_begin         @ ../../Firmware\MotorControl/component.hpp:127:5
	add	sp, #8
	pop	{r7, pc}
.Ltmp330:
.Lfunc_end52:
	.size	_ZN9InputPortIfE10connect_toEP10OutputPortIfE, .Lfunc_end52-_ZN9InputPortIfE10connect_toEP10OutputPortIfE
	.cfi_endproc
	.cantunwind
	.fnend
                                        @ -- End function
	.section	.text._ZN22CriticalSectionContextD2Ev,"axG",%progbits,_ZN22CriticalSectionContextD2Ev,comdat
	.hidden	_ZN22CriticalSectionContextD2Ev @ -- Begin function _ZN22CriticalSectionContextD2Ev
	.weak	_ZN22CriticalSectionContextD2Ev
	.p2align	2
	.type	_ZN22CriticalSectionContextD2Ev,%function
	.code	16                              @ @_ZN22CriticalSectionContextD2Ev
	.thumb_func
_ZN22CriticalSectionContextD2Ev:
.Lfunc_begin53:
	.loc	29 57 0                         @ ../../Firmware\Drivers/STM32/stm32_system.h:57:0
	.fnstart
	.cfi_startproc
@ %bb.0:
	.save	{r7, lr}
	push	{r7, lr}
	.cfi_def_cfa_offset 8
	.cfi_offset lr, -4
	.cfi_offset r7, -8
	.pad	#8
	sub	sp, #8
	.cfi_def_cfa_offset 16
	str	r0, [sp, #4]
	ldr	r0, [sp, #4]
.Ltmp331:
	.loc	29 57 51 prologue_end           @ ../../Firmware\Drivers/STM32/stm32_system.h:57:51
	str	r0, [sp]                        @ 4-byte Spill
	ldr	r0, [r0]
	.loc	29 57 33 is_stmt 0              @ ../../Firmware\Drivers/STM32/stm32_system.h:57:33
	bl	_ZL17cpu_exit_criticalj
	ldr	r0, [sp]                        @ 4-byte Reload
.Ltmp332:
	.loc	29 57 59 epilogue_begin         @ ../../Firmware\Drivers/STM32/stm32_system.h:57:59
	add	sp, #8
	pop	{r7, pc}
.Ltmp333:
.Lfunc_end53:
	.size	_ZN22CriticalSectionContextD2Ev, .Lfunc_end53-_ZN22CriticalSectionContextD2Ev
	.cfi_endproc
	.cantunwind
	.fnend
                                        @ -- End function
	.section	.text._ZN10OutputPortIfE3anyEv,"axG",%progbits,_ZN10OutputPortIfE3anyEv,comdat
	.hidden	_ZN10OutputPortIfE3anyEv        @ -- Begin function _ZN10OutputPortIfE3anyEv
	.weak	_ZN10OutputPortIfE3anyEv
	.p2align	2
	.type	_ZN10OutputPortIfE3anyEv,%function
	.code	16                              @ @_ZN10OutputPortIfE3anyEv
	.thumb_func
_ZN10OutputPortIfE3anyEv:
.Lfunc_begin54:
	.loc	11 102 0 is_stmt 1              @ ../../Firmware\MotorControl/component.hpp:102:0
	.fnstart
	.cfi_startproc
@ %bb.0:
	.save	{r7, lr}
	push	{r7, lr}
	.cfi_def_cfa_offset 8
	.cfi_offset lr, -4
	.cfi_offset r7, -8
	.pad	#8
	sub	sp, #8
	.cfi_def_cfa_offset 16
	str	r1, [sp, #4]
	ldr	r1, [sp, #4]
.Ltmp334:
	.loc	11 103 16 prologue_end          @ ../../Firmware\MotorControl/component.hpp:103:16
	adds	r1, #4
	bl	_ZNSt3__28optionalIfEC2B7v180000IRfLi0EEEOT_
	.loc	11 103 9 epilogue_begin is_stmt 0 @ ../../Firmware\MotorControl/component.hpp:103:9
	add	sp, #8
	pop	{r7, pc}
.Ltmp335:
.Lfunc_end54:
	.size	_ZN10OutputPortIfE3anyEv, .Lfunc_end54-_ZN10OutputPortIfE3anyEv
	.cfi_endproc
	.cantunwind
	.fnend
                                        @ -- End function
	.section	.text._ZNOSt3__28optionalIfE8value_orB7v180000IfEEfOT_,"axG",%progbits,_ZNOSt3__28optionalIfE8value_orB7v180000IfEEfOT_,comdat
	.hidden	_ZNOSt3__28optionalIfE8value_orB7v180000IfEEfOT_ @ -- Begin function _ZNOSt3__28optionalIfE8value_orB7v180000IfEEfOT_
	.weak	_ZNOSt3__28optionalIfE8value_orB7v180000IfEEfOT_
	.p2align	2
	.type	_ZNOSt3__28optionalIfE8value_orB7v180000IfEEfOT_,%function
	.code	16                              @ @_ZNOSt3__28optionalIfE8value_orB7v180000IfEEfOT_
	.thumb_func
_ZNOSt3__28optionalIfE8value_orB7v180000IfEEfOT_:
.Lfunc_begin55:
	.loc	12 1106 0 is_stmt 1             @ D:\Embed\MDK\MDK\ARM\ARMCompilerV621\Bin\..\include\libcxx\optional:1106:0
	.fnstart
	.cfi_startproc
@ %bb.0:
	.save	{r7, lr}
	push	{r7, lr}
	.cfi_def_cfa_offset 8
	.cfi_offset lr, -4
	.cfi_offset r7, -8
	.pad	#16
	sub	sp, #16
	.cfi_def_cfa_offset 24
	str	r0, [sp, #12]
	str	r1, [sp, #8]
	ldr	r0, [sp, #12]
.Ltmp336:
	.loc	12 1111 22 prologue_end         @ D:\Embed\MDK\MDK\ARM\ARMCompilerV621\Bin\..\include\libcxx\optional:1111:22
	str	r0, [sp, #4]                    @ 4-byte Spill
	bl	_ZNKSt3__223__optional_storage_baseIfLb0EE9has_valueB7v180000Ev
	.loc	12 1111 16 is_stmt 0            @ D:\Embed\MDK\MDK\ARM\ARMCompilerV621\Bin\..\include\libcxx\optional:1111:16
	cbz	r0, .LBB55_2
	b	.LBB55_1
.LBB55_1:
	.loc	12 1111 54                      @ D:\Embed\MDK\MDK\ARM\ARMCompilerV621\Bin\..\include\libcxx\optional:1111:54
	ldr	r0, [sp, #4]                    @ 4-byte Reload
	bl	_ZNRSt3__223__optional_storage_baseIfLb0EE5__getB7v180000Ev
	.loc	12 1111 36                      @ D:\Embed\MDK\MDK\ARM\ARMCompilerV621\Bin\..\include\libcxx\optional:1111:36
	vldr	s0, [r0]
	vstr	s0, [sp]                        @ 4-byte Spill
	.loc	12 1111 16                      @ D:\Embed\MDK\MDK\ARM\ARMCompilerV621\Bin\..\include\libcxx\optional:1111:16
	b	.LBB55_3
.LBB55_2:
	.loc	12 1112 79 is_stmt 1            @ D:\Embed\MDK\MDK\ARM\ARMCompilerV621\Bin\..\include\libcxx\optional:1112:79
	ldr	r0, [sp, #8]
	.loc	12 1112 59 is_stmt 0            @ D:\Embed\MDK\MDK\ARM\ARMCompilerV621\Bin\..\include\libcxx\optional:1112:59
	vldr	s0, [r0]
	vstr	s0, [sp]                        @ 4-byte Spill
	.loc	12 1111 16 is_stmt 1            @ D:\Embed\MDK\MDK\ARM\ARMCompilerV621\Bin\..\include\libcxx\optional:1111:16
	b	.LBB55_3
.LBB55_3:
	vldr	s0, [sp]                        @ 4-byte Reload
	.loc	12 1111 9 epilogue_begin is_stmt 0 @ D:\Embed\MDK\MDK\ARM\ARMCompilerV621\Bin\..\include\libcxx\optional:1111:9
	add	sp, #16
	pop	{r7, pc}
.Ltmp337:
.Lfunc_end55:
	.size	_ZNOSt3__28optionalIfE8value_orB7v180000IfEEfOT_, .Lfunc_end55-_ZNOSt3__28optionalIfE8value_orB7v180000IfEEfOT_
	.cfi_endproc
	.cantunwind
	.fnend
                                        @ -- End function
	.section	.text._Z3absB7v180000f,"axG",%progbits,_Z3absB7v180000f,comdat
	.hidden	_Z3absB7v180000f                @ -- Begin function _Z3absB7v180000f
	.weak	_Z3absB7v180000f
	.p2align	2
	.type	_Z3absB7v180000f,%function
	.code	16                              @ @_Z3absB7v180000f
	.thumb_func
_Z3absB7v180000f:
.Lfunc_begin56:
	.file	34 "D:\\Embed\\MDK\\MDK\\ARM\\ARMCompilerV621\\Bin\\..\\include\\libcxx" "stdlib.h"
	.loc	34 122 0 is_stmt 1              @ D:\Embed\MDK\MDK\ARM\ARMCompilerV621\Bin\..\include\libcxx\stdlib.h:122:0
	.fnstart
	.cfi_startproc
@ %bb.0:
	.pad	#4
	sub	sp, #4
	.cfi_def_cfa_offset 4
	vstr	s0, [sp]
.Ltmp338:
	.loc	34 123 26 prologue_end          @ D:\Embed\MDK\MDK\ARM\ARMCompilerV621\Bin\..\include\libcxx\stdlib.h:123:26
	vldr	s0, [sp]
	.loc	34 123 10 is_stmt 0             @ D:\Embed\MDK\MDK\ARM\ARMCompilerV621\Bin\..\include\libcxx\stdlib.h:123:10
	vabs.f32	s0, s0
	.loc	34 123 3 epilogue_begin         @ D:\Embed\MDK\MDK\ARM\ARMCompilerV621\Bin\..\include\libcxx\stdlib.h:123:3
	add	sp, #4
	bx	lr
.Ltmp339:
.Lfunc_end56:
	.size	_Z3absB7v180000f, .Lfunc_end56-_Z3absB7v180000f
	.cfi_endproc
	.cantunwind
	.fnend
                                        @ -- End function
	.section	.text._ZN7Encoder10sample_nowEv,"ax",%progbits
	.hidden	_ZN7Encoder10sample_nowEv       @ -- Begin function _ZN7Encoder10sample_nowEv
	.globl	_ZN7Encoder10sample_nowEv
	.p2align	2
	.type	_ZN7Encoder10sample_nowEv,%function
	.code	16                              @ @_ZN7Encoder10sample_nowEv
	.thumb_func
_ZN7Encoder10sample_nowEv:
.Lfunc_begin57:
	.loc	20 479 0 is_stmt 1              @ ../MotorControl/encoder.cpp:479:0
	.fnstart
	.cfi_startproc
@ %bb.0:
	.save	{r7, lr}
	push	{r7, lr}
	.cfi_def_cfa_offset 8
	.cfi_offset lr, -4
	.cfi_offset r7, -8
	.pad	#40
	sub	sp, #40
	.cfi_def_cfa_offset 48
	str	r0, [sp, #36]
	ldr	r0, [sp, #36]
.Ltmp340:
	.loc	20 480 13 prologue_end          @ ../MotorControl/encoder.cpp:480:13
	str	r0, [sp, #8]                    @ 4-byte Spill
	ldrh.w	r0, [r0, #314]
	.loc	20 480 5 is_stmt 0              @ ../MotorControl/encoder.cpp:480:5
	mov	r1, r0
	str	r1, [sp, #12]                   @ 4-byte Spill
	cbz	r0, .LBB57_4
	b	.LBB57_1
.LBB57_1:
	ldr	r0, [sp, #12]                   @ 4-byte Reload
	cmp	r0, #1
	beq	.LBB57_5
	b	.LBB57_2
.LBB57_2:
	ldr	r0, [sp, #12]                   @ 4-byte Reload
	cmp	r0, #2
	beq	.LBB57_6
	b	.LBB57_3
.LBB57_3:
	ldr	r0, [sp, #12]                   @ 4-byte Reload
	sub.w	r0, r0, #256
	cmp	r0, #5
	blo	.LBB57_7
	b	.LBB57_8
.LBB57_4:
.Ltmp341:
	.loc	20 482 40 is_stmt 1             @ ../MotorControl/encoder.cpp:482:40
	ldr	r1, [sp, #8]                    @ 4-byte Reload
	ldr	r0, [r1, #8]
	.loc	20 482 48 is_stmt 0             @ ../MotorControl/encoder.cpp:482:48
	ldr	r0, [r0]
	.loc	20 482 58                       @ ../MotorControl/encoder.cpp:482:58
	ldr	r0, [r0, #36]
	.loc	20 482 29                       @ ../MotorControl/encoder.cpp:482:29
	strh.w	r0, [r1, #234]
.Ltmp342:
	.loc	20 483 11 is_stmt 1             @ ../MotorControl/encoder.cpp:483:11
	b	.LBB57_9
.LBB57_5:
	.loc	20 487 11                       @ ../MotorControl/encoder.cpp:487:11
	b	.LBB57_9
.LBB57_6:
.Ltmp343:
	.loc	20 490 74                       @ ../MotorControl/encoder.cpp:490:74
	ldr	r0, [sp, #8]                    @ 4-byte Reload
	ldrh.w	r1, [r0, #130]
	add	r0, sp, #28
	.loc	20 490 57 is_stmt 0             @ ../MotorControl/encoder.cpp:490:57
	bl	_ZL8get_gpioj
	.loc	20 490 32                       @ ../MotorControl/encoder.cpp:490:32
	ldr	r0, [sp, #28]
	ldr	r1, [sp, #32]
	bl	get_adc_relative_voltage
	ldr	r0, [sp, #8]                    @ 4-byte Reload
	vmov.f32	s2, #5.000000e-01
	vstr	s2, [sp, #4]                    @ 4-byte Spill
	.loc	20 490 96                       @ ../MotorControl/encoder.cpp:490:96
	vsub.f32	s0, s0, s2
	.loc	20 490 30                       @ ../MotorControl/encoder.cpp:490:30
	vstr	s0, [r0, #304]
	.loc	20 491 74 is_stmt 1             @ ../MotorControl/encoder.cpp:491:74
	ldrh.w	r1, [r0, #132]
	add	r0, sp, #20
	.loc	20 491 57 is_stmt 0             @ ../MotorControl/encoder.cpp:491:57
	bl	_ZL8get_gpioj
	.loc	20 491 32                       @ ../MotorControl/encoder.cpp:491:32
	ldr	r0, [sp, #20]
	ldr	r1, [sp, #24]
	bl	get_adc_relative_voltage
	vldr	s2, [sp, #4]                    @ 4-byte Reload
	ldr	r0, [sp, #8]                    @ 4-byte Reload
	.loc	20 491 96                       @ ../MotorControl/encoder.cpp:491:96
	vsub.f32	s0, s0, s2
	.loc	20 491 30                       @ ../MotorControl/encoder.cpp:491:30
	vstr	s0, [r0, #308]
.Ltmp344:
	.loc	20 492 11 is_stmt 1             @ ../MotorControl/encoder.cpp:492:11
	b	.LBB57_9
.LBB57_7:
.Ltmp345:
	.loc	20 500 13                       @ ../MotorControl/encoder.cpp:500:13
	ldr	r0, [sp, #8]                    @ 4-byte Reload
	bl	_ZN7Encoder25abs_spi_start_transactionEv
.Ltmp346:
	.loc	20 502 11                       @ ../MotorControl/encoder.cpp:502:11
	b	.LBB57_9
.LBB57_8:
.Ltmp347:
	.loc	20 505 12                       @ ../MotorControl/encoder.cpp:505:12
	ldr	r0, [sp, #8]                    @ 4-byte Reload
	movs	r1, #8
	bl	_ZN7Encoder9set_errorEN10ODriveIntf11EncoderIntf5ErrorE
.Ltmp348:
	.loc	20 506 11                       @ ../MotorControl/encoder.cpp:506:11
	b	.LBB57_9
.Ltmp349:
.LBB57_9:
	.loc	20 0 11 is_stmt 0               @ ../MotorControl/encoder.cpp:0:11
	movs	r0, #0
.Ltmp350:
	.loc	20 510 17 is_stmt 1             @ ../MotorControl/encoder.cpp:510:17
	str	r0, [sp, #16]
	.loc	20 510 10 is_stmt 0             @ ../MotorControl/encoder.cpp:510:10
	b	.LBB57_10
.LBB57_10:                              @ =>This Inner Loop Header: Depth=1
.Ltmp351:
	.loc	20 510 24                       @ ../MotorControl/encoder.cpp:510:24
	ldr	r0, [sp, #16]
.Ltmp352:
	.loc	20 510 5                        @ ../MotorControl/encoder.cpp:510:5
	cmp	r0, #2
	bhi	.LBB57_13
	b	.LBB57_11
.LBB57_11:                              @   in Loop: Header=BB57_10 Depth=1
.Ltmp353:
	.loc	20 511 44 is_stmt 1             @ ../MotorControl/encoder.cpp:511:44
	ldr	r1, [sp, #8]                    @ 4-byte Reload
	ldr	r2, [sp, #16]
	.loc	20 511 28 is_stmt 0             @ ../MotorControl/encoder.cpp:511:28
	movw	r0, :lower16:_ZN7Encoder15ports_to_sampleE
	movt	r0, :upper16:_ZN7Encoder15ports_to_sampleE
	ldr.w	r0, [r0, r2, lsl #2]
	.loc	20 511 48                       @ ../MotorControl/encoder.cpp:511:48
	ldr	r0, [r0, #16]
	.loc	20 511 23                       @ ../MotorControl/encoder.cpp:511:23
	ldr	r2, [sp, #16]
	.loc	20 511 9                        @ ../MotorControl/encoder.cpp:511:9
	add.w	r1, r1, r2, lsl #1
	.loc	20 511 26                       @ ../MotorControl/encoder.cpp:511:26
	strh.w	r0, [r1, #236]
	.loc	20 512 5 is_stmt 1              @ ../MotorControl/encoder.cpp:512:5
	b	.LBB57_12
.Ltmp354:
.LBB57_12:                              @   in Loop: Header=BB57_10 Depth=1
	.loc	20 510 82                       @ ../MotorControl/encoder.cpp:510:82
	ldr	r0, [sp, #16]
	adds	r0, #1
	str	r0, [sp, #16]
	.loc	20 510 5 is_stmt 0              @ ../MotorControl/encoder.cpp:510:5
	b	.LBB57_10
.Ltmp355:
.LBB57_13:
	.loc	20 513 1 epilogue_begin is_stmt 1 @ ../MotorControl/encoder.cpp:513:1
	add	sp, #40
	pop	{r7, pc}
.Ltmp356:
.Lfunc_end57:
	.size	_ZN7Encoder10sample_nowEv, .Lfunc_end57-_ZN7Encoder10sample_nowEv
	.cfi_endproc
	.cantunwind
	.fnend
                                        @ -- End function
	.section	.text._ZL8get_gpioj,"ax",%progbits
	.p2align	2                               @ -- Begin function _ZL8get_gpioj
	.type	_ZL8get_gpioj,%function
	.code	16                              @ @_ZL8get_gpioj
	.thumb_func
_ZL8get_gpioj:
.Lfunc_begin58:
	.file	35 "D:\\ikingtec\\Robot\\ODrive\\Firmware\\MDK-ARM" "../MotorControl/odrive_main.h"
	.loc	35 167 0                        @ ../MotorControl/odrive_main.h:167:0
	.fnstart
	.cfi_startproc
@ %bb.0:
	.pad	#12
	sub	sp, #12
	.cfi_def_cfa_offset 12
	str	r0, [sp, #4]                    @ 4-byte Spill
	str	r1, [sp, #8]
.Ltmp357:
	.loc	35 168 13 prologue_end          @ ../MotorControl/odrive_main.h:168:13
	ldr	r0, [sp, #8]
	.loc	35 168 12 is_stmt 0             @ ../MotorControl/odrive_main.h:168:12
	cmp	r0, #16
	bhi	.LBB58_2
	b	.LBB58_1
.LBB58_1:
	.loc	35 168 44                       @ ../MotorControl/odrive_main.h:168:44
	ldr	r1, [sp, #8]
	.loc	35 168 38                       @ ../MotorControl/odrive_main.h:168:38
	movw	r0, :lower16:gpios
	movt	r0, :upper16:gpios
	add.w	r0, r0, r1, lsl #3
	.loc	35 168 12                       @ ../MotorControl/odrive_main.h:168:12
	str	r0, [sp]                        @ 4-byte Spill
	b	.LBB58_3
.LBB58_2:
	.loc	35 0 12                         @ ../MotorControl/odrive_main.h:0:12
	movw	r0, :lower16:gpios
	movt	r0, :upper16:gpios
	.loc	35 168 12                       @ ../MotorControl/odrive_main.h:168:12
	str	r0, [sp]                        @ 4-byte Spill
	b	.LBB58_3
.LBB58_3:
	ldr	r1, [sp, #4]                    @ 4-byte Reload
	ldr	r2, [sp]                        @ 4-byte Reload
	ldr	r0, [r2]
	ldr	r2, [r2, #4]
	str	r2, [r1, #4]
	str	r0, [r1]
	.loc	35 168 5 epilogue_begin         @ ../MotorControl/odrive_main.h:168:5
	add	sp, #12
	bx	lr
.Ltmp358:
.Lfunc_end58:
	.size	_ZL8get_gpioj, .Lfunc_end58-_ZL8get_gpioj
	.cfi_endproc
	.cantunwind
	.fnend
                                        @ -- End function
	.section	.text._ZN7Encoder25abs_spi_start_transactionEv,"ax",%progbits
	.hidden	_ZN7Encoder25abs_spi_start_transactionEv @ -- Begin function _ZN7Encoder25abs_spi_start_transactionEv
	.globl	_ZN7Encoder25abs_spi_start_transactionEv
	.p2align	2
	.type	_ZN7Encoder25abs_spi_start_transactionEv,%function
	.code	16                              @ @_ZN7Encoder25abs_spi_start_transactionEv
	.thumb_func
_ZN7Encoder25abs_spi_start_transactionEv:
.Lfunc_begin59:
	.loc	20 530 0 is_stmt 1              @ ../MotorControl/encoder.cpp:530:0
	.fnstart
	.cfi_startproc
@ %bb.0:
	.save	{r7, lr}
	push	{r7, lr}
	.cfi_def_cfa_offset 8
	.cfi_offset lr, -4
	.cfi_offset r7, -8
	.pad	#24
	sub	sp, #24
	.cfi_def_cfa_offset 32
	str	r0, [sp, #16]
	ldr	r0, [sp, #16]
.Ltmp359:
	.loc	20 531 9 prologue_end           @ ../MotorControl/encoder.cpp:531:9
	str	r0, [sp, #8]                    @ 4-byte Spill
	ldrh.w	r0, [r0, #314]
.Ltmp360:
	.loc	20 531 9 is_stmt 0              @ ../MotorControl/encoder.cpp:531:9
	lsls	r0, r0, #23
	cmp	r0, #0
	bpl	.LBB59_5
	b	.LBB59_1
.LBB59_1:
.Ltmp361:
	.loc	20 532 44 is_stmt 1             @ ../MotorControl/encoder.cpp:532:44
	ldr	r0, [sp, #8]                    @ 4-byte Reload
	add.w	r0, r0, #336
	.loc	20 532 13 is_stmt 0             @ ../MotorControl/encoder.cpp:532:13
	bl	_ZN15Stm32SpiArbiter12acquire_taskEPNS_7SpiTaskE
.Ltmp362:
	.loc	20 532 13                       @ ../MotorControl/encoder.cpp:532:13
	cbz	r0, .LBB59_3
	b	.LBB59_2
.LBB59_2:
.Ltmp363:
	.loc	20 533 13 is_stmt 1             @ ../MotorControl/encoder.cpp:533:13
	ldr	r1, [sp, #8]                    @ 4-byte Reload
	add.w	r0, r1, #336
	.loc	20 533 32 is_stmt 0             @ ../MotorControl/encoder.cpp:533:32
	str	r0, [sp, #4]                    @ 4-byte Spill
	ldrh.w	r0, [r1, #320]
	strh.w	r0, [r1, #384]
	ldr.w	r0, [r1, #316]
	str.w	r0, [r1, #380]
	.loc	20 534 42 is_stmt 1             @ ../MotorControl/encoder.cpp:534:42
	add.w	r0, r1, #332
	.loc	20 534 30 is_stmt 0             @ ../MotorControl/encoder.cpp:534:30
	str.w	r0, [r1, #388]
	.loc	20 535 42 is_stmt 1             @ ../MotorControl/encoder.cpp:535:42
	add.w	r0, r1, #334
	.loc	20 535 30 is_stmt 0             @ ../MotorControl/encoder.cpp:535:30
	str.w	r0, [r1, #392]
	movs	r0, #1
	.loc	20 536 30 is_stmt 1             @ ../MotorControl/encoder.cpp:536:30
	str.w	r0, [r1, #396]
	add.w	r0, sp, #15
	.loc	20 537 37                       @ ../MotorControl/encoder.cpp:537:37
	bl	_ZZN7Encoder25abs_spi_start_transactionEvENK3$_0cvPFvPvbEEv
	ldr	r1, [sp, #4]                    @ 4-byte Reload
	mov	r2, r0
	.loc	20 537 35 is_stmt 0             @ ../MotorControl/encoder.cpp:537:35
	ldr	r0, [sp, #8]                    @ 4-byte Reload
	str.w	r2, [r0, #400]
	.loc	20 538 39 is_stmt 1             @ ../MotorControl/encoder.cpp:538:39
	str.w	r0, [r0, #404]
	movs	r2, #0
	.loc	20 539 28                       @ ../MotorControl/encoder.cpp:539:28
	str.w	r2, [r0, #412]
	.loc	20 541 13                       @ ../MotorControl/encoder.cpp:541:13
	ldr	r0, [r0, #44]
	.loc	20 541 27 is_stmt 0             @ ../MotorControl/encoder.cpp:541:27
	bl	_ZN15Stm32SpiArbiter14transfer_asyncEPNS_7SpiTaskE
	.loc	20 542 9 is_stmt 1              @ ../MotorControl/encoder.cpp:542:9
	b	.LBB59_4
.Ltmp364:
.LBB59_3:
	.loc	20 0 9 is_stmt 0                @ ../MotorControl/encoder.cpp:0:9
	movs	r0, #0
.Ltmp365:
	.loc	20 543 13 is_stmt 1             @ ../MotorControl/encoder.cpp:543:13
	strb.w	r0, [sp, #23]
	b	.LBB59_6
.Ltmp366:
.LBB59_4:
	.loc	20 545 5                        @ ../MotorControl/encoder.cpp:545:5
	b	.LBB59_5
.Ltmp367:
.LBB59_5:
	.loc	20 0 5 is_stmt 0                @ ../MotorControl/encoder.cpp:0:5
	movs	r0, #1
	.loc	20 546 5 is_stmt 1              @ ../MotorControl/encoder.cpp:546:5
	strb.w	r0, [sp, #23]
	b	.LBB59_6
.LBB59_6:
	.loc	20 547 1                        @ ../MotorControl/encoder.cpp:547:1
	ldrb.w	r0, [sp, #23]
	.loc	20 547 1 epilogue_begin is_stmt 0 @ ../MotorControl/encoder.cpp:547:1
	add	sp, #24
	pop	{r7, pc}
.Ltmp368:
.Lfunc_end59:
	.size	_ZN7Encoder25abs_spi_start_transactionEv, .Lfunc_end59-_ZN7Encoder25abs_spi_start_transactionEv
	.cfi_endproc
	.cantunwind
	.fnend
                                        @ -- End function
	.section	.text._ZN7Encoder17read_sampled_gpioE9Stm32Gpio,"ax",%progbits
	.hidden	_ZN7Encoder17read_sampled_gpioE9Stm32Gpio @ -- Begin function _ZN7Encoder17read_sampled_gpioE9Stm32Gpio
	.globl	_ZN7Encoder17read_sampled_gpioE9Stm32Gpio
	.p2align	2
	.type	_ZN7Encoder17read_sampled_gpioE9Stm32Gpio,%function
	.code	16                              @ @_ZN7Encoder17read_sampled_gpioE9Stm32Gpio
	.thumb_func
_ZN7Encoder17read_sampled_gpioE9Stm32Gpio:
.Lfunc_begin60:
	.loc	20 515 0 is_stmt 1              @ ../MotorControl/encoder.cpp:515:0
	.fnstart
	.cfi_startproc
@ %bb.0:
	.pad	#24
	sub	sp, #24
	.cfi_def_cfa_offset 24
                                        @ kill: def $r3 killed $r2
                                        @ kill: def $r3 killed $r1
	str	r2, [sp, #16]
	str	r1, [sp, #12]
	str	r0, [sp, #8]
	ldr	r0, [sp, #8]
	str	r0, [sp]                        @ 4-byte Spill
	movs	r0, #0
.Ltmp369:
	.loc	20 516 17 prologue_end          @ ../MotorControl/encoder.cpp:516:17
	str	r0, [sp, #4]
	.loc	20 516 10 is_stmt 0             @ ../MotorControl/encoder.cpp:516:10
	b	.LBB60_1
.LBB60_1:                               @ =>This Inner Loop Header: Depth=1
.Ltmp370:
	.loc	20 516 24                       @ ../MotorControl/encoder.cpp:516:24
	ldr	r0, [sp, #4]
.Ltmp371:
	.loc	20 516 5                        @ ../MotorControl/encoder.cpp:516:5
	cmp	r0, #2
	bhi	.LBB60_6
	b	.LBB60_2
.LBB60_2:                               @   in Loop: Header=BB60_1 Depth=1
.Ltmp372:
	.loc	20 517 29 is_stmt 1             @ ../MotorControl/encoder.cpp:517:29
	ldr	r1, [sp, #4]
	.loc	20 517 13 is_stmt 0             @ ../MotorControl/encoder.cpp:517:13
	movw	r0, :lower16:_ZN7Encoder15ports_to_sampleE
	movt	r0, :upper16:_ZN7Encoder15ports_to_sampleE
	ldr.w	r0, [r0, r1, lsl #2]
	.loc	20 517 40                       @ ../MotorControl/encoder.cpp:517:40
	ldr	r1, [sp, #12]
.Ltmp373:
	.loc	20 517 13                       @ ../MotorControl/encoder.cpp:517:13
	cmp	r0, r1
	bne	.LBB60_4
	b	.LBB60_3
.LBB60_3:
.Ltmp374:
	.loc	20 518 34 is_stmt 1             @ ../MotorControl/encoder.cpp:518:34
	ldr	r0, [sp]                        @ 4-byte Reload
	ldr	r1, [sp, #4]
	.loc	20 518 20 is_stmt 0             @ ../MotorControl/encoder.cpp:518:20
	add.w	r0, r0, r1, lsl #1
	ldrh.w	r0, [r0, #236]
	.loc	20 518 44                       @ ../MotorControl/encoder.cpp:518:44
	ldrh.w	r1, [sp, #16]
	.loc	20 518 37                       @ ../MotorControl/encoder.cpp:518:37
	ands	r0, r1
	.loc	20 518 20                       @ ../MotorControl/encoder.cpp:518:20
	cmp	r0, #0
	it	ne
	movne	r0, #1
	.loc	20 518 13                       @ ../MotorControl/encoder.cpp:518:13
	strb.w	r0, [sp, #23]
	b	.LBB60_7
.Ltmp375:
.LBB60_4:                               @   in Loop: Header=BB60_1 Depth=1
	.loc	20 520 5 is_stmt 1              @ ../MotorControl/encoder.cpp:520:5
	b	.LBB60_5
.Ltmp376:
.LBB60_5:                               @   in Loop: Header=BB60_1 Depth=1
	.loc	20 516 82                       @ ../MotorControl/encoder.cpp:516:82
	ldr	r0, [sp, #4]
	adds	r0, #1
	str	r0, [sp, #4]
	.loc	20 516 5 is_stmt 0              @ ../MotorControl/encoder.cpp:516:5
	b	.LBB60_1
.Ltmp377:
.LBB60_6:
	.loc	20 0 5                          @ ../MotorControl/encoder.cpp:0:5
	movs	r0, #0
	.loc	20 521 5 is_stmt 1              @ ../MotorControl/encoder.cpp:521:5
	strb.w	r0, [sp, #23]
	b	.LBB60_7
.LBB60_7:
	.loc	20 522 1                        @ ../MotorControl/encoder.cpp:522:1
	ldrb.w	r0, [sp, #23]
	.loc	20 522 1 epilogue_begin is_stmt 0 @ ../MotorControl/encoder.cpp:522:1
	add	sp, #24
	bx	lr
.Ltmp378:
.Lfunc_end60:
	.size	_ZN7Encoder17read_sampled_gpioE9Stm32Gpio, .Lfunc_end60-_ZN7Encoder17read_sampled_gpioE9Stm32Gpio
	.cfi_endproc
	.cantunwind
	.fnend
                                        @ -- End function
	.section	.text._ZN7Encoder19decode_hall_samplesEv,"ax",%progbits
	.hidden	_ZN7Encoder19decode_hall_samplesEv @ -- Begin function _ZN7Encoder19decode_hall_samplesEv
	.globl	_ZN7Encoder19decode_hall_samplesEv
	.p2align	2
	.type	_ZN7Encoder19decode_hall_samplesEv,%function
	.code	16                              @ @_ZN7Encoder19decode_hall_samplesEv
	.thumb_func
_ZN7Encoder19decode_hall_samplesEv:
.Lfunc_begin61:
	.loc	20 524 0 is_stmt 1              @ ../MotorControl/encoder.cpp:524:0
	.fnstart
	.cfi_startproc
@ %bb.0:
	.save	{r7, lr}
	push	{r7, lr}
	.cfi_def_cfa_offset 8
	.cfi_offset lr, -4
	.cfi_offset r7, -8
	.pad	#40
	sub	sp, #40
	.cfi_def_cfa_offset 48
	str	r0, [sp, #36]
	ldr	r0, [sp, #36]
.Ltmp379:
	.loc	20 525 38 prologue_end          @ ../MotorControl/encoder.cpp:525:38
	str	r0, [sp, #4]                    @ 4-byte Spill
	ldr	r1, [r0, #20]
	ldr	r2, [r0, #24]
	str	r2, [sp, #32]
	str	r1, [sp, #28]
	.loc	20 525 20 is_stmt 0             @ ../MotorControl/encoder.cpp:525:20
	ldr	r1, [sp, #28]
	ldr	r2, [sp, #32]
	bl	_ZN7Encoder17read_sampled_gpioE9Stm32Gpio
	mov	r1, r0
	.loc	20 526 38 is_stmt 1             @ ../MotorControl/encoder.cpp:526:38
	ldr	r0, [sp, #4]                    @ 4-byte Reload
	str	r1, [sp]                        @ 4-byte Spill
	ldr	r1, [r0, #28]
	ldr	r2, [r0, #32]
	str	r2, [sp, #24]
	str	r1, [sp, #20]
	.loc	20 526 20 is_stmt 0             @ ../MotorControl/encoder.cpp:526:20
	ldr	r1, [sp, #20]
	ldr	r2, [sp, #24]
	bl	_ZN7Encoder17read_sampled_gpioE9Stm32Gpio
	ldr	r2, [sp]                        @ 4-byte Reload
	mov	r1, r0
	ldr	r0, [sp, #4]                    @ 4-byte Reload
	cmp	r1, #0
	it	ne
	movne	r1, #2
	.loc	20 525 20 is_stmt 1             @ ../MotorControl/encoder.cpp:525:20
	bfi	r1, r2, #0, #1
	.loc	20 527 38                       @ ../MotorControl/encoder.cpp:527:38
	str	r1, [sp, #8]                    @ 4-byte Spill
	ldr	r1, [r0, #36]
	ldr	r2, [r0, #40]
	str	r2, [sp, #16]
	str	r1, [sp, #12]
	.loc	20 527 20 is_stmt 0             @ ../MotorControl/encoder.cpp:527:20
	ldr	r1, [sp, #12]
	ldr	r2, [sp, #16]
	bl	_ZN7Encoder17read_sampled_gpioE9Stm32Gpio
	ldr	r1, [sp, #4]                    @ 4-byte Reload
	mov	r2, r0
	ldr	r0, [sp, #8]                    @ 4-byte Reload
	bfi	r0, r2, #2, #1
	.loc	20 525 17 is_stmt 1             @ ../MotorControl/encoder.cpp:525:17
	strb.w	r0, [r1, #242]
	.loc	20 528 1 epilogue_begin         @ ../MotorControl/encoder.cpp:528:1
	add	sp, #40
	pop	{r7, pc}
.Ltmp380:
.Lfunc_end61:
	.size	_ZN7Encoder19decode_hall_samplesEv, .Lfunc_end61-_ZN7Encoder19decode_hall_samplesEv
	.cfi_endproc
	.cantunwind
	.fnend
                                        @ -- End function
	.section	".text._ZZN7Encoder25abs_spi_start_transactionEvENK3$_0cvPFvPvbEEv","ax",%progbits
	.p2align	2                               @ -- Begin function _ZZN7Encoder25abs_spi_start_transactionEvENK3$_0cvPFvPvbEEv
	.type	_ZZN7Encoder25abs_spi_start_transactionEvENK3$_0cvPFvPvbEEv,%function
	.code	16                              @ @"_ZZN7Encoder25abs_spi_start_transactionEvENK3$_0cvPFvPvbEEv"
	.thumb_func
_ZZN7Encoder25abs_spi_start_transactionEvENK3$_0cvPFvPvbEEv:
.Lfunc_begin62:
	.loc	20 537 0                        @ ../MotorControl/encoder.cpp:537:0
	.fnstart
	.cfi_startproc
@ %bb.0:
	.pad	#4
	sub	sp, #4
	.cfi_def_cfa_offset 4
	str	r0, [sp]
.Ltmp381:
	.loc	20 537 37 prologue_end          @ ../MotorControl/encoder.cpp:537:37
	movw	r0, :lower16:_ZZN7Encoder25abs_spi_start_transactionEvEN3$_08__invokeEPvb
	movt	r0, :upper16:_ZZN7Encoder25abs_spi_start_transactionEvEN3$_08__invokeEPvb
	.loc	20 537 37 epilogue_begin is_stmt 0 @ ../MotorControl/encoder.cpp:537:37
	add	sp, #4
	bx	lr
.Ltmp382:
.Lfunc_end62:
	.size	_ZZN7Encoder25abs_spi_start_transactionEvENK3$_0cvPFvPvbEEv, .Lfunc_end62-_ZZN7Encoder25abs_spi_start_transactionEvENK3$_0cvPFvPvbEEv
	.cfi_endproc
	.cantunwind
	.fnend
                                        @ -- End function
	.section	.text._Z10ams_parityt,"ax",%progbits
	.hidden	_Z10ams_parityt                 @ -- Begin function _Z10ams_parityt
	.globl	_Z10ams_parityt
	.p2align	2
	.type	_Z10ams_parityt,%function
	.code	16                              @ @_Z10ams_parityt
	.thumb_func
_Z10ams_parityt:
.Lfunc_begin63:
	.loc	20 549 0 is_stmt 1              @ ../MotorControl/encoder.cpp:549:0
	.fnstart
	.cfi_startproc
@ %bb.0:
	.pad	#4
	sub	sp, #4
	.cfi_def_cfa_offset 4
                                        @ kill: def $r1 killed $r0
	strh.w	r0, [sp, #2]
.Ltmp383:
	.loc	20 550 10 prologue_end          @ ../MotorControl/encoder.cpp:550:10
	ldrh.w	r0, [sp, #2]
	.loc	20 550 7 is_stmt 0              @ ../MotorControl/encoder.cpp:550:7
	eor.w	r0, r0, r0, lsr #8
	strh.w	r0, [sp, #2]
	.loc	20 551 10 is_stmt 1             @ ../MotorControl/encoder.cpp:551:10
	ldrh.w	r0, [sp, #2]
	.loc	20 551 7 is_stmt 0              @ ../MotorControl/encoder.cpp:551:7
	eor.w	r0, r0, r0, lsr #4
	strh.w	r0, [sp, #2]
	.loc	20 552 10 is_stmt 1             @ ../MotorControl/encoder.cpp:552:10
	ldrh.w	r0, [sp, #2]
	.loc	20 552 7 is_stmt 0              @ ../MotorControl/encoder.cpp:552:7
	eor.w	r0, r0, r0, lsr #2
	strh.w	r0, [sp, #2]
	.loc	20 553 10 is_stmt 1             @ ../MotorControl/encoder.cpp:553:10
	ldrh.w	r0, [sp, #2]
	.loc	20 553 7 is_stmt 0              @ ../MotorControl/encoder.cpp:553:7
	eor.w	r0, r0, r0, lsr #1
	strh.w	r0, [sp, #2]
	.loc	20 554 12 is_stmt 1             @ ../MotorControl/encoder.cpp:554:12
	ldrh.w	r0, [sp, #2]
	.loc	20 554 14 is_stmt 0             @ ../MotorControl/encoder.cpp:554:14
	and	r0, r0, #1
	.loc	20 554 5 epilogue_begin         @ ../MotorControl/encoder.cpp:554:5
	add	sp, #4
	bx	lr
.Ltmp384:
.Lfunc_end63:
	.size	_Z10ams_parityt, .Lfunc_end63-_Z10ams_parityt
	.cfi_endproc
	.cantunwind
	.fnend
                                        @ -- End function
	.section	.text._Z10cui_parityt,"ax",%progbits
	.hidden	_Z10cui_parityt                 @ -- Begin function _Z10cui_parityt
	.globl	_Z10cui_parityt
	.p2align	2
	.type	_Z10cui_parityt,%function
	.code	16                              @ @_Z10cui_parityt
	.thumb_func
_Z10cui_parityt:
.Lfunc_begin64:
	.loc	20 557 0 is_stmt 1              @ ../MotorControl/encoder.cpp:557:0
	.fnstart
	.cfi_startproc
@ %bb.0:
	.pad	#4
	sub	sp, #4
	.cfi_def_cfa_offset 4
                                        @ kill: def $r1 killed $r0
	strh.w	r0, [sp, #2]
.Ltmp385:
	.loc	20 558 10 prologue_end          @ ../MotorControl/encoder.cpp:558:10
	ldrh.w	r0, [sp, #2]
	.loc	20 558 7 is_stmt 0              @ ../MotorControl/encoder.cpp:558:7
	eor.w	r0, r0, r0, lsr #8
	strh.w	r0, [sp, #2]
	.loc	20 559 10 is_stmt 1             @ ../MotorControl/encoder.cpp:559:10
	ldrh.w	r0, [sp, #2]
	.loc	20 559 7 is_stmt 0              @ ../MotorControl/encoder.cpp:559:7
	eor.w	r0, r0, r0, lsr #4
	strh.w	r0, [sp, #2]
	.loc	20 560 10 is_stmt 1             @ ../MotorControl/encoder.cpp:560:10
	ldrh.w	r0, [sp, #2]
	.loc	20 560 7 is_stmt 0              @ ../MotorControl/encoder.cpp:560:7
	eor.w	r0, r0, r0, lsr #2
	strh.w	r0, [sp, #2]
	.loc	20 561 13 is_stmt 1             @ ../MotorControl/encoder.cpp:561:13
	ldrh.w	r1, [sp, #2]
	movs	r0, #3
	.loc	20 561 15 is_stmt 0             @ ../MotorControl/encoder.cpp:561:15
	bics	r0, r1
	.loc	20 561 5 epilogue_begin         @ ../MotorControl/encoder.cpp:561:5
	add	sp, #4
	bx	lr
.Ltmp386:
.Lfunc_end64:
	.size	_Z10cui_parityt, .Lfunc_end64-_Z10cui_parityt
	.cfi_endproc
	.cantunwind
	.fnend
                                        @ -- End function
	.section	.text._ZN7Encoder10abs_spi_cbEb,"ax",%progbits
	.hidden	_ZN7Encoder10abs_spi_cbEb       @ -- Begin function _ZN7Encoder10abs_spi_cbEb
	.globl	_ZN7Encoder10abs_spi_cbEb
	.p2align	2
	.type	_ZN7Encoder10abs_spi_cbEb,%function
	.code	16                              @ @_ZN7Encoder10abs_spi_cbEb
	.thumb_func
_ZN7Encoder10abs_spi_cbEb:
.Lfunc_begin65:
	.loc	20 564 0 is_stmt 1              @ ../MotorControl/encoder.cpp:564:0
	.fnstart
	.cfi_startproc
@ %bb.0:
	.save	{r7, lr}
	push	{r7, lr}
	.cfi_def_cfa_offset 8
	.cfi_offset lr, -4
	.cfi_offset r7, -8
	.pad	#24
	sub	sp, #24
	.cfi_def_cfa_offset 32
                                        @ kill: def $r2 killed $r1
	str	r0, [sp, #20]
	strb.w	r1, [sp, #19]
	ldr	r0, [sp, #20]
.Ltmp387:
	.loc	20 567 10 prologue_end          @ ../MotorControl/encoder.cpp:567:10
	str	r0, [sp, #4]                    @ 4-byte Spill
	ldrb.w	r0, [sp, #19]
.Ltmp388:
	.loc	20 567 9 is_stmt 0              @ ../MotorControl/encoder.cpp:567:9
	lsls	r0, r0, #31
	cbnz	r0, .LBB65_2
	b	.LBB65_1
.LBB65_1:
.Ltmp389:
	.loc	20 568 9 is_stmt 1              @ ../MotorControl/encoder.cpp:568:9
	b	.LBB65_18
.Ltmp390:
.LBB65_2:
	.loc	20 571 13                       @ ../MotorControl/encoder.cpp:571:13
	ldr	r0, [sp, #4]                    @ 4-byte Reload
	ldrh.w	r0, [r0, #314]
	.loc	20 571 5 is_stmt 0              @ ../MotorControl/encoder.cpp:571:5
	sub.w	r0, r0, #256
	mov	r1, r0
	str	r1, [sp]                        @ 4-byte Spill
	cmp	r0, #4
	bhi	.LBB65_14
@ %bb.3:
	.loc	20 0 5                          @ ../MotorControl/encoder.cpp:0:5
	ldr	r1, [sp]                        @ 4-byte Reload
.LCPI65_0:
	tbb	[pc, r1]
@ %bb.4:
.LJTI65_0:
	.byte	(.LBB65_9-(.LCPI65_0+4))/2
	.byte	(.LBB65_5-(.LCPI65_0+4))/2
	.byte	(.LBB65_14-(.LCPI65_0+4))/2
	.byte	(.LBB65_12-(.LCPI65_0+4))/2
	.byte	(.LBB65_13-(.LCPI65_0+4))/2
	.p2align	1
.LBB65_5:
.Ltmp391:
	.loc	20 573 31 is_stmt 1             @ ../MotorControl/encoder.cpp:573:31
	ldr	r0, [sp, #4]                    @ 4-byte Reload
	ldrh.w	r0, [r0, #334]
	.loc	20 573 22 is_stmt 0             @ ../MotorControl/encoder.cpp:573:22
	strh.w	r0, [sp, #14]
.Ltmp392:
	.loc	20 575 28 is_stmt 1             @ ../MotorControl/encoder.cpp:575:28
	ldrh.w	r0, [sp, #14]
	.loc	20 575 17 is_stmt 0             @ ../MotorControl/encoder.cpp:575:17
	bl	_Z10ams_parityt
	.loc	20 575 36                       @ ../MotorControl/encoder.cpp:575:36
	cbnz	r0, .LBB65_7
	b	.LBB65_6
.LBB65_6:
	.loc	20 575 41                       @ ../MotorControl/encoder.cpp:575:41
	ldrh.w	r0, [sp, #14]
	.loc	20 575 48                       @ ../MotorControl/encoder.cpp:575:48
	lsrs	r0, r0, #14
.Ltmp393:
	.loc	20 575 17                       @ ../MotorControl/encoder.cpp:575:17
	lsls	r0, r0, #31
	cbz	r0, .LBB65_8
	b	.LBB65_7
.LBB65_7:
.Ltmp394:
	.loc	20 576 17 is_stmt 1             @ ../MotorControl/encoder.cpp:576:17
	b	.LBB65_18
.Ltmp395:
.LBB65_8:
	.loc	20 578 19                       @ ../MotorControl/encoder.cpp:578:19
	ldrh.w	r0, [sp, #14]
	.loc	20 578 26 is_stmt 0             @ ../MotorControl/encoder.cpp:578:26
	bfc	r0, #14, #18
	.loc	20 578 17                       @ ../MotorControl/encoder.cpp:578:17
	strh.w	r0, [sp, #16]
.Ltmp396:
	.loc	20 579 11 is_stmt 1             @ ../MotorControl/encoder.cpp:579:11
	b	.LBB65_15
.LBB65_9:
.Ltmp397:
	.loc	20 582 31                       @ ../MotorControl/encoder.cpp:582:31
	ldr	r0, [sp, #4]                    @ 4-byte Reload
	ldrh.w	r0, [r0, #334]
	.loc	20 582 22 is_stmt 0             @ ../MotorControl/encoder.cpp:582:22
	strh.w	r0, [sp, #12]
.Ltmp398:
	.loc	20 584 28 is_stmt 1             @ ../MotorControl/encoder.cpp:584:28
	ldrh.w	r0, [sp, #12]
	.loc	20 584 17 is_stmt 0             @ ../MotorControl/encoder.cpp:584:17
	bl	_Z10cui_parityt
.Ltmp399:
	.loc	20 584 17                       @ ../MotorControl/encoder.cpp:584:17
	cbz	r0, .LBB65_11
	b	.LBB65_10
.LBB65_10:
.Ltmp400:
	.loc	20 585 17 is_stmt 1             @ ../MotorControl/encoder.cpp:585:17
	b	.LBB65_18
.Ltmp401:
.LBB65_11:
	.loc	20 587 19                       @ ../MotorControl/encoder.cpp:587:19
	ldrh.w	r0, [sp, #12]
	.loc	20 587 26 is_stmt 0             @ ../MotorControl/encoder.cpp:587:26
	bfc	r0, #14, #18
	.loc	20 587 17                       @ ../MotorControl/encoder.cpp:587:17
	strh.w	r0, [sp, #16]
.Ltmp402:
	.loc	20 588 11 is_stmt 1             @ ../MotorControl/encoder.cpp:588:11
	b	.LBB65_15
.LBB65_12:
.Ltmp403:
	.loc	20 591 31                       @ ../MotorControl/encoder.cpp:591:31
	ldr	r0, [sp, #4]                    @ 4-byte Reload
	ldrh.w	r0, [r0, #334]
	.loc	20 591 22 is_stmt 0             @ ../MotorControl/encoder.cpp:591:22
	strh.w	r0, [sp, #10]
	.loc	20 592 20 is_stmt 1             @ ../MotorControl/encoder.cpp:592:20
	ldrh.w	r0, [sp, #10]
	.loc	20 592 27 is_stmt 0             @ ../MotorControl/encoder.cpp:592:27
	lsrs	r0, r0, #2
	.loc	20 592 17                       @ ../MotorControl/encoder.cpp:592:17
	strh.w	r0, [sp, #16]
.Ltmp404:
	.loc	20 593 11 is_stmt 1             @ ../MotorControl/encoder.cpp:593:11
	b	.LBB65_15
.LBB65_13:
.Ltmp405:
	.loc	20 596 31                       @ ../MotorControl/encoder.cpp:596:31
	ldr	r0, [sp, #4]                    @ 4-byte Reload
	ldrh.w	r0, [r0, #334]
	.loc	20 596 22 is_stmt 0             @ ../MotorControl/encoder.cpp:596:22
	strh.w	r0, [sp, #8]
	.loc	20 597 20 is_stmt 1             @ ../MotorControl/encoder.cpp:597:20
	ldrh.w	r0, [sp, #8]
	.loc	20 597 27 is_stmt 0             @ ../MotorControl/encoder.cpp:597:27
	lsrs	r0, r0, #2
	.loc	20 597 17                       @ ../MotorControl/encoder.cpp:597:17
	strh.w	r0, [sp, #16]
.Ltmp406:
	.loc	20 598 11 is_stmt 1             @ ../MotorControl/encoder.cpp:598:11
	b	.LBB65_15
.LBB65_14:
.Ltmp407:
	.loc	20 601 12                       @ ../MotorControl/encoder.cpp:601:12
	ldr	r0, [sp, #4]                    @ 4-byte Reload
	movs	r1, #8
	bl	_ZN7Encoder9set_errorEN10ODriveIntf11EncoderIntf5ErrorE
	.loc	20 602 12                       @ ../MotorControl/encoder.cpp:602:12
	b	.LBB65_18
.Ltmp408:
.LBB65_15:
	.loc	20 606 16                       @ ../MotorControl/encoder.cpp:606:16
	ldr	r0, [sp, #4]                    @ 4-byte Reload
	ldrh.w	r1, [sp, #16]
	.loc	20 606 14 is_stmt 0             @ ../MotorControl/encoder.cpp:606:14
	str.w	r1, [r0, #200]
	movs	r1, #1
	.loc	20 607 26 is_stmt 1             @ ../MotorControl/encoder.cpp:607:26
	strb.w	r1, [r0, #312]
.Ltmp409:
	.loc	20 608 17                       @ ../MotorControl/encoder.cpp:608:17
	ldrb.w	r0, [r0, #89]
.Ltmp410:
	.loc	20 608 9 is_stmt 0              @ ../MotorControl/encoder.cpp:608:9
	lsls	r0, r0, #31
	cbz	r0, .LBB65_17
	b	.LBB65_16
.LBB65_16:
	.loc	20 0 9                          @ ../MotorControl/encoder.cpp:0:9
	ldr	r1, [sp, #4]                    @ 4-byte Reload
	movs	r0, #1
.Ltmp411:
	.loc	20 609 19 is_stmt 1             @ ../MotorControl/encoder.cpp:609:19
	strb.w	r0, [r1, #143]
	.loc	20 610 5                        @ ../MotorControl/encoder.cpp:610:5
	b	.LBB65_17
.Ltmp412:
.LBB65_17:
	.loc	20 608 17                       @ ../MotorControl/encoder.cpp:608:17
	b	.LBB65_18
.Ltmp413:
.LBB65_18:
	.loc	20 612 1                        @ ../MotorControl/encoder.cpp:612:1
	ldr	r0, [sp, #4]                    @ 4-byte Reload
.Ltmp414:
	@DEBUG_LABEL: abs_spi_cb:done
	.loc	20 613 36                       @ ../MotorControl/encoder.cpp:613:36
	add.w	r0, r0, #336
	.loc	20 613 5 is_stmt 0              @ ../MotorControl/encoder.cpp:613:5
	bl	_ZN15Stm32SpiArbiter12release_taskEPNS_7SpiTaskE
	.loc	20 614 1 epilogue_begin is_stmt 1 @ ../MotorControl/encoder.cpp:614:1
	add	sp, #24
	pop	{r7, pc}
.Ltmp415:
.Lfunc_end65:
	.size	_ZN7Encoder10abs_spi_cbEb, .Lfunc_end65-_ZN7Encoder10abs_spi_cbEb
	.cfi_endproc
	.cantunwind
	.fnend
                                        @ -- End function
	.section	.text._ZN9Stm32Gpio5writeEb,"axG",%progbits,_ZN9Stm32Gpio5writeEb,comdat
	.hidden	_ZN9Stm32Gpio5writeEb           @ -- Begin function _ZN9Stm32Gpio5writeEb
	.weak	_ZN9Stm32Gpio5writeEb
	.p2align	2
	.type	_ZN9Stm32Gpio5writeEb,%function
	.code	16                              @ @_ZN9Stm32Gpio5writeEb
	.thumb_func
_ZN9Stm32Gpio5writeEb:
.Lfunc_begin66:
	.loc	10 24 0                         @ ../../Firmware\Drivers/STM32/stm32_gpio.hpp:24:0
	.fnstart
	.cfi_startproc
@ %bb.0:
	.save	{r7, lr}
	push	{r7, lr}
	.cfi_def_cfa_offset 8
	.cfi_offset lr, -4
	.cfi_offset r7, -8
	.pad	#16
	sub	sp, #16
	.cfi_def_cfa_offset 24
                                        @ kill: def $r2 killed $r1
	str	r0, [sp, #12]
	strb.w	r1, [sp, #11]
	ldr	r0, [sp, #12]
.Ltmp416:
	.loc	10 25 13 prologue_end           @ ../../Firmware\Drivers/STM32/stm32_gpio.hpp:25:13
	str	r0, [sp, #4]                    @ 4-byte Spill
	ldr	r0, [r0]
.Ltmp417:
	.loc	10 25 13 is_stmt 0              @ ../../Firmware\Drivers/STM32/stm32_gpio.hpp:25:13
	cbz	r0, .LBB66_2
	b	.LBB66_1
.LBB66_1:
.Ltmp418:
	.loc	10 26 31 is_stmt 1              @ ../../Firmware\Drivers/STM32/stm32_gpio.hpp:26:31
	ldr	r1, [sp, #4]                    @ 4-byte Reload
	ldr	r0, [r1]
	.loc	10 26 38 is_stmt 0              @ ../../Firmware\Drivers/STM32/stm32_gpio.hpp:26:38
	ldrh	r1, [r1, #4]
	.loc	10 26 13                        @ ../../Firmware\Drivers/STM32/stm32_gpio.hpp:26:13
	ldrb.w	r2, [sp, #11]
	and	r2, r2, #1
	bl	HAL_GPIO_WritePin
	.loc	10 27 9 is_stmt 1               @ ../../Firmware\Drivers/STM32/stm32_gpio.hpp:27:9
	b	.LBB66_2
.Ltmp419:
.LBB66_2:
	.loc	10 28 5 epilogue_begin          @ ../../Firmware\Drivers/STM32/stm32_gpio.hpp:28:5
	add	sp, #16
	pop	{r7, pc}
.Ltmp420:
.Lfunc_end66:
	.size	_ZN9Stm32Gpio5writeEb, .Lfunc_end66-_ZN9Stm32Gpio5writeEb
	.cfi_endproc
	.cantunwind
	.fnend
                                        @ -- End function
	.section	.text._ZN7Encoder10hall_modelEf,"ax",%progbits
	.hidden	_ZN7Encoder10hall_modelEf       @ -- Begin function _ZN7Encoder10hall_modelEf
	.globl	_ZN7Encoder10hall_modelEf
	.p2align	2
	.type	_ZN7Encoder10hall_modelEf,%function
	.code	16                              @ @_ZN7Encoder10hall_modelEf
	.thumb_func
_ZN7Encoder10hall_modelEf:
.Lfunc_begin67:
	.loc	20 632 0                        @ ../MotorControl/encoder.cpp:632:0
	.fnstart
	.cfi_startproc
@ %bb.0:
	.save	{r7, lr}
	push	{r7, lr}
	.cfi_def_cfa_offset 8
	.cfi_offset lr, -4
	.cfi_offset r7, -8
	.pad	#48
	sub	sp, #48
	.cfi_def_cfa_offset 56
	str	r0, [sp, #40]
	vstr	s0, [sp, #36]
	ldr	r0, [sp, #40]
.Ltmp421:
	.loc	20 633 44 prologue_end          @ ../MotorControl/encoder.cpp:633:44
	str	r0, [sp, #8]                    @ 4-byte Spill
	vldr	s0, [sp, #36]
	.loc	20 633 33 is_stmt 0             @ ../MotorControl/encoder.cpp:633:33
	bl	_ZNSt3__26__math5floorB7v180000Ef
	.loc	20 633 13                       @ ../MotorControl/encoder.cpp:633:13
	vcvt.s32.f32	s0, s0
	vstr	s0, [sp, #32]
	.loc	20 635 36 is_stmt 1             @ ../MotorControl/encoder.cpp:635:36
	vldr	s0, [sp, #36]
	vmov.f32	s1, #6.000000e+00
	.loc	20 635 26 is_stmt 0             @ ../MotorControl/encoder.cpp:635:26
	bl	_Z9fmodf_posff
	.loc	20 635 11                       @ ../MotorControl/encoder.cpp:635:11
	vstr	s0, [sp, #28]
	.loc	20 636 24 is_stmt 1             @ ../MotorControl/encoder.cpp:636:24
	vldr	s0, [sp, #28]
	.loc	20 636 9 is_stmt 0              @ ../MotorControl/encoder.cpp:636:9
	vcvt.s32.f32	s0, s0
	vstr	s0, [sp, #24]
.Ltmp422:
	.loc	20 637 9 is_stmt 1              @ ../MotorControl/encoder.cpp:637:9
	ldr	r0, [sp, #24]
.Ltmp423:
	.loc	20 637 9 is_stmt 0              @ ../MotorControl/encoder.cpp:637:9
	cmp	r0, #6
	bne	.LBB67_2
	b	.LBB67_1
.LBB67_1:
	.loc	20 0 9                          @ ../MotorControl/encoder.cpp:0:9
	movs	r0, #5
.Ltmp424:
	.loc	20 637 31                       @ ../MotorControl/encoder.cpp:637:31
	str	r0, [sp, #24]
	.loc	20 637 23                       @ ../MotorControl/encoder.cpp:637:23
	b	.LBB67_2
.Ltmp425:
.LBB67_2:
	.loc	20 638 19 is_stmt 1             @ ../MotorControl/encoder.cpp:638:19
	ldr	r0, [sp, #24]
	.loc	20 638 18 is_stmt 0             @ ../MotorControl/encoder.cpp:638:18
	cmp	r0, #5
	bne	.LBB67_4
	b	.LBB67_3
.LBB67_3:
	.loc	20 0 18                         @ ../MotorControl/encoder.cpp:0:18
	movs	r0, #0
	.loc	20 638 18                       @ ../MotorControl/encoder.cpp:638:18
	str	r0, [sp, #4]                    @ 4-byte Spill
	b	.LBB67_5
.LBB67_4:
	.loc	20 638 39                       @ ../MotorControl/encoder.cpp:638:39
	ldr	r0, [sp, #24]
	.loc	20 638 46                       @ ../MotorControl/encoder.cpp:638:46
	adds	r0, #1
	.loc	20 638 18                       @ ../MotorControl/encoder.cpp:638:18
	str	r0, [sp, #4]                    @ 4-byte Spill
	b	.LBB67_5
.LBB67_5:
	ldr	r0, [sp, #8]                    @ 4-byte Reload
	ldr	r1, [sp, #4]                    @ 4-byte Reload
	.loc	20 638 9                        @ ../MotorControl/encoder.cpp:638:9
	str	r1, [sp, #20]
	.loc	20 640 32 is_stmt 1             @ ../MotorControl/encoder.cpp:640:32
	adds	r0, #104
	.loc	20 640 48 is_stmt 0             @ ../MotorControl/encoder.cpp:640:48
	str	r0, [sp]                        @ 4-byte Spill
	ldr	r1, [sp, #24]
	.loc	20 640 24                       @ ../MotorControl/encoder.cpp:640:24
	bl	_ZNSt3__25arrayIfLj6EEixB7v180000Ej
	mov	r1, r0
	ldr	r0, [sp]                        @ 4-byte Reload
	ldr	r1, [r1]
	.loc	20 640 11                       @ ../MotorControl/encoder.cpp:640:11
	str	r1, [sp, #16]
	.loc	20 641 48 is_stmt 1             @ ../MotorControl/encoder.cpp:641:48
	ldr	r1, [sp, #20]
	.loc	20 641 24 is_stmt 0             @ ../MotorControl/encoder.cpp:641:24
	bl	_ZNSt3__25arrayIfLj6EEixB7v180000Ej
	ldr	r0, [r0]
	.loc	20 641 11                       @ ../MotorControl/encoder.cpp:641:11
	str	r0, [sp, #12]
.Ltmp426:
	.loc	20 644 17 is_stmt 1             @ ../MotorControl/encoder.cpp:644:17
	vldr	s0, [sp, #28]
	.loc	20 644 32 is_stmt 0             @ ../MotorControl/encoder.cpp:644:32
	vldr	s2, [sp, #16]
	.loc	20 644 30                       @ ../MotorControl/encoder.cpp:644:30
	vsub.f32	s0, s0, s2
	vmov.f32	s1, #6.000000e+00
	.loc	20 644 9                        @ ../MotorControl/encoder.cpp:644:9
	bl	_Z7wrap_pmff
.Ltmp427:
	.loc	20 644 9                        @ ../MotorControl/encoder.cpp:644:9
	vcmp.f32	s0, #0
	vmrs	APSR_nzcv, fpscr
	bge	.LBB67_7
	b	.LBB67_6
.LBB67_6:
.Ltmp428:
	.loc	20 645 16 is_stmt 1             @ ../MotorControl/encoder.cpp:645:16
	ldr	r0, [sp, #32]
	.loc	20 645 25 is_stmt 0             @ ../MotorControl/encoder.cpp:645:25
	subs	r0, #1
	.loc	20 645 9                        @ ../MotorControl/encoder.cpp:645:9
	str	r0, [sp, #44]
	b	.LBB67_11
.LBB67_7:
.Ltmp429:
	.loc	20 647 22 is_stmt 1             @ ../MotorControl/encoder.cpp:647:22
	vldr	s0, [sp, #28]
	.loc	20 647 37 is_stmt 0             @ ../MotorControl/encoder.cpp:647:37
	vldr	s2, [sp, #12]
	.loc	20 647 35                       @ ../MotorControl/encoder.cpp:647:35
	vsub.f32	s0, s0, s2
	vmov.f32	s1, #6.000000e+00
	.loc	20 647 14                       @ ../MotorControl/encoder.cpp:647:14
	bl	_Z7wrap_pmff
.Ltmp430:
	.loc	20 647 14                       @ ../MotorControl/encoder.cpp:647:14
	vcmp.f32	s0, #0
	vmrs	APSR_nzcv, fpscr
	ble	.LBB67_9
	b	.LBB67_8
.LBB67_8:
.Ltmp431:
	.loc	20 648 16 is_stmt 1             @ ../MotorControl/encoder.cpp:648:16
	ldr	r0, [sp, #32]
	.loc	20 648 25 is_stmt 0             @ ../MotorControl/encoder.cpp:648:25
	adds	r0, #1
	.loc	20 648 9                        @ ../MotorControl/encoder.cpp:648:9
	str	r0, [sp, #44]
	b	.LBB67_11
.Ltmp432:
.LBB67_9:
	.loc	20 0 9                          @ ../MotorControl/encoder.cpp:0:9
	b	.LBB67_10
.LBB67_10:
	.loc	20 650 12 is_stmt 1             @ ../MotorControl/encoder.cpp:650:12
	ldr	r0, [sp, #32]
	.loc	20 650 5 is_stmt 0              @ ../MotorControl/encoder.cpp:650:5
	str	r0, [sp, #44]
	b	.LBB67_11
.LBB67_11:
	.loc	20 651 1 is_stmt 1              @ ../MotorControl/encoder.cpp:651:1
	ldr	r0, [sp, #44]
	.loc	20 651 1 epilogue_begin is_stmt 0 @ ../MotorControl/encoder.cpp:651:1
	add	sp, #48
	pop	{r7, pc}
.Ltmp433:
.Lfunc_end67:
	.size	_ZN7Encoder10hall_modelEf, .Lfunc_end67-_ZN7Encoder10hall_modelEf
	.cfi_endproc
	.cantunwind
	.fnend
                                        @ -- End function
	.section	.text._ZNSt3__26__math5floorB7v180000Ef,"axG",%progbits,_ZNSt3__26__math5floorB7v180000Ef,comdat
	.hidden	_ZNSt3__26__math5floorB7v180000Ef @ -- Begin function _ZNSt3__26__math5floorB7v180000Ef
	.weak	_ZNSt3__26__math5floorB7v180000Ef
	.p2align	2
	.type	_ZNSt3__26__math5floorB7v180000Ef,%function
	.code	16                              @ @_ZNSt3__26__math5floorB7v180000Ef
	.thumb_func
_ZNSt3__26__math5floorB7v180000Ef:
.Lfunc_begin68:
	.file	36 "D:\\Embed\\MDK\\MDK\\ARM\\ARMCompilerV621\\Bin\\..\\include\\libcxx\\__math" "rounding_functions.h"
	.loc	36 48 0 is_stmt 1               @ D:\Embed\MDK\MDK\ARM\ARMCompilerV621\Bin\..\include\libcxx\__math/rounding_functions.h:48:0
	.fnstart
	.cfi_startproc
@ %bb.0:
	.save	{r7, lr}
	push	{r7, lr}
	.cfi_def_cfa_offset 8
	.cfi_offset lr, -4
	.cfi_offset r7, -8
	.pad	#8
	sub	sp, #8
	.cfi_def_cfa_offset 16
	vstr	s0, [sp, #4]
.Ltmp434:
	.loc	36 48 111 prologue_end          @ D:\Embed\MDK\MDK\ARM\ARMCompilerV621\Bin\..\include\libcxx\__math/rounding_functions.h:48:111
	vldr	s0, [sp, #4]
	.loc	36 48 94 is_stmt 0              @ D:\Embed\MDK\MDK\ARM\ARMCompilerV621\Bin\..\include\libcxx\__math/rounding_functions.h:48:94
	bl	__hardfp_floorf
	.loc	36 48 87 epilogue_begin         @ D:\Embed\MDK\MDK\ARM\ARMCompilerV621\Bin\..\include\libcxx\__math/rounding_functions.h:48:87
	add	sp, #8
	pop	{r7, pc}
.Ltmp435:
.Lfunc_end68:
	.size	_ZNSt3__26__math5floorB7v180000Ef, .Lfunc_end68-_ZNSt3__26__math5floorB7v180000Ef
	.cfi_endproc
	.cantunwind
	.fnend
                                        @ -- End function
	.section	.text._Z7wrap_pmff,"axG",%progbits,_Z7wrap_pmff,comdat
	.hidden	_Z7wrap_pmff                    @ -- Begin function _Z7wrap_pmff
	.weak	_Z7wrap_pmff
	.p2align	2
	.type	_Z7wrap_pmff,%function
	.code	16                              @ @_Z7wrap_pmff
	.thumb_func
_Z7wrap_pmff:
.Lfunc_begin69:
	.loc	18 123 0 is_stmt 1              @ ../../Firmware\MotorControl/utils.hpp:123:0
	.fnstart
	.cfi_startproc
@ %bb.0:
	.save	{r7, lr}
	push	{r7, lr}
	.cfi_def_cfa_offset 8
	.cfi_offset lr, -4
	.cfi_offset r7, -8
	.pad	#16
	sub	sp, #16
	.cfi_def_cfa_offset 24
	vstr	s0, [sp, #12]
	vstr	s1, [sp, #8]
.Ltmp436:
	.loc	18 125 37 prologue_end          @ ../../Firmware\MotorControl/utils.hpp:125:37
	vldr	s0, [sp, #12]
	.loc	18 125 41 is_stmt 0             @ ../../Firmware\MotorControl/utils.hpp:125:41
	vldr	s2, [sp, #8]
	.loc	18 125 39                       @ ../../Firmware\MotorControl/utils.hpp:125:39
	vdiv.f32	s0, s0, s2
	.loc	18 125 27                       @ ../../Firmware\MotorControl/utils.hpp:125:27
	bl	_Z9round_intf
	vmov	s0, r0
	vcvt.f32.s32	s0, s0
	.loc	18 125 11                       @ ../../Firmware\MotorControl/utils.hpp:125:11
	vstr	s0, [sp, #4]
	.loc	18 129 12 is_stmt 1             @ ../../Firmware\MotorControl/utils.hpp:129:12
	vldr	s0, [sp, #12]
	.loc	18 129 16 is_stmt 0             @ ../../Firmware\MotorControl/utils.hpp:129:16
	vldr	s2, [sp, #4]
	.loc	18 129 25                       @ ../../Firmware\MotorControl/utils.hpp:129:25
	vldr	s4, [sp, #8]
	.loc	18 129 14                       @ ../../Firmware\MotorControl/utils.hpp:129:14
	vmul.f32	s2, s2, s4
	vsub.f32	s0, s0, s2
	.loc	18 129 5 epilogue_begin         @ ../../Firmware\MotorControl/utils.hpp:129:5
	add	sp, #16
	pop	{r7, pc}
.Ltmp437:
.Lfunc_end69:
	.size	_Z7wrap_pmff, .Lfunc_end69-_Z7wrap_pmff
	.cfi_endproc
	.cantunwind
	.fnend
                                        @ -- End function
	.section	.text._ZN7Encoder6updateEv,"ax",%progbits
	.hidden	_ZN7Encoder6updateEv            @ -- Begin function _ZN7Encoder6updateEv
	.globl	_ZN7Encoder6updateEv
	.p2align	2
	.type	_ZN7Encoder6updateEv,%function
	.code	16                              @ @_ZN7Encoder6updateEv
	.thumb_func
_ZN7Encoder6updateEv:
.Lfunc_begin70:
	.loc	20 653 0 is_stmt 1              @ ../MotorControl/encoder.cpp:653:0
	.fnstart
	.cfi_startproc
@ %bb.0:
	.save	{r7, lr}
	push	{r7, lr}
	.cfi_def_cfa_offset 8
	.cfi_offset lr, -4
	.cfi_offset r7, -8
	.pad	#168
	sub	sp, #168
	.cfi_def_cfa_offset 176
	str	r0, [sp, #160]
	ldr	r0, [sp, #160]
	str	r0, [sp, #44]                   @ 4-byte Spill
	movs	r1, #0
.Ltmp438:
	.loc	20 655 13 prologue_end          @ ../MotorControl/encoder.cpp:655:13
	str	r1, [sp, #156]
	.loc	20 656 31                       @ ../MotorControl/encoder.cpp:656:31
	ldr.w	r1, [r0, #200]
	.loc	20 656 13 is_stmt 0             @ ../MotorControl/encoder.cpp:656:13
	str	r1, [sp, #152]
	.loc	20 658 13 is_stmt 1             @ ../MotorControl/encoder.cpp:658:13
	ldrh.w	r0, [r0, #314]
	.loc	20 658 5 is_stmt 0              @ ../MotorControl/encoder.cpp:658:5
	mov	r1, r0
	str	r1, [sp, #48]                   @ 4-byte Spill
	cbz	r0, .LBB70_4
	b	.LBB70_1
.LBB70_1:
	ldr	r0, [sp, #48]                   @ 4-byte Reload
	cmp	r0, #1
	beq	.LBB70_5
	b	.LBB70_2
.LBB70_2:
	ldr	r0, [sp, #48]                   @ 4-byte Reload
	cmp	r0, #2
	beq.w	.LBB70_37
	b	.LBB70_3
.LBB70_3:
	ldr	r0, [sp, #48]                   @ 4-byte Reload
	sub.w	r0, r0, #256
	cmp	r0, #5
	blo.w	.LBB70_40
	b	.LBB70_48
.LBB70_4:
.Ltmp439:
	.loc	20 662 36 is_stmt 1             @ ../MotorControl/encoder.cpp:662:36
	ldr	r1, [sp, #44]                   @ 4-byte Reload
	ldrh.w	r0, [r1, #234]
	.loc	20 662 72 is_stmt 0             @ ../MotorControl/encoder.cpp:662:72
	ldr.w	r1, [r1, #144]
	.loc	20 662 61                       @ ../MotorControl/encoder.cpp:662:61
	subs	r0, r0, r1
	.loc	20 662 21                       @ ../MotorControl/encoder.cpp:662:21
	strh.w	r0, [sp, #150]
	.loc	20 663 34 is_stmt 1             @ ../MotorControl/encoder.cpp:663:34
	ldrsh.w	r0, [sp, #150]
	.loc	20 663 23 is_stmt 0             @ ../MotorControl/encoder.cpp:663:23
	str	r0, [sp, #156]
.Ltmp440:
	.loc	20 664 11 is_stmt 1             @ ../MotorControl/encoder.cpp:664:11
	b	.LBB70_49
.LBB70_5:
.Ltmp441:
	.loc	20 667 13                       @ ../MotorControl/encoder.cpp:667:13
	ldr	r0, [sp, #44]                   @ 4-byte Reload
	bl	_ZN7Encoder19decode_hall_samplesEv
	ldr	r0, [sp, #44]                   @ 4-byte Reload
.Ltmp442:
	.loc	20 668 17                       @ ../MotorControl/encoder.cpp:668:17
	ldrb.w	r0, [r0, #246]
.Ltmp443:
	.loc	20 668 17 is_stmt 0             @ ../MotorControl/encoder.cpp:668:17
	lsls	r0, r0, #31
	cbz	r0, .LBB70_7
	b	.LBB70_6
.LBB70_6:
.Ltmp444:
	.loc	20 669 17 is_stmt 1             @ ../MotorControl/encoder.cpp:669:17
	ldr	r1, [sp, #44]                   @ 4-byte Reload
	add.w	r0, r1, #248
	.loc	20 669 36 is_stmt 0             @ ../MotorControl/encoder.cpp:669:36
	ldrb.w	r1, [r1, #242]
	.loc	20 669 17                       @ ../MotorControl/encoder.cpp:669:17
	bl	_ZNSt3__25arrayIiLj8EEixB7v180000Ej
	mov	r1, r0
	.loc	20 669 48                       @ ../MotorControl/encoder.cpp:669:48
	ldr	r0, [r1]
	adds	r0, #1
	str	r0, [r1]
	.loc	20 670 13 is_stmt 1             @ ../MotorControl/encoder.cpp:670:13
	b	.LBB70_7
.Ltmp445:
.LBB70_7:
	.loc	20 671 25                       @ ../MotorControl/encoder.cpp:671:25
	ldr	r0, [sp, #44]                   @ 4-byte Reload
	ldrb.w	r0, [r0, #101]
.Ltmp446:
	.loc	20 671 17 is_stmt 0             @ ../MotorControl/encoder.cpp:671:17
	lsls	r0, r0, #31
	cmp	r0, #0
	beq.w	.LBB70_36
	b	.LBB70_8
.LBB70_8:
.Ltmp447:
	.loc	20 673 56 is_stmt 1             @ ../MotorControl/encoder.cpp:673:56
	ldr	r0, [sp, #44]                   @ 4-byte Reload
	ldrb.w	r1, [r0, #100]
	.loc	20 673 34 is_stmt 0             @ ../MotorControl/encoder.cpp:673:34
	ldrb.w	r0, [r0, #242]
	.loc	20 673 46                       @ ../MotorControl/encoder.cpp:673:46
	eors	r0, r1
	add	r1, sp, #144
	.loc	20 673 21                       @ ../MotorControl/encoder.cpp:673:21
	bl	_ZL11decode_hallhPi
.Ltmp448:
	.loc	20 673 21                       @ ../MotorControl/encoder.cpp:673:21
	cmp	r0, #0
	beq.w	.LBB70_32
	b	.LBB70_9
.LBB70_9:
.Ltmp449:
	.loc	20 674 25 is_stmt 1             @ ../MotorControl/encoder.cpp:674:25
	ldr	r0, [sp, #44]                   @ 4-byte Reload
	ldrb.w	r0, [r0, #245]
.Ltmp450:
	.loc	20 674 25 is_stmt 0             @ ../MotorControl/encoder.cpp:674:25
	lsls	r0, r0, #31
	cmp	r0, #0
	beq.w	.LBB70_29
	b	.LBB70_10
.LBB70_10:
.Ltmp451:
	.loc	20 675 29 is_stmt 1             @ ../MotorControl/encoder.cpp:675:29
	ldr	r0, [sp, #44]                   @ 4-byte Reload
	ldrb.w	r0, [r0, #247]
	.loc	20 675 48 is_stmt 0             @ ../MotorControl/encoder.cpp:675:48
	lsls	r0, r0, #31
	cmp	r0, #0
	beq.w	.LBB70_27
	b	.LBB70_11
.LBB70_11:
	.loc	20 675 51                       @ ../MotorControl/encoder.cpp:675:51
	ldr	r0, [sp, #44]                   @ 4-byte Reload
	adds	r0, #243
	.loc	20 675 66                       @ ../MotorControl/encoder.cpp:675:66
	bl	_ZNKSt3__223__optional_storage_baseIhLb0EE9has_valueB7v180000Ev
.Ltmp452:
	.loc	20 675 29                       @ ../MotorControl/encoder.cpp:675:29
	cmp	r0, #0
	beq.w	.LBB70_27
	b	.LBB70_12
.LBB70_12:
.Ltmp453:
	.loc	20 676 52 is_stmt 1             @ ../MotorControl/encoder.cpp:676:52
	ldr	r0, [sp, #44]                   @ 4-byte Reload
	ldr	r1, [sp, #144]
	.loc	20 676 63 is_stmt 0             @ ../MotorControl/encoder.cpp:676:63
	str	r1, [sp, #40]                   @ 4-byte Spill
	adds	r0, #243
	.loc	20 676 78                       @ ../MotorControl/encoder.cpp:676:78
	bl	_ZNRSt3__28optionalIhE5valueB7v180000Ev
	mov	r1, r0
	ldr	r0, [sp, #40]                   @ 4-byte Reload
	ldrb	r1, [r1]
	.loc	20 676 61                       @ ../MotorControl/encoder.cpp:676:61
	subs	r0, r0, r1
	movs	r1, #6
	.loc	20 676 48                       @ ../MotorControl/encoder.cpp:676:48
	bl	_Z3modii
	.loc	20 676 33                       @ ../MotorControl/encoder.cpp:676:33
	str	r0, [sp, #140]
.Ltmp454:
	.loc	20 678 33 is_stmt 1             @ ../MotorControl/encoder.cpp:678:33
	ldr	r0, [sp, #140]
.Ltmp455:
	.loc	20 678 33 is_stmt 0             @ ../MotorControl/encoder.cpp:678:33
	cbnz	r0, .LBB70_14
	b	.LBB70_13
.LBB70_13:
.Ltmp456:
	.loc	20 678 54                       @ ../MotorControl/encoder.cpp:678:54
	b	.LBB70_28
.Ltmp457:
.LBB70_14:
	.loc	20 679 38 is_stmt 1             @ ../MotorControl/encoder.cpp:679:38
	ldr	r0, [sp, #140]
.Ltmp458:
	.loc	20 679 38 is_stmt 0             @ ../MotorControl/encoder.cpp:679:38
	cmp	r0, #1
	bne	.LBB70_16
	b	.LBB70_15
.LBB70_15:
.Ltmp459:
	.loc	20 680 44 is_stmt 1             @ ../MotorControl/encoder.cpp:680:44
	ldr	r0, [sp, #144]
	.loc	20 680 42 is_stmt 0             @ ../MotorControl/encoder.cpp:680:42
	str	r0, [sp, #136]
	.loc	20 681 29 is_stmt 1             @ ../MotorControl/encoder.cpp:681:29
	b	.LBB70_20
.Ltmp460:
.LBB70_16:
	.loc	20 681 40 is_stmt 0             @ ../MotorControl/encoder.cpp:681:40
	ldr	r0, [sp, #140]
.Ltmp461:
	.loc	20 681 40                       @ ../MotorControl/encoder.cpp:681:40
	cmp	r0, #5
	bne	.LBB70_18
	b	.LBB70_17
.LBB70_17:
.Ltmp462:
	.loc	20 682 44 is_stmt 1             @ ../MotorControl/encoder.cpp:682:44
	ldr	r0, [sp, #44]                   @ 4-byte Reload
	adds	r0, #243
	.loc	20 682 59 is_stmt 0             @ ../MotorControl/encoder.cpp:682:59
	bl	_ZNRSt3__28optionalIhE5valueB7v180000Ev
	ldrb	r0, [r0]
	.loc	20 682 42                       @ ../MotorControl/encoder.cpp:682:42
	str	r0, [sp, #136]
	.loc	20 683 29 is_stmt 1             @ ../MotorControl/encoder.cpp:683:29
	b	.LBB70_19
.Ltmp463:
.LBB70_18:
	.loc	20 684 33                       @ ../MotorControl/encoder.cpp:684:33
	ldr	r0, [sp, #44]                   @ 4-byte Reload
	movs	r1, #16
	bl	_ZN7Encoder9set_errorEN10ODriveIntf11EncoderIntf5ErrorE
	movs	r0, #0
	.loc	20 685 33                       @ ../MotorControl/encoder.cpp:685:33
	strb.w	r0, [sp, #167]
	b	.LBB70_74
.Ltmp464:
.LBB70_19:
	.loc	20 0 33 is_stmt 0               @ ../MotorControl/encoder.cpp:0:33
	b	.LBB70_20
.LBB70_20:
	b	.LBB70_21
.LBB70_21:
	.loc	20 688 48 is_stmt 1             @ ../MotorControl/encoder.cpp:688:48
	ldr	r0, [sp, #44]                   @ 4-byte Reload
	ldr	r0, [r0, #48]
	.loc	20 688 77 is_stmt 0             @ ../MotorControl/encoder.cpp:688:77
	add.w	r1, r0, #320
	add	r0, sp, #128
	.loc	20 688 84                       @ ../MotorControl/encoder.cpp:688:84
	str	r0, [sp, #36]                   @ 4-byte Spill
	bl	_ZN10OutputPortIfE3anyEv
	ldr	r0, [sp, #36]                   @ 4-byte Reload
.Ltmp465:
	.loc	20 689 33 is_stmt 1             @ ../MotorControl/encoder.cpp:689:33
	bl	_ZNKSt3__28optionalIfEcvbB7v180000Ev
.Ltmp466:
	.loc	20 689 33 is_stmt 0             @ ../MotorControl/encoder.cpp:689:33
	cmp	r0, #0
	beq	.LBB70_26
	b	.LBB70_22
.LBB70_22:
	.loc	20 0 33                         @ ../MotorControl/encoder.cpp:0:33
	add	r0, sp, #128
.Ltmp467:
	.loc	20 690 59 is_stmt 1             @ ../MotorControl/encoder.cpp:690:59
	bl	_ZNRSt3__28optionalIfE5valueB7v180000Ev
	mov	r1, r0
	ldr	r0, [sp, #44]                   @ 4-byte Reload
	ldr	r1, [r1]
	.loc	20 690 39 is_stmt 0             @ ../MotorControl/encoder.cpp:690:39
	str	r1, [sp, #124]
	.loc	20 692 33 is_stmt 1             @ ../MotorControl/encoder.cpp:692:33
	add.w	r0, r0, #280
	.loc	20 692 62 is_stmt 0             @ ../MotorControl/encoder.cpp:692:62
	str	r0, [sp, #32]                   @ 4-byte Spill
	ldr	r1, [sp, #136]
	.loc	20 692 33                       @ ../MotorControl/encoder.cpp:692:33
	bl	_ZNSt3__25arrayIiLj6EEixB7v180000Ej
	mov	r2, r0
	.loc	20 692 71                       @ ../MotorControl/encoder.cpp:692:71
	ldr	r0, [sp, #44]                   @ 4-byte Reload
	ldr	r1, [r2]
	adds	r1, #1
	str	r1, [r2]
	.loc	20 693 61 is_stmt 1             @ ../MotorControl/encoder.cpp:693:61
	adds	r0, #104
	.loc	20 693 77 is_stmt 0             @ ../MotorControl/encoder.cpp:693:77
	ldr	r1, [sp, #136]
	.loc	20 693 53                       @ ../MotorControl/encoder.cpp:693:53
	bl	_ZNSt3__25arrayIfLj6EEixB7v180000Ej
	mov	r1, r0
	.loc	20 693 40                       @ ../MotorControl/encoder.cpp:693:40
	ldr	r0, [sp, #32]                   @ 4-byte Reload
	str	r1, [sp, #120]
.Ltmp468:
	.loc	20 694 66 is_stmt 1             @ ../MotorControl/encoder.cpp:694:66
	ldr	r1, [sp, #136]
	.loc	20 694 37 is_stmt 0             @ ../MotorControl/encoder.cpp:694:37
	bl	_ZNSt3__25arrayIiLj6EEixB7v180000Ej
	ldr	r0, [r0]
.Ltmp469:
	.loc	20 694 37                       @ ../MotorControl/encoder.cpp:694:37
	cmp	r0, #1
	bne	.LBB70_24
	b	.LBB70_23
.LBB70_23:
.Ltmp470:
	.loc	20 695 50 is_stmt 1             @ ../MotorControl/encoder.cpp:695:50
	ldr	r0, [sp, #124]
	.loc	20 695 37 is_stmt 0             @ ../MotorControl/encoder.cpp:695:37
	ldr	r1, [sp, #120]
	.loc	20 695 48                       @ ../MotorControl/encoder.cpp:695:48
	str	r0, [r1]
	.loc	20 695 37                       @ ../MotorControl/encoder.cpp:695:37
	b	.LBB70_25
.LBB70_24:
.Ltmp471:
	.loc	20 698 52 is_stmt 1             @ ../MotorControl/encoder.cpp:698:52
	ldr	r0, [sp, #44]                   @ 4-byte Reload
	vldr	s0, [sp, #124]
	.loc	20 698 60 is_stmt 0             @ ../MotorControl/encoder.cpp:698:60
	ldr	r1, [sp, #120]
	vldr	s2, [r1]
	.loc	20 698 58                       @ ../MotorControl/encoder.cpp:698:58
	vsub.f32	s0, s0, s2
	vstr	s0, [sp, #28]                   @ 4-byte Spill
	.loc	20 698 74                       @ ../MotorControl/encoder.cpp:698:74
	add.w	r0, r0, #280
	.loc	20 698 103                      @ ../MotorControl/encoder.cpp:698:103
	ldr	r1, [sp, #136]
