	.text
	.syntax unified
	.eabi_attribute	67, "2.09"	@ Tag_conformance
	.cpu	cortex-m4
	.eabi_attribute	6, 13	@ Tag_CPU_arch
	.eabi_attribute	7, 77	@ Tag_CPU_arch_profile
	.eabi_attribute	8, 0	@ Tag_ARM_ISA_use
	.eabi_attribute	9, 2	@ Tag_THUMB_ISA_use
	.fpu	fpv4-sp-d16
	.eabi_attribute	27, 1	@ Tag_ABI_HardFP_use
	.eabi_attribute	36, 1	@ Tag_FP_HP_extension
	.eabi_attribute	34, 1	@ Tag_CPU_unaligned_access
	.eabi_attribute	17, 1	@ Tag_ABI_PCS_GOT_use
	.eabi_attribute	20, 2	@ Tag_ABI_FP_denormal
	.eabi_attribute	21, 0	@ Tag_ABI_FP_exceptions
	.eabi_attribute	23, 1	@ Tag_ABI_FP_number_model
	.eabi_attribute	24, 1	@ Tag_ABI_align_needed
	.eabi_attribute	25, 1	@ Tag_ABI_align_preserved
	.eabi_attribute	28, 1	@ Tag_ABI_VFP_args
	.eabi_attribute	38, 1	@ Tag_ABI_FP_16bit_format
	.eabi_attribute	18, 2	@ Tag_ABI_PCS_wchar_t
	.eabi_attribute	26, 1	@ Tag_ABI_enum_size
	.eabi_attribute	14, 0	@ Tag_ABI_PCS_R9_use
	.file	"event_groups.c"
	.file	1 "D:\\Embed\\MDK\\MDK\\ARM\\ARMCompilerV621\\Bin\\..\\include" "stdint.h"
	.file	2 "D:\\ikingtec\\Robot\\ODrive\\Firmware\\MDK-ARM" "../ThirdParty/FreeRTOS/Source/portable/GCC/ARM_CM4F\\portmacro.h"
	.file	3 "D:\\ikingtec\\Robot\\ODrive\\Firmware\\MDK-ARM" "../ThirdParty/FreeRTOS/Source/include\\event_groups.h"
	.file	4 "D:\\ikingtec\\Robot\\ODrive\\Firmware\\MDK-ARM" "../ThirdParty/FreeRTOS/Source/event_groups.c"
	.file	5 "D:\\ikingtec\\Robot\\ODrive\\Firmware\\MDK-ARM" "../ThirdParty/FreeRTOS/Source/include/list.h"
	.section	.text.xEventGroupCreate,"ax",%progbits
	.hidden	xEventGroupCreate               @ -- Begin function xEventGroupCreate
	.globl	xEventGroupCreate
	.p2align	2
	.type	xEventGroupCreate,%function
	.code	16                              @ @xEventGroupCreate
	.thumb_func
xEventGroupCreate:
.Lfunc_begin0:
	.loc	4 146 0                         @ ../ThirdParty/FreeRTOS/Source/event_groups.c:146:0
	.fnstart
	.cfi_sections .debug_frame
	.cfi_startproc
@ %bb.0:
	.save	{r7, lr}
	push	{r7, lr}
	.cfi_def_cfa_offset 8
	.cfi_offset lr, -4
	.cfi_offset r7, -8
	.pad	#8
	sub	sp, #8
	.cfi_def_cfa_offset 16
	movs	r0, #24
.Ltmp0:
	.loc	4 162 36 prologue_end           @ ../ThirdParty/FreeRTOS/Source/event_groups.c:162:36
	bl	pvPortMalloc
	.loc	4 162 15 is_stmt 0              @ ../ThirdParty/FreeRTOS/Source/event_groups.c:162:15
	str	r0, [sp, #4]
.Ltmp1:
	.loc	4 164 7 is_stmt 1               @ ../ThirdParty/FreeRTOS/Source/event_groups.c:164:7
	ldr	r0, [sp, #4]
.Ltmp2:
	.loc	4 164 7 is_stmt 0               @ ../ThirdParty/FreeRTOS/Source/event_groups.c:164:7
	cbz	r0, .LBB0_2
	b	.LBB0_1
.LBB0_1:
.Ltmp3:
	.loc	4 166 4 is_stmt 1               @ ../ThirdParty/FreeRTOS/Source/event_groups.c:166:4
	ldr	r1, [sp, #4]
	movs	r0, #0
	.loc	4 166 29 is_stmt 0              @ ../ThirdParty/FreeRTOS/Source/event_groups.c:166:29
	str	r0, [r1]
	.loc	4 167 24 is_stmt 1              @ ../ThirdParty/FreeRTOS/Source/event_groups.c:167:24
	ldr	r0, [sp, #4]
	.loc	4 167 37 is_stmt 0              @ ../ThirdParty/FreeRTOS/Source/event_groups.c:167:37
	adds	r0, #4
	.loc	4 167 4                         @ ../ThirdParty/FreeRTOS/Source/event_groups.c:167:4
	bl	vListInitialise
	.loc	4 179 3 is_stmt 1               @ ../ThirdParty/FreeRTOS/Source/event_groups.c:179:3
	b	.LBB0_3
.Ltmp4:
.LBB0_2:
	.loc	4 0 3 is_stmt 0                 @ ../ThirdParty/FreeRTOS/Source/event_groups.c:0:3
	b	.LBB0_3
.LBB0_3:
	.loc	4 185 10 is_stmt 1              @ ../ThirdParty/FreeRTOS/Source/event_groups.c:185:10
	ldr	r0, [sp, #4]
	.loc	4 185 3 epilogue_begin is_stmt 0 @ ../ThirdParty/FreeRTOS/Source/event_groups.c:185:3
	add	sp, #8
	pop	{r7, pc}
.Ltmp5:
.Lfunc_end0:
	.size	xEventGroupCreate, .Lfunc_end0-xEventGroupCreate
	.cfi_endproc
	.cantunwind
	.fnend
                                        @ -- End function
	.section	.text.xEventGroupSync,"ax",%progbits
	.hidden	xEventGroupSync                 @ -- Begin function xEventGroupSync
	.globl	xEventGroupSync
	.p2align	2
	.type	xEventGroupSync,%function
	.code	16                              @ @xEventGroupSync
	.thumb_func
xEventGroupSync:
.Lfunc_begin1:
	.loc	4 192 0 is_stmt 1               @ ../ThirdParty/FreeRTOS/Source/event_groups.c:192:0
	.fnstart
	.cfi_startproc
@ %bb.0:
	.save	{r7, lr}
	push	{r7, lr}
	.cfi_def_cfa_offset 8
	.cfi_offset lr, -4
	.cfi_offset r7, -8
	.pad	#56
	sub	sp, #56
	.cfi_def_cfa_offset 64
	str	r0, [sp, #40]
	str	r1, [sp, #36]
	str	r2, [sp, #32]
	str	r3, [sp, #28]
.Ltmp6:
	.loc	4 194 29 prologue_end           @ ../ThirdParty/FreeRTOS/Source/event_groups.c:194:29
	ldr	r0, [sp, #40]
	.loc	4 194 15 is_stmt 0              @ ../ThirdParty/FreeRTOS/Source/event_groups.c:194:15
	str	r0, [sp, #16]
	movs	r0, #0
	.loc	4 196 12 is_stmt 1              @ ../ThirdParty/FreeRTOS/Source/event_groups.c:196:12
	str	r0, [sp, #8]
.Ltmp7:
	.loc	4 198 2                         @ ../ThirdParty/FreeRTOS/Source/event_groups.c:198:2
	ldrb.w	r0, [sp, #35]
.Ltmp8:
	.loc	4 198 2 is_stmt 0               @ ../ThirdParty/FreeRTOS/Source/event_groups.c:198:2
	cbz	r0, .LBB1_3
	b	.LBB1_1
.LBB1_1:
.Ltmp9:
	.loc	2 199 2 is_stmt 1               @ ../ThirdParty/FreeRTOS/Source/portable/GCC/ARM_CM4F\portmacro.h:199:2
	@APP
	mov.w	r0, #80
	msr	basepri, r0
	isb	sy
	dsb	sy

	@NO_APP
	str	r0, [sp, #52]
.Ltmp10:
	.loc	4 198 2                         @ ../ThirdParty/FreeRTOS/Source/event_groups.c:198:2
	b	.LBB1_2
.LBB1_2:                                @ =>This Inner Loop Header: Depth=1
.Ltmp11:
	.loc	4 198 2 is_stmt 0               @ ../ThirdParty/FreeRTOS/Source/event_groups.c:198:2
	b	.LBB1_2
.Ltmp12:
.LBB1_3:
	.loc	4 199 2 is_stmt 1               @ ../ThirdParty/FreeRTOS/Source/event_groups.c:199:2
	ldr	r0, [sp, #32]
.Ltmp13:
	.loc	4 199 2 is_stmt 0               @ ../ThirdParty/FreeRTOS/Source/event_groups.c:199:2
	cbnz	r0, .LBB1_6
	b	.LBB1_4
.LBB1_4:
.Ltmp14:
	.loc	2 199 2                         @ ../ThirdParty/FreeRTOS/Source/portable/GCC/ARM_CM4F\portmacro.h:199:2
	@APP
	mov.w	r0, #80
	msr	basepri, r0
	isb	sy
	dsb	sy

	@NO_APP
	str	r0, [sp, #48]
.Ltmp15:
	.loc	4 199 2                         @ ../ThirdParty/FreeRTOS/Source/event_groups.c:199:2
	b	.LBB1_5
.LBB1_5:                                @ =>This Inner Loop Header: Depth=1
.Ltmp16:
	.loc	4 199 2                         @ ../ThirdParty/FreeRTOS/Source/event_groups.c:199:2
	b	.LBB1_5
.Ltmp17:
.LBB1_6:
	.loc	4 202 3 is_stmt 1               @ ../ThirdParty/FreeRTOS/Source/event_groups.c:202:3
	bl	xTaskGetSchedulerState
	mov	r1, r0
	movs	r0, #0
	str	r0, [sp, #4]                    @ 4-byte Spill
	cbnz	r1, .LBB1_8
	b	.LBB1_7
.LBB1_7:
	ldr	r0, [sp, #28]
	cmp	r0, #0
	it	ne
	movne	r0, #1
	str	r0, [sp, #4]                    @ 4-byte Spill
	b	.LBB1_8
.LBB1_8:
	.loc	4 0 0 is_stmt 0                 @ ../ThirdParty/FreeRTOS/Source/event_groups.c:0:0
	ldr	r0, [sp, #4]                    @ 4-byte Reload
.Ltmp18:
	.loc	4 202 3                         @ ../ThirdParty/FreeRTOS/Source/event_groups.c:202:3
	lsls	r0, r0, #31
	cbz	r0, .LBB1_11
	b	.LBB1_9
.LBB1_9:
.Ltmp19:
	.loc	2 199 2 is_stmt 1               @ ../ThirdParty/FreeRTOS/Source/portable/GCC/ARM_CM4F\portmacro.h:199:2
	@APP
	mov.w	r0, #80
	msr	basepri, r0
	isb	sy
	dsb	sy

	@NO_APP
	str	r0, [sp, #44]
.Ltmp20:
	.loc	4 202 3                         @ ../ThirdParty/FreeRTOS/Source/event_groups.c:202:3
	b	.LBB1_10
.LBB1_10:                               @ =>This Inner Loop Header: Depth=1
.Ltmp21:
	.loc	4 202 3 is_stmt 0               @ ../ThirdParty/FreeRTOS/Source/event_groups.c:202:3
	b	.LBB1_10
.Ltmp22:
.LBB1_11:
	.loc	4 206 2 is_stmt 1               @ ../ThirdParty/FreeRTOS/Source/event_groups.c:206:2
	bl	vTaskSuspendAll
.Ltmp23:
	.loc	4 208 24                        @ ../ThirdParty/FreeRTOS/Source/event_groups.c:208:24
	ldr	r0, [sp, #16]
	.loc	4 208 37 is_stmt 0              @ ../ThirdParty/FreeRTOS/Source/event_groups.c:208:37
	ldr	r0, [r0]
	.loc	4 208 22                        @ ../ThirdParty/FreeRTOS/Source/event_groups.c:208:22
	str	r0, [sp, #24]
	.loc	4 210 32 is_stmt 1              @ ../ThirdParty/FreeRTOS/Source/event_groups.c:210:32
	ldr	r0, [sp, #40]
	.loc	4 210 45 is_stmt 0              @ ../ThirdParty/FreeRTOS/Source/event_groups.c:210:45
	ldr	r1, [sp, #36]
	.loc	4 210 12                        @ ../ThirdParty/FreeRTOS/Source/event_groups.c:210:12
	bl	xEventGroupSetBits
.Ltmp24:
	.loc	4 212 11 is_stmt 1              @ ../ThirdParty/FreeRTOS/Source/event_groups.c:212:11
	ldr	r0, [sp, #24]
	.loc	4 212 32 is_stmt 0              @ ../ThirdParty/FreeRTOS/Source/event_groups.c:212:32
	ldr	r1, [sp, #36]
	.loc	4 212 30                        @ ../ThirdParty/FreeRTOS/Source/event_groups.c:212:30
	orrs	r0, r1
	.loc	4 212 48                        @ ../ThirdParty/FreeRTOS/Source/event_groups.c:212:48
	ldr	r1, [sp, #32]
	.loc	4 212 46                        @ ../ThirdParty/FreeRTOS/Source/event_groups.c:212:46
	ands	r0, r1
.Ltmp25:
	.loc	4 212 7                         @ ../ThirdParty/FreeRTOS/Source/event_groups.c:212:7
	cmp	r0, r1
	bne	.LBB1_13
	b	.LBB1_12
.LBB1_12:
.Ltmp26:
	.loc	4 215 17 is_stmt 1              @ ../ThirdParty/FreeRTOS/Source/event_groups.c:215:17
	ldr	r0, [sp, #24]
	.loc	4 215 38 is_stmt 0              @ ../ThirdParty/FreeRTOS/Source/event_groups.c:215:38
	ldr	r1, [sp, #36]
	.loc	4 215 36                        @ ../ThirdParty/FreeRTOS/Source/event_groups.c:215:36
	orrs	r0, r1
	.loc	4 215 13                        @ ../ThirdParty/FreeRTOS/Source/event_groups.c:215:13
	str	r0, [sp, #20]
	.loc	4 219 33 is_stmt 1              @ ../ThirdParty/FreeRTOS/Source/event_groups.c:219:33
	ldr	r2, [sp, #32]
	.loc	4 219 4 is_stmt 0               @ ../ThirdParty/FreeRTOS/Source/event_groups.c:219:4
	ldr	r1, [sp, #16]
	.loc	4 219 29                        @ ../ThirdParty/FreeRTOS/Source/event_groups.c:219:29
	ldr	r0, [r1]
	bics	r0, r2
	str	r0, [r1]
	movs	r0, #0
	.loc	4 221 17 is_stmt 1              @ ../ThirdParty/FreeRTOS/Source/event_groups.c:221:17
	str	r0, [sp, #28]
	.loc	4 222 3                         @ ../ThirdParty/FreeRTOS/Source/event_groups.c:222:3
	b	.LBB1_17
.Ltmp27:
.LBB1_13:
	.loc	4 225 8                         @ ../ThirdParty/FreeRTOS/Source/event_groups.c:225:8
	ldr	r0, [sp, #28]
.Ltmp28:
	.loc	4 225 8 is_stmt 0               @ ../ThirdParty/FreeRTOS/Source/event_groups.c:225:8
	cbz	r0, .LBB1_15
	b	.LBB1_14
.LBB1_14:
.Ltmp29:
	.loc	4 232 40 is_stmt 1              @ ../ThirdParty/FreeRTOS/Source/event_groups.c:232:40
	ldr	r0, [sp, #16]
	.loc	4 232 53 is_stmt 0              @ ../ThirdParty/FreeRTOS/Source/event_groups.c:232:53
	adds	r0, #4
	.loc	4 232 79                        @ ../ThirdParty/FreeRTOS/Source/event_groups.c:232:79
	ldr	r1, [sp, #32]
	.loc	4 232 127                       @ ../ThirdParty/FreeRTOS/Source/event_groups.c:232:127
	orr	r1, r1, #83886080
	.loc	4 232 155                       @ ../ThirdParty/FreeRTOS/Source/event_groups.c:232:155
	ldr	r2, [sp, #28]
	.loc	4 232 5                         @ ../ThirdParty/FreeRTOS/Source/event_groups.c:232:5
	bl	vTaskPlaceOnUnorderedEventList
	movs	r0, #0
	.loc	4 238 14 is_stmt 1              @ ../ThirdParty/FreeRTOS/Source/event_groups.c:238:14
	str	r0, [sp, #20]
	.loc	4 239 4                         @ ../ThirdParty/FreeRTOS/Source/event_groups.c:239:4
	b	.LBB1_16
.Ltmp30:
.LBB1_15:
	.loc	4 244 16                        @ ../ThirdParty/FreeRTOS/Source/event_groups.c:244:16
	ldr	r0, [sp, #16]
	.loc	4 244 29 is_stmt 0              @ ../ThirdParty/FreeRTOS/Source/event_groups.c:244:29
	ldr	r0, [r0]
	.loc	4 244 14                        @ ../ThirdParty/FreeRTOS/Source/event_groups.c:244:14
	str	r0, [sp, #20]
	movs	r0, #1
	.loc	4 245 22 is_stmt 1              @ ../ThirdParty/FreeRTOS/Source/event_groups.c:245:22
	str	r0, [sp, #8]
	b	.LBB1_16
.Ltmp31:
.LBB1_16:
	.loc	4 0 22 is_stmt 0                @ ../ThirdParty/FreeRTOS/Source/event_groups.c:0:22
	b	.LBB1_17
.LBB1_17:
	.loc	4 249 20 is_stmt 1              @ ../ThirdParty/FreeRTOS/Source/event_groups.c:249:20
	bl	xTaskResumeAll
	.loc	4 249 18 is_stmt 0              @ ../ThirdParty/FreeRTOS/Source/event_groups.c:249:18
	str	r0, [sp, #12]
.Ltmp32:
	.loc	4 251 6 is_stmt 1               @ ../ThirdParty/FreeRTOS/Source/event_groups.c:251:6
	ldr	r0, [sp, #28]
.Ltmp33:
	.loc	4 251 6 is_stmt 0               @ ../ThirdParty/FreeRTOS/Source/event_groups.c:251:6
	cbz	r0, .LBB1_28
	b	.LBB1_18
.LBB1_18:
.Ltmp34:
	.loc	4 253 7 is_stmt 1               @ ../ThirdParty/FreeRTOS/Source/event_groups.c:253:7
	ldr	r0, [sp, #12]
.Ltmp35:
	.loc	4 253 7 is_stmt 0               @ ../ThirdParty/FreeRTOS/Source/event_groups.c:253:7
	cbnz	r0, .LBB1_20
	b	.LBB1_19
.LBB1_19:
	.loc	4 0 7                           @ ../ThirdParty/FreeRTOS/Source/event_groups.c:0:7
	movw	r1, #60676
	movt	r1, #57344
	mov.w	r0, #268435456
.Ltmp36:
	.loc	4 255 4 is_stmt 1               @ ../ThirdParty/FreeRTOS/Source/event_groups.c:255:4
	str	r0, [r1]
	@APP
	dsb	sy
	@NO_APP
	@APP
	isb	sy
	@NO_APP
.Ltmp37:
	.loc	4 256 3                         @ ../ThirdParty/FreeRTOS/Source/event_groups.c:256:3
	b	.LBB1_21
.Ltmp38:
.LBB1_20:
	.loc	4 0 3 is_stmt 0                 @ ../ThirdParty/FreeRTOS/Source/event_groups.c:0:3
	b	.LBB1_21
.LBB1_21:
	.loc	4 266 14 is_stmt 1              @ ../ThirdParty/FreeRTOS/Source/event_groups.c:266:14
	bl	uxTaskResetEventItemValue
	.loc	4 266 12 is_stmt 0              @ ../ThirdParty/FreeRTOS/Source/event_groups.c:266:12
	str	r0, [sp, #20]
	.loc	4 268 7 is_stmt 1               @ ../ThirdParty/FreeRTOS/Source/event_groups.c:268:7
	ldrb.w	r0, [sp, #23]
	lsls	r0, r0, #30
	cmp	r0, #0
	bmi	.LBB1_26
	b	.LBB1_22
.LBB1_22:
.Ltmp39:
	.loc	4 271 4                         @ ../ThirdParty/FreeRTOS/Source/event_groups.c:271:4
	bl	vPortEnterCritical
.Ltmp40:
	.loc	4 273 16                        @ ../ThirdParty/FreeRTOS/Source/event_groups.c:273:16
	ldr	r0, [sp, #16]
	.loc	4 273 29 is_stmt 0              @ ../ThirdParty/FreeRTOS/Source/event_groups.c:273:29
	ldr	r0, [r0]
	.loc	4 273 14                        @ ../ThirdParty/FreeRTOS/Source/event_groups.c:273:14
	str	r0, [sp, #20]
.Ltmp41:
	.loc	4 279 11 is_stmt 1              @ ../ThirdParty/FreeRTOS/Source/event_groups.c:279:11
	ldr	r0, [sp, #20]
	.loc	4 279 22 is_stmt 0              @ ../ThirdParty/FreeRTOS/Source/event_groups.c:279:22
	ldr	r1, [sp, #32]
	.loc	4 279 20                        @ ../ThirdParty/FreeRTOS/Source/event_groups.c:279:20
	ands	r0, r1
.Ltmp42:
	.loc	4 279 9                         @ ../ThirdParty/FreeRTOS/Source/event_groups.c:279:9
	cmp	r0, r1
	bne	.LBB1_24
	b	.LBB1_23
.LBB1_23:
.Ltmp43:
	.loc	4 281 35 is_stmt 1              @ ../ThirdParty/FreeRTOS/Source/event_groups.c:281:35
	ldr	r2, [sp, #32]
	.loc	4 281 6 is_stmt 0               @ ../ThirdParty/FreeRTOS/Source/event_groups.c:281:6
	ldr	r1, [sp, #16]
	.loc	4 281 31                        @ ../ThirdParty/FreeRTOS/Source/event_groups.c:281:31
	ldr	r0, [r1]
	bics	r0, r2
	str	r0, [r1]
	.loc	4 282 5 is_stmt 1               @ ../ThirdParty/FreeRTOS/Source/event_groups.c:282:5
	b	.LBB1_25
.Ltmp44:
.LBB1_24:
	.loc	4 0 5 is_stmt 0                 @ ../ThirdParty/FreeRTOS/Source/event_groups.c:0:5
	b	.LBB1_25
.LBB1_25:
	.loc	4 288 4 is_stmt 1               @ ../ThirdParty/FreeRTOS/Source/event_groups.c:288:4
	bl	vPortExitCritical
	movs	r0, #1
	.loc	4 290 21                        @ ../ThirdParty/FreeRTOS/Source/event_groups.c:290:21
	str	r0, [sp, #8]
	.loc	4 291 3                         @ ../ThirdParty/FreeRTOS/Source/event_groups.c:291:3
	b	.LBB1_27
.Ltmp45:
.LBB1_26:
	.loc	4 0 3 is_stmt 0                 @ ../ThirdParty/FreeRTOS/Source/event_groups.c:0:3
	b	.LBB1_27
.LBB1_27:
	.loc	4 299 12 is_stmt 1              @ ../ThirdParty/FreeRTOS/Source/event_groups.c:299:12
	ldr	r0, [sp, #20]
	bic	r0, r0, #-16777216
	str	r0, [sp, #20]
	.loc	4 300 2                         @ ../ThirdParty/FreeRTOS/Source/event_groups.c:300:2
	b	.LBB1_28
.Ltmp46:
.LBB1_28:
	.loc	4 307 9                         @ ../ThirdParty/FreeRTOS/Source/event_groups.c:307:9
	ldr	r0, [sp, #20]
	.loc	4 307 2 epilogue_begin is_stmt 0 @ ../ThirdParty/FreeRTOS/Source/event_groups.c:307:2
	add	sp, #56
	pop	{r7, pc}
.Ltmp47:
.Lfunc_end1:
	.size	xEventGroupSync, .Lfunc_end1-xEventGroupSync
	.cfi_endproc
	.cantunwind
	.fnend
                                        @ -- End function
	.section	.text.xEventGroupSetBits,"ax",%progbits
	.hidden	xEventGroupSetBits              @ -- Begin function xEventGroupSetBits
	.globl	xEventGroupSetBits
	.p2align	2
	.type	xEventGroupSetBits,%function
	.code	16                              @ @xEventGroupSetBits
	.thumb_func
xEventGroupSetBits:
.Lfunc_begin2:
	.loc	4 520 0 is_stmt 1               @ ../ThirdParty/FreeRTOS/Source/event_groups.c:520:0
	.fnstart
	.cfi_startproc
@ %bb.0:
	.save	{r7, lr}
	push	{r7, lr}
	.cfi_def_cfa_offset 8
	.cfi_offset lr, -4
	.cfi_offset r7, -8
	.pad	#56
	sub	sp, #56
	.cfi_def_cfa_offset 64
	str	r0, [sp, #44]
	str	r1, [sp, #40]
	movs	r0, #0
.Ltmp48:
	.loc	4 524 13 prologue_end           @ ../ThirdParty/FreeRTOS/Source/event_groups.c:524:13
	str	r0, [sp, #20]
	.loc	4 525 29                        @ ../ThirdParty/FreeRTOS/Source/event_groups.c:525:29
	ldr	r1, [sp, #44]
	.loc	4 525 15 is_stmt 0              @ ../ThirdParty/FreeRTOS/Source/event_groups.c:525:15
	str	r1, [sp, #8]
	.loc	4 526 12 is_stmt 1              @ ../ThirdParty/FreeRTOS/Source/event_groups.c:526:12
	str	r0, [sp, #4]
.Ltmp49:
	.loc	4 530 2                         @ ../ThirdParty/FreeRTOS/Source/event_groups.c:530:2
	ldr	r0, [sp, #44]
.Ltmp50:
	.loc	4 530 2 is_stmt 0               @ ../ThirdParty/FreeRTOS/Source/event_groups.c:530:2
	cbnz	r0, .LBB2_3
	b	.LBB2_1
.LBB2_1:
.Ltmp51:
	.loc	2 199 2 is_stmt 1               @ ../ThirdParty/FreeRTOS/Source/portable/GCC/ARM_CM4F\portmacro.h:199:2
	@APP
	mov.w	r0, #80
	msr	basepri, r0
	isb	sy
	dsb	sy

	@NO_APP
	str	r0, [sp, #52]
.Ltmp52:
	.loc	4 530 2                         @ ../ThirdParty/FreeRTOS/Source/event_groups.c:530:2
	b	.LBB2_2
.LBB2_2:                                @ =>This Inner Loop Header: Depth=1
.Ltmp53:
	.loc	4 530 2 is_stmt 0               @ ../ThirdParty/FreeRTOS/Source/event_groups.c:530:2
	b	.LBB2_2
.Ltmp54:
.LBB2_3:
	.loc	4 531 2 is_stmt 1               @ ../ThirdParty/FreeRTOS/Source/event_groups.c:531:2
	ldrb.w	r0, [sp, #43]
.Ltmp55:
	.loc	4 531 2 is_stmt 0               @ ../ThirdParty/FreeRTOS/Source/event_groups.c:531:2
	cbz	r0, .LBB2_6
	b	.LBB2_4
.LBB2_4:
.Ltmp56:
	.loc	2 199 2 is_stmt 1               @ ../ThirdParty/FreeRTOS/Source/portable/GCC/ARM_CM4F\portmacro.h:199:2
	@APP
	mov.w	r0, #80
	msr	basepri, r0
	isb	sy
	dsb	sy

	@NO_APP
	str	r0, [sp, #48]
.Ltmp57:
	.loc	4 531 2                         @ ../ThirdParty/FreeRTOS/Source/event_groups.c:531:2
	b	.LBB2_5
.LBB2_5:                                @ =>This Inner Loop Header: Depth=1
.Ltmp58:
	.loc	4 531 2 is_stmt 0               @ ../ThirdParty/FreeRTOS/Source/event_groups.c:531:2
	b	.LBB2_5
.Ltmp59:
.LBB2_6:
	.loc	4 533 14 is_stmt 1              @ ../ThirdParty/FreeRTOS/Source/event_groups.c:533:14
	ldr	r0, [sp, #8]
	.loc	4 533 27 is_stmt 0              @ ../ThirdParty/FreeRTOS/Source/event_groups.c:533:27
	adds	r0, #4
	.loc	4 533 9                         @ ../ThirdParty/FreeRTOS/Source/event_groups.c:533:9
	str	r0, [sp, #24]
	.loc	4 534 14 is_stmt 1              @ ../ThirdParty/FreeRTOS/Source/event_groups.c:534:14
	ldr	r0, [sp, #24]
	adds	r0, #8
	.loc	4 534 12 is_stmt 0              @ ../ThirdParty/FreeRTOS/Source/event_groups.c:534:12
	str	r0, [sp, #28]
	.loc	4 535 2 is_stmt 1               @ ../ThirdParty/FreeRTOS/Source/event_groups.c:535:2
	bl	vTaskSuspendAll
.Ltmp60:
	.loc	4 539 16                        @ ../ThirdParty/FreeRTOS/Source/event_groups.c:539:16
	ldr	r0, [sp, #24]
	ldr	r0, [r0, #12]
	.loc	4 539 14 is_stmt 0              @ ../ThirdParty/FreeRTOS/Source/event_groups.c:539:14
	str	r0, [sp, #36]
	.loc	4 542 31 is_stmt 1              @ ../ThirdParty/FreeRTOS/Source/event_groups.c:542:31
	ldr	r2, [sp, #40]
	.loc	4 542 3 is_stmt 0               @ ../ThirdParty/FreeRTOS/Source/event_groups.c:542:3
	ldr	r1, [sp, #8]
	.loc	4 542 28                        @ ../ThirdParty/FreeRTOS/Source/event_groups.c:542:28
	ldr	r0, [r1]
	orrs	r0, r2
	str	r0, [r1]
	.loc	4 545 3 is_stmt 1               @ ../ThirdParty/FreeRTOS/Source/event_groups.c:545:3
	b	.LBB2_7
.LBB2_7:                                @ =>This Inner Loop Header: Depth=1
	.loc	4 545 10 is_stmt 0              @ ../ThirdParty/FreeRTOS/Source/event_groups.c:545:10
	ldr	r0, [sp, #36]
	.loc	4 545 24                        @ ../ThirdParty/FreeRTOS/Source/event_groups.c:545:24
	ldr	r1, [sp, #28]
	.loc	4 545 3                         @ ../ThirdParty/FreeRTOS/Source/event_groups.c:545:3
	cmp	r0, r1
	beq	.LBB2_23
	b	.LBB2_8
.LBB2_8:                                @   in Loop: Header=BB2_7 Depth=1
.Ltmp61:
	.loc	4 547 13 is_stmt 1              @ ../ThirdParty/FreeRTOS/Source/event_groups.c:547:13
	ldr	r0, [sp, #36]
	ldr	r0, [r0, #4]
	.loc	4 547 11 is_stmt 0              @ ../ThirdParty/FreeRTOS/Source/event_groups.c:547:11
	str	r0, [sp, #32]
	.loc	4 548 22 is_stmt 1              @ ../ThirdParty/FreeRTOS/Source/event_groups.c:548:22
	ldr	r0, [sp, #36]
	ldr	r0, [r0]
	.loc	4 548 20 is_stmt 0              @ ../ThirdParty/FreeRTOS/Source/event_groups.c:548:20
	str	r0, [sp, #16]
	movs	r0, #0
	.loc	4 549 16 is_stmt 1              @ ../ThirdParty/FreeRTOS/Source/event_groups.c:549:16
	str	r0, [sp, #4]
	.loc	4 552 20                        @ ../ThirdParty/FreeRTOS/Source/event_groups.c:552:20
	ldrb.w	r0, [sp, #19]
	lsls	r0, r0, #24
	.loc	4 552 18 is_stmt 0              @ ../ThirdParty/FreeRTOS/Source/event_groups.c:552:18
	str	r0, [sp, #12]
	.loc	4 553 20 is_stmt 1              @ ../ThirdParty/FreeRTOS/Source/event_groups.c:553:20
	ldr	r0, [sp, #16]
	bic	r0, r0, #-16777216
	str	r0, [sp, #16]
	.loc	4 555 8                         @ ../ThirdParty/FreeRTOS/Source/event_groups.c:555:8
	ldrb.w	r0, [sp, #15]
	lsls	r0, r0, #29
	cmp	r0, #0
	bmi	.LBB2_13
	b	.LBB2_9
.LBB2_9:                                @   in Loop: Header=BB2_7 Depth=1
.Ltmp62:
	.loc	4 558 11                        @ ../ThirdParty/FreeRTOS/Source/event_groups.c:558:11
	ldr	r0, [sp, #16]
	.loc	4 558 29 is_stmt 0              @ ../ThirdParty/FreeRTOS/Source/event_groups.c:558:29
	ldr	r1, [sp, #8]
	.loc	4 558 42                        @ ../ThirdParty/FreeRTOS/Source/event_groups.c:558:42
	ldr	r1, [r1]
.Ltmp63:
	.loc	4 558 9                         @ ../ThirdParty/FreeRTOS/Source/event_groups.c:558:9
	tst	r0, r1
	beq	.LBB2_11
	b	.LBB2_10
.LBB2_10:                               @   in Loop: Header=BB2_7 Depth=1
	.loc	4 0 9                           @ ../ThirdParty/FreeRTOS/Source/event_groups.c:0:9
	movs	r0, #1
.Ltmp64:
	.loc	4 560 18 is_stmt 1              @ ../ThirdParty/FreeRTOS/Source/event_groups.c:560:18
	str	r0, [sp, #4]
	.loc	4 561 5                         @ ../ThirdParty/FreeRTOS/Source/event_groups.c:561:5
	b	.LBB2_12
.Ltmp65:
.LBB2_11:                               @   in Loop: Header=BB2_7 Depth=1
	.loc	4 0 5 is_stmt 0                 @ ../ThirdParty/FreeRTOS/Source/event_groups.c:0:5
	b	.LBB2_12
.LBB2_12:                               @   in Loop: Header=BB2_7 Depth=1
	.loc	4 566 4 is_stmt 1               @ ../ThirdParty/FreeRTOS/Source/event_groups.c:566:4
	b	.LBB2_17
.Ltmp66:
.LBB2_13:                               @   in Loop: Header=BB2_7 Depth=1
	.loc	4 567 15                        @ ../ThirdParty/FreeRTOS/Source/event_groups.c:567:15
	ldr	r1, [sp, #16]
	.loc	4 567 33 is_stmt 0              @ ../ThirdParty/FreeRTOS/Source/event_groups.c:567:33
	ldr	r0, [sp, #8]
	.loc	4 567 46                        @ ../ThirdParty/FreeRTOS/Source/event_groups.c:567:46
	ldr	r0, [r0]
	.loc	4 567 31                        @ ../ThirdParty/FreeRTOS/Source/event_groups.c:567:31
	ands	r0, r1
.Ltmp67:
	.loc	4 567 13                        @ ../ThirdParty/FreeRTOS/Source/event_groups.c:567:13
	cmp	r0, r1
	bne	.LBB2_15
	b	.LBB2_14
.LBB2_14:                               @   in Loop: Header=BB2_7 Depth=1
	.loc	4 0 13                          @ ../ThirdParty/FreeRTOS/Source/event_groups.c:0:13
	movs	r0, #1
.Ltmp68:
	.loc	4 570 17 is_stmt 1              @ ../ThirdParty/FreeRTOS/Source/event_groups.c:570:17
	str	r0, [sp, #4]
	.loc	4 571 4                         @ ../ThirdParty/FreeRTOS/Source/event_groups.c:571:4
	b	.LBB2_16
.Ltmp69:
.LBB2_15:                               @   in Loop: Header=BB2_7 Depth=1
	.loc	4 0 4 is_stmt 0                 @ ../ThirdParty/FreeRTOS/Source/event_groups.c:0:4
	b	.LBB2_16
.LBB2_16:                               @   in Loop: Header=BB2_7 Depth=1
	b	.LBB2_17
.LBB2_17:                               @   in Loop: Header=BB2_7 Depth=1
.Ltmp70:
	.loc	4 577 8 is_stmt 1               @ ../ThirdParty/FreeRTOS/Source/event_groups.c:577:8
	ldr	r0, [sp, #4]
.Ltmp71:
	.loc	4 577 8 is_stmt 0               @ ../ThirdParty/FreeRTOS/Source/event_groups.c:577:8
	cbz	r0, .LBB2_22
	b	.LBB2_18
.LBB2_18:                               @   in Loop: Header=BB2_7 Depth=1
.Ltmp72:
	.loc	4 580 9 is_stmt 1               @ ../ThirdParty/FreeRTOS/Source/event_groups.c:580:9
	ldrb.w	r0, [sp, #15]
	lsls	r0, r0, #31
	cbz	r0, .LBB2_20
	b	.LBB2_19
.LBB2_19:                               @   in Loop: Header=BB2_7 Depth=1
.Ltmp73:
	.loc	4 582 23                        @ ../ThirdParty/FreeRTOS/Source/event_groups.c:582:23
	ldr	r1, [sp, #16]
	.loc	4 582 20 is_stmt 0              @ ../ThirdParty/FreeRTOS/Source/event_groups.c:582:20
	ldr	r0, [sp, #20]
	orrs	r0, r1
	str	r0, [sp, #20]
	.loc	4 583 5 is_stmt 1               @ ../ThirdParty/FreeRTOS/Source/event_groups.c:583:5
	b	.LBB2_21
.Ltmp74:
.LBB2_20:                               @   in Loop: Header=BB2_7 Depth=1
	.loc	4 0 5 is_stmt 0                 @ ../ThirdParty/FreeRTOS/Source/event_groups.c:0:5
	b	.LBB2_21
.LBB2_21:                               @   in Loop: Header=BB2_7 Depth=1
	.loc	4 594 40 is_stmt 1              @ ../ThirdParty/FreeRTOS/Source/event_groups.c:594:40
	ldr	r0, [sp, #36]
	.loc	4 594 52 is_stmt 0              @ ../ThirdParty/FreeRTOS/Source/event_groups.c:594:52
	ldr	r1, [sp, #8]
	.loc	4 594 65                        @ ../ThirdParty/FreeRTOS/Source/event_groups.c:594:65
	ldr	r1, [r1]
	.loc	4 594 77                        @ ../ThirdParty/FreeRTOS/Source/event_groups.c:594:77
	orr	r1, r1, #33554432
	.loc	4 594 5                         @ ../ThirdParty/FreeRTOS/Source/event_groups.c:594:5
	bl	vTaskRemoveFromUnorderedEventList
	.loc	4 595 4 is_stmt 1               @ ../ThirdParty/FreeRTOS/Source/event_groups.c:595:4
	b	.LBB2_22
.Ltmp75:
.LBB2_22:                               @   in Loop: Header=BB2_7 Depth=1
	.loc	4 600 17                        @ ../ThirdParty/FreeRTOS/Source/event_groups.c:600:17
	ldr	r0, [sp, #32]
	.loc	4 600 15 is_stmt 0              @ ../ThirdParty/FreeRTOS/Source/event_groups.c:600:15
	str	r0, [sp, #36]
.Ltmp76:
	.loc	4 545 3 is_stmt 1               @ ../ThirdParty/FreeRTOS/Source/event_groups.c:545:3
	b	.LBB2_7
.LBB2_23:
	.loc	4 605 32                        @ ../ThirdParty/FreeRTOS/Source/event_groups.c:605:32
	ldr	r2, [sp, #20]
	.loc	4 605 3 is_stmt 0               @ ../ThirdParty/FreeRTOS/Source/event_groups.c:605:3
	ldr	r1, [sp, #8]
	.loc	4 605 28                        @ ../ThirdParty/FreeRTOS/Source/event_groups.c:605:28
	ldr	r0, [r1]
	bics	r0, r2
	str	r0, [r1]
.Ltmp77:
	.loc	4 607 11 is_stmt 1              @ ../ThirdParty/FreeRTOS/Source/event_groups.c:607:11
	bl	xTaskResumeAll
	.loc	4 609 9                         @ ../ThirdParty/FreeRTOS/Source/event_groups.c:609:9
	ldr	r0, [sp, #8]
	.loc	4 609 22 is_stmt 0              @ ../ThirdParty/FreeRTOS/Source/event_groups.c:609:22
	ldr	r0, [r0]
	.loc	4 609 2 epilogue_begin          @ ../ThirdParty/FreeRTOS/Source/event_groups.c:609:2
	add	sp, #56
	pop	{r7, pc}
.Ltmp78:
.Lfunc_end2:
	.size	xEventGroupSetBits, .Lfunc_end2-xEventGroupSetBits
	.cfi_endproc
	.cantunwind
	.fnend
                                        @ -- End function
	.section	.text.xEventGroupWaitBits,"ax",%progbits
	.hidden	xEventGroupWaitBits             @ -- Begin function xEventGroupWaitBits
	.globl	xEventGroupWaitBits
	.p2align	2
	.type	xEventGroupWaitBits,%function
	.code	16                              @ @xEventGroupWaitBits
	.thumb_func
xEventGroupWaitBits:
.Lfunc_begin3:
	.loc	4 312 0 is_stmt 1               @ ../ThirdParty/FreeRTOS/Source/event_groups.c:312:0
	.fnstart
	.cfi_startproc
@ %bb.0:
	.save	{r7, lr}
	push	{r7, lr}
	.cfi_def_cfa_offset 8
	.cfi_offset lr, -4
	.cfi_offset r7, -8
	.pad	#64
	sub	sp, #64
	.cfi_def_cfa_offset 72
	ldr.w	r12, [sp, #72]
	str	r0, [sp, #44]
	str	r1, [sp, #40]
	str	r2, [sp, #36]
	str	r3, [sp, #32]
.Ltmp79:
	.loc	4 313 29 prologue_end           @ ../ThirdParty/FreeRTOS/Source/event_groups.c:313:29
	ldr	r0, [sp, #44]
	.loc	4 313 15 is_stmt 0              @ ../ThirdParty/FreeRTOS/Source/event_groups.c:313:15
	str	r0, [sp, #28]
	movs	r0, #0
	.loc	4 314 23 is_stmt 1              @ ../ThirdParty/FreeRTOS/Source/event_groups.c:314:23
	str	r0, [sp, #20]
	.loc	4 316 12                        @ ../ThirdParty/FreeRTOS/Source/event_groups.c:316:12
	str	r0, [sp, #8]
.Ltmp80:
	.loc	4 320 2                         @ ../ThirdParty/FreeRTOS/Source/event_groups.c:320:2
	ldr	r0, [sp, #44]
.Ltmp81:
	.loc	4 320 2 is_stmt 0               @ ../ThirdParty/FreeRTOS/Source/event_groups.c:320:2
	cbnz	r0, .LBB3_3
	b	.LBB3_1
.LBB3_1:
.Ltmp82:
	.loc	2 199 2 is_stmt 1               @ ../ThirdParty/FreeRTOS/Source/portable/GCC/ARM_CM4F\portmacro.h:199:2
	@APP
	mov.w	r0, #80
	msr	basepri, r0
	isb	sy
	dsb	sy

	@NO_APP
	str	r0, [sp, #60]
.Ltmp83:
	.loc	4 320 2                         @ ../ThirdParty/FreeRTOS/Source/event_groups.c:320:2
	b	.LBB3_2
.LBB3_2:                                @ =>This Inner Loop Header: Depth=1
.Ltmp84:
	.loc	4 320 2 is_stmt 0               @ ../ThirdParty/FreeRTOS/Source/event_groups.c:320:2
	b	.LBB3_2
.Ltmp85:
.LBB3_3:
	.loc	4 321 2 is_stmt 1               @ ../ThirdParty/FreeRTOS/Source/event_groups.c:321:2
	ldrb.w	r0, [sp, #43]
.Ltmp86:
	.loc	4 321 2 is_stmt 0               @ ../ThirdParty/FreeRTOS/Source/event_groups.c:321:2
	cbz	r0, .LBB3_6
	b	.LBB3_4
.LBB3_4:
.Ltmp87:
	.loc	2 199 2 is_stmt 1               @ ../ThirdParty/FreeRTOS/Source/portable/GCC/ARM_CM4F\portmacro.h:199:2
	@APP
	mov.w	r0, #80
	msr	basepri, r0
	isb	sy
	dsb	sy

	@NO_APP
	str	r0, [sp, #56]
.Ltmp88:
	.loc	4 321 2                         @ ../ThirdParty/FreeRTOS/Source/event_groups.c:321:2
	b	.LBB3_5
.LBB3_5:                                @ =>This Inner Loop Header: Depth=1
.Ltmp89:
	.loc	4 321 2 is_stmt 0               @ ../ThirdParty/FreeRTOS/Source/event_groups.c:321:2
	b	.LBB3_5
.Ltmp90:
.LBB3_6:
	.loc	4 322 2 is_stmt 1               @ ../ThirdParty/FreeRTOS/Source/event_groups.c:322:2
	ldr	r0, [sp, #40]
.Ltmp91:
	.loc	4 322 2 is_stmt 0               @ ../ThirdParty/FreeRTOS/Source/event_groups.c:322:2
	cbnz	r0, .LBB3_9
	b	.LBB3_7
.LBB3_7:
.Ltmp92:
	.loc	2 199 2 is_stmt 1               @ ../ThirdParty/FreeRTOS/Source/portable/GCC/ARM_CM4F\portmacro.h:199:2
	@APP
	mov.w	r0, #80
	msr	basepri, r0
	isb	sy
	dsb	sy

	@NO_APP
	str	r0, [sp, #52]
.Ltmp93:
	.loc	4 322 2                         @ ../ThirdParty/FreeRTOS/Source/event_groups.c:322:2
	b	.LBB3_8
.LBB3_8:                                @ =>This Inner Loop Header: Depth=1
.Ltmp94:
	.loc	4 322 2 is_stmt 0               @ ../ThirdParty/FreeRTOS/Source/event_groups.c:322:2
	b	.LBB3_8
.Ltmp95:
.LBB3_9:
	.loc	4 325 3 is_stmt 1               @ ../ThirdParty/FreeRTOS/Source/event_groups.c:325:3
	bl	xTaskGetSchedulerState
	mov	r1, r0
	movs	r0, #0
	str	r0, [sp]                        @ 4-byte Spill
	cbnz	r1, .LBB3_11
	b	.LBB3_10
.LBB3_10:
	ldr	r0, [sp, #72]
	cmp	r0, #0
	it	ne
	movne	r0, #1
	str	r0, [sp]                        @ 4-byte Spill
	b	.LBB3_11
.LBB3_11:
	.loc	4 0 0 is_stmt 0                 @ ../ThirdParty/FreeRTOS/Source/event_groups.c:0:0
	ldr	r0, [sp]                        @ 4-byte Reload
.Ltmp96:
	.loc	4 325 3                         @ ../ThirdParty/FreeRTOS/Source/event_groups.c:325:3
	lsls	r0, r0, #31
	cbz	r0, .LBB3_14
	b	.LBB3_12
.LBB3_12:
.Ltmp97:
	.loc	2 199 2 is_stmt 1               @ ../ThirdParty/FreeRTOS/Source/portable/GCC/ARM_CM4F\portmacro.h:199:2
	@APP
	mov.w	r0, #80
	msr	basepri, r0
	isb	sy
	dsb	sy

	@NO_APP
	str	r0, [sp, #48]
.Ltmp98:
	.loc	4 325 3                         @ ../ThirdParty/FreeRTOS/Source/event_groups.c:325:3
	b	.LBB3_13
.LBB3_13:                               @ =>This Inner Loop Header: Depth=1
.Ltmp99:
	.loc	4 325 3 is_stmt 0               @ ../ThirdParty/FreeRTOS/Source/event_groups.c:325:3
	b	.LBB3_13
.Ltmp100:
.LBB3_14:
	.loc	4 329 2 is_stmt 1               @ ../ThirdParty/FreeRTOS/Source/event_groups.c:329:2
	bl	vTaskSuspendAll
.Ltmp101:
	.loc	4 331 42                        @ ../ThirdParty/FreeRTOS/Source/event_groups.c:331:42
	ldr	r0, [sp, #28]
	.loc	4 331 55 is_stmt 0              @ ../ThirdParty/FreeRTOS/Source/event_groups.c:331:55
	ldr	r0, [r0]
	.loc	4 331 21                        @ ../ThirdParty/FreeRTOS/Source/event_groups.c:331:21
	str	r0, [sp, #4]
	.loc	4 334 45 is_stmt 1              @ ../ThirdParty/FreeRTOS/Source/event_groups.c:334:45
	ldr	r0, [sp, #4]
	.loc	4 334 65 is_stmt 0              @ ../ThirdParty/FreeRTOS/Source/event_groups.c:334:65
	ldr	r1, [sp, #40]
	.loc	4 334 82                        @ ../ThirdParty/FreeRTOS/Source/event_groups.c:334:82
	ldr	r2, [sp, #32]
	.loc	4 334 23                        @ ../ThirdParty/FreeRTOS/Source/event_groups.c:334:23
	bl	prvTestWaitCondition
	.loc	4 334 21                        @ ../ThirdParty/FreeRTOS/Source/event_groups.c:334:21
	str	r0, [sp, #16]
.Ltmp102:
	.loc	4 336 7 is_stmt 1               @ ../ThirdParty/FreeRTOS/Source/event_groups.c:336:7
	ldr	r0, [sp, #16]
.Ltmp103:
	.loc	4 336 7 is_stmt 0               @ ../ThirdParty/FreeRTOS/Source/event_groups.c:336:7
	cbz	r0, .LBB3_19
	b	.LBB3_15
.LBB3_15:
.Ltmp104:
	.loc	4 340 15 is_stmt 1              @ ../ThirdParty/FreeRTOS/Source/event_groups.c:340:15
	ldr	r0, [sp, #4]
	.loc	4 340 13 is_stmt 0              @ ../ThirdParty/FreeRTOS/Source/event_groups.c:340:13
	str	r0, [sp, #24]
	movs	r0, #0
	.loc	4 341 17 is_stmt 1              @ ../ThirdParty/FreeRTOS/Source/event_groups.c:341:17
	str	r0, [sp, #72]
.Ltmp105:
	.loc	4 344 8                         @ ../ThirdParty/FreeRTOS/Source/event_groups.c:344:8
	ldr	r0, [sp, #36]
.Ltmp106:
	.loc	4 344 8 is_stmt 0               @ ../ThirdParty/FreeRTOS/Source/event_groups.c:344:8
	cbz	r0, .LBB3_17
	b	.LBB3_16
.LBB3_16:
.Ltmp107:
	.loc	4 346 34 is_stmt 1              @ ../ThirdParty/FreeRTOS/Source/event_groups.c:346:34
	ldr	r2, [sp, #40]
	.loc	4 346 5 is_stmt 0               @ ../ThirdParty/FreeRTOS/Source/event_groups.c:346:5
	ldr	r1, [sp, #28]
	.loc	4 346 30                        @ ../ThirdParty/FreeRTOS/Source/event_groups.c:346:30
	ldr	r0, [r1]
	bics	r0, r2
	str	r0, [r1]
	.loc	4 347 4 is_stmt 1               @ ../ThirdParty/FreeRTOS/Source/event_groups.c:347:4
	b	.LBB3_18
.Ltmp108:
.LBB3_17:
	.loc	4 0 4 is_stmt 0                 @ ../ThirdParty/FreeRTOS/Source/event_groups.c:0:4
	b	.LBB3_18
.LBB3_18:
	.loc	4 352 3 is_stmt 1               @ ../ThirdParty/FreeRTOS/Source/event_groups.c:352:3
	b	.LBB3_29
.Ltmp109:
.LBB3_19:
	.loc	4 353 12                        @ ../ThirdParty/FreeRTOS/Source/event_groups.c:353:12
	ldr	r0, [sp, #72]
.Ltmp110:
	.loc	4 353 12 is_stmt 0              @ ../ThirdParty/FreeRTOS/Source/event_groups.c:353:12
	cbnz	r0, .LBB3_21
	b	.LBB3_20
.LBB3_20:
.Ltmp111:
	.loc	4 357 15 is_stmt 1              @ ../ThirdParty/FreeRTOS/Source/event_groups.c:357:15
	ldr	r0, [sp, #4]
	.loc	4 357 13 is_stmt 0              @ ../ThirdParty/FreeRTOS/Source/event_groups.c:357:13
	str	r0, [sp, #24]
	movs	r0, #1
	.loc	4 358 21 is_stmt 1              @ ../ThirdParty/FreeRTOS/Source/event_groups.c:358:21
	str	r0, [sp, #8]
	.loc	4 359 3                         @ ../ThirdParty/FreeRTOS/Source/event_groups.c:359:3
	b	.LBB3_28
.Ltmp112:
.LBB3_21:
	.loc	4 366 8                         @ ../ThirdParty/FreeRTOS/Source/event_groups.c:366:8
	ldr	r0, [sp, #36]
.Ltmp113:
	.loc	4 366 8 is_stmt 0               @ ../ThirdParty/FreeRTOS/Source/event_groups.c:366:8
	cbz	r0, .LBB3_23
	b	.LBB3_22
.LBB3_22:
.Ltmp114:
	.loc	4 368 19 is_stmt 1              @ ../ThirdParty/FreeRTOS/Source/event_groups.c:368:19
	ldr	r0, [sp, #20]
	orr	r0, r0, #16777216
	str	r0, [sp, #20]
	.loc	4 369 4                         @ ../ThirdParty/FreeRTOS/Source/event_groups.c:369:4
	b	.LBB3_24
.Ltmp115:
.LBB3_23:
	.loc	4 0 4 is_stmt 0                 @ ../ThirdParty/FreeRTOS/Source/event_groups.c:0:4
	b	.LBB3_24
.LBB3_24:
.Ltmp116:
	.loc	4 375 8 is_stmt 1               @ ../ThirdParty/FreeRTOS/Source/event_groups.c:375:8
	ldr	r0, [sp, #32]
.Ltmp117:
	.loc	4 375 8 is_stmt 0               @ ../ThirdParty/FreeRTOS/Source/event_groups.c:375:8
	cbz	r0, .LBB3_26
	b	.LBB3_25
.LBB3_25:
.Ltmp118:
	.loc	4 377 19 is_stmt 1              @ ../ThirdParty/FreeRTOS/Source/event_groups.c:377:19
	ldr	r0, [sp, #20]
	orr	r0, r0, #67108864
	str	r0, [sp, #20]
	.loc	4 378 4                         @ ../ThirdParty/FreeRTOS/Source/event_groups.c:378:4
	b	.LBB3_27
.Ltmp119:
.LBB3_26:
	.loc	4 0 4 is_stmt 0                 @ ../ThirdParty/FreeRTOS/Source/event_groups.c:0:4
	b	.LBB3_27
.LBB3_27:
	.loc	4 387 39 is_stmt 1              @ ../ThirdParty/FreeRTOS/Source/event_groups.c:387:39
	ldr	r0, [sp, #28]
	.loc	4 387 52 is_stmt 0              @ ../ThirdParty/FreeRTOS/Source/event_groups.c:387:52
	adds	r0, #4
	.loc	4 387 78                        @ ../ThirdParty/FreeRTOS/Source/event_groups.c:387:78
	ldr	r1, [sp, #40]
	.loc	4 387 96                        @ ../ThirdParty/FreeRTOS/Source/event_groups.c:387:96
	ldr	r2, [sp, #20]
	.loc	4 387 94                        @ ../ThirdParty/FreeRTOS/Source/event_groups.c:387:94
	orrs	r1, r2
	.loc	4 387 113                       @ ../ThirdParty/FreeRTOS/Source/event_groups.c:387:113
	ldr	r2, [sp, #72]
	.loc	4 387 4                         @ ../ThirdParty/FreeRTOS/Source/event_groups.c:387:4
	bl	vTaskPlaceOnUnorderedEventList
	movs	r0, #0
	.loc	4 392 13 is_stmt 1              @ ../ThirdParty/FreeRTOS/Source/event_groups.c:392:13
	str	r0, [sp, #24]
	b	.LBB3_28
.Ltmp120:
.LBB3_28:
	.loc	4 0 13 is_stmt 0                @ ../ThirdParty/FreeRTOS/Source/event_groups.c:0:13
	b	.LBB3_29
.LBB3_29:
	.loc	4 397 20 is_stmt 1              @ ../ThirdParty/FreeRTOS/Source/event_groups.c:397:20
	bl	xTaskResumeAll
	.loc	4 397 18 is_stmt 0              @ ../ThirdParty/FreeRTOS/Source/event_groups.c:397:18
	str	r0, [sp, #12]
.Ltmp121:
	.loc	4 399 6 is_stmt 1               @ ../ThirdParty/FreeRTOS/Source/event_groups.c:399:6
	ldr	r0, [sp, #72]
.Ltmp122:
	.loc	4 399 6 is_stmt 0               @ ../ThirdParty/FreeRTOS/Source/event_groups.c:399:6
	cmp	r0, #0
	beq	.LBB3_43
	b	.LBB3_30
.LBB3_30:
.Ltmp123:
	.loc	4 401 7 is_stmt 1               @ ../ThirdParty/FreeRTOS/Source/event_groups.c:401:7
	ldr	r0, [sp, #12]
.Ltmp124:
	.loc	4 401 7 is_stmt 0               @ ../ThirdParty/FreeRTOS/Source/event_groups.c:401:7
	cbnz	r0, .LBB3_32
	b	.LBB3_31
.LBB3_31:
	.loc	4 0 7                           @ ../ThirdParty/FreeRTOS/Source/event_groups.c:0:7
	movw	r1, #60676
	movt	r1, #57344
	mov.w	r0, #268435456
.Ltmp125:
	.loc	4 403 4 is_stmt 1               @ ../ThirdParty/FreeRTOS/Source/event_groups.c:403:4
	str	r0, [r1]
	@APP
	dsb	sy
	@NO_APP
	@APP
	isb	sy
	@NO_APP
.Ltmp126:
	.loc	4 404 3                         @ ../ThirdParty/FreeRTOS/Source/event_groups.c:404:3
	b	.LBB3_33
.Ltmp127:
.LBB3_32:
	.loc	4 0 3 is_stmt 0                 @ ../ThirdParty/FreeRTOS/Source/event_groups.c:0:3
	b	.LBB3_33
.LBB3_33:
	.loc	4 414 14 is_stmt 1              @ ../ThirdParty/FreeRTOS/Source/event_groups.c:414:14
	bl	uxTaskResetEventItemValue
	.loc	4 414 12 is_stmt 0              @ ../ThirdParty/FreeRTOS/Source/event_groups.c:414:12
	str	r0, [sp, #24]
	.loc	4 416 7 is_stmt 1               @ ../ThirdParty/FreeRTOS/Source/event_groups.c:416:7
	ldrb.w	r0, [sp, #27]
	lsls	r0, r0, #30
	cmp	r0, #0
	bmi	.LBB3_41
	b	.LBB3_34
.LBB3_34:
.Ltmp128:
	.loc	4 418 4                         @ ../ThirdParty/FreeRTOS/Source/event_groups.c:418:4
	bl	vPortEnterCritical
.Ltmp129:
	.loc	4 421 16                        @ ../ThirdParty/FreeRTOS/Source/event_groups.c:421:16
	ldr	r0, [sp, #28]
	.loc	4 421 29 is_stmt 0              @ ../ThirdParty/FreeRTOS/Source/event_groups.c:421:29
	ldr	r0, [r0]
	.loc	4 421 14                        @ ../ThirdParty/FreeRTOS/Source/event_groups.c:421:14
	str	r0, [sp, #24]
.Ltmp130:
	.loc	4 425 31 is_stmt 1              @ ../ThirdParty/FreeRTOS/Source/event_groups.c:425:31
	ldr	r0, [sp, #24]
	.loc	4 425 41 is_stmt 0              @ ../ThirdParty/FreeRTOS/Source/event_groups.c:425:41
	ldr	r1, [sp, #40]
	.loc	4 425 58                        @ ../ThirdParty/FreeRTOS/Source/event_groups.c:425:58
	ldr	r2, [sp, #32]
	.loc	4 425 9                         @ ../ThirdParty/FreeRTOS/Source/event_groups.c:425:9
	bl	prvTestWaitCondition
.Ltmp131:
	.loc	4 425 9                         @ ../ThirdParty/FreeRTOS/Source/event_groups.c:425:9
	cbz	r0, .LBB3_39
	b	.LBB3_35
.LBB3_35:
.Ltmp132:
	.loc	4 427 10 is_stmt 1              @ ../ThirdParty/FreeRTOS/Source/event_groups.c:427:10
	ldr	r0, [sp, #36]
.Ltmp133:
	.loc	4 427 10 is_stmt 0              @ ../ThirdParty/FreeRTOS/Source/event_groups.c:427:10
	cbz	r0, .LBB3_37
	b	.LBB3_36
.LBB3_36:
.Ltmp134:
	.loc	4 429 36 is_stmt 1              @ ../ThirdParty/FreeRTOS/Source/event_groups.c:429:36
	ldr	r2, [sp, #40]
	.loc	4 429 7 is_stmt 0               @ ../ThirdParty/FreeRTOS/Source/event_groups.c:429:7
	ldr	r1, [sp, #28]
	.loc	4 429 32                        @ ../ThirdParty/FreeRTOS/Source/event_groups.c:429:32
	ldr	r0, [r1]
	bics	r0, r2
	str	r0, [r1]
	.loc	4 430 6 is_stmt 1               @ ../ThirdParty/FreeRTOS/Source/event_groups.c:430:6
	b	.LBB3_38
.Ltmp135:
.LBB3_37:
	.loc	4 0 6 is_stmt 0                 @ ../ThirdParty/FreeRTOS/Source/event_groups.c:0:6
	b	.LBB3_38
.LBB3_38:
	.loc	4 435 5 is_stmt 1               @ ../ThirdParty/FreeRTOS/Source/event_groups.c:435:5
	b	.LBB3_40
.Ltmp136:
.LBB3_39:
	.loc	4 0 5 is_stmt 0                 @ ../ThirdParty/FreeRTOS/Source/event_groups.c:0:5
	b	.LBB3_40
.LBB3_40:
	movs	r0, #1
	.loc	4 440 22 is_stmt 1              @ ../ThirdParty/FreeRTOS/Source/event_groups.c:440:22
	str	r0, [sp, #8]
.Ltmp137:
	.loc	4 442 4                         @ ../ThirdParty/FreeRTOS/Source/event_groups.c:442:4
	bl	vPortExitCritical
	.loc	4 443 3                         @ ../ThirdParty/FreeRTOS/Source/event_groups.c:443:3
	b	.LBB3_42
.Ltmp138:
.LBB3_41:
	.loc	4 0 3 is_stmt 0                 @ ../ThirdParty/FreeRTOS/Source/event_groups.c:0:3
	b	.LBB3_42
.LBB3_42:
	.loc	4 450 12 is_stmt 1              @ ../ThirdParty/FreeRTOS/Source/event_groups.c:450:12
	ldr	r0, [sp, #24]
	bic	r0, r0, #-16777216
	str	r0, [sp, #24]
	.loc	4 451 2                         @ ../ThirdParty/FreeRTOS/Source/event_groups.c:451:2
	b	.LBB3_43
.Ltmp139:
.LBB3_43:
	.loc	4 457 9                         @ ../ThirdParty/FreeRTOS/Source/event_groups.c:457:9
	ldr	r0, [sp, #24]
	.loc	4 457 2 epilogue_begin is_stmt 0 @ ../ThirdParty/FreeRTOS/Source/event_groups.c:457:2
	add	sp, #64
	pop	{r7, pc}
.Ltmp140:
.Lfunc_end3:
	.size	xEventGroupWaitBits, .Lfunc_end3-xEventGroupWaitBits
	.cfi_endproc
	.cantunwind
	.fnend
                                        @ -- End function
	.section	.text.prvTestWaitCondition,"ax",%progbits
	.p2align	2                               @ -- Begin function prvTestWaitCondition
	.type	prvTestWaitCondition,%function
	.code	16                              @ @prvTestWaitCondition
	.thumb_func
prvTestWaitCondition:
.Lfunc_begin4:
	.loc	4 672 0 is_stmt 1               @ ../ThirdParty/FreeRTOS/Source/event_groups.c:672:0
	.fnstart
	.cfi_startproc
@ %bb.0:
	.pad	#16
	sub	sp, #16
	.cfi_def_cfa_offset 16
	str	r0, [sp, #12]
	str	r1, [sp, #8]
	str	r2, [sp, #4]
	movs	r0, #0
.Ltmp141:
	.loc	4 673 12 prologue_end           @ ../ThirdParty/FreeRTOS/Source/event_groups.c:673:12
	str	r0, [sp]
.Ltmp142:
	.loc	4 675 6                         @ ../ThirdParty/FreeRTOS/Source/event_groups.c:675:6
	ldr	r0, [sp, #4]
.Ltmp143:
	.loc	4 675 6 is_stmt 0               @ ../ThirdParty/FreeRTOS/Source/event_groups.c:675:6
	cbnz	r0, .LBB4_5
	b	.LBB4_1
.LBB4_1:
.Ltmp144:
	.loc	4 679 9 is_stmt 1               @ ../ThirdParty/FreeRTOS/Source/event_groups.c:679:9
	ldr	r0, [sp, #12]
	.loc	4 679 30 is_stmt 0              @ ../ThirdParty/FreeRTOS/Source/event_groups.c:679:30
	ldr	r1, [sp, #8]
.Ltmp145:
	.loc	4 679 7                         @ ../ThirdParty/FreeRTOS/Source/event_groups.c:679:7
	tst	r0, r1
	beq	.LBB4_3
	b	.LBB4_2
.LBB4_2:
	.loc	4 0 7                           @ ../ThirdParty/FreeRTOS/Source/event_groups.c:0:7
	movs	r0, #1
.Ltmp146:
	.loc	4 681 22 is_stmt 1              @ ../ThirdParty/FreeRTOS/Source/event_groups.c:681:22
	str	r0, [sp]
	.loc	4 682 3                         @ ../ThirdParty/FreeRTOS/Source/event_groups.c:682:3
	b	.LBB4_4
.Ltmp147:
.LBB4_3:
	.loc	4 0 3 is_stmt 0                 @ ../ThirdParty/FreeRTOS/Source/event_groups.c:0:3
	b	.LBB4_4
.LBB4_4:
	.loc	4 687 2 is_stmt 1               @ ../ThirdParty/FreeRTOS/Source/event_groups.c:687:2
	b	.LBB4_9
.Ltmp148:
.LBB4_5:
	.loc	4 692 9                         @ ../ThirdParty/FreeRTOS/Source/event_groups.c:692:9
	ldr	r0, [sp, #12]
	.loc	4 692 30 is_stmt 0              @ ../ThirdParty/FreeRTOS/Source/event_groups.c:692:30
	ldr	r1, [sp, #8]
	.loc	4 692 28                        @ ../ThirdParty/FreeRTOS/Source/event_groups.c:692:28
	ands	r0, r1
.Ltmp149:
	.loc	4 692 7                         @ ../ThirdParty/FreeRTOS/Source/event_groups.c:692:7
	cmp	r0, r1
	bne	.LBB4_7
	b	.LBB4_6
.LBB4_6:
	.loc	4 0 7                           @ ../ThirdParty/FreeRTOS/Source/event_groups.c:0:7
	movs	r0, #1
.Ltmp150:
	.loc	4 694 22 is_stmt 1              @ ../ThirdParty/FreeRTOS/Source/event_groups.c:694:22
	str	r0, [sp]
	.loc	4 695 3                         @ ../ThirdParty/FreeRTOS/Source/event_groups.c:695:3
	b	.LBB4_8
.Ltmp151:
.LBB4_7:
	.loc	4 0 3 is_stmt 0                 @ ../ThirdParty/FreeRTOS/Source/event_groups.c:0:3
	b	.LBB4_8
.LBB4_8:
	b	.LBB4_9
.LBB4_9:
	.loc	4 702 9 is_stmt 1               @ ../ThirdParty/FreeRTOS/Source/event_groups.c:702:9
	ldr	r0, [sp]
	.loc	4 702 2 epilogue_begin is_stmt 0 @ ../ThirdParty/FreeRTOS/Source/event_groups.c:702:2
	add	sp, #16
	bx	lr
.Ltmp152:
.Lfunc_end4:
	.size	prvTestWaitCondition, .Lfunc_end4-prvTestWaitCondition
	.cfi_endproc
	.cantunwind
	.fnend
                                        @ -- End function
	.section	.text.xEventGroupClearBits,"ax",%progbits
	.hidden	xEventGroupClearBits            @ -- Begin function xEventGroupClearBits
	.globl	xEventGroupClearBits
	.p2align	2
	.type	xEventGroupClearBits,%function
	.code	16                              @ @xEventGroupClearBits
	.thumb_func
xEventGroupClearBits:
.Lfunc_begin5:
	.loc	4 462 0 is_stmt 1               @ ../ThirdParty/FreeRTOS/Source/event_groups.c:462:0
	.fnstart
	.cfi_startproc
@ %bb.0:
	.save	{r7, lr}
	push	{r7, lr}
	.cfi_def_cfa_offset 8
	.cfi_offset lr, -4
	.cfi_offset r7, -8
	.pad	#24
	sub	sp, #24
	.cfi_def_cfa_offset 32
	str	r0, [sp, #12]
	str	r1, [sp, #8]
.Ltmp153:
	.loc	4 463 29 prologue_end           @ ../ThirdParty/FreeRTOS/Source/event_groups.c:463:29
	ldr	r0, [sp, #12]
	.loc	4 463 15 is_stmt 0              @ ../ThirdParty/FreeRTOS/Source/event_groups.c:463:15
	str	r0, [sp, #4]
.Ltmp154:
	.loc	4 468 2 is_stmt 1               @ ../ThirdParty/FreeRTOS/Source/event_groups.c:468:2
	ldr	r0, [sp, #12]
.Ltmp155:
	.loc	4 468 2 is_stmt 0               @ ../ThirdParty/FreeRTOS/Source/event_groups.c:468:2
	cbnz	r0, .LBB5_3
	b	.LBB5_1
.LBB5_1:
.Ltmp156:
	.loc	2 199 2 is_stmt 1               @ ../ThirdParty/FreeRTOS/Source/portable/GCC/ARM_CM4F\portmacro.h:199:2
	@APP
	mov.w	r0, #80
	msr	basepri, r0
	isb	sy
	dsb	sy

	@NO_APP
	str	r0, [sp, #20]
.Ltmp157:
	.loc	4 468 2                         @ ../ThirdParty/FreeRTOS/Source/event_groups.c:468:2
	b	.LBB5_2
.LBB5_2:                                @ =>This Inner Loop Header: Depth=1
.Ltmp158:
	.loc	4 468 2 is_stmt 0               @ ../ThirdParty/FreeRTOS/Source/event_groups.c:468:2
	b	.LBB5_2
.Ltmp159:
.LBB5_3:
	.loc	4 469 2 is_stmt 1               @ ../ThirdParty/FreeRTOS/Source/event_groups.c:469:2
	ldrb.w	r0, [sp, #11]
.Ltmp160:
	.loc	4 469 2 is_stmt 0               @ ../ThirdParty/FreeRTOS/Source/event_groups.c:469:2
	cbz	r0, .LBB5_6
	b	.LBB5_4
.LBB5_4:
.Ltmp161:
	.loc	2 199 2 is_stmt 1               @ ../ThirdParty/FreeRTOS/Source/portable/GCC/ARM_CM4F\portmacro.h:199:2
	@APP
	mov.w	r0, #80
	msr	basepri, r0
	isb	sy
	dsb	sy

	@NO_APP
	str	r0, [sp, #16]
.Ltmp162:
	.loc	4 469 2                         @ ../ThirdParty/FreeRTOS/Source/event_groups.c:469:2
	b	.LBB5_5
.LBB5_5:                                @ =>This Inner Loop Header: Depth=1
.Ltmp163:
	.loc	4 469 2 is_stmt 0               @ ../ThirdParty/FreeRTOS/Source/event_groups.c:469:2
	b	.LBB5_5
.Ltmp164:
.LBB5_6:
	.loc	4 471 2 is_stmt 1               @ ../ThirdParty/FreeRTOS/Source/event_groups.c:471:2
	bl	vPortEnterCritical
.Ltmp165:
	.loc	4 477 14                        @ ../ThirdParty/FreeRTOS/Source/event_groups.c:477:14
	ldr	r0, [sp, #4]
	.loc	4 477 27 is_stmt 0              @ ../ThirdParty/FreeRTOS/Source/event_groups.c:477:27
	ldr	r0, [r0]
	.loc	4 477 12                        @ ../ThirdParty/FreeRTOS/Source/event_groups.c:477:12
	str	r0, [sp]
	.loc	4 480 32 is_stmt 1              @ ../ThirdParty/FreeRTOS/Source/event_groups.c:480:32
	ldr	r2, [sp, #8]
	.loc	4 480 3 is_stmt 0               @ ../ThirdParty/FreeRTOS/Source/event_groups.c:480:3
	ldr	r1, [sp, #4]
	.loc	4 480 28                        @ ../ThirdParty/FreeRTOS/Source/event_groups.c:480:28
	ldr	r0, [r1]
	bics	r0, r2
	str	r0, [r1]
.Ltmp166:
	.loc	4 482 2 is_stmt 1               @ ../ThirdParty/FreeRTOS/Source/event_groups.c:482:2
	bl	vPortExitCritical
	.loc	4 484 9                         @ ../ThirdParty/FreeRTOS/Source/event_groups.c:484:9
	ldr	r0, [sp]
	.loc	4 484 2 epilogue_begin is_stmt 0 @ ../ThirdParty/FreeRTOS/Source/event_groups.c:484:2
	add	sp, #24
	pop	{r7, pc}
.Ltmp167:
.Lfunc_end5:
	.size	xEventGroupClearBits, .Lfunc_end5-xEventGroupClearBits
	.cfi_endproc
	.cantunwind
	.fnend
                                        @ -- End function
	.section	.text.xEventGroupGetBitsFromISR,"ax",%progbits
	.hidden	xEventGroupGetBitsFromISR       @ -- Begin function xEventGroupGetBitsFromISR
	.globl	xEventGroupGetBitsFromISR
	.p2align	2
	.type	xEventGroupGetBitsFromISR,%function
	.code	16                              @ @xEventGroupGetBitsFromISR
	.thumb_func
xEventGroupGetBitsFromISR:
.Lfunc_begin6:
	.loc	4 504 0 is_stmt 1               @ ../ThirdParty/FreeRTOS/Source/event_groups.c:504:0
	.fnstart
	.cfi_startproc
@ %bb.0:
	.pad	#28
	sub	sp, #28
	.cfi_def_cfa_offset 28
	str	r0, [sp, #12]
.Ltmp168:
	.loc	4 506 42 prologue_end           @ ../ThirdParty/FreeRTOS/Source/event_groups.c:506:42
	ldr	r0, [sp, #12]
	.loc	4 506 28 is_stmt 0              @ ../ThirdParty/FreeRTOS/Source/event_groups.c:506:28
	str	r0, [sp, #4]
.Ltmp169:
	.loc	2 215 2 is_stmt 1               @ ../ThirdParty/FreeRTOS/Source/portable/GCC/ARM_CM4F\portmacro.h:215:2
	@APP
	mrs	r1, basepri
	mov.w	r0, #80
	msr	basepri, r0
	isb	sy
	dsb	sy

	@NO_APP
	str	r1, [sp, #20]
	str	r0, [sp, #16]
	.loc	2 227 9                         @ ../ThirdParty/FreeRTOS/Source/portable/GCC/ARM_CM4F\portmacro.h:227:9
	ldr	r0, [sp, #20]
.Ltmp170:
	.loc	4 509 25                        @ ../ThirdParty/FreeRTOS/Source/event_groups.c:509:25
	str	r0, [sp, #8]
.Ltmp171:
	.loc	4 511 14                        @ ../ThirdParty/FreeRTOS/Source/event_groups.c:511:14
	ldr	r0, [sp, #4]
	.loc	4 511 27 is_stmt 0              @ ../ThirdParty/FreeRTOS/Source/event_groups.c:511:27
	ldr	r0, [r0]
	.loc	4 511 12                        @ ../ThirdParty/FreeRTOS/Source/event_groups.c:511:12
	str	r0, [sp]
.Ltmp172:
	.loc	4 513 2 is_stmt 1               @ ../ThirdParty/FreeRTOS/Source/event_groups.c:513:2
	ldr	r0, [sp, #8]
	str	r0, [sp, #24]
.Ltmp173:
	.loc	2 235 32                        @ ../ThirdParty/FreeRTOS/Source/portable/GCC/ARM_CM4F\portmacro.h:235:32
	ldr	r0, [sp, #24]
	.loc	2 233 2                         @ ../ThirdParty/FreeRTOS/Source/portable/GCC/ARM_CM4F\portmacro.h:233:2
	@APP
	msr	basepri, r0
	@NO_APP
.Ltmp174:
	.loc	4 515 9                         @ ../ThirdParty/FreeRTOS/Source/event_groups.c:515:9
	ldr	r0, [sp]
	.loc	4 515 2 epilogue_begin is_stmt 0 @ ../ThirdParty/FreeRTOS/Source/event_groups.c:515:2
	add	sp, #28
	bx	lr
.Ltmp175:
.Lfunc_end6:
	.size	xEventGroupGetBitsFromISR, .Lfunc_end6-xEventGroupGetBitsFromISR
	.cfi_endproc
	.cantunwind
	.fnend
                                        @ -- End function
	.section	.text.vEventGroupDelete,"ax",%progbits
	.hidden	vEventGroupDelete               @ -- Begin function vEventGroupDelete
	.globl	vEventGroupDelete
	.p2align	2
	.type	vEventGroupDelete,%function
	.code	16                              @ @vEventGroupDelete
	.thumb_func
vEventGroupDelete:
.Lfunc_begin7:
	.loc	4 614 0 is_stmt 1               @ ../ThirdParty/FreeRTOS/Source/event_groups.c:614:0
	.fnstart
	.cfi_startproc
@ %bb.0:
	.save	{r7, lr}
	push	{r7, lr}
	.cfi_def_cfa_offset 8
	.cfi_offset lr, -4
	.cfi_offset r7, -8
	.pad	#16
	sub	sp, #16
	.cfi_def_cfa_offset 24
	str	r0, [sp, #8]
.Ltmp176:
	.loc	4 615 29 prologue_end           @ ../ThirdParty/FreeRTOS/Source/event_groups.c:615:29
	ldr	r0, [sp, #8]
	.loc	4 615 15 is_stmt 0              @ ../ThirdParty/FreeRTOS/Source/event_groups.c:615:15
	str	r0, [sp, #4]
	.loc	4 616 42 is_stmt 1              @ ../ThirdParty/FreeRTOS/Source/event_groups.c:616:42
	ldr	r0, [sp, #4]
	.loc	4 616 55 is_stmt 0              @ ../ThirdParty/FreeRTOS/Source/event_groups.c:616:55
	adds	r0, #4
	.loc	4 616 15                        @ ../ThirdParty/FreeRTOS/Source/event_groups.c:616:15
	str	r0, [sp]
	.loc	4 618 2 is_stmt 1               @ ../ThirdParty/FreeRTOS/Source/event_groups.c:618:2
	bl	vTaskSuspendAll
.Ltmp177:
	.loc	4 622 3                         @ ../ThirdParty/FreeRTOS/Source/event_groups.c:622:3
	b	.LBB7_1
.LBB7_1:                                @ =>This Inner Loop Header: Depth=1
	.loc	4 622 10 is_stmt 0              @ ../ThirdParty/FreeRTOS/Source/event_groups.c:622:10
	ldr	r0, [sp]
	ldr	r0, [r0]
	.loc	4 622 3                         @ ../ThirdParty/FreeRTOS/Source/event_groups.c:622:3
	cbz	r0, .LBB7_6
	b	.LBB7_2
.LBB7_2:                                @   in Loop: Header=BB7_1 Depth=1
.Ltmp178:
	.loc	4 626 4 is_stmt 1               @ ../ThirdParty/FreeRTOS/Source/event_groups.c:626:4
	ldr	r0, [sp]
	add.w	r1, r0, #8
	ldr	r0, [r0, #12]
.Ltmp179:
	.loc	4 626 4 is_stmt 0               @ ../ThirdParty/FreeRTOS/Source/event_groups.c:626:4
	cmp	r0, r1
	bne	.LBB7_5
	b	.LBB7_3
.LBB7_3:
.Ltmp180:
	.loc	2 199 2 is_stmt 1               @ ../ThirdParty/FreeRTOS/Source/portable/GCC/ARM_CM4F\portmacro.h:199:2
	@APP
	mov.w	r0, #80
	msr	basepri, r0
	isb	sy
	dsb	sy

	@NO_APP
	str	r0, [sp, #12]
.Ltmp181:
	.loc	4 626 4                         @ ../ThirdParty/FreeRTOS/Source/event_groups.c:626:4
	b	.LBB7_4
.LBB7_4:                                @ =>This Inner Loop Header: Depth=1
.Ltmp182:
	.loc	4 626 4 is_stmt 0               @ ../ThirdParty/FreeRTOS/Source/event_groups.c:626:4
	b	.LBB7_4
.Ltmp183:
.LBB7_5:                                @   in Loop: Header=BB7_1 Depth=1
	.loc	4 627 39 is_stmt 1              @ ../ThirdParty/FreeRTOS/Source/event_groups.c:627:39
	ldr	r0, [sp]
	.loc	4 627 71 is_stmt 0              @ ../ThirdParty/FreeRTOS/Source/event_groups.c:627:71
	ldr	r0, [r0, #12]
	mov.w	r1, #33554432
	.loc	4 627 4                         @ ../ThirdParty/FreeRTOS/Source/event_groups.c:627:4
	bl	vTaskRemoveFromUnorderedEventList
.Ltmp184:
	.loc	4 622 3 is_stmt 1               @ ../ThirdParty/FreeRTOS/Source/event_groups.c:622:3
	b	.LBB7_1
.LBB7_6:
.Ltmp185:
	.loc	4 634 15                        @ ../ThirdParty/FreeRTOS/Source/event_groups.c:634:15
	ldr	r0, [sp, #4]
	.loc	4 634 4 is_stmt 0               @ ../ThirdParty/FreeRTOS/Source/event_groups.c:634:4
	bl	vPortFree
.Ltmp186:
	.loc	4 651 11 is_stmt 1              @ ../ThirdParty/FreeRTOS/Source/event_groups.c:651:11
	bl	xTaskResumeAll
	.loc	4 652 1 epilogue_begin          @ ../ThirdParty/FreeRTOS/Source/event_groups.c:652:1
	add	sp, #16
	pop	{r7, pc}
.Ltmp187:
.Lfunc_end7:
	.size	vEventGroupDelete, .Lfunc_end7-vEventGroupDelete
	.cfi_endproc
	.cantunwind
	.fnend
                                        @ -- End function
	.section	.text.vEventGroupSetBitsCallback,"ax",%progbits
	.hidden	vEventGroupSetBitsCallback      @ -- Begin function vEventGroupSetBitsCallback
	.globl	vEventGroupSetBitsCallback
	.p2align	2
	.type	vEventGroupSetBitsCallback,%function
	.code	16                              @ @vEventGroupSetBitsCallback
	.thumb_func
vEventGroupSetBitsCallback:
.Lfunc_begin8:
	.loc	4 658 0                         @ ../ThirdParty/FreeRTOS/Source/event_groups.c:658:0
	.fnstart
	.cfi_startproc
@ %bb.0:
	.save	{r7, lr}
	push	{r7, lr}
	.cfi_def_cfa_offset 8
	.cfi_offset lr, -4
	.cfi_offset r7, -8
	.pad	#8
	sub	sp, #8
	.cfi_def_cfa_offset 16
	str	r0, [sp, #4]
	str	r1, [sp]
.Ltmp188:
	.loc	4 659 31 prologue_end           @ ../ThirdParty/FreeRTOS/Source/event_groups.c:659:31
	ldr	r0, [sp, #4]
	.loc	4 659 61 is_stmt 0              @ ../ThirdParty/FreeRTOS/Source/event_groups.c:659:61
	ldr	r1, [sp]
	.loc	4 659 11                        @ ../ThirdParty/FreeRTOS/Source/event_groups.c:659:11
	bl	xEventGroupSetBits
	.loc	4 660 1 epilogue_begin is_stmt 1 @ ../ThirdParty/FreeRTOS/Source/event_groups.c:660:1
	add	sp, #8
	pop	{r7, pc}
.Ltmp189:
.Lfunc_end8:
	.size	vEventGroupSetBitsCallback, .Lfunc_end8-vEventGroupSetBitsCallback
	.cfi_endproc
	.cantunwind
	.fnend
                                        @ -- End function
	.section	.text.vEventGroupClearBitsCallback,"ax",%progbits
	.hidden	vEventGroupClearBitsCallback    @ -- Begin function vEventGroupClearBitsCallback
	.globl	vEventGroupClearBitsCallback
	.p2align	2
	.type	vEventGroupClearBitsCallback,%function
	.code	16                              @ @vEventGroupClearBitsCallback
	.thumb_func
vEventGroupClearBitsCallback:
.Lfunc_begin9:
	.loc	4 666 0                         @ ../ThirdParty/FreeRTOS/Source/event_groups.c:666:0
	.fnstart
	.cfi_startproc
@ %bb.0:
	.save	{r7, lr}
	push	{r7, lr}
	.cfi_def_cfa_offset 8
	.cfi_offset lr, -4
	.cfi_offset r7, -8
	.pad	#8
	sub	sp, #8
	.cfi_def_cfa_offset 16
	str	r0, [sp, #4]
	str	r1, [sp]
.Ltmp190:
	.loc	4 667 33 prologue_end           @ ../ThirdParty/FreeRTOS/Source/event_groups.c:667:33
	ldr	r0, [sp, #4]
	.loc	4 667 63 is_stmt 0              @ ../ThirdParty/FreeRTOS/Source/event_groups.c:667:63
	ldr	r1, [sp]
	.loc	4 667 11                        @ ../ThirdParty/FreeRTOS/Source/event_groups.c:667:11
	bl	xEventGroupClearBits
	.loc	4 668 1 epilogue_begin is_stmt 1 @ ../ThirdParty/FreeRTOS/Source/event_groups.c:668:1
	add	sp, #8
	pop	{r7, pc}
.Ltmp191:
.Lfunc_end9:
	.size	vEventGroupClearBitsCallback, .Lfunc_end9-vEventGroupClearBitsCallback
	.cfi_endproc
	.cantunwind
	.fnend
                                        @ -- End function
	.section	".note.GNU-stack","",%progbits
	.eabi_attribute	30, 6	@ Tag_ABI_optimization_goals
	.ARM_attribute	16, 1	@ Tag_AV_eba