	.text
	.syntax unified
	.eabi_attribute	67, "2.09"	@ Tag_conformance
	.cpu	cortex-m4
	.eabi_attribute	6, 13	@ Tag_CPU_arch
	.eabi_attribute	7, 77	@ Tag_CPU_arch_profile
	.eabi_attribute	8, 0	@ Tag_ARM_ISA_use
	.eabi_attribute	9, 2	@ Tag_THUMB_ISA_use
	.fpu	fpv4-sp-d16
	.eabi_attribute	27, 1	@ Tag_ABI_HardFP_use
	.eabi_attribute	36, 1	@ Tag_FP_HP_extension
	.eabi_attribute	34, 1	@ Tag_CPU_unaligned_access
	.eabi_attribute	17, 1	@ Tag_ABI_PCS_GOT_use
	.eabi_attribute	20, 2	@ Tag_ABI_FP_denormal
	.eabi_attribute	21, 0	@ Tag_ABI_FP_exceptions
	.eabi_attribute	23, 1	@ Tag_ABI_FP_number_model
	.eabi_attribute	24, 1	@ Tag_ABI_align_needed
	.eabi_attribute	25, 1	@ Tag_ABI_align_preserved
	.eabi_attribute	28, 1	@ Tag_ABI_VFP_args
	.eabi_attribute	38, 1	@ Tag_ABI_FP_16bit_format
	.eabi_attribute	18, 2	@ Tag_ABI_PCS_wchar_t
	.eabi_attribute	26, 1	@ Tag_ABI_enum_size
	.eabi_attribute	14, 0	@ Tag_ABI_PCS_R9_use
	.file	"fibre.cpp"
	.file	1 "D:\\ikingtec\\Robot\\ODrive\\Firmware\\MDK-ARM" "../fibre-cpp/fibre.cpp"
	.file	2 "D:\\Embed\\MDK\\MDK\\ARM\\ARMCompilerV621\\Bin\\..\\include" "stdio.h"
	.file	3 "D:\\ikingtec\\Robot\\ODrive\\Firmware\\MDK-ARM" "../fibre-cpp/include\\fibre/fibre.hpp"
	.file	4 "D:\\Embed\\MDK\\MDK\\ARM\\ARMCompilerV621\\Bin\\..\\include\\libcxx" "tuple"
	.file	5 "D:\\ikingtec\\Robot\\ODrive\\Firmware\\MDK-ARM" "../fibre-cpp/include\\fibre/status.hpp"
	.file	6 "D:\\ikingtec\\Robot\\ODrive\\Firmware\\MDK-ARM" "../fibre-cpp/include\\fibre/channel_discoverer.hpp"
	.file	7 "D:\\ikingtec\\Robot\\ODrive\\Firmware\\MDK-ARM" "../fibre-cpp/legacy_protocol.hpp"
	.file	8 "D:\\Embed\\MDK\\MDK\\ARM\\ARMCompilerV621\\Bin\\..\\include" "stdint.h"
	.file	9 "D:\\ikingtec\\Robot\\ODrive\\Firmware\\MDK-ARM" "../fibre-cpp/include\\fibre/async_stream.hpp"
	.file	10 "D:\\ikingtec\\Robot\\ODrive\\Firmware\\MDK-ARM" "../fibre-cpp/include\\fibre/callback.hpp"
	.file	11 "D:\\Embed\\MDK\\MDK\\ARM\\ARMCompilerV621\\Bin\\..\\include\\libcxx" "stddef.h"
	.file	12 "D:\\Embed\\MDK\\MDK\\ARM\\ARMCompilerV621\\Bin\\..\\include\\libcxx\\__fwd" "string.h"
	.file	13 "D:\\Embed\\MDK\\MDK\\ARM\\ARMCompilerV621\\Bin\\..\\include\\libcxx\\__utility" "integer_sequence.h"
	.file	14 "D:\\Embed\\MDK\\MDK\\ARM\\ARMCompilerV621\\Bin\\..\\include" "stddef.h"
	.file	15 "D:\\Embed\\MDK\\MDK\\ARM\\ARMCompilerV621\\Bin\\..\\include\\libcxx" "array"
	.file	16 "D:\\Embed\\MDK\\MDK\\ARM\\ARMCompilerV621\\Bin\\..\\include" "string.h"
	.section	.text._ZN5fibre17launch_event_loopENS_8CallbackIvJPNS_9EventLoopEEEE,"ax",%progbits
	.hidden	_ZN5fibre17launch_event_loopENS_8CallbackIvJPNS_9EventLoopEEEE @ -- Begin function _ZN5fibre17launch_event_loopENS_8CallbackIvJPNS_9EventLoopEEEE
	.globl	_ZN5fibre17launch_event_loopENS_8CallbackIvJPNS_9EventLoopEEEE
	.p2align	2
	.type	_ZN5fibre17launch_event_loopENS_8CallbackIvJPNS_9EventLoopEEEE,%function
	.code	16                              @ @_ZN5fibre17launch_event_loopENS_8CallbackIvJPNS_9EventLoopEEEE
	.thumb_func
_ZN5fibre17launch_event_loopENS_8CallbackIvJPNS_9EventLoopEEEE:
.Lfunc_begin0:
	.loc	1 77 0                          @ ../fibre-cpp/fibre.cpp:77:0
	.fnstart
	.cfi_sections .debug_frame
	.cfi_startproc
@ %bb.0:
	.pad	#4
	sub	sp, #4
	.cfi_def_cfa_offset 4
	str	r0, [sp]
	movs	r0, #0
.Ltmp0:
	.loc	1 82 5 prologue_end epilogue_begin @ ../fibre-cpp/fibre.cpp:82:5
	add	sp, #4
	bx	lr
.Ltmp1:
.Lfunc_end0:
	.size	_ZN5fibre17launch_event_loopENS_8CallbackIvJPNS_9EventLoopEEEE, .Lfunc_end0-_ZN5fibre17launch_event_loopENS_8CallbackIvJPNS_9EventLoopEEEE
	.cfi_endproc
	.cantunwind
	.fnend
                                        @ -- End function
	.section	.text._ZN5fibre4openEPNS_9EventLoopE,"ax",%progbits
	.hidden	_ZN5fibre4openEPNS_9EventLoopE  @ -- Begin function _ZN5fibre4openEPNS_9EventLoopE
	.globl	_ZN5fibre4openEPNS_9EventLoopE
	.p2align	2
	.type	_ZN5fibre4openEPNS_9EventLoopE,%function
	.code	16                              @ @_ZN5fibre4openEPNS_9EventLoopE
	.thumb_func
_ZN5fibre4openEPNS_9EventLoopE:
.Lfunc_begin1:
	.loc	1 117 0                         @ ../fibre-cpp/fibre.cpp:117:0
	.fnstart
	.cfi_startproc
@ %bb.0:
	.save	{r7, lr}
	push	{r7, lr}
	.cfi_def_cfa_offset 8
	.cfi_offset lr, -4
	.cfi_offset r7, -8
	.pad	#24
	sub	sp, #24
	.cfi_def_cfa_offset 32
	str	r0, [sp, #16]
.Ltmp2:
	.loc	1 118 20 prologue_end           @ ../fibre-cpp/fibre.cpp:118:20
	bl	_Z8my_allocIN5fibre7ContextEEPT_v
	.loc	1 118 14 is_stmt 0              @ ../fibre-cpp/fibre.cpp:118:14
	str	r0, [sp, #12]
.Ltmp3:
	.loc	1 119 10 is_stmt 1              @ ../fibre-cpp/fibre.cpp:119:10
	ldr	r0, [sp, #12]
.Ltmp4:
	.loc	1 119 9 is_stmt 0               @ ../fibre-cpp/fibre.cpp:119:9
	cbnz	r0, .LBB1_2
	b	.LBB1_1
.LBB1_1:
.Ltmp5:
	.loc	1 120 22 is_stmt 1              @ ../fibre-cpp/fibre.cpp:120:22
	movw	r1, :lower16:.L.str
	movt	r1, :upper16:.L.str
	add.w	r0, sp, #11
	bl	_ZN10NullStreamlsIPKcEERS_T_
	movs	r0, #0
	.loc	1 121 9                         @ ../fibre-cpp/fibre.cpp:121:9
	str	r0, [sp, #20]
	b	.LBB1_5
.Ltmp6:
.LBB1_2:
	.loc	1 124 23                        @ ../fibre-cpp/fibre.cpp:124:23
	ldr	r0, [sp, #16]
	.loc	1 124 5 is_stmt 0               @ ../fibre-cpp/fibre.cpp:124:5
	ldr	r1, [sp, #12]
	.loc	1 124 21                        @ ../fibre-cpp/fibre.cpp:124:21
	str	r0, [r1, #4]
	.loc	1 125 70 is_stmt 1              @ ../fibre-cpp/fibre.cpp:125:70
	ldr	r0, [sp, #12]
	.loc	1 125 69 is_stmt 0              @ ../fibre-cpp/fibre.cpp:125:69
	str	r0, [sp, #4]
	.loc	1 126 13 is_stmt 1              @ ../fibre-cpp/fibre.cpp:126:13
	ldr	r0, [sp, #12]
	.loc	1 126 18 is_stmt 0              @ ../fibre-cpp/fibre.cpp:126:18
	add.w	r1, r0, #8
	add	r0, sp, #4
	.loc	1 125 33 is_stmt 1              @ ../fibre-cpp/fibre.cpp:125:33
	bl	_Z17for_each_in_tupleI18BackendInitializerRNSt3__25tupleIJEEEEN29for_each_in_tuple_result_implIT_T0_18__make_integer_seqINS1_16integer_sequenceEjXsr3std10tuple_sizeIu7__decayIS7_EEE5valueEEE4typeEOS6_OS7_
.Ltmp7:
	.loc	1 128 10                        @ ../fibre-cpp/fibre.cpp:128:10
	bl	_Z3allIJEEbNSt3__25tupleIJDpT_EEE
.Ltmp8:
	.loc	1 128 9 is_stmt 0               @ ../fibre-cpp/fibre.cpp:128:9
	cbnz	r0, .LBB1_4
	b	.LBB1_3
.LBB1_3:
.Ltmp9:
	.loc	1 130 22 is_stmt 1              @ ../fibre-cpp/fibre.cpp:130:22
	movw	r1, :lower16:.L.str.1
	movt	r1, :upper16:.L.str.1
	add.w	r0, sp, #1
	bl	_ZN10NullStreamlsIPKcEERS_T_
	movs	r0, #0
	.loc	1 131 9                         @ ../fibre-cpp/fibre.cpp:131:9
	str	r0, [sp, #20]
	b	.LBB1_5
.Ltmp10:
.LBB1_4:
	.loc	1 134 12                        @ ../fibre-cpp/fibre.cpp:134:12
	ldr	r0, [sp, #12]
	.loc	1 134 5 is_stmt 0               @ ../fibre-cpp/fibre.cpp:134:5
	str	r0, [sp, #20]
	b	.LBB1_5
.LBB1_5:
	.loc	1 135 1 is_stmt 1               @ ../fibre-cpp/fibre.cpp:135:1
	ldr	r0, [sp, #20]
	.loc	1 135 1 epilogue_begin is_stmt 0 @ ../fibre-cpp/fibre.cpp:135:1
	add	sp, #24
	pop	{r7, pc}
.Ltmp11:
.Lfunc_end1:
	.size	_ZN5fibre4openEPNS_9EventLoopE, .Lfunc_end1-_ZN5fibre4openEPNS_9EventLoopE
	.cfi_endproc
	.cantunwind
	.fnend
                                        @ -- End function
	.section	.text._Z8my_allocIN5fibre7ContextEEPT_v,"axG",%progbits,_Z8my_allocIN5fibre7ContextEEPT_v,comdat
	.hidden	_Z8my_allocIN5fibre7ContextEEPT_v @ -- Begin function _Z8my_allocIN5fibre7ContextEEPT_v
	.weak	_Z8my_allocIN5fibre7ContextEEPT_v
	.p2align	2
	.type	_Z8my_allocIN5fibre7ContextEEPT_v,%function
	.code	16                              @ @_Z8my_allocIN5fibre7ContextEEPT_v
	.thumb_func
_Z8my_allocIN5fibre7ContextEEPT_v:
.Lfunc_begin2:
	.loc	1 57 0 is_stmt 1                @ ../fibre-cpp/fibre.cpp:57:0
	.fnstart
	.cfi_startproc
@ %bb.0:
	.pad	#4
	sub	sp, #4
	.cfi_def_cfa_offset 4
.Ltmp12:
	.loc	1 58 10 prologue_end            @ ../fibre-cpp/fibre.cpp:58:10
	movw	r0, :lower16:_ZN11TheInstanceIN5fibre7ContextEE6in_useE
	movt	r0, :upper16:_ZN11TheInstanceIN5fibre7ContextEE6in_useE
	ldrb	r0, [r0]
.Ltmp13:
	.loc	1 58 9 is_stmt 0                @ ../fibre-cpp/fibre.cpp:58:9
	lsls	r0, r0, #31
	cbnz	r0, .LBB2_2
	b	.LBB2_1
.LBB2_1:
.Ltmp14:
	.loc	1 59 32 is_stmt 1               @ ../fibre-cpp/fibre.cpp:59:32
	movw	r1, :lower16:_ZN11TheInstanceIN5fibre7ContextEE6in_useE
	movt	r1, :upper16:_ZN11TheInstanceIN5fibre7ContextEE6in_useE
	movs	r0, #1
	strb	r0, [r1]
	.loc	1 60 9                          @ ../fibre-cpp/fibre.cpp:60:9
	movw	r0, :lower16:_ZN11TheInstanceIN5fibre7ContextEE8instanceE
	movt	r0, :upper16:_ZN11TheInstanceIN5fibre7ContextEE8instanceE
	str	r0, [sp]
	b	.LBB2_3
.Ltmp15:
.LBB2_2:
	.loc	1 0 9 is_stmt 0                 @ ../fibre-cpp/fibre.cpp:0:9
	movs	r0, #0
.Ltmp16:
	.loc	1 62 9 is_stmt 1                @ ../fibre-cpp/fibre.cpp:62:9
	str	r0, [sp]
	b	.LBB2_3
.Ltmp17:
.LBB2_3:
	.loc	1 64 1                          @ ../fibre-cpp/fibre.cpp:64:1
	ldr	r0, [sp]
	.loc	1 64 1 epilogue_begin is_stmt 0 @ ../fibre-cpp/fibre.cpp:64:1
	add	sp, #4
	bx	lr
.Ltmp18:
.Lfunc_end2:
	.size	_Z8my_allocIN5fibre7ContextEEPT_v, .Lfunc_end2-_Z8my_allocIN5fibre7ContextEEPT_v
	.cfi_endproc
	.cantunwind
	.fnend
                                        @ -- End function
	.section	.text._ZN10NullStreamlsIPKcEERS_T_,"axG",%progbits,_ZN10NullStreamlsIPKcEERS_T_,comdat
	.hidden	_ZN10NullStreamlsIPKcEERS_T_    @ -- Begin function _ZN10NullStreamlsIPKcEERS_T_
	.weak	_ZN10NullStreamlsIPKcEERS_T_
	.p2align	2
	.type	_ZN10NullStreamlsIPKcEERS_T_,%function
	.code	16                              @ @_ZN10NullStreamlsIPKcEERS_T_
	.thumb_func
_ZN10NullStreamlsIPKcEERS_T_:
.Lfunc_begin3:
	.file	17 "D:\\ikingtec\\Robot\\ODrive\\Firmware\\MDK-ARM" "../fibre-cpp/logging.hpp"
	.loc	17 334 0 is_stmt 1              @ ../fibre-cpp/logging.hpp:334:0
	.fnstart
	.cfi_startproc
@ %bb.0:
	.pad	#8
	sub	sp, #8
	.cfi_def_cfa_offset 8
	str	r0, [sp, #4]
	str	r1, [sp]
	ldr	r0, [sp, #4]
.Ltmp19:
	.loc	17 334 58 prologue_end epilogue_begin @ ../fibre-cpp/logging.hpp:334:58
	add	sp, #8
	bx	lr
.Ltmp20:
.Lfunc_end3:
	.size	_ZN10NullStreamlsIPKcEERS_T_, .Lfunc_end3-_ZN10NullStreamlsIPKcEERS_T_
	.cfi_endproc
	.cantunwind
	.fnend
                                        @ -- End function
	.section	.text._Z17for_each_in_tupleI18BackendInitializerRNSt3__25tupleIJEEEEN29for_each_in_tuple_result_implIT_T0_18__make_integer_seqINS1_16integer_sequenceEjXsr3std10tuple_sizeIu7__decayIS7_EEE5valueEEE4typeEOS6_OS7_,"axG",%progbits,_Z17for_each_in_tupleI18BackendInitializerRNSt3__25tupleIJEEEEN29for_each_in_tuple_result_implIT_T0_18__make_integer_seqINS1_16integer_sequenceEjXsr3std10tuple_sizeIu7__decayIS7_EEE5valueEEE4typeEOS6_OS7_,comdat
	.hidden	_Z17for_each_in_tupleI18BackendInitializerRNSt3__25tupleIJEEEEN29for_each_in_tuple_result_implIT_T0_18__make_integer_seqINS1_16integer_sequenceEjXsr3std10tuple_sizeIu7__decayIS7_EEE5valueEEE4typeEOS6_OS7_ @ -- Begin function _Z17for_each_in_tupleI18BackendInitializerRNSt3__25tupleIJEEEEN29for_each_in_tuple_result_implIT_T0_18__make_integer_seqINS1_16integer_sequenceEjXsr3std10tuple_sizeIu7__decayIS7_EEE5valueEEE4typeEOS6_OS7_
	.weak	_Z17for_each_in_tupleI18BackendInitializerRNSt3__25tupleIJEEEEN29for_each_in_tuple_result_implIT_T0_18__make_integer_seqINS1_16integer_sequenceEjXsr3std10tuple_sizeIu7__decayIS7_EEE5valueEEE4typeEOS6_OS7_
	.p2align	2
	.type	_Z17for_each_in_tupleI18BackendInitializerRNSt3__25tupleIJEEEEN29for_each_in_tuple_result_implIT_T0_18__make_integer_seqINS1_16integer_sequenceEjXsr3std10tuple_sizeIu7__decayIS7_EEE5valueEEE4typeEOS6_OS7_,%function
	.code	16                              @ @_Z17for_each_in_tupleI18BackendInitializerRNSt3__25tupleIJEEEEN29for_each_in_tuple_result_implIT_T0_18__make_integer_seqINS1_16integer_sequenceEjXsr3std10tuple_sizeIu7__decayIS7_EEE5valueEEE4typeEOS6_OS7_
	.thumb_func
_Z17for_each_in_tupleI18BackendInitializerRNSt3__25tupleIJEEEEN29for_each_in_tuple_result_implIT_T0_18__make_integer_seqINS1_16integer_sequenceEjXsr3std10tuple_sizeIu7__decayIS7_EEE5valueEEE4typeEOS6_OS7_:
.Lfunc_begin4:
	.file	18 "D:\\ikingtec\\Robot\\ODrive\\Firmware\\MDK-ARM" "../fibre-cpp/include\\fibre/cpp_utils.hpp"
	.loc	18 770 0                        @ ../fibre-cpp/include\fibre/cpp_utils.hpp:770:0
	.fnstart
	.cfi_startproc
@ %bb.0:
	.save	{r7, lr}
	push	{r7, lr}
	.cfi_def_cfa_offset 8
	.cfi_offset lr, -4
	.cfi_offset r7, -8
	.pad	#16
	sub	sp, #16
	.cfi_def_cfa_offset 24
	str	r0, [sp, #12]
	str	r1, [sp, #8]
.Ltmp21:
	.loc	18 771 52 prologue_end          @ ../fibre-cpp/include\fibre/cpp_utils.hpp:771:52
	ldr	r0, [sp, #12]
	.loc	18 771 76 is_stmt 0             @ ../fibre-cpp/include\fibre/cpp_utils.hpp:771:76
	ldr	r1, [sp, #8]
	.loc	18 771 12                       @ ../fibre-cpp/include\fibre/cpp_utils.hpp:771:12
	bl	_Z22for_each_in_tuple_implI18BackendInitializerRNSt3__25tupleIJEEEJEEN29for_each_in_tuple_result_implIT_T0_18__make_integer_seqINS1_16integer_sequenceEjXsr3std10tuple_sizeIu7__decayIS7_EEE5valueEEE4typeEOS6_OS7_NS9_IjJXspT1_EEEE
	.loc	18 771 5 epilogue_begin         @ ../fibre-cpp/include\fibre/cpp_utils.hpp:771:5
	add	sp, #16
	pop	{r7, pc}
.Ltmp22:
.Lfunc_end4:
	.size	_Z17for_each_in_tupleI18BackendInitializerRNSt3__25tupleIJEEEEN29for_each_in_tuple_result_implIT_T0_18__make_integer_seqINS1_16integer_sequenceEjXsr3std10tuple_sizeIu7__decayIS7_EEE5valueEEE4typeEOS6_OS7_, .Lfunc_end4-_Z17for_each_in_tupleI18BackendInitializerRNSt3__25tupleIJEEEEN29for_each_in_tuple_result_implIT_T0_18__make_integer_seqINS1_16integer_sequenceEjXsr3std10tuple_sizeIu7__decayIS7_EEE5valueEEE4typeEOS6_OS7_
	.cfi_endproc
	.cantunwind
	.fnend
                                        @ -- End function
	.section	.text._Z3allIJEEbNSt3__25tupleIJDpT_EEE,"axG",%progbits,_Z3allIJEEbNSt3__25tupleIJDpT_EEE,comdat
	.hidden	_Z3allIJEEbNSt3__25tupleIJDpT_EEE @ -- Begin function _Z3allIJEEbNSt3__25tupleIJDpT_EEE
	.weak	_Z3allIJEEbNSt3__25tupleIJDpT_EEE
	.p2align	2
	.type	_Z3allIJEEbNSt3__25tupleIJDpT_EEE,%function
	.code	16                              @ @_Z3allIJEEbNSt3__25tupleIJDpT_EEE
	.thumb_func
_Z3allIJEEbNSt3__25tupleIJDpT_EEE:
.Lfunc_begin5:
	.loc	1 113 0 is_stmt 1               @ ../fibre-cpp/fibre.cpp:113:0
	.fnstart
	.cfi_startproc
@ %bb.0:
	.save	{r7, lr}
	push	{r7, lr}
	.cfi_def_cfa_offset 8
	.cfi_offset lr, -4
	.cfi_offset r7, -8
	.pad	#8
	sub	sp, #8
	.cfi_def_cfa_offset 16
.Ltmp23:
	.loc	1 114 12 prologue_end           @ ../fibre-cpp/fibre.cpp:114:12
	bl	_Z3allIJEJEEbNSt3__25tupleIJDpT_EEENS0_16integer_sequenceIjJXspT0_EEEE
	.loc	1 114 5 epilogue_begin is_stmt 0 @ ../fibre-cpp/fibre.cpp:114:5
	add	sp, #8
	pop	{r7, pc}
.Ltmp24:
.Lfunc_end5:
	.size	_Z3allIJEEbNSt3__25tupleIJDpT_EEE, .Lfunc_end5-_Z3allIJEEbNSt3__25tupleIJDpT_EEE
	.cfi_endproc
	.cantunwind
	.fnend
                                        @ -- End function
	.section	.text._ZN5fibre5closeEPNS_7ContextE,"ax",%progbits
	.hidden	_ZN5fibre5closeEPNS_7ContextE   @ -- Begin function _ZN5fibre5closeEPNS_7ContextE
	.globl	_ZN5fibre5closeEPNS_7ContextE
	.p2align	2
	.type	_ZN5fibre5closeEPNS_7ContextE,%function
	.code	16                              @ @_ZN5fibre5closeEPNS_7ContextE
	.thumb_func
_ZN5fibre5closeEPNS_7ContextE:
.Lfunc_begin6:
	.loc	1 137 0 is_stmt 1               @ ../fibre-cpp/fibre.cpp:137:0
	.fnstart
	.cfi_startproc
@ %bb.0:
	.save	{r7, lr}
	push	{r7, lr}
	.cfi_def_cfa_offset 8
	.cfi_offset lr, -4
	.cfi_offset r7, -8
	.pad	#16
	sub	sp, #16
	.cfi_def_cfa_offset 24
	str	r0, [sp, #12]
.Ltmp25:
	.loc	1 138 9 prologue_end            @ ../fibre-cpp/fibre.cpp:138:9
	ldr	r0, [sp, #12]
	.loc	1 138 14 is_stmt 0              @ ../fibre-cpp/fibre.cpp:138:14
	ldr	r0, [r0]
.Ltmp26:
	.loc	1 138 9                         @ ../fibre-cpp/fibre.cpp:138:9
	cbz	r0, .LBB6_2
	b	.LBB6_1
.LBB6_1:
.Ltmp27:
	.loc	1 139 24 is_stmt 1              @ ../fibre-cpp/fibre.cpp:139:24
	ldr	r0, [sp, #12]
	.loc	1 139 29 is_stmt 0              @ ../fibre-cpp/fibre.cpp:139:29
	ldr	r1, [r0]
	add.w	r0, sp, #11
	.loc	1 139 22                        @ ../fibre-cpp/fibre.cpp:139:22
	bl	_ZN10NullStreamlsIjEERS_T_
	.loc	1 139 39                        @ ../fibre-cpp/fibre.cpp:139:39
	movw	r1, :lower16:.L.str.2
	movt	r1, :upper16:.L.str.2
	bl	_ZN10NullStreamlsIPKcEERS_T_
	.loc	1 140 5 is_stmt 1               @ ../fibre-cpp/fibre.cpp:140:5
	b	.LBB6_2
.Ltmp28:
.LBB6_2:
	.loc	1 142 44                        @ ../fibre-cpp/fibre.cpp:142:44
	ldr	r0, [sp, #12]
	.loc	1 142 43 is_stmt 0              @ ../fibre-cpp/fibre.cpp:142:43
	str	r0, [sp, #4]
	.loc	1 143 13 is_stmt 1              @ ../fibre-cpp/fibre.cpp:143:13
	ldr	r0, [sp, #12]
	.loc	1 143 18 is_stmt 0              @ ../fibre-cpp/fibre.cpp:143:18
	add.w	r1, r0, #8
	add	r0, sp, #4
	.loc	1 142 5 is_stmt 1               @ ../fibre-cpp/fibre.cpp:142:5
	bl	_Z17for_each_in_tupleI20BackendDeinitializerRNSt3__25tupleIJEEEEN29for_each_in_tuple_result_implIT_T0_18__make_integer_seqINS1_16integer_sequenceEjXsr3std10tuple_sizeIu7__decayIS7_EEE5valueEEE4typeEOS6_OS7_
	.loc	1 145 22                        @ ../fibre-cpp/fibre.cpp:145:22
	ldr	r0, [sp, #12]
	.loc	1 145 5 is_stmt 0               @ ../fibre-cpp/fibre.cpp:145:5
	bl	_Z7my_freeIN5fibre7ContextEEvPT_
	.loc	1 146 1 epilogue_begin is_stmt 1 @ ../fibre-cpp/fibre.cpp:146:1
	add	sp, #16
	pop	{r7, pc}
.Ltmp29:
.Lfunc_end6:
	.size	_ZN5fibre5closeEPNS_7ContextE, .Lfunc_end6-_ZN5fibre5closeEPNS_7ContextE
	.cfi_endproc
	.cantunwind
	.fnend
                                        @ -- End function
	.section	.text._ZN10NullStreamlsIjEERS_T_,"axG",%progbits,_ZN10NullStreamlsIjEERS_T_,comdat
	.hidden	_ZN10NullStreamlsIjEERS_T_      @ -- Begin function _ZN10NullStreamlsIjEERS_T_
	.weak	_ZN10NullStreamlsIjEERS_T_
	.p2align	2
	.type	_ZN10NullStreamlsIjEERS_T_,%function
	.code	16                              @ @_ZN10NullStreamlsIjEERS_T_
	.thumb_func
_ZN10NullStreamlsIjEERS_T_:
.Lfunc_begin7:
	.loc	17 334 0                        @ ../fibre-cpp/logging.hpp:334:0
	.fnstart
	.cfi_startproc
@ %bb.0:
	.pad	#8
	sub	sp, #8
	.cfi_def_cfa_offset 8
	str	r0, [sp, #4]
	str	r1, [sp]
	ldr	r0, [sp, #4]
.Ltmp30:
	.loc	17 334 58 prologue_end epilogue_begin @ ../fibre-cpp/logging.hpp:334:58
	add	sp, #8
	bx	lr
.Ltmp31:
.Lfunc_end7:
	.size	_ZN10NullStreamlsIjEERS_T_, .Lfunc_end7-_ZN10NullStreamlsIjEERS_T_
	.cfi_endproc
	.cantunwind
	.fnend
                                        @ -- End function
	.section	.text._Z17for_each_in_tupleI20BackendDeinitializerRNSt3__25tupleIJEEEEN29for_each_in_tuple_result_implIT_T0_18__make_integer_seqINS1_16integer_sequenceEjXsr3std10tuple_sizeIu7__decayIS7_EEE5valueEEE4typeEOS6_OS7_,"axG",%progbits,_Z17for_each_in_tupleI20BackendDeinitializerRNSt3__25tupleIJEEEEN29for_each_in_tuple_result_implIT_T0_18__make_integer_seqINS1_16integer_sequenceEjXsr3std10tuple_sizeIu7__decayIS7_EEE5valueEEE4typeEOS6_OS7_,comdat
	.hidden	_Z17for_each_in_tupleI20BackendDeinitializerRNSt3__25tupleIJEEEEN29for_each_in_tuple_result_implIT_T0_18__make_integer_seqINS1_16integer_sequenceEjXsr3std10tuple_sizeIu7__decayIS7_EEE5valueEEE4typeEOS6_OS7_ @ -- Begin function _Z17for_each_in_tupleI20BackendDeinitializerRNSt3__25tupleIJEEEEN29for_each_in_tuple_result_implIT_T0_18__make_integer_seqINS1_16integer_sequenceEjXsr3std10tuple_sizeIu7__decayIS7_EEE5valueEEE4typeEOS6_OS7_
	.weak	_Z17for_each_in_tupleI20BackendDeinitializerRNSt3__25tupleIJEEEEN29for_each_in_tuple_result_implIT_T0_18__make_integer_seqINS1_16integer_sequenceEjXsr3std10tuple_sizeIu7__decayIS7_EEE5valueEEE4typeEOS6_OS7_
	.p2align	2
	.type	_Z17for_each_in_tupleI20BackendDeinitializerRNSt3__25tupleIJEEEEN29for_each_in_tuple_result_implIT_T0_18__make_integer_seqINS1_16integer_sequenceEjXsr3std10tuple_sizeIu7__decayIS7_EEE5valueEEE4typeEOS6_OS7_,%function
	.code	16                              @ @_Z17for_each_in_tupleI20BackendDeinitializerRNSt3__25tupleIJEEEEN29for_each_in_tuple_result_implIT_T0_18__make_integer_seqINS1_16integer_sequenceEjXsr3std10tuple_sizeIu7__decayIS7_EEE5valueEEE4typeEOS6_OS7_
	.thumb_func
_Z17for_each_in_tupleI20BackendDeinitializerRNSt3__25tupleIJEEEEN29for_each_in_tuple_result_implIT_T0_18__make_integer_seqINS1_16integer_sequenceEjXsr3std10tuple_sizeIu7__decayIS7_EEE5valueEEE4typeEOS6_OS7_:
.Lfunc_begin8:
	.loc	18 770 0                        @ ../fibre-cpp/include\fibre/cpp_utils.hpp:770:0
	.fnstart
	.cfi_startproc
@ %bb.0:
	.save	{r7, lr}
	push	{r7, lr}
	.cfi_def_cfa_offset 8
	.cfi_offset lr, -4
	.cfi_offset r7, -8
	.pad	#16
	sub	sp, #16
	.cfi_def_cfa_offset 24
	str	r0, [sp, #12]
	str	r1, [sp, #8]
.Ltmp32:
	.loc	18 771 52 prologue_end          @ ../fibre-cpp/include\fibre/cpp_utils.hpp:771:52
	ldr	r0, [sp, #12]
	.loc	18 771 76 is_stmt 0             @ ../fibre-cpp/include\fibre/cpp_utils.hpp:771:76
	ldr	r1, [sp, #8]
	.loc	18 771 12                       @ ../fibre-cpp/include\fibre/cpp_utils.hpp:771:12
	bl	_Z22for_each_in_tuple_implI20BackendDeinitializerRNSt3__25tupleIJEEEJEEN29for_each_in_tuple_result_implIT_T0_18__make_integer_seqINS1_16integer_sequenceEjXsr3std10tuple_sizeIu7__decayIS7_EEE5valueEEE4typeEOS6_OS7_NS9_IjJXspT1_EEEE
	.loc	18 771 5 epilogue_begin         @ ../fibre-cpp/include\fibre/cpp_utils.hpp:771:5
	add	sp, #16
	pop	{r7, pc}
.Ltmp33:
.Lfunc_end8:
	.size	_Z17for_each_in_tupleI20BackendDeinitializerRNSt3__25tupleIJEEEEN29for_each_in_tuple_result_implIT_T0_18__make_integer_seqINS1_16integer_sequenceEjXsr3std10tuple_sizeIu7__decayIS7_EEE5valueEEE4typeEOS6_OS7_, .Lfunc_end8-_Z17for_each_in_tupleI20BackendDeinitializerRNSt3__25tupleIJEEEEN29for_each_in_tuple_result_implIT_T0_18__make_integer_seqINS1_16integer_sequenceEjXsr3std10tuple_sizeIu7__decayIS7_EEE5valueEEE4typeEOS6_OS7_
	.cfi_endproc
	.cantunwind
	.fnend
                                        @ -- End function
	.section	.text._Z7my_freeIN5fibre7ContextEEvPT_,"axG",%progbits,_Z7my_freeIN5fibre7ContextEEvPT_,comdat
	.hidden	_Z7my_freeIN5fibre7ContextEEvPT_ @ -- Begin function _Z7my_freeIN5fibre7ContextEEvPT_
	.weak	_Z7my_freeIN5fibre7ContextEEvPT_
	.p2align	2
	.type	_Z7my_freeIN5fibre7ContextEEvPT_,%function
	.code	16                              @ @_Z7my_freeIN5fibre7ContextEEvPT_
	.thumb_func
_Z7my_freeIN5fibre7ContextEEvPT_:
.Lfunc_begin9:
	.loc	1 67 0 is_stmt 1                @ ../fibre-cpp/fibre.cpp:67:0
	.fnstart
	.cfi_startproc
@ %bb.0:
	.save	{r7, lr}
	push	{r7, lr}
	.cfi_def_cfa_offset 8
	.cfi_offset lr, -4
	.cfi_offset r7, -8
	.pad	#8
	sub	sp, #8
	.cfi_def_cfa_offset 16
	str	r0, [sp, #4]
.Ltmp34:
	.loc	1 68 9 prologue_end             @ ../fibre-cpp/fibre.cpp:68:9
	ldr	r0, [sp, #4]
	.loc	1 68 13 is_stmt 0               @ ../fibre-cpp/fibre.cpp:68:13
	movw	r1, :lower16:_ZN11TheInstanceIN5fibre7ContextEE8instanceE
	movt	r1, :upper16:_ZN11TheInstanceIN5fibre7ContextEE8instanceE
.Ltmp35:
	.loc	1 68 9                          @ ../fibre-cpp/fibre.cpp:68:9
	cmp	r0, r1
	bne	.LBB9_2
	b	.LBB9_1
.LBB9_1:
.Ltmp36:
	.loc	1 69 32 is_stmt 1               @ ../fibre-cpp/fibre.cpp:69:32
	movw	r1, :lower16:_ZN11TheInstanceIN5fibre7ContextEE6in_useE
	movt	r1, :upper16:_ZN11TheInstanceIN5fibre7ContextEE6in_useE
	movs	r0, #0
	strb	r0, [r1]
	.loc	1 70 5                          @ ../fibre-cpp/fibre.cpp:70:5
	b	.LBB9_3
.Ltmp37:
.LBB9_2:
	.loc	1 71 22                         @ ../fibre-cpp/fibre.cpp:71:22
	movw	r1, :lower16:.L.str.7
	movt	r1, :upper16:.L.str.7
	add.w	r0, sp, #3
	bl	_ZN10NullStreamlsIPKcEERS_T_
	b	.LBB9_3
.Ltmp38:
.LBB9_3:
	.loc	1 73 1 epilogue_begin           @ ../fibre-cpp/fibre.cpp:73:1
	add	sp, #8
	pop	{r7, pc}
.Ltmp39:
.Lfunc_end9:
	.size	_Z7my_freeIN5fibre7ContextEEvPT_, .Lfunc_end9-_Z7my_freeIN5fibre7ContextEEvPT_
	.cfi_endproc
	.cantunwind
	.fnend
                                        @ -- End function
	.section	.text._ZN5fibre6Domain12add_channelsENS_22ChannelDiscoveryResultE,"ax",%progbits
	.hidden	_ZN5fibre6Domain12add_channelsENS_22ChannelDiscoveryResultE @ -- Begin function _ZN5fibre6Domain12add_channelsENS_22ChannelDiscoveryResultE
	.globl	_ZN5fibre6Domain12add_channelsENS_22ChannelDiscoveryResultE
	.p2align	2
	.type	_ZN5fibre6Domain12add_channelsENS_22ChannelDiscoveryResultE,%function
	.code	16                              @ @_ZN5fibre6Domain12add_channelsENS_22ChannelDiscoveryResultE
	.thumb_func
_ZN5fibre6Domain12add_channelsENS_22ChannelDiscoveryResultE:
.Lfunc_begin10:
	.loc	1 228 0                         @ ../fibre-cpp/fibre.cpp:228:0
	.fnstart
	.cfi_startproc
@ %bb.0:
	.save	{r7, lr}
	push	{r7, lr}
	.cfi_def_cfa_offset 8
	.cfi_offset lr, -4
	.cfi_offset r7, -8
	.pad	#56
	sub	sp, #56
	.cfi_def_cfa_offset 64
	ldr.w	r12, [sp, #64]
                                        @ kill: def $lr killed $r3
                                        @ kill: def $lr killed $r2
                                        @ kill: def $lr killed $r1
	str.w	r12, [sp, #52]
	str	r3, [sp, #48]
	str	r2, [sp, #44]
	str	r1, [sp, #40]
	str	r0, [sp, #36]
	ldr	r0, [sp, #36]
.Ltmp40:
	.loc	1 229 18 prologue_end           @ ../fibre-cpp/fibre.cpp:229:18
	str	r0, [sp, #16]                   @ 4-byte Spill
	movw	r1, :lower16:.L.str.3
	movt	r1, :upper16:.L.str.3
	add.w	r0, sp, #35
	bl	_ZN10NullStreamlsIPKcEERS_T_
.Ltmp41:
	.loc	1 231 16                        @ ../fibre-cpp/fibre.cpp:231:16
	ldrb.w	r0, [sp, #40]
.Ltmp42:
	.loc	1 231 9 is_stmt 0               @ ../fibre-cpp/fibre.cpp:231:9
	cbz	r0, .LBB10_2
	b	.LBB10_1
.LBB10_1:
.Ltmp43:
	.loc	1 232 22 is_stmt 1              @ ../fibre-cpp/fibre.cpp:232:22
	movw	r1, :lower16:.L.str.4
	movt	r1, :upper16:.L.str.4
	add.w	r0, sp, #34
	bl	_ZN10NullStreamlsIPKcEERS_T_
	.loc	1 233 9                         @ ../fibre-cpp/fibre.cpp:233:9
	b	.LBB10_6
.Ltmp44:
.LBB10_2:
	.loc	1 236 17                        @ ../fibre-cpp/fibre.cpp:236:17
	ldr	r0, [sp, #44]
	.loc	1 236 28 is_stmt 0              @ ../fibre-cpp/fibre.cpp:236:28
	cbz	r0, .LBB10_4
	b	.LBB10_3
.LBB10_3:
	.loc	1 236 39                        @ ../fibre-cpp/fibre.cpp:236:39
	ldr	r0, [sp, #48]
.Ltmp45:
	.loc	1 236 9                         @ ../fibre-cpp/fibre.cpp:236:9
	cbnz	r0, .LBB10_5
	b	.LBB10_4
.LBB10_4:
.Ltmp46:
	.loc	1 237 22 is_stmt 1              @ ../fibre-cpp/fibre.cpp:237:22
	movw	r1, :lower16:.L.str.5
	movt	r1, :upper16:.L.str.5
	add.w	r0, sp, #33
	bl	_ZN10NullStreamlsIPKcEERS_T_
	.loc	1 238 9                         @ ../fibre-cpp/fibre.cpp:238:9
	b	.LBB10_6
.Ltmp47:
.LBB10_5:
	.loc	1 0 9 is_stmt 0                 @ ../fibre-cpp/fibre.cpp:0:9
	mov.w	r0, #288
	.loc	1 243 21 is_stmt 1              @ ../fibre-cpp/fibre.cpp:243:21
	bl	_Znwj
	.loc	1 243 65 is_stmt 0              @ ../fibre-cpp/fibre.cpp:243:65
	str	r0, [sp, #4]                    @ 4-byte Spill
	ldr	r1, [sp, #44]
	.loc	1 243 84                        @ ../fibre-cpp/fibre.cpp:243:84
	ldr	r2, [sp, #48]
	.loc	1 243 103                       @ ../fibre-cpp/fibre.cpp:243:103
	ldr	r3, [sp, #52]
	.loc	1 243 25                        @ ../fibre-cpp/fibre.cpp:243:25
	bl	_ZN5fibre25LegacyProtocolPacketBasedC2EPNS_17AsyncStreamSourceEPNS_15AsyncStreamSinkEj
	ldr	r0, [sp, #4]                    @ 4-byte Reload
	ldr	r1, [sp, #16]                   @ 4-byte Reload
	.loc	1 243 10                        @ ../fibre-cpp/fibre.cpp:243:10
	str	r0, [sp, #28]
	.loc	1 247 5 is_stmt 1               @ ../fibre-cpp/fibre.cpp:247:5
	ldr	r0, [sp, #28]
	.loc	1 247 21 is_stmt 0              @ ../fibre-cpp/fibre.cpp:247:21
	str	r0, [sp, #8]                    @ 4-byte Spill
	add	r0, sp, #20
	str	r0, [sp, #12]                   @ 4-byte Spill
	bl	_ZN5fibre13make_callbackIMNS_6DomainEFvPNS_25LegacyProtocolPacketBasedENS_12StreamStatusEEXadL_ZNS1_10on_stoppedES3_S4_EENS_15function_traitsIvS1_JS3_S4_EEENS_14MemberCallbackIS6_XadL_ZNS1_10on_stoppedES3_S4_EES1_vNSt3__25tupleIJS3_S4_EEEEEEENT2_4cb_tEPNT1_4TObjE
	ldr	r0, [sp, #8]                    @ 4-byte Reload
	ldr	r1, [sp, #12]                   @ 4-byte Reload
	.loc	1 247 15                        @ ../fibre-cpp/fibre.cpp:247:15
	bl	_ZN5fibre25LegacyProtocolPacketBased5startENS_8CallbackIvJPS0_NS_12StreamStatusEEEE
	.loc	1 250 1 is_stmt 1               @ ../fibre-cpp/fibre.cpp:250:1
	b	.LBB10_6
.LBB10_6:
	.loc	1 250 1 epilogue_begin is_stmt 0 @ ../fibre-cpp/fibre.cpp:250:1
	add	sp, #56
	pop	{r7, pc}
.Ltmp48:
.Lfunc_end10:
	.size	_ZN5fibre6Domain12add_channelsENS_22ChannelDiscoveryResultE, .Lfunc_end10-_ZN5fibre6Domain12add_channelsENS_22ChannelDiscoveryResultE
	.cfi_endproc
	.cantunwind
	.fnend
                                        @ -- End function
	.section	.text._ZN5fibre25LegacyProtocolPacketBasedC2EPNS_17AsyncStreamSourceEPNS_15AsyncStreamSinkEj,"axG",%progbits,_ZN5fibre25LegacyProtocolPacketBasedC2EPNS_17AsyncStreamSourceEPNS_15AsyncStreamSinkEj,comdat
	.hidden	_ZN5fibre25LegacyProtocolPacketBasedC2EPNS_17AsyncStreamSourceEPNS_15AsyncStreamSinkEj @ -- Begin function _ZN5fibre25LegacyProtocolPacketBasedC2EPNS_17AsyncStreamSourceEPNS_15AsyncStreamSinkEj
	.weak	_ZN5fibre25LegacyProtocolPacketBasedC2EPNS_17AsyncStreamSourceEPNS_15AsyncStreamSinkEj
	.p2align	2
	.type	_ZN5fibre25LegacyProtocolPacketBasedC2EPNS_17AsyncStreamSourceEPNS_15AsyncStreamSinkEj,%function
	.code	16                              @ @_ZN5fibre25LegacyProtocolPacketBasedC2EPNS_17AsyncStreamSourceEPNS_15AsyncStreamSinkEj
	.thumb_func
_ZN5fibre25LegacyProtocolPacketBasedC2EPNS_17AsyncStreamSourceEPNS_15AsyncStreamSinkEj:
.Lfunc_begin11:
	.loc	7 94 0 is_stmt 1                @ ../fibre-cpp/legacy_protocol.hpp:94:0
	.fnstart
	.cfi_startproc
@ %bb.0:
	.save	{r7, lr}
	push	{r7, lr}
	.cfi_def_cfa_offset 8
	.cfi_offset lr, -4
	.cfi_offset r7, -8
	.pad	#24
	sub	sp, #24
	.cfi_def_cfa_offset 32
	str	r0, [sp, #20]
	str	r1, [sp, #16]
	str	r2, [sp, #12]
	str	r3, [sp, #8]
	ldr	r1, [sp, #20]
.Ltmp49:
	.loc	7 94 23 prologue_end            @ ../fibre-cpp/legacy_protocol.hpp:94:23
	str	r1, [sp]                        @ 4-byte Spill
	ldr	r0, [sp, #16]
	.loc	7 94 11 is_stmt 0               @ ../fibre-cpp/legacy_protocol.hpp:94:11
	str	r0, [r1]
	.loc	7 94 48                         @ ../fibre-cpp/legacy_protocol.hpp:94:48
	ldr	r0, [sp, #12]
	.loc	7 94 36                         @ ../fibre-cpp/legacy_protocol.hpp:94:36
	str	r0, [r1, #4]
	movs	r0, #128
	.loc	7 94 86                         @ ../fibre-cpp/legacy_protocol.hpp:94:86
	str	r0, [sp, #4]
	add	r0, sp, #8
	add	r1, sp, #4
	.loc	7 94 69                         @ ../fibre-cpp/legacy_protocol.hpp:94:69
	bl	_ZNSt3__23minB7v180000IjEERKT_S3_S3_
	mov	r1, r0
	ldr	r0, [sp]                        @ 4-byte Reload
	ldr	r1, [r1]
	.loc	7 94 61                         @ ../fibre-cpp/legacy_protocol.hpp:94:61
	str	r1, [r0, #8]
	movs	r1, #0
	.loc	7 102 20 is_stmt 1              @ ../fibre-cpp/legacy_protocol.hpp:102:20
	str.w	r1, [r0, #268]
	.loc	7 103 14                        @ ../fibre-cpp/legacy_protocol.hpp:103:14
	str.w	r1, [r0, #272]
	.loc	7 104 18                        @ ../fibre-cpp/legacy_protocol.hpp:104:18
	strb.w	r1, [r0, #276]
	.loc	7 108 62                        @ ../fibre-cpp/legacy_protocol.hpp:108:62
	add.w	r0, r0, #280
	.loc	7 108 76 is_stmt 0              @ ../fibre-cpp/legacy_protocol.hpp:108:76
	bl	_ZN5fibre8CallbackIvJPNS_25LegacyProtocolPacketBasedENS_12StreamStatusEEEC2EDn
	ldr	r0, [sp]                        @ 4-byte Reload
	.loc	7 94 105 epilogue_begin is_stmt 1 @ ../fibre-cpp/legacy_protocol.hpp:94:105
	add	sp, #24
	pop	{r7, pc}
.Ltmp50:
.Lfunc_end11:
	.size	_ZN5fibre25LegacyProtocolPacketBasedC2EPNS_17AsyncStreamSourceEPNS_15AsyncStreamSinkEj, .Lfunc_end11-_ZN5fibre25LegacyProtocolPacketBasedC2EPNS_17AsyncStreamSourceEPNS_15AsyncStreamSinkEj
	.cfi_endproc
	.cantunwind
	.fnend
                                        @ -- End function
	.section	.text._ZN5fibre13make_callbackIMNS_6DomainEFvPNS_25LegacyProtocolPacketBasedENS_12StreamStatusEEXadL_ZNS1_10on_stoppedES3_S4_EENS_15function_traitsIvS1_JS3_S4_EEENS_14MemberCallbackIS6_XadL_ZNS1_10on_stoppedES3_S4_EES1_vNSt3__25tupleIJS3_S4_EEEEEEENT2_4cb_tEPNT1_4TObjE,"axG",%progbits,_ZN5fibre13make_callbackIMNS_6DomainEFvPNS_25LegacyProtocolPacketBasedENS_12StreamStatusEEXadL_ZNS1_10on_stoppedES3_S4_EENS_15function_traitsIvS1_JS3_S4_EEENS_14MemberCallbackIS6_XadL_ZNS1_10on_stoppedES3_S4_EES1_vNSt3__25tupleIJS3_S4_EEEEEEENT2_4cb_tEPNT1_4TObjE,comdat
	.hidden	_ZN5fibre13make_callbackIMNS_6DomainEFvPNS_25LegacyProtocolPacketBasedENS_12StreamStatusEEXadL_ZNS1_10on_stoppedES3_S4_EENS_15function_traitsIvS1_JS3_S4_EEENS_14MemberCallbackIS6_XadL_ZNS1_10on_stoppedES3_S4_EES1_vNSt3__25tupleIJS3_S4_EEEEEEENT2_4cb_tEPNT1_4TObjE @ -- Begin function _ZN5fibre13make_callbackIMNS_6DomainEFvPNS_25LegacyProtocolPacketBasedENS_12StreamStatusEEXadL_ZNS1_10on_stoppedES3_S4_EENS_15function_traitsIvS1_JS3_S4_EEENS_14MemberCallbackIS6_XadL_ZNS1_10on_stoppedES3_S4_EES1_vNSt3__25tupleIJS3_S4_EEEEEEENT2_4cb_tEPNT1_4TObjE
	.weak	_ZN5fibre13make_callbackIMNS_6DomainEFvPNS_25LegacyProtocolPacketBasedENS_12StreamStatusEEXadL_ZNS1_10on_stoppedES3_S4_EENS_15function_traitsIvS1_JS3_S4_EEENS_14MemberCallbackIS6_XadL_ZNS1_10on_stoppedES3_S4_EES1_vNSt3__25tupleIJS3_S4_EEEEEEENT2_4cb_tEPNT1_4TObjE
	.p2align	2
	.type	_ZN5fibre13make_callbackIMNS_6DomainEFvPNS_25LegacyProtocolPacketBasedENS_12StreamStatusEEXadL_ZNS1_10on_stoppedES3_S4_EENS_15function_traitsIvS1_JS3_S4_EEENS_14MemberCallbackIS6_XadL_ZNS1_10on_stoppedES3_S4_EES1_vNSt3__25tupleIJS3_S4_EEEEEEENT2_4cb_tEPNT1_4TObjE,%function
	.code	16                              @ @_ZN5fibre13make_callbackIMNS_6DomainEFvPNS_25LegacyProtocolPacketBasedENS_12StreamStatusEEXadL_ZNS1_10on_stoppedES3_S4_EENS_15function_traitsIvS1_JS3_S4_EEENS_14MemberCallbackIS6_XadL_ZNS1_10on_stoppedES3_S4_EES1_vNSt3__25tupleIJS3_S4_EEEEEEENT2_4cb_tEPNT1_4TObjE
	.thumb_func
_ZN5fibre13make_callbackIMNS_6DomainEFvPNS_25LegacyProtocolPacketBasedENS_12StreamStatusEEXadL_ZNS1_10on_stoppedES3_S4_EENS_15function_traitsIvS1_JS3_S4_EEENS_14MemberCallbackIS6_XadL_ZNS1_10on_stoppedES3_S4_EES1_vNSt3__25tupleIJS3_S4_EEEEEEENT2_4cb_tEPNT1_4TObjE:
.Lfunc_begin12:
	.loc	10 114 0                        @ ../fibre-cpp/include\fibre/callback.hpp:114:0
	.fnstart
	.cfi_startproc
@ %bb.0:
	.save	{r7, lr}
	push	{r7, lr}
	.cfi_def_cfa_offset 8
	.cfi_offset lr, -4
	.cfi_offset r7, -8
	.pad	#8
	sub	sp, #8
	.cfi_def_cfa_offset 16
	str	r0, [sp, #4]
	str	r1, [sp]
.Ltmp51:
	.loc	10 115 24 prologue_end          @ ../fibre-cpp/include\fibre/callback.hpp:115:24
	ldr	r1, [sp]
	.loc	10 115 12 is_stmt 0             @ ../fibre-cpp/include\fibre/callback.hpp:115:12
	bl	_ZN5fibre14MemberCallbackIMNS_6DomainEFvPNS_25LegacyProtocolPacketBasedENS_12StreamStatusEEXadL_ZNS1_10on_stoppedES3_S4_EES1_vNSt3__25tupleIJS3_S4_EEEE4withEPS1_
	.loc	10 115 5 epilogue_begin         @ ../fibre-cpp/include\fibre/callback.hpp:115:5
	add	sp, #8
	pop	{r7, pc}
.Ltmp52:
.Lfunc_end12:
	.size	_ZN5fibre13make_callbackIMNS_6DomainEFvPNS_25LegacyProtocolPacketBasedENS_12StreamStatusEEXadL_ZNS1_10on_stoppedES3_S4_EENS_15function_traitsIvS1_JS3_S4_EEENS_14MemberCallbackIS6_XadL_ZNS1_10on_stoppedES3_S4_EES1_vNSt3__25tupleIJS3_S4_EEEEEEENT2_4cb_tEPNT1_4TObjE, .Lfunc_end12-_ZN5fibre13make_callbackIMNS_6DomainEFvPNS_25LegacyProtocolPacketBasedENS_12StreamStatusEEXadL_ZNS1_10on_stoppedES3_S4_EENS_15function_traitsIvS1_JS3_S4_EEENS_14MemberCallbackIS6_XadL_ZNS1_10on_stoppedES3_S4_EES1_vNSt3__25tupleIJS3_S4_EEEEEEENT2_4cb_tEPNT1_4TObjE
	.cfi_endproc
	.cantunwind
	.fnend
                                        @ -- End function
	.section	.text._ZN5fibre6Domain10on_stoppedEPNS_25LegacyProtocolPacketBasedENS_12StreamStatusE,"ax",%progbits
	.hidden	_ZN5fibre6Domain10on_stoppedEPNS_25LegacyProtocolPacketBasedENS_12StreamStatusE @ -- Begin function _ZN5fibre6Domain10on_stoppedEPNS_25LegacyProtocolPacketBasedENS_12StreamStatusE
	.globl	_ZN5fibre6Domain10on_stoppedEPNS_25LegacyProtocolPacketBasedENS_12StreamStatusE
	.p2align	2
	.type	_ZN5fibre6Domain10on_stoppedEPNS_25LegacyProtocolPacketBasedENS_12StreamStatusE,%function
	.code	16                              @ @_ZN5fibre6Domain10on_stoppedEPNS_25LegacyProtocolPacketBasedENS_12StreamStatusE
	.thumb_func
_ZN5fibre6Domain10on_stoppedEPNS_25LegacyProtocolPacketBasedENS_12StreamStatusE:
.Lfunc_begin13:
	.loc	1 268 0 is_stmt 1               @ ../fibre-cpp/fibre.cpp:268:0
	.fnstart
	.cfi_startproc
@ %bb.0:
	.save	{r7, lr}
	push	{r7, lr}
	.cfi_def_cfa_offset 8
	.cfi_offset lr, -4
	.cfi_offset r7, -8
	.pad	#16
	sub	sp, #16
	.cfi_def_cfa_offset 24
                                        @ kill: def $r3 killed $r2
	str	r0, [sp, #12]
	str	r1, [sp, #8]
	strb.w	r2, [sp, #7]
.Ltmp53:
	.loc	1 269 12 prologue_end           @ ../fibre-cpp/fibre.cpp:269:12
	ldr	r0, [sp, #8]
	.loc	1 269 5 is_stmt 0               @ ../fibre-cpp/fibre.cpp:269:5
	str	r0, [sp]                        @ 4-byte Spill
	cbz	r0, .LBB13_2
	b	.LBB13_1
.LBB13_1:
	ldr	r0, [sp]                        @ 4-byte Reload
	mov.w	r1, #288
	bl	_ZdlPvj
	b	.LBB13_2
.LBB13_2:
	.loc	1 270 1 epilogue_begin is_stmt 1 @ ../fibre-cpp/fibre.cpp:270:1
	add	sp, #16
	pop	{r7, pc}
.Ltmp54:
.Lfunc_end13:
	.size	_ZN5fibre6Domain10on_stoppedEPNS_25LegacyProtocolPacketBasedENS_12StreamStatusE, .Lfunc_end13-_ZN5fibre6Domain10on_stoppedEPNS_25LegacyProtocolPacketBasedENS_12StreamStatusE
	.cfi_endproc
	.cantunwind
	.fnend
                                        @ -- End function
	.section	.text._ZNSt3__23minB7v180000IjEERKT_S3_S3_,"axG",%progbits,_ZNSt3__23minB7v180000IjEERKT_S3_S3_,comdat
	.hidden	_ZNSt3__23minB7v180000IjEERKT_S3_S3_ @ -- Begin function _ZNSt3__23minB7v180000IjEERKT_S3_S3_
	.weak	_ZNSt3__23minB7v180000IjEERKT_S3_S3_
	.p2align	2
	.type	_ZNSt3__23minB7v180000IjEERKT_S3_S3_,%function
	.code	16                              @ @_ZNSt3__23minB7v180000IjEERKT_S3_S3_
	.thumb_func
_ZNSt3__23minB7v180000IjEERKT_S3_S3_:
.Lfunc_begin14:
	.file	19 "D:\\Embed\\MDK\\MDK\\ARM\\ARMCompilerV621\\Bin\\..\\include\\libcxx\\__algorithm" "min.h"
	.loc	19 41 0                         @ D:\Embed\MDK\MDK\ARM\ARMCompilerV621\Bin\..\include\libcxx\__algorithm/min.h:41:0
	.fnstart
	.cfi_startproc
@ %bb.0:
	.save	{r7, lr}
	push	{r7, lr}
	.cfi_def_cfa_offset 8
	.cfi_offset lr, -4
	.cfi_offset r7, -8
	.pad	#16
	sub	sp, #16
	.cfi_def_cfa_offset 24
	str	r0, [sp, #12]
	str	r1, [sp, #8]
.Ltmp55:
	.loc	19 42 23 prologue_end           @ D:\Embed\MDK\MDK\ARM\ARMCompilerV621\Bin\..\include\libcxx\__algorithm/min.h:42:23
	ldr	r0, [sp, #12]
	.loc	19 42 28 is_stmt 0              @ D:\Embed\MDK\MDK\ARM\ARMCompilerV621\Bin\..\include\libcxx\__algorithm/min.h:42:28
	ldr	r1, [sp, #8]
	.loc	19 42 12                        @ D:\Embed\MDK\MDK\ARM\ARMCompilerV621\Bin\..\include\libcxx\__algorithm/min.h:42:12
	bl	_ZNSt3__23minB7v180000IjNS_6__lessIvvEEEERKT_S5_S5_T0_
	.loc	19 42 5 epilogue_begin          @ D:\Embed\MDK\MDK\ARM\ARMCompilerV621\Bin\..\include\libcxx\__algorithm/min.h:42:5
	add	sp, #16
	pop	{r7, pc}
.Ltmp56:
.Lfunc_end14:
	.size	_ZNSt3__23minB7v180000IjEERKT_S3_S3_, .Lfunc_end14-_ZNSt3__23minB7v180000IjEERKT_S3_S3_
	.cfi_endproc
	.cantunwind
	.fnend
                                        @ -- End function
	.section	.text._ZN5fibre8CallbackIvJPNS_25LegacyProtocolPacketBasedENS_12StreamStatusEEEC2EDn,"axG",%progbits,_ZN5fibre8CallbackIvJPNS_25LegacyProtocolPacketBasedENS_12StreamStatusEEEC2EDn,comdat
	.hidden	_ZN5fibre8CallbackIvJPNS_25LegacyProtocolPacketBasedENS_12StreamStatusEEEC2EDn @ -- Begin function _ZN5fibre8CallbackIvJPNS_25LegacyProtocolPacketBasedENS_12StreamStatusEEEC2EDn
	.weak	_ZN5fibre8CallbackIvJPNS_25LegacyProtocolPacketBasedENS_12StreamStatusEEEC2EDn
	.p2align	2
	.type	_ZN5fibre8CallbackIvJPNS_25LegacyProtocolPacketBasedENS_12StreamStatusEEEC2EDn,%function
	.code	16                              @ @_ZN5fibre8CallbackIvJPNS_25LegacyProtocolPacketBasedENS_12StreamStatusEEEC2EDn
	.thumb_func
_ZN5fibre8CallbackIvJPNS_25LegacyProtocolPacketBasedENS_12StreamStatusEEEC2EDn:
.Lfunc_begin15:
	.loc	10 21 0 is_stmt 1               @ ../fibre-cpp/include\fibre/callback.hpp:21:0
	.fnstart
	.cfi_startproc
@ %bb.0:
	.pad	#8
	sub	sp, #8
	.cfi_def_cfa_offset 8
	str	r0, [sp, #4]
	str	r1, [sp]
	ldr	r0, [sp, #4]
	movs	r1, #0
.Ltmp57:
	.loc	10 21 32 prologue_end           @ ../fibre-cpp/include\fibre/callback.hpp:21:32
	str	r1, [r0]
	.loc	10 21 46 is_stmt 0              @ ../fibre-cpp/include\fibre/callback.hpp:21:46
	str	r1, [r0, #4]
	.loc	10 21 61 epilogue_begin         @ ../fibre-cpp/include\fibre/callback.hpp:21:61
	add	sp, #8
	bx	lr
.Ltmp58:
.Lfunc_end15:
	.size	_ZN5fibre8CallbackIvJPNS_25LegacyProtocolPacketBasedENS_12StreamStatusEEEC2EDn, .Lfunc_end15-_ZN5fibre8CallbackIvJPNS_25LegacyProtocolPacketBasedENS_12StreamStatusEEEC2EDn
	.cfi_endproc
	.cantunwind
	.fnend
                                        @ -- End function
	.section	.text._ZNSt3__23minB7v180000IjNS_6__lessIvvEEEERKT_S5_S5_T0_,"axG",%progbits,_ZNSt3__23minB7v180000IjNS_6__lessIvvEEEERKT_S5_S5_T0_,comdat
	.hidden	_ZNSt3__23minB7v180000IjNS_6__lessIvvEEEERKT_S5_S5_T0_ @ -- Begin function _ZNSt3__23minB7v180000IjNS_6__lessIvvEEEERKT_S5_S5_T0_
	.weak	_ZNSt3__23minB7v180000IjNS_6__lessIvvEEEERKT_S5_S5_T0_
	.p2align	2
	.type	_ZNSt3__23minB7v180000IjNS_6__lessIvvEEEERKT_S5_S5_T0_,%function
	.code	16                              @ @_ZNSt3__23minB7v180000IjNS_6__lessIvvEEEERKT_S5_S5_T0_
	.thumb_func
_ZNSt3__23minB7v180000IjNS_6__lessIvvEEEERKT_S5_S5_T0_:
.Lfunc_begin16:
	.loc	19 32 0 is_stmt 1               @ D:\Embed\MDK\MDK\ARM\ARMCompilerV621\Bin\..\include\libcxx\__algorithm/min.h:32:0
	.fnstart
	.cfi_startproc
@ %bb.0:
	.save	{r7, lr}
	push	{r7, lr}
	.cfi_def_cfa_offset 8
	.cfi_offset lr, -4
	.cfi_offset r7, -8
	.pad	#16
	sub	sp, #16
	.cfi_def_cfa_offset 24
	str	r0, [sp, #8]
	str	r1, [sp, #4]
.Ltmp59:
	.loc	19 33 19 prologue_end           @ D:\Embed\MDK\MDK\ARM\ARMCompilerV621\Bin\..\include\libcxx\__algorithm/min.h:33:19
	ldr	r1, [sp, #4]
	.loc	19 33 24 is_stmt 0              @ D:\Embed\MDK\MDK\ARM\ARMCompilerV621\Bin\..\include\libcxx\__algorithm/min.h:33:24
	ldr	r2, [sp, #8]
	add.w	r0, sp, #15
	.loc	19 33 12                        @ D:\Embed\MDK\MDK\ARM\ARMCompilerV621\Bin\..\include\libcxx\__algorithm/min.h:33:12
	bl	_ZNKSt3__26__lessIvvEclB7v180000IjjEEbRKT_RKT0_
	cbz	r0, .LBB16_2
	b	.LBB16_1
.LBB16_1:
	.loc	19 33 31                        @ D:\Embed\MDK\MDK\ARM\ARMCompilerV621\Bin\..\include\libcxx\__algorithm/min.h:33:31
	ldr	r0, [sp, #4]
	.loc	19 33 12                        @ D:\Embed\MDK\MDK\ARM\ARMCompilerV621\Bin\..\include\libcxx\__algorithm/min.h:33:12
	str	r0, [sp]                        @ 4-byte Spill
	b	.LBB16_3
.LBB16_2:
	.loc	19 33 37                        @ D:\Embed\MDK\MDK\ARM\ARMCompilerV621\Bin\..\include\libcxx\__algorithm/min.h:33:37
	ldr	r0, [sp, #8]
	.loc	19 33 12                        @ D:\Embed\MDK\MDK\ARM\ARMCompilerV621\Bin\..\include\libcxx\__algorithm/min.h:33:12
	str	r0, [sp]                        @ 4-byte Spill
	b	.LBB16_3
.LBB16_3:
	ldr	r0, [sp]                        @ 4-byte Reload
	.loc	19 33 5 epilogue_begin          @ D:\Embed\MDK\MDK\ARM\ARMCompilerV621\Bin\..\include\libcxx\__algorithm/min.h:33:5
	add	sp, #16
	pop	{r7, pc}
.Ltmp60:
.Lfunc_end16:
	.size	_ZNSt3__23minB7v180000IjNS_6__lessIvvEEEERKT_S5_S5_T0_, .Lfunc_end16-_ZNSt3__23minB7v180000IjNS_6__lessIvvEEEERKT_S5_S5_T0_
	.cfi_endproc
	.cantunwind
	.fnend
                                        @ -- End function
	.section	.text._ZNKSt3__26__lessIvvEclB7v180000IjjEEbRKT_RKT0_,"axG",%progbits,_ZNKSt3__26__lessIvvEclB7v180000IjjEEbRKT_RKT0_,comdat
	.hidden	_ZNKSt3__26__lessIvvEclB7v180000IjjEEbRKT_RKT0_ @ -- Begin function _ZNKSt3__26__lessIvvEclB7v180000IjjEEbRKT_RKT0_
	.weak	_ZNKSt3__26__lessIvvEclB7v180000IjjEEbRKT_RKT0_
	.p2align	2
	.type	_ZNKSt3__26__lessIvvEclB7v180000IjjEEbRKT_RKT0_,%function
	.code	16                              @ @_ZNKSt3__26__lessIvvEclB7v180000IjjEEbRKT_RKT0_
	.thumb_func
_ZNKSt3__26__lessIvvEclB7v180000IjjEEbRKT_RKT0_:
.Lfunc_begin17:
	.file	20 "D:\\Embed\\MDK\\MDK\\ARM\\ARMCompilerV621\\Bin\\..\\include\\libcxx\\__algorithm" "comp.h"
	.loc	20 40 0 is_stmt 1               @ D:\Embed\MDK\MDK\ARM\ARMCompilerV621\Bin\..\include\libcxx\__algorithm/comp.h:40:0
	.fnstart
	.cfi_startproc
@ %bb.0:
	.pad	#12
	sub	sp, #12
	.cfi_def_cfa_offset 12
	str	r0, [sp, #8]
	str	r1, [sp, #4]
	str	r2, [sp]
.Ltmp61:
	.loc	20 41 12 prologue_end           @ D:\Embed\MDK\MDK\ARM\ARMCompilerV621\Bin\..\include\libcxx\__algorithm/comp.h:41:12
	ldr	r0, [sp, #4]
	ldr	r1, [r0]
	.loc	20 41 20 is_stmt 0              @ D:\Embed\MDK\MDK\ARM\ARMCompilerV621\Bin\..\include\libcxx\__algorithm/comp.h:41:20
	ldr	r0, [sp]
	ldr	r2, [r0]
	movs	r0, #0
	.loc	20 41 18                        @ D:\Embed\MDK\MDK\ARM\ARMCompilerV621\Bin\..\include\libcxx\__algorithm/comp.h:41:18
	cmp	r1, r2
	it	lo
	movlo	r0, #1
	.loc	20 41 5 epilogue_begin          @ D:\Embed\MDK\MDK\ARM\ARMCompilerV621\Bin\..\include\libcxx\__algorithm/comp.h:41:5
	add	sp, #12
	bx	lr
.Ltmp62:
.Lfunc_end17:
	.size	_ZNKSt3__26__lessIvvEclB7v180000IjjEEbRKT_RKT0_, .Lfunc_end17-_ZNKSt3__26__lessIvvEclB7v180000IjjEEbRKT_RKT0_
	.cfi_endproc
	.cantunwind
	.fnend
                                        @ -- End function
	.section	.text._Z22for_each_in_tuple_implI18BackendInitializerRNSt3__25tupleIJEEEJEEN29for_each_in_tuple_result_implIT_T0_18__make_integer_seqINS1_16integer_sequenceEjXsr3std10tuple_sizeIu7__decayIS7_EEE5valueEEE4typeEOS6_OS7_NS9_IjJXspT1_EEEE,"axG",%progbits,_Z22for_each_in_tuple_implI18BackendInitializerRNSt3__25tupleIJEEEJEEN29for_each_in_tuple_result_implIT_T0_18__make_integer_seqINS1_16integer_sequenceEjXsr3std10tuple_sizeIu7__decayIS7_EEE5valueEEE4typeEOS6_OS7_NS9_IjJXspT1_EEEE,comdat
	.hidden	_Z22for_each_in_tuple_implI18BackendInitializerRNSt3__25tupleIJEEEJEEN29for_each_in_tuple_result_implIT_T0_18__make_integer_seqINS1_16integer_sequenceEjXsr3std10tuple_sizeIu7__decayIS7_EEE5valueEEE4typeEOS6_OS7_NS9_IjJXspT1_EEEE @ -- Begin function _Z22for_each_in_tuple_implI18BackendInitializerRNSt3__25tupleIJEEEJEEN29for_each_in_tuple_result_implIT_T0_18__make_integer_seqINS1_16integer_sequenceEjXsr3std10tuple_sizeIu7__decayIS7_EEE5valueEEE4typeEOS6_OS7_NS9_IjJXspT1_EEEE
	.weak	_Z22for_each_in_tuple_implI18BackendInitializerRNSt3__25tupleIJEEEJEEN29for_each_in_tuple_result_implIT_T0_18__make_integer_seqINS1_16integer_sequenceEjXsr3std10tuple_sizeIu7__decayIS7_EEE5valueEEE4typeEOS6_OS7_NS9_IjJXspT1_EEEE
	.p2align	2
	.type	_Z22for_each_in_tuple_implI18BackendInitializerRNSt3__25tupleIJEEEJEEN29for_each_in_tuple_result_implIT_T0_18__make_integer_seqINS1_16integer_sequenceEjXsr3std10tuple_sizeIu7__decayIS7_EEE5valueEEE4typeEOS6_OS7_NS9_IjJXspT1_EEEE,%function
	.code	16                              @ @_Z22for_each_in_tuple_implI18BackendInitializerRNSt3__25tupleIJEEEJEEN29for_each_in_tuple_result_implIT_T0_18__make_integer_seqINS1_16integer_sequenceEjXsr3std10tuple_sizeIu7__decayIS7_EEE5valueEEE4typeEOS6_OS7_NS9_IjJXspT1_EEEE
	.thumb_func
_Z22for_each_in_tuple_implI18BackendInitializerRNSt3__25tupleIJEEEJEEN29for_each_in_tuple_result_implIT_T0_18__make_integer_seqINS1_16integer_sequenceEjXsr3std10tuple_sizeIu7__decayIS7_EEE5valueEEE4typeEOS6_OS7_NS9_IjJXspT1_EEEE:
.Lfunc_begin18:
	.loc	18 765 0 is_stmt 1              @ ../fibre-cpp/include\fibre/cpp_utils.hpp:765:0
	.fnstart
	.cfi_startproc
@ %bb.0:
	.pad	#12
	sub	sp, #12
	.cfi_def_cfa_offset 12
	str	r0, [sp, #4]
	str	r1, [sp]
.Ltmp63:
	.loc	18 766 5 prologue_end epilogue_begin @ ../fibre-cpp/include\fibre/cpp_utils.hpp:766:5
	add	sp, #12
	bx	lr
.Ltmp64:
.Lfunc_end18:
	.size	_Z22for_each_in_tuple_implI18BackendInitializerRNSt3__25tupleIJEEEJEEN29for_each_in_tuple_result_implIT_T0_18__make_integer_seqINS1_16integer_sequenceEjXsr3std10tuple_sizeIu7__decayIS7_EEE5valueEEE4typeEOS6_OS7_NS9_IjJXspT1_EEEE, .Lfunc_end18-_Z22for_each_in_tuple_implI18BackendInitializerRNSt3__25tupleIJEEEJEEN29for_each_in_tuple_result_implIT_T0_18__make_integer_seqINS1_16integer_sequenceEjXsr3std10tuple_sizeIu7__decayIS7_EEE5valueEEE4typeEOS6_OS7_NS9_IjJXspT1_EEEE
	.cfi_endproc
	.cantunwind
	.fnend
                                        @ -- End function
	.section	.text._Z3allIJEJEEbNSt3__25tupleIJDpT_EEENS0_16integer_sequenceIjJXspT0_EEEE,"axG",%progbits,_Z3allIJEJEEbNSt3__25tupleIJDpT_EEENS0_16integer_sequenceIjJXspT0_EEEE,comdat
	.hidden	_Z3allIJEJEEbNSt3__25tupleIJDpT_EEENS0_16integer_sequenceIjJXspT0_EEEE @ -- Begin function _Z3allIJEJEEbNSt3__25tupleIJDpT_EEENS0_16integer_sequenceIjJXspT0_EEEE
	.weak	_Z3allIJEJEEbNSt3__25tupleIJDpT_EEENS0_16integer_sequenceIjJXspT0_EEEE
	.p2align	2
	.type	_Z3allIJEJEEbNSt3__25tupleIJDpT_EEENS0_16integer_sequenceIjJXspT0_EEEE,%function
	.code	16                              @ @_Z3allIJEJEEbNSt3__25tupleIJDpT_EEENS0_16integer_sequenceIjJXspT0_EEEE
	.thumb_func
_Z3allIJEJEEbNSt3__25tupleIJDpT_EEENS0_16integer_sequenceIjJXspT0_EEEE:
.Lfunc_begin19:
	.loc	1 107 0                         @ ../fibre-cpp/fibre.cpp:107:0
	.fnstart
	.cfi_startproc
@ %bb.0:
	.save	{r7, lr}
	push	{r7, lr}
	.cfi_def_cfa_offset 8
	.cfi_offset lr, -4
	.cfi_offset r7, -8
	.pad	#16
	sub	sp, #16
	.cfi_def_cfa_offset 24
	movs	r0, #0
.Ltmp65:
	.loc	1 108 36 prologue_end           @ ../fibre-cpp/fibre.cpp:108:36
	strb.w	r0, [sp, #13]
	add.w	r0, sp, #13
	.loc	1 109 28                        @ ../fibre-cpp/fibre.cpp:109:28
	str	r0, [sp, #4]                    @ 4-byte Spill
	bl	_ZNSt3__25arrayIbLj0EE5beginB7v180000Ev
	mov	r1, r0
	.loc	1 109 41 is_stmt 0              @ ../fibre-cpp/fibre.cpp:109:41
	ldr	r0, [sp, #4]                    @ 4-byte Reload
	str	r1, [sp, #8]                    @ 4-byte Spill
	bl	_ZNSt3__25arrayIbLj0EE3endB7v180000Ev
	mov	r1, r0
	.loc	1 109 12                        @ ../fibre-cpp/fibre.cpp:109:12
	ldr	r0, [sp, #8]                    @ 4-byte Reload
	bl	_ZNSt3__26all_ofB7v180000IPbZ3allIJEJEEbNS_5tupleIJDpT_EEENS_16integer_sequenceIjJXspT0_EEEEEUlbE_EEbT_SA_T0_
	.loc	1 109 5 epilogue_begin          @ ../fibre-cpp/fibre.cpp:109:5
	add	sp, #16
	pop	{r7, pc}
.Ltmp66:
.Lfunc_end19:
	.size	_Z3allIJEJEEbNSt3__25tupleIJDpT_EEENS0_16integer_sequenceIjJXspT0_EEEE, .Lfunc_end19-_Z3allIJEJEEbNSt3__25tupleIJDpT_EEENS0_16integer_sequenceIjJXspT0_EEEE
	.cfi_endproc
	.cantunwind
	.fnend
                                        @ -- End function
	.section	.text._ZNSt3__26all_ofB7v180000IPbZ3allIJEJEEbNS_5tupleIJDpT_EEENS_16integer_sequenceIjJXspT0_EEEEEUlbE_EEbT_SA_T0_,"axG",%progbits,_ZNSt3__26all_ofB7v180000IPbZ3allIJEJEEbNS_5tupleIJDpT_EEENS_16integer_sequenceIjJXspT0_EEEEEUlbE_EEbT_SA_T0_,comdat
	.hidden	_ZNSt3__26all_ofB7v180000IPbZ3allIJEJEEbNS_5tupleIJDpT_EEENS_16integer_sequenceIjJXspT0_EEEEEUlbE_EEbT_SA_T0_ @ -- Begin function _ZNSt3__26all_ofB7v180000IPbZ3allIJEJEEbNS_5tupleIJDpT_EEENS_16integer_sequenceIjJXspT0_EEEEEUlbE_EEbT_SA_T0_
	.weak	_ZNSt3__26all_ofB7v180000IPbZ3allIJEJEEbNS_5tupleIJDpT_EEENS_16integer_sequenceIjJXspT0_EEEEEUlbE_EEbT_SA_T0_
	.p2align	2
	.type	_ZNSt3__26all_ofB7v180000IPbZ3allIJEJEEbNS_5tupleIJDpT_EEENS_16integer_sequenceIjJXspT0_EEEEEUlbE_EEbT_SA_T0_,%function
	.code	16                              @ @_ZNSt3__26all_ofB7v180000IPbZ3allIJEJEEbNS_5tupleIJDpT_EEENS_16integer_sequenceIjJXspT0_EEEEEUlbE_EEbT_SA_T0_
	.thumb_func
_ZNSt3__26all_ofB7v180000IPbZ3allIJEJEEbNS_5tupleIJDpT_EEENS_16integer_sequenceIjJXspT0_EEEEEUlbE_EEbT_SA_T0_:
.Lfunc_begin20:
	.file	21 "D:\\Embed\\MDK\\MDK\\ARM\\ARMCompilerV621\\Bin\\..\\include\\libcxx\\__algorithm" "all_of.h"
	.loc	21 23 0 is_stmt 1               @ D:\Embed\MDK\MDK\ARM\ARMCompilerV621\Bin\..\include\libcxx\__algorithm/all_of.h:23:0
	.fnstart
	.cfi_startproc
@ %bb.0:
	.save	{r7, lr}
	push	{r7, lr}
	.cfi_def_cfa_offset 8
	.cfi_offset lr, -4
	.cfi_offset r7, -8
	.pad	#16
	sub	sp, #16
	.cfi_def_cfa_offset 24
	str	r0, [sp, #8]
	str	r1, [sp, #4]
.Ltmp67:
	.loc	21 24 3 prologue_end            @ D:\Embed\MDK\MDK\ARM\ARMCompilerV621\Bin\..\include\libcxx\__algorithm/all_of.h:24:3
	b	.LBB20_1
.LBB20_1:                               @ =>This Inner Loop Header: Depth=1
.Ltmp68:
	.loc	21 24 10 is_stmt 0              @ D:\Embed\MDK\MDK\ARM\ARMCompilerV621\Bin\..\include\libcxx\__algorithm/all_of.h:24:10
	ldr	r0, [sp, #8]
	.loc	21 24 21                        @ D:\Embed\MDK\MDK\ARM\ARMCompilerV621\Bin\..\include\libcxx\__algorithm/all_of.h:24:21
	ldr	r1, [sp, #4]
.Ltmp69:
	.loc	21 24 3                         @ D:\Embed\MDK\MDK\ARM\ARMCompilerV621\Bin\..\include\libcxx\__algorithm/all_of.h:24:3
	cmp	r0, r1
	beq	.LBB20_6
	b	.LBB20_2
.LBB20_2:                               @   in Loop: Header=BB20_1 Depth=1
.Ltmp70:
	.loc	21 25 18 is_stmt 1              @ D:\Embed\MDK\MDK\ARM\ARMCompilerV621\Bin\..\include\libcxx\__algorithm/all_of.h:25:18
	ldr	r0, [sp, #8]
	.loc	21 25 10 is_stmt 0              @ D:\Embed\MDK\MDK\ARM\ARMCompilerV621\Bin\..\include\libcxx\__algorithm/all_of.h:25:10
	ldrb	r0, [r0]
	and	r1, r0, #1
	add.w	r0, sp, #14
	bl	_ZZ3allIJEJEEbNSt3__25tupleIJDpT_EEENS0_16integer_sequenceIjJXspT0_EEEEENKUlbE_clEb
.Ltmp71:
	.loc	21 25 9                         @ D:\Embed\MDK\MDK\ARM\ARMCompilerV621\Bin\..\include\libcxx\__algorithm/all_of.h:25:9
	cbnz	r0, .LBB20_4
	b	.LBB20_3
.LBB20_3:
	.loc	21 0 9                          @ D:\Embed\MDK\MDK\ARM\ARMCompilerV621\Bin\..\include\libcxx\__algorithm/all_of.h:0:9
	movs	r0, #0
.Ltmp72:
	.loc	21 26 7 is_stmt 1               @ D:\Embed\MDK\MDK\ARM\ARMCompilerV621\Bin\..\include\libcxx\__algorithm/all_of.h:26:7
	strb.w	r0, [sp, #15]
	b	.LBB20_7
.LBB20_4:                               @   in Loop: Header=BB20_1 Depth=1
	.loc	21 25 25                        @ D:\Embed\MDK\MDK\ARM\ARMCompilerV621\Bin\..\include\libcxx\__algorithm/all_of.h:25:25
	b	.LBB20_5
.Ltmp73:
.LBB20_5:                               @   in Loop: Header=BB20_1 Depth=1
	.loc	21 24 29                        @ D:\Embed\MDK\MDK\ARM\ARMCompilerV621\Bin\..\include\libcxx\__algorithm/all_of.h:24:29
	ldr	r0, [sp, #8]
	adds	r0, #1
	str	r0, [sp, #8]
	.loc	21 24 3 is_stmt 0               @ D:\Embed\MDK\MDK\ARM\ARMCompilerV621\Bin\..\include\libcxx\__algorithm/all_of.h:24:3
	b	.LBB20_1
.Ltmp74:
.LBB20_6:
	.loc	21 0 3                          @ D:\Embed\MDK\MDK\ARM\ARMCompilerV621\Bin\..\include\libcxx\__algorithm/all_of.h:0:3
	movs	r0, #1
	.loc	21 27 3 is_stmt 1               @ D:\Embed\MDK\MDK\ARM\ARMCompilerV621\Bin\..\include\libcxx\__algorithm/all_of.h:27:3
	strb.w	r0, [sp, #15]
	b	.LBB20_7
.LBB20_7:
	.loc	21 28 1                         @ D:\Embed\MDK\MDK\ARM\ARMCompilerV621\Bin\..\include\libcxx\__algorithm/all_of.h:28:1
	ldrb.w	r0, [sp, #15]
	.loc	21 28 1 epilogue_begin is_stmt 0 @ D:\Embed\MDK\MDK\ARM\ARMCompilerV621\Bin\..\include\libcxx\__algorithm/all_of.h:28:1
	add	sp, #16
	pop	{r7, pc}
.Ltmp75:
.Lfunc_end20:
	.size	_ZNSt3__26all_ofB7v180000IPbZ3allIJEJEEbNS_5tupleIJDpT_EEENS_16integer_sequenceIjJXspT0_EEEEEUlbE_EEbT_SA_T0_, .Lfunc_end20-_ZNSt3__26all_ofB7v180000IPbZ3allIJEJEEbNS_5tupleIJDpT_EEENS_16integer_sequenceIjJXspT0_EEEEEUlbE_EEbT_SA_T0_
	.cfi_endproc
	.cantunwind
	.fnend
                                        @ -- End function
	.section	.text._ZNSt3__25arrayIbLj0EE5beginB7v180000Ev,"axG",%progbits,_ZNSt3__25arrayIbLj0EE5beginB7v180000Ev,comdat
	.hidden	_ZNSt3__25arrayIbLj0EE5beginB7v180000Ev @ -- Begin function _ZNSt3__25arrayIbLj0EE5beginB7v180000Ev
	.weak	_ZNSt3__25arrayIbLj0EE5beginB7v180000Ev
	.p2align	2
	.type	_ZNSt3__25arrayIbLj0EE5beginB7v180000Ev,%function
	.code	16                              @ @_ZNSt3__25arrayIbLj0EE5beginB7v180000Ev
	.thumb_func
_ZNSt3__25arrayIbLj0EE5beginB7v180000Ev:
.Lfunc_begin21:
	.loc	15 308 0 is_stmt 1              @ D:\Embed\MDK\MDK\ARM\ARMCompilerV621\Bin\..\include\libcxx\array:308:0
	.fnstart
	.cfi_startproc
@ %bb.0:
	.save	{r7, lr}
	push	{r7, lr}
	.cfi_def_cfa_offset 8
	.cfi_offset lr, -4
	.cfi_offset r7, -8
	.pad	#8
	sub	sp, #8
	.cfi_def_cfa_offset 16
	str	r0, [sp, #4]
	ldr	r0, [sp, #4]
.Ltmp76:
	.loc	15 308 49 prologue_end          @ D:\Embed\MDK\MDK\ARM\ARMCompilerV621\Bin\..\include\libcxx\array:308:49
	bl	_ZNSt3__25arrayIbLj0EE4dataB7v180000Ev
	.loc	15 308 33 epilogue_begin is_stmt 0 @ D:\Embed\MDK\MDK\ARM\ARMCompilerV621\Bin\..\include\libcxx\array:308:33
	add	sp, #8
	pop	{r7, pc}
.Ltmp77:
.Lfunc_end21:
	.size	_ZNSt3__25arrayIbLj0EE5beginB7v180000Ev, .Lfunc_end21-_ZNSt3__25arrayIbLj0EE5beginB7v180000Ev
	.cfi_endproc
	.cantunwind
	.fnend
                                        @ -- End function
	.section	.text._ZNSt3__25arrayIbLj0EE3endB7v180000Ev,"axG",%progbits,_ZNSt3__25arrayIbLj0EE3endB7v180000Ev,comdat
	.hidden	_ZNSt3__25arrayIbLj0EE3endB7v180000Ev @ -- Begin function _ZNSt3__25arrayIbLj0EE3endB7v180000Ev
	.weak	_ZNSt3__25arrayIbLj0EE3endB7v180000Ev
	.p2align	2
	.type	_ZNSt3__25arrayIbLj0EE3endB7v180000Ev,%function
	.code	16                              @ @_ZNSt3__25arrayIbLj0EE3endB7v180000Ev
	.thumb_func
_ZNSt3__25arrayIbLj0EE3endB7v180000Ev:
.Lfunc_begin22:
	.loc	15 312 0 is_stmt 1              @ D:\Embed\MDK\MDK\ARM\ARMCompilerV621\Bin\..\include\libcxx\array:312:0
	.fnstart
	.cfi_startproc
@ %bb.0:
	.save	{r7, lr}
	push	{r7, lr}
	.cfi_def_cfa_offset 8
	.cfi_offset lr, -4
	.cfi_offset r7, -8
	.pad	#8
	sub	sp, #8
	.cfi_def_cfa_offset 16
	str	r0, [sp, #4]
	ldr	r0, [sp, #4]
.Ltmp78:
	.loc	15 312 47 prologue_end          @ D:\Embed\MDK\MDK\ARM\ARMCompilerV621\Bin\..\include\libcxx\array:312:47
	bl	_ZNSt3__25arrayIbLj0EE4dataB7v180000Ev
	.loc	15 312 31 epilogue_begin is_stmt 0 @ D:\Embed\MDK\MDK\ARM\ARMCompilerV621\Bin\..\include\libcxx\array:312:31
	add	sp, #8
	pop	{r7, pc}
.Ltmp79:
.Lfunc_end22:
	.size	_ZNSt3__25arrayIbLj0EE3endB7v180000Ev, .Lfunc_end22-_ZNSt3__25arrayIbLj0EE3endB7v180000Ev
	.cfi_endproc
	.cantunwind
	.fnend
                                        @ -- End function
	.section	.text._ZZ3allIJEJEEbNSt3__25tupleIJDpT_EEENS0_16integer_sequenceIjJXspT0_EEEEENKUlbE_clEb,"axG",%progbits,_ZZ3allIJEJEEbNSt3__25tupleIJDpT_EEENS0_16integer_sequenceIjJXspT0_EEEEENKUlbE_clEb,comdat
	.hidden	_ZZ3allIJEJEEbNSt3__25tupleIJDpT_EEENS0_16integer_sequenceIjJXspT0_EEEEENKUlbE_clEb @ -- Begin function _ZZ3allIJEJEEbNSt3__25tupleIJDpT_EEENS0_16integer_sequenceIjJXspT0_EEEEENKUlbE_clEb
	.weak	_ZZ3allIJEJEEbNSt3__25tupleIJDpT_EEENS0_16integer_sequenceIjJXspT0_EEEEENKUlbE_clEb
	.p2align	2
	.type	_ZZ3allIJEJEEbNSt3__25tupleIJDpT_EEENS0_16integer_sequenceIjJXspT0_EEEEENKUlbE_clEb,%function
	.code	16                              @ @_ZZ3allIJEJEEbNSt3__25tupleIJDpT_EEENS0_16integer_sequenceIjJXspT0_EEEEENKUlbE_clEb
	.thumb_func
_ZZ3allIJEJEEbNSt3__25tupleIJDpT_EEENS0_16integer_sequenceIjJXspT0_EEEEENKUlbE_clEb:
.Lfunc_begin23:
	.loc	1 109 0 is_stmt 1               @ ../fibre-cpp/fibre.cpp:109:0
	.fnstart
	.cfi_startproc
@ %bb.0:
	.pad	#8
	sub	sp, #8
	.cfi_def_cfa_offset 8
                                        @ kill: def $r2 killed $r1
	str	r0, [sp, #4]
	strb.w	r1, [sp, #3]
.Ltmp80:
	.loc	1 109 63 prologue_end           @ ../fibre-cpp/fibre.cpp:109:63
	ldrb.w	r0, [sp, #3]
	and	r0, r0, #1
	.loc	1 109 63 epilogue_begin is_stmt 0 @ ../fibre-cpp/fibre.cpp:109:63
	add	sp, #8
	bx	lr
.Ltmp81:
.Lfunc_end23:
	.size	_ZZ3allIJEJEEbNSt3__25tupleIJDpT_EEENS0_16integer_sequenceIjJXspT0_EEEEENKUlbE_clEb, .Lfunc_end23-_ZZ3allIJEJEEbNSt3__25tupleIJDpT_EEENS0_16integer_sequenceIjJXspT0_EEEEENKUlbE_clEb
	.cfi_endproc
	.cantunwind
	.fnend
                                        @ -- End function
	.section	.text._ZNSt3__25arrayIbLj0EE4dataB7v180000Ev,"axG",%progbits,_ZNSt3__25arrayIbLj0EE4dataB7v180000Ev,comdat
	.hidden	_ZNSt3__25arrayIbLj0EE4dataB7v180000Ev @ -- Begin function _ZNSt3__25arrayIbLj0EE4dataB7v180000Ev
	.weak	_ZNSt3__25arrayIbLj0EE4dataB7v180000Ev
	.p2align	2
	.type	_ZNSt3__25arrayIbLj0EE4dataB7v180000Ev,%function
	.code	16                              @ @_ZNSt3__25arrayIbLj0EE4dataB7v180000Ev
	.thumb_func
_ZNSt3__25arrayIbLj0EE4dataB7v180000Ev:
.Lfunc_begin24:
	.loc	15 289 0 is_stmt 1              @ D:\Embed\MDK\MDK\ARM\ARMCompilerV621\Bin\..\include\libcxx\array:289:0
	.fnstart
	.cfi_startproc
@ %bb.0:
	.pad	#4
	sub	sp, #4
	.cfi_def_cfa_offset 4
	str	r0, [sp]
	movs	r0, #0
.Ltmp82:
	.loc	15 289 35 prologue_end epilogue_begin @ D:\Embed\MDK\MDK\ARM\ARMCompilerV621\Bin\..\include\libcxx\array:289:35
	add	sp, #4
	bx	lr
.Ltmp83:
.Lfunc_end24:
	.size	_ZNSt3__25arrayIbLj0EE4dataB7v180000Ev, .Lfunc_end24-_ZNSt3__25arrayIbLj0EE4dataB7v180000Ev
	.cfi_endproc
	.cantunwind
	.fnend
                                        @ -- End function
	.section	.text._Z22for_each_in_tuple_implI20BackendDeinitializerRNSt3__25tupleIJEEEJEEN29for_each_in_tuple_result_implIT_T0_18__make_integer_seqINS1_16integer_sequenceEjXsr3std10tuple_sizeIu7__decayIS7_EEE5valueEEE4typeEOS6_OS7_NS9_IjJXspT1_EEEE,"axG",%progbits,_Z22for_each_in_tuple_implI20BackendDeinitializerRNSt3__25tupleIJEEEJEEN29for_each_in_tuple_result_implIT_T0_18__make_integer_seqINS1_16integer_sequenceEjXsr3std10tuple_sizeIu7__decayIS7_EEE5valueEEE4typeEOS6_OS7_NS9_IjJXspT1_EEEE,comdat
	.hidden	_Z22for_each_in_tuple_implI20BackendDeinitializerRNSt3__25tupleIJEEEJEEN29for_each_in_tuple_result_implIT_T0_18__make_integer_seqINS1_16integer_sequenceEjXsr3std10tuple_sizeIu7__decayIS7_EEE5valueEEE4typeEOS6_OS7_NS9_IjJXspT1_EEEE @ -- Begin function _Z22for_each_in_tuple_implI20BackendDeinitializerRNSt3__25tupleIJEEEJEEN29for_each_in_tuple_result_implIT_T0_18__make_integer_seqINS1_16integer_sequenceEjXsr3std10tuple_sizeIu7__decayIS7_EEE5valueEEE4typeEOS6_OS7_NS9_IjJXspT1_EEEE
	.weak	_Z22for_each_in_tuple_implI20BackendDeinitializerRNSt3__25tupleIJEEEJEEN29for_each_in_tuple_result_implIT_T0_18__make_integer_seqINS1_16integer_sequenceEjXsr3std10tuple_sizeIu7__decayIS7_EEE5valueEEE4typeEOS6_OS7_NS9_IjJXspT1_EEEE
	.p2align	2
	.type	_Z22for_each_in_tuple_implI20BackendDeinitializerRNSt3__25tupleIJEEEJEEN29for_each_in_tuple_result_implIT_T0_18__make_integer_seqINS1_16integer_sequenceEjXsr3std10tuple_sizeIu7__decayIS7_EEE5valueEEE4typeEOS6_OS7_NS9_IjJXspT1_EEEE,%function
	.code	16                              @ @_Z22for_each_in_tuple_implI20BackendDeinitializerRNSt3__25tupleIJEEEJEEN29for_each_in_tuple_result_implIT_T0_18__make_integer_seqINS1_16integer_sequenceEjXsr3std10tuple_sizeIu7__decayIS7_EEE5valueEEE4typeEOS6_OS7_NS9_IjJXspT1_EEEE
	.thumb_func
_Z22for_each_in_tuple_implI20BackendDeinitializerRNSt3__25tupleIJEEEJEEN29for_each_in_tuple_result_implIT_T0_18__make_integer_seqINS1_16integer_sequenceEjXsr3std10tuple_sizeIu7__decayIS7_EEE5valueEEE4typeEOS6_OS7_NS9_IjJXspT1_EEEE:
.Lfunc_begin25:
	.loc	18 765 0                        @ ../fibre-cpp/include\fibre/cpp_utils.hpp:765:0
	.fnstart
	.cfi_startproc
@ %bb.0:
	.pad	#12
	sub	sp, #12
	.cfi_def_cfa_offset 12
	str	r0, [sp, #4]
	str	r1, [sp]
.Ltmp84:
	.loc	18 766 5 prologue_end epilogue_begin @ ../fibre-cpp/include\fibre/cpp_utils.hpp:766:5
	add	sp, #12
	bx	lr
.Ltmp85:
.Lfunc_end25:
	.size	_Z22for_each_in_tuple_implI20BackendDeinitializerRNSt3__25tupleIJEEEJEEN29for_each_in_tuple_result_implIT_T0_18__make_integer_seqINS1_16integer_sequenceEjXsr3std10tuple_sizeIu7__decayIS7_EEE5valueEEE4typeEOS6_OS7_NS9_IjJXspT1_EEEE, .Lfunc_end25-_Z22for_each_in_tuple_implI20BackendDeinitializerRNSt3__25tupleIJEEEJEEN29for_each_in_tuple_result_implIT_T0_18__make_integer_seqINS1_16integer_sequenceEjXsr3std10tuple_sizeIu7__decayIS7_EEE5valueEEE4typeEOS6_OS7_NS9_IjJXspT1_EEEE
	.cfi_endproc
	.cantunwind
	.fnend
                                        @ -- End function
	.section	.text._ZN5fibre14MemberCallbackIMNS_6DomainEFvPNS_25LegacyProtocolPacketBasedENS_12StreamStatusEEXadL_ZNS1_10on_stoppedES3_S4_EES1_vNSt3__25tupleIJS3_S4_EEEE4withEPS1_,"axG",%progbits,_ZN5fibre14MemberCallbackIMNS_6DomainEFvPNS_25LegacyProtocolPacketBasedENS_12StreamStatusEEXadL_ZNS1_10on_stoppedES3_S4_EES1_vNSt3__25tupleIJS3_S4_EEEE4withEPS1_,comdat
	.hidden	_ZN5fibre14MemberCallbackIMNS_6DomainEFvPNS_25LegacyProtocolPacketBasedENS_12StreamStatusEEXadL_ZNS1_10on_stoppedES3_S4_EES1_vNSt3__25tupleIJS3_S4_EEEE4withEPS1_ @ -- Begin function _ZN5fibre14MemberCallbackIMNS_6DomainEFvPNS_25LegacyProtocolPacketBasedENS_12StreamStatusEEXadL_ZNS1_10on_stoppedES3_S4_EES1_vNSt3__25tupleIJS3_S4_EEEE4withEPS1_
	.weak	_ZN5fibre14MemberCallbackIMNS_6DomainEFvPNS_25LegacyProtocolPacketBasedENS_12StreamStatusEEXadL_ZNS1_10on_stoppedES3_S4_EES1_vNSt3__25tupleIJS3_S4_EEEE4withEPS1_
	.p2align	2
	.type	_ZN5fibre14MemberCallbackIMNS_6DomainEFvPNS_25LegacyProtocolPacketBasedENS_12StreamStatusEEXadL_ZNS1_10on_stoppedES3_S4_EES1_vNSt3__25tupleIJS3_S4_EEEE4withEPS1_,%function
	.code	16                              @ @_ZN5fibre14MemberCallbackIMNS_6DomainEFvPNS_25LegacyProtocolPacketBasedENS_12StreamStatusEEXadL_ZNS1_10on_stoppedES3_S4_EES1_vNSt3__25tupleIJS3_S4_EEEE4withEPS1_
	.thumb_func
_ZN5fibre14MemberCallbackIMNS_6DomainEFvPNS_25LegacyProtocolPacketBasedENS_12StreamStatusEEXadL_ZNS1_10on_stoppedES3_S4_EES1_vNSt3__25tupleIJS3_S4_EEEE4withEPS1_:
.Lfunc_begin26:
	.loc	10 104 0                        @ ../fibre-cpp/include\fibre/callback.hpp:104:0
	.fnstart
	.cfi_startproc
@ %bb.0:
	.save	{r7, lr}
	push	{r7, lr}
	.cfi_def_cfa_offset 8
	.cfi_offset lr, -4
	.cfi_offset r7, -8
	.pad	#16
	sub	sp, #16
	.cfi_def_cfa_offset 24
	str	r0, [sp]                        @ 4-byte Spill
	str	r0, [sp, #12]
	str	r1, [sp, #8]
	add.w	r0, sp, #7
.Ltmp86:
	.loc	10 105 21 prologue_end          @ ../fibre-cpp/include\fibre/callback.hpp:105:21
	bl	_ZZN5fibre14MemberCallbackIMNS_6DomainEFvPNS_25LegacyProtocolPacketBasedENS_12StreamStatusEEXadL_ZNS1_10on_stoppedES3_S4_EES1_vNSt3__25tupleIJS3_S4_EEEE4withEPS1_ENKUlPvS3_S4_E_cvPFvSC_S3_S4_EEv
	mov	r1, r0
	.loc	10 107 12                       @ ../fibre-cpp/include\fibre/callback.hpp:107:12
	ldr	r0, [sp]                        @ 4-byte Reload
	ldr	r2, [sp, #8]
	.loc	10 105 16                       @ ../fibre-cpp/include\fibre/callback.hpp:105:16
	bl	_ZN5fibre8CallbackIvJPNS_25LegacyProtocolPacketBasedENS_12StreamStatusEEEC2EPFvPvS2_S3_ES5_
	.loc	10 105 9 epilogue_begin is_stmt 0 @ ../fibre-cpp/include\fibre/callback.hpp:105:9
	add	sp, #16
	pop	{r7, pc}
.Ltmp87:
.Lfunc_end26:
	.size	_ZN5fibre14MemberCallbackIMNS_6DomainEFvPNS_25LegacyProtocolPacketBasedENS_12StreamStatusEEXadL_ZNS1_10on_stoppedES3_S4_EES1_vNSt3__25tupleIJS3_S4_EEEE4withEPS1_, .Lfunc_end26-_ZN5fibre14MemberCallbackIMNS_6DomainEFvPNS_25LegacyProtocolPacketBasedENS_12StreamStatusEEXadL_ZNS1_10on_stoppedES3_S4_EES1_vNSt3__25tupleIJS3_S4_EEEE4withEPS1_
	.cfi_endproc
	.cantunwind
	.fnend
                                        @ -- End function
	.section	.text._ZZN5fibre14MemberCallbackIMNS_6DomainEFvPNS_25LegacyProtocolPacketBasedENS_12StreamStatusEEXadL_ZNS1_10on_stoppedES3_S4_EES1_vNSt3__25tupleIJS3_S4_EEEE4withEPS1_ENKUlPvS3_S4_E_cvPFvSC_S3_S4_EEv,"axG",%progbits,_ZZN5fibre14MemberCallbackIMNS_6DomainEFvPNS_25LegacyProtocolPacketBasedENS_12StreamStatusEEXadL_ZNS1_10on_stoppedES3_S4_EES1_vNSt3__25tupleIJS3_S4_EEEE4withEPS1_ENKUlPvS3_S4_E_cvPFvSC_S3_S4_EEv,comdat
	.hidden	_ZZN5fibre14MemberCallbackIMNS_6DomainEFvPNS_25LegacyProtocolPacketBasedENS_12StreamStatusEEXadL_ZNS1_10on_stoppedES3_S4_EES1_vNSt3__25tupleIJS3_S4_EEEE4withEPS1_ENKUlPvS3_S4_E_cvPFvSC_S3_S4_EEv @ -- Begin function _ZZN5fibre14MemberCallbackIMNS_6DomainEFvPNS_25LegacyProtocolPacketBasedENS_12StreamStatusEEXadL_ZNS1_10on_stoppedES3_S4_EES1_vNSt3__25tupleIJS3_S4_EEEE4withEPS1_ENKUlPvS3_S4_E_cvPFvSC_S3_S4_EEv
	.weak	_ZZN5fibre14MemberCallbackIMNS_6DomainEFvPNS_25LegacyProtocolPacketBasedENS_12StreamStatusEEXadL_ZNS1_10on_stoppedES3_S4_EES1_vNSt3__25tupleIJS3_S4_EEEE4withEPS1_ENKUlPvS3_S4_E_cvPFvSC_S3_S4_EEv
	.p2align	2
	.type	_ZZN5fibre14MemberCallbackIMNS_6DomainEFvPNS_25LegacyProtocolPacketBasedENS_12StreamStatusEEXadL_ZNS1_10on_stoppedES3_S4_EES1_vNSt3__25tupleIJS3_S4_EEEE4withEPS1_ENKUlPvS3_S4_E_cvPFvSC_S3_S4_EEv,%function
	.code	16                              @ @_ZZN5fibre14MemberCallbackIMNS_6DomainEFvPNS_25LegacyProtocolPacketBasedENS_12StreamStatusEEXadL_ZNS1_10on_stoppedES3_S4_EES1_vNSt3__25tupleIJS3_S4_EEEE4withEPS1_ENKUlPvS3_S4_E_cvPFvSC_S3_S4_EEv
	.thumb_func
_ZZN5fibre14MemberCallbackIMNS_6DomainEFvPNS_25LegacyProtocolPacketBasedENS_12StreamStatusEEXadL_ZNS1_10on_stoppedES3_S4_EES1_vNSt3__25tupleIJS3_S4_EEEE4withEPS1_ENKUlPvS3_S4_E_cvPFvSC_S3_S4_EEv:
.Lfunc_begin27:
	.loc	10 105 0 is_stmt 1              @ ../fibre-cpp/include\fibre/callback.hpp:105:0
	.fnstart
	.cfi_startproc
@ %bb.0:
	.pad	#4
	sub	sp, #4
	.cfi_def_cfa_offset 4
	str	r0, [sp]
.Ltmp88:
	.loc	10 105 21 prologue_end          @ ../fibre-cpp/include\fibre/callback.hpp:105:21
	movw	r0, :lower16:_ZZN5fibre14MemberCallbackIMNS_6DomainEFvPNS_25LegacyProtocolPacketBasedENS_12StreamStatusEEXadL_ZNS1_10on_stoppedES3_S4_EES1_vNSt3__25tupleIJS3_S4_EEEE4withEPS1_ENUlPvS3_S4_E_8__invokeESC_S3_S4_
	movt	r0, :upper16:_ZZN5fibre14MemberCallbackIMNS_6DomainEFvPNS_25LegacyProtocolPacketBasedENS_12StreamStatusEEXadL_ZNS1_10on_stoppedES3_S4_EES1_vNSt3__25tupleIJS3_S4_EEEE4withEPS1_ENUlPvS3_S4_E_8__invokeESC_S3_S4_
	.loc	10 105 21 epilogue_begin is_stmt 0 @ ../fibre-cpp/include\fibre/callback.hpp:105:21
	add	sp, #4
	bx	lr
.Ltmp89:
.Lfunc_end27:
	.size	_ZZN5fibre14MemberCallbackIMNS_6DomainEFvPNS_25LegacyProtocolPacketBasedENS_12StreamStatusEEXadL_ZNS1_10on_stoppedES3_S4_EES1_vNSt3__25tupleIJS3_S4_EEEE4withEPS1_ENKUlPvS3_S4_E_cvPFvSC_S3_S4_EEv, .Lfunc_end27-_ZZN5fibre14MemberCallbackIMNS_6DomainEFvPNS_25LegacyProtocolPacketBasedENS_12StreamStatusEEXadL_ZNS1_10on_stoppedES3_S4_EES1_vNSt3__25tupleIJS3_S4_EEEE4withEPS1_ENKUlPvS3_S4_E_cvPFvSC_S3_S4_EEv
	.cfi_endproc
	.cantunwind
	.fnend
                                        @ -- End function
	.section	.text._ZN5fibre8CallbackIvJPNS_25LegacyProtocolPacketBasedENS_12StreamStatusEEEC2EPFvPvS2_S3_ES5_,"axG",%progbits,_ZN5fibre8CallbackIvJPNS_25LegacyProtocolPacketBasedENS_12StreamStatusEEEC2EPFvPvS2_S3_ES5_,comdat
	.hidden	_ZN5fibre8CallbackIvJPNS_25LegacyProtocolPacketBasedENS_12StreamStatusEEEC2EPFvPvS2_S3_ES5_ @ -- Begin function _ZN5fibre8CallbackIvJPNS_25LegacyProtocolPacketBasedENS_12StreamStatusEEEC2EPFvPvS2_S3_ES5_
	.weak	_ZN5fibre8CallbackIvJPNS_25LegacyProtocolPacketBasedENS_12StreamStatusEEEC2EPFvPvS2_S3_ES5_
	.p2align	2
	.type	_ZN5fibre8CallbackIvJPNS_25LegacyProtocolPacketBasedENS_12StreamStatusEEEC2EPFvPvS2_S3_ES5_,%function
	.code	16                              @ @_ZN5fibre8CallbackIvJPNS_25LegacyProtocolPacketBasedENS_12StreamStatusEEEC2EPFvPvS2_S3_ES5_
	.thumb_func
_ZN5fibre8CallbackIvJPNS_25LegacyProtocolPacketBasedENS_12StreamStatusEEEC2EPFvPvS2_S3_ES5_:
.Lfunc_begin28:
	.loc	10 23 0 is_stmt 1               @ ../fibre-cpp/include\fibre/callback.hpp:23:0
	.fnstart
	.cfi_startproc
@ %bb.0:
	.pad	#12
	sub	sp, #12
	.cfi_def_cfa_offset 12
	str	r0, [sp, #8]
	str	r1, [sp, #4]
	str	r2, [sp]
	ldr	r0, [sp, #8]
.Ltmp90:
	.loc	10 23 13 prologue_end           @ ../fibre-cpp/include\fibre/callback.hpp:23:13
	ldr	r1, [sp, #4]
	.loc	10 23 9 is_stmt 0               @ ../fibre-cpp/include\fibre/callback.hpp:23:9
	str	r1, [r0]
	.loc	10 23 29                        @ ../fibre-cpp/include\fibre/callback.hpp:23:29
	ldr	r1, [sp]
	.loc	10 23 24                        @ ../fibre-cpp/include\fibre/callback.hpp:23:24
	str	r1, [r0, #4]
	.loc	10 23 35 epilogue_begin         @ ../fibre-cpp/include\fibre/callback.hpp:23:35
	add	sp, #12
	bx	lr
.Ltmp91:
.Lfunc_end28:
	.size	_ZN5fibre8CallbackIvJPNS_25LegacyProtocolPacketBasedENS_12StreamStatusEEEC2EPFvPvS2_S3_ES5_, .Lfunc_end28-_ZN5fibre8CallbackIvJPNS_25LegacyProtocolPacketBasedENS_12StreamStatusEEEC2EPFvPvS2_S3_ES5_
	.cfi_endproc
	.cantunwind
	.fnend
                                        @ -- End function
	.section	.text._ZZN5fibre14MemberCallbackIMNS_6DomainEFvPNS_25LegacyProtocolPacketBasedENS_12StreamStatusEEXadL_ZNS1_10on_stoppedES3_S4_EES1_vNSt3__25tupleIJS3_S4_EEEE4withEPS1_ENUlPvS3_S4_E_8__invokeESC_S3_S4_,"axG",%progbits,_ZZN5fibre14MemberCallbackIMNS_6DomainEFvPNS_25LegacyProtocolPacketBasedENS_12StreamStatusEEXadL_ZNS1_10on_stoppedES3_S4_EES1_vNSt3__25tupleIJS3_S4_EEEE4withEPS1_ENUlPvS3_S4_E_8__invokeESC_S3_S4_,comdat
	.hidden	_ZZN5fibre14MemberCallbackIMNS_6DomainEFvPNS_25LegacyProtocolPacketBasedENS_12StreamStatusEEXadL_ZNS1_10on_stoppedES3_S4_EES1_vNSt3__25tupleIJS3_S4_EEEE4withEPS1_ENUlPvS3_S4_E_8__invokeESC_S3_S4_ @ -- Begin function _ZZN5fibre14MemberCallbackIMNS_6DomainEFvPNS_25LegacyProtocolPacketBasedENS_12StreamStatusEEXadL_ZNS1_10on_stoppedES3_S4_EES1_vNSt3__25tupleIJS3_S4_EEEE4withEPS1_ENUlPvS3_S4_E_8__invokeESC_S3_S4_
	.weak	_ZZN5fibre14MemberCallbackIMNS_6DomainEFvPNS_25LegacyProtocolPacketBasedENS_12StreamStatusEEXadL_ZNS1_10on_stoppedES3_S4_EES1_vNSt3__25tupleIJS3_S4_EEEE4withEPS1_ENUlPvS3_S4_E_8__invokeESC_S3_S4_
	.p2align	2
	.type	_ZZN5fibre14MemberCallbackIMNS_6DomainEFvPNS_25LegacyProtocolPacketBasedENS_12StreamStatusEEXadL_ZNS1_10on_stoppedES3_S4_EES1_vNSt3__25tupleIJS3_S4_EEEE4withEPS1_ENUlPvS3_S4_E_8__invokeESC_S3_S4_,%function
	.code	16                              @ @_ZZN5fibre14MemberCallbackIMNS_6DomainEFvPNS_25LegacyProtocolPacketBasedENS_12StreamStatusEEXadL_ZNS1_10on_stoppedES3_S4_EES1_vNSt3__25tupleIJS3_S4_EEEE4withEPS1_ENUlPvS3_S4_E_8__invokeESC_S3_S4_
	.thumb_func
_ZZN5fibre14MemberCallbackIMNS_6DomainEFvPNS_25LegacyProtocolPacketBasedENS_12StreamStatusEEXadL_ZNS1_10on_stoppedES3_S4_EES1_vNSt3__25tupleIJS3_S4_EEEE4withEPS1_ENUlPvS3_S4_E_8__invokeESC_S3_S4_:
.Lfunc_begin29:
	.loc	10 105 0 is_stmt 1              @ ../fibre-cpp/include\fibre/callback.hpp:105:0
	.fnstart
	.cfi_startproc
@ %bb.0:
	.save	{r7, lr}
	push	{r7, lr}
	.cfi_def_cfa_offset 8
	.cfi_offset lr, -4
	.cfi_offset r7, -8
	.pad	#16
	sub	sp, #16
	.cfi_def_cfa_offset 24
                                        @ kill: def $r3 killed $r2
	str	r0, [sp, #12]
	str	r1, [sp, #8]
	strb.w	r2, [sp, #7]
.Ltmp92:
	.loc	10 105 21 prologue_end          @ ../fibre-cpp/include\fibre/callback.hpp:105:21
	ldr	r1, [sp, #12]
	ldr	r2, [sp, #8]
	ldrb.w	r3, [sp, #7]
	add.w	r0, sp, #6
	bl	_ZZN5fibre14MemberCallbackIMNS_6DomainEFvPNS_25LegacyProtocolPacketBasedENS_12StreamStatusEEXadL_ZNS1_10on_stoppedES3_S4_EES1_vNSt3__25tupleIJS3_S4_EEEE4withEPS1_ENKUlPvS3_S4_E_clESC_S3_S4_
	.loc	10 105 21 epilogue_begin is_stmt 0 @ ../fibre-cpp/include\fibre/callback.hpp:105:21
	add	sp, #16
	pop	{r7, pc}
.Ltmp93:
.Lfunc_end29:
	.size	_ZZN5fibre14MemberCallbackIMNS_6DomainEFvPNS_25LegacyProtocolPacketBasedENS_12StreamStatusEEXadL_ZNS1_10on_stoppedES3_S4_EES1_vNSt3__25tupleIJS3_S4_EEEE4withEPS1_ENUlPvS3_S4_E_8__invokeESC_S3_S4_, .Lfunc_end29-_ZZN5fibre14MemberCallbackIMNS_6DomainEFvPNS_25LegacyProtocolPacketBasedENS_12StreamStatusEEXadL_ZNS1_10on_stoppedES3_S4_EES1_vNSt3__25tupleIJS3_S4_EEEE4withEPS1_ENUlPvS3_S4_E_8__invokeESC_S3_S4_
	.cfi_endproc
	.cantunwind
	.fnend
                                        @ -- End function
	.section	.text._ZZN5fibre14MemberCallbackIMNS_6DomainEFvPNS_25LegacyProtocolPacketBasedENS_12StreamStatusEEXadL_ZNS1_10on_stoppedES3_S4_EES1_vNSt3__25tupleIJS3_S4_EEEE4withEPS1_ENKUlPvS3_S4_E_clESC_S3_S4_,"axG",%progbits,_ZZN5fibre14MemberCallbackIMNS_6DomainEFvPNS_25LegacyProtocolPacketBasedENS_12StreamStatusEEXadL_ZNS1_10on_stoppedES3_S4_EES1_vNSt3__25tupleIJS3_S4_EEEE4withEPS1_ENKUlPvS3_S4_E_clESC_S3_S4_,comdat
	.hidden	_ZZN5fibre14MemberCallbackIMNS_6DomainEFvPNS_25LegacyProtocolPacketBasedENS_12StreamStatusEEXadL_ZNS1_10on_stoppedES3_S4_EES1_vNSt3__25tupleIJS3_S4_EEEE4withEPS1_ENKUlPvS3_S4_E_clESC_S3_S4_ @ -- Begin function _ZZN5fibre14MemberCallbackIMNS_6DomainEFvPNS_25LegacyProtocolPacketBasedENS_12StreamStatusEEXadL_ZNS1_10on_stoppedES3_S4_EES1_vNSt3__25tupleIJS3_S4_EEEE4withEPS1_ENKUlPvS3_S4_E_clESC_S3_S4_
	.weak	_ZZN5fibre14MemberCallbackIMNS_6DomainEFvPNS_25LegacyProtocolPacketBasedENS_12StreamStatusEEXadL_ZNS1_10on_stoppedES3_S4_EES1_vNSt3__25tupleIJS3_S4_EEEE4withEPS1_ENKUlPvS3_S4_E_clESC_S3_S4_
	.p2align	2
	.type	_ZZN5fibre14MemberCallbackIMNS_6DomainEFvPNS_25LegacyProtocolPacketBasedENS_12StreamStatusEEXadL_ZNS1_10on_stoppedES3_S4_EES1_vNSt3__25tupleIJS3_S4_EEEE4withEPS1_ENKUlPvS3_S4_E_clESC_S3_S4_,%function
	.code	16                              @ @_ZZN5fibre14MemberCallbackIMNS_6DomainEFvPNS_25LegacyProtocolPacketBasedENS_12StreamStatusEEXadL_ZNS1_10on_stoppedES3_S4_EES1_vNSt3__25tupleIJS3_S4_EEEE4withEPS1_ENKUlPvS3_S4_E_clESC_S3_S4_
	.thumb_func
_ZZN5fibre14MemberCallbackIMNS_6DomainEFvPNS_25LegacyProtocolPacketBasedENS_12StreamStatusEEXadL_ZNS1_10on_stoppedES3_S4_EES1_vNSt3__25tupleIJS3_S4_EEEE4withEPS1_ENKUlPvS3_S4_E_clESC_S3_S4_:
.Lfunc_begin30:
	.loc	10 105 0 is_stmt 1              @ ../fibre-cpp/include\fibre/callback.hpp:105:0
	.fnstart
	.cfi_startproc
@ %bb.0:
	.save	{r7, lr}
	push	{r7, lr}
	.cfi_def_cfa_offset 8
	.cfi_offset lr, -4
	.cfi_offset r7, -8
	.pad	#24
	sub	sp, #24
	.cfi_def_cfa_offset 32
                                        @ kill: def $r12 killed $r3
	str	r0, [sp, #20]
	str	r1, [sp, #16]
	str	r2, [sp, #12]
	strb.w	r3, [sp, #11]
.Ltmp94:
	.loc	10 106 29 prologue_end          @ ../fibre-cpp/include\fibre/callback.hpp:106:29
	ldr	r0, [sp, #16]
	str	r0, [sp, #4]                    @ 4-byte Spill
	movs	r0, #1
	.loc	10 106 20 is_stmt 0             @ ../fibre-cpp/include\fibre/callback.hpp:106:20
	cbnz	r0, .LBB30_2
	b	.LBB30_1
.LBB30_1:
	ldr	r0, [sp, #4]                    @ 4-byte Reload
	ldr	r0, [r0]
	movw	r1, :lower16:_ZN5fibre6Domain10on_stoppedEPNS_25LegacyProtocolPacketBasedENS_12StreamStatusE
	movt	r1, :upper16:_ZN5fibre6Domain10on_stoppedEPNS_25LegacyProtocolPacketBasedENS_12StreamStatusE
	ldr	r0, [r0, r1]
	str	r0, [sp]                        @ 4-byte Spill
	b	.LBB30_3
.LBB30_2:
	.loc	10 0 20                         @ ../fibre-cpp/include\fibre/callback.hpp:0:20
	movw	r0, :lower16:_ZN5fibre6Domain10on_stoppedEPNS_25LegacyProtocolPacketBasedENS_12StreamStatusE
	movt	r0, :upper16:_ZN5fibre6Domain10on_stoppedEPNS_25LegacyProtocolPacketBasedENS_12StreamStatusE
	.loc	10 106 20                       @ ../fibre-cpp/include\fibre/callback.hpp:106:20
	str	r0, [sp]                        @ 4-byte Spill
	b	.LBB30_3
.LBB30_3:
	ldr	r0, [sp, #4]                    @ 4-byte Reload
	ldr	r3, [sp]                        @ 4-byte Reload
	.loc	10 106 42                       @ ../fibre-cpp/include\fibre/callback.hpp:106:42
	ldr	r1, [sp, #12]
	ldrb.w	r2, [sp, #11]
	.loc	10 106 20                       @ ../fibre-cpp/include\fibre/callback.hpp:106:20
	blx	r3
	.loc	10 106 13 epilogue_begin        @ ../fibre-cpp/include\fibre/callback.hpp:106:13
	add	sp, #24
	pop	{r7, pc}
.Ltmp95:
.Lfunc_end30:
	.size	_ZZN5fibre14MemberCallbackIMNS_6DomainEFvPNS_25LegacyProtocolPacketBasedENS_12StreamStatusEEXadL_ZNS1_10on_stoppedES3_S4_EES1_vNSt3__25tupleIJS3_S4_EEEE4withEPS1_ENKUlPvS3_S4_E_clESC_S3_S4_, .Lfunc_end30-_ZZN5fibre14MemberCallbackIMNS_6DomainEFvPNS_25LegacyProtocolPacketBasedENS_12StreamStatusEEXadL_ZNS1_10on_stoppedES3_S4_EES1_vNSt3__25tupleIJS3_S4_EEEE4withEPS1_ENKUlPvS3_S4_E_clESC_S3_S4_
	.cfi_endproc
	.cantunwind
	.fnend
                                        @ -- End function
	.type	.L.str,%object                  @ @.str
	.section	.rodata.str1.1,"aMS",%progbits,1
.L.str:
	.asciz	"already opened"
	.size	.L.str, 15

	.type	.L.str.1,%object                @ @.str.1
.L.str.1:
	.asciz	"some backends failed to initialize"
	.size	.L.str.1, 35

	.type	.L.str.2,%object                @ @.str.2
.L.str.2:
	.asciz	" domains are still open"
	.size	.L.str.2, 24

	.type	.L.str.3,%object                @ @.str.3
.L.str.3:
	.asciz	"found channels!"
	.size	.L.str.3, 16

	.type	.L.str.4,%object                @ @.str.4
.L.str.4:
	.asciz	"discoverer stopped"
	.size	.L.str.4, 19

	.type	.L.str.5,%object                @ @.str.5
.L.str.5:
	.asciz	"unidirectional operation not supported yet"
	.size	.L.str.5, 43

	.hidden	_ZN11TheInstanceIN5fibre7ContextEE6in_useE @ @_ZN11TheInstanceIN5fibre7ContextEE6in_useE
	.type	_ZN11TheInstanceIN5fibre7ContextEE6in_useE,%object
	.section	.bss._ZN11TheInstanceIN5fibre7ContextEE6in_useE,"aGw",%nobits,_ZN11TheInstanceIN5fibre7ContextEE6in_useE,comdat
	.weak	_ZN11TheInstanceIN5fibre7ContextEE6in_useE
_ZN11TheInstanceIN5fibre7ContextEE6in_useE:
	.byte	0                               @ 0x0
	.size	_ZN11TheInstanceIN5fibre7ContextEE6in_useE, 1

	.hidden	_ZN11TheInstanceIN5fibre7ContextEE8instanceE @ @_ZN11TheInstanceIN5fibre7ContextEE8instanceE
	.type	_ZN11TheInstanceIN5fibre7ContextEE8instanceE,%object
	.section	.bss._ZN11TheInstanceIN5fibre7ContextEE8instanceE,"aGw",%nobits,_ZN11TheInstanceIN5fibre7ContextEE8instanceE,comdat
	.weak	_ZN11TheInstanceIN5fibre7ContextEE8instanceE
	.p2align	2, 0x0
_ZN11TheInstanceIN5fibre7ContextEE8instanceE:
	.zero	12
	.size	_ZN11TheInstanceIN5fibre7ContextEE8instanceE, 12

	.type	.L.str.7,%object                @ @.str.7
	.section	.rodata.str1.1,"aMS",%progbits,1
.L.str.7:
	.asciz	"bad instance"
	.size	.L.str.7, 13

	.file	22 "D:\\Embed\\MDK\\MDK\\ARM\\ARMCompilerV621\\Bin\\..\\include" "stdlib.h"
	.file	23 "D:\\Embed\\MDK\\MDK\\ARM\\ARMCompilerV621\\Bin\\..\\include\\libcxx" "cstddef"
	.file	24 "D:\\Embed\\MDK\\MDK\\ARM\\ARMCompilerV621\\Bin\\..\\include\\libcxx" "cstdint"
	.file	25 "D:\\Embed\\MDK\\MDK\\ARM\\ARMCompilerV621\\Bin\\..\\include\\libcxx" "cstdlib"
	.file	26 "D:\\Embed\\MDK\\MDK\\ARM\\ARMCompilerV621\\Bin\\..\\include\\libcxx" "stdlib.h"
	.file	27 "D:\\Embed\\MDK\\MDK\\ARM\\ARMCompilerV621\\Bin\\..\\include" "math.h"
	.file	28 "D:\\Embed\\MDK\\MDK\\ARM\\ARMCompilerV621\\Bin\\..\\include\\libcxx\\__math" "traits.h"
	.file	29 "D:\\Embed\\MDK\\MDK\\ARM\\ARMCompilerV621\\Bin\\..\\include\\libcxx" "math.h"
	.file	30 "D:\\Embed\\MDK\\MDK\\ARM\\ARMCompilerV621\\Bin\\..\\include\\libcxx\\__math" "modulo.h"
	.file	31 "D:\\Embed\\MDK\\MDK\\ARM\\ARMCompilerV621\\Bin\\..\\include\\libcxx" "cmath"
	.file	32 "D:\\Embed\\MDK\\MDK\\ARM\\ARMCompilerV621\\Bin\\..\\include" "wchar.h"
	.file	33 "D:\\Embed\\MDK\\MDK\\ARM\\ARMCompilerV621\\Bin\\..\\include" "time.h"
	.file	34 "D:\\ikingtec\\Robot\\ODrive\\Firmware\\MDK-ARM" "../fibre-cpp\\fibre.cpp"
	.file	35 "D:\\Embed\\MDK\\MDK\\ARM\\ARMCompilerV621\\Bin\\..\\include\\libcxx" "__std_mbstate_t.h"
	.file	36 "D:\\Embed\\MDK\\MDK\\ARM\\ARMCompilerV621\\Bin\\..\\include\\libcxx" "cstring"
	.file	37 "D:\\Embed\\MDK\\MDK\\ARM\\ARMCompilerV621\\Bin\\..\\include\\libcxx" "string.h"
	.file	38 "D:\\Embed\\MDK\\MDK\\ARM\\ARMCompilerV621\\Bin\\..\\include" "ctype.h"
	.file	39 "D:\\Embed\\MDK\\MDK\\ARM\\ARMCompilerV621\\Bin\\..\\include\\libcxx" "cctype"
	.file	40 "D:\\Embed\\MDK\\MDK\\ARM\\ARMCompilerV621\\Bin\\..\\include" "wctype.h"
	.file	41 "D:\\Embed\\MDK\\MDK\\ARM\\ARMCompilerV621\\Bin\\..\\include\\libcxx" "cwctype"
	.file	42 "D:\\Embed\\MDK\\MDK\\ARM\\ARMCompilerV621\\Bin\\..\\include\\libcxx" "cwchar"
	.file	43 "D:\\Embed\\MDK\\MDK\\ARM\\ARMCompilerV621\\Bin\\..\\include\\libcxx" "wchar.h"
	.file	44 "D:\\Embed\\MDK\\MDK\\ARM\\ARMCompilerV621\\Bin\\..\\include\\libcxx\\__chrono" "duration.h"
	.file	45 "D:\\Embed\\MDK\\MDK\\ARM\\ARMCompilerV621\\Bin\\..\\include\\libcxx" "ctime"
	.file	46 "D:\\Embed\\MDK\\MDK\\ARM\\ARMCompilerV621\\Bin\\..\\include" "errno.h"
	.file	47 "D:\\Embed\\MDK\\MDK\\ARM\\ARMCompilerV621\\Bin\\..\\include\\libcxx" "cstdio"
	.file	48 "D:\\Embed\\MDK\\MDK\\ARM\\ARMCompilerV621\\Bin\\..\\include" "locale.h"
	.file	49 "D:\\Embed\\MDK\\MDK\\ARM\\ARMCompilerV621\\Bin\\..\\include\\libcxx" "clocale"
	.file	50 "D:\\Embed\\MDK\\MDK\\ARM\\ARMCompilerV621\\Bin\\..\\include" "stdarg.h"
	.file	51 "D:\\Embed\\MDK\\MDK\\ARM\\ARMCompilerV621\\Bin\\..\\include\\libcxx" "cstdarg"
	.file	52 "<stdin>"