	.text
	.syntax unified
	.eabi_attribute	67, "2.09"	@ Tag_conformance
	.cpu	cortex-m4
	.eabi_attribute	6, 13	@ Tag_CPU_arch
	.eabi_attribute	7, 77	@ Tag_CPU_arch_profile
	.eabi_attribute	8, 0	@ Tag_ARM_ISA_use
	.eabi_attribute	9, 2	@ Tag_THUMB_ISA_use
	.fpu	fpv4-sp-d16
	.eabi_attribute	27, 1	@ Tag_ABI_HardFP_use
	.eabi_attribute	36, 1	@ Tag_FP_HP_extension
	.eabi_attribute	34, 1	@ Tag_CPU_unaligned_access
	.eabi_attribute	17, 1	@ Tag_ABI_PCS_GOT_use
	.eabi_attribute	20, 2	@ Tag_ABI_FP_denormal
	.eabi_attribute	21, 0	@ Tag_ABI_FP_exceptions
	.eabi_attribute	23, 1	@ Tag_ABI_FP_number_model
	.eabi_attribute	24, 1	@ Tag_ABI_align_needed
	.eabi_attribute	25, 1	@ Tag_ABI_align_preserved
	.eabi_attribute	28, 1	@ Tag_ABI_VFP_args
	.eabi_attribute	38, 1	@ Tag_ABI_FP_16bit_format
	.eabi_attribute	18, 2	@ Tag_ABI_PCS_wchar_t
	.eabi_attribute	26, 1	@ Tag_ABI_enum_size
	.eabi_attribute	14, 0	@ Tag_ABI_PCS_R9_use
	.file	"foc.cpp"
	.file	1 "D:\\ikingtec\\Robot\\ODrive\\Firmware\\MDK-ARM" "../../Firmware\\MotorControl/utils.hpp"
	.file	2 "D:\\ikingtec\\Robot\\ODrive\\Firmware\\MDK-ARM" "../Board/v3/Inc\\board.h"
	.file	3 "D:\\Embed\\MDK\\MDK\\ARM\\ARMCompilerV621\\Bin\\..\\include\\libcxx" "optional"
	.file	4 "D:\\Embed\\MDK\\MDK\\ARM\\ARMCompilerV621\\Bin\\..\\include\\libcxx\\__utility" "in_place.h"
	.file	5 "D:\\Embed\\MDK\\MDK\\ARM\\ARMCompilerV621\\Bin\\..\\include\\libcxx" "variant"
	.file	6 "D:\\Embed\\MDK\\MDK\\ARM\\ARMCompilerV621\\Bin\\..\\include" "time.h"
	.file	7 "D:\\ikingtec\\Robot\\ODrive\\Firmware\\MDK-ARM" "../../Firmware\\autogen/interfaces.hpp"
	.file	8 "D:\\Embed\\MDK\\MDK\\ARM\\ARMCompilerV621\\Bin\\..\\include" "stdint.h"
	.file	9 "D:\\Embed\\MDK\\MDK\\ARM\\ARMCompilerV621\\Bin\\..\\include\\libcxx\\__utility" "pair.h"
	.file	10 "D:\\Embed\\MDK\\MDK\\ARM\\ARMCompilerV621\\Bin\\..\\include\\libcxx\\__tuple" "sfinae_helpers.h"
	.file	11 "D:\\Embed\\MDK\\MDK\\ARM\\ARMCompilerV621\\Bin\\..\\include\\libcxx\\__type_traits" "add_pointer.h"
	.file	12 "D:\\Embed\\MDK\\MDK\\ARM\\ARMCompilerV621\\Bin\\..\\include\\libcxx" "array"
	.file	13 "D:\\Embed\\MDK\\MDK\\ARM\\ARMCompilerV621\\Bin\\..\\include" "string.h"
	.file	14 "D:\\ikingtec\\Robot\\ODrive\\Firmware\\MDK-ARM" "../../Firmware\\Drivers/STM32/stm32_system.h"
	.section	.text._ZN24AlphaBetaFrameController14on_measurementENSt3__28optionalIfEENS1_INS0_5arrayIfLj3EEEEEj,"ax",%progbits
	.hidden	_ZN24AlphaBetaFrameController14on_measurementENSt3__28optionalIfEENS1_INS0_5arrayIfLj3EEEEEj @ -- Begin function _ZN24AlphaBetaFrameController14on_measurementENSt3__28optionalIfEENS1_INS0_5arrayIfLj3EEEEEj
	.globl	_ZN24AlphaBetaFrameController14on_measurementENSt3__28optionalIfEENS1_INS0_5arrayIfLj3EEEEEj
	.p2align	2
	.type	_ZN24AlphaBetaFrameController14on_measurementENSt3__28optionalIfEENS1_INS0_5arrayIfLj3EEEEEj,%function
	.code	16                              @ @_ZN24AlphaBetaFrameController14on_measurementENSt3__28optionalIfEENS1_INS0_5arrayIfLj3EEEEEj
	.thumb_func
_ZN24AlphaBetaFrameController14on_measurementENSt3__28optionalIfEENS1_INS0_5arrayIfLj3EEEEEj:
.Lfunc_begin0:
	.file	15 "D:\\ikingtec\\Robot\\ODrive\\Firmware\\MDK-ARM" "../MotorControl/foc.cpp"
	.loc	15 8 0                          @ ../MotorControl/foc.cpp:8:0
	.fnstart
	.cfi_sections .debug_frame
	.cfi_startproc
@ %bb.0:
	.save	{r4, r5, r6, lr}
	push	{r4, r5, r6, lr}
	.cfi_def_cfa_offset 16
	.cfi_offset lr, -4
	.cfi_offset r6, -8
	.cfi_offset r5, -12
	.cfi_offset r4, -16
	.pad	#104
	sub	sp, #104
	.cfi_def_cfa_offset 120
	mov	r4, r2
	mov	lr, r1
	ldr.w	r12, [sp, #128]
	ldr	r2, [sp, #124]
	ldr	r1, [sp, #120]
                                        @ kill: def $r5 killed $r3
                                        @ kill: def $r5 killed $r4
                                        @ kill: def $r5 killed $lr
	ldr	r5, [sp, #132]
	str	r4, [sp, #100]
	str.w	lr, [sp, #96]
	str.w	r12, [sp, #92]
	str	r2, [sp, #88]
	str	r1, [sp, #84]
	str	r3, [sp, #80]
	str	r0, [sp, #76]
	ldr	r0, [sp, #76]
.Ltmp0:
	.loc	15 10 28 prologue_end           @ ../MotorControl/foc.cpp:10:28
	str	r0, [sp, #28]                   @ 4-byte Spill
	add	r0, sp, #64
	bl	_ZNSt3__28optionalINS_4pairIffEEEC2B7v180000Ev
	add	r0, sp, #80
.Ltmp1:
	.loc	15 12 18                        @ ../MotorControl/foc.cpp:12:18
	bl	_ZNKSt3__223__optional_storage_baseINS_5arrayIfLj3EEELb0EE9has_valueB7v180000Ev
.Ltmp2:
	.loc	15 12 9 is_stmt 0               @ ../MotorControl/foc.cpp:12:9
	cbz	r0, .LBB0_2
	b	.LBB0_1
.LBB0_1:
	.loc	15 0 9                          @ ../MotorControl/foc.cpp:0:9
	add	r0, sp, #80
.Ltmp3:
	.loc	15 15 14 is_stmt 1              @ ../MotorControl/foc.cpp:15:14
	str	r0, [sp, #12]                   @ 4-byte Spill
	bl	_ZNRSt3__28optionalINS_5arrayIfLj3EEEEdeB7v180000Ev
	movs	r1, #0
	.loc	15 15 13 is_stmt 0              @ ../MotorControl/foc.cpp:15:13
	bl	_ZNSt3__25arrayIfLj3EEixB7v180000Ej
	mov	r1, r0
	.loc	15 16 30 is_stmt 1              @ ../MotorControl/foc.cpp:16:30
	ldr	r0, [sp, #12]                   @ 4-byte Reload
	str	r1, [sp, #20]                   @ 4-byte Spill
	bl	_ZNRSt3__28optionalINS_5arrayIfLj3EEEEdeB7v180000Ev
	movs	r1, #1
	.loc	15 16 29 is_stmt 0              @ ../MotorControl/foc.cpp:16:29
	bl	_ZNSt3__25arrayIfLj3EEixB7v180000Ej
	mov	r1, r0
	ldr	r0, [sp, #12]                   @ 4-byte Reload
	vldr	s0, [r1]
	vstr	s0, [sp, #16]                   @ 4-byte Spill
	.loc	15 16 47                        @ ../MotorControl/foc.cpp:16:47
	bl	_ZNRSt3__28optionalINS_5arrayIfLj3EEEEdeB7v180000Ev
	movs	r1, #2
	.loc	15 16 46                        @ ../MotorControl/foc.cpp:16:46
	bl	_ZNSt3__25arrayIfLj3EEixB7v180000Ej
	vldr	s0, [sp, #16]                   @ 4-byte Reload
	ldr	r1, [sp, #20]                   @ 4-byte Reload
	vldr	s2, [r0]
	.loc	15 16 44                        @ ../MotorControl/foc.cpp:16:44
	vsub.f32	s0, s0, s2
	vldr	s2, .LCPI0_0
	.loc	15 16 26                        @ ../MotorControl/foc.cpp:16:26
	vmul.f32	s0, s0, s2
	.loc	15 16 13                        @ ../MotorControl/foc.cpp:16:13
	vstr	s0, [sp, #52]
	add	r0, sp, #56
	str	r0, [sp, #24]                   @ 4-byte Spill
	add	r2, sp, #52
	.loc	15 14 23 is_stmt 1              @ ../MotorControl/foc.cpp:14:23
	bl	_ZNSt3__24pairIffEC2B7v180000IRffLi0EEEOT_OT0_
	ldr	r1, [sp, #24]                   @ 4-byte Reload
	add	r0, sp, #64
	.loc	15 14 21 is_stmt 0              @ ../MotorControl/foc.cpp:14:21
	bl	_ZNSt3__28optionalINS_4pairIffEEEaSB7v180000IS2_vEERS3_OT_
	.loc	15 18 5 is_stmt 1               @ ../MotorControl/foc.cpp:18:5
	b	.LBB0_2
.Ltmp4:
.LBB0_2:
	.loc	15 20 27                        @ ../MotorControl/foc.cpp:20:27
	ldr	r0, [sp, #28]                   @ 4-byte Reload
	ldr	r1, [sp, #96]
	ldr	r2, [sp, #100]
	str	r2, [sp, #48]
	str	r1, [sp, #44]
	.loc	15 20 41 is_stmt 0              @ ../MotorControl/foc.cpp:20:41
	ldr	r1, [sp, #64]
	ldr	r2, [sp, #68]
	ldr	r3, [sp, #72]
	str	r3, [sp, #40]
	str	r2, [sp, #36]
	str	r1, [sp, #32]
	.loc	15 20 54                        @ ../MotorControl/foc.cpp:20:54
	ldr	r6, [sp, #132]
	.loc	15 20 12                        @ ../MotorControl/foc.cpp:20:12
	ldr	r1, [sp, #44]
	ldr	r2, [sp, #48]
	ldr	r3, [sp, #32]
	ldr.w	lr, [sp, #36]
	ldr	r5, [sp, #40]
	ldr.w	r12, [r0]
	ldr.w	r12, [r12, #12]
	mov	r4, sp
	str	r6, [r4, #8]
	str	r5, [r4, #4]
	str.w	lr, [r4]
	blx	r12
	.loc	15 20 5 epilogue_begin          @ ../MotorControl/foc.cpp:20:5
	add	sp, #104
	pop	{r4, r5, r6, pc}
.Ltmp5:
	.p2align	2
@ %bb.3:
	.loc	15 0 5                          @ ../MotorControl/foc.cpp:0:5
.LCPI0_0:
	.long	0x3f13cd3a                      @ float 0.577350259
.Lfunc_end0:
	.size	_ZN24AlphaBetaFrameController14on_measurementENSt3__28optionalIfEENS1_INS0_5arrayIfLj3EEEEEj, .Lfunc_end0-_ZN24AlphaBetaFrameController14on_measurementENSt3__28optionalIfEENS1_INS0_5arrayIfLj3EEEEEj
	.cfi_endproc
	.file	16 "D:\\ikingtec\\Robot\\ODrive\\Firmware\\MDK-ARM" "../MotorControl/phase_control_law.hpp"
	.cantunwind
	.fnend
                                        @ -- End function
	.section	.text._ZNSt3__28optionalINS_4pairIffEEEC2B7v180000Ev,"axG",%progbits,_ZNSt3__28optionalINS_4pairIffEEEC2B7v180000Ev,comdat
	.hidden	_ZNSt3__28optionalINS_4pairIffEEEC2B7v180000Ev @ -- Begin function _ZNSt3__28optionalINS_4pairIffEEEC2B7v180000Ev
	.weak	_ZNSt3__28optionalINS_4pairIffEEEC2B7v180000Ev
	.p2align	2
	.type	_ZNSt3__28optionalINS_4pairIffEEEC2B7v180000Ev,%function
	.code	16                              @ @_ZNSt3__28optionalINS_4pairIffEEEC2B7v180000Ev
	.thumb_func
_ZNSt3__28optionalINS_4pairIffEEEC2B7v180000Ev:
.Lfunc_begin1:
	.loc	3 800 0 is_stmt 1               @ D:\Embed\MDK\MDK\ARM\ARMCompilerV621\Bin\..\include\libcxx\optional:800:0
	.fnstart
	.cfi_startproc
@ %bb.0:
	.save	{r7, lr}
	push	{r7, lr}
	.cfi_def_cfa_offset 8
	.cfi_offset lr, -4
	.cfi_offset r7, -8
	.pad	#8
	sub	sp, #8
	.cfi_def_cfa_offset 16
	str	r0, [sp, #4]
	ldr	r0, [sp, #4]
.Ltmp6:
	.loc	3 800 41 prologue_end           @ D:\Embed\MDK\MDK\ARM\ARMCompilerV621\Bin\..\include\libcxx\optional:800:41
	str	r0, [sp]                        @ 4-byte Spill
	bl	_ZNSt3__227__optional_move_assign_baseINS_4pairIffEELb0EEC2B7v180000Ev
	ldr	r0, [sp]                        @ 4-byte Reload
	.loc	3 800 62 epilogue_begin is_stmt 0 @ D:\Embed\MDK\MDK\ARM\ARMCompilerV621\Bin\..\include\libcxx\optional:800:62
	add	sp, #8
	pop	{r7, pc}
.Ltmp7:
.Lfunc_end1:
	.size	_ZNSt3__28optionalINS_4pairIffEEEC2B7v180000Ev, .Lfunc_end1-_ZNSt3__28optionalINS_4pairIffEEEC2B7v180000Ev
	.cfi_endproc
	.cantunwind
	.fnend
                                        @ -- End function
	.section	.text._ZNKSt3__223__optional_storage_baseINS_5arrayIfLj3EEELb0EE9has_valueB7v180000Ev,"axG",%progbits,_ZNKSt3__223__optional_storage_baseINS_5arrayIfLj3EEELb0EE9has_valueB7v180000Ev,comdat
	.hidden	_ZNKSt3__223__optional_storage_baseINS_5arrayIfLj3EEELb0EE9has_valueB7v180000Ev @ -- Begin function _ZNKSt3__223__optional_storage_baseINS_5arrayIfLj3EEELb0EE9has_valueB7v180000Ev
	.weak	_ZNKSt3__223__optional_storage_baseINS_5arrayIfLj3EEELb0EE9has_valueB7v180000Ev
	.p2align	2
	.type	_ZNKSt3__223__optional_storage_baseINS_5arrayIfLj3EEELb0EE9has_valueB7v180000Ev,%function
	.code	16                              @ @_ZNKSt3__223__optional_storage_baseINS_5arrayIfLj3EEELb0EE9has_valueB7v180000Ev
	.thumb_func
_ZNKSt3__223__optional_storage_baseINS_5arrayIfLj3EEELb0EE9has_valueB7v180000Ev:
.Lfunc_begin2:
	.loc	3 386 0 is_stmt 1               @ D:\Embed\MDK\MDK\ARM\ARMCompilerV621\Bin\..\include\libcxx\optional:386:0
	.fnstart
	.cfi_startproc
@ %bb.0:
	.pad	#4
	sub	sp, #4
	.cfi_def_cfa_offset 4
	str	r0, [sp]
	ldr	r0, [sp]
.Ltmp8:
	.loc	3 387 9 prologue_end            @ D:\Embed\MDK\MDK\ARM\ARMCompilerV621\Bin\..\include\libcxx\optional:387:9
	ldrb	r0, [r0, #12]
	and	r0, r0, #1
	.loc	3 387 9 epilogue_begin is_stmt 0 @ D:\Embed\MDK\MDK\ARM\ARMCompilerV621\Bin\..\include\libcxx\optional:387:9
	add	sp, #4
	bx	lr
.Ltmp9:
.Lfunc_end2:
	.size	_ZNKSt3__223__optional_storage_baseINS_5arrayIfLj3EEELb0EE9has_valueB7v180000Ev, .Lfunc_end2-_ZNKSt3__223__optional_storage_baseINS_5arrayIfLj3EEELb0EE9has_valueB7v180000Ev
	.cfi_endproc
	.cantunwind
	.fnend
                                        @ -- End function
	.section	.text._ZNRSt3__28optionalINS_5arrayIfLj3EEEEdeB7v180000Ev,"axG",%progbits,_ZNRSt3__28optionalINS_5arrayIfLj3EEEEdeB7v180000Ev,comdat
	.hidden	_ZNRSt3__28optionalINS_5arrayIfLj3EEEEdeB7v180000Ev @ -- Begin function _ZNRSt3__28optionalINS_5arrayIfLj3EEEEdeB7v180000Ev
	.weak	_ZNRSt3__28optionalINS_5arrayIfLj3EEEEdeB7v180000Ev
	.p2align	2
	.type	_ZNRSt3__28optionalINS_5arrayIfLj3EEEEdeB7v180000Ev,%function
	.code	16                              @ @_ZNRSt3__28optionalINS_5arrayIfLj3EEEEdeB7v180000Ev
	.thumb_func
_ZNRSt3__28optionalINS_5arrayIfLj3EEEEdeB7v180000Ev:
.Lfunc_begin3:
	.loc	3 1026 0 is_stmt 1              @ D:\Embed\MDK\MDK\ARM\ARMCompilerV621\Bin\..\include\libcxx\optional:1026:0
	.fnstart
	.cfi_startproc
@ %bb.0:
	.save	{r7, lr}
	push	{r7, lr}
	.cfi_def_cfa_offset 8
	.cfi_offset lr, -4
	.cfi_offset r7, -8
	.pad	#8
	sub	sp, #8
	.cfi_def_cfa_offset 16
	str	r0, [sp, #4]
	ldr	r0, [sp, #4]
.Ltmp10:
	.loc	3 1028 22 prologue_end          @ D:\Embed\MDK\MDK\ARM\ARMCompilerV621\Bin\..\include\libcxx\optional:1028:22
	bl	_ZNRSt3__223__optional_storage_baseINS_5arrayIfLj3EEELb0EE5__getB7v180000Ev
	.loc	3 1028 9 epilogue_begin is_stmt 0 @ D:\Embed\MDK\MDK\ARM\ARMCompilerV621\Bin\..\include\libcxx\optional:1028:9
	add	sp, #8
	pop	{r7, pc}
.Ltmp11:
.Lfunc_end3:
	.size	_ZNRSt3__28optionalINS_5arrayIfLj3EEEEdeB7v180000Ev, .Lfunc_end3-_ZNRSt3__28optionalINS_5arrayIfLj3EEEEdeB7v180000Ev
	.cfi_endproc
	.cantunwind
	.fnend
                                        @ -- End function
	.section	.text._ZNSt3__25arrayIfLj3EEixB7v180000Ej,"axG",%progbits,_ZNSt3__25arrayIfLj3EEixB7v180000Ej,comdat
	.hidden	_ZNSt3__25arrayIfLj3EEixB7v180000Ej @ -- Begin function _ZNSt3__25arrayIfLj3EEixB7v180000Ej
	.weak	_ZNSt3__25arrayIfLj3EEixB7v180000Ej
	.p2align	2
	.type	_ZNSt3__25arrayIfLj3EEixB7v180000Ej,%function
	.code	16                              @ @_ZNSt3__25arrayIfLj3EEixB7v180000Ej
	.thumb_func
_ZNSt3__25arrayIfLj3EEixB7v180000Ej:
.Lfunc_begin4:
	.loc	12 231 0 is_stmt 1              @ D:\Embed\MDK\MDK\ARM\ARMCompilerV621\Bin\..\include\libcxx\array:231:0
	.fnstart
	.cfi_startproc
@ %bb.0:
	.pad	#8
	sub	sp, #8
	.cfi_def_cfa_offset 8
	str	r0, [sp, #4]
	str	r1, [sp]
	ldr	r0, [sp, #4]
.Ltmp12:
	.loc	12 233 25 prologue_end          @ D:\Embed\MDK\MDK\ARM\ARMCompilerV621\Bin\..\include\libcxx\array:233:25
	ldr	r1, [sp]
	.loc	12 233 16 is_stmt 0             @ D:\Embed\MDK\MDK\ARM\ARMCompilerV621\Bin\..\include\libcxx\array:233:16
	add.w	r0, r0, r1, lsl #2
	.loc	12 233 9 epilogue_begin         @ D:\Embed\MDK\MDK\ARM\ARMCompilerV621\Bin\..\include\libcxx\array:233:9
	add	sp, #8
	bx	lr
.Ltmp13:
.Lfunc_end4:
	.size	_ZNSt3__25arrayIfLj3EEixB7v180000Ej, .Lfunc_end4-_ZNSt3__25arrayIfLj3EEixB7v180000Ej
	.cfi_endproc
	.cantunwind
	.fnend
                                        @ -- End function
	.section	.text._ZNSt3__24pairIffEC2B7v180000IRffLi0EEEOT_OT0_,"axG",%progbits,_ZNSt3__24pairIffEC2B7v180000IRffLi0EEEOT_OT0_,comdat
	.hidden	_ZNSt3__24pairIffEC2B7v180000IRffLi0EEEOT_OT0_ @ -- Begin function _ZNSt3__24pairIffEC2B7v180000IRffLi0EEEOT_OT0_
	.weak	_ZNSt3__24pairIffEC2B7v180000IRffLi0EEEOT_OT0_
	.p2align	2
	.type	_ZNSt3__24pairIffEC2B7v180000IRffLi0EEEOT_OT0_,%function
	.code	16                              @ @_ZNSt3__24pairIffEC2B7v180000IRffLi0EEEOT_OT0_
	.thumb_func
_ZNSt3__24pairIffEC2B7v180000IRffLi0EEEOT_OT0_:
.Lfunc_begin5:
	.loc	9 222 0 is_stmt 1               @ D:\Embed\MDK\MDK\ARM\ARMCompilerV621\Bin\..\include\libcxx\__utility/pair.h:222:0
	.fnstart
	.cfi_startproc
@ %bb.0:
	.pad	#12
	sub	sp, #12
	.cfi_def_cfa_offset 12
	str	r0, [sp, #8]
	str	r1, [sp, #4]
	str	r2, [sp]
	ldr	r0, [sp, #8]
.Ltmp14:
	.loc	9 222 35 prologue_end           @ D:\Embed\MDK\MDK\ARM\ARMCompilerV621\Bin\..\include\libcxx\__utility/pair.h:222:35
	ldr	r1, [sp, #4]
	.loc	9 222 17 is_stmt 0              @ D:\Embed\MDK\MDK\ARM\ARMCompilerV621\Bin\..\include\libcxx\__utility/pair.h:222:17
	ldr	r1, [r1]
	.loc	9 222 11                        @ D:\Embed\MDK\MDK\ARM\ARMCompilerV621\Bin\..\include\libcxx\__utility/pair.h:222:11
	str	r1, [r0]
	.loc	9 222 68                        @ D:\Embed\MDK\MDK\ARM\ARMCompilerV621\Bin\..\include\libcxx\__utility/pair.h:222:68
	ldr	r1, [sp]
	.loc	9 222 50                        @ D:\Embed\MDK\MDK\ARM\ARMCompilerV621\Bin\..\include\libcxx\__utility/pair.h:222:50
	ldr	r1, [r1]
	.loc	9 222 43                        @ D:\Embed\MDK\MDK\ARM\ARMCompilerV621\Bin\..\include\libcxx\__utility/pair.h:222:43
	str	r1, [r0, #4]
	.loc	9 222 76 epilogue_begin         @ D:\Embed\MDK\MDK\ARM\ARMCompilerV621\Bin\..\include\libcxx\__utility/pair.h:222:76
	add	sp, #12
	bx	lr
.Ltmp15:
.Lfunc_end5:
	.size	_ZNSt3__24pairIffEC2B7v180000IRffLi0EEEOT_OT0_, .Lfunc_end5-_ZNSt3__24pairIffEC2B7v180000IRffLi0EEEOT_OT0_
	.cfi_endproc
	.cantunwind
	.fnend
                                        @ -- End function
	.section	.text._ZNSt3__28optionalINS_4pairIffEEEaSB7v180000IS2_vEERS3_OT_,"axG",%progbits,_ZNSt3__28optionalINS_4pairIffEEEaSB7v180000IS2_vEERS3_OT_,comdat
	.hidden	_ZNSt3__28optionalINS_4pairIffEEEaSB7v180000IS2_vEERS3_OT_ @ -- Begin function _ZNSt3__28optionalINS_4pairIffEEEaSB7v180000IS2_vEERS3_OT_
	.weak	_ZNSt3__28optionalINS_4pairIffEEEaSB7v180000IS2_vEERS3_OT_
	.p2align	2
	.type	_ZNSt3__28optionalINS_4pairIffEEEaSB7v180000IS2_vEERS3_OT_,%function
	.code	16                              @ @_ZNSt3__28optionalINS_4pairIffEEEaSB7v180000IS2_vEERS3_OT_
	.thumb_func
_ZNSt3__28optionalINS_4pairIffEEEaSB7v180000IS2_vEERS3_OT_:
.Lfunc_begin6:
	.loc	3 907 0 is_stmt 1               @ D:\Embed\MDK\MDK\ARM\ARMCompilerV621\Bin\..\include\libcxx\optional:907:0
	.fnstart
	.cfi_startproc
@ %bb.0:
	.save	{r7, lr}
	push	{r7, lr}
	.cfi_def_cfa_offset 8
	.cfi_offset lr, -4
	.cfi_offset r7, -8
	.pad	#16
	sub	sp, #16
	.cfi_def_cfa_offset 24
	str	r0, [sp, #12]
	str	r1, [sp, #8]
	ldr	r0, [sp, #12]
.Ltmp16:
	.loc	3 908 19 prologue_end           @ D:\Embed\MDK\MDK\ARM\ARMCompilerV621\Bin\..\include\libcxx\optional:908:19
	str	r0, [sp, #4]                    @ 4-byte Spill
	bl	_ZNKSt3__223__optional_storage_baseINS_4pairIffEELb0EE9has_valueB7v180000Ev
.Ltmp17:
	.loc	3 908 13 is_stmt 0              @ D:\Embed\MDK\MDK\ARM\ARMCompilerV621\Bin\..\include\libcxx\optional:908:13
	cbz	r0, .LBB6_2
	b	.LBB6_1
.LBB6_1:
.Ltmp18:
	.loc	3 909 49 is_stmt 1              @ D:\Embed\MDK\MDK\ARM\ARMCompilerV621\Bin\..\include\libcxx\optional:909:49
	ldr	r0, [sp, #4]                    @ 4-byte Reload
	ldr	r1, [sp, #8]
	.loc	3 909 19 is_stmt 0              @ D:\Embed\MDK\MDK\ARM\ARMCompilerV621\Bin\..\include\libcxx\optional:909:19
	str	r1, [sp]                        @ 4-byte Spill
	bl	_ZNRSt3__223__optional_storage_baseINS_4pairIffEELb0EE5__getB7v180000Ev
	ldr	r1, [sp]                        @ 4-byte Reload
	.loc	3 909 27                        @ D:\Embed\MDK\MDK\ARM\ARMCompilerV621\Bin\..\include\libcxx\optional:909:27
	bl	_ZNSt3__24pairIffEaSB7v180000EOS1_
	.loc	3 909 13                        @ D:\Embed\MDK\MDK\ARM\ARMCompilerV621\Bin\..\include\libcxx\optional:909:13
	b	.LBB6_3
.LBB6_2:
	.loc	3 911 51 is_stmt 1              @ D:\Embed\MDK\MDK\ARM\ARMCompilerV621\Bin\..\include\libcxx\optional:911:51
	ldr	r0, [sp, #4]                    @ 4-byte Reload
	ldr	r1, [sp, #8]
	.loc	3 911 19 is_stmt 0              @ D:\Embed\MDK\MDK\ARM\ARMCompilerV621\Bin\..\include\libcxx\optional:911:19
	bl	_ZNSt3__223__optional_storage_baseINS_4pairIffEELb0EE11__constructB7v180000IJS2_EEEvDpOT_
	b	.LBB6_3
.Ltmp19:
.LBB6_3:
	.loc	3 912 9 is_stmt 1               @ D:\Embed\MDK\MDK\ARM\ARMCompilerV621\Bin\..\include\libcxx\optional:912:9
	ldr	r0, [sp, #4]                    @ 4-byte Reload
	.loc	3 912 9 epilogue_begin is_stmt 0 @ D:\Embed\MDK\MDK\ARM\ARMCompilerV621\Bin\..\include\libcxx\optional:912:9
	add	sp, #16
	pop	{r7, pc}
.Ltmp20:
.Lfunc_end6:
	.size	_ZNSt3__28optionalINS_4pairIffEEEaSB7v180000IS2_vEERS3_OT_, .Lfunc_end6-_ZNSt3__28optionalINS_4pairIffEEEaSB7v180000IS2_vEERS3_OT_
	.cfi_endproc
	.cantunwind
	.fnend
                                        @ -- End function
	.section	.text._ZN24AlphaBetaFrameController10get_outputEjRA3_fPNSt3__28optionalIfEE,"ax",%progbits
	.hidden	_ZN24AlphaBetaFrameController10get_outputEjRA3_fPNSt3__28optionalIfEE @ -- Begin function _ZN24AlphaBetaFrameController10get_outputEjRA3_fPNSt3__28optionalIfEE
	.globl	_ZN24AlphaBetaFrameController10get_outputEjRA3_fPNSt3__28optionalIfEE
	.p2align	2
	.type	_ZN24AlphaBetaFrameController10get_outputEjRA3_fPNSt3__28optionalIfEE,%function
	.code	16                              @ @_ZN24AlphaBetaFrameController10get_outputEjRA3_fPNSt3__28optionalIfEE
	.thumb_func
_ZN24AlphaBetaFrameController10get_outputEjRA3_fPNSt3__28optionalIfEE:
.Lfunc_begin7:
	.loc	15 25 0 is_stmt 1               @ ../MotorControl/foc.cpp:25:0
	.fnstart
	.cfi_startproc
@ %bb.0:
	.save	{r7, lr}
	push	{r7, lr}
	.cfi_def_cfa_offset 8
	.cfi_offset lr, -4
	.cfi_offset r7, -8
	.pad	#80
	sub	sp, #80
	.cfi_def_cfa_offset 88
	str	r0, [sp, #68]
	str	r1, [sp, #64]
	str	r2, [sp, #60]
	str	r3, [sp, #56]
	ldr	r0, [sp, #68]
.Ltmp21:
	.loc	15 26 28 prologue_end           @ ../MotorControl/foc.cpp:26:28
	str	r0, [sp, #8]                    @ 4-byte Spill
	add	r0, sp, #44
	str	r0, [sp, #12]                   @ 4-byte Spill
	bl	_ZNSt3__28optionalINS_4pairIffEEEC2B7v180000Ev
	ldr	r0, [sp, #8]                    @ 4-byte Reload
	ldr	r2, [sp, #12]                   @ 4-byte Reload
	.loc	15 27 49                        @ ../MotorControl/foc.cpp:27:49
	ldr	r1, [sp, #64]
	.loc	15 27 84 is_stmt 0              @ ../MotorControl/foc.cpp:27:84
	ldr	r3, [sp, #56]
	.loc	15 27 27                        @ ../MotorControl/foc.cpp:27:27
	ldr.w	r12, [r0]
	ldr.w	r12, [r12, #16]
	blx	r12
	.loc	15 27 18                        @ ../MotorControl/foc.cpp:27:18
	str	r1, [sp, #36]
	str	r0, [sp, #32]
.Ltmp22:
	.loc	15 29 9 is_stmt 1               @ ../MotorControl/foc.cpp:29:9
	ldr	r0, [sp, #32]
	ldr	r1, [sp, #36]
	.loc	15 29 16 is_stmt 0              @ ../MotorControl/foc.cpp:29:16
	orrs	r0, r1
.Ltmp23:
	.loc	15 29 9                         @ ../MotorControl/foc.cpp:29:9
	cbz	r0, .LBB7_2
	b	.LBB7_1
.LBB7_1:
.Ltmp24:
	.loc	15 30 16 is_stmt 1              @ ../MotorControl/foc.cpp:30:16
	ldr	r0, [sp, #32]
	ldr	r1, [sp, #36]
	.loc	15 30 9 is_stmt 0               @ ../MotorControl/foc.cpp:30:9
	str	r1, [sp, #76]
	str	r0, [sp, #72]
	b	.LBB7_10
.Ltmp25:
.LBB7_2:
	.loc	15 0 9                          @ ../MotorControl/foc.cpp:0:9
	add	r0, sp, #44
.Ltmp26:
	.loc	15 31 32 is_stmt 1              @ ../MotorControl/foc.cpp:31:32
	bl	_ZNKSt3__223__optional_storage_baseINS_4pairIffEELb0EE9has_valueB7v180000Ev
	.loc	15 31 44 is_stmt 0              @ ../MotorControl/foc.cpp:31:44
	cbz	r0, .LBB7_5
	b	.LBB7_3
.LBB7_3:
	.loc	15 0 44                         @ ../MotorControl/foc.cpp:0:44
	add	r0, sp, #44
	.loc	15 31 54                        @ ../MotorControl/foc.cpp:31:54
	bl	_ZNSt3__28optionalINS_4pairIffEEEptB7v180000Ev
	.loc	15 31 70                        @ ../MotorControl/foc.cpp:31:70
	vldr	s0, [r0]
	.loc	15 31 47                        @ ../MotorControl/foc.cpp:31:47
	bl	_Z6is_nanf
	.loc	15 31 77                        @ ../MotorControl/foc.cpp:31:77
	cbnz	r0, .LBB7_5
	b	.LBB7_4
.LBB7_4:
	.loc	15 0 77                         @ ../MotorControl/foc.cpp:0:77
	add	r0, sp, #44
	.loc	15 31 87                        @ ../MotorControl/foc.cpp:31:87
	bl	_ZNSt3__28optionalINS_4pairIffEEEptB7v180000Ev
	.loc	15 31 103                       @ ../MotorControl/foc.cpp:31:103
	vldr	s0, [r0, #4]
	.loc	15 31 80                        @ ../MotorControl/foc.cpp:31:80
	bl	_Z6is_nanf
.Ltmp27:
	.loc	15 31 16                        @ ../MotorControl/foc.cpp:31:16
	cbz	r0, .LBB7_6
	b	.LBB7_5
.LBB7_5:
	.loc	15 0 16                         @ ../MotorControl/foc.cpp:0:16
	movs	r0, #0
.Ltmp28:
	.loc	15 32 9 is_stmt 1               @ ../MotorControl/foc.cpp:32:9
	str	r0, [sp, #76]
	mov.w	r0, #65536
	str	r0, [sp, #72]
	b	.LBB7_10
.Ltmp29:
.LBB7_6:
	.loc	15 0 9 is_stmt 0                @ ../MotorControl/foc.cpp:0:9
	b	.LBB7_7
.LBB7_7:
	add	r0, sp, #44
	.loc	15 36 24 is_stmt 1              @ ../MotorControl/foc.cpp:36:24
	str	r0, [sp]                        @ 4-byte Spill
	bl	_ZNSt3__28optionalINS_4pairIffEEEptB7v180000Ev
	mov	r1, r0
	.loc	15 36 40 is_stmt 0              @ ../MotorControl/foc.cpp:36:40
	ldr	r0, [sp]                        @ 4-byte Reload
	vldr	s0, [r1]
	vstr	s0, [sp, #4]                    @ 4-byte Spill
	.loc	15 36 47                        @ ../MotorControl/foc.cpp:36:47
	bl	_ZNSt3__28optionalINS_4pairIffEEEptB7v180000Ev
	vldr	s0, [sp, #4]                    @ 4-byte Reload
	.loc	15 36 63                        @ ../MotorControl/foc.cpp:36:63
	vldr	s1, [r0, #4]
	add	r0, sp, #28
	add	r1, sp, #24
	add	r2, sp, #20
	.loc	15 36 20                        @ ../MotorControl/foc.cpp:36:20
	bl	_Z3SVMffPfS_S_
	.loc	15 36 10                        @ ../MotorControl/foc.cpp:36:10
	strb.w	r0, [sp, #19]
.Ltmp30:
	.loc	15 37 10 is_stmt 1              @ ../MotorControl/foc.cpp:37:10
	ldrb.w	r0, [sp, #19]
.Ltmp31:
	.loc	15 37 9 is_stmt 0               @ ../MotorControl/foc.cpp:37:9
	lsls	r0, r0, #31
	cbnz	r0, .LBB7_9
	b	.LBB7_8
.LBB7_8:
	.loc	15 0 9                          @ ../MotorControl/foc.cpp:0:9
	movs	r0, #0
.Ltmp32:
	.loc	15 38 9 is_stmt 1               @ ../MotorControl/foc.cpp:38:9
	str	r0, [sp, #76]
	movs	r0, #128
	str	r0, [sp, #72]
	b	.LBB7_10
.Ltmp33:
.LBB7_9:
	.loc	15 41 22                        @ ../MotorControl/foc.cpp:41:22
	ldr	r0, [sp, #28]
	.loc	15 41 5 is_stmt 0               @ ../MotorControl/foc.cpp:41:5
	ldr	r1, [sp, #60]
	.loc	15 41 20                        @ ../MotorControl/foc.cpp:41:20
	str	r0, [r1]
	.loc	15 42 22 is_stmt 1              @ ../MotorControl/foc.cpp:42:22
	ldr	r0, [sp, #24]
	.loc	15 42 5 is_stmt 0               @ ../MotorControl/foc.cpp:42:5
	ldr	r1, [sp, #60]
	.loc	15 42 20                        @ ../MotorControl/foc.cpp:42:20
	str	r0, [r1, #4]
	.loc	15 43 22 is_stmt 1              @ ../MotorControl/foc.cpp:43:22
	ldr	r0, [sp, #20]
	.loc	15 43 5 is_stmt 0               @ ../MotorControl/foc.cpp:43:5
	ldr	r1, [sp, #60]
	.loc	15 43 20                        @ ../MotorControl/foc.cpp:43:20
	str	r0, [r1, #8]
	movs	r0, #0
	.loc	15 45 5 is_stmt 1               @ ../MotorControl/foc.cpp:45:5
	str	r0, [sp, #76]
	str	r0, [sp, #72]
	b	.LBB7_10
.LBB7_10:
	.loc	15 46 1                         @ ../MotorControl/foc.cpp:46:1
	ldr	r0, [sp, #72]
	ldr	r1, [sp, #76]
	.loc	15 46 1 epilogue_begin is_stmt 0 @ ../MotorControl/foc.cpp:46:1
	add	sp, #80
	pop	{r7, pc}
.Ltmp34:
.Lfunc_end7:
	.size	_ZN24AlphaBetaFrameController10get_outputEjRA3_fPNSt3__28optionalIfEE, .Lfunc_end7-_ZN24AlphaBetaFrameController10get_outputEjRA3_fPNSt3__28optionalIfEE
	.cfi_endproc
	.cantunwind
	.fnend
                                        @ -- End function
	.section	.text._ZNKSt3__223__optional_storage_baseINS_4pairIffEELb0EE9has_valueB7v180000Ev,"axG",%progbits,_ZNKSt3__223__optional_storage_baseINS_4pairIffEELb0EE9has_valueB7v180000Ev,comdat
	.hidden	_ZNKSt3__223__optional_storage_baseINS_4pairIffEELb0EE9has_valueB7v180000Ev @ -- Begin function _ZNKSt3__223__optional_storage_baseINS_4pairIffEELb0EE9has_valueB7v180000Ev
	.weak	_ZNKSt3__223__optional_storage_baseINS_4pairIffEELb0EE9has_valueB7v180000Ev
	.p2align	2
	.type	_ZNKSt3__223__optional_storage_baseINS_4pairIffEELb0EE9has_valueB7v180000Ev,%function
	.code	16                              @ @_ZNKSt3__223__optional_storage_baseINS_4pairIffEELb0EE9has_valueB7v180000Ev
	.thumb_func
_ZNKSt3__223__optional_storage_baseINS_4pairIffEELb0EE9has_valueB7v180000Ev:
.Lfunc_begin8:
	.loc	3 386 0 is_stmt 1               @ D:\Embed\MDK\MDK\ARM\ARMCompilerV621\Bin\..\include\libcxx\optional:386:0
	.fnstart
	.cfi_startproc
@ %bb.0:
	.pad	#4
	sub	sp, #4
	.cfi_def_cfa_offset 4
	str	r0, [sp]
	ldr	r0, [sp]
.Ltmp35:
	.loc	3 387 9 prologue_end            @ D:\Embed\MDK\MDK\ARM\ARMCompilerV621\Bin\..\include\libcxx\optional:387:9
	ldrb	r0, [r0, #8]
	and	r0, r0, #1
	.loc	3 387 9 epilogue_begin is_stmt 0 @ D:\Embed\MDK\MDK\ARM\ARMCompilerV621\Bin\..\include\libcxx\optional:387:9
	add	sp, #4
	bx	lr
.Ltmp36:
.Lfunc_end8:
	.size	_ZNKSt3__223__optional_storage_baseINS_4pairIffEELb0EE9has_valueB7v180000Ev, .Lfunc_end8-_ZNKSt3__223__optional_storage_baseINS_4pairIffEELb0EE9has_valueB7v180000Ev
	.cfi_endproc
	.cantunwind
	.fnend
                                        @ -- End function
	.section	.text._Z6is_nanf,"axG",%progbits,_Z6is_nanf,comdat
	.hidden	_Z6is_nanf                      @ -- Begin function _Z6is_nanf
	.weak	_Z6is_nanf
	.p2align	2
	.type	_Z6is_nanf,%function
	.code	16                              @ @_Z6is_nanf
	.thumb_func
_Z6is_nanf:
.Lfunc_begin9:
	.loc	1 102 0 is_stmt 1               @ ../../Firmware\MotorControl/utils.hpp:102:0
	.fnstart
	.cfi_startproc
@ %bb.0:
	.pad	#4
	sub	sp, #4
	.cfi_def_cfa_offset 4
	vstr	s0, [sp]
.Ltmp37:
	.loc	1 103 28 prologue_end           @ ../../Firmware\MotorControl/utils.hpp:103:28
	ldr	r0, [sp]
	.loc	1 103 12 is_stmt 0              @ ../../Firmware\MotorControl/utils.hpp:103:12
	bic	r1, r0, #-2147483648
	movs	r0, #0
	cmp.w	r1, #2139095040
	it	gt
	movgt	r0, #1
	.loc	1 103 5 epilogue_begin          @ ../../Firmware\MotorControl/utils.hpp:103:5
	add	sp, #4
	bx	lr
.Ltmp38:
.Lfunc_end9:
	.size	_Z6is_nanf, .Lfunc_end9-_Z6is_nanf
	.cfi_endproc
	.cantunwind
	.fnend
                                        @ -- End function
	.section	.text._ZNSt3__28optionalINS_4pairIffEEEptB7v180000Ev,"axG",%progbits,_ZNSt3__28optionalINS_4pairIffEEEptB7v180000Ev,comdat
	.hidden	_ZNSt3__28optionalINS_4pairIffEEEptB7v180000Ev @ -- Begin function _ZNSt3__28optionalINS_4pairIffEEEptB7v180000Ev
	.weak	_ZNSt3__28optionalINS_4pairIffEEEptB7v180000Ev
	.p2align	2
	.type	_ZNSt3__28optionalINS_4pairIffEEEptB7v180000Ev,%function
	.code	16                              @ @_ZNSt3__28optionalINS_4pairIffEEEptB7v180000Ev
	.thumb_func
_ZNSt3__28optionalINS_4pairIffEEEptB7v180000Ev:
.Lfunc_begin10:
	.loc	3 1008 0 is_stmt 1              @ D:\Embed\MDK\MDK\ARM\ARMCompilerV621\Bin\..\include\libcxx\optional:1008:0
	.fnstart
	.cfi_startproc
@ %bb.0:
	.save	{r7, lr}
	push	{r7, lr}
	.cfi_def_cfa_offset 8
	.cfi_offset lr, -4
	.cfi_offset r7, -8
	.pad	#8
	sub	sp, #8
	.cfi_def_cfa_offset 16
	str	r0, [sp, #4]
	ldr	r0, [sp, #4]
.Ltmp39:
	.loc	3 1010 39 prologue_end          @ D:\Embed\MDK\MDK\ARM\ARMCompilerV621\Bin\..\include\libcxx\optional:1010:39
	bl	_ZNRSt3__223__optional_storage_baseINS_4pairIffEELb0EE5__getB7v180000Ev
	.loc	3 1010 9 epilogue_begin is_stmt 0 @ D:\Embed\MDK\MDK\ARM\ARMCompilerV621\Bin\..\include\libcxx\optional:1010:9
	add	sp, #8
	pop	{r7, pc}
.Ltmp40:
.Lfunc_end10:
	.size	_ZNSt3__28optionalINS_4pairIffEEEptB7v180000Ev, .Lfunc_end10-_ZNSt3__28optionalINS_4pairIffEEEptB7v180000Ev
	.cfi_endproc
	.cantunwind
	.fnend
                                        @ -- End function
	.section	.text._ZN23FieldOrientedController5resetEv,"ax",%progbits
	.hidden	_ZN23FieldOrientedController5resetEv @ -- Begin function _ZN23FieldOrientedController5resetEv
	.globl	_ZN23FieldOrientedController5resetEv
	.p2align	2
	.type	_ZN23FieldOrientedController5resetEv,%function
	.code	16                              @ @_ZN23FieldOrientedController5resetEv
	.thumb_func
_ZN23FieldOrientedController5resetEv:
.Lfunc_begin11:
	.loc	15 48 0 is_stmt 1               @ ../MotorControl/foc.cpp:48:0
	.fnstart
	.cfi_startproc
@ %bb.0:
	.save	{r7, lr}
	push	{r7, lr}
	.cfi_def_cfa_offset 8
	.cfi_offset lr, -4
	.cfi_offset r7, -8
	.pad	#16
	sub	sp, #16
	.cfi_def_cfa_offset 24
	str	r0, [sp, #12]
	ldr	r0, [sp, #12]
	str	r0, [sp]                        @ 4-byte Spill
	movs	r1, #0
.Ltmp41:
	.loc	15 49 35 prologue_end           @ ../MotorControl/foc.cpp:49:35
	str	r1, [sp, #4]                    @ 4-byte Spill
	str.w	r1, [r0, #148]
	.loc	15 50 35                        @ ../MotorControl/foc.cpp:50:35
	str.w	r1, [r0, #152]
	.loc	15 51 5                         @ ../MotorControl/foc.cpp:51:5
	adds	r0, #120
	.loc	15 51 28 is_stmt 0              @ ../MotorControl/foc.cpp:51:28
	bl	_ZNSt3__28optionalIfEaSB7v180000ENS_9nullopt_tE
                                        @ kill: def $r1 killed $r0
	.loc	15 52 5 is_stmt 1               @ ../MotorControl/foc.cpp:52:5
	ldr	r0, [sp]                        @ 4-byte Reload
	adds	r0, #128
	.loc	15 52 27 is_stmt 0              @ ../MotorControl/foc.cpp:52:27
	bl	_ZNSt3__28optionalINS_4pairIffEEEaSB7v180000ENS_9nullopt_tE
	ldr	r1, [sp]                        @ 4-byte Reload
                                        @ kill: def $r2 killed $r0
	.loc	15 53 12 is_stmt 1              @ ../MotorControl/foc.cpp:53:12
	ldr	r0, [sp, #4]                    @ 4-byte Reload
	str.w	r0, [r1, #164]
	.loc	15 54 1 epilogue_begin          @ ../MotorControl/foc.cpp:54:1
	add	sp, #16
	pop	{r7, pc}
.Ltmp42:
.Lfunc_end11:
	.size	_ZN23FieldOrientedController5resetEv, .Lfunc_end11-_ZN23FieldOrientedController5resetEv
	.cfi_endproc
	.file	17 "D:\\ikingtec\\Robot\\ODrive\\Firmware\\MDK-ARM" "../MotorControl/foc.hpp"
	.file	18 "D:\\ikingtec\\Robot\\ODrive\\Firmware\\MDK-ARM" "../MotorControl/component.hpp"
	.cantunwind
	.fnend
                                        @ -- End function
	.section	.text._ZNSt3__28optionalIfEaSB7v180000ENS_9nullopt_tE,"axG",%progbits,_ZNSt3__28optionalIfEaSB7v180000ENS_9nullopt_tE,comdat
	.hidden	_ZNSt3__28optionalIfEaSB7v180000ENS_9nullopt_tE @ -- Begin function _ZNSt3__28optionalIfEaSB7v180000ENS_9nullopt_tE
	.weak	_ZNSt3__28optionalIfEaSB7v180000ENS_9nullopt_tE
	.p2align	2
	.type	_ZNSt3__28optionalIfEaSB7v180000ENS_9nullopt_tE,%function
	.code	16                              @ @_ZNSt3__28optionalIfEaSB7v180000ENS_9nullopt_tE
	.thumb_func
_ZNSt3__28optionalIfEaSB7v180000ENS_9nullopt_tE:
.Lfunc_begin12:
	.loc	3 883 0                         @ D:\Embed\MDK\MDK\ARM\ARMCompilerV621\Bin\..\include\libcxx\optional:883:0
	.fnstart
	.cfi_startproc
@ %bb.0:
	.save	{r7, lr}
	push	{r7, lr}
	.cfi_def_cfa_offset 8
	.cfi_offset lr, -4
	.cfi_offset r7, -8
	.pad	#16
	sub	sp, #16
	.cfi_def_cfa_offset 24
	str	r0, [sp, #8]
	ldr	r0, [sp, #8]
.Ltmp43:
	.loc	3 884 9 prologue_end            @ D:\Embed\MDK\MDK\ARM\ARMCompilerV621\Bin\..\include\libcxx\optional:884:9
	str	r0, [sp, #4]                    @ 4-byte Spill
	bl	_ZNSt3__224__optional_destruct_baseIfLb1EE5resetB7v180000Ev
	ldr	r0, [sp, #4]                    @ 4-byte Reload
	.loc	3 885 9 epilogue_begin          @ D:\Embed\MDK\MDK\ARM\ARMCompilerV621\Bin\..\include\libcxx\optional:885:9
	add	sp, #16
	pop	{r7, pc}
.Ltmp44:
.Lfunc_end12:
	.size	_ZNSt3__28optionalIfEaSB7v180000ENS_9nullopt_tE, .Lfunc_end12-_ZNSt3__28optionalIfEaSB7v180000ENS_9nullopt_tE
	.cfi_endproc
	.cantunwind
	.fnend
                                        @ -- End function
	.section	.text._ZNSt3__28optionalINS_4pairIffEEEaSB7v180000ENS_9nullopt_tE,"axG",%progbits,_ZNSt3__28optionalINS_4pairIffEEEaSB7v180000ENS_9nullopt_tE,comdat
	.hidden	_ZNSt3__28optionalINS_4pairIffEEEaSB7v180000ENS_9nullopt_tE @ -- Begin function _ZNSt3__28optionalINS_4pairIffEEEaSB7v180000ENS_9nullopt_tE
	.weak	_ZNSt3__28optionalINS_4pairIffEEEaSB7v180000ENS_9nullopt_tE
	.p2align	2
	.type	_ZNSt3__28optionalINS_4pairIffEEEaSB7v180000ENS_9nullopt_tE,%function
	.code	16                              @ @_ZNSt3__28optionalINS_4pairIffEEEaSB7v180000ENS_9nullopt_tE
	.thumb_func
_ZNSt3__28optionalINS_4pairIffEEEaSB7v180000ENS_9nullopt_tE:
.Lfunc_begin13:
	.loc	3 883 0                         @ D:\Embed\MDK\MDK\ARM\ARMCompilerV621\Bin\..\include\libcxx\optional:883:0
	.fnstart
	.cfi_startproc
@ %bb.0:
	.save	{r7, lr}
	push	{r7, lr}
	.cfi_def_cfa_offset 8
	.cfi_offset lr, -4
	.cfi_offset r7, -8
	.pad	#16
	sub	sp, #16
	.cfi_def_cfa_offset 24
	str	r0, [sp, #8]
	ldr	r0, [sp, #8]
.Ltmp45:
	.loc	3 884 9 prologue_end            @ D:\Embed\MDK\MDK\ARM\ARMCompilerV621\Bin\..\include\libcxx\optional:884:9
	str	r0, [sp, #4]                    @ 4-byte Spill
	bl	_ZNSt3__224__optional_destruct_baseINS_4pairIffEELb1EE5resetB7v180000Ev
	ldr	r0, [sp, #4]                    @ 4-byte Reload
	.loc	3 885 9 epilogue_begin          @ D:\Embed\MDK\MDK\ARM\ARMCompilerV621\Bin\..\include\libcxx\optional:885:9
	add	sp, #16
	pop	{r7, pc}
.Ltmp46:
.Lfunc_end13:
	.size	_ZNSt3__28optionalINS_4pairIffEEEaSB7v180000ENS_9nullopt_tE, .Lfunc_end13-_ZNSt3__28optionalINS_4pairIffEEEaSB7v180000ENS_9nullopt_tE
	.cfi_endproc
	.cantunwind
	.fnend
                                        @ -- End function
	.section	.text._ZN23FieldOrientedController14on_measurementENSt3__28optionalIfEENS1_INS0_4pairIffEEEEj,"ax",%progbits
	.hidden	_ZN23FieldOrientedController14on_measurementENSt3__28optionalIfEENS1_INS0_4pairIffEEEEj @ -- Begin function _ZN23FieldOrientedController14on_measurementENSt3__28optionalIfEENS1_INS0_4pairIffEEEEj
	.globl	_ZN23FieldOrientedController14on_measurementENSt3__28optionalIfEENS1_INS0_4pairIffEEEEj
	.p2align	2
	.type	_ZN23FieldOrientedController14on_measurementENSt3__28optionalIfEENS1_INS0_4pairIffEEEEj,%function
	.code	16                              @ @_ZN23FieldOrientedController14on_measurementENSt3__28optionalIfEENS1_INS0_4pairIffEEEEj
	.thumb_func
_ZN23FieldOrientedController14on_measurementENSt3__28optionalIfEENS1_INS0_4pairIffEEEEj:
.Lfunc_begin14:
	.loc	15 58 0                         @ ../MotorControl/foc.cpp:58:0
	.fnstart
	.cfi_startproc
@ %bb.0:
	.save	{r4, lr}
	push	{r4, lr}
	.cfi_def_cfa_offset 8
	.cfi_offset lr, -4
	.cfi_offset r4, -8
	.pad	#24
	sub	sp, #24
	.cfi_def_cfa_offset 32
	mov	lr, r2
	mov	r12, r1
	ldr	r2, [sp, #36]
	ldr	r1, [sp, #32]
                                        @ kill: def $r4 killed $r3
                                        @ kill: def $r4 killed $lr
                                        @ kill: def $r4 killed $r12
	ldr	r4, [sp, #40]
	str.w	lr, [sp, #20]
	str.w	r12, [sp, #16]
	str	r2, [sp, #12]
	str	r1, [sp, #8]
	str	r3, [sp, #4]
	str	r0, [sp]
	ldr	r0, [sp]
.Ltmp47:
	.loc	15 60 20 prologue_end           @ ../MotorControl/foc.cpp:60:20
	ldr	r1, [sp, #40]
	.loc	15 60 18 is_stmt 0              @ ../MotorControl/foc.cpp:60:18
	str	r1, [r0, #116]
	.loc	15 61 28 is_stmt 1              @ ../MotorControl/foc.cpp:61:28
	ldrb.w	r1, [sp, #20]
	strb.w	r1, [r0, #124]
	ldr	r1, [sp, #16]
	str	r1, [r0, #120]
	.loc	15 62 5                         @ ../MotorControl/foc.cpp:62:5
	adds	r0, #128
	add	r1, sp, #4
	.loc	15 62 27 is_stmt 0              @ ../MotorControl/foc.cpp:62:27
	bl	_ZNSt3__28optionalINS_4pairIffEEEaSB7v180000ERKS3_
	movs	r1, #0
	.loc	15 64 5 is_stmt 1               @ ../MotorControl/foc.cpp:64:5
	mov	r0, r1
	.loc	15 64 5 epilogue_begin is_stmt 0 @ ../MotorControl/foc.cpp:64:5
	add	sp, #24
	pop	{r4, pc}
.Ltmp48:
.Lfunc_end14:
	.size	_ZN23FieldOrientedController14on_measurementENSt3__28optionalIfEENS1_INS0_4pairIffEEEEj, .Lfunc_end14-_ZN23FieldOrientedController14on_measurementENSt3__28optionalIfEENS1_INS0_4pairIffEEEEj
	.cfi_endproc
	.cantunwind
	.fnend
                                        @ -- End function
	.section	.text._ZNSt3__28optionalINS_4pairIffEEEaSB7v180000ERKS3_,"axG",%progbits,_ZNSt3__28optionalINS_4pairIffEEEaSB7v180000ERKS3_,comdat
	.hidden	_ZNSt3__28optionalINS_4pairIffEEEaSB7v180000ERKS3_ @ -- Begin function _ZNSt3__28optionalINS_4pairIffEEEaSB7v180000ERKS3_
	.weak	_ZNSt3__28optionalINS_4pairIffEEEaSB7v180000ERKS3_
	.p2align	2
	.type	_ZNSt3__28optionalINS_4pairIffEEEaSB7v180000ERKS3_,%function
	.code	16                              @ @_ZNSt3__28optionalINS_4pairIffEEEaSB7v180000ERKS3_
	.thumb_func
_ZNSt3__28optionalINS_4pairIffEEEaSB7v180000ERKS3_:
.Lfunc_begin15:
	.loc	3 888 0 is_stmt 1               @ D:\Embed\MDK\MDK\ARM\ARMCompilerV621\Bin\..\include\libcxx\optional:888:0
	.fnstart
	.cfi_startproc
@ %bb.0:
	.save	{r7, lr}
	push	{r7, lr}
	.cfi_def_cfa_offset 8
	.cfi_offset lr, -4
	.cfi_offset r7, -8
	.pad	#16
	sub	sp, #16
	.cfi_def_cfa_offset 24
	str	r0, [sp, #12]
	str	r1, [sp, #8]
	ldr	r0, [sp, #12]
.Ltmp49:
	.loc	3 888 82 prologue_end           @ D:\Embed\MDK\MDK\ARM\ARMCompilerV621\Bin\..\include\libcxx\optional:888:82
	str	r0, [sp, #4]                    @ 4-byte Spill
	ldr	r1, [sp, #8]
	bl	_ZNSt3__227__optional_move_assign_baseINS_4pairIffEELb0EEaSB7v180000ERKS3_
                                        @ kill: def $r1 killed $r0
	ldr	r0, [sp, #4]                    @ 4-byte Reload
	.loc	3 888 82 epilogue_begin is_stmt 0 @ D:\Embed\MDK\MDK\ARM\ARMCompilerV621\Bin\..\include\libcxx\optional:888:82
	add	sp, #16
	pop	{r7, pc}
.Ltmp50:
.Lfunc_end15:
	.size	_ZNSt3__28optionalINS_4pairIffEEEaSB7v180000ERKS3_, .Lfunc_end15-_ZNSt3__28optionalINS_4pairIffEEEaSB7v180000ERKS3_
	.cfi_endproc
	.cantunwind
	.fnend
                                        @ -- End function
	.section	.text._ZN23FieldOrientedController21get_alpha_beta_outputEjPNSt3__28optionalINS0_4pairIffEEEEPNS1_IfEE,"ax",%progbits
	.hidden	_ZN23FieldOrientedController21get_alpha_beta_outputEjPNSt3__28optionalINS0_4pairIffEEEEPNS1_IfEE @ -- Begin function _ZN23FieldOrientedController21get_alpha_beta_outputEjPNSt3__28optionalINS0_4pairIffEEEEPNS1_IfEE
	.globl	_ZN23FieldOrientedController21get_alpha_beta_outputEjPNSt3__28optionalINS0_4pairIffEEEEPNS1_IfEE
	.p2align	2
	.type	_ZN23FieldOrientedController21get_alpha_beta_outputEjPNSt3__28optionalINS0_4pairIffEEEEPNS1_IfEE,%function
	.code	16                              @ @_ZN23FieldOrientedController21get_alpha_beta_outputEjPNSt3__28optionalINS0_4pairIffEEEEPNS1_IfEE
	.thumb_func
_ZN23FieldOrientedController21get_alpha_beta_outputEjPNSt3__28optionalINS0_4pairIffEEEEPNS1_IfEE:
.Lfunc_begin16:
	.loc	15 69 0 is_stmt 1               @ ../MotorControl/foc.cpp:69:0
	.fnstart
	.cfi_startproc
@ %bb.0:
	.save	{r7, lr}
	push	{r7, lr}
	.cfi_def_cfa_offset 8
	.cfi_offset lr, -4
	.cfi_offset r7, -8
	.pad	#304
	sub	sp, #304
	.cfi_def_cfa_offset 312
	str	r0, [sp, #292]
	str	r1, [sp, #288]
	str	r2, [sp, #284]
	str	r3, [sp, #280]
	ldr	r0, [sp, #292]
.Ltmp51:
	.loc	15 71 10 prologue_end           @ ../MotorControl/foc.cpp:71:10
	str	r0, [sp, #60]                   @ 4-byte Spill
	adds	r0, #120
	.loc	15 71 33 is_stmt 0              @ ../MotorControl/foc.cpp:71:33
	bl	_ZNKSt3__223__optional_storage_baseIfLb0EE9has_valueB7v180000Ev
	.loc	15 71 45                        @ ../MotorControl/foc.cpp:71:45
	cbz	r0, .LBB16_2
	b	.LBB16_1
.LBB16_1:
	.loc	15 71 49                        @ ../MotorControl/foc.cpp:71:49
	ldr	r0, [sp, #60]                   @ 4-byte Reload
	adds	r0, #128
	.loc	15 71 71                        @ ../MotorControl/foc.cpp:71:71
	bl	_ZNKSt3__223__optional_storage_baseINS_4pairIffEELb0EE9has_valueB7v180000Ev
.Ltmp52:
	.loc	15 71 9                         @ ../MotorControl/foc.cpp:71:9
	cbnz	r0, .LBB16_3
	b	.LBB16_2
.LBB16_2:
	.loc	15 0 9                          @ ../MotorControl/foc.cpp:0:9
	movs	r0, #4
.Ltmp53:
	.loc	15 73 9 is_stmt 1               @ ../MotorControl/foc.cpp:73:9
	str	r0, [sp, #300]
	movs	r0, #0
	str	r0, [sp, #296]
	b	.LBB16_38
.Ltmp54:
.LBB16_3:
	.loc	15 74 45                        @ ../MotorControl/foc.cpp:74:45
	ldr	r0, [sp, #60]                   @ 4-byte Reload
	ldr	r1, [r0, #68]
	.loc	15 74 30 is_stmt 0              @ ../MotorControl/foc.cpp:74:30
	ldr	r0, [r0, #116]
	.loc	15 74 43                        @ ../MotorControl/foc.cpp:74:43
	subs	r0, r0, r1
	.loc	15 74 16                        @ ../MotorControl/foc.cpp:74:16
	str	r0, [sp, #52]                   @ 4-byte Spill
	cmp	r0, #0
	str	r0, [sp, #56]                   @ 4-byte Spill
	bpl	.LBB16_5
@ %bb.4:
	ldr	r0, [sp, #52]                   @ 4-byte Reload
	rsbs	r0, r0, #0
	str	r0, [sp, #56]                   @ 4-byte Spill
.LBB16_5:
	ldr	r0, [sp, #56]                   @ 4-byte Reload
	movw	r1, #1879
.Ltmp55:
	.loc	15 74 16                        @ ../MotorControl/foc.cpp:74:16
	cmp	r0, r1
	blt	.LBB16_7
	b	.LBB16_6
.LBB16_6:
	.loc	15 0 16                         @ ../MotorControl/foc.cpp:0:16
	movs	r0, #0
.Ltmp56:
	.loc	15 76 9 is_stmt 1               @ ../MotorControl/foc.cpp:76:9
	str	r0, [sp, #300]
	mov.w	r0, #33554432
	str	r0, [sp, #296]
	b	.LBB16_38
.Ltmp57:
.LBB16_7:
	.loc	15 0 9 is_stmt 0                @ ../MotorControl/foc.cpp:0:9
	b	.LBB16_8
.LBB16_8:
.Ltmp58:
	.loc	15 83 10 is_stmt 1              @ ../MotorControl/foc.cpp:83:10
	ldr	r0, [sp, #60]                   @ 4-byte Reload
	adds	r0, #88
	.loc	15 83 24 is_stmt 0              @ ../MotorControl/foc.cpp:83:24
	bl	_ZNKSt3__223__optional_storage_baseINS_4pairIffEELb0EE9has_valueB7v180000Ev
.Ltmp59:
	.loc	15 83 9                         @ ../MotorControl/foc.cpp:83:9
	cbnz	r0, .LBB16_10
	b	.LBB16_9
.LBB16_9:
	.loc	15 0 9                          @ ../MotorControl/foc.cpp:0:9
	movs	r0, #1
.Ltmp60:
	.loc	15 84 9 is_stmt 1               @ ../MotorControl/foc.cpp:84:9
	str	r0, [sp, #300]
	movs	r0, #0
	str	r0, [sp, #296]
	b	.LBB16_38
.Ltmp61:
.LBB16_10:
	.loc	15 85 17                        @ ../MotorControl/foc.cpp:85:17
	ldr	r0, [sp, #60]                   @ 4-byte Reload
	adds	r0, #100
	.loc	15 85 24 is_stmt 0              @ ../MotorControl/foc.cpp:85:24
	bl	_ZNKSt3__223__optional_storage_baseIfLb0EE9has_valueB7v180000Ev
	.loc	15 85 36                        @ ../MotorControl/foc.cpp:85:36
	cbz	r0, .LBB16_12
	b	.LBB16_11
.LBB16_11:
	.loc	15 85 40                        @ ../MotorControl/foc.cpp:85:40
	ldr	r0, [sp, #60]                   @ 4-byte Reload
	adds	r0, #108
	.loc	15 85 51                        @ ../MotorControl/foc.cpp:85:51
	bl	_ZNKSt3__223__optional_storage_baseIfLb0EE9has_valueB7v180000Ev
.Ltmp62:
	.loc	15 85 16                        @ ../MotorControl/foc.cpp:85:16
	cbnz	r0, .LBB16_13
	b	.LBB16_12
.LBB16_12:
	.loc	15 0 16                         @ ../MotorControl/foc.cpp:0:16
	movs	r0, #0
.Ltmp63:
	.loc	15 86 9 is_stmt 1               @ ../MotorControl/foc.cpp:86:9
	str	r0, [sp, #300]
	mov.w	r0, #67108864
	str	r0, [sp, #296]
	b	.LBB16_38
.Ltmp64:
.LBB16_13:
	.loc	15 87 17                        @ ../MotorControl/foc.cpp:87:17
	ldr	r0, [sp, #60]                   @ 4-byte Reload
	adds	r0, #120
	.loc	15 87 40 is_stmt 0              @ ../MotorControl/foc.cpp:87:40
	bl	_ZNKSt3__223__optional_storage_baseIfLb0EE9has_valueB7v180000Ev
.Ltmp65:
	.loc	15 87 16                        @ ../MotorControl/foc.cpp:87:16
	cbnz	r0, .LBB16_15
	b	.LBB16_14
.LBB16_14:
	.loc	15 0 16                         @ ../MotorControl/foc.cpp:0:16
	movs	r0, #0
.Ltmp66:
	.loc	15 88 9 is_stmt 1               @ ../MotorControl/foc.cpp:88:9
	str	r0, [sp, #300]
	mov.w	r0, #-2147483648
	str	r0, [sp, #296]
	b	.LBB16_38
.Ltmp67:
.LBB16_15:
	.loc	15 0 9 is_stmt 0                @ ../MotorControl/foc.cpp:0:9
	b	.LBB16_16
.LBB16_16:
	b	.LBB16_17
.LBB16_17:
	.loc	15 91 22 is_stmt 1              @ ../MotorControl/foc.cpp:91:22
	ldr	r0, [sp, #60]                   @ 4-byte Reload
	adds	r0, #88
	.loc	15 91 21 is_stmt 0              @ ../MotorControl/foc.cpp:91:21
	bl	_ZNRSt3__28optionalINS_4pairIffEEEdeB7v180000Ev
	mov	r1, r0
	ldr	r0, [r1]
	ldr	r1, [r1, #4]
	str	r1, [sp, #276]
	str	r0, [sp, #272]
	add	r0, sp, #272
	.loc	15 91 11                        @ ../MotorControl/foc.cpp:91:11
	str	r0, [sp, #48]                   @ 4-byte Spill
	bl	_ZNSt3__23getB7v180000ILj0EffEEONS_13tuple_elementIXT_ENS_4pairIT0_T1_EEE4typeEOS5_
	mov	r1, r0
	ldr	r0, [sp, #48]                   @ 4-byte Reload
	str	r1, [sp, #268]
	.loc	15 91 15                        @ ../MotorControl/foc.cpp:91:15
	bl	_ZNSt3__23getB7v180000ILj1EffEEONS_13tuple_elementIXT_ENS_4pairIT0_T1_EEE4typeEOS5_
	mov	r1, r0
	ldr	r0, [sp, #60]                   @ 4-byte Reload
	str	r1, [sp, #264]
	.loc	15 92 20 is_stmt 1              @ ../MotorControl/foc.cpp:92:20
	adds	r0, #100
	.loc	15 92 19 is_stmt 0              @ ../MotorControl/foc.cpp:92:19
	bl	_ZNRSt3__28optionalIfEdeB7v180000Ev
	mov	r1, r0
	ldr	r0, [sp, #60]                   @ 4-byte Reload
	ldr	r1, [r1]
	.loc	15 92 11                        @ ../MotorControl/foc.cpp:92:11
	str	r1, [sp, #260]
	.loc	15 93 24 is_stmt 1              @ ../MotorControl/foc.cpp:93:24
	adds	r0, #108
	.loc	15 93 23 is_stmt 0              @ ../MotorControl/foc.cpp:93:23
	bl	_ZNRSt3__28optionalIfEdeB7v180000Ev
	mov	r1, r0
	ldr	r0, [sp, #60]                   @ 4-byte Reload
	ldr	r1, [r1]
	.loc	15 93 11                        @ ../MotorControl/foc.cpp:93:11
	str	r1, [sp, #256]
	.loc	15 94 27 is_stmt 1              @ ../MotorControl/foc.cpp:94:27
	adds	r0, #120
	.loc	15 94 26 is_stmt 0              @ ../MotorControl/foc.cpp:94:26
	bl	_ZNRSt3__28optionalIfEdeB7v180000Ev
	ldr	r0, [r0]
	.loc	15 94 11                        @ ../MotorControl/foc.cpp:94:11
	str	r0, [sp, #252]
	add	r0, sp, #240
	.loc	15 96 28 is_stmt 1              @ ../MotorControl/foc.cpp:96:28
	bl	_ZNSt3__28optionalINS_4pairIffEEEC2B7v180000Ev
	ldr	r0, [sp, #60]                   @ 4-byte Reload
.Ltmp68:
	.loc	15 99 9                         @ ../MotorControl/foc.cpp:99:9
	adds	r0, #128
	.loc	15 99 31 is_stmt 0              @ ../MotorControl/foc.cpp:99:31
	bl	_ZNKSt3__223__optional_storage_baseINS_4pairIffEELb0EE9has_valueB7v180000Ev
.Ltmp69:
	.loc	15 99 9                         @ ../MotorControl/foc.cpp:99:9
	cmp	r0, #0
	beq.w	.LBB16_19
	b	.LBB16_18
.LBB16_18:
.Ltmp70:
	.loc	15 100 33 is_stmt 1             @ ../MotorControl/foc.cpp:100:33
	ldr	r0, [sp, #60]                   @ 4-byte Reload
	adds	r0, #128
	.loc	15 100 32 is_stmt 0             @ ../MotorControl/foc.cpp:100:32
	bl	_ZNRSt3__28optionalINS_4pairIffEEEdeB7v180000Ev
	mov	r1, r0
	ldr	r0, [r1]
	ldr	r1, [r1, #4]
	str	r1, [sp, #236]
	str	r0, [sp, #232]
	add	r0, sp, #232
	.loc	15 100 15                       @ ../MotorControl/foc.cpp:100:15
	str	r0, [sp, #28]                   @ 4-byte Spill
	bl	_ZNSt3__23getB7v180000ILj0EffEEONS_13tuple_elementIXT_ENS_4pairIT0_T1_EEE4typeEOS5_
	mov	r1, r0
	ldr	r0, [sp, #28]                   @ 4-byte Reload
	str	r1, [sp, #228]
	.loc	15 100 23                       @ ../MotorControl/foc.cpp:100:23
	bl	_ZNSt3__23getB7v180000ILj1EffEEONS_13tuple_elementIXT_ENS_4pairIT0_T1_EEE4typeEOS5_
	mov	r1, r0
	ldr	r0, [sp, #60]                   @ 4-byte Reload
	str	r1, [sp, #224]
	.loc	15 101 25 is_stmt 1             @ ../MotorControl/foc.cpp:101:25
	vldr	s2, [sp, #260]
	.loc	15 101 33 is_stmt 0             @ ../MotorControl/foc.cpp:101:33
	vldr	s0, [sp, #256]
	.loc	15 101 78                       @ ../MotorControl/foc.cpp:101:78
	ldr	r1, [r0, #68]
	.loc	15 101 63                       @ ../MotorControl/foc.cpp:101:63
	ldr	r0, [r0, #116]
	.loc	15 101 76                       @ ../MotorControl/foc.cpp:101:76
	subs	r0, r0, r1
	.loc	15 101 53                       @ ../MotorControl/foc.cpp:101:53
	vmov	s4, r0
	vcvt.f32.s32	s4, s4
	vldr	s6, .LCPI16_5
	.loc	15 101 95                       @ ../MotorControl/foc.cpp:101:95
	vdiv.f32	s4, s4, s6
	.loc	15 101 31                       @ ../MotorControl/foc.cpp:101:31
	vmul.f32	s0, s0, s4
	vadd.f32	s0, s0, s2
	.loc	15 101 15                       @ ../MotorControl/foc.cpp:101:15
	vstr	s0, [sp, #220]
	.loc	15 102 37 is_stmt 1             @ ../MotorControl/foc.cpp:102:37
	vldr	s0, [sp, #220]
	.loc	15 102 21 is_stmt 0             @ ../MotorControl/foc.cpp:102:21
	bl	our_arm_cos_f32
	.loc	15 102 15                       @ ../MotorControl/foc.cpp:102:15
	vstr	s0, [sp, #216]
	.loc	15 103 37 is_stmt 1             @ ../MotorControl/foc.cpp:103:37
	vldr	s0, [sp, #220]
	.loc	15 103 21 is_stmt 0             @ ../MotorControl/foc.cpp:103:21
	bl	our_arm_sin_f32
	.loc	15 103 15                       @ ../MotorControl/foc.cpp:103:15
	vstr	s0, [sp, #212]
	.loc	15 105 13 is_stmt 1             @ ../MotorControl/foc.cpp:105:13
	vldr	s0, [sp, #216]
	.loc	15 100 15                       @ ../MotorControl/foc.cpp:100:15
	ldr	r0, [sp, #228]
	.loc	15 105 19                       @ ../MotorControl/foc.cpp:105:19
	vldr	s4, [r0]
	.loc	15 105 28 is_stmt 0             @ ../MotorControl/foc.cpp:105:28
	vldr	s2, [sp, #212]
	.loc	15 100 23 is_stmt 1             @ ../MotorControl/foc.cpp:100:23
	ldr	r0, [sp, #224]
	.loc	15 105 34                       @ ../MotorControl/foc.cpp:105:34
	vldr	s6, [r0]
	.loc	15 105 32 is_stmt 0             @ ../MotorControl/foc.cpp:105:32
	vmul.f32	s2, s2, s6
	.loc	15 105 26                       @ ../MotorControl/foc.cpp:105:26
	vmul.f32	s0, s0, s4
	vadd.f32	s0, s0, s2
	.loc	15 105 13                       @ ../MotorControl/foc.cpp:105:13
	vstr	s0, [sp, #200]
	.loc	15 106 13 is_stmt 1             @ ../MotorControl/foc.cpp:106:13
	vldr	s0, [sp, #216]
	.loc	15 100 23                       @ ../MotorControl/foc.cpp:100:23
	ldr	r0, [sp, #224]
	.loc	15 106 19                       @ ../MotorControl/foc.cpp:106:19
	vldr	s4, [r0]
	.loc	15 106 27 is_stmt 0             @ ../MotorControl/foc.cpp:106:27
	vldr	s2, [sp, #212]
	.loc	15 100 15 is_stmt 1             @ ../MotorControl/foc.cpp:100:15
	ldr	r0, [sp, #228]
	.loc	15 106 33                       @ ../MotorControl/foc.cpp:106:33
	vldr	s6, [r0]
	.loc	15 106 31 is_stmt 0             @ ../MotorControl/foc.cpp:106:31
	vmul.f32	s2, s2, s6
	.loc	15 106 25                       @ ../MotorControl/foc.cpp:106:25
	vmul.f32	s0, s0, s4
	vsub.f32	s0, s0, s2
	.loc	15 106 13                       @ ../MotorControl/foc.cpp:106:13
	vstr	s0, [sp, #196]
	add	r0, sp, #204
	str	r0, [sp, #32]                   @ 4-byte Spill
	add	r1, sp, #200
	add	r2, sp, #196
	.loc	15 104 15 is_stmt 1             @ ../MotorControl/foc.cpp:104:15
	bl	_ZNSt3__24pairIffEC2B7v180000IffLi0EEEOT_OT0_
	ldr	r1, [sp, #32]                   @ 4-byte Reload
	add	r0, sp, #240
	.loc	15 104 13 is_stmt 0             @ ../MotorControl/foc.cpp:104:13
	str	r0, [sp, #40]                   @ 4-byte Spill
	bl	_ZNSt3__28optionalINS_4pairIffEEEaSB7v180000IS2_vEERS3_OT_
	ldr	r1, [sp, #60]                   @ 4-byte Reload
                                        @ kill: def $r2 killed $r0
	.loc	15 108 25 is_stmt 1             @ ../MotorControl/foc.cpp:108:25
	ldr	r0, [sp, #40]                   @ 4-byte Reload
	vldr	s0, [r1, #20]
	vstr	s0, [sp, #36]                   @ 4-byte Spill
	.loc	15 108 56 is_stmt 0             @ ../MotorControl/foc.cpp:108:56
	bl	_ZNSt3__28optionalINS_4pairIffEEEptB7v180000Ev
	vldr	s0, [sp, #36]                   @ 4-byte Reload
	ldr	r1, [sp, #60]                   @ 4-byte Reload
	mov	r2, r0
	.loc	15 108 61                       @ ../MotorControl/foc.cpp:108:61
	ldr	r0, [sp, #40]                   @ 4-byte Reload
	vldr	s4, [r2]
	.loc	15 108 69                       @ ../MotorControl/foc.cpp:108:69
	vldr	s2, [r1, #140]
	.loc	15 108 67                       @ ../MotorControl/foc.cpp:108:67
	vsub.f32	s4, s4, s2
	.loc	15 108 22                       @ ../MotorControl/foc.cpp:108:22
	vmul.f32	s0, s0, s4
	vadd.f32	s0, s0, s2
	vstr	s0, [r1, #140]
	.loc	15 109 25 is_stmt 1             @ ../MotorControl/foc.cpp:109:25
	vldr	s0, [r1, #20]
	vstr	s0, [sp, #44]                   @ 4-byte Spill
	.loc	15 109 56 is_stmt 0             @ ../MotorControl/foc.cpp:109:56
	bl	_ZNSt3__28optionalINS_4pairIffEEEptB7v180000Ev
	vldr	s0, [sp, #44]                   @ 4-byte Reload
	mov	r1, r0
	.loc	15 109 61                       @ ../MotorControl/foc.cpp:109:61
	ldr	r0, [sp, #60]                   @ 4-byte Reload
	vldr	s4, [r1, #4]
	.loc	15 109 70                       @ ../MotorControl/foc.cpp:109:70
	vldr	s2, [r0, #144]
	.loc	15 109 68                       @ ../MotorControl/foc.cpp:109:68
	vsub.f32	s4, s4, s2
	.loc	15 109 22                       @ ../MotorControl/foc.cpp:109:22
	vmul.f32	s0, s0, s4
	vadd.f32	s0, s0, s2
	vstr	s0, [r0, #144]
	.loc	15 110 5 is_stmt 1              @ ../MotorControl/foc.cpp:110:5
	b	.LBB16_20
.Ltmp71:
.LBB16_19:
	.loc	15 0 5 is_stmt 0                @ ../MotorControl/foc.cpp:0:5
	ldr	r1, [sp, #60]                   @ 4-byte Reload
	movs	r0, #0
.Ltmp72:
	.loc	15 111 22 is_stmt 1             @ ../MotorControl/foc.cpp:111:22
	str.w	r0, [r1, #140]
	.loc	15 112 22                       @ ../MotorControl/foc.cpp:112:22
	str.w	r0, [r1, #144]
	b	.LBB16_20
.Ltmp73:
.LBB16_20:
	.loc	15 116 38                       @ ../MotorControl/foc.cpp:116:38
	ldr	r0, [sp, #60]                   @ 4-byte Reload
	vldr	s0, [sp, #252]
	vldr	s2, .LCPI16_1
	.loc	15 116 36 is_stmt 0             @ ../MotorControl/foc.cpp:116:36
	vmul.f32	s0, s0, s2
	.loc	15 116 11                       @ ../MotorControl/foc.cpp:116:11
	vstr	s0, [sp, #192]
	.loc	15 117 29 is_stmt 1             @ ../MotorControl/foc.cpp:117:29
	vldr	s2, [sp, #192]
	vmov.f32	s0, #1.000000e+00
	.loc	15 117 27 is_stmt 0             @ ../MotorControl/foc.cpp:117:27
	vdiv.f32	s0, s0, s2
	.loc	15 117 11                       @ ../MotorControl/foc.cpp:117:11
	vstr	s0, [sp, #188]
.Ltmp74:
	.loc	15 121 9 is_stmt 1              @ ../MotorControl/foc.cpp:121:9
	ldrb.w	r0, [r0, #72]
.Ltmp75:
	.loc	15 121 9 is_stmt 0              @ ../MotorControl/foc.cpp:121:9
	lsls	r0, r0, #31
	cmp	r0, #0
	beq.w	.LBB16_34
	b	.LBB16_21
.LBB16_21:
.Ltmp76:
	.loc	15 124 14 is_stmt 1             @ ../MotorControl/foc.cpp:124:14
	ldr	r0, [sp, #60]                   @ 4-byte Reload
	adds	r0, #8
	.loc	15 124 24 is_stmt 0             @ ../MotorControl/foc.cpp:124:24
	bl	_ZNKSt3__223__optional_storage_baseINS_4pairIffEELb0EE9has_valueB7v180000Ev
.Ltmp77:
	.loc	15 124 13                       @ ../MotorControl/foc.cpp:124:13
	cbnz	r0, .LBB16_23
	b	.LBB16_22
.LBB16_22:
	.loc	15 0 13                         @ ../MotorControl/foc.cpp:0:13
	movs	r0, #2
.Ltmp78:
	.loc	15 125 13 is_stmt 1             @ ../MotorControl/foc.cpp:125:13
	str	r0, [sp, #300]
	movs	r0, #0
	str	r0, [sp, #296]
	b	.LBB16_38
.Ltmp79:
.LBB16_23:
	.loc	15 0 13 is_stmt 0               @ ../MotorControl/foc.cpp:0:13
	add	r0, sp, #240
.Ltmp80:
	.loc	15 126 25 is_stmt 1             @ ../MotorControl/foc.cpp:126:25
	bl	_ZNKSt3__223__optional_storage_baseINS_4pairIffEELb0EE9has_valueB7v180000Ev
.Ltmp81:
	.loc	15 126 20 is_stmt 0             @ ../MotorControl/foc.cpp:126:20
	cbnz	r0, .LBB16_25
	b	.LBB16_24
.LBB16_24:
	.loc	15 0 20                         @ ../MotorControl/foc.cpp:0:20
	movs	r0, #0
.Ltmp82:
	.loc	15 127 13 is_stmt 1             @ ../MotorControl/foc.cpp:127:13
	str	r0, [sp, #300]
	mov.w	r0, #1073741824
	str	r0, [sp, #296]
	b	.LBB16_38
.Ltmp83:
.LBB16_25:
	.loc	15 128 21                       @ ../MotorControl/foc.cpp:128:21
	ldr	r0, [sp, #60]                   @ 4-byte Reload
	adds	r0, #76
	.loc	15 128 35 is_stmt 0             @ ../MotorControl/foc.cpp:128:35
	bl	_ZNKSt3__223__optional_storage_baseINS_4pairIffEELb0EE9has_valueB7v180000Ev
.Ltmp84:
	.loc	15 128 20                       @ ../MotorControl/foc.cpp:128:20
	cbnz	r0, .LBB16_27
	b	.LBB16_26
.LBB16_26:
	.loc	15 0 20                         @ ../MotorControl/foc.cpp:0:20
	movs	r0, #0
.Ltmp85:
	.loc	15 129 13 is_stmt 1             @ ../MotorControl/foc.cpp:129:13
	str	r0, [sp, #300]
	mov.w	r0, #536870912
	str	r0, [sp, #296]
	b	.LBB16_38
.Ltmp86:
.LBB16_27:
	.loc	15 0 13 is_stmt 0               @ ../MotorControl/foc.cpp:0:13
	b	.LBB16_28
.LBB16_28:
	b	.LBB16_29
.LBB16_29:
	.loc	15 132 34 is_stmt 1             @ ../MotorControl/foc.cpp:132:34
	ldr	r0, [sp, #60]                   @ 4-byte Reload
	adds	r0, #8
	.loc	15 132 33 is_stmt 0             @ ../MotorControl/foc.cpp:132:33
	bl	_ZNRSt3__28optionalINS_4pairIffEEEdeB7v180000Ev
	mov	r1, r0
	ldr	r0, [r1]
	ldr	r1, [r1, #4]
	str	r1, [sp, #176]
	str	r0, [sp, #172]
	add	r0, sp, #172
	.loc	15 132 15                       @ ../MotorControl/foc.cpp:132:15
	str	r0, [sp, #16]                   @ 4-byte Spill
	bl	_ZNSt3__23getB7v180000ILj0EffEEONS_13tuple_elementIXT_ENS_4pairIT0_T1_EEE4typeEOS5_
	mov	r1, r0
	ldr	r0, [sp, #16]                   @ 4-byte Reload
	str	r1, [sp, #168]
	.loc	15 132 23                       @ ../MotorControl/foc.cpp:132:23
	bl	_ZNSt3__23getB7v180000ILj1EffEEONS_13tuple_elementIXT_ENS_4pairIT0_T1_EEE4typeEOS5_
	str	r0, [sp, #164]
	add	r0, sp, #240
	.loc	15 133 25 is_stmt 1             @ ../MotorControl/foc.cpp:133:25
	bl	_ZNRSt3__28optionalINS_4pairIffEEEdeB7v180000Ev
	mov	r1, r0
	ldr	r0, [r1]
	ldr	r1, [r1, #4]
	str	r1, [sp, #160]
	str	r0, [sp, #156]
	add	r0, sp, #156
	.loc	15 133 15 is_stmt 0             @ ../MotorControl/foc.cpp:133:15
	str	r0, [sp, #20]                   @ 4-byte Spill
	bl	_ZNSt3__23getB7v180000ILj0EffEEONS_13tuple_elementIXT_ENS_4pairIT0_T1_EEE4typeEOS5_
	mov	r1, r0
	ldr	r0, [sp, #20]                   @ 4-byte Reload
	str	r1, [sp, #152]
	.loc	15 133 19                       @ ../MotorControl/foc.cpp:133:19
	bl	_ZNSt3__23getB7v180000ILj1EffEEONS_13tuple_elementIXT_ENS_4pairIT0_T1_EEE4typeEOS5_
	mov	r1, r0
	ldr	r0, [sp, #60]                   @ 4-byte Reload
	str	r1, [sp, #148]
	.loc	15 134 44 is_stmt 1             @ ../MotorControl/foc.cpp:134:44
	adds	r0, #76
	.loc	15 134 43 is_stmt 0             @ ../MotorControl/foc.cpp:134:43
	bl	_ZNRSt3__28optionalINS_4pairIffEEEdeB7v180000Ev
	mov	r1, r0
	ldr	r0, [r1]
	ldr	r1, [r1, #4]
	str	r1, [sp, #144]
	str	r0, [sp, #140]
	add	r0, sp, #140
	.loc	15 134 15                       @ ../MotorControl/foc.cpp:134:15
	str	r0, [sp, #24]                   @ 4-byte Spill
	bl	_ZNSt3__23getB7v180000ILj0EffEEONS_13tuple_elementIXT_ENS_4pairIT0_T1_EEE4typeEOS5_
	mov	r1, r0
	ldr	r0, [sp, #24]                   @ 4-byte Reload
	str	r1, [sp, #136]
	.loc	15 134 28                       @ ../MotorControl/foc.cpp:134:28
	bl	_ZNSt3__23getB7v180000ILj1EffEEONS_13tuple_elementIXT_ENS_4pairIT0_T1_EEE4typeEOS5_
	mov	r1, r0
	ldr	r0, [sp, #60]                   @ 4-byte Reload
	str	r1, [sp, #132]
	.loc	15 134 15                       @ ../MotorControl/foc.cpp:134:15
	ldr	r1, [sp, #136]
	.loc	15 136 24 is_stmt 1             @ ../MotorControl/foc.cpp:136:24
	vldr	s0, [r1]
	.loc	15 133 15                       @ ../MotorControl/foc.cpp:133:15
	ldr	r1, [sp, #152]
	.loc	15 136 38                       @ ../MotorControl/foc.cpp:136:38
	vldr	s2, [r1]
	.loc	15 136 36 is_stmt 0             @ ../MotorControl/foc.cpp:136:36
	vsub.f32	s0, s0, s2
	.loc	15 136 15                       @ ../MotorControl/foc.cpp:136:15
	vstr	s0, [sp, #128]
	.loc	15 134 28 is_stmt 1             @ ../MotorControl/foc.cpp:134:28
	ldr	r1, [sp, #132]
	.loc	15 137 24                       @ ../MotorControl/foc.cpp:137:24
	vldr	s0, [r1]
	.loc	15 133 19                       @ ../MotorControl/foc.cpp:133:19
	ldr	r1, [sp, #148]
	.loc	15 137 38                       @ ../MotorControl/foc.cpp:137:38
	vldr	s2, [r1]
	.loc	15 137 36 is_stmt 0             @ ../MotorControl/foc.cpp:137:36
	vsub.f32	s0, s0, s2
	.loc	15 137 15                       @ ../MotorControl/foc.cpp:137:15
	vstr	s0, [sp, #124]
	.loc	15 140 17 is_stmt 1             @ ../MotorControl/foc.cpp:140:17
	vldr	s0, [sp, #188]
	.loc	15 91 11                        @ ../MotorControl/foc.cpp:91:11
	ldr	r1, [sp, #268]
	.loc	15 140 29                       @ ../MotorControl/foc.cpp:140:29
	vldr	s2, [r1]
	.loc	15 140 34 is_stmt 0             @ ../MotorControl/foc.cpp:140:34
	vldr	s4, [r0, #148]
	.loc	15 140 32                       @ ../MotorControl/foc.cpp:140:32
	vadd.f32	s4, s2, s4
	.loc	15 140 66                       @ ../MotorControl/foc.cpp:140:66
	vldr	s2, [sp, #128]
	.loc	15 132 15 is_stmt 1             @ ../MotorControl/foc.cpp:132:15
	ldr	r1, [sp, #168]
	.loc	15 140 75                       @ ../MotorControl/foc.cpp:140:75
	vldr	s6, [r1]
	.loc	15 140 64 is_stmt 0             @ ../MotorControl/foc.cpp:140:64
	vmul.f32	s2, s2, s6
	vadd.f32	s2, s2, s4
	.loc	15 140 26                       @ ../MotorControl/foc.cpp:140:26
	vmul.f32	s0, s0, s2
	.loc	15 140 15                       @ ../MotorControl/foc.cpp:140:15
	vstr	s0, [sp, #184]
	.loc	15 141 17 is_stmt 1             @ ../MotorControl/foc.cpp:141:17
	vldr	s0, [sp, #188]
	.loc	15 91 15                        @ ../MotorControl/foc.cpp:91:15
	ldr	r1, [sp, #264]
	.loc	15 141 29                       @ ../MotorControl/foc.cpp:141:29
	vldr	s2, [r1]
	.loc	15 141 34 is_stmt 0             @ ../MotorControl/foc.cpp:141:34
	vldr	s4, [r0, #152]
	.loc	15 141 32                       @ ../MotorControl/foc.cpp:141:32
	vadd.f32	s4, s2, s4
	.loc	15 141 66                       @ ../MotorControl/foc.cpp:141:66
	vldr	s2, [sp, #124]
	.loc	15 132 15 is_stmt 1             @ ../MotorControl/foc.cpp:132:15
	ldr	r0, [sp, #168]
	.loc	15 141 75                       @ ../MotorControl/foc.cpp:141:75
	vldr	s6, [r0]
	.loc	15 141 64 is_stmt 0             @ ../MotorControl/foc.cpp:141:64
	vmul.f32	s2, s2, s6
	vadd.f32	s2, s2, s4
	.loc	15 141 26                       @ ../MotorControl/foc.cpp:141:26
	vmul.f32	s0, s0, s2
	.loc	15 141 15                       @ ../MotorControl/foc.cpp:141:15
	vstr	s0, [sp, #180]
	.loc	15 145 71 is_stmt 1             @ ../MotorControl/foc.cpp:145:71
	vldr	s0, [sp, #184]
	.loc	15 145 87 is_stmt 0             @ ../MotorControl/foc.cpp:145:87
	vldr	s2, [sp, #180]
	.loc	15 145 93                       @ ../MotorControl/foc.cpp:145:93
	vmul.f32	s2, s2, s2
	.loc	15 145 85                       @ ../MotorControl/foc.cpp:145:85
	vmul.f32	s0, s0, s0
	vadd.f32	s0, s0, s2
	.loc	15 145 61                       @ ../MotorControl/foc.cpp:145:61
	bl	_ZNSt3__26__math4sqrtB7v180000Ef
	vmov.f32	s2, s0
	vldr	s0, .LCPI16_2
	.loc	15 145 59                       @ ../MotorControl/foc.cpp:145:59
	vdiv.f32	s0, s0, s2
	.loc	15 145 15                       @ ../MotorControl/foc.cpp:145:15
	vstr	s0, [sp, #120]
.Ltmp87:
	.loc	15 146 13 is_stmt 1             @ ../MotorControl/foc.cpp:146:13
	vldr	s0, [sp, #120]
	vmov.f32	s2, #1.000000e+00
.Ltmp88:
	.loc	15 146 13 is_stmt 0             @ ../MotorControl/foc.cpp:146:13
	vcmp.f32	s0, s2
	vmrs	APSR_nzcv, fpscr
	bge	.LBB16_31
	b	.LBB16_30
.LBB16_30:
.Ltmp89:
	.loc	15 147 22 is_stmt 1             @ ../MotorControl/foc.cpp:147:22
	ldr	r0, [sp, #60]                   @ 4-byte Reload
	vldr	s2, [sp, #120]
	.loc	15 147 19 is_stmt 0             @ ../MotorControl/foc.cpp:147:19
	vldr	s0, [sp, #184]
	vmul.f32	s0, s0, s2
	vstr	s0, [sp, #184]
	.loc	15 148 22 is_stmt 1             @ ../MotorControl/foc.cpp:148:22
	vldr	s2, [sp, #120]
	.loc	15 148 19 is_stmt 0             @ ../MotorControl/foc.cpp:148:19
	vldr	s0, [sp, #180]
	vmul.f32	s0, s0, s2
	vstr	s0, [sp, #180]
	.loc	15 150 43 is_stmt 1             @ ../MotorControl/foc.cpp:150:43
	vldr	s0, [r0, #148]
	vldr	s2, .LCPI16_4
	vmul.f32	s0, s0, s2
	vstr	s0, [r0, #148]
	.loc	15 151 43                       @ ../MotorControl/foc.cpp:151:43
	vldr	s0, [r0, #152]
	vmul.f32	s0, s0, s2
	vstr	s0, [r0, #152]
	.loc	15 152 9                        @ ../MotorControl/foc.cpp:152:9
	b	.LBB16_32
.Ltmp90:
.LBB16_31:
	.loc	15 153 46                       @ ../MotorControl/foc.cpp:153:46
	ldr	r0, [sp, #60]                   @ 4-byte Reload
	vldr	s0, [sp, #128]
	.loc	15 132 23                       @ ../MotorControl/foc.cpp:132:23
	ldr	r1, [sp, #164]
	.loc	15 153 56                       @ ../MotorControl/foc.cpp:153:56
	vldr	s2, [r1]
	vldr	s4, .LCPI16_3
	.loc	15 153 63 is_stmt 0             @ ../MotorControl/foc.cpp:153:63
	vmul.f32	s6, s2, s4
	.loc	15 153 43                       @ ../MotorControl/foc.cpp:153:43
	vldr	s2, [r0, #148]
	vmul.f32	s0, s0, s6
	vadd.f32	s0, s0, s2
	vstr	s0, [r0, #148]
	.loc	15 154 46 is_stmt 1             @ ../MotorControl/foc.cpp:154:46
	vldr	s0, [sp, #124]
	.loc	15 132 23                       @ ../MotorControl/foc.cpp:132:23
	ldr	r1, [sp, #164]
	.loc	15 154 56                       @ ../MotorControl/foc.cpp:154:56
	vldr	s2, [r1]
	.loc	15 154 63 is_stmt 0             @ ../MotorControl/foc.cpp:154:63
	vmul.f32	s4, s2, s4
	.loc	15 154 43                       @ ../MotorControl/foc.cpp:154:43
	vldr	s2, [r0, #152]
	vmul.f32	s0, s0, s4
	vadd.f32	s0, s0, s2
	vstr	s0, [r0, #152]
	b	.LBB16_32
.Ltmp91:
.LBB16_32:
	.loc	15 157 5 is_stmt 1              @ ../MotorControl/foc.cpp:157:5
	b	.LBB16_35
.Ltmp92:
	.p2align	2
@ %bb.33:
	.loc	15 0 5 is_stmt 0                @ ../MotorControl/foc.cpp:0:5
.LCPI16_5:
	.long	0x4d2037a0                      @ float 1.68E+8
	.p2align	1
.LBB16_34:
.Ltmp93:
	.loc	15 159 17 is_stmt 1             @ ../MotorControl/foc.cpp:159:17
	vldr	s0, [sp, #188]
	.loc	15 91 11                        @ ../MotorControl/foc.cpp:91:11
	ldr	r0, [sp, #268]
	.loc	15 159 28                       @ ../MotorControl/foc.cpp:159:28
	vldr	s2, [r0]
	.loc	15 159 26 is_stmt 0             @ ../MotorControl/foc.cpp:159:26
	vmul.f32	s0, s0, s2
	.loc	15 159 15                       @ ../MotorControl/foc.cpp:159:15
	vstr	s0, [sp, #184]
	.loc	15 160 17 is_stmt 1             @ ../MotorControl/foc.cpp:160:17
	vldr	s0, [sp, #188]
	.loc	15 91 15                        @ ../MotorControl/foc.cpp:91:15
	ldr	r0, [sp, #264]
	.loc	15 160 28                       @ ../MotorControl/foc.cpp:160:28
	vldr	s2, [r0]
	.loc	15 160 26 is_stmt 0             @ ../MotorControl/foc.cpp:160:26
	vmul.f32	s0, s0, s2
	.loc	15 160 15                       @ ../MotorControl/foc.cpp:160:15
	vstr	s0, [sp, #180]
	b	.LBB16_35
.Ltmp94:
.LBB16_35:
	.loc	15 164 23 is_stmt 1             @ ../MotorControl/foc.cpp:164:23
	ldr	r1, [sp, #60]                   @ 4-byte Reload
	vldr	s2, [sp, #260]
	.loc	15 164 31 is_stmt 0             @ ../MotorControl/foc.cpp:164:31
	vldr	s0, [sp, #256]
	.loc	15 164 61                       @ ../MotorControl/foc.cpp:164:61
	ldr	r0, [sp, #288]
	.loc	15 164 80                       @ ../MotorControl/foc.cpp:164:80
	ldr	r1, [r1, #68]
	.loc	15 164 78                       @ ../MotorControl/foc.cpp:164:78
	subs	r0, r0, r1
	.loc	15 164 51                       @ ../MotorControl/foc.cpp:164:51
	vmov	s4, r0
	vcvt.f32.s32	s4, s4
	vldr	s6, .LCPI16_0
	.loc	15 164 97                       @ ../MotorControl/foc.cpp:164:97
	vdiv.f32	s4, s4, s6
	.loc	15 164 29                       @ ../MotorControl/foc.cpp:164:29
	vmul.f32	s0, s0, s4
	vadd.f32	s0, s0, s2
	.loc	15 164 11                       @ ../MotorControl/foc.cpp:164:11
	vstr	s0, [sp, #116]
	.loc	15 165 33 is_stmt 1             @ ../MotorControl/foc.cpp:165:33
	vldr	s0, [sp, #116]
	.loc	15 165 17 is_stmt 0             @ ../MotorControl/foc.cpp:165:17
	bl	our_arm_cos_f32
	.loc	15 165 11                       @ ../MotorControl/foc.cpp:165:11
	vstr	s0, [sp, #112]
	.loc	15 166 33 is_stmt 1             @ ../MotorControl/foc.cpp:166:33
	vldr	s0, [sp, #116]
	.loc	15 166 17 is_stmt 0             @ ../MotorControl/foc.cpp:166:17
	bl	our_arm_sin_f32
	ldr	r0, [sp, #60]                   @ 4-byte Reload
	.loc	15 166 11                       @ ../MotorControl/foc.cpp:166:11
	vstr	s0, [sp, #108]
	.loc	15 167 23 is_stmt 1             @ ../MotorControl/foc.cpp:167:23
	vldr	s0, [sp, #112]
	.loc	15 167 29 is_stmt 0             @ ../MotorControl/foc.cpp:167:29
	vldr	s4, [sp, #184]
	.loc	15 167 37                       @ ../MotorControl/foc.cpp:167:37
	vldr	s2, [sp, #108]
	.loc	15 167 43                       @ ../MotorControl/foc.cpp:167:43
	vldr	s6, [sp, #180]
	.loc	15 167 41                       @ ../MotorControl/foc.cpp:167:41
	vmul.f32	s2, s2, s6
	.loc	15 167 35                       @ ../MotorControl/foc.cpp:167:35
	vmul.f32	s0, s0, s4
	vsub.f32	s0, s0, s2
	.loc	15 167 11                       @ ../MotorControl/foc.cpp:167:11
	vstr	s0, [sp, #104]
	.loc	15 168 22 is_stmt 1             @ ../MotorControl/foc.cpp:168:22
	vldr	s0, [sp, #112]
	.loc	15 168 28 is_stmt 0             @ ../MotorControl/foc.cpp:168:28
	vldr	s4, [sp, #180]
	.loc	15 168 36                       @ ../MotorControl/foc.cpp:168:36
	vldr	s2, [sp, #108]
	.loc	15 168 42                       @ ../MotorControl/foc.cpp:168:42
	vldr	s6, [sp, #184]
	.loc	15 168 40                       @ ../MotorControl/foc.cpp:168:40
	vmul.f32	s2, s2, s6
	.loc	15 168 34                       @ ../MotorControl/foc.cpp:168:34
	vmul.f32	s0, s0, s4
	vadd.f32	s0, s0, s2
	.loc	15 168 11                       @ ../MotorControl/foc.cpp:168:11
	vstr	s0, [sp, #100]
	.loc	15 171 22 is_stmt 1             @ ../MotorControl/foc.cpp:171:22
	vldr	s0, [sp, #192]
	.loc	15 171 33 is_stmt 0             @ ../MotorControl/foc.cpp:171:33
	vldr	s2, [sp, #104]
	.loc	15 171 31                       @ ../MotorControl/foc.cpp:171:31
	vmul.f32	s0, s0, s2
	.loc	15 171 20                       @ ../MotorControl/foc.cpp:171:20
	vstr	s0, [r0, #156]
	.loc	15 172 21 is_stmt 1             @ ../MotorControl/foc.cpp:172:21
	vldr	s0, [sp, #192]
	.loc	15 172 32 is_stmt 0             @ ../MotorControl/foc.cpp:172:32
	vldr	s2, [sp, #100]
	.loc	15 172 30                       @ ../MotorControl/foc.cpp:172:30
	vmul.f32	s0, s0, s2
	.loc	15 172 19                       @ ../MotorControl/foc.cpp:172:19
	vstr	s0, [r0, #160]
	add	r0, sp, #92
	str	r0, [sp, #12]                   @ 4-byte Spill
	add	r1, sp, #104
	add	r2, sp, #100
	.loc	15 174 23 is_stmt 1             @ ../MotorControl/foc.cpp:174:23
	bl	_ZNSt3__24pairIffEC2B7v180000IRfS3_Li0EEEOT_OT0_
	ldr	r1, [sp, #12]                   @ 4-byte Reload
	.loc	15 174 6 is_stmt 0              @ ../MotorControl/foc.cpp:174:6
	ldr	r0, [sp, #284]
	.loc	15 174 21                       @ ../MotorControl/foc.cpp:174:21
	bl	_ZNSt3__28optionalINS_4pairIffEEEaSB7v180000IS2_vEERS3_OT_
	add	r0, sp, #240
.Ltmp95:
	.loc	15 176 13 is_stmt 1             @ ../MotorControl/foc.cpp:176:13
	bl	_ZNKSt3__223__optional_storage_baseINS_4pairIffEELb0EE9has_valueB7v180000Ev
.Ltmp96:
	.loc	15 176 9 is_stmt 0              @ ../MotorControl/foc.cpp:176:9
	cmp	r0, #0
	beq	.LBB16_37
	b	.LBB16_36
.LBB16_36:
	.loc	15 0 9                          @ ../MotorControl/foc.cpp:0:9
	add	r0, sp, #240
.Ltmp97:
	.loc	15 177 25 is_stmt 1             @ ../MotorControl/foc.cpp:177:25
	bl	_ZNRSt3__28optionalINS_4pairIffEEEdeB7v180000Ev
	mov	r1, r0
	ldr	r0, [r1]
	ldr	r1, [r1, #4]
	str	r1, [sp, #88]
	str	r0, [sp, #84]
	add	r0, sp, #84
	.loc	15 177 15 is_stmt 0             @ ../MotorControl/foc.cpp:177:15
	str	r0, [sp, #4]                    @ 4-byte Spill
	bl	_ZNSt3__23getB7v180000ILj0EffEEONS_13tuple_elementIXT_ENS_4pairIT0_T1_EEE4typeEOS5_
	mov	r1, r0
	ldr	r0, [sp, #4]                    @ 4-byte Reload
	str	r1, [sp, #80]
	.loc	15 177 19                       @ ../MotorControl/foc.cpp:177:19
	bl	_ZNSt3__23getB7v180000ILj1EffEEONS_13tuple_elementIXT_ENS_4pairIT0_T1_EEE4typeEOS5_
	str	r0, [sp, #76]
	.loc	15 178 17 is_stmt 1             @ ../MotorControl/foc.cpp:178:17
	vldr	s0, [sp, #184]
	.loc	15 177 15                       @ ../MotorControl/foc.cpp:177:15
	ldr	r0, [sp, #80]
	.loc	15 178 25                       @ ../MotorControl/foc.cpp:178:25
	vldr	s4, [r0]
	.loc	15 178 30 is_stmt 0             @ ../MotorControl/foc.cpp:178:30
	vldr	s2, [sp, #180]
	.loc	15 177 19 is_stmt 1             @ ../MotorControl/foc.cpp:177:19
	ldr	r0, [sp, #76]
	.loc	15 178 38                       @ ../MotorControl/foc.cpp:178:38
	vldr	s6, [r0]
	.loc	15 178 36 is_stmt 0             @ ../MotorControl/foc.cpp:178:36
	vmul.f32	s2, s2, s6
	.loc	15 178 28                       @ ../MotorControl/foc.cpp:178:28
	vmul.f32	s0, s0, s4
	vadd.f32	s0, s0, s2
	.loc	15 178 17                       @ ../MotorControl/foc.cpp:178:17
	vstr	s0, [sp, #64]
	add	r0, sp, #68
	add	r1, sp, #64
	bl	_ZNSt3__28optionalIfEC2B7v180000IfLi0EEEOT_
	.loc	15 178 10                       @ ../MotorControl/foc.cpp:178:10
	ldr	r1, [sp, #280]
	.loc	15 178 15                       @ ../MotorControl/foc.cpp:178:15
	ldrb.w	r0, [sp, #72]
	strb	r0, [r1, #4]
	ldr	r0, [sp, #68]
	str	r0, [r1]
	.loc	15 179 18 is_stmt 1             @ ../MotorControl/foc.cpp:179:18
	vldr	s0, [sp, #252]
	vstr	s0, [sp, #8]                    @ 4-byte Spill
	.loc	15 179 35 is_stmt 0             @ ../MotorControl/foc.cpp:179:35
	ldr	r0, [sp, #280]
	.loc	15 179 41                       @ ../MotorControl/foc.cpp:179:41
	bl	_ZNRSt3__28optionalIfE5valueB7v180000Ev
	vldr	s0, [sp, #8]                    @ 4-byte Reload
	mov	r1, r0
	ldr	r0, [sp, #60]                   @ 4-byte Reload
	vldr	s2, [r1]
	.loc	15 179 31                       @ ../MotorControl/foc.cpp:179:31
	vmul.f32	s0, s0, s2
	.loc	15 179 16                       @ ../MotorControl/foc.cpp:179:16
	vstr	s0, [r0, #164]
	.loc	15 180 5 is_stmt 1              @ ../MotorControl/foc.cpp:180:5
	b	.LBB16_37
.Ltmp98:
.LBB16_37:
	.loc	15 0 5 is_stmt 0                @ ../MotorControl/foc.cpp:0:5
	movs	r0, #0
	.loc	15 182 5 is_stmt 1              @ ../MotorControl/foc.cpp:182:5
	str	r0, [sp, #300]
	str	r0, [sp, #296]
	b	.LBB16_38
.LBB16_38:
	.loc	15 183 1                        @ ../MotorControl/foc.cpp:183:1
	ldr	r0, [sp, #296]
	ldr	r1, [sp, #300]
	.loc	15 183 1 epilogue_begin is_stmt 0 @ ../MotorControl/foc.cpp:183:1
	add	sp, #304
	pop	{r7, pc}
.Ltmp99:
	.p2align	2
@ %bb.39:
	.loc	15 0 1                          @ ../MotorControl/foc.cpp:0:1
.LCPI16_0:
	.long	0x4d2037a0                      @ float 1.68E+8
.LCPI16_1:
	.long	0x3f2aaaab                      @ float 0.666666686
.LCPI16_2:
	.long	0x3f315cac                      @ float 0.692820311
.LCPI16_3:
	.long	0x3903126f                      @ float 1.25000006E-4
.LCPI16_4:
	.long	0x3f7d70a4                      @ float 0.990000009
.Lfunc_end16:
	.size	_ZN23FieldOrientedController21get_alpha_beta_outputEjPNSt3__28optionalINS0_4pairIffEEEEPNS1_IfEE, .Lfunc_end16-_ZN23FieldOrientedController21get_alpha_beta_outputEjPNSt3__28optionalINS0_4pairIffEEEEPNS1_IfEE
	.cfi_endproc
	.cantunwind
	.fnend
                                        @ -- End function
	.section	.text._ZNKSt3__223__optional_storage_baseIfLb0EE9has_valueB7v180000Ev,"axG",%progbits,_ZNKSt3__223__optional_storage_baseIfLb0EE9has_valueB7v180000Ev,comdat
	.hidden	_ZNKSt3__223__optional_storage_baseIfLb0EE9has_valueB7v180000Ev @ -- Begin function _ZNKSt3__223__optional_storage_baseIfLb0EE9has_valueB7v180000Ev
	.weak	_ZNKSt3__223__optional_storage_baseIfLb0EE9has_valueB7v180000Ev
	.p2align	2
	.type	_ZNKSt3__223__optional_storage_baseIfLb0EE9has_valueB7v180000Ev,%function
	.code	16                              @ @_ZNKSt3__223__optional_storage_baseIfLb0EE9has_valueB7v180000Ev
	.thumb_func
_ZNKSt3__223__optional_storage_baseIfLb0EE9has_valueB7v180000Ev:
.Lfunc_begin17:
	.loc	3 386 0 is_stmt 1               @ D:\Embed\MDK\MDK\ARM\ARMCompilerV621\Bin\..\include\libcxx\optional:386:0
	.fnstart
	.cfi_startproc
@ %bb.0:
	.pad	#4
	sub	sp, #4
	.cfi_def_cfa_offset 4
	str	r0, [sp]
	ldr	r0, [sp]
.Ltmp100:
	.loc	3 387 9 prologue_end            @ D:\Embed\MDK\MDK\ARM\ARMCompilerV621\Bin\..\include\libcxx\optional:387:9
	ldrb	r0, [r0, #4]
	and	r0, r0, #1
	.loc	3 387 9 epilogue_begin is_stmt 0 @ D:\Embed\MDK\MDK\ARM\ARMCompilerV621\Bin\..\include\libcxx\optional:387:9
	add	sp, #4
	bx	lr
.Ltmp101:
.Lfunc_end17:
	.size	_ZNKSt3__223__optional_storage_baseIfLb0EE9has_valueB7v180000Ev, .Lfunc_end17-_ZNKSt3__223__optional_storage_baseIfLb0EE9has_valueB7v180000Ev
	.cfi_endproc
	.cantunwind
	.fnend
                                        @ -- End function
	.section	.text._ZNRSt3__28optionalINS_4pairIffEEEdeB7v180000Ev,"axG",%progbits,_ZNRSt3__28optionalINS_4pairIffEEEdeB7v180000Ev,comdat
	.hidden	_ZNRSt3__28optionalINS_4pairIffEEEdeB7v180000Ev @ -- Begin function _ZNRSt3__28optionalINS_4pairIffEEEdeB7v180000Ev
	.weak	_ZNRSt3__28optionalINS_4pairIffEEEdeB7v180000Ev
	.p2align	2
	.type	_ZNRSt3__28optionalINS_4pairIffEEEdeB7v180000Ev,%function
	.code	16                              @ @_ZNRSt3__28optionalINS_4pairIffEEEdeB7v180000Ev
	.thumb_func
_ZNRSt3__28optionalINS_4pairIffEEEdeB7v180000Ev:
.Lfunc_begin18:
	.loc	3 1026 0 is_stmt 1              @ D:\Embed\MDK\MDK\ARM\ARMCompilerV621\Bin\..\include\libcxx\optional:1026:0
	.fnstart
	.cfi_startproc
@ %bb.0:
	.save	{r7, lr}
	push	{r7, lr}
	.cfi_def_cfa_offset 8
	.cfi_offset lr, -4
	.cfi_offset r7, -8
	.pad	#8
	sub	sp, #8
	.cfi_def_cfa_offset 16
	str	r0, [sp, #4]
	ldr	r0, [sp, #4]
.Ltmp102:
	.loc	3 1028 22 prologue_end          @ D:\Embed\MDK\MDK\ARM\ARMCompilerV621\Bin\..\include\libcxx\optional:1028:22
	bl	_ZNRSt3__223__optional_storage_baseINS_4pairIffEELb0EE5__getB7v180000Ev
	.loc	3 1028 9 epilogue_begin is_stmt 0 @ D:\Embed\MDK\MDK\ARM\ARMCompilerV621\Bin\..\include\libcxx\optional:1028:9
	add	sp, #8
	pop	{r7, pc}
.Ltmp103:
.Lfunc_end18:
	.size	_ZNRSt3__28optionalINS_4pairIffEEEdeB7v180000Ev, .Lfunc_end18-_ZNRSt3__28optionalINS_4pairIffEEEdeB7v180000Ev
	.cfi_endproc
	.cantunwind
	.fnend
                                        @ -- End function
	.section	.text._ZNSt3__23getB7v180000ILj0EffEEONS_13tuple_elementIXT_ENS_4pairIT0_T1_EEE4typeEOS5_,"axG",%progbits,_ZNSt3__23getB7v180000ILj0EffEEONS_13tuple_elementIXT_ENS_4pairIT0_T1_EEE4typeEOS5_,comdat
	.hidden	_ZNSt3__23getB7v180000ILj0EffEEONS_13tuple_elementIXT_ENS_4pairIT0_T1_EEE4typeEOS5_ @ -- Begin function _ZNSt3__23getB7v180000ILj0EffEEONS_13tuple_elementIXT_ENS_4pairIT0_T1_EEE4typeEOS5_
	.weak	_ZNSt3__23getB7v180000ILj0EffEEONS_13tuple_elementIXT_ENS_4pairIT0_T1_EEE4typeEOS5_
	.p2align	2
	.type	_ZNSt3__23getB7v180000ILj0EffEEONS_13tuple_elementIXT_ENS_4pairIT0_T1_EEE4typeEOS5_,%function
	.code	16                              @ @_ZNSt3__23getB7v180000ILj0EffEEONS_13tuple_elementIXT_ENS_4pairIT0_T1_EEE4typeEOS5_
	.thumb_func
_ZNSt3__23getB7v180000ILj0EffEEONS_13tuple_elementIXT_ENS_4pairIT0_T1_EEE4typeEOS5_:
.Lfunc_begin19:
	.loc	9 808 0 is_stmt 1               @ D:\Embed\MDK\MDK\ARM\ARMCompilerV621\Bin\..\include\libcxx\__utility/pair.h:808:0
	.fnstart
	.cfi_startproc
@ %bb.0:
	.save	{r7, lr}
	push	{r7, lr}
	.cfi_def_cfa_offset 8
	.cfi_offset lr, -4
	.cfi_offset r7, -8
	.pad	#8
	sub	sp, #8
	.cfi_def_cfa_offset 16
	str	r0, [sp, #4]
.Ltmp104:
	.loc	9 809 43 prologue_end           @ D:\Embed\MDK\MDK\ARM\ARMCompilerV621\Bin\..\include\libcxx\__utility/pair.h:809:43
	ldr	r0, [sp, #4]
	.loc	9 809 12 is_stmt 0              @ D:\Embed\MDK\MDK\ARM\ARMCompilerV621\Bin\..\include\libcxx\__utility/pair.h:809:12
	bl	_ZNSt3__210__get_pairILj0EE3getB7v180000IffEEOT_ONS_4pairIS3_T0_EE
	.loc	9 809 5 epilogue_begin          @ D:\Embed\MDK\MDK\ARM\ARMCompilerV621\Bin\..\include\libcxx\__utility/pair.h:809:5
	add	sp, #8
	pop	{r7, pc}
.Ltmp105:
.Lfunc_end19:
	.size	_ZNSt3__23getB7v180000ILj0EffEEONS_13tuple_elementIXT_ENS_4pairIT0_T1_EEE4typeEOS5_, .Lfunc_end19-_ZNSt3__23getB7v180000ILj0EffEEONS_13tuple_elementIXT_ENS_4pairIT0_T1_EEE4typeEOS5_
	.cfi_endproc
	.cantunwind
	.fnend
                                        @ -- End function
	.section	.text._ZNSt3__23getB7v180000ILj1EffEEONS_13tuple_elementIXT_ENS_4pairIT0_T1_EEE4typeEOS5_,"axG",%progbits,_ZNSt3__23getB7v180000ILj1EffEEONS_13tuple_elementIXT_ENS_4pairIT0_T1_EEE4typeEOS5_,comdat
	.hidden	_ZNSt3__23getB7v180000ILj1EffEEONS_13tuple_elementIXT_ENS_4pairIT0_T1_EEE4typeEOS5_ @ -- Begin function _ZNSt3__23getB7v180000ILj1EffEEONS_13tuple_elementIXT_ENS_4pairIT0_T1_EEE4typeEOS5_
	.weak	_ZNSt3__23getB7v180000ILj1EffEEONS_13tuple_elementIXT_ENS_4pairIT0_T1_EEE4typeEOS5_
	.p2align	2
	.type	_ZNSt3__23getB7v180000ILj1EffEEONS_13tuple_elementIXT_ENS_4pairIT0_T1_EEE4typeEOS5_,%function
	.code	16                              @ @_ZNSt3__23getB7v180000ILj1EffEEONS_13tuple_elementIXT_ENS_4pairIT0_T1_EEE4typeEOS5_
	.thumb_func
_ZNSt3__23getB7v180000ILj1EffEEONS_13tuple_elementIXT_ENS_4pairIT0_T1_EEE4typeEOS5_:
.Lfunc_begin20:
	.loc	9 808 0 is_stmt 1               @ D:\Embed\MDK\MDK\ARM\ARMCompilerV621\Bin\..\include\libcxx\__utility/pair.h:808:0
	.fnstart
	.cfi_startproc
@ %bb.0:
	.save	{r7, lr}
	push	{r7, lr}
	.cfi_def_cfa_offset 8
	.cfi_offset lr, -4
	.cfi_offset r7, -8
	.pad	#8
	sub	sp, #8
	.cfi_def_cfa_offset 16
	str	r0, [sp, #4]
.Ltmp106:
	.loc	9 809 43 prologue_end           @ D:\Embed\MDK\MDK\ARM\ARMCompilerV621\Bin\..\include\libcxx\__utility/pair.h:809:43
	ldr	r0, [sp, #4]
	.loc	9 809 12 is_stmt 0              @ D:\Embed\MDK\MDK\ARM\ARMCompilerV621\Bin\..\include\libcxx\__utility/pair.h:809:12
	bl	_ZNSt3__210__get_pairILj1EE3getB7v180000IffEEOT0_ONS_4pairIT_S3_EE
	.loc	9 809 5 epilogue_begin          @ D:\Embed\MDK\MDK\ARM\ARMCompilerV621\Bin\..\include\libcxx\__utility/pair.h:809:5
	add	sp, #8
	pop	{r7, pc}
.Ltmp107:
.Lfunc_end20:
	.size	_ZNSt3__23getB7v180000ILj1EffEEONS_13tuple_elementIXT_ENS_4pairIT0_T1_EEE4typeEOS5_, .Lfunc_end20-_ZNSt3__23getB7v180000ILj1EffEEONS_13tuple_elementIXT_ENS_4pairIT0_T1_EEE4typeEOS5_
	.cfi_endproc
	.cantunwind
	.fnend
                                        @ -- End function
	.section	.text._ZNRSt3__28optionalIfEdeB7v180000Ev,"axG",%progbits,_ZNRSt3__28optionalIfEdeB7v180000Ev,comdat
	.hidden	_ZNRSt3__28optionalIfEdeB7v180000Ev @ -- Begin function _ZNRSt3__28optionalIfEdeB7v180000Ev
	.weak	_ZNRSt3__28optionalIfEdeB7v180000Ev
	.p2align	2
	.type	_ZNRSt3__28optionalIfEdeB7v180000Ev,%function
	.code	16                              @ @_ZNRSt3__28optionalIfEdeB7v180000Ev
	.thumb_func
_ZNRSt3__28optionalIfEdeB7v180000Ev:
.Lfunc_begin21:
	.loc	3 1026 0 is_stmt 1              @ D:\Embed\MDK\MDK\ARM\ARMCompilerV621\Bin\..\include\libcxx\optional:1026:0
	.fnstart
	.cfi_startproc
@ %bb.0:
	.save	{r7, lr}
	push	{r7, lr}
	.cfi_def_cfa_offset 8
	.cfi_offset lr, -4
	.cfi_offset r7, -8
	.pad	#8
	sub	sp, #8
	.cfi_def_cfa_offset 16
	str	r0, [sp, #4]
	ldr	r0, [sp, #4]
.Ltmp108:
	.loc	3 1028 22 prologue_end          @ D:\Embed\MDK\MDK\ARM\ARMCompilerV621\Bin\..\include\libcxx\optional:1028:22
	bl	_ZNRSt3__223__optional_storage_baseIfLb0EE5__getB7v180000Ev
	.loc	3 1028 9 epilogue_begin is_stmt 0 @ D:\Embed\MDK\MDK\ARM\ARMCompilerV621\Bin\..\include\libcxx\optional:1028:9
	add	sp, #8
	pop	{r7, pc}
.Ltmp109:
.Lfunc_end21:
	.size	_ZNRSt3__28optionalIfEdeB7v180000Ev, .Lfunc_end21-_ZNRSt3__28optionalIfEdeB7v180000Ev
	.cfi_endproc
	.cantunwind
	.fnend
                                        @ -- End function
	.section	.text._ZNSt3__24pairIffEC2B7v180000IffLi0EEEOT_OT0_,"axG",%progbits,_ZNSt3__24pairIffEC2B7v180000IffLi0EEEOT_OT0_,comdat
	.hidden	_ZNSt3__24pairIffEC2B7v180000IffLi0EEEOT_OT0_ @ -- Begin function _ZNSt3__24pairIffEC2B7v180000IffLi0EEEOT_OT0_
	.weak	_ZNSt3__24pairIffEC2B7v180000IffLi0EEEOT_OT0_
	.p2align	2
	.type	_ZNSt3__24pairIffEC2B7v180000IffLi0EEEOT_OT0_,%function
	.code	16                              @ @_ZNSt3__24pairIffEC2B7v180000IffLi0EEEOT_OT0_
	.thumb_func
_ZNSt3__24pairIffEC2B7v180000IffLi0EEEOT_OT0_:
.Lfunc_begin22:
	.loc	9 222 0 is_stmt 1               @ D:\Embed\MDK\MDK\ARM\ARMCompilerV621\Bin\..\include\libcxx\__utility/pair.h:222:0
	.fnstart
	.cfi_startproc
@ %bb.0:
	.pad	#12
	sub	sp, #12
	.cfi_def_cfa_offset 12
	str	r0, [sp, #8]
	str	r1, [sp, #4]
	str	r2, [sp]
	ldr	r0, [sp, #8]
.Ltmp110:
	.loc	9 222 35 prologue_end           @ D:\Embed\MDK\MDK\ARM\ARMCompilerV621\Bin\..\include\libcxx\__utility/pair.h:222:35
	ldr	r1, [sp, #4]
	.loc	9 222 17 is_stmt 0              @ D:\Embed\MDK\MDK\ARM\ARMCompilerV621\Bin\..\include\libcxx\__utility/pair.h:222:17
	ldr	r1, [r1]
	.loc	9 222 11                        @ D:\Embed\MDK\MDK\ARM\ARMCompilerV621\Bin\..\include\libcxx\__utility/pair.h:222:11
	str	r1, [r0]
	.loc	9 222 68                        @ D:\Embed\MDK\MDK\ARM\ARMCompilerV621\Bin\..\include\libcxx\__utility/pair.h:222:68
	ldr	r1, [sp]
	.loc	9 222 50                        @ D:\Embed\MDK\MDK\ARM\ARMCompilerV621\Bin\..\include\libcxx\__utility/pair.h:222:50
	ldr	r1, [r1]
	.loc	9 222 43                        @ D:\Embed\MDK\MDK\ARM\ARMCompilerV621\Bin\..\include\libcxx\__utility/pair.h:222:43
	str	r1, [r0, #4]
	.loc	9 222 76 epilogue_begin         @ D:\Embed\MDK\MDK\ARM\ARMCompilerV621\Bin\..\include\libcxx\__utility/pair.h:222:76
	add	sp, #12
	bx	lr
.Ltmp111:
.Lfunc_end22:
	.size	_ZNSt3__24pairIffEC2B7v180000IffLi0EEEOT_OT0_, .Lfunc_end22-_ZNSt3__24pairIffEC2B7v180000IffLi0EEEOT_OT0_
	.cfi_endproc
	.cantunwind
	.fnend
                                        @ -- End function
	.section	.text._ZNSt3__26__math4sqrtB7v180000Ef,"axG",%progbits,_ZNSt3__26__math4sqrtB7v180000Ef,comdat
	.hidden	_ZNSt3__26__math4sqrtB7v180000Ef @ -- Begin function _ZNSt3__26__math4sqrtB7v180000Ef
	.weak	_ZNSt3__26__math4sqrtB7v180000Ef
	.p2align	2
	.type	_ZNSt3__26__math4sqrtB7v180000Ef,%function
	.code	16                              @ @_ZNSt3__26__math4sqrtB7v180000Ef
	.thumb_func
_ZNSt3__26__math4sqrtB7v180000Ef:
.Lfunc_begin23:
	.file	19 "D:\\Embed\\MDK\\MDK\\ARM\\ARMCompilerV621\\Bin\\..\\include\\libcxx\\__math" "roots.h"
	.loc	19 26 0 is_stmt 1               @ D:\Embed\MDK\MDK\ARM\ARMCompilerV621\Bin\..\include\libcxx\__math/roots.h:26:0
	.fnstart
	.cfi_startproc
@ %bb.0:
	.save	{r7, lr}
	push	{r7, lr}
	.cfi_def_cfa_offset 8
	.cfi_offset lr, -4
	.cfi_offset r7, -8
	.pad	#8
	sub	sp, #8
	.cfi_def_cfa_offset 16
	vstr	s0, [sp, #4]
.Ltmp112:
	.loc	19 26 87 prologue_end           @ D:\Embed\MDK\MDK\ARM\ARMCompilerV621\Bin\..\include\libcxx\__math/roots.h:26:87
	vldr	s0, [sp, #4]
	.loc	19 26 71 is_stmt 0              @ D:\Embed\MDK\MDK\ARM\ARMCompilerV621\Bin\..\include\libcxx\__math/roots.h:26:71
	bl	__hardfp_sqrtf
	.loc	19 26 64 epilogue_begin         @ D:\Embed\MDK\MDK\ARM\ARMCompilerV621\Bin\..\include\libcxx\__math/roots.h:26:64
	add	sp, #8
	pop	{r7, pc}
.Ltmp113:
.Lfunc_end23:
	.size	_ZNSt3__26__math4sqrtB7v180000Ef, .Lfunc_end23-_ZNSt3__26__math4sqrtB7v180000Ef
	.cfi_endproc
	.cantunwind
	.fnend
                                        @ -- End function
	.section	.text._ZNSt3__24pairIffEC2B7v180000IRfS3_Li0EEEOT_OT0_,"axG",%progbits,_ZNSt3__24pairIffEC2B7v180000IRfS3_Li0EEEOT_OT0_,comdat
	.hidden	_ZNSt3__24pairIffEC2B7v180000IRfS3_Li0EEEOT_OT0_ @ -- Begin function _ZNSt3__24pairIffEC2B7v180000IRfS3_Li0EEEOT_OT0_
	.weak	_ZNSt3__24pairIffEC2B7v180000IRfS3_Li0EEEOT_OT0_
	.p2align	2
	.type	_ZNSt3__24pairIffEC2B7v180000IRfS3_Li0EEEOT_OT0_,%function
	.code	16                              @ @_ZNSt3__24pairIffEC2B7v180000IRfS3_Li0EEEOT_OT0_
	.thumb_func
_ZNSt3__24pairIffEC2B7v180000IRfS3_Li0EEEOT_OT0_:
.Lfunc_begin24:
	.loc	9 222 0 is_stmt 1               @ D:\Embed\MDK\MDK\ARM\ARMCompilerV621\Bin\..\include\libcxx\__utility/pair.h:222:0
	.fnstart
	.cfi_startproc
@ %bb.0:
	.pad	#12
	sub	sp, #12
	.cfi_def_cfa_offset 12
	str	r0, [sp, #8]
	str	r1, [sp, #4]
	str	r2, [sp]
	ldr	r0, [sp, #8]
.Ltmp114:
	.loc	9 222 35 prologue_end           @ D:\Embed\MDK\MDK\ARM\ARMCompilerV621\Bin\..\include\libcxx\__utility/pair.h:222:35
	ldr	r1, [sp, #4]
	.loc	9 222 17 is_stmt 0              @ D:\Embed\MDK\MDK\ARM\ARMCompilerV621\Bin\..\include\libcxx\__utility/pair.h:222:17
	ldr	r1, [r1]
	.loc	9 222 11                        @ D:\Embed\MDK\MDK\ARM\ARMCompilerV621\Bin\..\include\libcxx\__utility/pair.h:222:11
	str	r1, [r0]
	.loc	9 222 68                        @ D:\Embed\MDK\MDK\ARM\ARMCompilerV621\Bin\..\include\libcxx\__utility/pair.h:222:68
	ldr	r1, [sp]
	.loc	9 222 50                        @ D:\Embed\MDK\MDK\ARM\ARMCompilerV621\Bin\..\include\libcxx\__utility/pair.h:222:50
	ldr	r1, [r1]
	.loc	9 222 43                        @ D:\Embed\MDK\MDK\ARM\ARMCompilerV621\Bin\..\include\libcxx\__utility/pair.h:222:43
	str	r1, [r0, #4]
	.loc	9 222 76 epilogue_begin         @ D:\Embed\MDK\MDK\ARM\ARMCompilerV621\Bin\..\include\libcxx\__utility/pair.h:222:76
	add	sp, #12
	bx	lr
.Ltmp115:
.Lfunc_end24:
	.size	_ZNSt3__24pairIffEC2B7v180000IRfS3_Li0EEEOT_OT0_, .Lfunc_end24-_ZNSt3__24pairIffEC2B7v180000IRfS3_Li0EEEOT_OT0_
	.cfi_endproc
	.cantunwind
	.fnend
                                        @ -- End function
	.section	.text._ZNSt3__28optionalIfEC2B7v180000IfLi0EEEOT_,"axG",%progbits,_ZNSt3__28optionalIfEC2B7v180000IfLi0EEEOT_,comdat
	.hidden	_ZNSt3__28optionalIfEC2B7v180000IfLi0EEEOT_ @ -- Begin function _ZNSt3__28optionalIfEC2B7v180000IfLi0EEEOT_
	.weak	_ZNSt3__28optionalIfEC2B7v180000IfLi0EEEOT_
	.p2align	2
	.type	_ZNSt3__28optionalIfEC2B7v180000IfLi0EEEOT_,%function
	.code	16                              @ @_ZNSt3__28optionalIfEC2B7v180000IfLi0EEEOT_
	.thumb_func
_ZNSt3__28optionalIfEC2B7v180000IfLi0EEEOT_:
.Lfunc_begin25:
	.loc	3 828 0 is_stmt 1               @ D:\Embed\MDK\MDK\ARM\ARMCompilerV621\Bin\..\include\libcxx\optional:828:0
	.fnstart
	.cfi_startproc
@ %bb.0:
	.save	{r7, lr}
	push	{r7, lr}
	.cfi_def_cfa_offset 8
	.cfi_offset lr, -4
	.cfi_offset r7, -8
	.pad	#16
	sub	sp, #16
	.cfi_def_cfa_offset 24
	str	r0, [sp, #12]
	str	r1, [sp, #8]
	ldr	r0, [sp, #12]
.Ltmp116:
	.loc	3 828 48 prologue_end           @ D:\Embed\MDK\MDK\ARM\ARMCompilerV621\Bin\..\include\libcxx\optional:828:48
	str	r0, [sp]                        @ 4-byte Spill
	ldr	r1, [sp, #8]
	.loc	3 828 11 is_stmt 0              @ D:\Embed\MDK\MDK\ARM\ARMCompilerV621\Bin\..\include\libcxx\optional:828:11
	bl	_ZNSt3__227__optional_move_assign_baseIfLb1EECI2NS_24__optional_destruct_baseIfLb1EEEIJfEEENS_10in_place_tEDpOT_
	ldr	r0, [sp]                        @ 4-byte Reload
	.loc	3 828 55 epilogue_begin         @ D:\Embed\MDK\MDK\ARM\ARMCompilerV621\Bin\..\include\libcxx\optional:828:55
	add	sp, #16
	pop	{r7, pc}
.Ltmp117:
.Lfunc_end25:
	.size	_ZNSt3__28optionalIfEC2B7v180000IfLi0EEEOT_, .Lfunc_end25-_ZNSt3__28optionalIfEC2B7v180000IfLi0EEEOT_
	.cfi_endproc
	.cantunwind
	.fnend
                                        @ -- End function
	.section	.text._ZNRSt3__28optionalIfE5valueB7v180000Ev,"axG",%progbits,_ZNRSt3__28optionalIfE5valueB7v180000Ev,comdat
	.hidden	_ZNRSt3__28optionalIfE5valueB7v180000Ev @ -- Begin function _ZNRSt3__28optionalIfE5valueB7v180000Ev
	.weak	_ZNRSt3__28optionalIfE5valueB7v180000Ev
	.p2align	2
	.type	_ZNRSt3__28optionalIfE5valueB7v180000Ev,%function
	.code	16                              @ @_ZNRSt3__28optionalIfE5valueB7v180000Ev
	.thumb_func
_ZNRSt3__28optionalIfE5valueB7v180000Ev:
.Lfunc_begin26:
	.loc	3 1067 0 is_stmt 1              @ D:\Embed\MDK\MDK\ARM\ARMCompilerV621\Bin\..\include\libcxx\optional:1067:0
	.fnstart
	.cfi_startproc
@ %bb.0:
	.save	{r7, lr}
	push	{r7, lr}
	.cfi_def_cfa_offset 8
	.cfi_offset lr, -4
	.cfi_offset r7, -8
	.pad	#8
	sub	sp, #8
	.cfi_def_cfa_offset 16
	str	r0, [sp, #4]
	ldr	r0, [sp, #4]
.Ltmp118:
	.loc	3 1068 20 prologue_end          @ D:\Embed\MDK\MDK\ARM\ARMCompilerV621\Bin\..\include\libcxx\optional:1068:20
	str	r0, [sp]                        @ 4-byte Spill
	bl	_ZNKSt3__223__optional_storage_baseIfLb0EE9has_valueB7v180000Ev
.Ltmp119:
	.loc	3 1068 13 is_stmt 0             @ D:\Embed\MDK\MDK\ARM\ARMCompilerV621\Bin\..\include\libcxx\optional:1068:13
	cbnz	r0, .LBB26_2
	b	.LBB26_1
.LBB26_1:
.Ltmp120:
	.loc	3 1069 13 is_stmt 1             @ D:\Embed\MDK\MDK\ARM\ARMCompilerV621\Bin\..\include\libcxx\optional:1069:13
	bl	_ZNSt3__227__throw_bad_optional_accessB7v180000Ev
.Ltmp121:
.LBB26_2:
	.loc	3 1070 22                       @ D:\Embed\MDK\MDK\ARM\ARMCompilerV621\Bin\..\include\libcxx\optional:1070:22
	ldr	r0, [sp]                        @ 4-byte Reload
	bl	_ZNRSt3__223__optional_storage_baseIfLb0EE5__getB7v180000Ev
	.loc	3 1070 9 epilogue_begin is_stmt 0 @ D:\Embed\MDK\MDK\ARM\ARMCompilerV621\Bin\..\include\libcxx\optional:1070:9
	add	sp, #8
	pop	{r7, pc}
.Ltmp122:
.Lfunc_end26:
	.size	_ZNRSt3__28optionalIfE5valueB7v180000Ev, .Lfunc_end26-_ZNRSt3__28optionalIfE5valueB7v180000Ev
	.cfi_endproc
	.cantunwind
	.fnend
                                        @ -- End function
	.section	.text._ZN23FieldOrientedController6updateEj,"ax",%progbits
	.hidden	_ZN23FieldOrientedController6updateEj @ -- Begin function _ZN23FieldOrientedController6updateEj
	.globl	_ZN23FieldOrientedController6updateEj
	.p2align	2
	.type	_ZN23FieldOrientedController6updateEj,%function
	.code	16                              @ @_ZN23FieldOrientedController6updateEj
	.thumb_func
_ZN23FieldOrientedController6updateEj:
.Lfunc_begin27:
	.loc	15 185 0 is_stmt 1              @ ../MotorControl/foc.cpp:185:0
	.fnstart
	.cfi_startproc
@ %bb.0:
	.save	{r7, lr}
	push	{r7, lr}
	.cfi_def_cfa_offset 8
	.cfi_offset lr, -4
	.cfi_offset r7, -8
	.pad	#72
	sub	sp, #72
	.cfi_def_cfa_offset 80
	str	r0, [sp, #68]
	str	r1, [sp, #64]
	ldr	r0, [sp, #68]
.Ltmp123:
	.loc	15 186 5 prologue_end           @ ../MotorControl/foc.cpp:186:5
	str	r0, [sp, #12]                   @ 4-byte Spill
	add	r0, sp, #56
	bl	_ZN22CriticalSectionContextC2Ev
	b	.LBB27_1
.LBB27_1:                               @ =>This Inner Loop Header: Depth=1
.Ltmp124:
	.loc	15 186 5 is_stmt 0              @ ../MotorControl/foc.cpp:186:5
	ldrb.w	r0, [sp, #60]
.Ltmp125:
	.loc	15 186 5                        @ ../MotorControl/foc.cpp:186:5
	lsls	r0, r0, #31
	cbz	r0, .LBB27_3
	b	.LBB27_2
.LBB27_2:
	.loc	15 0 5                          @ ../MotorControl/foc.cpp:0:5
	add	r0, sp, #56
.Ltmp126:
	.loc	15 186 5                        @ ../MotorControl/foc.cpp:186:5
	bl	_ZN22CriticalSectionContextD2Ev
	b	.LBB27_5
.LBB27_3:                               @   in Loop: Header=BB27_1 Depth=1
.Ltmp127:
	.loc	15 187 27 is_stmt 1             @ ../MotorControl/foc.cpp:187:27
	ldr	r0, [sp, #12]                   @ 4-byte Reload
	ldr	r1, [sp, #64]
	.loc	15 187 25 is_stmt 0             @ ../MotorControl/foc.cpp:187:25
	str	r1, [r0, #68]
	.loc	15 188 35 is_stmt 1             @ ../MotorControl/foc.cpp:188:35
	ldrb	r1, [r0, #24]
	.loc	15 188 33 is_stmt 0             @ ../MotorControl/foc.cpp:188:33
	and	r1, r1, #1
	strb.w	r1, [r0, #72]
	.loc	15 189 25 is_stmt 1             @ ../MotorControl/foc.cpp:189:25
	add.w	r1, r0, #28
	add	r0, sp, #44
	.loc	15 189 43 is_stmt 0             @ ../MotorControl/foc.cpp:189:43
	str	r0, [sp, #4]                    @ 4-byte Spill
	bl	_ZN9InputPortINSt3__24pairIffEEE7presentEv
	ldr	r1, [sp, #4]                    @ 4-byte Reload
	ldr	r0, [sp, #12]                   @ 4-byte Reload
	.loc	15 189 9                        @ ../MotorControl/foc.cpp:189:9
	adds	r0, #76
	.loc	15 189 23                       @ ../MotorControl/foc.cpp:189:23
	bl	_ZNSt3__28optionalINS_4pairIffEEEaSB7v180000EOS3_
                                        @ kill: def $r1 killed $r0
	.loc	15 190 25 is_stmt 1             @ ../MotorControl/foc.cpp:190:25
	ldr	r0, [sp, #12]                   @ 4-byte Reload
	add.w	r1, r0, #40
	add	r0, sp, #32
	.loc	15 190 43 is_stmt 0             @ ../MotorControl/foc.cpp:190:43
	str	r0, [sp, #8]                    @ 4-byte Spill
	bl	_ZN9InputPortINSt3__24pairIffEEE7presentEv
	ldr	r1, [sp, #8]                    @ 4-byte Reload
	ldr	r0, [sp, #12]                   @ 4-byte Reload
	.loc	15 190 9                        @ ../MotorControl/foc.cpp:190:9
	adds	r0, #88
	.loc	15 190 23                       @ ../MotorControl/foc.cpp:190:23
	bl	_ZNSt3__28optionalINS_4pairIffEEEaSB7v180000EOS3_
                                        @ kill: def $r1 killed $r0
	.loc	15 191 18 is_stmt 1             @ ../MotorControl/foc.cpp:191:18
	ldr	r0, [sp, #12]                   @ 4-byte Reload
	add.w	r1, r0, #52
	add	r0, sp, #24
	.loc	15 191 29 is_stmt 0             @ ../MotorControl/foc.cpp:191:29
	bl	_ZN9InputPortIfE7presentEv
	ldr	r0, [sp, #12]                   @ 4-byte Reload
	.loc	15 191 16                       @ ../MotorControl/foc.cpp:191:16
	ldrb.w	r1, [sp, #28]
	strb.w	r1, [r0, #104]
	ldr	r1, [sp, #24]
	str	r1, [r0, #100]
	.loc	15 192 22 is_stmt 1             @ ../MotorControl/foc.cpp:192:22
	add.w	r1, r0, #60
	add	r0, sp, #16
	.loc	15 192 37 is_stmt 0             @ ../MotorControl/foc.cpp:192:37
	bl	_ZN9InputPortIfE7presentEv
	ldr	r1, [sp, #12]                   @ 4-byte Reload
	.loc	15 192 20                       @ ../MotorControl/foc.cpp:192:20
	ldrb.w	r0, [sp, #20]
	strb.w	r0, [r1, #112]
	ldr	r0, [sp, #16]
	str	r0, [r1, #108]
	.loc	15 193 5 is_stmt 1              @ ../MotorControl/foc.cpp:193:5
	b	.LBB27_4
.Ltmp128:
.LBB27_4:                               @   in Loop: Header=BB27_1 Depth=1
	.loc	15 0 5 is_stmt 0                @ ../MotorControl/foc.cpp:0:5
	movs	r0, #1
	.loc	15 186 5 is_stmt 1              @ ../MotorControl/foc.cpp:186:5
	strb.w	r0, [sp, #60]
	b	.LBB27_1
.Ltmp129:
.LBB27_5:
	.loc	15 194 1 epilogue_begin         @ ../MotorControl/foc.cpp:194:1
	add	sp, #72
	pop	{r7, pc}
.Ltmp130:
.Lfunc_end27:
	.size	_ZN23FieldOrientedController6updateEj, .Lfunc_end27-_ZN23FieldOrientedController6updateEj
	.cfi_endproc
	.cantunwind
	.fnend
                                        @ -- End function
	.section	.text._ZN22CriticalSectionContextC2Ev,"axG",%progbits,_ZN22CriticalSectionContextC2Ev,comdat
	.hidden	_ZN22CriticalSectionContextC2Ev @ -- Begin function _ZN22CriticalSectionContextC2Ev
	.weak	_ZN22CriticalSectionContextC2Ev
	.p2align	2
	.type	_ZN22CriticalSectionContextC2Ev,%function
	.code	16                              @ @_ZN22CriticalSectionContextC2Ev
	.thumb_func
_ZN22CriticalSectionContextC2Ev:
.Lfunc_begin28:
	.loc	14 56 0                         @ ../../Firmware\Drivers/STM32/stm32_system.h:56:0
	.fnstart
	.cfi_startproc
@ %bb.0:
	.save	{r7, lr}
	push	{r7, lr}
	.cfi_def_cfa_offset 8
	.cfi_offset lr, -4
	.cfi_offset r7, -8
	.pad	#8
	sub	sp, #8
	.cfi_def_cfa_offset 16
	str	r0, [sp, #4]
	ldr	r0, [sp, #4]
.Ltmp131:
	.loc	14 56 38 prologue_end           @ ../../Firmware\Drivers/STM32/stm32_system.h:56:38
	str	r0, [sp]                        @ 4-byte Spill
	bl	_ZL18cpu_enter_criticalv
	mov	r1, r0
	.loc	14 56 32 is_stmt 0              @ ../../Firmware\Drivers/STM32/stm32_system.h:56:32
	ldr	r0, [sp]                        @ 4-byte Reload
	str	r1, [r0]
	movs	r1, #0
	.loc	14 59 10 is_stmt 1              @ ../../Firmware\Drivers/STM32/stm32_system.h:59:10
	strb	r1, [r0, #4]
	.loc	14 56 61 epilogue_begin         @ ../../Firmware\Drivers/STM32/stm32_system.h:56:61
	add	sp, #8
	pop	{r7, pc}
.Ltmp132:
.Lfunc_end28:
	.size	_ZN22CriticalSectionContextC2Ev, .Lfunc_end28-_ZN22CriticalSectionContextC2Ev
	.cfi_endproc
	.cantunwind
	.fnend
                                        @ -- End function
	.section	.text._ZN9InputPortINSt3__24pairIffEEE7presentEv,"axG",%progbits,_ZN9InputPortINSt3__24pairIffEEE7presentEv,comdat
	.hidden	_ZN9InputPortINSt3__24pairIffEEE7presentEv @ -- Begin function _ZN9InputPortINSt3__24pairIffEEE7presentEv
	.weak	_ZN9InputPortINSt3__24pairIffEEE7presentEv
	.p2align	2
	.type	_ZN9InputPortINSt3__24pairIffEEE7presentEv,%function
	.code	16                              @ @_ZN9InputPortINSt3__24pairIffEEE7presentEv
	.thumb_func
_ZN9InputPortINSt3__24pairIffEEE7presentEv:
.Lfunc_begin29:
	.loc	18 137 0                        @ ../MotorControl/component.hpp:137:0
	.fnstart
	.cfi_startproc
@ %bb.0:
	.save	{r7, lr}
	push	{r7, lr}
	.cfi_def_cfa_offset 8
	.cfi_offset lr, -4
	.cfi_offset r7, -8
	.pad	#32
	sub	sp, #32
	.cfi_def_cfa_offset 40
	str	r0, [sp, #4]                    @ 4-byte Spill
	str	r1, [sp, #28]
	ldr	r0, [sp, #28]
.Ltmp133:
	.loc	18 138 22 prologue_end          @ ../MotorControl/component.hpp:138:22
	str	r0, [sp, #8]                    @ 4-byte Spill
	bl	_ZNKSt3__27variantIJNS_4pairIffEEPS2_P10OutputPortIS2_EEE5indexB7v180000Ev
.Ltmp134:
	.loc	18 138 13 is_stmt 0             @ ../MotorControl/component.hpp:138:13
	cmp	r0, #2
	bne	.LBB29_5
	b	.LBB29_1
.LBB29_1:
.Ltmp135:
	.loc	18 139 34 is_stmt 1             @ ../MotorControl/component.hpp:139:34
	ldr	r0, [sp, #8]                    @ 4-byte Reload
	bl	_ZNSt3__23getB7v180000ILj2EJNS_4pairIffEEPS2_P10OutputPortIS2_EEEERNS_19variant_alternativeIXT_ENS_7variantIJDpT0_EEEE4typeERSB_
	ldr	r0, [r0]
	.loc	18 139 28 is_stmt 0             @ ../MotorControl/component.hpp:139:28
	str	r0, [sp, #24]
	.loc	18 140 20 is_stmt 1             @ ../MotorControl/component.hpp:140:20
	ldr	r0, [sp, #24]
	cbz	r0, .LBB29_3
	b	.LBB29_2
.LBB29_2:
	.loc	18 140 26 is_stmt 0             @ ../MotorControl/component.hpp:140:26
	ldr	r0, [sp, #4]                    @ 4-byte Reload
	ldr	r1, [sp, #24]
	.loc	18 140 31                       @ ../MotorControl/component.hpp:140:31
	bl	_ZN10OutputPortINSt3__24pairIffEEE7presentEv
	.loc	18 140 20                       @ ../MotorControl/component.hpp:140:20
	b	.LBB29_4
.LBB29_3:
	.loc	18 140 43                       @ ../MotorControl/component.hpp:140:43
	ldr	r0, [sp, #4]                    @ 4-byte Reload
	bl	_ZNSt3__28optionalINS_4pairIffEEEC2B7v180000ENS_9nullopt_tE
	.loc	18 140 20                       @ ../MotorControl/component.hpp:140:20
	b	.LBB29_4
.LBB29_4:
	.loc	18 140 13                       @ ../MotorControl/component.hpp:140:13
	b	.LBB29_11
.Ltmp136:
.LBB29_5:
	.loc	18 141 29 is_stmt 1             @ ../MotorControl/component.hpp:141:29
	ldr	r0, [sp, #8]                    @ 4-byte Reload
	bl	_ZNKSt3__27variantIJNS_4pairIffEEPS2_P10OutputPortIS2_EEE5indexB7v180000Ev
.Ltmp137:
	.loc	18 141 20 is_stmt 0             @ ../MotorControl/component.hpp:141:20
	cmp	r0, #1
	bne	.LBB29_10
	b	.LBB29_6
.LBB29_6:
.Ltmp138:
	.loc	18 142 22 is_stmt 1             @ ../MotorControl/component.hpp:142:22
	ldr	r0, [sp, #8]                    @ 4-byte Reload
	bl	_ZNSt3__23getB7v180000ILj1EJNS_4pairIffEEPS2_P10OutputPortIS2_EEEERNS_19variant_alternativeIXT_ENS_7variantIJDpT0_EEEE4typeERSB_
	ldr	r0, [r0]
	.loc	18 142 16 is_stmt 0             @ ../MotorControl/component.hpp:142:16
	str	r0, [sp, #16]
	.loc	18 143 20 is_stmt 1             @ ../MotorControl/component.hpp:143:20
	ldr	r0, [sp, #16]
	cbz	r0, .LBB29_8
	b	.LBB29_7
.LBB29_7:
	.loc	18 143 46 is_stmt 0             @ ../MotorControl/component.hpp:143:46
	ldr	r0, [sp, #4]                    @ 4-byte Reload
	ldr	r1, [sp, #16]
	.loc	18 143 26                       @ ../MotorControl/component.hpp:143:26
	bl	_ZNSt3__213make_optionalB7v180000IRNS_4pairIffEEEENS_8optionalIu7__decayIT_EEEOS5_
	.loc	18 143 20                       @ ../MotorControl/component.hpp:143:20
	b	.LBB29_9
.LBB29_8:
	.loc	18 143 53                       @ ../MotorControl/component.hpp:143:53
	ldr	r0, [sp, #4]                    @ 4-byte Reload
	bl	_ZNSt3__28optionalINS_4pairIffEEEC2B7v180000ENS_9nullopt_tE
	.loc	18 143 20                       @ ../MotorControl/component.hpp:143:20
	b	.LBB29_9
.LBB29_9:
	.loc	18 143 13                       @ ../MotorControl/component.hpp:143:13
	b	.LBB29_11
.Ltmp139:
.LBB29_10:
	.loc	18 145 20 is_stmt 1             @ ../MotorControl/component.hpp:145:20
	ldr	r0, [sp, #8]                    @ 4-byte Reload
	bl	_ZNSt3__23getB7v180000ILj0EJNS_4pairIffEEPS2_P10OutputPortIS2_EEEERNS_19variant_alternativeIXT_ENS_7variantIJDpT0_EEEE4typeERSB_
	mov	r1, r0
	ldr	r0, [sp, #4]                    @ 4-byte Reload
	bl	_ZNSt3__28optionalINS_4pairIffEEEC2B7v180000IRS2_Li0EEEOT_
	.loc	18 145 13 is_stmt 0             @ ../MotorControl/component.hpp:145:13
	b	.LBB29_11
.Ltmp140:
.LBB29_11:
	.loc	18 147 5 epilogue_begin is_stmt 1 @ ../MotorControl/component.hpp:147:5
	add	sp, #32
	pop	{r7, pc}
.Ltmp141:
.Lfunc_end29:
	.size	_ZN9InputPortINSt3__24pairIffEEE7presentEv, .Lfunc_end29-_ZN9InputPortINSt3__24pairIffEEE7presentEv
	.cfi_endproc
	.cantunwind
	.fnend
                                        @ -- End function
	.section	.text._ZNSt3__28optionalINS_4pairIffEEEaSB7v180000EOS3_,"axG",%progbits,_ZNSt3__28optionalINS_4pairIffEEEaSB7v180000EOS3_,comdat
	.hidden	_ZNSt3__28optionalINS_4pairIffEEEaSB7v180000EOS3_ @ -- Begin function _ZNSt3__28optionalINS_4pairIffEEEaSB7v180000EOS3_
	.weak	_ZNSt3__28optionalINS_4pairIffEEEaSB7v180000EOS3_
	.p2align	2
	.type	_ZNSt3__28optionalINS_4pairIffEEEaSB7v180000EOS3_,%function
	.code	16                              @ @_ZNSt3__28optionalINS_4pairIffEEEaSB7v180000EOS3_
	.thumb_func
_ZNSt3__28optionalINS_4pairIffEEEaSB7v180000EOS3_:
.Lfunc_begin30:
	.loc	3 889 0                         @ D:\Embed\MDK\MDK\ARM\ARMCompilerV621\Bin\..\include\libcxx\optional:889:0
	.fnstart
	.cfi_startproc
@ %bb.0:
	.save	{r7, lr}
	push	{r7, lr}
	.cfi_def_cfa_offset 8
	.cfi_offset lr, -4
	.cfi_offset r7, -8
	.pad	#16
	sub	sp, #16
	.cfi_def_cfa_offset 24
	str	r0, [sp, #12]
	str	r1, [sp, #8]
	ldr	r0, [sp, #12]
.Ltmp142:
	.loc	3 889 77 prologue_end           @ D:\Embed\MDK\MDK\ARM\ARMCompilerV621\Bin\..\include\libcxx\optional:889:77
	str	r0, [sp, #4]                    @ 4-byte Spill
	ldr	r1, [sp, #8]
	bl	_ZNSt3__227__optional_move_assign_baseINS_4pairIffEELb0EEaSB7v180000EOS3_
                                        @ kill: def $r1 killed $r0
	ldr	r0, [sp, #4]                    @ 4-byte Reload
	.loc	3 889 77 epilogue_begin is_stmt 0 @ D:\Embed\MDK\MDK\ARM\ARMCompilerV621\Bin\..\include\libcxx\optional:889:77
	add	sp, #16
	pop	{r7, pc}
.Ltmp143:
.Lfunc_end30:
	.size	_ZNSt3__28optionalINS_4pairIffEEEaSB7v180000EOS3_, .Lfunc_end30-_ZNSt3__28optionalINS_4pairIffEEEaSB7v180000EOS3_
	.cfi_endproc
	.cantunwind
	.fnend
                                        @ -- End function
	.section	.text._ZN9InputPortIfE7presentEv,"axG",%progbits,_ZN9InputPortIfE7presentEv,comdat
	.hidden	_ZN9InputPortIfE7presentEv      @ -- Begin function _ZN9InputPortIfE7presentEv
	.weak	_ZN9InputPortIfE7presentEv
	.p2align	2
	.type	_ZN9InputPortIfE7presentEv,%function
	.code	16                              @ @_ZN9InputPortIfE7presentEv
	.thumb_func
_ZN9InputPortIfE7presentEv:
.Lfunc_begin31:
	.loc	18 137 0 is_stmt 1              @ ../MotorControl/component.hpp:137:0
	.fnstart
	.cfi_startproc
@ %bb.0:
	.save	{r7, lr}
	push	{r7, lr}
	.cfi_def_cfa_offset 8
	.cfi_offset lr, -4
	.cfi_offset r7, -8
	.pad	#32
	sub	sp, #32
	.cfi_def_cfa_offset 40
	str	r0, [sp, #4]                    @ 4-byte Spill
	str	r1, [sp, #28]
	ldr	r0, [sp, #28]
.Ltmp144:
	.loc	18 138 22 prologue_end          @ ../MotorControl/component.hpp:138:22
	str	r0, [sp, #8]                    @ 4-byte Spill
	bl	_ZNKSt3__27variantIJfPfP10OutputPortIfEEE5indexB7v180000Ev
.Ltmp145:
	.loc	18 138 13 is_stmt 0             @ ../MotorControl/component.hpp:138:13
	cmp	r0, #2
	bne	.LBB31_5
	b	.LBB31_1
.LBB31_1:
.Ltmp146:
	.loc	18 139 34 is_stmt 1             @ ../MotorControl/component.hpp:139:34
	ldr	r0, [sp, #8]                    @ 4-byte Reload
	bl	_ZNSt3__23getB7v180000ILj2EJfPfP10OutputPortIfEEEERNS_19variant_alternativeIXT_ENS_7variantIJDpT0_EEEE4typeERS9_
	ldr	r0, [r0]
	.loc	18 139 28 is_stmt 0             @ ../MotorControl/component.hpp:139:28
	str	r0, [sp, #24]
	.loc	18 140 20 is_stmt 1             @ ../MotorControl/component.hpp:140:20
	ldr	r0, [sp, #24]
	cbz	r0, .LBB31_3
	b	.LBB31_2
.LBB31_2:
	.loc	18 140 26 is_stmt 0             @ ../MotorControl/component.hpp:140:26
	ldr	r0, [sp, #4]                    @ 4-byte Reload
	ldr	r1, [sp, #24]
	.loc	18 140 31                       @ ../MotorControl/component.hpp:140:31
	bl	_ZN10OutputPortIfE7presentEv
	.loc	18 140 20                       @ ../MotorControl/component.hpp:140:20
	b	.LBB31_4
.LBB31_3:
	.loc	18 140 43                       @ ../MotorControl/component.hpp:140:43
	ldr	r0, [sp, #4]                    @ 4-byte Reload
	bl	_ZNSt3__28optionalIfEC2B7v180000ENS_9nullopt_tE
	.loc	18 140 20                       @ ../MotorControl/component.hpp:140:20
	b	.LBB31_4
.LBB31_4:
	.loc	18 140 13                       @ ../MotorControl/component.hpp:140:13
	b	.LBB31_11
.Ltmp147:
.LBB31_5:
	.loc	18 141 29 is_stmt 1             @ ../MotorControl/component.hpp:141:29
	ldr	r0, [sp, #8]                    @ 4-byte Reload
	bl	_ZNKSt3__27variantIJfPfP10OutputPortIfEEE5indexB7v180000Ev
.Ltmp148:
	.loc	18 141 20 is_stmt 0             @ ../MotorControl/component.hpp:141:20
	cmp	r0, #1
	bne	.LBB31_10
	b	.LBB31_6
.LBB31_6:
.Ltmp149:
	.loc	18 142 22 is_stmt 1             @ ../MotorControl/component.hpp:142:22
	ldr	r0, [sp, #8]                    @ 4-byte Reload
	bl	_ZNSt3__23getB7v180000ILj1EJfPfP10OutputPortIfEEEERNS_19variant_alternativeIXT_ENS_7variantIJDpT0_EEEE4typeERS9_
	ldr	r0, [r0]
	.loc	18 142 16 is_stmt 0             @ ../MotorControl/component.hpp:142:16
	str	r0, [sp, #16]
	.loc	18 143 20 is_stmt 1             @ ../MotorControl/component.hpp:143:20
	ldr	r0, [sp, #16]
	cbz	r0, .LBB31_8
	b	.LBB31_7
.LBB31_7:
	.loc	18 143 46 is_stmt 0             @ ../MotorControl/component.hpp:143:46
	ldr	r0, [sp, #4]                    @ 4-byte Reload
	ldr	r1, [sp, #16]
	.loc	18 143 26                       @ ../MotorControl/component.hpp:143:26
	bl	_ZNSt3__213make_optionalB7v180000IRfEENS_8optionalIu7__decayIT_EEEOS3_
	.loc	18 143 20                       @ ../MotorControl/component.hpp:143:20
	b	.LBB31_9
.LBB31_8:
	.loc	18 143 53                       @ ../MotorControl/component.hpp:143:53
	ldr	r0, [sp, #4]                    @ 4-byte Reload
	bl	_ZNSt3__28optionalIfEC2B7v180000ENS_9nullopt_tE
	.loc	18 143 20                       @ ../MotorControl/component.hpp:143:20
	b	.LBB31_9
.LBB31_9:
	.loc	18 143 13                       @ ../MotorControl/component.hpp:143:13
	b	.LBB31_11
.Ltmp150:
.LBB31_10:
	.loc	18 145 20 is_stmt 1             @ ../MotorControl/component.hpp:145:20
	ldr	r0, [sp, #8]                    @ 4-byte Reload
	bl	_ZNSt3__23getB7v180000ILj0EJfPfP10OutputPortIfEEEERNS_19variant_alternativeIXT_ENS_7variantIJDpT0_EEEE4typeERS9_
	mov	r1, r0
	ldr	r0, [sp, #4]                    @ 4-byte Reload
	bl	_ZNSt3__28optionalIfEC2B7v180000IRfLi0EEEOT_
	.loc	18 145 13 is_stmt 0             @ ../MotorControl/component.hpp:145:13
	b	.LBB31_11
.Ltmp151:
.LBB31_11:
	.loc	18 147 5 epilogue_begin is_stmt 1 @ ../MotorControl/component.hpp:147:5
	add	sp, #32
	pop	{r7, pc}
.Ltmp152:
.Lfunc_end31:
	.size	_ZN9InputPortIfE7presentEv, .Lfunc_end31-_ZN9InputPortIfE7presentEv
	.cfi_endproc
	.cantunwind
	.fnend
                                        @ -- End function
	.section	.text._ZN22CriticalSectionContextD2Ev,"axG",%progbits,_ZN22CriticalSectionContextD2Ev,comdat
	.hidden	_ZN22CriticalSectionContextD2Ev @ -- Begin function _ZN22CriticalSectionContextD2Ev
	.weak	_ZN22CriticalSectionContextD2Ev
	.p2align	2
	.type	_ZN22CriticalSectionContextD2Ev,%function
	.code	16                              @ @_ZN22CriticalSectionContextD2Ev
	.thumb_func
_ZN22CriticalSectionContextD2Ev:
.Lfunc_begin32:
	.loc	14 57 0                         @ ../../Firmware\Drivers/STM32/stm32_system.h:57:0
	.fnstart
	.cfi_startproc
@ %bb.0:
	.save	{r7, lr}
	push	{r7, lr}
	.cfi_def_cfa_offset 8
	.cfi_offset lr, -4
	.cfi_offset r7, -8
	.pad	#8
	sub	sp, #8
	.cfi_def_cfa_offset 16
	str	r0, [sp, #4]
	ldr	r0, [sp, #4]
.Ltmp153:
	.loc	14 57 51 prologue_end           @ ../../Firmware\Drivers/STM32/stm32_system.h:57:51
	str	r0, [sp]                        @ 4-byte Spill
	ldr	r0, [r0]
	.loc	14 57 33 is_stmt 0              @ ../../Firmware\Drivers/STM32/stm32_system.h:57:33
	bl	_ZL17cpu_exit_criticalj
	ldr	r0, [sp]                        @ 4-byte Reload
.Ltmp154:
	.loc	14 57 59 epilogue_begin         @ ../../Firmware\Drivers/STM32/stm32_system.h:57:59
	add	sp, #8
	pop	{r7, pc}
.Ltmp155:
.Lfunc_end32:
	.size	_ZN22CriticalSectionContextD2Ev, .Lfunc_end32-_ZN22CriticalSectionContextD2Ev
	.cfi_endproc
	.cantunwind
	.fnend
                                        @ -- End function
	.section	.text._ZThn4_N23FieldOrientedController6updateEj,"ax",%progbits
	.hidden	_ZThn4_N23FieldOrientedController6updateEj @ -- Begin function _ZThn4_N23FieldOrientedController6updateEj
	.globl	_ZThn4_N23FieldOrientedController6updateEj
	.p2align	2
	.type	_ZThn4_N23FieldOrientedController6updateEj,%function
	.code	16                              @ @_ZThn4_N23FieldOrientedController6updateEj
	.thumb_func
_ZThn4_N23FieldOrientedController6updateEj:
.Lfunc_begin33:
	.loc	15 0 0 is_stmt 1                @ ../MotorControl/foc.cpp:0:0
	.fnstart
	.cfi_startproc
@ %bb.0:
	.pad	#8
	sub	sp, #8
	.cfi_def_cfa_offset 8
	str	r0, [sp, #4]
	str	r1, [sp]
.Ltmp156:
	ldr	r0, [sp, #4]
	subs	r0, #4
	ldr	r1, [sp]
	add	sp, #8
	b	_ZN23FieldOrientedController6updateEj
.Ltmp157:
.Lfunc_end33:
	.size	_ZThn4_N23FieldOrientedController6updateEj, .Lfunc_end33-_ZThn4_N23FieldOrientedController6updateEj
	.cfi_endproc
	.cantunwind
	.fnend
                                        @ -- End function
	.section	.text._ZNSt3__227__optional_move_assign_baseINS_4pairIffEELb0EEC2B7v180000Ev,"axG",%progbits,_ZNSt3__227__optional_move_assign_baseINS_4pairIffEELb0EEC2B7v180000Ev,comdat
	.hidden	_ZNSt3__227__optional_move_assign_baseINS_4pairIffEELb0EEC2B7v180000Ev @ -- Begin function _ZNSt3__227__optional_move_assign_baseINS_4pairIffEELb0EEC2B7v180000Ev
	.weak	_ZNSt3__227__optional_move_assign_baseINS_4pairIffEELb0EEC2B7v180000Ev
	.p2align	2
	.type	_ZNSt3__227__optional_move_assign_baseINS_4pairIffEELb0EEC2B7v180000Ev,%function
	.code	16                              @ @_ZNSt3__227__optional_move_assign_baseINS_4pairIffEELb0EEC2B7v180000Ev
	.thumb_func
_ZNSt3__227__optional_move_assign_baseINS_4pairIffEELb0EEC2B7v180000Ev:
.Lfunc_begin34:
	.loc	3 650 0                         @ D:\Embed\MDK\MDK\ARM\ARMCompilerV621\Bin\..\include\libcxx\optional:650:0
	.fnstart
	.cfi_startproc
@ %bb.0:
	.save	{r7, lr}
	push	{r7, lr}
	.cfi_def_cfa_offset 8
	.cfi_offset lr, -4
	.cfi_offset r7, -8
	.pad	#8
	sub	sp, #8
	.cfi_def_cfa_offset 16
	str	r0, [sp, #4]
	ldr	r0, [sp, #4]
.Ltmp158:
	.loc	3 650 5 prologue_end            @ D:\Embed\MDK\MDK\ARM\ARMCompilerV621\Bin\..\include\libcxx\optional:650:5
	str	r0, [sp]                        @ 4-byte Spill
	bl	_ZNSt3__227__optional_copy_assign_baseINS_4pairIffEELb0EEC2B7v180000Ev
	ldr	r0, [sp]                        @ 4-byte Reload
	.loc	3 650 43 epilogue_begin is_stmt 0 @ D:\Embed\MDK\MDK\ARM\ARMCompilerV621\Bin\..\include\libcxx\optional:650:43
	add	sp, #8
	pop	{r7, pc}
.Ltmp159:
.Lfunc_end34:
	.size	_ZNSt3__227__optional_move_assign_baseINS_4pairIffEELb0EEC2B7v180000Ev, .Lfunc_end34-_ZNSt3__227__optional_move_assign_baseINS_4pairIffEELb0EEC2B7v180000Ev
	.cfi_endproc
	.cantunwind
	.fnend
                                        @ -- End function
	.section	.text._ZNSt3__227__optional_copy_assign_baseINS_4pairIffEELb0EEC2B7v180000Ev,"axG",%progbits,_ZNSt3__227__optional_copy_assign_baseINS_4pairIffEELb0EEC2B7v180000Ev,comdat
	.hidden	_ZNSt3__227__optional_copy_assign_baseINS_4pairIffEELb0EEC2B7v180000Ev @ -- Begin function _ZNSt3__227__optional_copy_assign_baseINS_4pairIffEELb0EEC2B7v180000Ev
	.weak	_ZNSt3__227__optional_copy_assign_baseINS_4pairIffEELb0EEC2B7v180000Ev
	.p2align	2
	.type	_ZNSt3__227__optional_copy_assign_baseINS_4pairIffEELb0EEC2B7v180000Ev,%function
	.code	16                              @ @_ZNSt3__227__optional_copy_assign_baseINS_4pairIffEELb0EEC2B7v180000Ev
	.thumb_func
_ZNSt3__227__optional_copy_assign_baseINS_4pairIffEELb0EEC2B7v180000Ev:
.Lfunc_begin35:
	.loc	3 617 0 is_stmt 1               @ D:\Embed\MDK\MDK\ARM\ARMCompilerV621\Bin\..\include\libcxx\optional:617:0
	.fnstart
	.cfi_startproc
@ %bb.0:
	.save	{r7, lr}
	push	{r7, lr}
	.cfi_def_cfa_offset 8
	.cfi_offset lr, -4
	.cfi_offset r7, -8
	.pad	#8
	sub	sp, #8
	.cfi_def_cfa_offset 16
	str	r0, [sp, #4]
	ldr	r0, [sp, #4]
.Ltmp160:
	.loc	3 617 5 prologue_end            @ D:\Embed\MDK\MDK\ARM\ARMCompilerV621\Bin\..\include\libcxx\optional:617:5
	str	r0, [sp]                        @ 4-byte Spill
	bl	_ZNSt3__220__optional_move_baseINS_4pairIffEELb1EEC2Ev
	ldr	r0, [sp]                        @ 4-byte Reload
	.loc	3 617 43 epilogue_begin is_stmt 0 @ D:\Embed\MDK\MDK\ARM\ARMCompilerV621\Bin\..\include\libcxx\optional:617:43
	add	sp, #8
	pop	{r7, pc}
.Ltmp161:
.Lfunc_end35:
	.size	_ZNSt3__227__optional_copy_assign_baseINS_4pairIffEELb0EEC2B7v180000Ev, .Lfunc_end35-_ZNSt3__227__optional_copy_assign_baseINS_4pairIffEELb0EEC2B7v180000Ev
	.cfi_endproc
	.cantunwind
	.fnend
                                        @ -- End function
	.section	.text._ZNSt3__220__optional_move_baseINS_4pairIffEELb1EEC2Ev,"axG",%progbits,_ZNSt3__220__optional_move_baseINS_4pairIffEELb1EEC2Ev,comdat
	.hidden	_ZNSt3__220__optional_move_baseINS_4pairIffEELb1EEC2Ev @ -- Begin function _ZNSt3__220__optional_move_baseINS_4pairIffEELb1EEC2Ev
	.weak	_ZNSt3__220__optional_move_baseINS_4pairIffEELb1EEC2Ev
	.p2align	2
	.type	_ZNSt3__220__optional_move_baseINS_4pairIffEELb1EEC2Ev,%function
	.code	16                              @ @_ZNSt3__220__optional_move_baseINS_4pairIffEELb1EEC2Ev
	.thumb_func
_ZNSt3__220__optional_move_baseINS_4pairIffEELb1EEC2Ev:
.Lfunc_begin36:
	.loc	3 573 0 is_stmt 1               @ D:\Embed\MDK\MDK\ARM\ARMCompilerV621\Bin\..\include\libcxx\optional:573:0
	.fnstart
	.cfi_startproc
@ %bb.0:
	.save	{r7, lr}
	push	{r7, lr}
	.cfi_def_cfa_offset 8
	.cfi_offset lr, -4
	.cfi_offset r7, -8
	.pad	#8
	sub	sp, #8
	.cfi_def_cfa_offset 16
	str	r0, [sp, #4]
	ldr	r0, [sp, #4]
.Ltmp162:
	.loc	3 573 8 prologue_end            @ D:\Embed\MDK\MDK\ARM\ARMCompilerV621\Bin\..\include\libcxx\optional:573:8
	str	r0, [sp]                        @ 4-byte Spill
	bl	_ZNSt3__220__optional_copy_baseINS_4pairIffEELb1EEC2Ev
	ldr	r0, [sp]                        @ 4-byte Reload
	.loc	3 573 8 epilogue_begin is_stmt 0 @ D:\Embed\MDK\MDK\ARM\ARMCompilerV621\Bin\..\include\libcxx\optional:573:8
	add	sp, #8
	pop	{r7, pc}
.Ltmp163:
.Lfunc_end36:
	.size	_ZNSt3__220__optional_move_baseINS_4pairIffEELb1EEC2Ev, .Lfunc_end36-_ZNSt3__220__optional_move_baseINS_4pairIffEELb1EEC2Ev
	.cfi_endproc
	.cantunwind
	.fnend
                                        @ -- End function
	.section	.text._ZNSt3__220__optional_copy_baseINS_4pairIffEELb1EEC2Ev,"axG",%progbits,_ZNSt3__220__optional_copy_baseINS_4pairIffEELb1EEC2Ev,comdat
	.hidden	_ZNSt3__220__optional_copy_baseINS_4pairIffEELb1EEC2Ev @ -- Begin function _ZNSt3__220__optional_copy_baseINS_4pairIffEELb1EEC2Ev
	.weak	_ZNSt3__220__optional_copy_baseINS_4pairIffEELb1EEC2Ev
	.p2align	2
	.type	_ZNSt3__220__optional_copy_baseINS_4pairIffEELb1EEC2Ev,%function
	.code	16                              @ @_ZNSt3__220__optional_copy_baseINS_4pairIffEELb1EEC2Ev
	.thumb_func
_ZNSt3__220__optional_copy_baseINS_4pairIffEELb1EEC2Ev:
.Lfunc_begin37:
	.loc	3 545 0 is_stmt 1               @ D:\Embed\MDK\MDK\ARM\ARMCompilerV621\Bin\..\include\libcxx\optional:545:0
	.fnstart
	.cfi_startproc
@ %bb.0:
	.save	{r7, lr}
	push	{r7, lr}
	.cfi_def_cfa_offset 8
	.cfi_offset lr, -4
	.cfi_offset r7, -8
	.pad	#8
	sub	sp, #8
	.cfi_def_cfa_offset 16
	str	r0, [sp, #4]
	ldr	r0, [sp, #4]
.Ltmp164:
	.loc	3 545 8 prologue_end            @ D:\Embed\MDK\MDK\ARM\ARMCompilerV621\Bin\..\include\libcxx\optional:545:8
	str	r0, [sp]                        @ 4-byte Spill
	bl	_ZNSt3__223__optional_storage_baseINS_4pairIffEELb0EEC2Ev
	ldr	r0, [sp]                        @ 4-byte Reload
	.loc	3 545 8 epilogue_begin is_stmt 0 @ D:\Embed\MDK\MDK\ARM\ARMCompilerV621\Bin\..\include\libcxx\optional:545:8
	add	sp, #8
	pop	{r7, pc}
.Ltmp165:
.Lfunc_end37:
	.size	_ZNSt3__220__optional_copy_baseINS_4pairIffEELb1EEC2Ev, .Lfunc_end37-_ZNSt3__220__optional_copy_baseINS_4pairIffEELb1EEC2Ev
	.cfi_endproc
	.cantunwind
	.fnend
                                        @ -- End function
	.section	.text._ZNSt3__223__optional_storage_baseINS_4pairIffEELb0EEC2Ev,"axG",%progbits,_ZNSt3__223__optional_storage_baseINS_4pairIffEELb0EEC2Ev,comdat
	.hidden	_ZNSt3__223__optional_storage_baseINS_4pairIffEELb0EEC2Ev @ -- Begin function _ZNSt3__223__optional_storage_baseINS_4pairIffEELb0EEC2Ev
	.weak	_ZNSt3__223__optional_storage_baseINS_4pairIffEELb0EEC2Ev
	.p2align	2
	.type	_ZNSt3__223__optional_storage_baseINS_4pairIffEELb0EEC2Ev,%function
	.code	16                              @ @_ZNSt3__223__optional_storage_baseINS_4pairIffEELb0EEC2Ev
	.thumb_func
_ZNSt3__223__optional_storage_baseINS_4pairIffEELb0EEC2Ev:
.Lfunc_begin38:
	.loc	3 378 0 is_stmt 1               @ D:\Embed\MDK\MDK\ARM\ARMCompilerV621\Bin\..\include\libcxx\optional:378:0
	.fnstart
	.cfi_startproc
@ %bb.0:
	.save	{r7, lr}
	push	{r7, lr}
	.cfi_def_cfa_offset 8
	.cfi_offset lr, -4
	.cfi_offset r7, -8
	.pad	#8
	sub	sp, #8
	.cfi_def_cfa_offset 16
	str	r0, [sp, #4]
	ldr	r0, [sp, #4]
.Ltmp166:
	.loc	3 378 8 prologue_end            @ D:\Embed\MDK\MDK\ARM\ARMCompilerV621\Bin\..\include\libcxx\optional:378:8
	str	r0, [sp]                        @ 4-byte Spill
	bl	_ZNSt3__224__optional_destruct_baseINS_4pairIffEELb1EEC2B7v180000Ev
	ldr	r0, [sp]                        @ 4-byte Reload
	.loc	3 378 8 epilogue_begin is_stmt 0 @ D:\Embed\MDK\MDK\ARM\ARMCompilerV621\Bin\..\include\libcxx\optional:378:8
	add	sp, #8
	pop	{r7, pc}
.Ltmp167:
.Lfunc_end38:
	.size	_ZNSt3__223__optional_storage_baseINS_4pairIffEELb0EEC2Ev, .Lfunc_end38-_ZNSt3__223__optional_storage_baseINS_4pairIffEELb0EEC2Ev
	.cfi_endproc
	.cantunwind
	.fnend
                                        @ -- End function
	.section	.text._ZNSt3__224__optional_destruct_baseINS_4pairIffEELb1EEC2B7v180000Ev,"axG",%progbits,_ZNSt3__224__optional_destruct_baseINS_4pairIffEELb1EEC2B7v180000Ev,comdat
	.hidden	_ZNSt3__224__optional_destruct_baseINS_4pairIffEELb1EEC2B7v180000Ev @ -- Begin function _ZNSt3__224__optional_destruct_baseINS_4pairIffEELb1EEC2B7v180000Ev
	.weak	_ZNSt3__224__optional_destruct_baseINS_4pairIffEELb1EEC2B7v180000Ev
	.p2align	2
	.type	_ZNSt3__224__optional_destruct_baseINS_4pairIffEELb1EEC2B7v180000Ev,%function
	.code	16                              @ @_ZNSt3__224__optional_destruct_baseINS_4pairIffEELb1EEC2B7v180000Ev
	.thumb_func
_ZNSt3__224__optional_destruct_baseINS_4pairIffEELb1EEC2B7v180000Ev:
.Lfunc_begin39:
	.loc	3 352 0 is_stmt 1               @ D:\Embed\MDK\MDK\ARM\ARMCompilerV621\Bin\..\include\libcxx\optional:352:0
	.fnstart
	.cfi_startproc
@ %bb.0:
	.pad	#4
	sub	sp, #4
	.cfi_def_cfa_offset 4
	str	r0, [sp]
	ldr	r0, [sp]
	movs	r1, #0
.Ltmp168:
	.loc	3 351 12 prologue_end           @ D:\Embed\MDK\MDK\ARM\ARMCompilerV621\Bin\..\include\libcxx\optional:351:12
	strb	r1, [r0]
	.loc	3 352 12                        @ D:\Embed\MDK\MDK\ARM\ARMCompilerV621\Bin\..\include\libcxx\optional:352:12
	strb	r1, [r0, #8]
	.loc	3 352 31 epilogue_begin is_stmt 0 @ D:\Embed\MDK\MDK\ARM\ARMCompilerV621\Bin\..\include\libcxx\optional:352:31
	add	sp, #4
	bx	lr
.Ltmp169:
.Lfunc_end39:
	.size	_ZNSt3__224__optional_destruct_baseINS_4pairIffEELb1EEC2B7v180000Ev, .Lfunc_end39-_ZNSt3__224__optional_destruct_baseINS_4pairIffEELb1EEC2B7v180000Ev
	.cfi_endproc
	.cantunwind
	.fnend
                                        @ -- End function
	.section	.text._ZNRSt3__223__optional_storage_baseINS_5arrayIfLj3EEELb0EE5__getB7v180000Ev,"axG",%progbits,_ZNRSt3__223__optional_storage_baseINS_5arrayIfLj3EEELb0EE5__getB7v180000Ev,comdat
	.hidden	_ZNRSt3__223__optional_storage_baseINS_5arrayIfLj3EEELb0EE5__getB7v180000Ev @ -- Begin function _ZNRSt3__223__optional_storage_baseINS_5arrayIfLj3EEELb0EE5__getB7v180000Ev
	.weak	_ZNRSt3__223__optional_storage_baseINS_5arrayIfLj3EEELb0EE5__getB7v180000Ev
	.p2align	2
	.type	_ZNRSt3__223__optional_storage_baseINS_5arrayIfLj3EEELb0EE5__getB7v180000Ev,%function
	.code	16                              @ @_ZNRSt3__223__optional_storage_baseINS_5arrayIfLj3EEELb0EE5__getB7v180000Ev
	.thumb_func
_ZNRSt3__223__optional_storage_baseINS_5arrayIfLj3EEELb0EE5__getB7v180000Ev:
.Lfunc_begin40:
	.loc	3 392 0 is_stmt 1               @ D:\Embed\MDK\MDK\ARM\ARMCompilerV621\Bin\..\include\libcxx\optional:392:0
	.fnstart
	.cfi_startproc
@ %bb.0:
	.pad	#4
	sub	sp, #4
	.cfi_def_cfa_offset 4
	str	r0, [sp]
	ldr	r0, [sp]
.Ltmp170:
	.loc	3 393 9 prologue_end epilogue_begin @ D:\Embed\MDK\MDK\ARM\ARMCompilerV621\Bin\..\include\libcxx\optional:393:9
	add	sp, #4
	bx	lr
.Ltmp171:
.Lfunc_end40:
	.size	_ZNRSt3__223__optional_storage_baseINS_5arrayIfLj3EEELb0EE5__getB7v180000Ev, .Lfunc_end40-_ZNRSt3__223__optional_storage_baseINS_5arrayIfLj3EEELb0EE5__getB7v180000Ev
	.cfi_endproc
	.cantunwind
	.fnend
                                        @ -- End function
	.section	.text._ZNRSt3__223__optional_storage_baseINS_4pairIffEELb0EE5__getB7v180000Ev,"axG",%progbits,_ZNRSt3__223__optional_storage_baseINS_4pairIffEELb0EE5__getB7v180000Ev,comdat
	.hidden	_ZNRSt3__223__optional_storage_baseINS_4pairIffEELb0EE5__getB7v180000Ev @ -- Begin function _ZNRSt3__223__optional_storage_baseINS_4pairIffEELb0EE5__getB7v180000Ev
	.weak	_ZNRSt3__223__optional_storage_baseINS_4pairIffEELb0EE5__getB7v180000Ev
	.p2align	2
	.type	_ZNRSt3__223__optional_storage_baseINS_4pairIffEELb0EE5__getB7v180000Ev,%function
	.code	16                              @ @_ZNRSt3__223__optional_storage_baseINS_4pairIffEELb0EE5__getB7v180000Ev
	.thumb_func
_ZNRSt3__223__optional_storage_baseINS_4pairIffEELb0EE5__getB7v180000Ev:
.Lfunc_begin41:
	.loc	3 392 0                         @ D:\Embed\MDK\MDK\ARM\ARMCompilerV621\Bin\..\include\libcxx\optional:392:0
	.fnstart
	.cfi_startproc
@ %bb.0:
	.pad	#4
	sub	sp, #4
	.cfi_def_cfa_offset 4
	str	r0, [sp]
	ldr	r0, [sp]
.Ltmp172:
	.loc	3 393 9 prologue_end epilogue_begin @ D:\Embed\MDK\MDK\ARM\ARMCompilerV621\Bin\..\include\libcxx\optional:393:9
	add	sp, #4
	bx	lr
.Ltmp173:
.Lfunc_end41:
	.size	_ZNRSt3__223__optional_storage_baseINS_4pairIffEELb0EE5__getB7v180000Ev, .Lfunc_end41-_ZNRSt3__223__optional_storage_baseINS_4pairIffEELb0EE5__getB7v180000Ev
	.cfi_endproc
	.cantunwind
	.fnend
                                        @ -- End function
	.section	.text._ZNSt3__227__optional_move_assign_baseINS_4pairIffEELb0EEaSB7v180000ERKS3_,"axG",%progbits,_ZNSt3__227__optional_move_assign_baseINS_4pairIffEELb0EEaSB7v180000ERKS3_,comdat
	.hidden	_ZNSt3__227__optional_move_assign_baseINS_4pairIffEELb0EEaSB7v180000ERKS3_ @ -- Begin function _ZNSt3__227__optional_move_assign_baseINS_4pairIffEELb0EEaSB7v180000ERKS3_
	.weak	_ZNSt3__227__optional_move_assign_baseINS_4pairIffEELb0EEaSB7v180000ERKS3_
	.p2align	2
	.type	_ZNSt3__227__optional_move_assign_baseINS_4pairIffEELb0EEaSB7v180000ERKS3_,%function
	.code	16                              @ @_ZNSt3__227__optional_move_assign_baseINS_4pairIffEELb0EEaSB7v180000ERKS3_
	.thumb_func
_ZNSt3__227__optional_move_assign_baseINS_4pairIffEELb0EEaSB7v180000ERKS3_:
.Lfunc_begin42:
	.loc	3 656 0                         @ D:\Embed\MDK\MDK\ARM\ARMCompilerV621\Bin\..\include\libcxx\optional:656:0
	.fnstart
	.cfi_startproc
@ %bb.0:
	.save	{r7, lr}
	push	{r7, lr}
	.cfi_def_cfa_offset 8
	.cfi_offset lr, -4
	.cfi_offset r7, -8
	.pad	#16
	sub	sp, #16
	.cfi_def_cfa_offset 24
	str	r0, [sp, #12]
	str	r1, [sp, #8]
	ldr	r0, [sp, #12]
.Ltmp174:
	.loc	3 656 88 prologue_end           @ D:\Embed\MDK\MDK\ARM\ARMCompilerV621\Bin\..\include\libcxx\optional:656:88
	str	r0, [sp, #4]                    @ 4-byte Spill
	ldr	r1, [sp, #8]
	bl	_ZNSt3__227__optional_copy_assign_baseINS_4pairIffEELb0EEaSB7v180000ERKS3_
                                        @ kill: def $r1 killed $r0
	ldr	r0, [sp, #4]                    @ 4-byte Reload
	.loc	3 656 88 epilogue_begin is_stmt 0 @ D:\Embed\MDK\MDK\ARM\ARMCompilerV621\Bin\..\include\libcxx\optional:656:88
	add	sp, #16
	pop	{r7, pc}
.Ltmp175:
.Lfunc_end42:
	.size	_ZNSt3__227__optional_move_assign_baseINS_4pairIffEELb0EEaSB7v180000ERKS3_, .Lfunc_end42-_ZNSt3__227__optional_move_assign_baseINS_4pairIffEELb0EEaSB7v180000ERKS3_
	.cfi_endproc
	.cantunwind
	.fnend
                                        @ -- End function
	.section	.text._ZNSt3__227__optional_copy_assign_baseINS_4pairIffEELb0EEaSB7v180000ERKS3_,"axG",%progbits,_ZNSt3__227__optional_copy_assign_baseINS_4pairIffEELb0EEaSB7v180000ERKS3_,comdat
	.hidden	_ZNSt3__227__optional_copy_assign_baseINS_4pairIffEELb0EEaSB7v180000ERKS3_ @ -- Begin function _ZNSt3__227__optional_copy_assign_baseINS_4pairIffEELb0EEaSB7v180000ERKS3_
	.weak	_ZNSt3__227__optional_copy_assign_baseINS_4pairIffEELb0EEaSB7v180000ERKS3_
	.p2align	2
	.type	_ZNSt3__227__optional_copy_assign_baseINS_4pairIffEELb0EEaSB7v180000ERKS3_,%function
	.code	16                              @ @_ZNSt3__227__optional_copy_assign_baseINS_4pairIffEELb0EEaSB7v180000ERKS3_
	.thumb_func
_ZNSt3__227__optional_copy_assign_baseINS_4pairIffEELb0EEaSB7v180000ERKS3_:
.Lfunc_begin43:
	.loc	3 625 0 is_stmt 1               @ D:\Embed\MDK\MDK\ARM\ARMCompilerV621\Bin\..\include\libcxx\optional:625:0
	.fnstart
	.cfi_startproc
@ %bb.0:
	.save	{r7, lr}
	push	{r7, lr}
	.cfi_def_cfa_offset 8
	.cfi_offset lr, -4
	.cfi_offset r7, -8
	.pad	#16
	sub	sp, #16
	.cfi_def_cfa_offset 24
	str	r0, [sp, #12]
	str	r1, [sp, #8]
	ldr	r0, [sp, #12]
.Ltmp176:
	.loc	3 626 29 prologue_end           @ D:\Embed\MDK\MDK\ARM\ARMCompilerV621\Bin\..\include\libcxx\optional:626:29
	str	r0, [sp, #4]                    @ 4-byte Spill
	ldr	r1, [sp, #8]
	.loc	3 626 15 is_stmt 0              @ D:\Embed\MDK\MDK\ARM\ARMCompilerV621\Bin\..\include\libcxx\optional:626:15
	bl	_ZNSt3__223__optional_storage_baseINS_4pairIffEELb0EE13__assign_fromB7v180000IRKNS_27__optional_copy_assign_baseIS2_Lb0EEEEEvOT_
	ldr	r0, [sp, #4]                    @ 4-byte Reload
	.loc	3 627 9 epilogue_begin is_stmt 1 @ D:\Embed\MDK\MDK\ARM\ARMCompilerV621\Bin\..\include\libcxx\optional:627:9
	add	sp, #16
	pop	{r7, pc}
.Ltmp177:
.Lfunc_end43:
	.size	_ZNSt3__227__optional_copy_assign_baseINS_4pairIffEELb0EEaSB7v180000ERKS3_, .Lfunc_end43-_ZNSt3__227__optional_copy_assign_baseINS_4pairIffEELb0EEaSB7v180000ERKS3_
	.cfi_endproc
	.cantunwind
	.fnend
                                        @ -- End function
	.section	.text._ZNSt3__223__optional_storage_baseINS_4pairIffEELb0EE13__assign_fromB7v180000IRKNS_27__optional_copy_assign_baseIS2_Lb0EEEEEvOT_,"axG",%progbits,_ZNSt3__223__optional_storage_baseINS_4pairIffEELb0EE13__assign_fromB7v180000IRKNS_27__optional_copy_assign_baseIS2_Lb0EEEEEvOT_,comdat
	.hidden	_ZNSt3__223__optional_storage_baseINS_4pairIffEELb0EE13__assign_fromB7v180000IRKNS_27__optional_copy_assign_baseIS2_Lb0EEEEEvOT_ @ -- Begin function _ZNSt3__223__optional_storage_baseINS_4pairIffEELb0EE13__assign_fromB7v180000IRKNS_27__optional_copy_assign_baseIS2_Lb0EEEEEvOT_
	.weak	_ZNSt3__223__optional_storage_baseINS_4pairIffEELb0EE13__assign_fromB7v180000IRKNS_27__optional_copy_assign_baseIS2_Lb0EEEEEvOT_
	.p2align	2
	.type	_ZNSt3__223__optional_storage_baseINS_4pairIffEELb0EE13__assign_fromB7v180000IRKNS_27__optional_copy_assign_baseIS2_Lb0EEEEEvOT_,%function
	.code	16                              @ @_ZNSt3__223__optional_storage_baseINS_4pairIffEELb0EE13__assign_fromB7v180000IRKNS_27__optional_copy_assign_baseIS2_Lb0EEEEEvOT_
	.thumb_func
_ZNSt3__223__optional_storage_baseINS_4pairIffEELb0EE13__assign_fromB7v180000IRKNS_27__optional_copy_assign_baseIS2_Lb0EEEEEvOT_:
.Lfunc_begin44:
	.loc	3 435 0                         @ D:\Embed\MDK\MDK\ARM\ARMCompilerV621\Bin\..\include\libcxx\optional:435:0
	.fnstart
	.cfi_startproc
@ %bb.0:
	.save	{r7, lr}
	push	{r7, lr}
	.cfi_def_cfa_offset 8
	.cfi_offset lr, -4
	.cfi_offset r7, -8
	.pad	#16
	sub	sp, #16
	.cfi_def_cfa_offset 24
	str	r0, [sp, #12]
	str	r1, [sp, #8]
	ldr	r0, [sp, #12]
.Ltmp178:
	.loc	3 436 13 prologue_end           @ D:\Embed\MDK\MDK\ARM\ARMCompilerV621\Bin\..\include\libcxx\optional:436:13
	str	r0, [sp]                        @ 4-byte Spill
	ldrb	r0, [r0, #8]
	and	r0, r0, #1
	.loc	3 436 33 is_stmt 0              @ D:\Embed\MDK\MDK\ARM\ARMCompilerV621\Bin\..\include\libcxx\optional:436:33
	str	r0, [sp, #4]                    @ 4-byte Spill
	ldr	r0, [sp, #8]
	.loc	3 436 39                        @ D:\Embed\MDK\MDK\ARM\ARMCompilerV621\Bin\..\include\libcxx\optional:436:39
	bl	_ZNKSt3__223__optional_storage_baseINS_4pairIffEELb0EE9has_valueB7v180000Ev
	mov	r1, r0
.Ltmp179:
	.loc	3 436 13                        @ D:\Embed\MDK\MDK\ARM\ARMCompilerV621\Bin\..\include\libcxx\optional:436:13
	ldr	r0, [sp, #4]                    @ 4-byte Reload
	cmp	r0, r1
	bne	.LBB44_4
	b	.LBB44_1
.LBB44_1:
.Ltmp180:
	.loc	3 438 23 is_stmt 1              @ D:\Embed\MDK\MDK\ARM\ARMCompilerV621\Bin\..\include\libcxx\optional:438:23
	ldr	r0, [sp]                        @ 4-byte Reload
	ldrb	r0, [r0, #8]
.Ltmp181:
	.loc	3 438 17 is_stmt 0              @ D:\Embed\MDK\MDK\ARM\ARMCompilerV621\Bin\..\include\libcxx\optional:438:17
	lsls	r0, r0, #31
	cbz	r0, .LBB44_3
	b	.LBB44_2
.LBB44_2:
.Ltmp182:
	.loc	3 439 54 is_stmt 1              @ D:\Embed\MDK\MDK\ARM\ARMCompilerV621\Bin\..\include\libcxx\optional:439:54
	ldr	r0, [sp, #8]
	.loc	3 439 61 is_stmt 0              @ D:\Embed\MDK\MDK\ARM\ARMCompilerV621\Bin\..\include\libcxx\optional:439:61
	bl	_ZNKRSt3__223__optional_storage_baseINS_4pairIffEELb0EE5__getB7v180000Ev
	mov	r1, r0
	.loc	3 439 30                        @ D:\Embed\MDK\MDK\ARM\ARMCompilerV621\Bin\..\include\libcxx\optional:439:30
	ldr	r0, [sp]                        @ 4-byte Reload
	bl	_ZNSt3__24pairIffEaSB7v180000ERKS1_
	.loc	3 439 17                        @ D:\Embed\MDK\MDK\ARM\ARMCompilerV621\Bin\..\include\libcxx\optional:439:17
	b	.LBB44_3
.Ltmp183:
.LBB44_3:
	.loc	3 440 9 is_stmt 1               @ D:\Embed\MDK\MDK\ARM\ARMCompilerV621\Bin\..\include\libcxx\optional:440:9
	b	.LBB44_8
.Ltmp184:
.LBB44_4:
	.loc	3 443 23                        @ D:\Embed\MDK\MDK\ARM\ARMCompilerV621\Bin\..\include\libcxx\optional:443:23
	ldr	r0, [sp]                        @ 4-byte Reload
	ldrb	r0, [r0, #8]
.Ltmp185:
	.loc	3 443 17 is_stmt 0              @ D:\Embed\MDK\MDK\ARM\ARMCompilerV621\Bin\..\include\libcxx\optional:443:17
	lsls	r0, r0, #31
	cbz	r0, .LBB44_6
	b	.LBB44_5
.LBB44_5:
.Ltmp186:
	.loc	3 444 23 is_stmt 1              @ D:\Embed\MDK\MDK\ARM\ARMCompilerV621\Bin\..\include\libcxx\optional:444:23
	ldr	r0, [sp]                        @ 4-byte Reload
	bl	_ZNSt3__224__optional_destruct_baseINS_4pairIffEELb1EE5resetB7v180000Ev
	.loc	3 444 17 is_stmt 0              @ D:\Embed\MDK\MDK\ARM\ARMCompilerV621\Bin\..\include\libcxx\optional:444:17
	b	.LBB44_7
.LBB44_6:
	.loc	3 446 51 is_stmt 1              @ D:\Embed\MDK\MDK\ARM\ARMCompilerV621\Bin\..\include\libcxx\optional:446:51
	ldr	r0, [sp, #8]
	.loc	3 446 58 is_stmt 0              @ D:\Embed\MDK\MDK\ARM\ARMCompilerV621\Bin\..\include\libcxx\optional:446:58
	bl	_ZNKRSt3__223__optional_storage_baseINS_4pairIffEELb0EE5__getB7v180000Ev
	mov	r1, r0
	.loc	3 446 17                        @ D:\Embed\MDK\MDK\ARM\ARMCompilerV621\Bin\..\include\libcxx\optional:446:17
	ldr	r0, [sp]                        @ 4-byte Reload
	bl	_ZNSt3__223__optional_storage_baseINS_4pairIffEELb0EE11__constructB7v180000IJRKS2_EEEvDpOT_
	b	.LBB44_7
.Ltmp187:
.LBB44_7:
	.loc	3 0 17                          @ D:\Embed\MDK\MDK\ARM\ARMCompilerV621\Bin\..\include\libcxx\optional:0:17
	b	.LBB44_8
.LBB44_8:
	.loc	3 448 5 epilogue_begin is_stmt 1 @ D:\Embed\MDK\MDK\ARM\ARMCompilerV621\Bin\..\include\libcxx\optional:448:5
	add	sp, #16
	pop	{r7, pc}
.Ltmp188:
.Lfunc_end44:
	.size	_ZNSt3__223__optional_storage_baseINS_4pairIffEELb0EE13__assign_fromB7v180000IRKNS_27__optional_copy_assign_baseIS2_Lb0EEEEEvOT_, .Lfunc_end44-_ZNSt3__223__optional_storage_baseINS_4pairIffEELb0EE13__assign_fromB7v180000IRKNS_27__optional_copy_assign_baseIS2_Lb0EEEEEvOT_
	.cfi_endproc
	.cantunwind
	.fnend
                                        @ -- End function
	.section	.text._ZNKRSt3__223__optional_storage_baseINS_4pairIffEELb0EE5__getB7v180000Ev,"axG",%progbits,_ZNKRSt3__223__optional_storage_baseINS_4pairIffEELb0EE5__getB7v180000Ev,comdat
	.hidden	_ZNKRSt3__223__optional_storage_baseINS_4pairIffEELb0EE5__getB7v180000Ev @ -- Begin function _ZNKRSt3__223__optional_storage_baseINS_4pairIffEELb0EE5__getB7v180000Ev
	.weak	_ZNKRSt3__223__optional_storage_baseINS_4pairIffEELb0EE5__getB7v180000Ev
	.p2align	2
	.type	_ZNKRSt3__223__optional_storage_baseINS_4pairIffEELb0EE5__getB7v180000Ev,%function
	.code	16                              @ @_ZNKRSt3__223__optional_storage_baseINS_4pairIffEELb0EE5__getB7v180000Ev
	.thumb_func
_ZNKRSt3__223__optional_storage_baseINS_4pairIffEELb0EE5__getB7v180000Ev:
.Lfunc_begin45:
	.loc	3 397 0                         @ D:\Embed\MDK\MDK\ARM\ARMCompilerV621\Bin\..\include\libcxx\optional:397:0
	.fnstart
	.cfi_startproc
@ %bb.0:
	.pad	#4
	sub	sp, #4
	.cfi_def_cfa_offset 4
	str	r0, [sp]
	ldr	r0, [sp]
.Ltmp189:
	.loc	3 398 9 prologue_end epilogue_begin @ D:\Embed\MDK\MDK\ARM\ARMCompilerV621\Bin\..\include\libcxx\optional:398:9
	add	sp, #4
	bx	lr
.Ltmp190:
.Lfunc_end45:
	.size	_ZNKRSt3__223__optional_storage_baseINS_4pairIffEELb0EE5__getB7v180000Ev, .Lfunc_end45-_ZNKRSt3__223__optional_storage_baseINS_4pairIffEELb0EE5__getB7v180000Ev
	.cfi_endproc
	.cantunwind
	.fnend
                                        @ -- End function
	.section	.text._ZNSt3__24pairIffEaSB7v180000ERKS1_,"axG",%progbits,_ZNSt3__24pairIffEaSB7v180000ERKS1_,comdat
	.hidden	_ZNSt3__24pairIffEaSB7v180000ERKS1_ @ -- Begin function _ZNSt3__24pairIffEaSB7v180000ERKS1_
	.weak	_ZNSt3__24pairIffEaSB7v180000ERKS1_
	.p2align	2
	.type	_ZNSt3__24pairIffEaSB7v180000ERKS1_,%function
	.code	16                              @ @_ZNSt3__24pairIffEaSB7v180000ERKS1_
	.thumb_func
_ZNSt3__24pairIffEaSB7v180000ERKS1_:
.Lfunc_begin46:
	.loc	9 311 0                         @ D:\Embed\MDK\MDK\ARM\ARMCompilerV621\Bin\..\include\libcxx\__utility/pair.h:311:0
	.fnstart
	.cfi_startproc
@ %bb.0:
	.pad	#8
	sub	sp, #8
	.cfi_def_cfa_offset 8
	str	r0, [sp, #4]
	str	r1, [sp]
	ldr	r0, [sp, #4]
.Ltmp191:
	.loc	9 312 17 prologue_end           @ D:\Embed\MDK\MDK\ARM\ARMCompilerV621\Bin\..\include\libcxx\__utility/pair.h:312:17
	ldr	r1, [sp]
	.loc	9 312 21 is_stmt 0              @ D:\Embed\MDK\MDK\ARM\ARMCompilerV621\Bin\..\include\libcxx\__utility/pair.h:312:21
	ldr	r1, [r1]
	.loc	9 312 15                        @ D:\Embed\MDK\MDK\ARM\ARMCompilerV621\Bin\..\include\libcxx\__utility/pair.h:312:15
	str	r1, [r0]
	.loc	9 313 18 is_stmt 1              @ D:\Embed\MDK\MDK\ARM\ARMCompilerV621\Bin\..\include\libcxx\__utility/pair.h:313:18
	ldr	r1, [sp]
	.loc	9 313 22 is_stmt 0              @ D:\Embed\MDK\MDK\ARM\ARMCompilerV621\Bin\..\include\libcxx\__utility/pair.h:313:22
	ldr	r1, [r1, #4]
	.loc	9 313 16                        @ D:\Embed\MDK\MDK\ARM\ARMCompilerV621\Bin\..\include\libcxx\__utility/pair.h:313:16
	str	r1, [r0, #4]
	.loc	9 314 9 epilogue_begin is_stmt 1 @ D:\Embed\MDK\MDK\ARM\ARMCompilerV621\Bin\..\include\libcxx\__utility/pair.h:314:9
	add	sp, #8
	bx	lr
.Ltmp192:
.Lfunc_end46:
	.size	_ZNSt3__24pairIffEaSB7v180000ERKS1_, .Lfunc_end46-_ZNSt3__24pairIffEaSB7v180000ERKS1_
	.cfi_endproc
	.cantunwind
	.fnend
                                        @ -- End function
	.section	.text._ZNSt3__224__optional_destruct_baseINS_4pairIffEELb1EE5resetB7v180000Ev,"axG",%progbits,_ZNSt3__224__optional_destruct_baseINS_4pairIffEELb1EE5resetB7v180000Ev,comdat
	.hidden	_ZNSt3__224__optional_destruct_baseINS_4pairIffEELb1EE5resetB7v180000Ev @ -- Begin function _ZNSt3__224__optional_destruct_baseINS_4pairIffEELb1EE5resetB7v180000Ev
	.weak	_ZNSt3__224__optional_destruct_baseINS_4pairIffEELb1EE5resetB7v180000Ev
	.p2align	2
	.type	_ZNSt3__224__optional_destruct_baseINS_4pairIffEELb1EE5resetB7v180000Ev,%function
	.code	16                              @ @_ZNSt3__224__optional_destruct_baseINS_4pairIffEELb1EE5resetB7v180000Ev
	.thumb_func
_ZNSt3__224__optional_destruct_baseINS_4pairIffEELb1EE5resetB7v180000Ev:
.Lfunc_begin47:
	.loc	3 369 0                         @ D:\Embed\MDK\MDK\ARM\ARMCompilerV621\Bin\..\include\libcxx\optional:369:0
	.fnstart
	.cfi_startproc
@ %bb.0:
	.pad	#8
	sub	sp, #8
	.cfi_def_cfa_offset 8
	str	r0, [sp, #4]
	ldr	r0, [sp, #4]
.Ltmp193:
	.loc	3 370 13 prologue_end           @ D:\Embed\MDK\MDK\ARM\ARMCompilerV621\Bin\..\include\libcxx\optional:370:13
	str	r0, [sp]                        @ 4-byte Spill
	ldrb	r0, [r0, #8]
.Ltmp194:
	.loc	3 370 13 is_stmt 0              @ D:\Embed\MDK\MDK\ARM\ARMCompilerV621\Bin\..\include\libcxx\optional:370:13
	lsls	r0, r0, #31
	cbz	r0, .LBB47_2
	b	.LBB47_1
.LBB47_1:
	.loc	3 0 13                          @ D:\Embed\MDK\MDK\ARM\ARMCompilerV621\Bin\..\include\libcxx\optional:0:13
	ldr	r1, [sp]                        @ 4-byte Reload
	movs	r0, #0
.Ltmp195:
	.loc	3 372 24 is_stmt 1              @ D:\Embed\MDK\MDK\ARM\ARMCompilerV621\Bin\..\include\libcxx\optional:372:24
	strb	r0, [r1, #8]
	.loc	3 373 9                         @ D:\Embed\MDK\MDK\ARM\ARMCompilerV621\Bin\..\include\libcxx\optional:373:9
	b	.LBB47_2
.Ltmp196:
.LBB47_2:
	.loc	3 374 5 epilogue_begin          @ D:\Embed\MDK\MDK\ARM\ARMCompilerV621\Bin\..\include\libcxx\optional:374:5
	add	sp, #8
	bx	lr
.Ltmp197:
.Lfunc_end47:
	.size	_ZNSt3__224__optional_destruct_baseINS_4pairIffEELb1EE5resetB7v180000Ev, .Lfunc_end47-_ZNSt3__224__optional_destruct_baseINS_4pairIffEELb1EE5resetB7v180000Ev
	.cfi_endproc
	.cantunwind
	.fnend
                                        @ -- End function
	.section	.text._ZNSt3__223__optional_storage_baseINS_4pairIffEELb0EE11__constructB7v180000IJRKS2_EEEvDpOT_,"axG",%progbits,_ZNSt3__223__optional_storage_baseINS_4pairIffEELb0EE11__constructB7v180000IJRKS2_EEEvDpOT_,comdat
	.hidden	_ZNSt3__223__optional_storage_baseINS_4pairIffEELb0EE11__constructB7v180000IJRKS2_EEEvDpOT_ @ -- Begin function _ZNSt3__223__optional_storage_baseINS_4pairIffEELb0EE11__constructB7v180000IJRKS2_EEEvDpOT_
	.weak	_ZNSt3__223__optional_storage_baseINS_4pairIffEELb0EE11__constructB7v180000IJRKS2_EEEvDpOT_
	.p2align	2
	.type	_ZNSt3__223__optional_storage_baseINS_4pairIffEELb0EE11__constructB7v180000IJRKS2_EEEvDpOT_,%function
	.code	16                              @ @_ZNSt3__223__optional_storage_baseINS_4pairIffEELb0EE11__constructB7v180000IJRKS2_EEEvDpOT_
	.thumb_func
_ZNSt3__223__optional_storage_baseINS_4pairIffEELb0EE11__constructB7v180000IJRKS2_EEEvDpOT_:
.Lfunc_begin48:
	.loc	3 414 0                         @ D:\Embed\MDK\MDK\ARM\ARMCompilerV621\Bin\..\include\libcxx\optional:414:0
	.fnstart
	.cfi_startproc
@ %bb.0:
	.pad	#8
	sub	sp, #8
	.cfi_def_cfa_offset 8
	str	r0, [sp, #4]
	str	r1, [sp]
	ldr	r1, [sp, #4]
.Ltmp198:
	.loc	3 419 88 prologue_end           @ D:\Embed\MDK\MDK\ARM\ARMCompilerV621\Bin\..\include\libcxx\optional:419:88
	ldr	r2, [sp]
	.loc	3 419 55 is_stmt 0              @ D:\Embed\MDK\MDK\ARM\ARMCompilerV621\Bin\..\include\libcxx\optional:419:55
	ldr	r0, [r2]
	ldr	r2, [r2, #4]
	str	r2, [r1, #4]
	str	r0, [r1]
	movs	r0, #1
	.loc	3 421 26 is_stmt 1              @ D:\Embed\MDK\MDK\ARM\ARMCompilerV621\Bin\..\include\libcxx\optional:421:26
	strb	r0, [r1, #8]
	.loc	3 422 5 epilogue_begin          @ D:\Embed\MDK\MDK\ARM\ARMCompilerV621\Bin\..\include\libcxx\optional:422:5
	add	sp, #8
	bx	lr
.Ltmp199:
.Lfunc_end48:
	.size	_ZNSt3__223__optional_storage_baseINS_4pairIffEELb0EE11__constructB7v180000IJRKS2_EEEvDpOT_, .Lfunc_end48-_ZNSt3__223__optional_storage_baseINS_4pairIffEELb0EE11__constructB7v180000IJRKS2_EEEvDpOT_
	.cfi_endproc
	.cantunwind
	.fnend
                                        @ -- End function
	.section	.text._ZNSt3__210__get_pairILj0EE3getB7v180000IffEEOT_ONS_4pairIS3_T0_EE,"axG",%progbits,_ZNSt3__210__get_pairILj0EE3getB7v180000IffEEOT_ONS_4pairIS3_T0_EE,comdat
	.hidden	_ZNSt3__210__get_pairILj0EE3getB7v180000IffEEOT_ONS_4pairIS3_T0_EE @ -- Begin function _ZNSt3__210__get_pairILj0EE3getB7v180000IffEEOT_ONS_4pairIS3_T0_EE
	.weak	_ZNSt3__210__get_pairILj0EE3getB7v180000IffEEOT_ONS_4pairIS3_T0_EE
	.p2align	2
	.type	_ZNSt3__210__get_pairILj0EE3getB7v180000IffEEOT_ONS_4pairIS3_T0_EE,%function
	.code	16                              @ @_ZNSt3__210__get_pairILj0EE3getB7v180000IffEEOT_ONS_4pairIS3_T0_EE
	.thumb_func
_ZNSt3__210__get_pairILj0EE3getB7v180000IffEEOT_ONS_4pairIS3_T0_EE:
.Lfunc_begin49:
	.loc	9 751 0                         @ D:\Embed\MDK\MDK\ARM\ARMCompilerV621\Bin\..\include\libcxx\__utility/pair.h:751:0
	.fnstart
	.cfi_startproc
@ %bb.0:
	.pad	#4
	sub	sp, #4
	.cfi_def_cfa_offset 4
	str	r0, [sp]
.Ltmp200:
	.loc	9 751 67 prologue_end           @ D:\Embed\MDK\MDK\ARM\ARMCompilerV621\Bin\..\include\libcxx\__utility/pair.h:751:67
	ldr	r0, [sp]
	.loc	9 751 42 epilogue_begin is_stmt 0 @ D:\Embed\MDK\MDK\ARM\ARMCompilerV621\Bin\..\include\libcxx\__utility/pair.h:751:42
	add	sp, #4
	bx	lr
.Ltmp201:
.Lfunc_end49:
	.size	_ZNSt3__210__get_pairILj0EE3getB7v180000IffEEOT_ONS_4pairIS3_T0_EE, .Lfunc_end49-_ZNSt3__210__get_pairILj0EE3getB7v180000IffEEOT_ONS_4pairIS3_T0_EE
	.cfi_endproc
	.cantunwind
	.fnend
                                        @ -- End function
	.section	.text._ZNSt3__210__get_pairILj1EE3getB7v180000IffEEOT0_ONS_4pairIT_S3_EE,"axG",%progbits,_ZNSt3__210__get_pairILj1EE3getB7v180000IffEEOT0_ONS_4pairIT_S3_EE,comdat
	.hidden	_ZNSt3__210__get_pairILj1EE3getB7v180000IffEEOT0_ONS_4pairIT_S3_EE @ -- Begin function _ZNSt3__210__get_pairILj1EE3getB7v180000IffEEOT0_ONS_4pairIT_S3_EE
	.weak	_ZNSt3__210__get_pairILj1EE3getB7v180000IffEEOT0_ONS_4pairIT_S3_EE
	.p2align	2
	.type	_ZNSt3__210__get_pairILj1EE3getB7v180000IffEEOT0_ONS_4pairIT_S3_EE,%function
	.code	16                              @ @_ZNSt3__210__get_pairILj1EE3getB7v180000IffEEOT0_ONS_4pairIT_S3_EE
	.thumb_func
_ZNSt3__210__get_pairILj1EE3getB7v180000IffEEOT0_ONS_4pairIT_S3_EE:
.Lfunc_begin50:
	.loc	9 779 0 is_stmt 1               @ D:\Embed\MDK\MDK\ARM\ARMCompilerV621\Bin\..\include\libcxx\__utility/pair.h:779:0
	.fnstart
	.cfi_startproc
@ %bb.0:
	.pad	#4
	sub	sp, #4
	.cfi_def_cfa_offset 4
	str	r0, [sp]
.Ltmp202:
	.loc	9 779 67 prologue_end           @ D:\Embed\MDK\MDK\ARM\ARMCompilerV621\Bin\..\include\libcxx\__utility/pair.h:779:67
	ldr	r0, [sp]
	.loc	9 779 71 is_stmt 0              @ D:\Embed\MDK\MDK\ARM\ARMCompilerV621\Bin\..\include\libcxx\__utility/pair.h:779:71
	adds	r0, #4
	.loc	9 779 42 epilogue_begin         @ D:\Embed\MDK\MDK\ARM\ARMCompilerV621\Bin\..\include\libcxx\__utility/pair.h:779:42
	add	sp, #4
	bx	lr
.Ltmp203:
.Lfunc_end50:
	.size	_ZNSt3__210__get_pairILj1EE3getB7v180000IffEEOT0_ONS_4pairIT_S3_EE, .Lfunc_end50-_ZNSt3__210__get_pairILj1EE3getB7v180000IffEEOT0_ONS_4pairIT_S3_EE
	.cfi_endproc
	.cantunwind
	.fnend
                                        @ -- End function
	.section	.text._ZNRSt3__223__optional_storage_baseIfLb0EE5__getB7v180000Ev,"axG",%progbits,_ZNRSt3__223__optional_storage_baseIfLb0EE5__getB7v180000Ev,comdat
	.hidden	_ZNRSt3__223__optional_storage_baseIfLb0EE5__getB7v180000Ev @ -- Begin function _ZNRSt3__223__optional_storage_baseIfLb0EE5__getB7v180000Ev
	.weak	_ZNRSt3__223__optional_storage_baseIfLb0EE5__getB7v180000Ev
	.p2align	2
	.type	_ZNRSt3__223__optional_storage_baseIfLb0EE5__getB7v180000Ev,%function
	.code	16                              @ @_ZNRSt3__223__optional_storage_baseIfLb0EE5__getB7v180000Ev
	.thumb_func
_ZNRSt3__223__optional_storage_baseIfLb0EE5__getB7v180000Ev:
.Lfunc_begin51:
	.loc	3 392 0 is_stmt 1               @ D:\Embed\MDK\MDK\ARM\ARMCompilerV621\Bin\..\include\libcxx\optional:392:0
	.fnstart
	.cfi_startproc
@ %bb.0:
	.pad	#4
	sub	sp, #4
	.cfi_def_cfa_offset 4
	str	r0, [sp]
	ldr	r0, [sp]
.Ltmp204:
	.loc	3 393 9 prologue_end epilogue_begin @ D:\Embed\MDK\MDK\ARM\ARMCompilerV621\Bin\..\include\libcxx\optional:393:9
	add	sp, #4
	bx	lr
.Ltmp205:
.Lfunc_end51:
	.size	_ZNRSt3__223__optional_storage_baseIfLb0EE5__getB7v180000Ev, .Lfunc_end51-_ZNRSt3__223__optional_storage_baseIfLb0EE5__getB7v180000Ev
	.cfi_endproc
	.cantunwind
	.fnend
                                        @ -- End function
	.section	.text._ZNSt3__227__optional_move_assign_baseIfLb1EECI2NS_24__optional_destruct_baseIfLb1EEEIJfEEENS_10in_place_tEDpOT_,"axG",%progbits,_ZNSt3__227__optional_move_assign_baseIfLb1EECI2NS_24__optional_destruct_baseIfLb1EEEIJfEEENS_10in_place_tEDpOT_,comdat
	.hidden	_ZNSt3__227__optional_move_assign_baseIfLb1EECI2NS_24__optional_destruct_baseIfLb1EEEIJfEEENS_10in_place_tEDpOT_ @ -- Begin function _ZNSt3__227__optional_move_assign_baseIfLb1EECI2NS_24__optional_destruct_baseIfLb1EEEIJfEEENS_10in_place_tEDpOT_
	.weak	_ZNSt3__227__optional_move_assign_baseIfLb1EECI2NS_24__optional_destruct_baseIfLb1EEEIJfEEENS_10in_place_tEDpOT_
	.p2align	2
	.type	_ZNSt3__227__optional_move_assign_baseIfLb1EECI2NS_24__optional_destruct_baseIfLb1EEEIJfEEENS_10in_place_tEDpOT_,%function
	.code	16                              @ @_ZNSt3__227__optional_move_assign_baseIfLb1EECI2NS_24__optional_destruct_baseIfLb1EEEIJfEEENS_10in_place_tEDpOT_
	.thumb_func
_ZNSt3__227__optional_move_assign_baseIfLb1EECI2NS_24__optional_destruct_baseIfLb1EEEIJfEEENS_10in_place_tEDpOT_:
.Lfunc_begin52:
	.loc	3 640 0                         @ D:\Embed\MDK\MDK\ARM\ARMCompilerV621\Bin\..\include\libcxx\optional:640:0
	.fnstart
	.cfi_startproc
@ %bb.0:
	.save	{r7, lr}
	push	{r7, lr}
	.cfi_def_cfa_offset 8
	.cfi_offset lr, -4
	.cfi_offset r7, -8
	.pad	#16
	sub	sp, #16
	.cfi_def_cfa_offset 24
	str	r0, [sp, #8]
	str	r1, [sp, #4]
	ldr	r0, [sp, #8]
.Ltmp206:
	.loc	3 640 45 prologue_end           @ D:\Embed\MDK\MDK\ARM\ARMCompilerV621\Bin\..\include\libcxx\optional:640:45
	str	r0, [sp]                        @ 4-byte Spill
	ldr	r1, [sp, #4]
	bl	_ZNSt3__227__optional_copy_assign_baseIfLb1EECI2NS_24__optional_destruct_baseIfLb1EEEIJfEEENS_10in_place_tEDpOT_
	ldr	r0, [sp]                        @ 4-byte Reload
	.loc	3 640 45 epilogue_begin is_stmt 0 @ D:\Embed\MDK\MDK\ARM\ARMCompilerV621\Bin\..\include\libcxx\optional:640:45
	add	sp, #16
	pop	{r7, pc}
.Ltmp207:
.Lfunc_end52:
	.size	_ZNSt3__227__optional_move_assign_baseIfLb1EECI2NS_24__optional_destruct_baseIfLb1EEEIJfEEENS_10in_place_tEDpOT_, .Lfunc_end52-_ZNSt3__227__optional_move_assign_baseIfLb1EECI2NS_24__optional_destruct_baseIfLb1EEEIJfEEENS_10in_place_tEDpOT_
	.cfi_endproc
	.cantunwind
	.fnend
                                        @ -- End function
	.section	.text._ZNSt3__227__optional_copy_assign_baseIfLb1EECI2NS_24__optional_destruct_baseIfLb1EEEIJfEEENS_10in_place_tEDpOT_,"axG",%progbits,_ZNSt3__227__optional_copy_assign_baseIfLb1EECI2NS_24__optional_destruct_baseIfLb1EEEIJfEEENS_10in_place_tEDpOT_,comdat
	.hidden	_ZNSt3__227__optional_copy_assign_baseIfLb1EECI2NS_24__optional_destruct_baseIfLb1EEEIJfEEENS_10in_place_tEDpOT_ @ -- Begin function _ZNSt3__227__optional_copy_assign_baseIfLb1EECI2NS_24__optional_destruct_baseIfLb1EEEIJfEEENS_10in_place_tEDpOT_
	.weak	_ZNSt3__227__optional_copy_assign_baseIfLb1EECI2NS_24__optional_destruct_baseIfLb1EEEIJfEEENS_10in_place_tEDpOT_
	.p2align	2
	.type	_ZNSt3__227__optional_copy_assign_baseIfLb1EECI2NS_24__optional_destruct_baseIfLb1EEEIJfEEENS_10in_place_tEDpOT_,%function
	.code	16                              @ @_ZNSt3__227__optional_copy_assign_baseIfLb1EECI2NS_24__optional_destruct_baseIfLb1EEEIJfEEENS_10in_place_tEDpOT_
	.thumb_func
_ZNSt3__227__optional_copy_assign_baseIfLb1EECI2NS_24__optional_destruct_baseIfLb1EEEIJfEEENS_10in_place_tEDpOT_:
.Lfunc_begin53:
	.loc	3 608 0 is_stmt 1               @ D:\Embed\MDK\MDK\ARM\ARMCompilerV621\Bin\..\include\libcxx\optional:608:0
	.fnstart
	.cfi_startproc
@ %bb.0:
	.save	{r7, lr}
	push	{r7, lr}
	.cfi_def_cfa_offset 8
	.cfi_offset lr, -4
	.cfi_offset r7, -8
	.pad	#16
	sub	sp, #16
	.cfi_def_cfa_offset 24
	str	r0, [sp, #8]
	str	r1, [sp, #4]
	ldr	r0, [sp, #8]
.Ltmp208:
	.loc	3 608 38 prologue_end           @ D:\Embed\MDK\MDK\ARM\ARMCompilerV621\Bin\..\include\libcxx\optional:608:38
	str	r0, [sp]                        @ 4-byte Spill
	ldr	r1, [sp, #4]
	bl	_ZNSt3__220__optional_move_baseIfLb1EECI2NS_24__optional_destruct_baseIfLb1EEEIJfEEENS_10in_place_tEDpOT_
	ldr	r0, [sp]                        @ 4-byte Reload
	.loc	3 608 38 epilogue_begin is_stmt 0 @ D:\Embed\MDK\MDK\ARM\ARMCompilerV621\Bin\..\include\libcxx\optional:608:38
	add	sp, #16
	pop	{r7, pc}
.Ltmp209:
.Lfunc_end53:
	.size	_ZNSt3__227__optional_copy_assign_baseIfLb1EECI2NS_24__optional_destruct_baseIfLb1EEEIJfEEENS_10in_place_tEDpOT_, .Lfunc_end53-_ZNSt3__227__optional_copy_assign_baseIfLb1EECI2NS_24__optional_destruct_baseIfLb1EEEIJfEEENS_10in_place_tEDpOT_
	.cfi_endproc
	.cantunwind
	.fnend
                                        @ -- End function
	.section	.text._ZNSt3__220__optional_move_baseIfLb1EECI2NS_24__optional_destruct_baseIfLb1EEEIJfEEENS_10in_place_tEDpOT_,"axG",%progbits,_ZNSt3__220__optional_move_baseIfLb1EECI2NS_24__optional_destruct_baseIfLb1EEEIJfEEENS_10in_place_tEDpOT_,comdat
	.hidden	_ZNSt3__220__optional_move_baseIfLb1EECI2NS_24__optional_destruct_baseIfLb1EEEIJfEEENS_10in_place_tEDpOT_ @ -- Begin function _ZNSt3__220__optional_move_baseIfLb1EECI2NS_24__optional_destruct_baseIfLb1EEEIJfEEENS_10in_place_tEDpOT_
	.weak	_ZNSt3__220__optional_move_baseIfLb1EECI2NS_24__optional_destruct_baseIfLb1EEEIJfEEENS_10in_place_tEDpOT_
	.p2align	2
	.type	_ZNSt3__220__optional_move_baseIfLb1EECI2NS_24__optional_destruct_baseIfLb1EEEIJfEEENS_10in_place_tEDpOT_,%function
	.code	16                              @ @_ZNSt3__220__optional_move_baseIfLb1EECI2NS_24__optional_destruct_baseIfLb1EEEIJfEEENS_10in_place_tEDpOT_
	.thumb_func
_ZNSt3__220__optional_move_baseIfLb1EECI2NS_24__optional_destruct_baseIfLb1EEEIJfEEENS_10in_place_tEDpOT_:
.Lfunc_begin54:
	.loc	3 575 0 is_stmt 1               @ D:\Embed\MDK\MDK\ARM\ARMCompilerV621\Bin\..\include\libcxx\optional:575:0
	.fnstart
	.cfi_startproc
@ %bb.0:
	.save	{r7, lr}
	push	{r7, lr}
	.cfi_def_cfa_offset 8
	.cfi_offset lr, -4
	.cfi_offset r7, -8
	.pad	#16
	sub	sp, #16
	.cfi_def_cfa_offset 24
	str	r0, [sp, #8]
	str	r1, [sp, #4]
	ldr	r0, [sp, #8]
.Ltmp210:
	.loc	3 575 38 prologue_end           @ D:\Embed\MDK\MDK\ARM\ARMCompilerV621\Bin\..\include\libcxx\optional:575:38
	str	r0, [sp]                        @ 4-byte Spill
	ldr	r1, [sp, #4]
	bl	_ZNSt3__220__optional_copy_baseIfLb1EECI2NS_24__optional_destruct_baseIfLb1EEEIJfEEENS_10in_place_tEDpOT_
	ldr	r0, [sp]                        @ 4-byte Reload
	.loc	3 575 38 epilogue_begin is_stmt 0 @ D:\Embed\MDK\MDK\ARM\ARMCompilerV621\Bin\..\include\libcxx\optional:575:38
	add	sp, #16
	pop	{r7, pc}
.Ltmp211:
.Lfunc_end54:
	.size	_ZNSt3__220__optional_move_baseIfLb1EECI2NS_24__optional_destruct_baseIfLb1EEEIJfEEENS_10in_place_tEDpOT_, .Lfunc_end54-_ZNSt3__220__optional_move_baseIfLb1EECI2NS_24__optional_destruct_baseIfLb1EEEIJfEEENS_10in_place_tEDpOT_
	.cfi_endproc
	.cantunwind
	.fnend
                                        @ -- End function
	.section	.text._ZNSt3__220__optional_copy_baseIfLb1EECI2NS_24__optional_destruct_baseIfLb1EEEIJfEEENS_10in_place_tEDpOT_,"axG",%progbits,_ZNSt3__220__optional_copy_baseIfLb1EECI2NS_24__optional_destruct_baseIfLb1EEEIJfEEENS_10in_place_tEDpOT_,comdat
	.hidden	_ZNSt3__220__optional_copy_baseIfLb1EECI2NS_24__optional_destruct_baseIfLb1EEEIJfEEENS_10in_place_tEDpOT_ @ -- Begin function _ZNSt3__220__optional_copy_baseIfLb1EECI2NS_24__optional_destruct_baseIfLb1EEEIJfEEENS_10in_place_tEDpOT_
	.weak	_ZNSt3__220__optional_copy_baseIfLb1EECI2NS_24__optional_destruct_baseIfLb1EEEIJfEEENS_10in_place_tEDpOT_
	.p2align	2
	.type	_ZNSt3__220__optional_copy_baseIfLb1EECI2NS_24__optional_destruct_baseIfLb1EEEIJfEEENS_10in_place_tEDpOT_,%function
	.code	16                              @ @_ZNSt3__220__optional_copy_baseIfLb1EECI2NS_24__optional_destruct_baseIfLb1EEEIJfEEENS_10in_place_tEDpOT_
	.thumb_func
_ZNSt3__220__optional_copy_baseIfLb1EECI2NS_24__optional_destruct_baseIfLb1EEEIJfEEENS_10in_place_tEDpOT_:
.Lfunc_begin55:
	.loc	3 547 0 is_stmt 1               @ D:\Embed\MDK\MDK\ARM\ARMCompilerV621\Bin\..\include\libcxx\optional:547:0
	.fnstart
	.cfi_startproc
@ %bb.0:
	.save	{r7, lr}
	push	{r7, lr}
	.cfi_def_cfa_offset 8
	.cfi_offset lr, -4
	.cfi_offset r7, -8
	.pad	#16
	sub	sp, #16
	.cfi_def_cfa_offset 24
	str	r0, [sp, #8]
	str	r1, [sp, #4]
	ldr	r0, [sp, #8]
.Ltmp212:
	.loc	3 547 41 prologue_end           @ D:\Embed\MDK\MDK\ARM\ARMCompilerV621\Bin\..\include\libcxx\optional:547:41
	str	r0, [sp]                        @ 4-byte Spill
	ldr	r1, [sp, #4]
	bl	_ZNSt3__223__optional_storage_baseIfLb0EECI2NS_24__optional_destruct_baseIfLb1EEEIJfEEENS_10in_place_tEDpOT_
	ldr	r0, [sp]                        @ 4-byte Reload
	.loc	3 547 41 epilogue_begin is_stmt 0 @ D:\Embed\MDK\MDK\ARM\ARMCompilerV621\Bin\..\include\libcxx\optional:547:41
	add	sp, #16
	pop	{r7, pc}
.Ltmp213:
.Lfunc_end55:
	.size	_ZNSt3__220__optional_copy_baseIfLb1EECI2NS_24__optional_destruct_baseIfLb1EEEIJfEEENS_10in_place_tEDpOT_, .Lfunc_end55-_ZNSt3__220__optional_copy_baseIfLb1EECI2NS_24__optional_destruct_baseIfLb1EEEIJfEEENS_10in_place_tEDpOT_
	.cfi_endproc
	.cantunwind
	.fnend
                                        @ -- End function
	.section	.text._ZNSt3__223__optional_storage_baseIfLb0EECI2NS_24__optional_destruct_baseIfLb1EEEIJfEEENS_10in_place_tEDpOT_,"axG",%progbits,_ZNSt3__223__optional_storage_baseIfLb0EECI2NS_24__optional_destruct_baseIfLb1EEEIJfEEENS_10in_place_tEDpOT_,comdat
	.hidden	_ZNSt3__223__optional_storage_baseIfLb0EECI2NS_24__optional_destruct_baseIfLb1EEEIJfEEENS_10in_place_tEDpOT_ @ -- Begin function _ZNSt3__223__optional_storage_baseIfLb0EECI2NS_24__optional_destruct_baseIfLb1EEEIJfEEENS_10in_place_tEDpOT_
	.weak	_ZNSt3__223__optional_storage_baseIfLb0EECI2NS_24__optional_destruct_baseIfLb1EEEIJfEEENS_10in_place_tEDpOT_
	.p2align	2
	.type	_ZNSt3__223__optional_storage_baseIfLb0EECI2NS_24__optional_destruct_baseIfLb1EEEIJfEEENS_10in_place_tEDpOT_,%function
	.code	16                              @ @_ZNSt3__223__optional_storage_baseIfLb0EECI2NS_24__optional_destruct_baseIfLb1EEEIJfEEENS_10in_place_tEDpOT_
	.thumb_func
_ZNSt3__223__optional_storage_baseIfLb0EECI2NS_24__optional_destruct_baseIfLb1EEEIJfEEENS_10in_place_tEDpOT_:
.Lfunc_begin56:
	.loc	3 382 0 is_stmt 1               @ D:\Embed\MDK\MDK\ARM\ARMCompilerV621\Bin\..\include\libcxx\optional:382:0
	.fnstart
	.cfi_startproc
@ %bb.0:
	.save	{r7, lr}
	push	{r7, lr}
	.cfi_def_cfa_offset 8
	.cfi_offset lr, -4
	.cfi_offset r7, -8
	.pad	#16
	sub	sp, #16
	.cfi_def_cfa_offset 24
	str	r0, [sp, #8]
	str	r1, [sp, #4]
	ldr	r0, [sp, #8]
.Ltmp214:
	.loc	3 382 19 prologue_end           @ D:\Embed\MDK\MDK\ARM\ARMCompilerV621\Bin\..\include\libcxx\optional:382:19
	str	r0, [sp]                        @ 4-byte Spill
	ldr	r1, [sp, #4]
	bl	_ZNSt3__224__optional_destruct_baseIfLb1EEC2B7v180000IJfEEENS_10in_place_tEDpOT_
	ldr	r0, [sp]                        @ 4-byte Reload
	.loc	3 382 19 epilogue_begin is_stmt 0 @ D:\Embed\MDK\MDK\ARM\ARMCompilerV621\Bin\..\include\libcxx\optional:382:19
	add	sp, #16
	pop	{r7, pc}
.Ltmp215:
.Lfunc_end56:
	.size	_ZNSt3__223__optional_storage_baseIfLb0EECI2NS_24__optional_destruct_baseIfLb1EEEIJfEEENS_10in_place_tEDpOT_, .Lfunc_end56-_ZNSt3__223__optional_storage_baseIfLb0EECI2NS_24__optional_destruct_baseIfLb1EEEIJfEEENS_10in_place_tEDpOT_
	.cfi_endproc
	.cantunwind
	.fnend
                                        @ -- End function
	.section	.text._ZNSt3__224__optional_destruct_baseIfLb1EEC2B7v180000IJfEEENS_10in_place_tEDpOT_,"axG",%progbits,_ZNSt3__224__optional_destruct_baseIfLb1EEC2B7v180000IJfEEENS_10in_place_tEDpOT_,comdat
	.hidden	_ZNSt3__224__optional_destruct_baseIfLb1EEC2B7v180000IJfEEENS_10in_place_tEDpOT_ @ -- Begin function _ZNSt3__224__optional_destruct_baseIfLb1EEC2B7v180000IJfEEENS_10in_place_tEDpOT_
	.weak	_ZNSt3__224__optional_destruct_baseIfLb1EEC2B7v180000IJfEEENS_10in_place_tEDpOT_
	.p2align	2
	.type	_ZNSt3__224__optional_destruct_baseIfLb1EEC2B7v180000IJfEEENS_10in_place_tEDpOT_,%function
	.code	16                              @ @_ZNSt3__224__optional_destruct_baseIfLb1EEC2B7v180000IJfEEENS_10in_place_tEDpOT_
	.thumb_func
_ZNSt3__224__optional_destruct_baseIfLb1EEC2B7v180000IJfEEENS_10in_place_tEDpOT_:
.Lfunc_begin57:
	.loc	3 358 0 is_stmt 1               @ D:\Embed\MDK\MDK\ARM\ARMCompilerV621\Bin\..\include\libcxx\optional:358:0
	.fnstart
	.cfi_startproc
@ %bb.0:
	.pad	#12
	sub	sp, #12
	.cfi_def_cfa_offset 12
	str	r0, [sp, #4]
	str	r1, [sp]
	ldr	r0, [sp, #4]
.Ltmp216:
	.loc	3 357 41 prologue_end           @ D:\Embed\MDK\MDK\ARM\ARMCompilerV621\Bin\..\include\libcxx\optional:357:41
	ldr	r1, [sp]
	.loc	3 357 19 is_stmt 0              @ D:\Embed\MDK\MDK\ARM\ARMCompilerV621\Bin\..\include\libcxx\optional:357:19
	ldr	r1, [r1]
	.loc	3 357 12                        @ D:\Embed\MDK\MDK\ARM\ARMCompilerV621\Bin\..\include\libcxx\optional:357:12
	str	r1, [r0]
	movs	r1, #1
	.loc	3 358 12 is_stmt 1              @ D:\Embed\MDK\MDK\ARM\ARMCompilerV621\Bin\..\include\libcxx\optional:358:12
	strb	r1, [r0, #4]
	.loc	3 358 30 epilogue_begin is_stmt 0 @ D:\Embed\MDK\MDK\ARM\ARMCompilerV621\Bin\..\include\libcxx\optional:358:30
	add	sp, #12
	bx	lr
.Ltmp217:
.Lfunc_end57:
	.size	_ZNSt3__224__optional_destruct_baseIfLb1EEC2B7v180000IJfEEENS_10in_place_tEDpOT_, .Lfunc_end57-_ZNSt3__224__optional_destruct_baseIfLb1EEC2B7v180000IJfEEENS_10in_place_tEDpOT_
	.cfi_endproc
	.cantunwind
	.fnend
                                        @ -- End function
	.section	.text._ZNSt3__227__throw_bad_optional_accessB7v180000Ev,"axG",%progbits,_ZNSt3__227__throw_bad_optional_accessB7v180000Ev,comdat
	.hidden	_ZNSt3__227__throw_bad_optional_accessB7v180000Ev @ -- Begin function _ZNSt3__227__throw_bad_optional_accessB7v180000Ev
	.weak	_ZNSt3__227__throw_bad_optional_accessB7v180000Ev
	.p2align	2
	.type	_ZNSt3__227__throw_bad_optional_accessB7v180000Ev,%function
	.code	16                              @ @_ZNSt3__227__throw_bad_optional_accessB7v180000Ev
	.thumb_func
_ZNSt3__227__throw_bad_optional_accessB7v180000Ev:
.Lfunc_begin58:
	.fnstart
	.cfi_startproc
@ %bb.0:
	.loc	3 270 5 prologue_end is_stmt 1  @ D:\Embed\MDK\MDK\ARM\ARMCompilerV621\Bin\..\include\libcxx\optional:270:5
	movw	r0, :lower16:.L.str
	movt	r0, :upper16:.L.str
	bl	_ZNSt3__222__libcpp_verbose_abortEPKcz
.Ltmp218:
.Lfunc_end58:
	.size	_ZNSt3__227__throw_bad_optional_accessB7v180000Ev, .Lfunc_end58-_ZNSt3__227__throw_bad_optional_accessB7v180000Ev
	.cfi_endproc
	.cantunwind
	.fnend
                                        @ -- End function
	.section	.text._ZL18cpu_enter_criticalv,"ax",%progbits
	.p2align	2                               @ -- Begin function _ZL18cpu_enter_criticalv
	.type	_ZL18cpu_enter_criticalv,%function
	.code	16                              @ @_ZL18cpu_enter_criticalv
	.thumb_func
_ZL18cpu_enter_criticalv:
.Lfunc_begin59:
	.loc	14 31 0                         @ ../../Firmware\Drivers/STM32/stm32_system.h:31:0
	.fnstart
	.cfi_startproc
@ %bb.0:
	.pad	#12
	sub	sp, #12
	.cfi_def_cfa_offset 12
.Ltmp219:
	.file	20 "D:\\ikingtec\\Robot\\ODrive\\Firmware\\MDK-ARM" "../ThirdParty/CMSIS/Include/cmsis_armclang.h"
	.loc	20 377 3 prologue_end           @ ../ThirdParty/CMSIS/Include/cmsis_armclang.h:377:3
	@APP
	mrs	r0, primask
	@NO_APP
	str	r0, [sp, #4]
	.loc	20 378 10                       @ ../ThirdParty/CMSIS/Include/cmsis_armclang.h:378:10
	ldr	r0, [sp, #4]
.Ltmp220:
	.loc	14 32 14                        @ ../../Firmware\Drivers/STM32/stm32_system.h:32:14
	str	r0, [sp]
	.loc	14 33 5                         @ ../../Firmware\Drivers/STM32/stm32_system.h:33:5
	@APP
	mrs	r0, primask
	cpsid i

	@NO_APP
	str	r0, [sp, #8]
	.loc	14 34 12                        @ ../../Firmware\Drivers/STM32/stm32_system.h:34:12
	ldr	r0, [sp]
	.loc	14 34 5 epilogue_begin is_stmt 0 @ ../../Firmware\Drivers/STM32/stm32_system.h:34:5
	add	sp, #12
	bx	lr
.Ltmp221:
.Lfunc_end59:
	.size	_ZL18cpu_enter_criticalv, .Lfunc_end59-_ZL18cpu_enter_criticalv
	.cfi_endproc
	.cantunwind
	.fnend
                                        @ -- End function
	.section	.text._ZNSt3__227__optional_move_assign_baseINS_4pairIffEELb0EEaSB7v180000EOS3_,"axG",%progbits,_ZNSt3__227__optional_move_assign_baseINS_4pairIffEELb0EEaSB7v180000EOS3_,comdat
	.hidden	_ZNSt3__227__optional_move_assign_baseINS_4pairIffEELb0EEaSB7v180000EOS3_ @ -- Begin function _ZNSt3__227__optional_move_assign_baseINS_4pairIffEELb0EEaSB7v180000EOS3_
	.weak	_ZNSt3__227__optional_move_assign_baseINS_4pairIffEELb0EEaSB7v180000EOS3_
	.p2align	2
	.type	_ZNSt3__227__optional_move_assign_baseINS_4pairIffEELb0EEaSB7v180000EOS3_,%function
	.code	16                              @ @_ZNSt3__227__optional_move_assign_baseINS_4pairIffEELb0EEaSB7v180000EOS3_
	.thumb_func
_ZNSt3__227__optional_move_assign_baseINS_4pairIffEELb0EEaSB7v180000EOS3_:
.Lfunc_begin60:
	.loc	3 662 0 is_stmt 1               @ D:\Embed\MDK\MDK\ARM\ARMCompilerV621\Bin\..\include\libcxx\optional:662:0
	.fnstart
	.cfi_startproc
@ %bb.0:
	.save	{r7, lr}
	push	{r7, lr}
	.cfi_def_cfa_offset 8
	.cfi_offset lr, -4
	.cfi_offset r7, -8
	.pad	#16
	sub	sp, #16
	.cfi_def_cfa_offset 24
	str	r0, [sp, #12]
	str	r1, [sp, #8]
	ldr	r0, [sp, #12]
.Ltmp222:
	.loc	3 663 41 prologue_end           @ D:\Embed\MDK\MDK\ARM\ARMCompilerV621\Bin\..\include\libcxx\optional:663:41
	str	r0, [sp, #4]                    @ 4-byte Spill
	ldr	r1, [sp, #8]
	.loc	3 663 15 is_stmt 0              @ D:\Embed\MDK\MDK\ARM\ARMCompilerV621\Bin\..\include\libcxx\optional:663:15
	bl	_ZNSt3__223__optional_storage_baseINS_4pairIffEELb0EE13__assign_fromB7v180000INS_27__optional_move_assign_baseIS2_Lb0EEEEEvOT_
	ldr	r0, [sp, #4]                    @ 4-byte Reload
	.loc	3 664 9 epilogue_begin is_stmt 1 @ D:\Embed\MDK\MDK\ARM\ARMCompilerV621\Bin\..\include\libcxx\optional:664:9
	add	sp, #16
	pop	{r7, pc}
.Ltmp223:
.Lfunc_end60:
	.size	_ZNSt3__227__optional_move_assign_baseINS_4pairIffEELb0EEaSB7v180000EOS3_, .Lfunc_end60-_ZNSt3__227__optional_move_assign_baseINS_4pairIffEELb0EEaSB7v180000EOS3_
	.cfi_endproc
	.cantunwind
	.fnend
                                        @ -- End function
	.section	.text._ZNSt3__223__optional_storage_baseINS_4pairIffEELb0EE13__assign_fromB7v180000INS_27__optional_move_assign_baseIS2_Lb0EEEEEvOT_,"axG",%progbits,_ZNSt3__223__optional_storage_baseINS_4pairIffEELb0EE13__assign_fromB7v180000INS_27__optional_move_assign_baseIS2_Lb0EEEEEvOT_,comdat
	.hidden	_ZNSt3__223__optional_storage_baseINS_4pairIffEELb0EE13__assign_fromB7v180000INS_27__optional_move_assign_baseIS2_Lb0EEEEEvOT_ @ -- Begin function _ZNSt3__223__optional_storage_baseINS_4pairIffEELb0EE13__assign_fromB7v180000INS_27__optional_move_assign_baseIS2_Lb0EEEEEvOT_
	.weak	_ZNSt3__223__optional_storage_baseINS_4pairIffEELb0EE13__assign_fromB7v180000INS_27__optional_move_assign_baseIS2_Lb0EEEEEvOT_
	.p2align	2
	.type	_ZNSt3__223__optional_storage_baseINS_4pairIffEELb0EE13__assign_fromB7v180000INS_27__optional_move_assign_baseIS2_Lb0EEEEEvOT_,%function
	.code	16                              @ @_ZNSt3__223__optional_storage_baseINS_4pairIffEELb0EE13__assign_fromB7v180000INS_27__optional_move_assign_baseIS2_Lb0EEEEEvOT_
	.thumb_func
_ZNSt3__223__optional_storage_baseINS_4pairIffEELb0EE13__assign_fromB7v180000INS_27__optional_move_assign_baseIS2_Lb0EEEEEvOT_:
.Lfunc_begin61:
	.loc	3 435 0                         @ D:\Embed\MDK\MDK\ARM\ARMCompilerV621\Bin\..\include\libcxx\optional:435:0
	.fnstart
	.cfi_startproc
@ %bb.0:
	.save	{r7, lr}
	push	{r7, lr}
	.cfi_def_cfa_offset 8
	.cfi_offset lr, -4
	.cfi_offset r7, -8
	.pad	#16
	sub	sp, #16
	.cfi_def_cfa_offset 24
	str	r0, [sp, #12]
	str	r1, [sp, #8]
	ldr	r0, [sp, #12]
.Ltmp224:
	.loc	3 436 13 prologue_end           @ D:\Embed\MDK\MDK\ARM\ARMCompilerV621\Bin\..\include\libcxx\optional:436:13
	str	r0, [sp]                        @ 4-byte Spill
	ldrb	r0, [r0, #8]
	and	r0, r0, #1
	.loc	3 436 33 is_stmt 0              @ D:\Embed\MDK\MDK\ARM\ARMCompilerV621\Bin\..\include\libcxx\optional:436:33
	str	r0, [sp, #4]                    @ 4-byte Spill
	ldr	r0, [sp, #8]
	.loc	3 436 39                        @ D:\Embed\MDK\MDK\ARM\ARMCompilerV621\Bin\..\include\libcxx\optional:436:39
	bl	_ZNKSt3__223__optional_storage_baseINS_4pairIffEELb0EE9has_valueB7v180000Ev
	mov	r1, r0
.Ltmp225:
	.loc	3 436 13                        @ D:\Embed\MDK\MDK\ARM\ARMCompilerV621\Bin\..\include\libcxx\optional:436:13
	ldr	r0, [sp, #4]                    @ 4-byte Reload
	cmp	r0, r1
	bne	.LBB61_4
	b	.LBB61_1
.LBB61_1:
.Ltmp226:
	.loc	3 438 23 is_stmt 1              @ D:\Embed\MDK\MDK\ARM\ARMCompilerV621\Bin\..\include\libcxx\optional:438:23
	ldr	r0, [sp]                        @ 4-byte Reload
	ldrb	r0, [r0, #8]
.Ltmp227:
	.loc	3 438 17 is_stmt 0              @ D:\Embed\MDK\MDK\ARM\ARMCompilerV621\Bin\..\include\libcxx\optional:438:17
	lsls	r0, r0, #31
	cbz	r0, .LBB61_3
	b	.LBB61_2
.LBB61_2:
.Ltmp228:
	.loc	3 439 54 is_stmt 1              @ D:\Embed\MDK\MDK\ARM\ARMCompilerV621\Bin\..\include\libcxx\optional:439:54
	ldr	r0, [sp, #8]
	.loc	3 439 61 is_stmt 0              @ D:\Embed\MDK\MDK\ARM\ARMCompilerV621\Bin\..\include\libcxx\optional:439:61
	bl	_ZNOSt3__223__optional_storage_baseINS_4pairIffEELb0EE5__getB7v180000Ev
	mov	r1, r0
	.loc	3 439 30                        @ D:\Embed\MDK\MDK\ARM\ARMCompilerV621\Bin\..\include\libcxx\optional:439:30
	ldr	r0, [sp]                        @ 4-byte Reload
	bl	_ZNSt3__24pairIffEaSB7v180000EOS1_
	.loc	3 439 17                        @ D:\Embed\MDK\MDK\ARM\ARMCompilerV621\Bin\..\include\libcxx\optional:439:17
	b	.LBB61_3
.Ltmp229:
.LBB61_3:
	.loc	3 440 9 is_stmt 1               @ D:\Embed\MDK\MDK\ARM\ARMCompilerV621\Bin\..\include\libcxx\optional:440:9
	b	.LBB61_8
.Ltmp230:
.LBB61_4:
	.loc	3 443 23                        @ D:\Embed\MDK\MDK\ARM\ARMCompilerV621\Bin\..\include\libcxx\optional:443:23
	ldr	r0, [sp]                        @ 4-byte Reload
	ldrb	r0, [r0, #8]
.Ltmp231:
	.loc	3 443 17 is_stmt 0              @ D:\Embed\MDK\MDK\ARM\ARMCompilerV621\Bin\..\include\libcxx\optional:443:17
	lsls	r0, r0, #31
	cbz	r0, .LBB61_6
	b	.LBB61_5
.LBB61_5:
.Ltmp232:
	.loc	3 444 23 is_stmt 1              @ D:\Embed\MDK\MDK\ARM\ARMCompilerV621\Bin\..\include\libcxx\optional:444:23
	ldr	r0, [sp]                        @ 4-byte Reload
	bl	_ZNSt3__224__optional_destruct_baseINS_4pairIffEELb1EE5resetB7v180000Ev
	.loc	3 444 17 is_stmt 0              @ D:\Embed\MDK\MDK\ARM\ARMCompilerV621\Bin\..\include\libcxx\optional:444:17
	b	.LBB61_7
.LBB61_6:
	.loc	3 446 51 is_stmt 1              @ D:\Embed\MDK\MDK\ARM\ARMCompilerV621\Bin\..\include\libcxx\optional:446:51
	ldr	r0, [sp, #8]
	.loc	3 446 58 is_stmt 0              @ D:\Embed\MDK\MDK\ARM\ARMCompilerV621\Bin\..\include\libcxx\optional:446:58
	bl	_ZNOSt3__223__optional_storage_baseINS_4pairIffEELb0EE5__getB7v180000Ev
	mov	r1, r0
	.loc	3 446 17                        @ D:\Embed\MDK\MDK\ARM\ARMCompilerV621\Bin\..\include\libcxx\optional:446:17
	ldr	r0, [sp]                        @ 4-byte Reload
	bl	_ZNSt3__223__optional_storage_baseINS_4pairIffEELb0EE11__constructB7v180000IJS2_EEEvDpOT_
	b	.LBB61_7
.Ltmp233:
.LBB61_7:
	.loc	3 0 17                          @ D:\Embed\MDK\MDK\ARM\ARMCompilerV621\Bin\..\include\libcxx\optional:0:17
	b	.LBB61_8
.LBB61_8:
	.loc	3 448 5 epilogue_begin is_stmt 1 @ D:\Embed\MDK\MDK\ARM\ARMCompilerV621\Bin\..\include\libcxx\optional:448:5
	add	sp, #16
	pop	{r7, pc}
.Ltmp234:
.Lfunc_end61:
	.size	_ZNSt3__223__optional_storage_baseINS_4pairIffEELb0EE13__assign_fromB7v180000INS_27__optional_move_assign_baseIS2_Lb0EEEEEvOT_, .Lfunc_end61-_ZNSt3__223__optional_storage_baseINS_4pairIffEELb0EE13__assign_fromB7v180000INS_27__optional_move_assign_baseIS2_Lb0EEEEEvOT_
	.cfi_endproc
	.cantunwind
	.fnend
                                        @ -- End function
	.section	.text._ZNOSt3__223__optional_storage_baseINS_4pairIffEELb0EE5__getB7v180000Ev,"axG",%progbits,_ZNOSt3__223__optional_storage_baseINS_4pairIffEELb0EE5__getB7v180000Ev,comdat
	.hidden	_ZNOSt3__223__optional_storage_baseINS_4pairIffEELb0EE5__getB7v180000Ev @ -- Begin function _ZNOSt3__223__optional_storage_baseINS_4pairIffEELb0EE5__getB7v180000Ev
	.weak	_ZNOSt3__223__optional_storage_baseINS_4pairIffEELb0EE5__getB7v180000Ev
	.p2align	2
	.type	_ZNOSt3__223__optional_storage_baseINS_4pairIffEELb0EE5__getB7v180000Ev,%function
	.code	16                              @ @_ZNOSt3__223__optional_storage_baseINS_4pairIffEELb0EE5__getB7v180000Ev
	.thumb_func
_ZNOSt3__223__optional_storage_baseINS_4pairIffEELb0EE5__getB7v180000Ev:
.Lfunc_begin62:
	.loc	3 402 0                         @ D:\Embed\MDK\MDK\ARM\ARMCompilerV621\Bin\..\include\libcxx\optional:402:0
	.fnstart
	.cfi_startproc
@ %bb.0:
	.pad	#4
	sub	sp, #4
	.cfi_def_cfa_offset 4
	str	r0, [sp]
	ldr	r0, [sp]
.Ltmp235:
	.loc	3 403 9 prologue_end epilogue_begin @ D:\Embed\MDK\MDK\ARM\ARMCompilerV621\Bin\..\include\libcxx\optional:403:9
	add	sp, #4
	bx	lr
.Ltmp236:
.Lfunc_end62:
	.size	_ZNOSt3__223__optional_storage_baseINS_4pairIffEELb0EE5__getB7v180000Ev, .Lfunc_end62-_ZNOSt3__223__optional_storage_baseINS_4pairIffEELb0EE5__getB7v180000Ev
	.cfi_endproc
	.cantunwind
	.fnend
                                        @ -- End function
	.section	.text._ZNSt3__24pairIffEaSB7v180000EOS1_,"axG",%progbits,_ZNSt3__24pairIffEaSB7v180000EOS1_,comdat
	.hidden	_ZNSt3__24pairIffEaSB7v180000EOS1_ @ -- Begin function _ZNSt3__24pairIffEaSB7v180000EOS1_
	.weak	_ZNSt3__24pairIffEaSB7v180000EOS1_
	.p2align	2
	.type	_ZNSt3__24pairIffEaSB7v180000EOS1_,%function
	.code	16                              @ @_ZNSt3__24pairIffEaSB7v180000EOS1_
	.thumb_func
_ZNSt3__24pairIffEaSB7v180000EOS1_:
.Lfunc_begin63:
	.loc	9 324 0                         @ D:\Embed\MDK\MDK\ARM\ARMCompilerV621\Bin\..\include\libcxx\__utility/pair.h:324:0
	.fnstart
	.cfi_startproc
@ %bb.0:
	.pad	#8
	sub	sp, #8
	.cfi_def_cfa_offset 8
	str	r0, [sp, #4]
	str	r1, [sp]
	ldr	r0, [sp, #4]
.Ltmp237:
	.loc	9 325 42 prologue_end           @ D:\Embed\MDK\MDK\ARM\ARMCompilerV621\Bin\..\include\libcxx\__utility/pair.h:325:42
	ldr	r1, [sp]
	.loc	9 325 17 is_stmt 0              @ D:\Embed\MDK\MDK\ARM\ARMCompilerV621\Bin\..\include\libcxx\__utility/pair.h:325:17
	ldr	r1, [r1]
	.loc	9 325 15                        @ D:\Embed\MDK\MDK\ARM\ARMCompilerV621\Bin\..\include\libcxx\__utility/pair.h:325:15
	str	r1, [r0]
	.loc	9 326 44 is_stmt 1              @ D:\Embed\MDK\MDK\ARM\ARMCompilerV621\Bin\..\include\libcxx\__utility/pair.h:326:44
	ldr	r1, [sp]
	.loc	9 326 18 is_stmt 0              @ D:\Embed\MDK\MDK\ARM\ARMCompilerV621\Bin\..\include\libcxx\__utility/pair.h:326:18
	ldr	r1, [r1, #4]
	.loc	9 326 16                        @ D:\Embed\MDK\MDK\ARM\ARMCompilerV621\Bin\..\include\libcxx\__utility/pair.h:326:16
	str	r1, [r0, #4]
	.loc	9 327 9 epilogue_begin is_stmt 1 @ D:\Embed\MDK\MDK\ARM\ARMCompilerV621\Bin\..\include\libcxx\__utility/pair.h:327:9
	add	sp, #8
	bx	lr
.Ltmp238:
.Lfunc_end63:
	.size	_ZNSt3__24pairIffEaSB7v180000EOS1_, .Lfunc_end63-_ZNSt3__24pairIffEaSB7v180000EOS1_
	.cfi_endproc
	.cantunwind
	.fnend
                                        @ -- End function
	.section	.text._ZNSt3__223__optional_storage_baseINS_4pairIffEELb0EE11__constructB7v180000IJS2_EEEvDpOT_,"axG",%progbits,_ZNSt3__223__optional_storage_baseINS_4pairIffEELb0EE11__constructB7v180000IJS2_EEEvDpOT_,comdat
	.hidden	_ZNSt3__223__optional_storage_baseINS_4pairIffEELb0EE11__constructB7v180000IJS2_EEEvDpOT_ @ -- Begin function _ZNSt3__223__optional_storage_baseINS_4pairIffEELb0EE11__constructB7v180000IJS2_EEEvDpOT_
	.weak	_ZNSt3__223__optional_storage_baseINS_4pairIffEELb0EE11__constructB7v180000IJS2_EEEvDpOT_
	.p2align	2
	.type	_ZNSt3__223__optional_storage_baseINS_4pairIffEELb0EE11__constructB7v180000IJS2_EEEvDpOT_,%function
	.code	16                              @ @_ZNSt3__223__optional_storage_baseINS_4pairIffEELb0EE11__constructB7v180000IJS2_EEEvDpOT_
	.thumb_func
_ZNSt3__223__optional_storage_baseINS_4pairIffEELb0EE11__constructB7v180000IJS2_EEEvDpOT_:
.Lfunc_begin64:
	.loc	3 414 0                         @ D:\Embed\MDK\MDK\ARM\ARMCompilerV621\Bin\..\include\libcxx\optional:414:0
	.fnstart
	.cfi_startproc
@ %bb.0:
	.pad	#8
	sub	sp, #8
	.cfi_def_cfa_offset 8
	str	r0, [sp, #4]
	str	r1, [sp]
	ldr	r1, [sp, #4]
.Ltmp239:
	.loc	3 419 88 prologue_end           @ D:\Embed\MDK\MDK\ARM\ARMCompilerV621\Bin\..\include\libcxx\optional:419:88
	ldr	r2, [sp]
	.loc	3 419 55 is_stmt 0              @ D:\Embed\MDK\MDK\ARM\ARMCompilerV621\Bin\..\include\libcxx\optional:419:55
	ldr	r0, [r2]
	ldr	r2, [r2, #4]
	str	r2, [r1, #4]
	str	r0, [r1]
	movs	r0, #1
	.loc	3 421 26 is_stmt 1              @ D:\Embed\MDK\MDK\ARM\ARMCompilerV621\Bin\..\include\libcxx\optional:421:26
	strb	r0, [r1, #8]
	.loc	3 422 5 epilogue_begin          @ D:\Embed\MDK\MDK\ARM\ARMCompilerV621\Bin\..\include\libcxx\optional:422:5
	add	sp, #8
	bx	lr
.Ltmp240:
.Lfunc_end64:
	.size	_ZNSt3__223__optional_storage_baseINS_4pairIffEELb0EE11__constructB7v180000IJS2_EEEvDpOT_, .Lfunc_end64-_ZNSt3__223__optional_storage_baseINS_4pairIffEELb0EE11__constructB7v180000IJS2_EEEvDpOT_
	.cfi_endproc
	.cantunwind
	.fnend
                                        @ -- End function
	.section	.text._ZL17cpu_exit_criticalj,"ax",%progbits
	.p2align	2                               @ -- Begin function _ZL17cpu_exit_criticalj
	.type	_ZL17cpu_exit_criticalj,%function
	.code	16                              @ @_ZL17cpu_exit_criticalj
	.thumb_func
_ZL17cpu_exit_criticalj:
.Lfunc_begin65:
	.loc	14 37 0                         @ ../../Firmware\Drivers/STM32/stm32_system.h:37:0
	.fnstart
	.cfi_startproc
@ %bb.0:
	.pad	#8
	sub	sp, #8
	.cfi_def_cfa_offset 8
	str	r0, [sp]
.Ltmp241:
	.loc	14 38 19 prologue_end           @ ../../Firmware\Drivers/STM32/stm32_system.h:38:19
	ldr	r0, [sp]
	str	r0, [sp, #4]
.Ltmp242:
	.loc	20 405 46                       @ ../ThirdParty/CMSIS/Include/cmsis_armclang.h:405:46
	ldr	r0, [sp, #4]
	.loc	20 405 3 is_stmt 0              @ ../ThirdParty/CMSIS/Include/cmsis_armclang.h:405:3
	@APP
	msr	primask, r0
	@NO_APP
.Ltmp243:
	.loc	14 39 1 epilogue_begin is_stmt 1 @ ../../Firmware\Drivers/STM32/stm32_system.h:39:1
	add	sp, #8
	bx	lr
.Ltmp244:
.Lfunc_end65:
	.size	_ZL17cpu_exit_criticalj, .Lfunc_end65-_ZL17cpu_exit_criticalj
	.cfi_endproc
	.cantunwind
	.fnend
                                        @ -- End function
	.section	.text._ZNSt3__224__optional_destruct_baseIfLb1EE5resetB7v180000Ev,"axG",%progbits,_ZNSt3__224__optional_destruct_baseIfLb1EE5resetB7v180000Ev,comdat
	.hidden	_ZNSt3__224__optional_destruct_baseIfLb1EE5resetB7v180000Ev @ -- Begin function _ZNSt3__224__optional_destruct_baseIfLb1EE5resetB7v180000Ev
	.weak	_ZNSt3__224__optional_destruct_baseIfLb1EE5resetB7v180000Ev
	.p2align	2
	.type	_ZNSt3__224__optional_destruct_baseIfLb1EE5resetB7v180000Ev,%function
	.code	16                              @ @_ZNSt3__224__optional_destruct_baseIfLb1EE5resetB7v180000Ev
	.thumb_func
_ZNSt3__224__optional_destruct_baseIfLb1EE5resetB7v180000Ev:
.Lfunc_begin66:
	.loc	3 369 0                         @ D:\Embed\MDK\MDK\ARM\ARMCompilerV621\Bin\..\include\libcxx\optional:369:0
	.fnstart
	.cfi_startproc
@ %bb.0:
	.pad	#8
	sub	sp, #8
	.cfi_def_cfa_offset 8
	str	r0, [sp, #4]
	ldr	r0, [sp, #4]
.Ltmp245:
	.loc	3 370 13 prologue_end           @ D:\Embed\MDK\MDK\ARM\ARMCompilerV621\Bin\..\include\libcxx\optional:370:13
	str	r0, [sp]                        @ 4-byte Spill
	ldrb	r0, [r0, #4]
.Ltmp246:
	.loc	3 370 13 is_stmt 0              @ D:\Embed\MDK\MDK\ARM\ARMCompilerV621\Bin\..\include\libcxx\optional:370:13
	lsls	r0, r0, #31
	cbz	r0, .LBB66_2
	b	.LBB66_1
.LBB66_1:
	.loc	3 0 13                          @ D:\Embed\MDK\MDK\ARM\ARMCompilerV621\Bin\..\include\libcxx\optional:0:13
	ldr	r1, [sp]                        @ 4-byte Reload
	movs	r0, #0
.Ltmp247:
	.loc	3 372 24 is_stmt 1              @ D:\Embed\MDK\MDK\ARM\ARMCompilerV621\Bin\..\include\libcxx\optional:372:24
	strb	r0, [r1, #4]
	.loc	3 373 9                         @ D:\Embed\MDK\MDK\ARM\ARMCompilerV621\Bin\..\include\libcxx\optional:373:9
	b	.LBB66_2
.Ltmp248:
.LBB66_2:
	.loc	3 374 5 epilogue_begin          @ D:\Embed\MDK\MDK\ARM\ARMCompilerV621\Bin\..\include\libcxx\optional:374:5
	add	sp, #8
	bx	lr
.Ltmp249:
.Lfunc_end66:
	.size	_ZNSt3__224__optional_destruct_baseIfLb1EE5resetB7v180000Ev, .Lfunc_end66-_ZNSt3__224__optional_destruct_baseIfLb1EE5resetB7v180000Ev
	.cfi_endproc
	.cantunwind
	.fnend
                                        @ -- End function
	.section	.text._ZNKSt3__27variantIJNS_4pairIffEEPS2_P10OutputPortIS2_EEE5indexB7v180000Ev,"axG",%progbits,_ZNKSt3__27variantIJNS_4pairIffEEPS2_P10OutputPortIS2_EEE5indexB7v180000Ev,comdat
	.hidden	_ZNKSt3__27variantIJNS_4pairIffEEPS2_P10OutputPortIS2_EEE5indexB7v180000Ev @ -- Begin function _ZNKSt3__27variantIJNS_4pairIffEEPS2_P10OutputPortIS2_EEE5indexB7v180000Ev
	.weak	_ZNKSt3__27variantIJNS_4pairIffEEPS2_P10OutputPortIS2_EEE5indexB7v180000Ev
	.p2align	2
	.type	_ZNKSt3__27variantIJNS_4pairIffEEPS2_P10OutputPortIS2_EEE5indexB7v180000Ev,%function
	.code	16                              @ @_ZNKSt3__27variantIJNS_4pairIffEEPS2_P10OutputPortIS2_EEE5indexB7v180000Ev
	.thumb_func
_ZNKSt3__27variantIJNS_4pairIffEEPS2_P10OutputPortIS2_EEE5indexB7v180000Ev:
.Lfunc_begin67:
	.loc	5 1474 0                        @ D:\Embed\MDK\MDK\ARM\ARMCompilerV621\Bin\..\include\libcxx\variant:1474:0
	.fnstart
	.cfi_startproc
@ %bb.0:
	.save	{r7, lr}
	push	{r7, lr}
	.cfi_def_cfa_offset 8
	.cfi_offset lr, -4
	.cfi_offset r7, -8
	.pad	#8
	sub	sp, #8
	.cfi_def_cfa_offset 16
	str	r0, [sp, #4]
	ldr	r0, [sp, #4]
.Ltmp250:
	.loc	5 1474 60 prologue_end          @ D:\Embed\MDK\MDK\ARM\ARMCompilerV621\Bin\..\include\libcxx\variant:1474:60
	bl	_ZNKSt3__216__variant_detail6__baseILNS0_6_TraitE0EJNS_4pairIffEEPS4_P10OutputPortIS4_EEE5indexB7v180000Ev
	.loc	5 1474 45 epilogue_begin is_stmt 0 @ D:\Embed\MDK\MDK\ARM\ARMCompilerV621\Bin\..\include\libcxx\variant:1474:45
	add	sp, #8
	pop	{r7, pc}
.Ltmp251:
.Lfunc_end67:
	.size	_ZNKSt3__27variantIJNS_4pairIffEEPS2_P10OutputPortIS2_EEE5indexB7v180000Ev, .Lfunc_end67-_ZNKSt3__27variantIJNS_4pairIffEEPS2_P10OutputPortIS2_EEE5indexB7v180000Ev
	.cfi_endproc
	.cantunwind
	.fnend
                                        @ -- End function
	.section	.text._ZNSt3__23getB7v180000ILj2EJNS_4pairIffEEPS2_P10OutputPortIS2_EEEERNS_19variant_alternativeIXT_ENS_7variantIJDpT0_EEEE4typeERSB_,"axG",%progbits,_ZNSt3__23getB7v180000ILj2EJNS_4pairIffEEPS2_P10OutputPortIS2_EEEERNS_19variant_alternativeIXT_ENS_7variantIJDpT0_EEEE4typeERSB_,comdat
	.hidden	_ZNSt3__23getB7v180000ILj2EJNS_4pairIffEEPS2_P10OutputPortIS2_EEEERNS_19variant_alternativeIXT_ENS_7variantIJDpT0_EEEE4typeERSB_ @ -- Begin function _ZNSt3__23getB7v180000ILj2EJNS_4pairIffEEPS2_P10OutputPortIS2_EEEERNS_19variant_alternativeIXT_ENS_7variantIJDpT0_EEEE4typeERSB_
	.weak	_ZNSt3__23getB7v180000ILj2EJNS_4pairIffEEPS2_P10OutputPortIS2_EEEERNS_19variant_alternativeIXT_ENS_7variantIJDpT0_EEEE4typeERSB_
	.p2align	2
	.type	_ZNSt3__23getB7v180000ILj2EJNS_4pairIffEEPS2_P10OutputPortIS2_EEEERNS_19variant_alternativeIXT_ENS_7variantIJDpT0_EEEE4typeERSB_,%function
	.code	16                              @ @_ZNSt3__23getB7v180000ILj2EJNS_4pairIffEEPS2_P10OutputPortIS2_EEEERNS_19variant_alternativeIXT_ENS_7variantIJDpT0_EEEE4typeERSB_
	.thumb_func
_ZNSt3__23getB7v180000ILj2EJNS_4pairIffEEPS2_P10OutputPortIS2_EEEERNS_19variant_alternativeIXT_ENS_7variantIJDpT0_EEEE4typeERSB_:
.Lfunc_begin68:
	.loc	5 1524 0 is_stmt 1              @ D:\Embed\MDK\MDK\ARM\ARMCompilerV621\Bin\..\include\libcxx\variant:1524:0
	.fnstart
	.cfi_startproc
@ %bb.0:
	.save	{r7, lr}
	push	{r7, lr}
	.cfi_def_cfa_offset 8
	.cfi_offset lr, -4
	.cfi_offset r7, -8
	.pad	#8
	sub	sp, #8
	.cfi_def_cfa_offset 16
	str	r0, [sp, #4]
.Ltmp252:
	.loc	5 1527 34 prologue_end          @ D:\Embed\MDK\MDK\ARM\ARMCompilerV621\Bin\..\include\libcxx\variant:1527:34
	ldr	r0, [sp, #4]
	.loc	5 1527 10 is_stmt 0             @ D:\Embed\MDK\MDK\ARM\ARMCompilerV621\Bin\..\include\libcxx\variant:1527:10
	bl	_ZNSt3__213__generic_getB7v180000ILj2ERNS_7variantIJNS_4pairIffEEPS3_P10OutputPortIS3_EEEEEEODaOT0_
	.loc	5 1527 3 epilogue_begin         @ D:\Embed\MDK\MDK\ARM\ARMCompilerV621\Bin\..\include\libcxx\variant:1527:3
	add	sp, #8
	pop	{r7, pc}
.Ltmp253:
.Lfunc_end68:
	.size	_ZNSt3__23getB7v180000ILj2EJNS_4pairIffEEPS2_P10OutputPortIS2_EEEERNS_19variant_alternativeIXT_ENS_7variantIJDpT0_EEEE4typeERSB_, .Lfunc_end68-_ZNSt3__23getB7v180000ILj2EJNS_4pairIffEEPS2_P10OutputPortIS2_EEEERNS_19variant_alternativeIXT_ENS_7variantIJDpT0_EEEE4typeERSB_
	.cfi_endproc
	.cantunwind
	.fnend
                                        @ -- End function
	.section	.text._ZN10OutputPortINSt3__24pairIffEEE7presentEv,"axG",%progbits,_ZN10OutputPortINSt3__24pairIffEEE7presentEv,comdat
	.hidden	_ZN10OutputPortINSt3__24pairIffEEE7presentEv @ -- Begin function _ZN10OutputPortINSt3__24pairIffEEE7presentEv
	.weak	_ZN10OutputPortINSt3__24pairIffEEE7presentEv
	.p2align	2
	.type	_ZN10OutputPortINSt3__24pairIffEEE7presentEv,%function
	.code	16                              @ @_ZN10OutputPortINSt3__24pairIffEEE7presentEv
	.thumb_func
_ZN10OutputPortINSt3__24pairIffEEE7presentEv:
.Lfunc_begin69:
	.loc	18 73 0 is_stmt 1               @ ../MotorControl/component.hpp:73:0
	.fnstart
	.cfi_startproc
@ %bb.0:
	.save	{r7, lr}
	push	{r7, lr}
	.cfi_def_cfa_offset 8
	.cfi_offset lr, -4
	.cfi_offset r7, -8
	.pad	#16
	sub	sp, #16
	.cfi_def_cfa_offset 24
	str	r0, [sp]                        @ 4-byte Spill
	str	r1, [sp, #12]
	ldr	r0, [sp, #12]
.Ltmp254:
	.loc	18 74 13 prologue_end           @ ../MotorControl/component.hpp:74:13
	str	r0, [sp, #4]                    @ 4-byte Spill
	ldr	r0, [r0]
.Ltmp255:
	.loc	18 74 13 is_stmt 0              @ ../MotorControl/component.hpp:74:13
	cbnz	r0, .LBB69_2
	b	.LBB69_1
.LBB69_1:
.Ltmp256:
	.loc	18 75 20 is_stmt 1              @ ../MotorControl/component.hpp:75:20
	ldr	r0, [sp]                        @ 4-byte Reload
	ldr	r1, [sp, #4]                    @ 4-byte Reload
	adds	r1, #4
	bl	_ZNSt3__28optionalINS_4pairIffEEEC2B7v180000IRS2_Li0EEEOT_
	.loc	18 75 13 is_stmt 0              @ ../MotorControl/component.hpp:75:13
	b	.LBB69_3
.Ltmp257:
.LBB69_2:
	.loc	18 77 20 is_stmt 1              @ ../MotorControl/component.hpp:77:20
	ldr	r0, [sp]                        @ 4-byte Reload
	bl	_ZNSt3__28optionalINS_4pairIffEEEC2B7v180000ENS_9nullopt_tE
	.loc	18 77 13 is_stmt 0              @ ../MotorControl/component.hpp:77:13
	b	.LBB69_3
.Ltmp258:
.LBB69_3:
	.loc	18 79 5 epilogue_begin is_stmt 1 @ ../MotorControl/component.hpp:79:5
	add	sp, #16
	pop	{r7, pc}
.Ltmp259:
.Lfunc_end69:
	.size	_ZN10OutputPortINSt3__24pairIffEEE7presentEv, .Lfunc_end69-_ZN10OutputPortINSt3__24pairIffEEE7presentEv
	.cfi_endproc
	.cantunwind
	.fnend
                                        @ -- End function
	.section	.text._ZNSt3__28optionalINS_4pairIffEEEC2B7v180000ENS_9nullopt_tE,"axG",%progbits,_ZNSt3__28optionalINS_4pairIffEEEC2B7v180000ENS_9nullopt_tE,comdat
	.hidden	_ZNSt3__28optionalINS_4pairIffEEEC2B7v180000ENS_9nullopt_tE @ -- Begin function _ZNSt3__28optionalINS_4pairIffEEEC2B7v180000ENS_9nullopt_tE
	.weak	_ZNSt3__28optionalINS_4pairIffEEEC2B7v180000ENS_9nullopt_tE
	.p2align	2
	.type	_ZNSt3__28optionalINS_4pairIffEEEC2B7v180000ENS_9nullopt_tE,%function
	.code	16                              @ @_ZNSt3__28optionalINS_4pairIffEEEC2B7v180000ENS_9nullopt_tE
	.thumb_func
_ZNSt3__28optionalINS_4pairIffEEEC2B7v180000ENS_9nullopt_tE:
.Lfunc_begin70:
	.loc	3 803 0                         @ D:\Embed\MDK\MDK\ARM\ARMCompilerV621\Bin\..\include\libcxx\optional:803:0
	.fnstart
	.cfi_startproc
@ %bb.0:
	.save	{r7, lr}
	push	{r7, lr}
	.cfi_def_cfa_offset 8
	.cfi_offset lr, -4
	.cfi_offset r7, -8
	.pad	#16
	sub	sp, #16
	.cfi_def_cfa_offset 24
	str	r0, [sp, #8]
	ldr	r0, [sp, #8]
.Ltmp260:
	.loc	3 803 41 prologue_end           @ D:\Embed\MDK\MDK\ARM\ARMCompilerV621\Bin\..\include\libcxx\optional:803:41
	str	r0, [sp, #4]                    @ 4-byte Spill
	bl	_ZNSt3__227__optional_move_assign_baseINS_4pairIffEELb0EEC2B7v180000Ev
	ldr	r0, [sp, #4]                    @ 4-byte Reload
	.loc	3 803 71 epilogue_begin is_stmt 0 @ D:\Embed\MDK\MDK\ARM\ARMCompilerV621\Bin\..\include\libcxx\optional:803:71
	add	sp, #16
	pop	{r7, pc}
.Ltmp261:
.Lfunc_end70:
	.size	_ZNSt3__28optionalINS_4pairIffEEEC2B7v180000ENS_9nullopt_tE, .Lfunc_end70-_ZNSt3__28optionalINS_4pairIffEEEC2B7v180000ENS_9nullopt_tE
	.cfi_endproc
	.cantunwind
	.fnend
                                        @ -- End function
	.section	.text._ZNSt3__23getB7v180000ILj1EJNS_4pairIffEEPS2_P10OutputPortIS2_EEEERNS_19variant_alternativeIXT_ENS_7variantIJDpT0_EEEE4typeERSB_,"axG",%progbits,_ZNSt3__23getB7v180000ILj1EJNS_4pairIffEEPS2_P10OutputPortIS2_EEEERNS_19variant_alternativeIXT_ENS_7variantIJDpT0_EEEE4typeERSB_,comdat
	.hidden	_ZNSt3__23getB7v180000ILj1EJNS_4pairIffEEPS2_P10OutputPortIS2_EEEERNS_19variant_alternativeIXT_ENS_7variantIJDpT0_EEEE4typeERSB_ @ -- Begin function _ZNSt3__23getB7v180000ILj1EJNS_4pairIffEEPS2_P10OutputPortIS2_EEEERNS_19variant_alternativeIXT_ENS_7variantIJDpT0_EEEE4typeERSB_
	.weak	_ZNSt3__23getB7v180000ILj1EJNS_4pairIffEEPS2_P10OutputPortIS2_EEEERNS_19variant_alternativeIXT_ENS_7variantIJDpT0_EEEE4typeERSB_
	.p2align	2
	.type	_ZNSt3__23getB7v180000ILj1EJNS_4pairIffEEPS2_P10OutputPortIS2_EEEERNS_19variant_alternativeIXT_ENS_7variantIJDpT0_EEEE4typeERSB_,%function
	.code	16                              @ @_ZNSt3__23getB7v180000ILj1EJNS_4pairIffEEPS2_P10OutputPortIS2_EEEERNS_19variant_alternativeIXT_ENS_7variantIJDpT0_EEEE4typeERSB_
	.thumb_func
_ZNSt3__23getB7v180000ILj1EJNS_4pairIffEEPS2_P10OutputPortIS2_EEEERNS_19variant_alternativeIXT_ENS_7variantIJDpT0_EEEE4typeERSB_:
.Lfunc_begin71:
	.loc	5 1524 0 is_stmt 1              @ D:\Embed\MDK\MDK\ARM\ARMCompilerV621\Bin\..\include\libcxx\variant:1524:0
	.fnstart
	.cfi_startproc
@ %bb.0:
	.save	{r7, lr}
	push	{r7, lr}
	.cfi_def_cfa_offset 8
	.cfi_offset lr, -4
	.cfi_offset r7, -8
	.pad	#8
	sub	sp, #8
	.cfi_def_cfa_offset 16
	str	r0, [sp, #4]
.Ltmp262:
	.loc	5 1527 34 prologue_end          @ D:\Embed\MDK\MDK\ARM\ARMCompilerV621\Bin\..\include\libcxx\variant:1527:34
	ldr	r0, [sp, #4]
	.loc	5 1527 10 is_stmt 0             @ D:\Embed\MDK\MDK\ARM\ARMCompilerV621\Bin\..\include\libcxx\variant:1527:10
	bl	_ZNSt3__213__generic_getB7v180000ILj1ERNS_7variantIJNS_4pairIffEEPS3_P10OutputPortIS3_EEEEEEODaOT0_
	.loc	5 1527 3 epilogue_begin         @ D:\Embed\MDK\MDK\ARM\ARMCompilerV621\Bin\..\include\libcxx\variant:1527:3
	add	sp, #8
	pop	{r7, pc}
.Ltmp263:
.Lfunc_end71:
	.size	_ZNSt3__23getB7v180000ILj1EJNS_4pairIffEEPS2_P10OutputPortIS2_EEEERNS_19variant_alternativeIXT_ENS_7variantIJDpT0_EEEE4typeERSB_, .Lfunc_end71-_ZNSt3__23getB7v180000ILj1EJNS_4pairIffEEPS2_P10OutputPortIS2_EEEERNS_19variant_alternativeIXT_ENS_7variantIJDpT0_EEEE4typeERSB_
	.cfi_endproc
	.cantunwind
	.fnend
                                        @ -- End function
	.section	.text._ZNSt3__213make_optionalB7v180000IRNS_4pairIffEEEENS_8optionalIu7__decayIT_EEEOS5_,"axG",%progbits,_ZNSt3__213make_optionalB7v180000IRNS_4pairIffEEEENS_8optionalIu7__decayIT_EEEOS5_,comdat
	.hidden	_ZNSt3__213make_optionalB7v180000IRNS_4pairIffEEEENS_8optionalIu7__decayIT_EEEOS5_ @ -- Begin function _ZNSt3__213make_optionalB7v180000IRNS_4pairIffEEEENS_8optionalIu7__decayIT_EEEOS5_
	.weak	_ZNSt3__213make_optionalB7v180000IRNS_4pairIffEEEENS_8optionalIu7__decayIT_EEEOS5_
	.p2align	2
	.type	_ZNSt3__213make_optionalB7v180000IRNS_4pairIffEEEENS_8optionalIu7__decayIT_EEEOS5_,%function
	.code	16                              @ @_ZNSt3__213make_optionalB7v180000IRNS_4pairIffEEEENS_8optionalIu7__decayIT_EEEOS5_
	.thumb_func
_ZNSt3__213make_optionalB7v180000IRNS_4pairIffEEEENS_8optionalIu7__decayIT_EEEOS5_:
.Lfunc_begin72:
	.loc	3 1637 0 is_stmt 1              @ D:\Embed\MDK\MDK\ARM\ARMCompilerV621\Bin\..\include\libcxx\optional:1637:0
	.fnstart
	.cfi_startproc
@ %bb.0:
	.save	{r7, lr}
	push	{r7, lr}
	.cfi_def_cfa_offset 8
	.cfi_offset lr, -4
	.cfi_offset r7, -8
	.pad	#8
	sub	sp, #8
	.cfi_def_cfa_offset 16
	str	r1, [sp, #4]
.Ltmp264:
	.loc	3 1638 55 prologue_end          @ D:\Embed\MDK\MDK\ARM\ARMCompilerV621\Bin\..\include\libcxx\optional:1638:55
	ldr	r1, [sp, #4]
	.loc	3 1638 12 is_stmt 0             @ D:\Embed\MDK\MDK\ARM\ARMCompilerV621\Bin\..\include\libcxx\optional:1638:12
	bl	_ZNSt3__28optionalINS_4pairIffEEEC2B7v180000IRS2_Li0EEEOT_
	.loc	3 1638 5 epilogue_begin         @ D:\Embed\MDK\MDK\ARM\ARMCompilerV621\Bin\..\include\libcxx\optional:1638:5
	add	sp, #8
	pop	{r7, pc}
.Ltmp265:
.Lfunc_end72:
	.size	_ZNSt3__213make_optionalB7v180000IRNS_4pairIffEEEENS_8optionalIu7__decayIT_EEEOS5_, .Lfunc_end72-_ZNSt3__213make_optionalB7v180000IRNS_4pairIffEEEENS_8optionalIu7__decayIT_EEEOS5_
	.cfi_endproc
	.cantunwind
	.fnend
                                        @ -- End function
	.section	.text._ZNSt3__23getB7v180000ILj0EJNS_4pairIffEEPS2_P10OutputPortIS2_EEEERNS_19variant_alternativeIXT_ENS_7variantIJDpT0_EEEE4typeERSB_,"axG",%progbits,_ZNSt3__23getB7v180000ILj0EJNS_4pairIffEEPS2_P10OutputPortIS2_EEEERNS_19variant_alternativeIXT_ENS_7variantIJDpT0_EEEE4typeERSB_,comdat
	.hidden	_ZNSt3__23getB7v180000ILj0EJNS_4pairIffEEPS2_P10OutputPortIS2_EEEERNS_19variant_alternativeIXT_ENS_7variantIJDpT0_EEEE4typeERSB_ @ -- Begin function _ZNSt3__23getB7v180000ILj0EJNS_4pairIffEEPS2_P10OutputPortIS2_EEEERNS_19variant_alternativeIXT_ENS_7variantIJDpT0_EEEE4typeERSB_
	.weak	_ZNSt3__23getB7v180000ILj0EJNS_4pairIffEEPS2_P10OutputPortIS2_EEEERNS_19variant_alternativeIXT_ENS_7variantIJDpT0_EEEE4typeERSB_
	.p2align	2
	.type	_ZNSt3__23getB7v180000ILj0EJNS_4pairIffEEPS2_P10OutputPortIS2_EEEERNS_19variant_alternativeIXT_ENS_7variantIJDpT0_EEEE4typeERSB_,%function
	.code	16                              @ @_ZNSt3__23getB7v180000ILj0EJNS_4pairIffEEPS2_P10OutputPortIS2_EEEERNS_19variant_alternativeIXT_ENS_7variantIJDpT0_EEEE4typeERSB_
	.thumb_func
_ZNSt3__23getB7v180000ILj0EJNS_4pairIffEEPS2_P10OutputPortIS2_EEEERNS_19variant_alternativeIXT_ENS_7variantIJDpT0_EEEE4typeERSB_:
.Lfunc_begin73:
	.loc	5 1524 0 is_stmt 1              @ D:\Embed\MDK\MDK\ARM\ARMCompilerV621\Bin\..\include\libcxx\variant:1524:0
	.fnstart
	.cfi_startproc
@ %bb.0:
	.save	{r7, lr}
	push	{r7, lr}
	.cfi_def_cfa_offset 8
	.cfi_offset lr, -4
	.cfi_offset r7, -8
	.pad	#8
	sub	sp, #8
	.cfi_def_cfa_offset 16
	str	r0, [sp, #4]
.Ltmp266:
	.loc	5 1527 34 prologue_end          @ D:\Embed\MDK\MDK\ARM\ARMCompilerV621\Bin\..\include\libcxx\variant:1527:34
	ldr	r0, [sp, #4]
	.loc	5 1527 10 is_stmt 0             @ D:\Embed\MDK\MDK\ARM\ARMCompilerV621\Bin\..\include\libcxx\variant:1527:10
	bl	_ZNSt3__213__generic_getB7v180000ILj0ERNS_7variantIJNS_4pairIffEEPS3_P10OutputPortIS3_EEEEEEODaOT0_
	.loc	5 1527 3 epilogue_begin         @ D:\Embed\MDK\MDK\ARM\ARMCompilerV621\Bin\..\include\libcxx\variant:1527:3
	add	sp, #8
	pop	{r7, pc}
.Ltmp267:
.Lfunc_end73:
	.size	_ZNSt3__23getB7v180000ILj0EJNS_4pairIffEEPS2_P10OutputPortIS2_EEEERNS_19variant_alternativeIXT_ENS_7variantIJDpT0_EEEE4typeERSB_, .Lfunc_end73-_ZNSt3__23getB7v180000ILj0EJNS_4pairIffEEPS2_P10OutputPortIS2_EEEERNS_19variant_alternativeIXT_ENS_7variantIJDpT0_EEEE4typeERSB_
	.cfi_endproc
	.cantunwind
	.fnend
                                        @ -- End function
	.section	.text._ZNSt3__28optionalINS_4pairIffEEEC2B7v180000IRS2_Li0EEEOT_,"axG",%progbits,_ZNSt3__28optionalINS_4pairIffEEEC2B7v180000IRS2_Li0EEEOT_,comdat
	.hidden	_ZNSt3__28optionalINS_4pairIffEEEC2B7v180000IRS2_Li0EEEOT_ @ -- Begin function _ZNSt3__28optionalINS_4pairIffEEEC2B7v180000IRS2_Li0EEEOT_
	.weak	_ZNSt3__28optionalINS_4pairIffEEEC2B7v180000IRS2_Li0EEEOT_
	.p2align	2
	.type	_ZNSt3__28optionalINS_4pairIffEEEC2B7v180000IRS2_Li0EEEOT_,%function
	.code	16                              @ @_ZNSt3__28optionalINS_4pairIffEEEC2B7v180000IRS2_Li0EEEOT_
	.thumb_func
_ZNSt3__28optionalINS_4pairIffEEEC2B7v180000IRS2_Li0EEEOT_:
.Lfunc_begin74:
	.loc	3 828 0 is_stmt 1               @ D:\Embed\MDK\MDK\ARM\ARMCompilerV621\Bin\..\include\libcxx\optional:828:0
	.fnstart
	.cfi_startproc
@ %bb.0:
	.save	{r7, lr}
	push	{r7, lr}
	.cfi_def_cfa_offset 8
	.cfi_offset lr, -4
	.cfi_offset r7, -8
	.pad	#16
	sub	sp, #16
	.cfi_def_cfa_offset 24
	str	r0, [sp, #12]
	str	r1, [sp, #8]
	ldr	r0, [sp, #12]
.Ltmp268:
	.loc	3 828 48 prologue_end           @ D:\Embed\MDK\MDK\ARM\ARMCompilerV621\Bin\..\include\libcxx\optional:828:48
	str	r0, [sp]                        @ 4-byte Spill
	ldr	r1, [sp, #8]
	.loc	3 828 11 is_stmt 0              @ D:\Embed\MDK\MDK\ARM\ARMCompilerV621\Bin\..\include\libcxx\optional:828:11
	bl	_ZNSt3__227__optional_move_assign_baseINS_4pairIffEELb0EECI2NS_24__optional_destruct_baseIS2_Lb1EEEIJRS2_EEENS_10in_place_tEDpOT_
	ldr	r0, [sp]                        @ 4-byte Reload
	.loc	3 828 55 epilogue_begin         @ D:\Embed\MDK\MDK\ARM\ARMCompilerV621\Bin\..\include\libcxx\optional:828:55
	add	sp, #16
	pop	{r7, pc}
.Ltmp269:
.Lfunc_end74:
	.size	_ZNSt3__28optionalINS_4pairIffEEEC2B7v180000IRS2_Li0EEEOT_, .Lfunc_end74-_ZNSt3__28optionalINS_4pairIffEEEC2B7v180000IRS2_Li0EEEOT_
	.cfi_endproc
	.cantunwind
	.fnend
                                        @ -- End function
	.section	.text._ZNKSt3__216__variant_detail6__baseILNS0_6_TraitE0EJNS_4pairIffEEPS4_P10OutputPortIS4_EEE5indexB7v180000Ev,"axG",%progbits,_ZNKSt3__216__variant_detail6__baseILNS0_6_TraitE0EJNS_4pairIffEEPS4_P10OutputPortIS4_EEE5indexB7v180000Ev,comdat
	.hidden	_ZNKSt3__216__variant_detail6__baseILNS0_6_TraitE0EJNS_4pairIffEEPS4_P10OutputPortIS4_EEE5indexB7v180000Ev @ -- Begin function _ZNKSt3__216__variant_detail6__baseILNS0_6_TraitE0EJNS_4pairIffEEPS4_P10OutputPortIS4_EEE5indexB7v180000Ev
	.weak	_ZNKSt3__216__variant_detail6__baseILNS0_6_TraitE0EJNS_4pairIffEEPS4_P10OutputPortIS4_EEE5indexB7v180000Ev
	.p2align	2
	.type	_ZNKSt3__216__variant_detail6__baseILNS0_6_TraitE0EJNS_4pairIffEEPS4_P10OutputPortIS4_EEE5indexB7v180000Ev,%function
	.code	16                              @ @_ZNKSt3__216__variant_detail6__baseILNS0_6_TraitE0EJNS_4pairIffEEPS4_P10OutputPortIS4_EEE5indexB7v180000Ev
	.thumb_func
_ZNKSt3__216__variant_detail6__baseILNS0_6_TraitE0EJNS_4pairIffEEPS4_P10OutputPortIS4_EEE5indexB7v180000Ev:
.Lfunc_begin75:
	.loc	5 820 0 is_stmt 1               @ D:\Embed\MDK\MDK\ARM\ARMCompilerV621\Bin\..\include\libcxx\variant:820:0
	.fnstart
	.cfi_startproc
@ %bb.0:
	.pad	#12
	sub	sp, #12
	.cfi_def_cfa_offset 12
	str	r0, [sp, #8]
	ldr	r0, [sp, #8]
.Ltmp270:
	.loc	5 821 12 prologue_end           @ D:\Embed\MDK\MDK\ARM\ARMCompilerV621\Bin\..\include\libcxx\variant:821:12
	str	r0, [sp, #4]                    @ 4-byte Spill
	ldrb	r0, [r0, #8]
	cmp	r0, #255
	bne	.LBB75_2
	b	.LBB75_1
.LBB75_1:
	.loc	5 0 12 is_stmt 0                @ D:\Embed\MDK\MDK\ARM\ARMCompilerV621\Bin\..\include\libcxx\variant:0:12
	mov.w	r0, #-1
	.loc	5 821 12                        @ D:\Embed\MDK\MDK\ARM\ARMCompilerV621\Bin\..\include\libcxx\variant:821:12
	str	r0, [sp]                        @ 4-byte Spill
	b	.LBB75_3
.LBB75_2:
	.loc	5 821 66                        @ D:\Embed\MDK\MDK\ARM\ARMCompilerV621\Bin\..\include\libcxx\variant:821:66
	ldr	r0, [sp, #4]                    @ 4-byte Reload
	ldrb	r0, [r0, #8]
	.loc	5 821 12                        @ D:\Embed\MDK\MDK\ARM\ARMCompilerV621\Bin\..\include\libcxx\variant:821:12
	str	r0, [sp]                        @ 4-byte Spill
	b	.LBB75_3
.LBB75_3:
	ldr	r0, [sp]                        @ 4-byte Reload
	.loc	5 821 5 epilogue_begin          @ D:\Embed\MDK\MDK\ARM\ARMCompilerV621\Bin\..\include\libcxx\variant:821:5
	add	sp, #12
	bx	lr
.Ltmp271:
.Lfunc_end75:
	.size	_ZNKSt3__216__variant_detail6__baseILNS0_6_TraitE0EJNS_4pairIffEEPS4_P10OutputPortIS4_EEE5indexB7v180000Ev, .Lfunc_end75-_ZNKSt3__216__variant_detail6__baseILNS0_6_TraitE0EJNS_4pairIffEEPS4_P10OutputPortIS4_EEE5indexB7v180000Ev
	.cfi_endproc
	.cantunwind
	.fnend
                                        @ -- End function
	.section	.text._ZNSt3__213__generic_getB7v180000ILj2ERNS_7variantIJNS_4pairIffEEPS3_P10OutputPortIS3_EEEEEEODaOT0_,"axG",%progbits,_ZNSt3__213__generic_getB7v180000ILj2ERNS_7variantIJNS_4pairIffEEPS3_P10OutputPortIS3_EEEEEEODaOT0_,comdat
	.hidden	_ZNSt3__213__generic_getB7v180000ILj2ERNS_7variantIJNS_4pairIffEEPS3_P10OutputPortIS3_EEEEEEODaOT0_ @ -- Begin function _ZNSt3__213__generic_getB7v180000ILj2ERNS_7variantIJNS_4pairIffEEPS3_P10OutputPortIS3_EEEEEEODaOT0_
	.weak	_ZNSt3__213__generic_getB7v180000ILj2ERNS_7variantIJNS_4pairIffEEPS3_P10OutputPortIS3_EEEEEEODaOT0_
	.p2align	2
	.type	_ZNSt3__213__generic_getB7v180000ILj2ERNS_7variantIJNS_4pairIffEEPS3_P10OutputPortIS3_EEEEEEODaOT0_,%function
	.code	16                              @ @_ZNSt3__213__generic_getB7v180000ILj2ERNS_7variantIJNS_4pairIffEEPS3_P10OutputPortIS3_EEEEEEODaOT0_
	.thumb_func
_ZNSt3__213__generic_getB7v180000ILj2ERNS_7variantIJNS_4pairIffEEPS3_P10OutputPortIS3_EEEEEEODaOT0_:
.Lfunc_begin76:
	.loc	5 1512 0 is_stmt 1              @ D:\Embed\MDK\MDK\ARM\ARMCompilerV621\Bin\..\include\libcxx\variant:1512:0
	.fnstart
	.cfi_startproc
@ %bb.0:
	.save	{r7, lr}
	push	{r7, lr}
	.cfi_def_cfa_offset 8
	.cfi_offset lr, -4
	.cfi_offset r7, -8
	.pad	#8
	sub	sp, #8
	.cfi_def_cfa_offset 16
	str	r0, [sp, #4]
.Ltmp272:
	.loc	5 1514 38 prologue_end          @ D:\Embed\MDK\MDK\ARM\ARMCompilerV621\Bin\..\include\libcxx\variant:1514:38
	ldr	r0, [sp, #4]
	.loc	5 1514 8 is_stmt 0              @ D:\Embed\MDK\MDK\ARM\ARMCompilerV621\Bin\..\include\libcxx\variant:1514:8
	bl	_ZNSt3__219__holds_alternativeB7v180000ILj2EJNS_4pairIffEEPS2_P10OutputPortIS2_EEEEbRKNS_7variantIJDpT0_EEE
.Ltmp273:
	.loc	5 1514 7                        @ D:\Embed\MDK\MDK\ARM\ARMCompilerV621\Bin\..\include\libcxx\variant:1514:7
	cbnz	r0, .LBB76_2
	b	.LBB76_1
.LBB76_1:
.Ltmp274:
	.loc	5 1515 5 is_stmt 1              @ D:\Embed\MDK\MDK\ARM\ARMCompilerV621\Bin\..\include\libcxx\variant:1515:5
	bl	_ZNSt3__226__throw_bad_variant_accessB7v180000Ev
.Ltmp275:
.LBB76_2:
	.loc	5 1517 56                       @ D:\Embed\MDK\MDK\ARM\ARMCompilerV621\Bin\..\include\libcxx\variant:1517:56
	ldr	r0, [sp, #4]
	.loc	5 1517 10 is_stmt 0             @ D:\Embed\MDK\MDK\ARM\ARMCompilerV621\Bin\..\include\libcxx\variant:1517:10
	bl	_ZNSt3__216__variant_detail8__access9__variant9__get_altB7v180000ILj2ERNS_7variantIJNS_4pairIffEEPS6_P10OutputPortIS6_EEEEEEODaOT0_
	.loc	5 1517 3 epilogue_begin         @ D:\Embed\MDK\MDK\ARM\ARMCompilerV621\Bin\..\include\libcxx\variant:1517:3
	add	sp, #8
	pop	{r7, pc}
.Ltmp276:
.Lfunc_end76:
	.size	_ZNSt3__213__generic_getB7v180000ILj2ERNS_7variantIJNS_4pairIffEEPS3_P10OutputPortIS3_EEEEEEODaOT0_, .Lfunc_end76-_ZNSt3__213__generic_getB7v180000ILj2ERNS_7variantIJNS_4pairIffEEPS3_P10OutputPortIS3_EEEEEEODaOT0_
	.cfi_endproc
	.cantunwind
	.fnend
                                        @ -- End function
	.section	.text._ZNSt3__219__holds_alternativeB7v180000ILj2EJNS_4pairIffEEPS2_P10OutputPortIS2_EEEEbRKNS_7variantIJDpT0_EEE,"axG",%progbits,_ZNSt3__219__holds_alternativeB7v180000ILj2EJNS_4pairIffEEPS2_P10OutputPortIS2_EEEEbRKNS_7variantIJDpT0_EEE,comdat
	.hidden	_ZNSt3__219__holds_alternativeB7v180000ILj2EJNS_4pairIffEEPS2_P10OutputPortIS2_EEEEbRKNS_7variantIJDpT0_EEE @ -- Begin function _ZNSt3__219__holds_alternativeB7v180000ILj2EJNS_4pairIffEEPS2_P10OutputPortIS2_EEEEbRKNS_7variantIJDpT0_EEE
	.weak	_ZNSt3__219__holds_alternativeB7v180000ILj2EJNS_4pairIffEEPS2_P10OutputPortIS2_EEEEbRKNS_7variantIJDpT0_EEE
	.p2align	2
	.type	_ZNSt3__219__holds_alternativeB7v180000ILj2EJNS_4pairIffEEPS2_P10OutputPortIS2_EEEEbRKNS_7variantIJDpT0_EEE,%function
	.code	16                              @ @_ZNSt3__219__holds_alternativeB7v180000ILj2EJNS_4pairIffEEPS2_P10OutputPortIS2_EEEEbRKNS_7variantIJDpT0_EEE
	.thumb_func
_ZNSt3__219__holds_alternativeB7v180000ILj2EJNS_4pairIffEEPS2_P10OutputPortIS2_EEEEbRKNS_7variantIJDpT0_EEE:
.Lfunc_begin77:
	.loc	5 1499 0 is_stmt 1              @ D:\Embed\MDK\MDK\ARM\ARMCompilerV621\Bin\..\include\libcxx\variant:1499:0
	.fnstart
	.cfi_startproc
@ %bb.0:
	.save	{r7, lr}
	push	{r7, lr}
	.cfi_def_cfa_offset 8
	.cfi_offset lr, -4
	.cfi_offset r7, -8
	.pad	#8
	sub	sp, #8
	.cfi_def_cfa_offset 16
	str	r0, [sp, #4]
.Ltmp277:
	.loc	5 1500 10 prologue_end          @ D:\Embed\MDK\MDK\ARM\ARMCompilerV621\Bin\..\include\libcxx\variant:1500:10
	ldr	r0, [sp, #4]
	.loc	5 1500 14 is_stmt 0             @ D:\Embed\MDK\MDK\ARM\ARMCompilerV621\Bin\..\include\libcxx\variant:1500:14
	bl	_ZNKSt3__27variantIJNS_4pairIffEEPS2_P10OutputPortIS2_EEE5indexB7v180000Ev
	.loc	5 1500 22                       @ D:\Embed\MDK\MDK\ARM\ARMCompilerV621\Bin\..\include\libcxx\variant:1500:22
	subs	r0, #2
	clz	r0, r0
	lsrs	r0, r0, #5
	.loc	5 1500 3 epilogue_begin         @ D:\Embed\MDK\MDK\ARM\ARMCompilerV621\Bin\..\include\libcxx\variant:1500:3
	add	sp, #8
	pop	{r7, pc}
.Ltmp278:
.Lfunc_end77:
	.size	_ZNSt3__219__holds_alternativeB7v180000ILj2EJNS_4pairIffEEPS2_P10OutputPortIS2_EEEEbRKNS_7variantIJDpT0_EEE, .Lfunc_end77-_ZNSt3__219__holds_alternativeB7v180000ILj2EJNS_4pairIffEEPS2_P10OutputPortIS2_EEEEbRKNS_7variantIJDpT0_EEE
	.cfi_endproc
	.cantunwind
	.fnend
                                        @ -- End function
	.section	.text._ZNSt3__226__throw_bad_variant_accessB7v180000Ev,"axG",%progbits,_ZNSt3__226__throw_bad_variant_accessB7v180000Ev,comdat
	.hidden	_ZNSt3__226__throw_bad_variant_accessB7v180000Ev @ -- Begin function _ZNSt3__226__throw_bad_variant_accessB7v180000Ev
	.weak	_ZNSt3__226__throw_bad_variant_accessB7v180000Ev
	.p2align	2
	.type	_ZNSt3__226__throw_bad_variant_accessB7v180000Ev,%function
	.code	16                              @ @_ZNSt3__226__throw_bad_variant_accessB7v180000Ev
	.thumb_func
_ZNSt3__226__throw_bad_variant_accessB7v180000Ev:
.Lfunc_begin78:
	.fnstart
	.cfi_startproc
@ %bb.0:
	.loc	5 294 5 prologue_end is_stmt 1  @ D:\Embed\MDK\MDK\ARM\ARMCompilerV621\Bin\..\include\libcxx\variant:294:5
	movw	r0, :lower16:.L.str.1
	movt	r0, :upper16:.L.str.1
	bl	_ZNSt3__222__libcpp_verbose_abortEPKcz
.Ltmp279:
.Lfunc_end78:
	.size	_ZNSt3__226__throw_bad_variant_accessB7v180000Ev, .Lfunc_end78-_ZNSt3__226__throw_bad_variant_accessB7v180000Ev
	.cfi_endproc
	.cantunwind
	.fnend
                                        @ -- End function
	.section	.text._ZNSt3__216__variant_detail8__access9__variant9__get_altB7v180000ILj2ERNS_7variantIJNS_4pairIffEEPS6_P10OutputPortIS6_EEEEEEODaOT0_,"axG",%progbits,_ZNSt3__216__variant_detail8__access9__variant9__get_altB7v180000ILj2ERNS_7variantIJNS_4pairIffEEPS6_P10OutputPortIS6_EEEEEEODaOT0_,comdat
	.hidden	_ZNSt3__216__variant_detail8__access9__variant9__get_altB7v180000ILj2ERNS_7variantIJNS_4pairIffEEPS6_P10OutputPortIS6_EEEEEEODaOT0_ @ -- Begin function _ZNSt3__216__variant_detail8__access9__variant9__get_altB7v180000ILj2ERNS_7variantIJNS_4pairIffEEPS6_P10OutputPortIS6_EEEEEEODaOT0_
	.weak	_ZNSt3__216__variant_detail8__access9__variant9__get_altB7v180000ILj2ERNS_7variantIJNS_4pairIffEEPS6_P10OutputPortIS6_EEEEEEODaOT0_
	.p2align	2
	.type	_ZNSt3__216__variant_detail8__access9__variant9__get_altB7v180000ILj2ERNS_7variantIJNS_4pairIffEEPS6_P10OutputPortIS6_EEEEEEODaOT0_,%function
	.code	16                              @ @_ZNSt3__216__variant_detail8__access9__variant9__get_altB7v180000ILj2ERNS_7variantIJNS_4pairIffEEPS6_P10OutputPortIS6_EEEEEEODaOT0_
	.thumb_func
_ZNSt3__216__variant_detail8__access9__variant9__get_altB7v180000ILj2ERNS_7variantIJNS_4pairIffEEPS6_P10OutputPortIS6_EEEEEEODaOT0_:
.Lfunc_begin79:
	.loc	5 507 0                         @ D:\Embed\MDK\MDK\ARM\ARMCompilerV621\Bin\..\include\libcxx\variant:507:0
	.fnstart
	.cfi_startproc
@ %bb.0:
	.save	{r7, lr}
	push	{r7, lr}
	.cfi_def_cfa_offset 8
	.cfi_offset lr, -4
	.cfi_offset r7, -8
	.pad	#8
	sub	sp, #8
	.cfi_def_cfa_offset 16
	str	r0, [sp, #4]
.Ltmp280:
	.loc	5 508 55 prologue_end           @ D:\Embed\MDK\MDK\ARM\ARMCompilerV621\Bin\..\include\libcxx\variant:508:55
	ldr	r0, [sp, #4]
	.loc	5 508 12 is_stmt 0              @ D:\Embed\MDK\MDK\ARM\ARMCompilerV621\Bin\..\include\libcxx\variant:508:12
	bl	_ZNSt3__216__variant_detail8__access6__base9__get_altB7v180000ILj2ERNS0_6__implIJNS_4pairIffEEPS6_P10OutputPortIS6_EEEEEEODaOT0_
	.loc	5 508 5 epilogue_begin          @ D:\Embed\MDK\MDK\ARM\ARMCompilerV621\Bin\..\include\libcxx\variant:508:5
	add	sp, #8
	pop	{r7, pc}
.Ltmp281:
.Lfunc_end79:
	.size	_ZNSt3__216__variant_detail8__access9__variant9__get_altB7v180000ILj2ERNS_7variantIJNS_4pairIffEEPS6_P10OutputPortIS6_EEEEEEODaOT0_, .Lfunc_end79-_ZNSt3__216__variant_detail8__access9__variant9__get_altB7v180000ILj2ERNS_7variantIJNS_4pairIffEEPS6_P10OutputPortIS6_EEEEEEODaOT0_
	.cfi_endproc
	.cantunwind
	.fnend
                                        @ -- End function
	.section	.text._ZNSt3__216__variant_detail8__access6__base9__get_altB7v180000ILj2ERNS0_6__implIJNS_4pairIffEEPS6_P10OutputPortIS6_EEEEEEODaOT0_,"axG",%progbits,_ZNSt3__216__variant_detail8__access6__base9__get_altB7v180000ILj2ERNS0_6__implIJNS_4pairIffEEPS6_P10OutputPortIS6_EEEEEEODaOT0_,comdat
	.hidden	_ZNSt3__216__variant_detail8__access6__base9__get_altB7v180000ILj2ERNS0_6__implIJNS_4pairIffEEPS6_P10OutputPortIS6_EEEEEEODaOT0_ @ -- Begin function _ZNSt3__216__variant_detail8__access6__base9__get_altB7v180000ILj2ERNS0_6__implIJNS_4pairIffEEPS6_P10OutputPortIS6_EEEEEEODaOT0_
	.weak	_ZNSt3__216__variant_detail8__access6__base9__get_altB7v180000ILj2ERNS0_6__implIJNS_4pairIffEEPS6_P10OutputPortIS6_EEEEEEODaOT0_
	.p2align	2
	.type	_ZNSt3__216__variant_detail8__access6__base9__get_altB7v180000ILj2ERNS0_6__implIJNS_4pairIffEEPS6_P10OutputPortIS6_EEEEEEODaOT0_,%function
	.code	16                              @ @_ZNSt3__216__variant_detail8__access6__base9__get_altB7v180000ILj2ERNS0_6__implIJNS_4pairIffEEPS6_P10OutputPortIS6_EEEEEEODaOT0_
	.thumb_func
_ZNSt3__216__variant_detail8__access6__base9__get_altB7v180000ILj2ERNS0_6__implIJNS_4pairIffEEPS6_P10OutputPortIS6_EEEEEEODaOT0_:
.Lfunc_begin80:
	.loc	5 498 0 is_stmt 1               @ D:\Embed\MDK\MDK\ARM\ARMCompilerV621\Bin\..\include\libcxx\variant:498:0
	.fnstart
	.cfi_startproc
@ %bb.0:
	.save	{r7, lr}
	push	{r7, lr}
	.cfi_def_cfa_offset 8
	.cfi_offset lr, -4
	.cfi_offset r7, -8
	.pad	#8
	sub	sp, #8
	.cfi_def_cfa_offset 16
	str	r0, [sp, #4]
.Ltmp282:
	.loc	5 499 51 prologue_end           @ D:\Embed\MDK\MDK\ARM\ARMCompilerV621\Bin\..\include\libcxx\variant:499:51
	ldr	r0, [sp, #4]
	.loc	5 499 12 is_stmt 0              @ D:\Embed\MDK\MDK\ARM\ARMCompilerV621\Bin\..\include\libcxx\variant:499:12
	bl	_ZNSt3__216__variant_detail8__access7__union9__get_altB7v180000IRNS0_7__unionILNS0_6_TraitE0ELj0EJNS_4pairIffEEPS7_P10OutputPortIS7_EEEELj2EEEODaOT_NS_16in_place_index_tIXT0_EEE
	.loc	5 499 5 epilogue_begin          @ D:\Embed\MDK\MDK\ARM\ARMCompilerV621\Bin\..\include\libcxx\variant:499:5
	add	sp, #8
	pop	{r7, pc}
.Ltmp283:
.Lfunc_end80:
	.size	_ZNSt3__216__variant_detail8__access6__base9__get_altB7v180000ILj2ERNS0_6__implIJNS_4pairIffEEPS6_P10OutputPortIS6_EEEEEEODaOT0_, .Lfunc_end80-_ZNSt3__216__variant_detail8__access6__base9__get_altB7v180000ILj2ERNS0_6__implIJNS_4pairIffEEPS6_P10OutputPortIS6_EEEEEEODaOT0_
	.cfi_endproc
	.cantunwind
	.fnend
                                        @ -- End function
	.section	.text._ZNSt3__216__variant_detail8__access7__union9__get_altB7v180000IRNS0_7__unionILNS0_6_TraitE0ELj0EJNS_4pairIffEEPS7_P10OutputPortIS7_EEEELj2EEEODaOT_NS_16in_place_index_tIXT0_EEE,"axG",%progbits,_ZNSt3__216__variant_detail8__access7__union9__get_altB7v180000IRNS0_7__unionILNS0_6_TraitE0ELj0EJNS_4pairIffEEPS7_P10OutputPortIS7_EEEELj2EEEODaOT_NS_16in_place_index_tIXT0_EEE,comdat
	.hidden	_ZNSt3__216__variant_detail8__access7__union9__get_altB7v180000IRNS0_7__unionILNS0_6_TraitE0ELj0EJNS_4pairIffEEPS7_P10OutputPortIS7_EEEELj2EEEODaOT_NS_16in_place_index_tIXT0_EEE @ -- Begin function _ZNSt3__216__variant_detail8__access7__union9__get_altB7v180000IRNS0_7__unionILNS0_6_TraitE0ELj0EJNS_4pairIffEEPS7_P10OutputPortIS7_EEEELj2EEEODaOT_NS_16in_place_index_tIXT0_EEE
	.weak	_ZNSt3__216__variant_detail8__access7__union9__get_altB7v180000IRNS0_7__unionILNS0_6_TraitE0ELj0EJNS_4pairIffEEPS7_P10OutputPortIS7_EEEELj2EEEODaOT_NS_16in_place_index_tIXT0_EEE
	.p2align	2
	.type	_ZNSt3__216__variant_detail8__access7__union9__get_altB7v180000IRNS0_7__unionILNS0_6_TraitE0ELj0EJNS_4pairIffEEPS7_P10OutputPortIS7_EEEELj2EEEODaOT_NS_16in_place_index_tIXT0_EEE,%function
	.code	16                              @ @_ZNSt3__216__variant_detail8__access7__union9__get_altB7v180000IRNS0_7__unionILNS0_6_TraitE0ELj0EJNS_4pairIffEEPS7_P10OutputPortIS7_EEEELj2EEEODaOT_NS_16in_place_index_tIXT0_EEE
	.thumb_func
_ZNSt3__216__variant_detail8__access7__union9__get_altB7v180000IRNS0_7__unionILNS0_6_TraitE0ELj0EJNS_4pairIffEEPS7_P10OutputPortIS7_EEEELj2EEEODaOT_NS_16in_place_index_tIXT0_EEE:
.Lfunc_begin81:
	.loc	5 490 0 is_stmt 1               @ D:\Embed\MDK\MDK\ARM\ARMCompilerV621\Bin\..\include\libcxx\variant:490:0
	.fnstart
	.cfi_startproc
@ %bb.0:
	.save	{r7, lr}
	push	{r7, lr}
	.cfi_def_cfa_offset 8
	.cfi_offset lr, -4
	.cfi_offset r7, -8
	.pad	#16
	sub	sp, #16
	.cfi_def_cfa_offset 24
	str	r0, [sp, #8]
.Ltmp284:
	.loc	5 491 42 prologue_end           @ D:\Embed\MDK\MDK\ARM\ARMCompilerV621\Bin\..\include\libcxx\variant:491:42
	ldr	r0, [sp, #8]
	.loc	5 491 12 is_stmt 0              @ D:\Embed\MDK\MDK\ARM\ARMCompilerV621\Bin\..\include\libcxx\variant:491:12
	bl	_ZNSt3__216__variant_detail8__access7__union9__get_altB7v180000IRNS0_7__unionILNS0_6_TraitE0ELj1EJPNS_4pairIffEEP10OutputPortIS7_EEEELj1EEEODaOT_NS_16in_place_index_tIXT0_EEE
	.loc	5 491 5 epilogue_begin          @ D:\Embed\MDK\MDK\ARM\ARMCompilerV621\Bin\..\include\libcxx\variant:491:5
	add	sp, #16
	pop	{r7, pc}
.Ltmp285:
.Lfunc_end81:
	.size	_ZNSt3__216__variant_detail8__access7__union9__get_altB7v180000IRNS0_7__unionILNS0_6_TraitE0ELj0EJNS_4pairIffEEPS7_P10OutputPortIS7_EEEELj2EEEODaOT_NS_16in_place_index_tIXT0_EEE, .Lfunc_end81-_ZNSt3__216__variant_detail8__access7__union9__get_altB7v180000IRNS0_7__unionILNS0_6_TraitE0ELj0EJNS_4pairIffEEPS7_P10OutputPortIS7_EEEELj2EEEODaOT_NS_16in_place_index_tIXT0_EEE
	.cfi_endproc
	.cantunwind
	.fnend
                                        @ -- End function
	.section	.text._ZNSt3__216__variant_detail8__access7__union9__get_altB7v180000IRNS0_7__unionILNS0_6_TraitE0ELj1EJPNS_4pairIffEEP10OutputPortIS7_EEEELj1EEEODaOT_NS_16in_place_index_tIXT0_EEE,"axG",%progbits,_ZNSt3__216__variant_detail8__access7__union9__get_altB7v180000IRNS0_7__unionILNS0_6_TraitE0ELj1EJPNS_4pairIffEEP10OutputPortIS7_EEEELj1EEEODaOT_NS_16in_place_index_tIXT0_EEE,comdat
	.hidden	_ZNSt3__216__variant_detail8__access7__union9__get_altB7v180000IRNS0_7__unionILNS0_6_TraitE0ELj1EJPNS_4pairIffEEP10OutputPortIS7_EEEELj1EEEODaOT_NS_16in_place_index_tIXT0_EEE @ -- Begin function _ZNSt3__216__variant_detail8__access7__union9__get_altB7v180000IRNS0_7__unionILNS0_6_TraitE0ELj1EJPNS_4pairIffEEP10OutputPortIS7_EEEELj1EEEODaOT_NS_16in_place_index_tIXT0_EEE
	.weak	_ZNSt3__216__variant_detail8__access7__union9__get_altB7v180000IRNS0_7__unionILNS0_6_TraitE0ELj1EJPNS_4pairIffEEP10OutputPortIS7_EEEELj1EEEODaOT_NS_16in_place_index_tIXT0_EEE
	.p2align	2
	.type	_ZNSt3__216__variant_detail8__access7__union9__get_altB7v180000IRNS0_7__unionILNS0_6_TraitE0ELj1EJPNS_4pairIffEEP10OutputPortIS7_EEEELj1EEEODaOT_NS_16in_place_index_tIXT0_EEE,%function
	.code	16                              @ @_ZNSt3__216__variant_detail8__access7__union9__get_altB7v180000IRNS0_7__unionILNS0_6_TraitE0ELj1EJPNS_4pairIffEEP10OutputPortIS7_EEEELj1EEEODaOT_NS_16in_place_index_tIXT0_EEE
	.thumb_func
_ZNSt3__216__variant_detail8__access7__union9__get_altB7v180000IRNS0_7__unionILNS0_6_TraitE0ELj1EJPNS_4pairIffEEP10OutputPortIS7_EEEELj1EEEODaOT_NS_16in_place_index_tIXT0_EEE:
.Lfunc_begin82:
	.loc	5 490 0 is_stmt 1               @ D:\Embed\MDK\MDK\ARM\ARMCompilerV621\Bin\..\include\libcxx\variant:490:0
	.fnstart
	.cfi_startproc
@ %bb.0:
	.save	{r7, lr}
	push	{r7, lr}
	.cfi_def_cfa_offset 8
	.cfi_offset lr, -4
	.cfi_offset r7, -8
	.pad	#16
	sub	sp, #16
	.cfi_def_cfa_offset 24
	str	r0, [sp, #8]
.Ltmp286:
	.loc	5 491 42 prologue_end           @ D:\Embed\MDK\MDK\ARM\ARMCompilerV621\Bin\..\include\libcxx\variant:491:42
	ldr	r0, [sp, #8]
	.loc	5 491 12 is_stmt 0              @ D:\Embed\MDK\MDK\ARM\ARMCompilerV621\Bin\..\include\libcxx\variant:491:12
	bl	_ZNSt3__216__variant_detail8__access7__union9__get_altB7v180000IRNS0_7__unionILNS0_6_TraitE0ELj2EJP10OutputPortINS_4pairIffEEEEEEEEODaOT_NS_16in_place_index_tILj0EEE
	.loc	5 491 5 epilogue_begin          @ D:\Embed\MDK\MDK\ARM\ARMCompilerV621\Bin\..\include\libcxx\variant:491:5
	add	sp, #16
	pop	{r7, pc}
.Ltmp287:
.Lfunc_end82:
	.size	_ZNSt3__216__variant_detail8__access7__union9__get_altB7v180000IRNS0_7__unionILNS0_6_TraitE0ELj1EJPNS_4pairIffEEP10OutputPortIS7_EEEELj1EEEODaOT_NS_16in_place_index_tIXT0_EEE, .Lfunc_end82-_ZNSt3__216__variant_detail8__access7__union9__get_altB7v180000IRNS0_7__unionILNS0_6_TraitE0ELj1EJPNS_4pairIffEEP10OutputPortIS7_EEEELj1EEEODaOT_NS_16in_place_index_tIXT0_EEE
	.cfi_endproc
	.cantunwind
	.fnend
                                        @ -- End function
	.section	.text._ZNSt3__216__variant_detail8__access7__union9__get_altB7v180000IRNS0_7__unionILNS0_6_TraitE0ELj2EJP10OutputPortINS_4pairIffEEEEEEEEODaOT_NS_16in_place_index_tILj0EEE,"axG",%progbits,_ZNSt3__216__variant_detail8__access7__union9__get_altB7v180000IRNS0_7__unionILNS0_6_TraitE0ELj2EJP10OutputPortINS_4pairIffEEEEEEEEODaOT_NS_16in_place_index_tILj0EEE,comdat
	.hidden	_ZNSt3__216__variant_detail8__access7__union9__get_altB7v180000IRNS0_7__unionILNS0_6_TraitE0ELj2EJP10OutputPortINS_4pairIffEEEEEEEEODaOT_NS_16in_place_index_tILj0EEE @ -- Begin function _ZNSt3__216__variant_detail8__access7__union9__get_altB7v180000IRNS0_7__unionILNS0_6_TraitE0ELj2EJP10OutputPortINS_4pairIffEEEEEEEEODaOT_NS_16in_place_index_tILj0EEE
	.weak	_ZNSt3__216__variant_detail8__access7__union9__get_altB7v180000IRNS0_7__unionILNS0_6_TraitE0ELj2EJP10OutputPortINS_4pairIffEEEEEEEEODaOT_NS_16in_place_index_tILj0EEE
	.p2align	2
	.type	_ZNSt3__216__variant_detail8__access7__union9__get_altB7v180000IRNS0_7__unionILNS0_6_TraitE0ELj2EJP10OutputPortINS_4pairIffEEEEEEEEODaOT_NS_16in_place_index_tILj0EEE,%function
	.code	16                              @ @_ZNSt3__216__variant_detail8__access7__union9__get_altB7v180000IRNS0_7__unionILNS0_6_TraitE0ELj2EJP10OutputPortINS_4pairIffEEEEEEEEODaOT_NS_16in_place_index_tILj0EEE
	.thumb_func
_ZNSt3__216__variant_detail8__access7__union9__get_altB7v180000IRNS0_7__unionILNS0_6_TraitE0ELj2EJP10OutputPortINS_4pairIffEEEEEEEEODaOT_NS_16in_place_index_tILj0EEE:
.Lfunc_begin83:
	.loc	5 484 0 is_stmt 1               @ D:\Embed\MDK\MDK\ARM\ARMCompilerV621\Bin\..\include\libcxx\variant:484:0
	.fnstart
	.cfi_startproc
@ %bb.0:
	.pad	#8
	sub	sp, #8
	.cfi_def_cfa_offset 8
	str	r0, [sp]
.Ltmp288:
	.loc	5 485 32 prologue_end           @ D:\Embed\MDK\MDK\ARM\ARMCompilerV621\Bin\..\include\libcxx\variant:485:32
	ldr	r0, [sp]
	.loc	5 485 5 epilogue_begin is_stmt 0 @ D:\Embed\MDK\MDK\ARM\ARMCompilerV621\Bin\..\include\libcxx\variant:485:5
	add	sp, #8
	bx	lr
.Ltmp289:
.Lfunc_end83:
	.size	_ZNSt3__216__variant_detail8__access7__union9__get_altB7v180000IRNS0_7__unionILNS0_6_TraitE0ELj2EJP10OutputPortINS_4pairIffEEEEEEEEODaOT_NS_16in_place_index_tILj0EEE, .Lfunc_end83-_ZNSt3__216__variant_detail8__access7__union9__get_altB7v180000IRNS0_7__unionILNS0_6_TraitE0ELj2EJP10OutputPortINS_4pairIffEEEEEEEEODaOT_NS_16in_place_index_tILj0EEE
	.cfi_endproc
	.cantunwind
	.fnend
                                        @ -- End function
	.section	.text._ZNSt3__213__generic_getB7v180000ILj1ERNS_7variantIJNS_4pairIffEEPS3_P10OutputPortIS3_EEEEEEODaOT0_,"axG",%progbits,_ZNSt3__213__generic_getB7v180000ILj1ERNS_7variantIJNS_4pairIffEEPS3_P10OutputPortIS3_EEEEEEODaOT0_,comdat
	.hidden	_ZNSt3__213__generic_getB7v180000ILj1ERNS_7variantIJNS_4pairIffEEPS3_P10OutputPortIS3_EEEEEEODaOT0_ @ -- Begin function _ZNSt3__213__generic_getB7v180000ILj1ERNS_7variantIJNS_4pairIffEEPS3_P10OutputPortIS3_EEEEEEODaOT0_
	.weak	_ZNSt3__213__generic_getB7v180000ILj1ERNS_7variantIJNS_4pairIffEEPS3_P10OutputPortIS3_EEEEEEODaOT0_
	.p2align	2
	.type	_ZNSt3__213__generic_getB7v180000ILj1ERNS_7variantIJNS_4pairIffEEPS3_P10OutputPortIS3_EEEEEEODaOT0_,%function
	.code	16                              @ @_ZNSt3__213__generic_getB7v180000ILj1ERNS_7variantIJNS_4pairIffEEPS3_P10OutputPortIS3_EEEEEEODaOT0_
	.thumb_func
_ZNSt3__213__generic_getB7v180000ILj1ERNS_7variantIJNS_4pairIffEEPS3_P10OutputPortIS3_EEEEEEODaOT0_:
.Lfunc_begin84:
	.loc	5 1512 0 is_stmt 1              @ D:\Embed\MDK\MDK\ARM\ARMCompilerV621\Bin\..\include\libcxx\variant:1512:0
	.fnstart
	.cfi_startproc
@ %bb.0:
	.save	{r7, lr}
	push	{r7, lr}
	.cfi_def_cfa_offset 8
	.cfi_offset lr, -4
	.cfi_offset r7, -8
	.pad	#8
	sub	sp, #8
	.cfi_def_cfa_offset 16
	str	r0, [sp, #4]
.Ltmp290:
	.loc	5 1514 38 prologue_end          @ D:\Embed\MDK\MDK\ARM\ARMCompilerV621\Bin\..\include\libcxx\variant:1514:38
	ldr	r0, [sp, #4]
	.loc	5 1514 8 is_stmt 0              @ D:\Embed\MDK\MDK\ARM\ARMCompilerV621\Bin\..\include\libcxx\variant:1514:8
	bl	_ZNSt3__219__holds_alternativeB7v180000ILj1EJNS_4pairIffEEPS2_P10OutputPortIS2_EEEEbRKNS_7variantIJDpT0_EEE
.Ltmp291:
	.loc	5 1514 7                        @ D:\Embed\MDK\MDK\ARM\ARMCompilerV621\Bin\..\include\libcxx\variant:1514:7
	cbnz	r0, .LBB84_2
	b	.LBB84_1
.LBB84_1:
.Ltmp292:
	.loc	5 1515 5 is_stmt 1              @ D:\Embed\MDK\MDK\ARM\ARMCompilerV621\Bin\..\include\libcxx\variant:1515:5
	bl	_ZNSt3__226__throw_bad_variant_accessB7v180000Ev
.Ltmp293:
.LBB84_2:
	.loc	5 1517 56                       @ D:\Embed\MDK\MDK\ARM\ARMCompilerV621\Bin\..\include\libcxx\variant:1517:56
	ldr	r0, [sp, #4]
	.loc	5 1517 10 is_stmt 0             @ D:\Embed\MDK\MDK\ARM\ARMCompilerV621\Bin\..\include\libcxx\variant:1517:10
	bl	_ZNSt3__216__variant_detail8__access9__variant9__get_altB7v180000ILj1ERNS_7variantIJNS_4pairIffEEPS6_P10OutputPortIS6_EEEEEEODaOT0_
	.loc	5 1517 3 epilogue_begin         @ D:\Embed\MDK\MDK\ARM\ARMCompilerV621\Bin\..\include\libcxx\variant:1517:3
	add	sp, #8
	pop	{r7, pc}
.Ltmp294:
.Lfunc_end84:
	.size	_ZNSt3__213__generic_getB7v180000ILj1ERNS_7variantIJNS_4pairIffEEPS3_P10OutputPortIS3_EEEEEEODaOT0_, .Lfunc_end84-_ZNSt3__213__generic_getB7v180000ILj1ERNS_7variantIJNS_4pairIffEEPS3_P10OutputPortIS3_EEEEEEODaOT0_
	.cfi_endproc
	.cantunwind
	.fnend
                                        @ -- End function
	.section	.text._ZNSt3__219__holds_alternativeB7v180000ILj1EJNS_4pairIffEEPS2_P10OutputPortIS2_EEEEbRKNS_7variantIJDpT0_EEE,"axG",%progbits,_ZNSt3__219__holds_alternativeB7v180000ILj1EJNS_4pairIffEEPS2_P10OutputPortIS2_EEEEbRKNS_7variantIJDpT0_EEE,comdat
	.hidden	_ZNSt3__219__holds_alternativeB7v180000ILj1EJNS_4pairIffEEPS2_P10OutputPortIS2_EEEEbRKNS_7variantIJDpT0_EEE @ -- Begin function _ZNSt3__219__holds_alternativeB7v180000ILj1EJNS_4pairIffEEPS2_P10OutputPortIS2_EEEEbRKNS_7variantIJDpT0_EEE
	.weak	_ZNSt3__219__holds_alternativeB7v180000ILj1EJNS_4pairIffEEPS2_P10OutputPortIS2_EEEEbRKNS_7variantIJDpT0_EEE
	.p2align	2
	.type	_ZNSt3__219__holds_alternativeB7v180000ILj1EJNS_4pairIffEEPS2_P10OutputPortIS2_EEEEbRKNS_7variantIJDpT0_EEE,%function
	.code	16                              @ @_ZNSt3__219__holds_alternativeB7v180000ILj1EJNS_4pairIffEEPS2_P10OutputPortIS2_EEEEbRKNS_7variantIJDpT0_EEE
	.thumb_func
_ZNSt3__219__holds_alternativeB7v180000ILj1EJNS_4pairIffEEPS2_P10OutputPortIS2_EEEEbRKNS_7variantIJDpT0_EEE:
.Lfunc_begin85:
	.loc	5 1499 0 is_stmt 1              @ D:\Embed\MDK\MDK\ARM\ARMCompilerV621\Bin\..\include\libcxx\variant:1499:0
	.fnstart
	.cfi_startproc
@ %bb.0:
	.save	{r7, lr}
	push	{r7, lr}
	.cfi_def_cfa_offset 8
	.cfi_offset lr, -4
	.cfi_offset r7, -8
	.pad	#8
	sub	sp, #8
	.cfi_def_cfa_offset 16
	str	r0, [sp, #4]
.Ltmp295:
	.loc	5 1500 10 prologue_end          @ D:\Embed\MDK\MDK\ARM\ARMCompilerV621\Bin\..\include\libcxx\variant:1500:10
	ldr	r0, [sp, #4]
	.loc	5 1500 14 is_stmt 0             @ D:\Embed\MDK\MDK\ARM\ARMCompilerV621\Bin\..\include\libcxx\variant:1500:14
	bl	_ZNKSt3__27variantIJNS_4pairIffEEPS2_P10OutputPortIS2_EEE5indexB7v180000Ev
	.loc	5 1500 22                       @ D:\Embed\MDK\MDK\ARM\ARMCompilerV621\Bin\..\include\libcxx\variant:1500:22
	subs	r0, #1
	clz	r0, r0
	lsrs	r0, r0, #5
	.loc	5 1500 3 epilogue_begin         @ D:\Embed\MDK\MDK\ARM\ARMCompilerV621\Bin\..\include\libcxx\variant:1500:3
	add	sp, #8
	pop	{r7, pc}
.Ltmp296:
.Lfunc_end85:
	.size	_ZNSt3__219__holds_alternativeB7v180000ILj1EJNS_4pairIffEEPS2_P10OutputPortIS2_EEEEbRKNS_7variantIJDpT0_EEE, .Lfunc_end85-_ZNSt3__219__holds_alternativeB7v180000ILj1EJNS_4pairIffEEPS2_P10OutputPortIS2_EEEEbRKNS_7variantIJDpT0_EEE
	.cfi_endproc
	.cantunwind
	.fnend
                                        @ -- End function
	.section	.text._ZNSt3__216__variant_detail8__access9__variant9__get_altB7v180000ILj1ERNS_7variantIJNS_4pairIffEEPS6_P10OutputPortIS6_EEEEEEODaOT0_,"axG",%progbits,_ZNSt3__216__variant_detail8__access9__variant9__get_altB7v180000ILj1ERNS_7variantIJNS_4pairIffEEPS6_P10OutputPortIS6_EEEEEEODaOT0_,comdat
	.hidden	_ZNSt3__216__variant_detail8__access9__variant9__get_altB7v180000ILj1ERNS_7variantIJNS_4pairIffEEPS6_P10OutputPortIS6_EEEEEEODaOT0_ @ -- Begin function _ZNSt3__216__variant_detail8__access9__variant9__get_altB7v180000ILj1ERNS_7variantIJNS_4pairIffEEPS6_P10OutputPortIS6_EEEEEEODaOT0_
	.weak	_ZNSt3__216__variant_detail8__access9__variant9__get_altB7v180000ILj1ERNS_7variantIJNS_4pairIffEEPS6_P10OutputPortIS6_EEEEEEODaOT0_
	.p2align	2
	.type	_ZNSt3__216__variant_detail8__access9__variant9__get_altB7v180000ILj1ERNS_7variantIJNS_4pairIffEEPS6_P10OutputPortIS6_EEEEEEODaOT0_,%function
	.code	16                              @ @_ZNSt3__216__variant_detail8__access9__variant9__get_altB7v180000ILj1ERNS_7variantIJNS_4pairIffEEPS6_P10OutputPortIS6_EEEEEEODaOT0_
	.thumb_func
_ZNSt3__216__variant_detail8__access9__variant9__get_altB7v180000ILj1ERNS_7variantIJNS_4pairIffEEPS6_P10OutputPortIS6_EEEEEEODaOT0_:
.Lfunc_begin86:
	.loc	5 507 0 is_stmt 1               @ D:\Embed\MDK\MDK\ARM\ARMCompilerV621\Bin\..\include\libcxx\variant:507:0
	.fnstart
	.cfi_startproc
@ %bb.0:
	.save	{r7, lr}
	push	{r7, lr}
	.cfi_def_cfa_offset 8
	.cfi_offset lr, -4
	.cfi_offset r7, -8
	.pad	#8
	sub	sp, #8
	.cfi_def_cfa_offset 16
	str	r0, [sp, #4]
.Ltmp297:
	.loc	5 508 55 prologue_end           @ D:\Embed\MDK\MDK\ARM\ARMCompilerV621\Bin\..\include\libcxx\variant:508:55
	ldr	r0, [sp, #4]
	.loc	5 508 12 is_stmt 0              @ D:\Embed\MDK\MDK\ARM\ARMCompilerV621\Bin\..\include\libcxx\variant:508:12
	bl	_ZNSt3__216__variant_detail8__access6__base9__get_altB7v180000ILj1ERNS0_6__implIJNS_4pairIffEEPS6_P10OutputPortIS6_EEEEEEODaOT0_
	.loc	5 508 5 epilogue_begin          @ D:\Embed\MDK\MDK\ARM\ARMCompilerV621\Bin\..\include\libcxx\variant:508:5
	add	sp, #8
	pop	{r7, pc}
.Ltmp298:
.Lfunc_end86:
	.size	_ZNSt3__216__variant_detail8__access9__variant9__get_altB7v180000ILj1ERNS_7variantIJNS_4pairIffEEPS6_P10OutputPortIS6_EEEEEEODaOT0_, .Lfunc_end86-_ZNSt3__216__variant_detail8__access9__variant9__get_altB7v180000ILj1ERNS_7variantIJNS_4pairIffEEPS6_P10OutputPortIS6_EEEEEEODaOT0_
	.cfi_endproc
	.cantunwind
	.fnend
                                        @ -- End function
	.section	.text._ZNSt3__216__variant_detail8__access6__base9__get_altB7v180000ILj1ERNS0_6__implIJNS_4pairIffEEPS6_P10OutputPortIS6_EEEEEEODaOT0_,"axG",%progbits,_ZNSt3__216__variant_detail8__access6__base9__get_altB7v180000ILj1ERNS0_6__implIJNS_4pairIffEEPS6_P10OutputPortIS6_EEEEEEODaOT0_,comdat
	.hidden	_ZNSt3__216__variant_detail8__access6__base9__get_altB7v180000ILj1ERNS0_6__implIJNS_4pairIffEEPS6_P10OutputPortIS6_EEEEEEODaOT0_ @ -- Begin function _ZNSt3__216__variant_detail8__access6__base9__get_altB7v180000ILj1ERNS0_6__implIJNS_4pairIffEEPS6_P10OutputPortIS6_EEEEEEODaOT0_
	.weak	_ZNSt3__216__variant_detail8__access6__base9__get_altB7v180000ILj1ERNS0_6__implIJNS_4pairIffEEPS6_P10OutputPortIS6_EEEEEEODaOT0_
	.p2align	2
	.type	_ZNSt3__216__variant_detail8__access6__base9__get_altB7v180000ILj1ERNS0_6__implIJNS_4pairIffEEPS6_P10OutputPortIS6_EEEEEEODaOT0_,%function
	.code	16                              @ @_ZNSt3__216__variant_detail8__access6__base9__get_altB7v180000ILj1ERNS0_6__implIJNS_4pairIffEEPS6_P10OutputPortIS6_EEEEEEODaOT0_
	.thumb_func
_ZNSt3__216__variant_detail8__access6__base9__get_altB7v180000ILj1ERNS0_6__implIJNS_4pairIffEEPS6_P10OutputPortIS6_EEEEEEODaOT0_:
.Lfunc_begin87:
	.loc	5 498 0 is_stmt 1               @ D:\Embed\MDK\MDK\ARM\ARMCompilerV621\Bin\..\include\libcxx\variant:498:0
	.fnstart
	.cfi_startproc
@ %bb.0:
	.save	{r7, lr}
	push	{r7, lr}
	.cfi_def_cfa_offset 8
	.cfi_offset lr, -4
	.cfi_offset r7, -8
	.pad	#8
	sub	sp, #8
	.cfi_def_cfa_offset 16
	str	r0, [sp, #4]
.Ltmp299:
	.loc	5 499 51 prologue_end           @ D:\Embed\MDK\MDK\ARM\ARMCompilerV621\Bin\..\include\libcxx\variant:499:51
	ldr	r0, [sp, #4]
	.loc	5 499 12 is_stmt 0              @ D:\Embed\MDK\MDK\ARM\ARMCompilerV621\Bin\..\include\libcxx\variant:499:12
	bl	_ZNSt3__216__variant_detail8__access7__union9__get_altB7v180000IRNS0_7__unionILNS0_6_TraitE0ELj0EJNS_4pairIffEEPS7_P10OutputPortIS7_EEEELj1EEEODaOT_NS_16in_place_index_tIXT0_EEE
	.loc	5 499 5 epilogue_begin          @ D:\Embed\MDK\MDK\ARM\ARMCompilerV621\Bin\..\include\libcxx\variant:499:5
	add	sp, #8
	pop	{r7, pc}
.Ltmp300:
.Lfunc_end87:
	.size	_ZNSt3__216__variant_detail8__access6__base9__get_altB7v180000ILj1ERNS0_6__implIJNS_4pairIffEEPS6_P10OutputPortIS6_EEEEEEODaOT0_, .Lfunc_end87-_ZNSt3__216__variant_detail8__access6__base9__get_altB7v180000ILj1ERNS0_6__implIJNS_4pairIffEEPS6_P10OutputPortIS6_EEEEEEODaOT0_
	.cfi_endproc
	.cantunwind
	.fnend
                                        @ -- End function
	.section	.text._ZNSt3__216__variant_detail8__access7__union9__get_altB7v180000IRNS0_7__unionILNS0_6_TraitE0ELj0EJNS_4pairIffEEPS7_P10OutputPortIS7_EEEELj1EEEODaOT_NS_16in_place_index_tIXT0_EEE,"axG",%progbits,_ZNSt3__216__variant_detail8__access7__union9__get_altB7v180000IRNS0_7__unionILNS0_6_TraitE0ELj0EJNS_4pairIffEEPS7_P10OutputPortIS7_EEEELj1EEEODaOT_NS_16in_place_index_tIXT0_EEE,comdat
	.hidden	_ZNSt3__216__variant_detail8__access7__union9__get_altB7v180000IRNS0_7__unionILNS0_6_TraitE0ELj0EJNS_4pairIffEEPS7_P10OutputPortIS7_EEEELj1EEEODaOT_NS_16in_place_index_tIXT0_EEE @ -- Begin function _ZNSt3__216__variant_detail8__access7__union9__get_altB7v180000IRNS0_7__unionILNS0_6_TraitE0ELj0EJNS_4pairIffEEPS7_P10OutputPortIS7_EEEELj1EEEODaOT_NS_16in_place_index_tIXT0_EEE
	.weak	_ZNSt3__216__variant_detail8__access7__union9__get_altB7v180000IRNS0_7__unionILNS0_6_TraitE0ELj0EJNS_4pairIffEEPS7_P10OutputPortIS7_EEEELj1EEEODaOT_NS_16in_place_index_tIXT0_EEE
	.p2align	2
	.type	_ZNSt3__216__variant_detail8__access7__union9__get_altB7v180000IRNS0_7__unionILNS0_6_TraitE0ELj0EJNS_4pairIffEEPS7_P10OutputPortIS7_EEEELj1EEEODaOT_NS_16in_place_index_tIXT0_EEE,%function
	.code	16                              @ @_ZNSt3__216__variant_detail8__access7__union9__get_altB7v180000IRNS0_7__unionILNS0_6_TraitE0ELj0EJNS_4pairIffEEPS7_P10OutputPortIS7_EEEELj1EEEODaOT_NS_16in_place_index_tIXT0_EEE
	.thumb_func
_ZNSt3__216__variant_detail8__access7__union9__get_altB7v180000IRNS0_7__unionILNS0_6_TraitE0ELj0EJNS_4pairIffEEPS7_P10OutputPortIS7_EEEELj1EEEODaOT_NS_16in_place_index_tIXT0_EEE:
.Lfunc_begin88:
	.loc	5 490 0 is_stmt 1               @ D:\Embed\MDK\MDK\ARM\ARMCompilerV621\Bin\..\include\libcxx\variant:490:0
	.fnstart
	.cfi_startproc
@ %bb.0:
	.save	{r7, lr}
	push	{r7, lr}
	.cfi_def_cfa_offset 8
	.cfi_offset lr, -4
	.cfi_offset r7, -8
	.pad	#16
	sub	sp, #16
	.cfi_def_cfa_offset 24
	str	r0, [sp, #8]
.Ltmp301:
	.loc	5 491 42 prologue_end           @ D:\Embed\MDK\MDK\ARM\ARMCompilerV621\Bin\..\include\libcxx\variant:491:42
	ldr	r0, [sp, #8]
	.loc	5 491 12 is_stmt 0              @ D:\Embed\MDK\MDK\ARM\ARMCompilerV621\Bin\..\include\libcxx\variant:491:12
	bl	_ZNSt3__216__variant_detail8__access7__union9__get_altB7v180000IRNS0_7__unionILNS0_6_TraitE0ELj1EJPNS_4pairIffEEP10OutputPortIS7_EEEEEEODaOT_NS_16in_place_index_tILj0EEE
	.loc	5 491 5 epilogue_begin          @ D:\Embed\MDK\MDK\ARM\ARMCompilerV621\Bin\..\include\libcxx\variant:491:5
	add	sp, #16
	pop	{r7, pc}
.Ltmp302:
.Lfunc_end88:
	.size	_ZNSt3__216__variant_detail8__access7__union9__get_altB7v180000IRNS0_7__unionILNS0_6_TraitE0ELj0EJNS_4pairIffEEPS7_P10OutputPortIS7_EEEELj1EEEODaOT_NS_16in_place_index_tIXT0_EEE, .Lfunc_end88-_ZNSt3__216__variant_detail8__access7__union9__get_altB7v180000IRNS0_7__unionILNS0_6_TraitE0ELj0EJNS_4pairIffEEPS7_P10OutputPortIS7_EEEELj1EEEODaOT_NS_16in_place_index_tIXT0_EEE
	.cfi_endproc
	.cantunwind
	.fnend
                                        @ -- End function
	.section	.text._ZNSt3__216__variant_detail8__access7__union9__get_altB7v180000IRNS0_7__unionILNS0_6_TraitE0ELj1EJPNS_4pairIffEEP10OutputPortIS7_EEEEEEODaOT_NS_16in_place_index_tILj0EEE,"axG",%progbits,_ZNSt3__216__variant_detail8__access7__union9__get_altB7v180000IRNS0_7__unionILNS0_6_TraitE0ELj1EJPNS_4pairIffEEP10OutputPortIS7_EEEEEEODaOT_NS_16in_place_index_tILj0EEE,comdat
	.hidden	_ZNSt3__216__variant_detail8__access7__union9__get_altB7v180000IRNS0_7__unionILNS0_6_TraitE0ELj1EJPNS_4pairIffEEP10OutputPortIS7_EEEEEEODaOT_NS_16in_place_index_tILj0EEE @ -- Begin function _ZNSt3__216__variant_detail8__access7__union9__get_altB7v180000IRNS0_7__unionILNS0_6_TraitE0ELj1EJPNS_4pairIffEEP10OutputPortIS7_EEEEEEODaOT_NS_16in_place_index_tILj0EEE
	.weak	_ZNSt3__216__variant_detail8__access7__union9__get_altB7v180000IRNS0_7__unionILNS0_6_TraitE0ELj1EJPNS_4pairIffEEP10OutputPortIS7_EEEEEEODaOT_NS_16in_place_index_tILj0EEE
	.p2align	2
	.type	_ZNSt3__216__variant_detail8__access7__union9__get_altB7v180000IRNS0_7__unionILNS0_6_TraitE0ELj1EJPNS_4pairIffEEP10OutputPortIS7_EEEEEEODaOT_NS_16in_place_index_tILj0EEE,%function
	.code	16                              @ @_ZNSt3__216__variant_detail8__access7__union9__get_altB7v180000IRNS0_7__unionILNS0_6_TraitE0ELj1EJPNS_4pairIffEEP10OutputPortIS7_EEEEEEODaOT_NS_16in_place_index_tILj0EEE
	.thumb_func
_ZNSt3__216__variant_detail8__access7__union9__get_altB7v180000IRNS0_7__unionILNS0_6_TraitE0ELj1EJPNS_4pairIffEEP10OutputPortIS7_EEEEEEODaOT_NS_16in_place_index_tILj0EEE:
.Lfunc_begin89:
	.loc	5 484 0 is_stmt 1               @ D:\Embed\MDK\MDK\ARM\ARMCompilerV621\Bin\..\include\libcxx\variant:484:0
	.fnstart
	.cfi_startproc
@ %bb.0:
	.pad	#8
	sub	sp, #8
	.cfi_def_cfa_offset 8
	str	r0, [sp]
.Ltmp303:
	.loc	5 485 32 prologue_end           @ D:\Embed\MDK\MDK\ARM\ARMCompilerV621\Bin\..\include\libcxx\variant:485:32
	ldr	r0, [sp]
	.loc	5 485 5 epilogue_begin is_stmt 0 @ D:\Embed\MDK\MDK\ARM\ARMCompilerV621\Bin\..\include\libcxx\variant:485:5
	add	sp, #8
	bx	lr
.Ltmp304:
.Lfunc_end89:
	.size	_ZNSt3__216__variant_detail8__access7__union9__get_altB7v180000IRNS0_7__unionILNS0_6_TraitE0ELj1EJPNS_4pairIffEEP10OutputPortIS7_EEEEEEODaOT_NS_16in_place_index_tILj0EEE, .Lfunc_end89-_ZNSt3__216__variant_detail8__access7__union9__get_altB7v180000IRNS0_7__unionILNS0_6_TraitE0ELj1EJPNS_4pairIffEEP10OutputPortIS7_EEEEEEODaOT_NS_16in_place_index_tILj0EEE
	.cfi_endproc
	.cantunwind
	.fnend
                                        @ -- End function
	.section	.text._ZNSt3__213__generic_getB7v180000ILj0ERNS_7variantIJNS_4pairIffEEPS3_P10OutputPortIS3_EEEEEEODaOT0_,"axG",%progbits,_ZNSt3__213__generic_getB7v180000ILj0ERNS_7variantIJNS_4pairIffEEPS3_P10OutputPortIS3_EEEEEEODaOT0_,comdat
	.hidden	_ZNSt3__213__generic_getB7v180000ILj0ERNS_7variantIJNS_4pairIffEEPS3_P10OutputPortIS3_EEEEEEODaOT0_ @ -- Begin function _ZNSt3__213__generic_getB7v180000ILj0ERNS_7variantIJNS_4pairIffEEPS3_P10OutputPortIS3_EEEEEEODaOT0_
	.weak	_ZNSt3__213__generic_getB7v180000ILj0ERNS_7variantIJNS_4pairIffEEPS3_P10OutputPortIS3_EEEEEEODaOT0_
	.p2align	2
	.type	_ZNSt3__213__generic_getB7v180000ILj0ERNS_7variantIJNS_4pairIffEEPS3_P10OutputPortIS3_EEEEEEODaOT0_,%function
	.code	16                              @ @_ZNSt3__213__generic_getB7v180000ILj0ERNS_7variantIJNS_4pairIffEEPS3_P10OutputPortIS3_EEEEEEODaOT0_
	.thumb_func
_ZNSt3__213__generic_getB7v180000ILj0ERNS_7variantIJNS_4pairIffEEPS3_P10OutputPortIS3_EEEEEEODaOT0_:
.Lfunc_begin90:
	.loc	5 1512 0 is_stmt 1              @ D:\Embed\MDK\MDK\ARM\ARMCompilerV621\Bin\..\include\libcxx\variant:1512:0
	.fnstart
	.cfi_startproc
@ %bb.0:
	.save	{r7, lr}
	push	{r7, lr}
	.cfi_def_cfa_offset 8
	.cfi_offset lr, -4
	.cfi_offset r7, -8
	.pad	#8
	sub	sp, #8
	.cfi_def_cfa_offset 16
	str	r0, [sp, #4]
.Ltmp305:
	.loc	5 1514 38 prologue_end          @ D:\Embed\MDK\MDK\ARM\ARMCompilerV621\Bin\..\include\libcxx\variant:1514:38
	ldr	r0, [sp, #4]
	.loc	5 1514 8 is_stmt 0              @ D:\Embed\MDK\MDK\ARM\ARMCompilerV621\Bin\..\include\libcxx\variant:1514:8
	bl	_ZNSt3__219__holds_alternativeB7v180000ILj0EJNS_4pairIffEEPS2_P10OutputPortIS2_EEEEbRKNS_7variantIJDpT0_EEE
.Ltmp306:
	.loc	5 1514 7                        @ D:\Embed\MDK\MDK\ARM\ARMCompilerV621\Bin\..\include\libcxx\variant:1514:7
	cbnz	r0, .LBB90_2
	b	.LBB90_1
.LBB90_1:
.Ltmp307:
	.loc	5 1515 5 is_stmt 1              @ D:\Embed\MDK\MDK\ARM\ARMCompilerV621\Bin\..\include\libcxx\variant:1515:5
	bl	_ZNSt3__226__throw_bad_variant_accessB7v180000Ev
.Ltmp308:
.LBB90_2:
	.loc	5 1517 56                       @ D:\Embed\MDK\MDK\ARM\ARMCompilerV621\Bin\..\include\libcxx\variant:1517:56
	ldr	r0, [sp, #4]
	.loc	5 1517 10 is_stmt 0             @ D:\Embed\MDK\MDK\ARM\ARMCompilerV621\Bin\..\include\libcxx\variant:1517:10
	bl	_ZNSt3__216__variant_detail8__access9__variant9__get_altB7v180000ILj0ERNS_7variantIJNS_4pairIffEEPS6_P10OutputPortIS6_EEEEEEODaOT0_
	.loc	5 1517 3 epilogue_begin         @ D:\Embed\MDK\MDK\ARM\ARMCompilerV621\Bin\..\include\libcxx\variant:1517:3
	add	sp, #8
	pop	{r7, pc}
.Ltmp309:
.Lfunc_end90:
	.size	_ZNSt3__213__generic_getB7v180000ILj0ERNS_7variantIJNS_4pairIffEEPS3_P10OutputPortIS3_EEEEEEODaOT0_, .Lfunc_end90-_ZNSt3__213__generic_getB7v180000ILj0ERNS_7variantIJNS_4pairIffEEPS3_P10OutputPortIS3_EEEEEEODaOT0_
	.cfi_endproc
	.cantunwind
	.fnend
                                        @ -- End function
	.section	.text._ZNSt3__219__holds_alternativeB7v180000ILj0EJNS_4pairIffEEPS2_P10OutputPortIS2_EEEEbRKNS_7variantIJDpT0_EEE,"axG",%progbits,_ZNSt3__219__holds_alternativeB7v180000ILj0EJNS_4pairIffEEPS2_P10OutputPortIS2_EEEEbRKNS_7variantIJDpT0_EEE,comdat
	.hidden	_ZNSt3__219__holds_alternativeB7v180000ILj0EJNS_4pairIffEEPS2_P10OutputPortIS2_EEEEbRKNS_7variantIJDpT0_EEE @ -- Begin function _ZNSt3__219__holds_alternativeB7v180000ILj0EJNS_4pairIffEEPS2_P10OutputPortIS2_EEEEbRKNS_7variantIJDpT0_EEE
	.weak	_ZNSt3__219__holds_alternativeB7v180000ILj0EJNS_4pairIffEEPS2_P10OutputPortIS2_EEEEbRKNS_7variantIJDpT0_EEE
	.p2align	2
	.type	_ZNSt3__219__holds_alternativeB7v180000ILj0EJNS_4pairIffEEPS2_P10OutputPortIS2_EEEEbRKNS_7variantIJDpT0_EEE,%function
	.code	16                              @ @_ZNSt3__219__holds_alternativeB7v180000ILj0EJNS_4pairIffEEPS2_P10OutputPortIS2_EEEEbRKNS_7variantIJDpT0_EEE
	.thumb_func
_ZNSt3__219__holds_alternativeB7v180000ILj0EJNS_4pairIffEEPS2_P10OutputPortIS2_EEEEbRKNS_7variantIJDpT0_EEE:
.Lfunc_begin91:
	.loc	5 1499 0 is_stmt 1              @ D:\Embed\MDK\MDK\ARM\ARMCompilerV621\Bin\..\include\libcxx\variant:1499:0
	.fnstart
	.cfi_startproc
@ %bb.0:
	.save	{r7, lr}
	push	{r7, lr}
	.cfi_def_cfa_offset 8
	.cfi_offset lr, -4
	.cfi_offset r7, -8
	.pad	#8
	sub	sp, #8
	.cfi_def_cfa_offset 16
	str	r0, [sp, #4]
.Ltmp310:
	.loc	5 1500 10 prologue_end          @ D:\Embed\MDK\MDK\ARM\ARMCompilerV621\Bin\..\include\libcxx\variant:1500:10
	ldr	r0, [sp, #4]
	.loc	5 1500 14 is_stmt 0             @ D:\Embed\MDK\MDK\ARM\ARMCompilerV621\Bin\..\include\libcxx\variant:1500:14
	bl	_ZNKSt3__27variantIJNS_4pairIffEEPS2_P10OutputPortIS2_EEE5indexB7v180000Ev
	.loc	5 1500 22                       @ D:\Embed\MDK\MDK\ARM\ARMCompilerV621\Bin\..\include\libcxx\variant:1500:22
	clz	r0, r0
	lsrs	r0, r0, #5
	.loc	5 1500 3 epilogue_begin         @ D:\Embed\MDK\MDK\ARM\ARMCompilerV621\Bin\..\include\libcxx\variant:1500:3
	add	sp, #8
	pop	{r7, pc}
.Ltmp311:
.Lfunc_end91:
	.size	_ZNSt3__219__holds_alternativeB7v180000ILj0EJNS_4pairIffEEPS2_P10OutputPortIS2_EEEEbRKNS_7variantIJDpT0_EEE, .Lfunc_end91-_ZNSt3__219__holds_alternativeB7v180000ILj0EJNS_4pairIffEEPS2_P10OutputPortIS2_EEEEbRKNS_7variantIJDpT0_EEE
	.cfi_endproc
	.cantunwind
	.fnend
                                        @ -- End function
	.section	.text._ZNSt3__216__variant_detail8__access9__variant9__get_altB7v180000ILj0ERNS_7variantIJNS_4pairIffEEPS6_P10OutputPortIS6_EEEEEEODaOT0_,"axG",%progbits,_ZNSt3__216__variant_detail8__access9__variant9__get_altB7v180000ILj0ERNS_7variantIJNS_4pairIffEEPS6_P10OutputPortIS6_EEEEEEODaOT0_,comdat
	.hidden	_ZNSt3__216__variant_detail8__access9__variant9__get_altB7v180000ILj0ERNS_7variantIJNS_4pairIffEEPS6_P10OutputPortIS6_EEEEEEODaOT0_ @ -- Begin function _ZNSt3__216__variant_detail8__access9__variant9__get_altB7v180000ILj0ERNS_7variantIJNS_4pairIffEEPS6_P10OutputPortIS6_EEEEEEODaOT0_
	.weak	_ZNSt3__216__variant_detail8__access9__variant9__get_altB7v180000ILj0ERNS_7variantIJNS_4pairIffEEPS6_P10OutputPortIS6_EEEEEEODaOT0_
	.p2align	2
	.type	_ZNSt3__216__variant_detail8__access9__variant9__get_altB7v180000ILj0ERNS_7variantIJNS_4pairIffEEPS6_P10OutputPortIS6_EEEEEEODaOT0_,%function
	.code	16                              @ @_ZNSt3__216__variant_detail8__access9__variant9__get_altB7v180000ILj0ERNS_7variantIJNS_4pairIffEEPS6_P10OutputPortIS6_EEEEEEODaOT0_
	.thumb_func
_ZNSt3__216__variant_detail8__access9__variant9__get_altB7v180000ILj0ERNS_7variantIJNS_4pairIffEEPS6_P10OutputPortIS6_EEEEEEODaOT0_:
.Lfunc_begin92:
	.loc	5 507 0 is_stmt 1               @ D:\Embed\MDK\MDK\ARM\ARMCompilerV621\Bin\..\include\libcxx\variant:507:0
	.fnstart
	.cfi_startproc
@ %bb.0:
	.save	{r7, lr}
	push	{r7, lr}
	.cfi_def_cfa_offset 8
	.cfi_offset lr, -4
	.cfi_offset r7, -8
	.pad	#8
	sub	sp, #8
	.cfi_def_cfa_offset 16
	str	r0, [sp, #4]
.Ltmp312:
	.loc	5 508 55 prologue_end           @ D:\Embed\MDK\MDK\ARM\ARMCompilerV621\Bin\..\include\libcxx\variant:508:55
	ldr	r0, [sp, #4]
	.loc	5 508 12 is_stmt 0              @ D:\Embed\MDK\MDK\ARM\ARMCompilerV621\Bin\..\include\libcxx\variant:508:12
	bl	_ZNSt3__216__variant_detail8__access6__base9__get_altB7v180000ILj0ERNS0_6__implIJNS_4pairIffEEPS6_P10OutputPortIS6_EEEEEEODaOT0_
	.loc	5 508 5 epilogue_begin          @ D:\Embed\MDK\MDK\ARM\ARMCompilerV621\Bin\..\include\libcxx\variant:508:5
	add	sp, #8
	pop	{r7, pc}
.Ltmp313:
.Lfunc_end92:
	.size	_ZNSt3__216__variant_detail8__access9__variant9__get_altB7v180000ILj0ERNS_7variantIJNS_4pairIffEEPS6_P10OutputPortIS6_EEEEEEODaOT0_, .Lfunc_end92-_ZNSt3__216__variant_detail8__access9__variant9__get_altB7v180000ILj0ERNS_7variantIJNS_4pairIffEEPS6_P10OutputPortIS6_EEEEEEODaOT0_
	.cfi_endproc
	.cantunwind
	.fnend
                                        @ -- End function
	.section	.text._ZNSt3__216__variant_detail8__access6__base9__get_altB7v180000ILj0ERNS0_6__implIJNS_4pairIffEEPS6_P10OutputPortIS6_EEEEEEODaOT0_,"axG",%progbits,_ZNSt3__216__variant_detail8__access6__base9__get_altB7v180000ILj0ERNS0_6__implIJNS_4pairIffEEPS6_P10OutputPortIS6_EEEEEEODaOT0_,comdat
	.hidden	_ZNSt3__216__variant_detail8__access6__base9__get_altB7v180000ILj0ERNS0_6__implIJNS_4pairIffEEPS6_P10OutputPortIS6_EEEEEEODaOT0_ @ -- Begin function _ZNSt3__216__variant_detail8__access6__base9__get_altB7v180000ILj0ERNS0_6__implIJNS_4pairIffEEPS6_P10OutputPortIS6_EEEEEEODaOT0_
	.weak	_ZNSt3__216__variant_detail8__access6__base9__get_altB7v180000ILj0ERNS0_6__implIJNS_4pairIffEEPS6_P10OutputPortIS6_EEEEEEODaOT0_
	.p2align	2
	.type	_ZNSt3__216__variant_detail8__access6__base9__get_altB7v180000ILj0ERNS0_6__implIJNS_4pairIffEEPS6_P10OutputPortIS6_EEEEEEODaOT0_,%function
	.code	16                              @ @_ZNSt3__216__variant_detail8__access6__base9__get_altB7v180000ILj0ERNS0_6__implIJNS_4pairIffEEPS6_P10OutputPortIS6_EEEEEEODaOT0_
	.thumb_func
_ZNSt3__216__variant_detail8__access6__base9__get_altB7v180000ILj0ERNS0_6__implIJNS_4pairIffEEPS6_P10OutputPortIS6_EEEEEEODaOT0_:
.Lfunc_begin93:
	.loc	5 498 0 is_stmt 1               @ D:\Embed\MDK\MDK\ARM\ARMCompilerV621\Bin\..\include\libcxx\variant:498:0
	.fnstart
	.cfi_startproc
@ %bb.0:
	.save	{r7, lr}
	push	{r7, lr}
	.cfi_def_cfa_offset 8
	.cfi_offset lr, -4
	.cfi_offset r7, -8
	.pad	#8
	sub	sp, #8
	.cfi_def_cfa_offset 16
	str	r0, [sp, #4]
.Ltmp314:
	.loc	5 499 51 prologue_end           @ D:\Embed\MDK\MDK\ARM\ARMCompilerV621\Bin\..\include\libcxx\variant:499:51
	ldr	r0, [sp, #4]
	.loc	5 499 12 is_stmt 0              @ D:\Embed\MDK\MDK\ARM\ARMCompilerV621\Bin\..\include\libcxx\variant:499:12
	bl	_ZNSt3__216__variant_detail8__access7__union9__get_altB7v180000IRNS0_7__unionILNS0_6_TraitE0ELj0EJNS_4pairIffEEPS7_P10OutputPortIS7_EEEEEEODaOT_NS_16in_place_index_tILj0EEE
	.loc	5 499 5 epilogue_begin          @ D:\Embed\MDK\MDK\ARM\ARMCompilerV621\Bin\..\include\libcxx\variant:499:5
	add	sp, #8
	pop	{r7, pc}
.Ltmp315:
.Lfunc_end93:
	.size	_ZNSt3__216__variant_detail8__access6__base9__get_altB7v180000ILj0ERNS0_6__implIJNS_4pairIffEEPS6_P10OutputPortIS6_EEEEEEODaOT0_, .Lfunc_end93-_ZNSt3__216__variant_detail8__access6__base9__get_altB7v180000ILj0ERNS0_6__implIJNS_4pairIffEEPS6_P10OutputPortIS6_EEEEEEODaOT0_
	.cfi_endproc
	.cantunwind
	.fnend
                                        @ -- End function
	.section	.text._ZNSt3__216__variant_detail8__access7__union9__get_altB7v180000IRNS0_7__unionILNS0_6_TraitE0ELj0EJNS_4pairIffEEPS7_P10OutputPortIS7_EEEEEEODaOT_NS_16in_place_index_tILj0EEE,"axG",%progbits,_ZNSt3__216__variant_detail8__access7__union9__get_altB7v180000IRNS0_7__unionILNS0_6_TraitE0ELj0EJNS_4pairIffEEPS7_P10OutputPortIS7_EEEEEEODaOT_NS_16in_place_index_tILj0EEE,comdat
	.hidden	_ZNSt3__216__variant_detail8__access7__union9__get_altB7v180000IRNS0_7__unionILNS0_6_TraitE0ELj0EJNS_4pairIffEEPS7_P10OutputPortIS7_EEEEEEODaOT_NS_16in_place_index_tILj0EEE @ -- Begin function _ZNSt3__216__variant_detail8__access7__union9__get_altB7v180000IRNS0_7__unionILNS0_6_TraitE0ELj0EJNS_4pairIffEEPS7_P10OutputPortIS7_EEEEEEODaOT_NS_16in_place_index_tILj0EEE
	.weak	_ZNSt3__216__variant_detail8__access7__union9__get_altB7v180000IRNS0_7__unionILNS0_6_TraitE0ELj0EJNS_4pairIffEEPS7_P10OutputPortIS7_EEEEEEODaOT_NS_16in_place_index_tILj0EEE
	.p2align	2
	.type	_ZNSt3__216__variant_detail8__access7__union9__get_altB7v180000IRNS0_7__unionILNS0_6_TraitE0ELj0EJNS_4pairIffEEPS7_P10OutputPortIS7_EEEEEEODaOT_NS_16in_place_index_tILj0EEE,%function
	.code	16                              @ @_ZNSt3__216__variant_detail8__access7__union9__get_altB7v180000IRNS0_7__unionILNS0_6_TraitE0ELj0EJNS_4pairIffEEPS7_P10OutputPortIS7_EEEEEEODaOT_NS_16in_place_index_tILj0EEE
	.thumb_func
_ZNSt3__216__variant_detail8__access7__union9__get_altB7v180000IRNS0_7__unionILNS0_6_TraitE0ELj0EJNS_4pairIffEEPS7_P10OutputPortIS7_EEEEEEODaOT_NS_16in_place_index_tILj0EEE:
.Lfunc_begin94:
	.loc	5 484 0 is_stmt 1               @ D:\Embed\MDK\MDK\ARM\ARMCompilerV621\Bin\..\include\libcxx\variant:484:0
	.fnstart
	.cfi_startproc
@ %bb.0:
	.pad	#8
	sub	sp, #8
	.cfi_def_cfa_offset 8
	str	r0, [sp]
.Ltmp316:
	.loc	5 485 32 prologue_end           @ D:\Embed\MDK\MDK\ARM\ARMCompilerV621\Bin\..\include\libcxx\variant:485:32
	ldr	r0, [sp]
	.loc	5 485 5 epilogue_begin is_stmt 0 @ D:\Embed\MDK\MDK\ARM\ARMCompilerV621\Bin\..\include\libcxx\variant:485:5
	add	sp, #8
	bx	lr
.Ltmp317:
.Lfunc_end94:
	.size	_ZNSt3__216__variant_detail8__access7__union9__get_altB7v180000IRNS0_7__unionILNS0_6_TraitE0ELj0EJNS_4pairIffEEPS7_P10OutputPortIS7_EEEEEEODaOT_NS_16in_place_index_tILj0EEE, .Lfunc_end94-_ZNSt3__216__variant_detail8__access7__union9__get_altB7v180000IRNS0_7__unionILNS0_6_TraitE0ELj0EJNS_4pairIffEEPS7_P10OutputPortIS7_EEEEEEODaOT_NS_16in_place_index_tILj0EEE
	.cfi_endproc
	.cantunwind
	.fnend
                                        @ -- End function
	.section	.text._ZNSt3__227__optional_move_assign_baseINS_4pairIffEELb0EECI2NS_24__optional_destruct_baseIS2_Lb1EEEIJRS2_EEENS_10in_place_tEDpOT_,"axG",%progbits,_ZNSt3__227__optional_move_assign_baseINS_4pairIffEELb0EECI2NS_24__optional_destruct_baseIS2_Lb1EEEIJRS2_EEENS_10in_place_tEDpOT_,comdat
	.hidden	_ZNSt3__227__optional_move_assign_baseINS_4pairIffEELb0EECI2NS_24__optional_destruct_baseIS2_Lb1EEEIJRS2_EEENS_10in_place_tEDpOT_ @ -- Begin function _ZNSt3__227__optional_move_assign_baseINS_4pairIffEELb0EECI2NS_24__optional_destruct_baseIS2_Lb1EEEIJRS2_EEENS_10in_place_tEDpOT_
	.weak	_ZNSt3__227__optional_move_assign_baseINS_4pairIffEELb0EECI2NS_24__optional_destruct_baseIS2_Lb1EEEIJRS2_EEENS_10in_place_tEDpOT_
	.p2align	2
	.type	_ZNSt3__227__optional_move_assign_baseINS_4pairIffEELb0EECI2NS_24__optional_destruct_baseIS2_Lb1EEEIJRS2_EEENS_10in_place_tEDpOT_,%function
	.code	16                              @ @_ZNSt3__227__optional_move_assign_baseINS_4pairIffEELb0EECI2NS_24__optional_destruct_baseIS2_Lb1EEEIJRS2_EEENS_10in_place_tEDpOT_
	.thumb_func
_ZNSt3__227__optional_move_assign_baseINS_4pairIffEELb0EECI2NS_24__optional_destruct_baseIS2_Lb1EEEIJRS2_EEENS_10in_place_tEDpOT_:
.Lfunc_begin95:
	.loc	3 647 0 is_stmt 1               @ D:\Embed\MDK\MDK\ARM\ARMCompilerV621\Bin\..\include\libcxx\optional:647:0
	.fnstart
	.cfi_startproc
@ %bb.0:
	.save	{r7, lr}
	push	{r7, lr}
	.cfi_def_cfa_offset 8
	.cfi_offset lr, -4
	.cfi_offset r7, -8
	.pad	#16
	sub	sp, #16
	.cfi_def_cfa_offset 24
	str	r0, [sp, #8]
	str	r1, [sp, #4]
	ldr	r0, [sp, #8]
.Ltmp318:
	.loc	3 647 45 prologue_end           @ D:\Embed\MDK\MDK\ARM\ARMCompilerV621\Bin\..\include\libcxx\optional:647:45
	str	r0, [sp]                        @ 4-byte Spill
	ldr	r1, [sp, #4]
	bl	_ZNSt3__227__optional_copy_assign_baseINS_4pairIffEELb0EECI2NS_24__optional_destruct_baseIS2_Lb1EEEIJRS2_EEENS_10in_place_tEDpOT_
	ldr	r0, [sp]                        @ 4-byte Reload
