	.text
	.syntax unified
	.eabi_attribute	67, "2.09"	@ Tag_conformance
	.cpu	cortex-m4
	.eabi_attribute	6, 13	@ Tag_CPU_arch
	.eabi_attribute	7, 77	@ Tag_CPU_arch_profile
	.eabi_attribute	8, 0	@ Tag_ARM_ISA_use
	.eabi_attribute	9, 2	@ Tag_THUMB_ISA_use
	.fpu	fpv4-sp-d16
	.eabi_attribute	27, 1	@ Tag_ABI_HardFP_use
	.eabi_attribute	36, 1	@ Tag_FP_HP_extension
	.eabi_attribute	34, 1	@ Tag_CPU_unaligned_access
	.eabi_attribute	17, 1	@ Tag_ABI_PCS_GOT_use
	.eabi_attribute	20, 2	@ Tag_ABI_FP_denormal
	.eabi_attribute	21, 0	@ Tag_ABI_FP_exceptions
	.eabi_attribute	23, 1	@ Tag_ABI_FP_number_model
	.eabi_attribute	24, 1	@ Tag_ABI_align_needed
	.eabi_attribute	25, 1	@ Tag_ABI_align_preserved
	.eabi_attribute	28, 1	@ Tag_ABI_VFP_args
	.eabi_attribute	38, 1	@ Tag_ABI_FP_16bit_format
	.eabi_attribute	18, 2	@ Tag_ABI_PCS_wchar_t
	.eabi_attribute	26, 1	@ Tag_ABI_enum_size
	.eabi_attribute	14, 0	@ Tag_ABI_PCS_R9_use
	.file	"freertos.c"
	.file	1 "D:\\Embed\\MDK\\MDK\\ARM\\ARMCompilerV621\\Bin\\..\\include" "stdint.h"
	.file	2 "D:\\ikingtec\\Robot\\ODrive\\Firmware\\MDK-ARM" "../Board/v3/Src/freertos.c"
	.file	3 "D:\\ikingtec\\Robot\\ODrive\\Firmware\\MDK-ARM" "../ThirdParty/FreeRTOS/Source/include\\task.h"
	.file	4 "D:\\ikingtec\\Robot\\ODrive\\Firmware\\MDK-ARM" "../ThirdParty/FreeRTOS/Source/CMSIS_RTOS\\cmsis_os.h"
	.section	.text.vApplicationIdleHook,"ax",%progbits
	.hidden	vApplicationIdleHook            @ -- Begin function vApplicationIdleHook
	.weak	vApplicationIdleHook
	.p2align	2
	.type	vApplicationIdleHook,%function
	.code	16                              @ @vApplicationIdleHook
	.thumb_func
vApplicationIdleHook:
.Lfunc_begin0:
	.fnstart
	.cfi_sections .debug_frame
	.cfi_startproc
@ %bb.0:
	.loc	2 108 1 prologue_end            @ ../Board/v3/Src/freertos.c:108:1
	bx	lr
.Ltmp0:
.Lfunc_end0:
	.size	vApplicationIdleHook, .Lfunc_end0-vApplicationIdleHook
	.cfi_endproc
	.cantunwind
	.fnend
                                        @ -- End function
	.section	.text.vApplicationStackOverflowHook,"ax",%progbits
	.hidden	vApplicationStackOverflowHook   @ -- Begin function vApplicationStackOverflowHook
	.weak	vApplicationStackOverflowHook
	.p2align	2
	.type	vApplicationStackOverflowHook,%function
	.code	16                              @ @vApplicationStackOverflowHook
	.thumb_func
vApplicationStackOverflowHook:
.Lfunc_begin1:
	.loc	2 113 0                         @ ../Board/v3/Src/freertos.c:113:0
	.fnstart
	.cfi_startproc
@ %bb.0:
	.pad	#8
	sub	sp, #8
	.cfi_def_cfa_offset 8
	str	r0, [sp, #4]
	str	r1, [sp]
.Ltmp1:
	.loc	2 117 1 prologue_end epilogue_begin @ ../Board/v3/Src/freertos.c:117:1
	add	sp, #8
	bx	lr
.Ltmp2:
.Lfunc_end1:
	.size	vApplicationStackOverflowHook, .Lfunc_end1-vApplicationStackOverflowHook
	.cfi_endproc
	.cantunwind
	.fnend
                                        @ -- End function
	.section	.text.MX_FREERTOS_Init,"ax",%progbits
	.hidden	MX_FREERTOS_Init                @ -- Begin function MX_FREERTOS_Init
	.globl	MX_FREERTOS_Init
	.p2align	2
	.type	MX_FREERTOS_Init,%function
	.code	16                              @ @MX_FREERTOS_Init
	.thumb_func
MX_FREERTOS_Init:
.Lfunc_begin2:
	.loc	2 125 0                         @ ../Board/v3/Src/freertos.c:125:0
	.fnstart
	.cfi_startproc
@ %bb.0:
	.save	{r7, lr}
	push	{r7, lr}
	.cfi_def_cfa_offset 8
	.cfi_offset lr, -4
	.cfi_offset r7, -8
	.pad	#24
	sub	sp, #24
	.cfi_def_cfa_offset 32
.Ltmp3:
	.loc	2 143 3 prologue_end            @ ../Board/v3/Src/freertos.c:143:3
	movw	r12, :lower16:.L__const.MX_FREERTOS_Init.os_thread_def_defaultTask
	movt	r12, :upper16:.L__const.MX_FREERTOS_Init.os_thread_def_defaultTask
	ldr.w	r0, [r12]
	ldr.w	r1, [r12, #4]
	ldr.w	r2, [r12, #8]
	ldr.w	r3, [r12, #12]
	ldr.w	r12, [r12, #16]
	str.w	r12, [sp, #20]
	str	r3, [sp, #16]
	str	r2, [sp, #12]
	str	r1, [sp, #8]
	str	r0, [sp, #4]
	add	r0, sp, #4
	movs	r1, #0
	.loc	2 144 23                        @ ../Board/v3/Src/freertos.c:144:23
	bl	osThreadCreate
	.loc	2 144 21 is_stmt 0              @ ../Board/v3/Src/freertos.c:144:21
	movw	r1, :lower16:defaultTaskHandle
	movt	r1, :upper16:defaultTaskHandle
	str	r0, [r1]
	.loc	2 153 1 epilogue_begin is_stmt 1 @ ../Board/v3/Src/freertos.c:153:1
	add	sp, #24
	pop	{r7, pc}
.Ltmp4:
.Lfunc_end2:
	.size	MX_FREERTOS_Init, .Lfunc_end2-MX_FREERTOS_Init
	.cfi_endproc
	.cantunwind
	.fnend
                                        @ -- End function
	.section	.text.StartDefaultTask,"ax",%progbits
	.hidden	StartDefaultTask                @ -- Begin function StartDefaultTask
	.globl	StartDefaultTask
	.p2align	2
	.type	StartDefaultTask,%function
	.code	16                              @ @StartDefaultTask
	.thumb_func
StartDefaultTask:
.Lfunc_begin3:
	.loc	2 163 0                         @ ../Board/v3/Src/freertos.c:163:0
	.fnstart
	.cfi_startproc
@ %bb.0:
	.save	{r7, lr}
	push	{r7, lr}
	.cfi_def_cfa_offset 8
	.cfi_offset lr, -4
	.cfi_offset r7, -8
	.pad	#8
	sub	sp, #8
	.cfi_def_cfa_offset 16
	str	r0, [sp, #4]
.Ltmp5:
	.loc	2 165 3 prologue_end            @ ../Board/v3/Src/freertos.c:165:3
	bl	MX_USB_DEVICE_Init
	.loc	2 170 1 epilogue_begin          @ ../Board/v3/Src/freertos.c:170:1
	add	sp, #8
	pop	{r7, pc}
.Ltmp6:
.Lfunc_end3:
	.size	StartDefaultTask, .Lfunc_end3-StartDefaultTask
	.cfi_endproc
	.cantunwind
	.fnend
                                        @ -- End function
	.hidden	stack_size_default_task         @ @stack_size_default_task
	.type	stack_size_default_task,%object
	.section	.rodata.stack_size_default_task,"a",%progbits
	.globl	stack_size_default_task
	.p2align	2, 0x0
stack_size_default_task:
	.long	2048                            @ 0x800
	.size	stack_size_default_task, 4

	.type	.L.str,%object                  @ @.str
	.section	.rodata.str1.1,"aMS",%progbits,1
.L.str:
	.asciz	"defaultTask"
	.size	.L.str, 12

	.type	.L__const.MX_FREERTOS_Init.os_thread_def_defaultTask,%object @ @__const.MX_FREERTOS_Init.os_thread_def_defaultTask
	.section	.rodata..L__const.MX_FREERTOS_Init.os_thread_def_defaultTask,"a",%progbits
	.p2align	2, 0x0
.L__const.MX_FREERTOS_Init.os_thread_def_defaultTask:
	.long	.L.str
	.long	StartDefaultTask
	.short	0                               @ 0x0
	.zero	2
	.long	0                               @ 0x0
	.long	512                             @ 0x200
	.size	.L__const.MX_FREERTOS_Init.os_thread_def_defaultTask, 20

	.hidden	defaultTaskHandle               @ @defaultTaskHandle
	.type	defaultTaskHandle,%object
	.section	.bss.defaultTaskHandle,"aw",%nobits
	.globl	defaultTaskHandle
	.p2align	2, 0x0
defaultTaskHandle:
	.long	0
	.size	defaultTaskHandle, 4

	.section	".note.GNU-stack","",%progbits
	.eabi_attribute	30, 6	@ Tag_ABI_optimization_goals
	.ARM_attribute	16, 1	@ Tag_AV_eba