	.text
	.syntax unified
	.eabi_attribute	67, "2.09"	@ Tag_conformance
	.cpu	cortex-m4
	.eabi_attribute	6, 13	@ Tag_CPU_arch
	.eabi_attribute	7, 77	@ Tag_CPU_arch_profile
	.eabi_attribute	8, 0	@ Tag_ARM_ISA_use
	.eabi_attribute	9, 2	@ Tag_THUMB_ISA_use
	.fpu	fpv4-sp-d16
	.eabi_attribute	27, 1	@ Tag_ABI_HardFP_use
	.eabi_attribute	36, 1	@ Tag_FP_HP_extension
	.eabi_attribute	34, 1	@ Tag_CPU_unaligned_access
	.eabi_attribute	17, 1	@ Tag_ABI_PCS_GOT_use
	.eabi_attribute	20, 2	@ Tag_ABI_FP_denormal
	.eabi_attribute	21, 0	@ Tag_ABI_FP_exceptions
	.eabi_attribute	23, 1	@ Tag_ABI_FP_number_model
	.eabi_attribute	24, 1	@ Tag_ABI_align_needed
	.eabi_attribute	25, 1	@ Tag_ABI_align_preserved
	.eabi_attribute	28, 1	@ Tag_ABI_VFP_args
	.eabi_attribute	38, 1	@ Tag_ABI_FP_16bit_format
	.eabi_attribute	18, 2	@ Tag_ABI_PCS_wchar_t
	.eabi_attribute	26, 1	@ Tag_ABI_enum_size
	.eabi_attribute	14, 0	@ Tag_ABI_PCS_R9_use
	.file	"gpio.c"
	.file	1 "D:\\ikingtec\\Robot\\ODrive\\Firmware\\MDK-ARM" "../ThirdParty/STM32F4xx_HAL_Driver/Inc\\stm32f4xx_hal_gpio.h"
	.file	2 "D:\\Embed\\MDK\\MDK\\ARM\\ARMCompilerV621\\Bin\\..\\include" "stdint.h"
	.file	3 "D:\\ikingtec\\Robot\\ODrive\\Firmware\\MDK-ARM" "../ThirdParty/CMSIS/Device/ST/STM32F4xx/Include/stm32f405xx.h"
	.section	.text.MX_GPIO_Init,"ax",%progbits
	.hidden	MX_GPIO_Init                    @ -- Begin function MX_GPIO_Init
	.globl	MX_GPIO_Init
	.p2align	2
	.type	MX_GPIO_Init,%function
	.code	16                              @ @MX_GPIO_Init
	.thumb_func
MX_GPIO_Init:
.Lfunc_begin0:
	.file	4 "D:\\ikingtec\\Robot\\ODrive\\Firmware\\MDK-ARM" "../Board/v3/Src/gpio.c"
	.loc	4 77 0                          @ ../Board/v3/Src/gpio.c:77:0
	.fnstart
	.cfi_sections .debug_frame
	.cfi_startproc
@ %bb.0:
	.save	{r7, lr}
	push	{r7, lr}
	.cfi_def_cfa_offset 8
	.cfi_offset lr, -4
	.cfi_offset r7, -8
	.pad	#72
	sub	sp, #72
	.cfi_def_cfa_offset 80
.Ltmp0:
	.loc	4 82 3 prologue_end             @ ../Board/v3/Src/gpio.c:82:3
	b	.LBB0_1
.LBB0_1:
	.loc	4 0 3 is_stmt 0                 @ ../Board/v3/Src/gpio.c:0:3
	movs	r0, #0
.Ltmp1:
	.loc	4 82 3                          @ ../Board/v3/Src/gpio.c:82:3
	str	r0, [sp, #48]
	movw	r0, #14384
	movt	r0, #16386
	ldr	r1, [r0]
	orr	r1, r1, #4
	str	r1, [r0]
	ldr	r0, [r0]
	and	r0, r0, #4
	str	r0, [sp, #48]
	ldr	r0, [sp, #48]
	b	.LBB0_2
.Ltmp2:
.LBB0_2:
	.loc	4 83 3 is_stmt 1                @ ../Board/v3/Src/gpio.c:83:3
	b	.LBB0_3
.LBB0_3:
	.loc	4 0 3 is_stmt 0                 @ ../Board/v3/Src/gpio.c:0:3
	movs	r0, #0
.Ltmp3:
	.loc	4 83 3                          @ ../Board/v3/Src/gpio.c:83:3
	str	r0, [sp, #44]
	movw	r0, #14384
	movt	r0, #16386
	ldr	r1, [r0]
	orr	r1, r1, #128
	str	r1, [r0]
	ldr	r0, [r0]
	and	r0, r0, #128
	str	r0, [sp, #44]
	ldr	r0, [sp, #44]
	b	.LBB0_4
.Ltmp4:
.LBB0_4:
	.loc	4 84 3 is_stmt 1                @ ../Board/v3/Src/gpio.c:84:3
	b	.LBB0_5
.LBB0_5:
	.loc	4 0 3 is_stmt 0                 @ ../Board/v3/Src/gpio.c:0:3
	movs	r0, #0
.Ltmp5:
	.loc	4 84 3                          @ ../Board/v3/Src/gpio.c:84:3
	str	r0, [sp, #40]
	movw	r0, #14384
	movt	r0, #16386
	ldr	r1, [r0]
	orr	r1, r1, #1
	str	r1, [r0]
	ldr	r0, [r0]
	and	r0, r0, #1
	str	r0, [sp, #40]
	ldr	r0, [sp, #40]
	b	.LBB0_6
.Ltmp6:
.LBB0_6:
	.loc	4 85 3 is_stmt 1                @ ../Board/v3/Src/gpio.c:85:3
	b	.LBB0_7
.LBB0_7:
	.loc	4 0 3 is_stmt 0                 @ ../Board/v3/Src/gpio.c:0:3
	movs	r0, #0
.Ltmp7:
	.loc	4 85 3                          @ ../Board/v3/Src/gpio.c:85:3
	str	r0, [sp, #36]
	movw	r0, #14384
	movt	r0, #16386
	ldr	r1, [r0]
	orr	r1, r1, #2
	str	r1, [r0]
	ldr	r0, [r0]
	and	r0, r0, #2
	str	r0, [sp, #36]
	ldr	r0, [sp, #36]
	b	.LBB0_8
.Ltmp8:
.LBB0_8:
	.loc	4 86 3 is_stmt 1                @ ../Board/v3/Src/gpio.c:86:3
	b	.LBB0_9
.LBB0_9:
	.loc	4 0 3 is_stmt 0                 @ ../Board/v3/Src/gpio.c:0:3
	movs	r0, #0
.Ltmp9:
	.loc	4 86 3                          @ ../Board/v3/Src/gpio.c:86:3
	str	r0, [sp, #32]
	movw	r0, #14384
	movt	r0, #16386
	ldr	r1, [r0]
	orr	r1, r1, #8
	str	r1, [r0]
	ldr	r0, [r0]
	and	r0, r0, #8
	str	r0, [sp, #32]
	ldr	r0, [sp, #32]
	b	.LBB0_10
.Ltmp10:
.LBB0_10:
	.loc	4 0 3                           @ ../Board/v3/Src/gpio.c:0:3
	movw	r0, #2048
	movt	r0, #16386
	str	r0, [sp, #8]                    @ 4-byte Spill
	mov.w	r1, #24576
	str	r1, [sp, #4]                    @ 4-byte Spill
	movs	r2, #1
	.loc	4 89 3 is_stmt 1                @ ../Board/v3/Src/gpio.c:89:3
	str	r2, [sp, #24]                   @ 4-byte Spill
	bl	HAL_GPIO_WritePin
	movw	r0, #1024
	movt	r0, #16386
	str	r0, [sp, #16]                   @ 4-byte Spill
	mov.w	r1, #4096
	str	r1, [sp, #12]                   @ 4-byte Spill
	movs	r2, #0
	.loc	4 92 3                          @ ../Board/v3/Src/gpio.c:92:3
	str	r2, [sp, #20]                   @ 4-byte Spill
	bl	HAL_GPIO_WritePin
	ldr	r3, [sp, #4]                    @ 4-byte Reload
	ldr	r0, [sp, #8]                    @ 4-byte Reload
	ldr	r1, [sp, #20]                   @ 4-byte Reload
	ldr	r2, [sp, #24]                   @ 4-byte Reload
	.loc	4 95 23                         @ ../Board/v3/Src/gpio.c:95:23
	str	r3, [sp, #52]
	.loc	4 96 24                         @ ../Board/v3/Src/gpio.c:96:24
	str	r2, [sp, #56]
	.loc	4 97 24                         @ ../Board/v3/Src/gpio.c:97:24
	str	r1, [sp, #60]
	.loc	4 98 25                         @ ../Board/v3/Src/gpio.c:98:25
	str	r1, [sp, #64]
	add	r1, sp, #52
	.loc	4 99 3                          @ ../Board/v3/Src/gpio.c:99:3
	str	r1, [sp, #28]                   @ 4-byte Spill
	bl	HAL_GPIO_Init
	ldr	r0, [sp, #8]                    @ 4-byte Reload
	ldr	r2, [sp, #20]                   @ 4-byte Reload
	ldr	r1, [sp, #28]                   @ 4-byte Reload
	movw	r3, #33296
	.loc	4 102 23                        @ ../Board/v3/Src/gpio.c:102:23
	str	r3, [sp, #52]
	.loc	4 103 24                        @ ../Board/v3/Src/gpio.c:103:24
	str	r2, [sp, #56]
	.loc	4 104 24                        @ ../Board/v3/Src/gpio.c:104:24
	str	r2, [sp, #60]
	.loc	4 105 3                         @ ../Board/v3/Src/gpio.c:105:3
	bl	HAL_GPIO_Init
	ldr.w	r12, [sp, #12]                  @ 4-byte Reload
	ldr	r0, [sp, #16]                   @ 4-byte Reload
	ldr	r2, [sp, #20]                   @ 4-byte Reload
	ldr	r3, [sp, #24]                   @ 4-byte Reload
	ldr	r1, [sp, #28]                   @ 4-byte Reload
	.loc	4 108 23                        @ ../Board/v3/Src/gpio.c:108:23
	str.w	r12, [sp, #52]
	.loc	4 109 24                        @ ../Board/v3/Src/gpio.c:109:24
	str	r3, [sp, #56]
	.loc	4 110 24                        @ ../Board/v3/Src/gpio.c:110:24
	str	r2, [sp, #60]
	.loc	4 111 25                        @ ../Board/v3/Src/gpio.c:111:25
	str	r2, [sp, #64]
	.loc	4 112 3                         @ ../Board/v3/Src/gpio.c:112:3
	bl	HAL_GPIO_Init
	ldr	r2, [sp, #20]                   @ 4-byte Reload
	ldr	r0, [sp, #24]                   @ 4-byte Reload
	ldr	r1, [sp, #28]                   @ 4-byte Reload
	movs	r3, #4
	.loc	4 115 23                        @ ../Board/v3/Src/gpio.c:115:23
	str	r3, [sp, #52]
	.loc	4 116 24                        @ ../Board/v3/Src/gpio.c:116:24
	str	r2, [sp, #56]
	.loc	4 117 24                        @ ../Board/v3/Src/gpio.c:117:24
	str	r0, [sp, #60]
	movw	r0, #3072
	movt	r0, #16386
	.loc	4 118 3                         @ ../Board/v3/Src/gpio.c:118:3
	bl	HAL_GPIO_Init
	.loc	4 120 1 epilogue_begin          @ ../Board/v3/Src/gpio.c:120:1
	add	sp, #72
	pop	{r7, pc}
.Ltmp11:
.Lfunc_end0:
	.size	MX_GPIO_Init, .Lfunc_end0-MX_GPIO_Init
	.cfi_endproc
	.cantunwind
	.fnend
                                        @ -- End function
	.section	".note.GNU-stack","",%progbits
	.eabi_attribute	30, 6	@ Tag_ABI_optimization_goals
	.ARM_attribute	16, 1	@ Tag_AV_eba