	.text
	.syntax unified
	.eabi_attribute	67, "2.09"	@ Tag_conformance
	.cpu	cortex-m4
	.eabi_attribute	6, 13	@ Tag_CPU_arch
	.eabi_attribute	7, 77	@ Tag_CPU_arch_profile
	.eabi_attribute	8, 0	@ Tag_ARM_ISA_use
	.eabi_attribute	9, 2	@ Tag_THUMB_ISA_use
	.fpu	fpv4-sp-d16
	.eabi_attribute	27, 1	@ Tag_ABI_HardFP_use
	.eabi_attribute	36, 1	@ Tag_FP_HP_extension
	.eabi_attribute	34, 1	@ Tag_CPU_unaligned_access
	.eabi_attribute	17, 1	@ Tag_ABI_PCS_GOT_use
	.eabi_attribute	20, 2	@ Tag_ABI_FP_denormal
	.eabi_attribute	21, 0	@ Tag_ABI_FP_exceptions
	.eabi_attribute	23, 1	@ Tag_ABI_FP_number_model
	.eabi_attribute	24, 1	@ Tag_ABI_align_needed
	.eabi_attribute	25, 1	@ Tag_ABI_align_preserved
	.eabi_attribute	28, 1	@ Tag_ABI_VFP_args
	.eabi_attribute	38, 1	@ Tag_ABI_FP_16bit_format
	.eabi_attribute	18, 2	@ Tag_ABI_PCS_wchar_t
	.eabi_attribute	26, 1	@ Tag_ABI_enum_size
	.eabi_attribute	14, 0	@ Tag_ABI_PCS_R9_use
	.file	"i2c.c"
	.file	1 "D:\\ikingtec\\Robot\\ODrive\\Firmware\\MDK-ARM" "../Board/v3/Src/i2c.c"
	.file	2 "D:\\Embed\\MDK\\MDK\\ARM\\ARMCompilerV621\\Bin\\..\\include" "stdint.h"
	.file	3 "D:\\ikingtec\\Robot\\ODrive\\Firmware\\MDK-ARM" "../ThirdParty/CMSIS/Device/ST/STM32F4xx/Include/stm32f405xx.h"
	.file	4 "D:\\ikingtec\\Robot\\ODrive\\Firmware\\MDK-ARM" "../ThirdParty/STM32F4xx_HAL_Driver/Inc\\stm32f4xx_hal_i2c.h"
	.file	5 "D:\\ikingtec\\Robot\\ODrive\\Firmware\\MDK-ARM" "../ThirdParty/STM32F4xx_HAL_Driver/Inc\\stm32f4xx_hal_dma.h"
	.file	6 "D:\\ikingtec\\Robot\\ODrive\\Firmware\\MDK-ARM" "../ThirdParty/STM32F4xx_HAL_Driver/Inc/stm32f4xx_hal_def.h"
	.section	.text.MX_I2C1_Init,"ax",%progbits
	.hidden	MX_I2C1_Init                    @ -- Begin function MX_I2C1_Init
	.globl	MX_I2C1_Init
	.p2align	2
	.type	MX_I2C1_Init,%function
	.code	16                              @ @MX_I2C1_Init
	.thumb_func
MX_I2C1_Init:
.Lfunc_begin0:
	.loc	1 66 0                          @ ../Board/v3/Src/i2c.c:66:0
	.fnstart
	.cfi_sections .debug_frame
	.cfi_startproc
@ %bb.0:
	.save	{r7, lr}
	push	{r7, lr}
	.cfi_def_cfa_offset 8
	.cfi_offset lr, -4
	.cfi_offset r7, -8
	.pad	#8
	sub	sp, #8
	.cfi_def_cfa_offset 16
                                        @ kill: def $r1 killed $r0
	strb.w	r0, [sp, #7]
.Ltmp0:
	.loc	1 68 18 prologue_end            @ ../Board/v3/Src/i2c.c:68:18
	movw	r0, :lower16:hi2c1
	movt	r0, :upper16:hi2c1
	str	r0, [sp]                        @ 4-byte Spill
	movw	r1, #21504
	movt	r1, #16384
	str	r1, [r0]
	movw	r1, #34464
	movt	r1, #1
	.loc	1 69 25                         @ ../Board/v3/Src/i2c.c:69:25
	str	r1, [r0, #4]
	movs	r1, #0
	.loc	1 70 24                         @ ../Board/v3/Src/i2c.c:70:24
	str	r1, [r0, #8]
	.loc	1 71 28                         @ ../Board/v3/Src/i2c.c:71:28
	ldrb.w	r2, [sp, #7]
	.loc	1 71 33 is_stmt 0               @ ../Board/v3/Src/i2c.c:71:33
	lsls	r2, r2, #1
	.loc	1 71 26                         @ ../Board/v3/Src/i2c.c:71:26
	str	r2, [r0, #12]
	mov.w	r2, #16384
	.loc	1 72 29 is_stmt 1               @ ../Board/v3/Src/i2c.c:72:29
	str	r2, [r0, #16]
	.loc	1 73 30                         @ ../Board/v3/Src/i2c.c:73:30
	str	r1, [r0, #20]
	.loc	1 74 26                         @ ../Board/v3/Src/i2c.c:74:26
	str	r1, [r0, #24]
	.loc	1 75 30                         @ ../Board/v3/Src/i2c.c:75:30
	str	r1, [r0, #28]
	.loc	1 76 28                         @ ../Board/v3/Src/i2c.c:76:28
	str	r1, [r0, #32]
.Ltmp1:
	.loc	1 77 7                          @ ../Board/v3/Src/i2c.c:77:7
	bl	HAL_I2C_Init
.Ltmp2:
	.loc	1 77 7 is_stmt 0                @ ../Board/v3/Src/i2c.c:77:7
	cbz	r0, .LBB0_2
	b	.LBB0_1
.LBB0_1:
.Ltmp3:
	.loc	1 79 5 is_stmt 1                @ ../Board/v3/Src/i2c.c:79:5
	movw	r0, :lower16:.L.str
	movt	r0, :upper16:.L.str
	movs	r1, #79
	bl	_Error_Handler
	.loc	1 80 3                          @ ../Board/v3/Src/i2c.c:80:3
	b	.LBB0_2
.Ltmp4:
.LBB0_2:
	.loc	1 82 1 epilogue_begin           @ ../Board/v3/Src/i2c.c:82:1
	add	sp, #8
	pop	{r7, pc}
.Ltmp5:
.Lfunc_end0:
	.size	MX_I2C1_Init, .Lfunc_end0-MX_I2C1_Init
	.cfi_endproc
	.cantunwind
	.fnend
                                        @ -- End function
	.section	.text.HAL_I2C_MspInit,"ax",%progbits
	.hidden	HAL_I2C_MspInit                 @ -- Begin function HAL_I2C_MspInit
	.globl	HAL_I2C_MspInit
	.p2align	2
	.type	HAL_I2C_MspInit,%function
	.code	16                              @ @HAL_I2C_MspInit
	.thumb_func
HAL_I2C_MspInit:
.Lfunc_begin1:
	.loc	1 85 0                          @ ../Board/v3/Src/i2c.c:85:0
	.fnstart
	.cfi_startproc
@ %bb.0:
	.save	{r7, lr}
	push	{r7, lr}
	.cfi_def_cfa_offset 8
	.cfi_offset lr, -4
	.cfi_offset r7, -8
	.pad	#32
	sub	sp, #32
	.cfi_def_cfa_offset 40
	str	r0, [sp, #28]
.Ltmp6:
	.loc	1 87 6 prologue_end             @ ../Board/v3/Src/i2c.c:87:6
	ldr	r0, [sp, #28]
	.loc	1 87 17 is_stmt 0               @ ../Board/v3/Src/i2c.c:87:17
	ldr	r0, [r0]
	movw	r1, #21504
	movt	r1, #16384
.Ltmp7:
	.loc	1 87 6                          @ ../Board/v3/Src/i2c.c:87:6
	cmp	r0, r1
	bne.w	.LBB1_12
	b	.LBB1_1
.LBB1_1:
.Ltmp8:
	.loc	1 94 5 is_stmt 1                @ ../Board/v3/Src/i2c.c:94:5
	b	.LBB1_2
.LBB1_2:
	.loc	1 0 5 is_stmt 0                 @ ../Board/v3/Src/i2c.c:0:5
	movs	r0, #0
.Ltmp9:
	.loc	1 94 5                          @ ../Board/v3/Src/i2c.c:94:5
	str	r0, [sp, #24]
	movw	r0, #14400
	movt	r0, #16386
	ldr	r1, [r0]
	orr	r1, r1, #2097152
	str	r1, [r0]
	ldr	r0, [r0]
	and	r0, r0, #2097152
	str	r0, [sp, #24]
	ldr	r0, [sp, #24]
	b	.LBB1_3
.Ltmp10:
.LBB1_3:
	.loc	1 98 27 is_stmt 1               @ ../Board/v3/Src/i2c.c:98:27
	movw	r0, :lower16:hdma_i2c1_rx
	movt	r0, :upper16:hdma_i2c1_rx
	str	r0, [sp, #20]                   @ 4-byte Spill
	movw	r1, #24592
	movt	r1, #16386
	str	r1, [r0]
	mov.w	r1, #33554432
	.loc	1 99 31                         @ ../Board/v3/Src/i2c.c:99:31
	str	r1, [r0, #4]
	movs	r1, #0
	.loc	1 100 33                        @ ../Board/v3/Src/i2c.c:100:33
	str	r1, [r0, #8]
	.loc	1 101 33                        @ ../Board/v3/Src/i2c.c:101:33
	str	r1, [r0, #12]
	mov.w	r2, #1024
	.loc	1 102 30                        @ ../Board/v3/Src/i2c.c:102:30
	str	r2, [r0, #16]
	.loc	1 103 43                        @ ../Board/v3/Src/i2c.c:103:43
	str	r1, [r0, #20]
	.loc	1 104 40                        @ ../Board/v3/Src/i2c.c:104:40
	str	r1, [r0, #24]
	mov.w	r2, #256
	.loc	1 105 28                        @ ../Board/v3/Src/i2c.c:105:28
	str	r2, [r0, #28]
	.loc	1 106 32                        @ ../Board/v3/Src/i2c.c:106:32
	str	r1, [r0, #32]
	.loc	1 107 32                        @ ../Board/v3/Src/i2c.c:107:32
	str	r1, [r0, #36]
.Ltmp11:
	.loc	1 108 9                         @ ../Board/v3/Src/i2c.c:108:9
	bl	HAL_DMA_Init
.Ltmp12:
	.loc	1 108 9 is_stmt 0               @ ../Board/v3/Src/i2c.c:108:9
	cbz	r0, .LBB1_5
	b	.LBB1_4
.LBB1_4:
.Ltmp13:
	.loc	1 110 7 is_stmt 1               @ ../Board/v3/Src/i2c.c:110:7
	movw	r0, :lower16:.L.str
	movt	r0, :upper16:.L.str
	movs	r1, #110
	bl	_Error_Handler
	.loc	1 111 5                         @ ../Board/v3/Src/i2c.c:111:5
	b	.LBB1_5
.Ltmp14:
.LBB1_5:
	.loc	1 113 5                         @ ../Board/v3/Src/i2c.c:113:5
	b	.LBB1_6
.LBB1_6:
.Ltmp15:
	.loc	1 113 5 is_stmt 0               @ ../Board/v3/Src/i2c.c:113:5
	ldr	r0, [sp, #28]
	movw	r1, :lower16:hdma_i2c1_rx
	movt	r1, :upper16:hdma_i2c1_rx
	str	r1, [r0, #56]
	ldr	r0, [sp, #28]
	str	r0, [r1, #56]
	b	.LBB1_7
.Ltmp16:
.LBB1_7:
	.loc	1 116 27 is_stmt 1              @ ../Board/v3/Src/i2c.c:116:27
	movw	r0, :lower16:hdma_i2c1_tx
	movt	r0, :upper16:hdma_i2c1_tx
	str	r0, [sp, #16]                   @ 4-byte Spill
	movw	r1, #24736
	movt	r1, #16386
	str	r1, [r0]
	mov.w	r1, #33554432
	.loc	1 117 31                        @ ../Board/v3/Src/i2c.c:117:31
	str	r1, [r0, #4]
	movs	r1, #64
	.loc	1 118 33                        @ ../Board/v3/Src/i2c.c:118:33
	str	r1, [r0, #8]
	movs	r1, #0
	.loc	1 119 33                        @ ../Board/v3/Src/i2c.c:119:33
	str	r1, [r0, #12]
	mov.w	r2, #1024
	.loc	1 120 30                        @ ../Board/v3/Src/i2c.c:120:30
	str	r2, [r0, #16]
	.loc	1 121 43                        @ ../Board/v3/Src/i2c.c:121:43
	str	r1, [r0, #20]
	.loc	1 122 40                        @ ../Board/v3/Src/i2c.c:122:40
	str	r1, [r0, #24]
	.loc	1 123 28                        @ ../Board/v3/Src/i2c.c:123:28
	str	r1, [r0, #28]
	.loc	1 124 32                        @ ../Board/v3/Src/i2c.c:124:32
	str	r1, [r0, #32]
	.loc	1 125 32                        @ ../Board/v3/Src/i2c.c:125:32
	str	r1, [r0, #36]
.Ltmp17:
	.loc	1 126 9                         @ ../Board/v3/Src/i2c.c:126:9
	bl	HAL_DMA_Init
.Ltmp18:
	.loc	1 126 9 is_stmt 0               @ ../Board/v3/Src/i2c.c:126:9
	cbz	r0, .LBB1_9
	b	.LBB1_8
.LBB1_8:
.Ltmp19:
	.loc	1 128 7 is_stmt 1               @ ../Board/v3/Src/i2c.c:128:7
	movw	r0, :lower16:.L.str
	movt	r0, :upper16:.L.str
	movs	r1, #128
	bl	_Error_Handler
	.loc	1 129 5                         @ ../Board/v3/Src/i2c.c:129:5
	b	.LBB1_9
.Ltmp20:
.LBB1_9:
	.loc	1 131 5                         @ ../Board/v3/Src/i2c.c:131:5
	b	.LBB1_10
.LBB1_10:
.Ltmp21:
	.loc	1 131 5 is_stmt 0               @ ../Board/v3/Src/i2c.c:131:5
	ldr	r0, [sp, #28]
	movw	r1, :lower16:hdma_i2c1_tx
	movt	r1, :upper16:hdma_i2c1_tx
	str	r1, [r0, #52]
	ldr	r0, [sp, #28]
	str	r0, [r1, #56]
	b	.LBB1_11
.Ltmp22:
.LBB1_11:
	.loc	1 0 5                           @ ../Board/v3/Src/i2c.c:0:5
	movs	r0, #31
	str	r0, [sp]                        @ 4-byte Spill
	movs	r1, #9
	str	r1, [sp, #4]                    @ 4-byte Spill
	movs	r2, #0
	.loc	1 134 5 is_stmt 1               @ ../Board/v3/Src/i2c.c:134:5
	str	r2, [sp, #8]                    @ 4-byte Spill
	bl	HAL_NVIC_SetPriority
	ldr	r0, [sp]                        @ 4-byte Reload
	.loc	1 135 5                         @ ../Board/v3/Src/i2c.c:135:5
	bl	HAL_NVIC_EnableIRQ
	ldr	r1, [sp, #4]                    @ 4-byte Reload
	ldr	r2, [sp, #8]                    @ 4-byte Reload
	movs	r0, #32
	.loc	1 136 5                         @ ../Board/v3/Src/i2c.c:136:5
	str	r0, [sp, #12]                   @ 4-byte Spill
	bl	HAL_NVIC_SetPriority
	ldr	r0, [sp, #12]                   @ 4-byte Reload
	.loc	1 137 5                         @ ../Board/v3/Src/i2c.c:137:5
	bl	HAL_NVIC_EnableIRQ
	.loc	1 141 3                         @ ../Board/v3/Src/i2c.c:141:3
	b	.LBB1_12
.Ltmp23:
.LBB1_12:
	.loc	1 142 1 epilogue_begin          @ ../Board/v3/Src/i2c.c:142:1
	add	sp, #32
	pop	{r7, pc}
.Ltmp24:
.Lfunc_end1:
	.size	HAL_I2C_MspInit, .Lfunc_end1-HAL_I2C_MspInit
	.cfi_endproc
	.cantunwind
	.fnend
                                        @ -- End function
	.section	.text.HAL_I2C_MspDeInit,"ax",%progbits
	.hidden	HAL_I2C_MspDeInit               @ -- Begin function HAL_I2C_MspDeInit
	.globl	HAL_I2C_MspDeInit
	.p2align	2
	.type	HAL_I2C_MspDeInit,%function
	.code	16                              @ @HAL_I2C_MspDeInit
	.thumb_func
HAL_I2C_MspDeInit:
.Lfunc_begin2:
	.loc	1 145 0                         @ ../Board/v3/Src/i2c.c:145:0
	.fnstart
	.cfi_startproc
@ %bb.0:
	.save	{r7, lr}
	push	{r7, lr}
	.cfi_def_cfa_offset 8
	.cfi_offset lr, -4
	.cfi_offset r7, -8
	.pad	#8
	sub	sp, #8
	.cfi_def_cfa_offset 16
	str	r0, [sp, #4]
.Ltmp25:
	.loc	1 147 6 prologue_end            @ ../Board/v3/Src/i2c.c:147:6
	ldr	r0, [sp, #4]
	.loc	1 147 17 is_stmt 0              @ ../Board/v3/Src/i2c.c:147:17
	ldr	r0, [r0]
	movw	r1, #21504
	movt	r1, #16384
.Ltmp26:
	.loc	1 147 6                         @ ../Board/v3/Src/i2c.c:147:6
	cmp	r0, r1
	bne	.LBB2_2
	b	.LBB2_1
.LBB2_1:
	.loc	1 0 6                           @ ../Board/v3/Src/i2c.c:0:6
	movw	r1, #14400
	movt	r1, #16386
.Ltmp27:
	.loc	1 153 5 is_stmt 1               @ ../Board/v3/Src/i2c.c:153:5
	ldr	r0, [r1]
	bic	r0, r0, #2097152
	str	r0, [r1]
	movw	r0, #1024
	movt	r0, #16386
	mov.w	r1, #768
	.loc	1 159 5                         @ ../Board/v3/Src/i2c.c:159:5
	bl	HAL_GPIO_DeInit
	.loc	1 162 20                        @ ../Board/v3/Src/i2c.c:162:20
	ldr	r0, [sp, #4]
	.loc	1 162 31 is_stmt 0              @ ../Board/v3/Src/i2c.c:162:31
	ldr	r0, [r0, #56]
	.loc	1 162 5                         @ ../Board/v3/Src/i2c.c:162:5
	bl	HAL_DMA_DeInit
	.loc	1 163 20 is_stmt 1              @ ../Board/v3/Src/i2c.c:163:20
	ldr	r0, [sp, #4]
	.loc	1 163 31 is_stmt 0              @ ../Board/v3/Src/i2c.c:163:31
	ldr	r0, [r0, #52]
	.loc	1 163 5                         @ ../Board/v3/Src/i2c.c:163:5
	bl	HAL_DMA_DeInit
	movs	r0, #31
	.loc	1 166 5 is_stmt 1               @ ../Board/v3/Src/i2c.c:166:5
	bl	HAL_NVIC_DisableIRQ
	movs	r0, #32
	.loc	1 167 5                         @ ../Board/v3/Src/i2c.c:167:5
	bl	HAL_NVIC_DisableIRQ
	.loc	1 171 3                         @ ../Board/v3/Src/i2c.c:171:3
	b	.LBB2_2
.Ltmp28:
.LBB2_2:
	.loc	1 172 1 epilogue_begin          @ ../Board/v3/Src/i2c.c:172:1
	add	sp, #8
	pop	{r7, pc}
.Ltmp29:
.Lfunc_end2:
	.size	HAL_I2C_MspDeInit, .Lfunc_end2-HAL_I2C_MspDeInit
	.cfi_endproc
	.cantunwind
	.fnend
                                        @ -- End function
	.hidden	hi2c1                           @ @hi2c1
	.type	hi2c1,%object
	.section	.bss.hi2c1,"aw",%nobits
	.globl	hi2c1
	.p2align	2, 0x0
hi2c1:
	.zero	84
	.size	hi2c1, 84

	.type	.L.str,%object                  @ @.str
	.section	.rodata.str1.1,"aMS",%progbits,1
.L.str:
	.asciz	"../Board/v3/Src/i2c.c"
	.size	.L.str, 22

	.hidden	hdma_i2c1_rx                    @ @hdma_i2c1_rx
	.type	hdma_i2c1_rx,%object
	.section	.bss.hdma_i2c1_rx,"aw",%nobits
	.globl	hdma_i2c1_rx
	.p2align	2, 0x0
hdma_i2c1_rx:
	.zero	96
	.size	hdma_i2c1_rx, 96

	.hidden	hdma_i2c1_tx                    @ @hdma_i2c1_tx
	.type	hdma_i2c1_tx,%object
	.section	.bss.hdma_i2c1_tx,"aw",%nobits
	.globl	hdma_i2c1_tx
	.p2align	2, 0x0
hdma_i2c1_tx:
	.zero	96
	.size	hdma_i2c1_tx, 96

	.section	".note.GNU-stack","",%progbits
	.eabi_attribute	30, 6	@ Tag_ABI_optimization_goals
	.ARM_attribute	16, 1	@ Tag_AV_eba