	.text
	.syntax unified
	.eabi_attribute	67, "2.09"	@ Tag_conformance
	.cpu	cortex-m4
	.eabi_attribute	6, 13	@ Tag_CPU_arch
	.eabi_attribute	7, 77	@ Tag_CPU_arch_profile
	.eabi_attribute	8, 0	@ Tag_ARM_ISA_use
	.eabi_attribute	9, 2	@ Tag_THUMB_ISA_use
	.fpu	fpv4-sp-d16
	.eabi_attribute	27, 1	@ Tag_ABI_HardFP_use
	.eabi_attribute	36, 1	@ Tag_FP_HP_extension
	.eabi_attribute	34, 1	@ Tag_CPU_unaligned_access
	.eabi_attribute	17, 1	@ Tag_ABI_PCS_GOT_use
	.eabi_attribute	20, 2	@ Tag_ABI_FP_denormal
	.eabi_attribute	21, 0	@ Tag_ABI_FP_exceptions
	.eabi_attribute	23, 1	@ Tag_ABI_FP_number_model
	.eabi_attribute	24, 1	@ Tag_ABI_align_needed
	.eabi_attribute	25, 1	@ Tag_ABI_align_preserved
	.eabi_attribute	28, 1	@ Tag_ABI_VFP_args
	.eabi_attribute	38, 1	@ Tag_ABI_FP_16bit_format
	.eabi_attribute	18, 2	@ Tag_ABI_PCS_wchar_t
	.eabi_attribute	26, 1	@ Tag_ABI_enum_size
	.eabi_attribute	14, 0	@ Tag_ABI_PCS_R9_use
	.file	"interface_usb.cpp"
	.file	1 "D:\\ikingtec\\Robot\\ODrive\\Firmware\\MDK-ARM" "../ThirdParty/FreeRTOS/Source/include\\task.h"
	.file	2 "D:\\ikingtec\\Robot\\ODrive\\Firmware\\MDK-ARM" "../ThirdParty/FreeRTOS/Source/CMSIS_RTOS\\cmsis_os.h"
	.file	3 "D:\\ikingtec\\Robot\\ODrive\\Firmware\\MDK-ARM" "../communication/interface_usb.cpp"
	.file	4 "D:\\Embed\\MDK\\MDK\\ARM\\ARMCompilerV621\\Bin\\..\\include" "stdint.h"
	.file	5 "D:\\ikingtec\\Robot\\ODrive\\Firmware\\MDK-ARM" "../communication/interface_usb.h"
	.file	6 "D:\\ikingtec\\Robot\\ODrive\\Firmware\\MDK-ARM" "../fibre-cpp/include\\fibre/async_stream.hpp"
	.file	7 "D:\\ikingtec\\Robot\\ODrive\\Firmware\\MDK-ARM" "../fibre-cpp/include\\fibre/bufptr.hpp"
	.file	8 "D:\\Embed\\MDK\\MDK\\ARM\\ARMCompilerV621\\Bin\\..\\include" "time.h"
	.file	9 "D:\\ikingtec\\Robot\\ODrive\\Firmware\\MDK-ARM" "../fibre-cpp/include\\fibre/callback.hpp"
	.file	10 "D:\\Embed\\MDK\\MDK\\ARM\\ARMCompilerV621\\Bin\\..\\include\\libcxx" "stddef.h"
	.file	11 "D:\\ikingtec\\Robot\\ODrive\\Firmware\\MDK-ARM" "../fibre-cpp/include\\fibre/../../legacy_protocol.hpp"
	.file	12 "D:\\ikingtec\\Robot\\ODrive\\Firmware\\MDK-ARM" "../fibre-cpp/include\\fibre/../../stream_utils.hpp"
	.file	13 "D:\\Embed\\MDK\\MDK\\ARM\\ARMCompilerV621\\Bin\\..\\include\\libcxx" "tuple"
	.file	14 "D:\\ikingtec\\Robot\\ODrive\\Firmware\\MDK-ARM" "../communication/ascii_protocol.hpp"
	.file	15 "D:\\ikingtec\\Robot\\ODrive\\Firmware\\MDK-ARM" "../ThirdParty/STM32_USB_Device_Library/Core/Inc/usbd_def.h"
	.file	16 "D:\\ikingtec\\Robot\\ODrive\\Firmware\\MDK-ARM" "../../Firmware\\autogen/interfaces.hpp"
	.section	.text._ZN5fibre16Stm32UsbTxStream11start_writeENS_16generic_bufptr_tIKhEEPjNS_8CallbackIvJNS_11WriteResultEEEE,"ax",%progbits
	.hidden	_ZN5fibre16Stm32UsbTxStream11start_writeENS_16generic_bufptr_tIKhEEPjNS_8CallbackIvJNS_11WriteResultEEEE @ -- Begin function _ZN5fibre16Stm32UsbTxStream11start_writeENS_16generic_bufptr_tIKhEEPjNS_8CallbackIvJNS_11WriteResultEEEE
	.globl	_ZN5fibre16Stm32UsbTxStream11start_writeENS_16generic_bufptr_tIKhEEPjNS_8CallbackIvJNS_11WriteResultEEEE
	.p2align	2
	.type	_ZN5fibre16Stm32UsbTxStream11start_writeENS_16generic_bufptr_tIKhEEPjNS_8CallbackIvJNS_11WriteResultEEEE,%function
	.code	16                              @ @_ZN5fibre16Stm32UsbTxStream11start_writeENS_16generic_bufptr_tIKhEEPjNS_8CallbackIvJNS_11WriteResultEEEE
	.thumb_func
_ZN5fibre16Stm32UsbTxStream11start_writeENS_16generic_bufptr_tIKhEEPjNS_8CallbackIvJNS_11WriteResultEEEE:
.Lfunc_begin0:
	.loc	3 55 0                          @ ../communication/interface_usb.cpp:55:0
	.fnstart
	.cfi_sections .debug_frame
	.cfi_startproc
@ %bb.0:
	.save	{r7, lr}
	push	{r7, lr}
	.cfi_def_cfa_offset 8
	.cfi_offset lr, -4
	.cfi_offset r7, -8
	.pad	#72
	sub	sp, #72
	.cfi_def_cfa_offset 80
                                        @ kill: def $r12 killed $r2
                                        @ kill: def $r12 killed $r1
	ldr.w	r12, [sp, #80]
	str.w	r12, [sp, #16]                  @ 4-byte Spill
	str	r2, [sp, #68]
	str	r1, [sp, #64]
	str	r0, [sp, #60]
	str	r3, [sp, #56]
	ldr	r0, [sp, #60]
.Ltmp0:
	.loc	3 56 9 prologue_end             @ ../communication/interface_usb.cpp:56:9
	str	r0, [sp, #20]                   @ 4-byte Spill
	ldr	r0, [sp, #56]
.Ltmp1:
	.loc	3 56 9 is_stmt 0                @ ../communication/interface_usb.cpp:56:9
	cbz	r0, .LBB0_2
	b	.LBB0_1
.LBB0_1:
.Ltmp2:
	.loc	3 57 10 is_stmt 1               @ ../communication/interface_usb.cpp:57:10
	ldr	r0, [sp, #20]                   @ 4-byte Reload
	ldr	r1, [sp, #56]
	.loc	3 57 17 is_stmt 0               @ ../communication/interface_usb.cpp:57:17
	str	r0, [r1]
	.loc	3 58 5 is_stmt 1                @ ../communication/interface_usb.cpp:58:5
	b	.LBB0_2
.Ltmp3:
.LBB0_2:
	.loc	3 60 10                         @ ../communication/interface_usb.cpp:60:10
	ldr	r0, [sp, #20]                   @ 4-byte Reload
	ldrb	r0, [r0, #5]
.Ltmp4:
	.loc	3 60 9 is_stmt 0                @ ../communication/interface_usb.cpp:60:9
	lsls	r0, r0, #31
	cbnz	r0, .LBB0_4
	b	.LBB0_3
.LBB0_3:
	.loc	3 0 9                           @ ../communication/interface_usb.cpp:0:9
	movs	r0, #2
.Ltmp5:
	.loc	3 61 26 is_stmt 1               @ ../communication/interface_usb.cpp:61:26
	strb.w	r0, [sp, #48]
	add	r0, sp, #64
	.loc	3 61 49 is_stmt 0               @ ../communication/interface_usb.cpp:61:49
	bl	_ZN5fibre16generic_bufptr_tIKhE5beginEv
	mov	r1, r0
	ldr	r0, [sp, #16]                   @ 4-byte Reload
	ldr	r1, [r1]
	.loc	3 61 26                         @ ../communication/interface_usb.cpp:61:26
	str	r1, [sp, #52]
	.loc	3 61 19                         @ ../communication/interface_usb.cpp:61:19
	ldr	r1, [sp, #48]
	ldr	r2, [sp, #52]
	bl	_ZNK5fibre8CallbackIvJNS_11WriteResultEEE6invokeES1_
	.loc	3 62 9 is_stmt 1                @ ../communication/interface_usb.cpp:62:9
	b	.LBB0_11
.Ltmp6:
.LBB0_4:
	.loc	3 0 9 is_stmt 0                 @ ../communication/interface_usb.cpp:0:9
	add	r0, sp, #64
.Ltmp7:
	.loc	3 71 16 is_stmt 1               @ ../communication/interface_usb.cpp:71:16
	bl	_ZNK5fibre16generic_bufptr_tIKhE4sizeEv
.Ltmp8:
	.loc	3 71 9 is_stmt 0                @ ../communication/interface_usb.cpp:71:9
	cmp	r0, #64
	blo	.LBB0_6
	b	.LBB0_5
.LBB0_5:
	.loc	3 0 9                           @ ../communication/interface_usb.cpp:0:9
	movs	r0, #3
.Ltmp9:
	.loc	3 72 26 is_stmt 1               @ ../communication/interface_usb.cpp:72:26
	strb.w	r0, [sp, #40]
	add	r0, sp, #64
	.loc	3 72 48 is_stmt 0               @ ../communication/interface_usb.cpp:72:48
	bl	_ZN5fibre16generic_bufptr_tIKhE5beginEv
	mov	r1, r0
	ldr	r0, [sp, #16]                   @ 4-byte Reload
	ldr	r1, [r1]
	.loc	3 72 26                         @ ../communication/interface_usb.cpp:72:26
	str	r1, [sp, #44]
	.loc	3 72 19                         @ ../communication/interface_usb.cpp:72:19
	ldr	r1, [sp, #40]
	ldr	r2, [sp, #44]
	bl	_ZNK5fibre8CallbackIvJNS_11WriteResultEEE6invokeES1_
	.loc	3 73 9 is_stmt 1                @ ../communication/interface_usb.cpp:73:9
	b	.LBB0_11
.Ltmp10:
.LBB0_6:
	.loc	3 76 9                          @ ../communication/interface_usb.cpp:76:9
	ldr	r0, [sp, #20]                   @ 4-byte Reload
	adds	r0, #8
	bl	_ZN5fibre8CallbackIvJNS_11WriteResultEEEcvbEv
	.loc	3 76 20 is_stmt 0               @ ../communication/interface_usb.cpp:76:20
	cbnz	r0, .LBB0_8
	b	.LBB0_7
.LBB0_7:
	.loc	3 76 23                         @ ../communication/interface_usb.cpp:76:23
	ldr	r0, [sp, #20]                   @ 4-byte Reload
	ldr	r0, [r0, #16]
.Ltmp11:
	.loc	3 76 9                          @ ../communication/interface_usb.cpp:76:9
	cbz	r0, .LBB0_9
	b	.LBB0_8
.LBB0_8:
	.loc	3 0 9                           @ ../communication/interface_usb.cpp:0:9
	movs	r0, #3
.Ltmp12:
	.loc	3 77 26 is_stmt 1               @ ../communication/interface_usb.cpp:77:26
	strb.w	r0, [sp, #32]
	add	r0, sp, #64
	.loc	3 77 48 is_stmt 0               @ ../communication/interface_usb.cpp:77:48
	bl	_ZN5fibre16generic_bufptr_tIKhE5beginEv
	mov	r1, r0
	ldr	r0, [sp, #16]                   @ 4-byte Reload
	ldr	r1, [r1]
	.loc	3 77 26                         @ ../communication/interface_usb.cpp:77:26
	str	r1, [sp, #36]
	.loc	3 77 19                         @ ../communication/interface_usb.cpp:77:19
	ldr	r1, [sp, #32]
	ldr	r2, [sp, #36]
	bl	_ZNK5fibre8CallbackIvJNS_11WriteResultEEE6invokeES1_
	.loc	3 78 9 is_stmt 1                @ ../communication/interface_usb.cpp:78:9
	b	.LBB0_11
.Ltmp13:
.LBB0_9:
	.loc	3 81 16                         @ ../communication/interface_usb.cpp:81:16
	ldr	r1, [sp, #20]                   @ 4-byte Reload
	ldr	r2, [sp, #16]                   @ 4-byte Reload
	ldr	r0, [r2]
	ldr	r2, [r2, #4]
	str	r2, [r1, #12]
	str	r0, [r1, #8]
	add	r0, sp, #64
	.loc	3 82 22                         @ ../communication/interface_usb.cpp:82:22
	str	r0, [sp, #8]                    @ 4-byte Spill
	bl	_ZN5fibre16generic_bufptr_tIKhE3endEv
	ldr	r2, [sp, #20]                   @ 4-byte Reload
	mov	r1, r0
	ldr	r0, [sp, #8]                    @ 4-byte Reload
	ldr	r1, [r1]
	.loc	3 82 13 is_stmt 0               @ ../communication/interface_usb.cpp:82:13
	str	r1, [r2, #16]
.Ltmp14:
	.loc	3 92 38 is_stmt 1               @ ../communication/interface_usb.cpp:92:38
	bl	_ZN5fibre16generic_bufptr_tIKhE5beginEv
	mov	r1, r0
	ldr	r0, [sp, #8]                    @ 4-byte Reload
	ldr	r1, [r1]
	.loc	3 92 55 is_stmt 0               @ ../communication/interface_usb.cpp:92:55
	str	r1, [sp, #12]                   @ 4-byte Spill
	bl	_ZNK5fibre16generic_bufptr_tIKhE4sizeEv
	ldr	r2, [sp, #20]                   @ 4-byte Reload
	mov	r1, r0
	.loc	3 92 63                         @ ../communication/interface_usb.cpp:92:63
	ldr	r0, [sp, #12]                   @ 4-byte Reload
	ldrb	r2, [r2, #4]
	.loc	3 86 9 is_stmt 1                @ ../communication/interface_usb.cpp:86:9
	uxth	r1, r1
	bl	CDC_Transmit_FS
.Ltmp15:
	.loc	3 86 9 is_stmt 0                @ ../communication/interface_usb.cpp:86:9
	cbz	r0, .LBB0_11
	b	.LBB0_10
.LBB0_10:
	.loc	3 0 9                           @ ../communication/interface_usb.cpp:0:9
	ldr	r0, [sp, #20]                   @ 4-byte Reload
	movs	r1, #0
.Ltmp16:
	.loc	3 93 17 is_stmt 1               @ ../communication/interface_usb.cpp:93:17
	str	r1, [r0, #16]
	.loc	3 94 9                          @ ../communication/interface_usb.cpp:94:9
	adds	r0, #8
	str	r0, [sp, #4]                    @ 4-byte Spill
	movs	r0, #3
	.loc	3 94 37 is_stmt 0               @ ../communication/interface_usb.cpp:94:37
	strb.w	r0, [sp, #24]
	add	r0, sp, #64
	.loc	3 94 59                         @ ../communication/interface_usb.cpp:94:59
	bl	_ZN5fibre16generic_bufptr_tIKhE5beginEv
	mov	r1, r0
	ldr	r0, [sp, #4]                    @ 4-byte Reload
	ldr	r1, [r1]
	.loc	3 94 37                         @ ../communication/interface_usb.cpp:94:37
	str	r1, [sp, #28]
	.loc	3 94 20                         @ ../communication/interface_usb.cpp:94:20
	ldr	r1, [sp, #24]
	ldr	r2, [sp, #28]
	bl	_ZN5fibre8CallbackIvJNS_11WriteResultEEE16invoke_and_clearES1_
	.loc	3 95 5 is_stmt 1                @ ../communication/interface_usb.cpp:95:5
	b	.LBB0_11
.Ltmp17:
.LBB0_11:
	.loc	3 96 1 epilogue_begin           @ ../communication/interface_usb.cpp:96:1
	add	sp, #72
	pop	{r7, pc}
.Ltmp18:
.Lfunc_end0:
	.size	_ZN5fibre16Stm32UsbTxStream11start_writeENS_16generic_bufptr_tIKhEEPjNS_8CallbackIvJNS_11WriteResultEEEE, .Lfunc_end0-_ZN5fibre16Stm32UsbTxStream11start_writeENS_16generic_bufptr_tIKhEEPjNS_8CallbackIvJNS_11WriteResultEEEE
	.cfi_endproc
	.cantunwind
	.fnend
                                        @ -- End function
	.section	.text._ZNK5fibre8CallbackIvJNS_11WriteResultEEE6invokeES1_,"axG",%progbits,_ZNK5fibre8CallbackIvJNS_11WriteResultEEE6invokeES1_,comdat
	.hidden	_ZNK5fibre8CallbackIvJNS_11WriteResultEEE6invokeES1_ @ -- Begin function _ZNK5fibre8CallbackIvJNS_11WriteResultEEE6invokeES1_
	.weak	_ZNK5fibre8CallbackIvJNS_11WriteResultEEE6invokeES1_
	.p2align	2
	.type	_ZNK5fibre8CallbackIvJNS_11WriteResultEEE6invokeES1_,%function
	.code	16                              @ @_ZNK5fibre8CallbackIvJNS_11WriteResultEEE6invokeES1_
	.thumb_func
_ZNK5fibre8CallbackIvJNS_11WriteResultEEE6invokeES1_:
.Lfunc_begin1:
	.loc	9 59 0                          @ ../fibre-cpp/include\fibre/callback.hpp:59:0
	.fnstart
	.cfi_startproc
@ %bb.0:
	.save	{r7, lr}
	push	{r7, lr}
	.cfi_def_cfa_offset 8
	.cfi_offset lr, -4
	.cfi_offset r7, -8
	.pad	#24
	sub	sp, #24
	.cfi_def_cfa_offset 32
                                        @ kill: def $r3 killed $r2
                                        @ kill: def $r3 killed $r1
	str	r2, [sp, #20]
	str	r1, [sp, #16]
	str	r0, [sp, #12]
	ldr	r0, [sp, #12]
.Ltmp19:
	.loc	9 60 13 prologue_end            @ ../fibre-cpp/include\fibre/callback.hpp:60:13
	str	r0, [sp]                        @ 4-byte Spill
	ldr	r0, [r0]
.Ltmp20:
	.loc	9 60 13 is_stmt 0               @ ../fibre-cpp/include\fibre/callback.hpp:60:13
	cbz	r0, .LBB1_2
	b	.LBB1_1
.LBB1_1:
.Ltmp21:
	.loc	9 61 22 is_stmt 1               @ ../fibre-cpp/include\fibre/callback.hpp:61:22
	ldr	r0, [sp]                        @ 4-byte Reload
	ldr	r3, [r0]
	.loc	9 61 27 is_stmt 0               @ ../fibre-cpp/include\fibre/callback.hpp:61:27
	ldr	r0, [r0, #4]
	.loc	9 61 33                         @ ../fibre-cpp/include\fibre/callback.hpp:61:33
	ldr	r1, [sp, #16]
	ldr	r2, [sp, #20]
	str	r2, [sp, #8]
	str	r1, [sp, #4]
	.loc	9 61 20                         @ ../fibre-cpp/include\fibre/callback.hpp:61:20
	ldr	r1, [sp, #4]
	ldr	r2, [sp, #8]
	blx	r3
	.loc	9 61 13                         @ ../fibre-cpp/include\fibre/callback.hpp:61:13
	b	.LBB1_3
.Ltmp22:
.LBB1_2:
	.loc	9 63 16 is_stmt 1               @ ../fibre-cpp/include\fibre/callback.hpp:63:16
	bl	_ZN5fibre6detail11get_defaultIvE3valEv
	.loc	9 63 9 is_stmt 0                @ ../fibre-cpp/include\fibre/callback.hpp:63:9
	b	.LBB1_3
.LBB1_3:
	.loc	9 64 5 epilogue_begin is_stmt 1 @ ../fibre-cpp/include\fibre/callback.hpp:64:5
	add	sp, #24
	pop	{r7, pc}
.Ltmp23:
.Lfunc_end1:
	.size	_ZNK5fibre8CallbackIvJNS_11WriteResultEEE6invokeES1_, .Lfunc_end1-_ZNK5fibre8CallbackIvJNS_11WriteResultEEE6invokeES1_
	.cfi_endproc
	.cantunwind
	.fnend
                                        @ -- End function
	.section	.text._ZN5fibre16generic_bufptr_tIKhE5beginEv,"axG",%progbits,_ZN5fibre16generic_bufptr_tIKhE5beginEv,comdat
	.hidden	_ZN5fibre16generic_bufptr_tIKhE5beginEv @ -- Begin function _ZN5fibre16generic_bufptr_tIKhE5beginEv
	.weak	_ZN5fibre16generic_bufptr_tIKhE5beginEv
	.p2align	2
	.type	_ZN5fibre16generic_bufptr_tIKhE5beginEv,%function
	.code	16                              @ @_ZN5fibre16generic_bufptr_tIKhE5beginEv
	.thumb_func
_ZN5fibre16generic_bufptr_tIKhE5beginEv:
.Lfunc_begin2:
	.loc	7 82 0                          @ ../fibre-cpp/include\fibre/bufptr.hpp:82:0
	.fnstart
	.cfi_startproc
@ %bb.0:
	.pad	#4
	sub	sp, #4
	.cfi_def_cfa_offset 4
	str	r0, [sp]
	ldr	r0, [sp]
.Ltmp24:
	.loc	7 82 19 prologue_end epilogue_begin @ ../fibre-cpp/include\fibre/bufptr.hpp:82:19
	add	sp, #4
	bx	lr
.Ltmp25:
.Lfunc_end2:
	.size	_ZN5fibre16generic_bufptr_tIKhE5beginEv, .Lfunc_end2-_ZN5fibre16generic_bufptr_tIKhE5beginEv
	.cfi_endproc
	.cantunwind
	.fnend
                                        @ -- End function
	.section	.text._ZNK5fibre16generic_bufptr_tIKhE4sizeEv,"axG",%progbits,_ZNK5fibre16generic_bufptr_tIKhE4sizeEv,comdat
	.hidden	_ZNK5fibre16generic_bufptr_tIKhE4sizeEv @ -- Begin function _ZNK5fibre16generic_bufptr_tIKhE4sizeEv
	.weak	_ZNK5fibre16generic_bufptr_tIKhE4sizeEv
	.p2align	2
	.type	_ZNK5fibre16generic_bufptr_tIKhE4sizeEv,%function
	.code	16                              @ @_ZNK5fibre16generic_bufptr_tIKhE4sizeEv
	.thumb_func
_ZNK5fibre16generic_bufptr_tIKhE4sizeEv:
.Lfunc_begin3:
	.loc	7 74 0                          @ ../fibre-cpp/include\fibre/bufptr.hpp:74:0
	.fnstart
	.cfi_startproc
@ %bb.0:
	.pad	#4
	sub	sp, #4
	.cfi_def_cfa_offset 4
	str	r0, [sp]
	ldr	r0, [sp]
.Ltmp26:
	.loc	7 75 23 prologue_end            @ ../fibre-cpp/include\fibre/bufptr.hpp:75:23
	ldr	r1, [r0]
	.loc	7 75 16 is_stmt 0               @ ../fibre-cpp/include\fibre/bufptr.hpp:75:16
	ldr	r0, [r0, #4]
	.loc	7 75 21                         @ ../fibre-cpp/include\fibre/bufptr.hpp:75:21
	subs	r0, r0, r1
	.loc	7 75 9 epilogue_begin           @ ../fibre-cpp/include\fibre/bufptr.hpp:75:9
	add	sp, #4
	bx	lr
.Ltmp27:
.Lfunc_end3:
	.size	_ZNK5fibre16generic_bufptr_tIKhE4sizeEv, .Lfunc_end3-_ZNK5fibre16generic_bufptr_tIKhE4sizeEv
	.cfi_endproc
	.cantunwind
	.fnend
                                        @ -- End function
	.section	.text._ZN5fibre8CallbackIvJNS_11WriteResultEEEcvbEv,"axG",%progbits,_ZN5fibre8CallbackIvJNS_11WriteResultEEEcvbEv,comdat
	.hidden	_ZN5fibre8CallbackIvJNS_11WriteResultEEEcvbEv @ -- Begin function _ZN5fibre8CallbackIvJNS_11WriteResultEEEcvbEv
	.weak	_ZN5fibre8CallbackIvJNS_11WriteResultEEEcvbEv
	.p2align	2
	.type	_ZN5fibre8CallbackIvJNS_11WriteResultEEEcvbEv,%function
	.code	16                              @ @_ZN5fibre8CallbackIvJNS_11WriteResultEEEcvbEv
	.thumb_func
_ZN5fibre8CallbackIvJNS_11WriteResultEEEcvbEv:
.Lfunc_begin4:
	.loc	9 55 0 is_stmt 1                @ ../fibre-cpp/include\fibre/callback.hpp:55:0
	.fnstart
	.cfi_startproc
@ %bb.0:
	.pad	#4
	sub	sp, #4
	.cfi_def_cfa_offset 4
	str	r0, [sp]
	ldr	r0, [sp]
.Ltmp28:
	.loc	9 56 16 prologue_end            @ ../fibre-cpp/include\fibre/callback.hpp:56:16
	ldr	r0, [r0]
	cmp	r0, #0
	it	ne
	movne	r0, #1
	.loc	9 56 9 epilogue_begin is_stmt 0 @ ../fibre-cpp/include\fibre/callback.hpp:56:9
	add	sp, #4
	bx	lr
.Ltmp29:
.Lfunc_end4:
	.size	_ZN5fibre8CallbackIvJNS_11WriteResultEEEcvbEv, .Lfunc_end4-_ZN5fibre8CallbackIvJNS_11WriteResultEEEcvbEv
	.cfi_endproc
	.cantunwind
	.fnend
                                        @ -- End function
	.section	.text._ZN5fibre16generic_bufptr_tIKhE3endEv,"axG",%progbits,_ZN5fibre16generic_bufptr_tIKhE3endEv,comdat
	.hidden	_ZN5fibre16generic_bufptr_tIKhE3endEv @ -- Begin function _ZN5fibre16generic_bufptr_tIKhE3endEv
	.weak	_ZN5fibre16generic_bufptr_tIKhE3endEv
	.p2align	2
	.type	_ZN5fibre16generic_bufptr_tIKhE3endEv,%function
	.code	16                              @ @_ZN5fibre16generic_bufptr_tIKhE3endEv
	.thumb_func
_ZN5fibre16generic_bufptr_tIKhE3endEv:
.Lfunc_begin5:
	.loc	7 83 0 is_stmt 1                @ ../fibre-cpp/include\fibre/bufptr.hpp:83:0
	.fnstart
	.cfi_startproc
@ %bb.0:
	.pad	#4
	sub	sp, #4
	.cfi_def_cfa_offset 4
	str	r0, [sp]
	ldr	r0, [sp]
.Ltmp30:
	.loc	7 83 24 prologue_end            @ ../fibre-cpp/include\fibre/bufptr.hpp:83:24
	adds	r0, #4
	.loc	7 83 17 epilogue_begin is_stmt 0 @ ../fibre-cpp/include\fibre/bufptr.hpp:83:17
	add	sp, #4
	bx	lr
.Ltmp31:
.Lfunc_end5:
	.size	_ZN5fibre16generic_bufptr_tIKhE3endEv, .Lfunc_end5-_ZN5fibre16generic_bufptr_tIKhE3endEv
	.cfi_endproc
	.cantunwind
	.fnend
                                        @ -- End function
	.section	.text._ZN5fibre8CallbackIvJNS_11WriteResultEEE16invoke_and_clearES1_,"axG",%progbits,_ZN5fibre8CallbackIvJNS_11WriteResultEEE16invoke_and_clearES1_,comdat
	.hidden	_ZN5fibre8CallbackIvJNS_11WriteResultEEE16invoke_and_clearES1_ @ -- Begin function _ZN5fibre8CallbackIvJNS_11WriteResultEEE16invoke_and_clearES1_
	.weak	_ZN5fibre8CallbackIvJNS_11WriteResultEEE16invoke_and_clearES1_
	.p2align	2
	.type	_ZN5fibre8CallbackIvJNS_11WriteResultEEE16invoke_and_clearES1_,%function
	.code	16                              @ @_ZN5fibre8CallbackIvJNS_11WriteResultEEE16invoke_and_clearES1_
	.thumb_func
_ZN5fibre8CallbackIvJNS_11WriteResultEEE16invoke_and_clearES1_:
.Lfunc_begin6:
	.loc	9 66 0 is_stmt 1                @ ../fibre-cpp/include\fibre/callback.hpp:66:0
	.fnstart
	.cfi_startproc
@ %bb.0:
	.save	{r7, lr}
	push	{r7, lr}
	.cfi_def_cfa_offset 8
	.cfi_offset lr, -4
	.cfi_offset r7, -8
	.pad	#32
	sub	sp, #32
	.cfi_def_cfa_offset 40
                                        @ kill: def $r3 killed $r2
                                        @ kill: def $r3 killed $r1
	str	r2, [sp, #28]
	str	r1, [sp, #24]
	str	r0, [sp, #20]
	ldr	r1, [sp, #20]
.Ltmp32:
	.loc	9 67 21 prologue_end            @ ../fibre-cpp/include\fibre/callback.hpp:67:21
	ldr	r0, [r1, #4]
	.loc	9 67 15 is_stmt 0               @ ../fibre-cpp/include\fibre/callback.hpp:67:15
	str	r0, [sp, #16]
	.loc	9 68 19 is_stmt 1               @ ../fibre-cpp/include\fibre/callback.hpp:68:19
	ldr	r0, [r1]
	.loc	9 68 14 is_stmt 0               @ ../fibre-cpp/include\fibre/callback.hpp:68:14
	str	r0, [sp, #12]
	movs	r0, #0
	.loc	9 69 14 is_stmt 1               @ ../fibre-cpp/include\fibre/callback.hpp:69:14
	str	r0, [r1, #4]
	.loc	9 70 13                         @ ../fibre-cpp/include\fibre/callback.hpp:70:13
	str	r0, [r1]
.Ltmp33:
	.loc	9 71 13                         @ ../fibre-cpp/include\fibre/callback.hpp:71:13
	ldr	r0, [sp, #12]
.Ltmp34:
	.loc	9 71 13 is_stmt 0               @ ../fibre-cpp/include\fibre/callback.hpp:71:13
	cbz	r0, .LBB6_2
	b	.LBB6_1
.LBB6_1:
.Ltmp35:
	.loc	9 72 22 is_stmt 1               @ ../fibre-cpp/include\fibre/callback.hpp:72:22
	ldr	r3, [sp, #12]
	.loc	9 72 26 is_stmt 0               @ ../fibre-cpp/include\fibre/callback.hpp:72:26
	ldr	r0, [sp, #16]
	.loc	9 72 31                         @ ../fibre-cpp/include\fibre/callback.hpp:72:31
	ldr	r1, [sp, #24]
	ldr	r2, [sp, #28]
	str	r2, [sp, #8]
	str	r1, [sp, #4]
	.loc	9 72 20                         @ ../fibre-cpp/include\fibre/callback.hpp:72:20
	ldr	r1, [sp, #4]
	ldr	r2, [sp, #8]
	blx	r3
	.loc	9 72 13                         @ ../fibre-cpp/include\fibre/callback.hpp:72:13
	b	.LBB6_3
.Ltmp36:
.LBB6_2:
	.loc	9 74 16 is_stmt 1               @ ../fibre-cpp/include\fibre/callback.hpp:74:16
	bl	_ZN5fibre6detail11get_defaultIvE3valEv
	.loc	9 74 9 is_stmt 0                @ ../fibre-cpp/include\fibre/callback.hpp:74:9
	b	.LBB6_3
.LBB6_3:
	.loc	9 75 5 epilogue_begin is_stmt 1 @ ../fibre-cpp/include\fibre/callback.hpp:75:5
	add	sp, #32
	pop	{r7, pc}
.Ltmp37:
.Lfunc_end6:
	.size	_ZN5fibre8CallbackIvJNS_11WriteResultEEE16invoke_and_clearES1_, .Lfunc_end6-_ZN5fibre8CallbackIvJNS_11WriteResultEEE16invoke_and_clearES1_
	.cfi_endproc
	.cantunwind
	.fnend
                                        @ -- End function
	.section	.text._ZN5fibre16Stm32UsbTxStream12cancel_writeEj,"ax",%progbits
	.hidden	_ZN5fibre16Stm32UsbTxStream12cancel_writeEj @ -- Begin function _ZN5fibre16Stm32UsbTxStream12cancel_writeEj
	.globl	_ZN5fibre16Stm32UsbTxStream12cancel_writeEj
	.p2align	2
	.type	_ZN5fibre16Stm32UsbTxStream12cancel_writeEj,%function
	.code	16                              @ @_ZN5fibre16Stm32UsbTxStream12cancel_writeEj
	.thumb_func
_ZN5fibre16Stm32UsbTxStream12cancel_writeEj:
.Lfunc_begin7:
	.loc	3 98 0                          @ ../communication/interface_usb.cpp:98:0
	.fnstart
	.cfi_startproc
@ %bb.0:
	.pad	#8
	sub	sp, #8
	.cfi_def_cfa_offset 8
	str	r0, [sp, #4]
	str	r1, [sp]
.Ltmp38:
	.loc	3 100 1 prologue_end epilogue_begin @ ../communication/interface_usb.cpp:100:1
	add	sp, #8
	bx	lr
.Ltmp39:
.Lfunc_end7:
	.size	_ZN5fibre16Stm32UsbTxStream12cancel_writeEj, .Lfunc_end7-_ZN5fibre16Stm32UsbTxStream12cancel_writeEj
	.cfi_endproc
	.cantunwind
	.fnend
                                        @ -- End function
	.section	.text._ZN5fibre16Stm32UsbTxStream10did_finishEv,"ax",%progbits
	.hidden	_ZN5fibre16Stm32UsbTxStream10did_finishEv @ -- Begin function _ZN5fibre16Stm32UsbTxStream10did_finishEv
	.globl	_ZN5fibre16Stm32UsbTxStream10did_finishEv
	.p2align	2
	.type	_ZN5fibre16Stm32UsbTxStream10did_finishEv,%function
	.code	16                              @ @_ZN5fibre16Stm32UsbTxStream10did_finishEv
	.thumb_func
_ZN5fibre16Stm32UsbTxStream10did_finishEv:
.Lfunc_begin8:
	.loc	3 102 0                         @ ../communication/interface_usb.cpp:102:0
	.fnstart
	.cfi_startproc
@ %bb.0:
	.save	{r7, lr}
	push	{r7, lr}
	.cfi_def_cfa_offset 8
	.cfi_offset lr, -4
	.cfi_offset r7, -8
	.pad	#16
	sub	sp, #16
	.cfi_def_cfa_offset 24
	str	r0, [sp, #12]
	ldr	r1, [sp, #12]
.Ltmp40:
	.loc	3 103 29 prologue_end           @ ../communication/interface_usb.cpp:103:29
	ldr	r0, [r1, #16]
	.loc	3 103 20 is_stmt 0              @ ../communication/interface_usb.cpp:103:20
	str	r0, [sp, #8]
	movs	r0, #0
	.loc	3 104 13 is_stmt 1              @ ../communication/interface_usb.cpp:104:13
	str	r0, [r1, #16]
	.loc	3 105 5                         @ ../communication/interface_usb.cpp:105:5
	add.w	r0, r1, #8
	.loc	3 105 34 is_stmt 0              @ ../communication/interface_usb.cpp:105:34
	ldrb	r1, [r1, #5]
	lsls	r2, r1, #31
	movs	r1, #2
	cmp	r2, #0
	it	ne
	movne	r1, #0
	.loc	3 105 33                        @ ../communication/interface_usb.cpp:105:33
	strb.w	r1, [sp]
	.loc	3 105 74                        @ ../communication/interface_usb.cpp:105:74
	ldr	r1, [sp, #8]
	.loc	3 105 33                        @ ../communication/interface_usb.cpp:105:33
	str	r1, [sp, #4]
	.loc	3 105 16                        @ ../communication/interface_usb.cpp:105:16
	ldr	r1, [sp]
	ldr	r2, [sp, #4]
	bl	_ZN5fibre8CallbackIvJNS_11WriteResultEEE16invoke_and_clearES1_
	.loc	3 106 1 epilogue_begin is_stmt 1 @ ../communication/interface_usb.cpp:106:1
	add	sp, #16
	pop	{r7, pc}
.Ltmp41:
.Lfunc_end8:
	.size	_ZN5fibre16Stm32UsbTxStream10did_finishEv, .Lfunc_end8-_ZN5fibre16Stm32UsbTxStream10did_finishEv
	.cfi_endproc
	.cantunwind
	.fnend
                                        @ -- End function
	.section	.text._ZN5fibre16Stm32UsbRxStream10start_readENS_16generic_bufptr_tIhEEPjNS_8CallbackIvJNS_10ReadResultEEEE,"ax",%progbits
	.hidden	_ZN5fibre16Stm32UsbRxStream10start_readENS_16generic_bufptr_tIhEEPjNS_8CallbackIvJNS_10ReadResultEEEE @ -- Begin function _ZN5fibre16Stm32UsbRxStream10start_readENS_16generic_bufptr_tIhEEPjNS_8CallbackIvJNS_10ReadResultEEEE
	.globl	_ZN5fibre16Stm32UsbRxStream10start_readENS_16generic_bufptr_tIhEEPjNS_8CallbackIvJNS_10ReadResultEEEE
	.p2align	2
	.type	_ZN5fibre16Stm32UsbRxStream10start_readENS_16generic_bufptr_tIhEEPjNS_8CallbackIvJNS_10ReadResultEEEE,%function
	.code	16                              @ @_ZN5fibre16Stm32UsbRxStream10start_readENS_16generic_bufptr_tIhEEPjNS_8CallbackIvJNS_10ReadResultEEEE
	.thumb_func
_ZN5fibre16Stm32UsbRxStream10start_readENS_16generic_bufptr_tIhEEPjNS_8CallbackIvJNS_10ReadResultEEEE:
.Lfunc_begin9:
	.loc	3 108 0                         @ ../communication/interface_usb.cpp:108:0
	.fnstart
	.cfi_startproc
@ %bb.0:
	.save	{r7, lr}
	push	{r7, lr}
	.cfi_def_cfa_offset 8
	.cfi_offset lr, -4
	.cfi_offset r7, -8
	.pad	#64
	sub	sp, #64
	.cfi_def_cfa_offset 72
	str	r3, [sp, #12]                   @ 4-byte Spill
	str	r1, [sp, #16]                   @ 4-byte Spill
	str	r0, [sp, #60]
	str	r1, [sp, #56]
	str	r2, [sp, #52]
	str	r3, [sp, #48]
	ldr	r0, [sp, #60]
.Ltmp42:
	.loc	3 109 9 prologue_end            @ ../communication/interface_usb.cpp:109:9
	str	r0, [sp, #20]                   @ 4-byte Spill
	ldr	r0, [sp, #52]
.Ltmp43:
	.loc	3 109 9 is_stmt 0               @ ../communication/interface_usb.cpp:109:9
	cbz	r0, .LBB9_2
	b	.LBB9_1
.LBB9_1:
.Ltmp44:
	.loc	3 110 10 is_stmt 1              @ ../communication/interface_usb.cpp:110:10
	ldr	r0, [sp, #20]                   @ 4-byte Reload
	ldr	r1, [sp, #52]
	.loc	3 110 17 is_stmt 0              @ ../communication/interface_usb.cpp:110:17
	str	r0, [r1]
	.loc	3 111 5 is_stmt 1               @ ../communication/interface_usb.cpp:111:5
	b	.LBB9_2
.Ltmp45:
.LBB9_2:
	.loc	3 113 10                        @ ../communication/interface_usb.cpp:113:10
	ldr	r0, [sp, #20]                   @ 4-byte Reload
	ldrb	r0, [r0, #5]
.Ltmp46:
	.loc	3 113 9 is_stmt 0               @ ../communication/interface_usb.cpp:113:9
	lsls	r0, r0, #31
	cbnz	r0, .LBB9_4
	b	.LBB9_3
.LBB9_3:
	.loc	3 0 9                           @ ../communication/interface_usb.cpp:0:9
	ldr	r0, [sp, #16]                   @ 4-byte Reload
	movs	r1, #2
.Ltmp47:
	.loc	3 114 26 is_stmt 1              @ ../communication/interface_usb.cpp:114:26
	strb.w	r1, [sp, #40]
	.loc	3 114 49 is_stmt 0              @ ../communication/interface_usb.cpp:114:49
	bl	_ZN5fibre16generic_bufptr_tIhE5beginEv
	mov	r1, r0
	ldr	r0, [sp, #12]                   @ 4-byte Reload
	ldr	r1, [r1]
	.loc	3 114 26                        @ ../communication/interface_usb.cpp:114:26
	str	r1, [sp, #44]
	.loc	3 114 19                        @ ../communication/interface_usb.cpp:114:19
	ldr	r1, [sp, #40]
	ldr	r2, [sp, #44]
	bl	_ZNK5fibre8CallbackIvJNS_10ReadResultEEE6invokeES1_
	.loc	3 115 9 is_stmt 1               @ ../communication/interface_usb.cpp:115:9
	b	.LBB9_9
.Ltmp48:
.LBB9_4:
	.loc	3 118 9                         @ ../communication/interface_usb.cpp:118:9
	ldr	r0, [sp, #20]                   @ 4-byte Reload
	adds	r0, #8
	bl	_ZN5fibre8CallbackIvJNS_10ReadResultEEEcvbEv
	.loc	3 118 20 is_stmt 0              @ ../communication/interface_usb.cpp:118:20
	cbnz	r0, .LBB9_6
	b	.LBB9_5
.LBB9_5:
	.loc	3 118 23                        @ ../communication/interface_usb.cpp:118:23
	ldr	r0, [sp, #20]                   @ 4-byte Reload
	ldr	r0, [r0, #16]
.Ltmp49:
	.loc	3 118 9                         @ ../communication/interface_usb.cpp:118:9
	cbz	r0, .LBB9_7
	b	.LBB9_6
.LBB9_6:
	.loc	3 0 9                           @ ../communication/interface_usb.cpp:0:9
	ldr	r0, [sp, #16]                   @ 4-byte Reload
	movs	r1, #3
.Ltmp50:
	.loc	3 119 26 is_stmt 1              @ ../communication/interface_usb.cpp:119:26
	strb.w	r1, [sp, #32]
	.loc	3 119 48 is_stmt 0              @ ../communication/interface_usb.cpp:119:48
	bl	_ZN5fibre16generic_bufptr_tIhE5beginEv
	mov	r1, r0
	ldr	r0, [sp, #12]                   @ 4-byte Reload
	ldr	r1, [r1]
	.loc	3 119 26                        @ ../communication/interface_usb.cpp:119:26
	str	r1, [sp, #36]
	.loc	3 119 19                        @ ../communication/interface_usb.cpp:119:19
	ldr	r1, [sp, #32]
	ldr	r2, [sp, #36]
	bl	_ZNK5fibre8CallbackIvJNS_10ReadResultEEE6invokeES1_
	.loc	3 120 9 is_stmt 1               @ ../communication/interface_usb.cpp:120:9
	b	.LBB9_9
.Ltmp51:
.LBB9_7:
	.loc	3 123 16                        @ ../communication/interface_usb.cpp:123:16
	ldr	r2, [sp, #20]                   @ 4-byte Reload
	ldr	r0, [sp, #16]                   @ 4-byte Reload
	ldr	r3, [sp, #12]                   @ 4-byte Reload
	ldr	r1, [r3]
	ldr	r3, [r3, #4]
	str	r3, [r2, #12]
	str	r1, [r2, #8]
	.loc	3 124 22                        @ ../communication/interface_usb.cpp:124:22
	bl	_ZN5fibre16generic_bufptr_tIhE5beginEv
	ldr	r2, [sp, #20]                   @ 4-byte Reload
	mov	r1, r0
	ldr	r0, [sp, #16]                   @ 4-byte Reload
	ldr	r1, [r1]
	.loc	3 124 13 is_stmt 0              @ ../communication/interface_usb.cpp:124:13
	str	r1, [r2, #16]
.Ltmp52:
	.loc	3 126 33 is_stmt 1              @ ../communication/interface_usb.cpp:126:33
	movw	r1, :lower16:usb_dev_handle
	movt	r1, :upper16:usb_dev_handle
	ldr	r1, [r1]
	.loc	3 126 56 is_stmt 0              @ ../communication/interface_usb.cpp:126:56
	str	r1, [sp, #8]                    @ 4-byte Spill
	bl	_ZN5fibre16generic_bufptr_tIhE5beginEv
	mov	r1, r0
	ldr	r0, [sp, #16]                   @ 4-byte Reload
	ldr	r1, [r1]
	.loc	3 126 72                        @ ../communication/interface_usb.cpp:126:72
	str	r1, [sp, #4]                    @ 4-byte Spill
	bl	_ZNK5fibre16generic_bufptr_tIhE4sizeEv
	ldr	r3, [sp, #20]                   @ 4-byte Reload
	ldr	r1, [sp, #4]                    @ 4-byte Reload
	mov	r2, r0
	.loc	3 126 80                        @ ../communication/interface_usb.cpp:126:80
	ldr	r0, [sp, #8]                    @ 4-byte Reload
	ldrb	r3, [r3, #4]
	.loc	3 126 9                         @ ../communication/interface_usb.cpp:126:9
	uxth	r2, r2
	bl	USBD_CDC_ReceivePacket
.Ltmp53:
	.loc	3 126 9                         @ ../communication/interface_usb.cpp:126:9
	cbz	r0, .LBB9_9
	b	.LBB9_8
.LBB9_8:
	.loc	3 0 9                           @ ../communication/interface_usb.cpp:0:9
	ldr	r0, [sp, #16]                   @ 4-byte Reload
	ldr	r1, [sp, #20]                   @ 4-byte Reload
	movs	r2, #0
.Ltmp54:
	.loc	3 127 17 is_stmt 1              @ ../communication/interface_usb.cpp:127:17
	str	r2, [r1, #16]
	.loc	3 128 9                         @ ../communication/interface_usb.cpp:128:9
	adds	r1, #8
	str	r1, [sp]                        @ 4-byte Spill
	movs	r1, #3
	.loc	3 128 37 is_stmt 0              @ ../communication/interface_usb.cpp:128:37
	strb.w	r1, [sp, #24]
	.loc	3 128 59                        @ ../communication/interface_usb.cpp:128:59
	bl	_ZN5fibre16generic_bufptr_tIhE5beginEv
	mov	r1, r0
	ldr	r0, [sp]                        @ 4-byte Reload
	ldr	r1, [r1]
	.loc	3 128 37                        @ ../communication/interface_usb.cpp:128:37
	str	r1, [sp, #28]
	.loc	3 128 20                        @ ../communication/interface_usb.cpp:128:20
	ldr	r1, [sp, #24]
	ldr	r2, [sp, #28]
	bl	_ZN5fibre8CallbackIvJNS_10ReadResultEEE16invoke_and_clearES1_
	.loc	3 129 9 is_stmt 1               @ ../communication/interface_usb.cpp:129:9
	b	.LBB9_9
.Ltmp55:
.LBB9_9:
	.loc	3 131 1 epilogue_begin          @ ../communication/interface_usb.cpp:131:1
	add	sp, #64
	pop	{r7, pc}
.Ltmp56:
.Lfunc_end9:
	.size	_ZN5fibre16Stm32UsbRxStream10start_readENS_16generic_bufptr_tIhEEPjNS_8CallbackIvJNS_10ReadResultEEEE, .Lfunc_end9-_ZN5fibre16Stm32UsbRxStream10start_readENS_16generic_bufptr_tIhEEPjNS_8CallbackIvJNS_10ReadResultEEEE
	.cfi_endproc
	.cantunwind
	.fnend
                                        @ -- End function
	.section	.text._ZNK5fibre8CallbackIvJNS_10ReadResultEEE6invokeES1_,"axG",%progbits,_ZNK5fibre8CallbackIvJNS_10ReadResultEEE6invokeES1_,comdat
	.hidden	_ZNK5fibre8CallbackIvJNS_10ReadResultEEE6invokeES1_ @ -- Begin function _ZNK5fibre8CallbackIvJNS_10ReadResultEEE6invokeES1_
	.weak	_ZNK5fibre8CallbackIvJNS_10ReadResultEEE6invokeES1_
	.p2align	2
	.type	_ZNK5fibre8CallbackIvJNS_10ReadResultEEE6invokeES1_,%function
	.code	16                              @ @_ZNK5fibre8CallbackIvJNS_10ReadResultEEE6invokeES1_
	.thumb_func
_ZNK5fibre8CallbackIvJNS_10ReadResultEEE6invokeES1_:
.Lfunc_begin10:
	.loc	9 59 0                          @ ../fibre-cpp/include\fibre/callback.hpp:59:0
	.fnstart
	.cfi_startproc
@ %bb.0:
	.save	{r7, lr}
	push	{r7, lr}
	.cfi_def_cfa_offset 8
	.cfi_offset lr, -4
	.cfi_offset r7, -8
	.pad	#24
	sub	sp, #24
	.cfi_def_cfa_offset 32
                                        @ kill: def $r3 killed $r2
                                        @ kill: def $r3 killed $r1
	str	r2, [sp, #20]
	str	r1, [sp, #16]
	str	r0, [sp, #12]
	ldr	r0, [sp, #12]
.Ltmp57:
	.loc	9 60 13 prologue_end            @ ../fibre-cpp/include\fibre/callback.hpp:60:13
	str	r0, [sp]                        @ 4-byte Spill
	ldr	r0, [r0]
.Ltmp58:
	.loc	9 60 13 is_stmt 0               @ ../fibre-cpp/include\fibre/callback.hpp:60:13
	cbz	r0, .LBB10_2
	b	.LBB10_1
.LBB10_1:
.Ltmp59:
	.loc	9 61 22 is_stmt 1               @ ../fibre-cpp/include\fibre/callback.hpp:61:22
	ldr	r0, [sp]                        @ 4-byte Reload
	ldr	r3, [r0]
	.loc	9 61 27 is_stmt 0               @ ../fibre-cpp/include\fibre/callback.hpp:61:27
	ldr	r0, [r0, #4]
	.loc	9 61 33                         @ ../fibre-cpp/include\fibre/callback.hpp:61:33
	ldr	r1, [sp, #16]
	ldr	r2, [sp, #20]
	str	r2, [sp, #8]
	str	r1, [sp, #4]
	.loc	9 61 20                         @ ../fibre-cpp/include\fibre/callback.hpp:61:20
	ldr	r1, [sp, #4]
	ldr	r2, [sp, #8]
	blx	r3
	.loc	9 61 13                         @ ../fibre-cpp/include\fibre/callback.hpp:61:13
	b	.LBB10_3
.Ltmp60:
.LBB10_2:
	.loc	9 63 16 is_stmt 1               @ ../fibre-cpp/include\fibre/callback.hpp:63:16
	bl	_ZN5fibre6detail11get_defaultIvE3valEv
	.loc	9 63 9 is_stmt 0                @ ../fibre-cpp/include\fibre/callback.hpp:63:9
	b	.LBB10_3
.LBB10_3:
	.loc	9 64 5 epilogue_begin is_stmt 1 @ ../fibre-cpp/include\fibre/callback.hpp:64:5
	add	sp, #24
	pop	{r7, pc}
.Ltmp61:
.Lfunc_end10:
	.size	_ZNK5fibre8CallbackIvJNS_10ReadResultEEE6invokeES1_, .Lfunc_end10-_ZNK5fibre8CallbackIvJNS_10ReadResultEEE6invokeES1_
	.cfi_endproc
	.cantunwind
	.fnend
                                        @ -- End function
	.section	.text._ZN5fibre16generic_bufptr_tIhE5beginEv,"axG",%progbits,_ZN5fibre16generic_bufptr_tIhE5beginEv,comdat
	.hidden	_ZN5fibre16generic_bufptr_tIhE5beginEv @ -- Begin function _ZN5fibre16generic_bufptr_tIhE5beginEv
	.weak	_ZN5fibre16generic_bufptr_tIhE5beginEv
	.p2align	2
	.type	_ZN5fibre16generic_bufptr_tIhE5beginEv,%function
	.code	16                              @ @_ZN5fibre16generic_bufptr_tIhE5beginEv
	.thumb_func
_ZN5fibre16generic_bufptr_tIhE5beginEv:
.Lfunc_begin11:
	.loc	7 82 0                          @ ../fibre-cpp/include\fibre/bufptr.hpp:82:0
	.fnstart
	.cfi_startproc
@ %bb.0:
	.pad	#4
	sub	sp, #4
	.cfi_def_cfa_offset 4
	str	r0, [sp]
	ldr	r0, [sp]
.Ltmp62:
	.loc	7 82 19 prologue_end epilogue_begin @ ../fibre-cpp/include\fibre/bufptr.hpp:82:19
	add	sp, #4
	bx	lr
.Ltmp63:
.Lfunc_end11:
	.size	_ZN5fibre16generic_bufptr_tIhE5beginEv, .Lfunc_end11-_ZN5fibre16generic_bufptr_tIhE5beginEv
	.cfi_endproc
	.cantunwind
	.fnend
                                        @ -- End function
	.section	.text._ZN5fibre8CallbackIvJNS_10ReadResultEEEcvbEv,"axG",%progbits,_ZN5fibre8CallbackIvJNS_10ReadResultEEEcvbEv,comdat
	.hidden	_ZN5fibre8CallbackIvJNS_10ReadResultEEEcvbEv @ -- Begin function _ZN5fibre8CallbackIvJNS_10ReadResultEEEcvbEv
	.weak	_ZN5fibre8CallbackIvJNS_10ReadResultEEEcvbEv
	.p2align	2
	.type	_ZN5fibre8CallbackIvJNS_10ReadResultEEEcvbEv,%function
	.code	16                              @ @_ZN5fibre8CallbackIvJNS_10ReadResultEEEcvbEv
	.thumb_func
_ZN5fibre8CallbackIvJNS_10ReadResultEEEcvbEv:
.Lfunc_begin12:
	.loc	9 55 0                          @ ../fibre-cpp/include\fibre/callback.hpp:55:0
	.fnstart
	.cfi_startproc
@ %bb.0:
	.pad	#4
	sub	sp, #4
	.cfi_def_cfa_offset 4
	str	r0, [sp]
	ldr	r0, [sp]
.Ltmp64:
	.loc	9 56 16 prologue_end            @ ../fibre-cpp/include\fibre/callback.hpp:56:16
	ldr	r0, [r0]
	cmp	r0, #0
	it	ne
	movne	r0, #1
	.loc	9 56 9 epilogue_begin is_stmt 0 @ ../fibre-cpp/include\fibre/callback.hpp:56:9
	add	sp, #4
	bx	lr
.Ltmp65:
.Lfunc_end12:
	.size	_ZN5fibre8CallbackIvJNS_10ReadResultEEEcvbEv, .Lfunc_end12-_ZN5fibre8CallbackIvJNS_10ReadResultEEEcvbEv
	.cfi_endproc
	.cantunwind
	.fnend
                                        @ -- End function
	.section	.text._ZNK5fibre16generic_bufptr_tIhE4sizeEv,"axG",%progbits,_ZNK5fibre16generic_bufptr_tIhE4sizeEv,comdat
	.hidden	_ZNK5fibre16generic_bufptr_tIhE4sizeEv @ -- Begin function _ZNK5fibre16generic_bufptr_tIhE4sizeEv
	.weak	_ZNK5fibre16generic_bufptr_tIhE4sizeEv
	.p2align	2
	.type	_ZNK5fibre16generic_bufptr_tIhE4sizeEv,%function
	.code	16                              @ @_ZNK5fibre16generic_bufptr_tIhE4sizeEv
	.thumb_func
_ZNK5fibre16generic_bufptr_tIhE4sizeEv:
.Lfunc_begin13:
	.loc	7 74 0 is_stmt 1                @ ../fibre-cpp/include\fibre/bufptr.hpp:74:0
	.fnstart
	.cfi_startproc
@ %bb.0:
	.pad	#4
	sub	sp, #4
	.cfi_def_cfa_offset 4
	str	r0, [sp]
	ldr	r0, [sp]
.Ltmp66:
	.loc	7 75 23 prologue_end            @ ../fibre-cpp/include\fibre/bufptr.hpp:75:23
	ldr	r1, [r0]
	.loc	7 75 16 is_stmt 0               @ ../fibre-cpp/include\fibre/bufptr.hpp:75:16
	ldr	r0, [r0, #4]
	.loc	7 75 21                         @ ../fibre-cpp/include\fibre/bufptr.hpp:75:21
	subs	r0, r0, r1
	.loc	7 75 9 epilogue_begin           @ ../fibre-cpp/include\fibre/bufptr.hpp:75:9
	add	sp, #4
	bx	lr
.Ltmp67:
.Lfunc_end13:
	.size	_ZNK5fibre16generic_bufptr_tIhE4sizeEv, .Lfunc_end13-_ZNK5fibre16generic_bufptr_tIhE4sizeEv
	.cfi_endproc
	.cantunwind
	.fnend
                                        @ -- End function
	.section	.text._ZN5fibre8CallbackIvJNS_10ReadResultEEE16invoke_and_clearES1_,"axG",%progbits,_ZN5fibre8CallbackIvJNS_10ReadResultEEE16invoke_and_clearES1_,comdat
	.hidden	_ZN5fibre8CallbackIvJNS_10ReadResultEEE16invoke_and_clearES1_ @ -- Begin function _ZN5fibre8CallbackIvJNS_10ReadResultEEE16invoke_and_clearES1_
	.weak	_ZN5fibre8CallbackIvJNS_10ReadResultEEE16invoke_and_clearES1_
	.p2align	2
	.type	_ZN5fibre8CallbackIvJNS_10ReadResultEEE16invoke_and_clearES1_,%function
	.code	16                              @ @_ZN5fibre8CallbackIvJNS_10ReadResultEEE16invoke_and_clearES1_
	.thumb_func
_ZN5fibre8CallbackIvJNS_10ReadResultEEE16invoke_and_clearES1_:
.Lfunc_begin14:
	.loc	9 66 0 is_stmt 1                @ ../fibre-cpp/include\fibre/callback.hpp:66:0
	.fnstart
	.cfi_startproc
@ %bb.0:
	.save	{r7, lr}
	push	{r7, lr}
	.cfi_def_cfa_offset 8
	.cfi_offset lr, -4
	.cfi_offset r7, -8
	.pad	#32
	sub	sp, #32
	.cfi_def_cfa_offset 40
                                        @ kill: def $r3 killed $r2
                                        @ kill: def $r3 killed $r1
	str	r2, [sp, #28]
	str	r1, [sp, #24]
	str	r0, [sp, #20]
	ldr	r1, [sp, #20]
.Ltmp68:
	.loc	9 67 21 prologue_end            @ ../fibre-cpp/include\fibre/callback.hpp:67:21
	ldr	r0, [r1, #4]
	.loc	9 67 15 is_stmt 0               @ ../fibre-cpp/include\fibre/callback.hpp:67:15
	str	r0, [sp, #16]
	.loc	9 68 19 is_stmt 1               @ ../fibre-cpp/include\fibre/callback.hpp:68:19
	ldr	r0, [r1]
	.loc	9 68 14 is_stmt 0               @ ../fibre-cpp/include\fibre/callback.hpp:68:14
	str	r0, [sp, #12]
	movs	r0, #0
	.loc	9 69 14 is_stmt 1               @ ../fibre-cpp/include\fibre/callback.hpp:69:14
	str	r0, [r1, #4]
	.loc	9 70 13                         @ ../fibre-cpp/include\fibre/callback.hpp:70:13
	str	r0, [r1]
.Ltmp69:
	.loc	9 71 13                         @ ../fibre-cpp/include\fibre/callback.hpp:71:13
	ldr	r0, [sp, #12]
.Ltmp70:
	.loc	9 71 13 is_stmt 0               @ ../fibre-cpp/include\fibre/callback.hpp:71:13
	cbz	r0, .LBB14_2
	b	.LBB14_1
.LBB14_1:
.Ltmp71:
	.loc	9 72 22 is_stmt 1               @ ../fibre-cpp/include\fibre/callback.hpp:72:22
	ldr	r3, [sp, #12]
	.loc	9 72 26 is_stmt 0               @ ../fibre-cpp/include\fibre/callback.hpp:72:26
	ldr	r0, [sp, #16]
	.loc	9 72 31                         @ ../fibre-cpp/include\fibre/callback.hpp:72:31
	ldr	r1, [sp, #24]
	ldr	r2, [sp, #28]
	str	r2, [sp, #8]
	str	r1, [sp, #4]
	.loc	9 72 20                         @ ../fibre-cpp/include\fibre/callback.hpp:72:20
	ldr	r1, [sp, #4]
	ldr	r2, [sp, #8]
	blx	r3
	.loc	9 72 13                         @ ../fibre-cpp/include\fibre/callback.hpp:72:13
	b	.LBB14_3
.Ltmp72:
.LBB14_2:
	.loc	9 74 16 is_stmt 1               @ ../fibre-cpp/include\fibre/callback.hpp:74:16
	bl	_ZN5fibre6detail11get_defaultIvE3valEv
	.loc	9 74 9 is_stmt 0                @ ../fibre-cpp/include\fibre/callback.hpp:74:9
	b	.LBB14_3
.LBB14_3:
	.loc	9 75 5 epilogue_begin is_stmt 1 @ ../fibre-cpp/include\fibre/callback.hpp:75:5
	add	sp, #32
	pop	{r7, pc}
.Ltmp73:
.Lfunc_end14:
	.size	_ZN5fibre8CallbackIvJNS_10ReadResultEEE16invoke_and_clearES1_, .Lfunc_end14-_ZN5fibre8CallbackIvJNS_10ReadResultEEE16invoke_and_clearES1_
	.cfi_endproc
	.cantunwind
	.fnend
                                        @ -- End function
	.section	.text._ZN5fibre16Stm32UsbRxStream11cancel_readEj,"ax",%progbits
	.hidden	_ZN5fibre16Stm32UsbRxStream11cancel_readEj @ -- Begin function _ZN5fibre16Stm32UsbRxStream11cancel_readEj
	.globl	_ZN5fibre16Stm32UsbRxStream11cancel_readEj
	.p2align	2
	.type	_ZN5fibre16Stm32UsbRxStream11cancel_readEj,%function
	.code	16                              @ @_ZN5fibre16Stm32UsbRxStream11cancel_readEj
	.thumb_func
_ZN5fibre16Stm32UsbRxStream11cancel_readEj:
.Lfunc_begin15:
	.loc	3 133 0                         @ ../communication/interface_usb.cpp:133:0
	.fnstart
	.cfi_startproc
@ %bb.0:
	.pad	#8
	sub	sp, #8
	.cfi_def_cfa_offset 8
	str	r0, [sp, #4]
	str	r1, [sp]
.Ltmp74:
	.loc	3 135 1 prologue_end epilogue_begin @ ../communication/interface_usb.cpp:135:1
	add	sp, #8
	bx	lr
.Ltmp75:
.Lfunc_end15:
	.size	_ZN5fibre16Stm32UsbRxStream11cancel_readEj, .Lfunc_end15-_ZN5fibre16Stm32UsbRxStream11cancel_readEj
	.cfi_endproc
	.cantunwind
	.fnend
                                        @ -- End function
	.section	.text._ZN5fibre16Stm32UsbRxStream10did_finishEv,"ax",%progbits
	.hidden	_ZN5fibre16Stm32UsbRxStream10did_finishEv @ -- Begin function _ZN5fibre16Stm32UsbRxStream10did_finishEv
	.globl	_ZN5fibre16Stm32UsbRxStream10did_finishEv
	.p2align	2
	.type	_ZN5fibre16Stm32UsbRxStream10did_finishEv,%function
	.code	16                              @ @_ZN5fibre16Stm32UsbRxStream10did_finishEv
	.thumb_func
_ZN5fibre16Stm32UsbRxStream10did_finishEv:
.Lfunc_begin16:
	.loc	3 137 0                         @ ../communication/interface_usb.cpp:137:0
	.fnstart
	.cfi_startproc
@ %bb.0:
	.save	{r7, lr}
	push	{r7, lr}
	.cfi_def_cfa_offset 8
	.cfi_offset lr, -4
	.cfi_offset r7, -8
	.pad	#16
	sub	sp, #16
	.cfi_def_cfa_offset 24
	str	r0, [sp, #12]
	ldr	r1, [sp, #12]
.Ltmp76:
	.loc	3 138 23 prologue_end           @ ../communication/interface_usb.cpp:138:23
	ldr	r0, [r1, #16]
	.loc	3 138 14 is_stmt 0              @ ../communication/interface_usb.cpp:138:14
	str	r0, [sp, #8]
	movs	r0, #0
	.loc	3 139 13 is_stmt 1              @ ../communication/interface_usb.cpp:139:13
	str	r0, [r1, #16]
	.loc	3 140 5                         @ ../communication/interface_usb.cpp:140:5
	add.w	r0, r1, #8
	.loc	3 140 34 is_stmt 0              @ ../communication/interface_usb.cpp:140:34
	ldrb	r1, [r1, #5]
	lsls	r2, r1, #31
	movs	r1, #2
	cmp	r2, #0
	it	ne
	movne	r1, #0
	.loc	3 140 33                        @ ../communication/interface_usb.cpp:140:33
	strb.w	r1, [sp]
	.loc	3 140 74                        @ ../communication/interface_usb.cpp:140:74
	ldr	r1, [sp, #8]
	.loc	3 140 33                        @ ../communication/interface_usb.cpp:140:33
	str	r1, [sp, #4]
	.loc	3 140 16                        @ ../communication/interface_usb.cpp:140:16
	ldr	r1, [sp]
	ldr	r2, [sp, #4]
	bl	_ZN5fibre8CallbackIvJNS_10ReadResultEEE16invoke_and_clearES1_
	.loc	3 141 1 epilogue_begin is_stmt 1 @ ../communication/interface_usb.cpp:141:1
	add	sp, #16
	pop	{r7, pc}
.Ltmp77:
.Lfunc_end16:
	.size	_ZN5fibre16Stm32UsbRxStream10did_finishEv, .Lfunc_end16-_ZN5fibre16Stm32UsbRxStream10did_finishEv
	.cfi_endproc
	.cantunwind
	.fnend
                                        @ -- End function
	.section	.text.__cxx_global_var_init,"ax",%progbits
	.p2align	2                               @ -- Begin function __cxx_global_var_init
	.type	__cxx_global_var_init,%function
	.code	16                              @ @__cxx_global_var_init
	.thumb_func
__cxx_global_var_init:
.Lfunc_begin17:
	.file	17 "D:\\ikingtec\\Robot\\ODrive\\Firmware\\MDK-ARM" "../communication\\interface_usb.cpp"
	.loc	17 0 0                          @ ../communication\interface_usb.cpp:0:0
	.fnstart
	.cfi_startproc
@ %bb.0:
	.save	{r7, lr}
	push	{r7, lr}
	.cfi_def_cfa_offset 8
	.cfi_offset lr, -4
	.cfi_offset r7, -8
.Ltmp78:
	.loc	3 143 18 prologue_end           @ ../communication/interface_usb.cpp:143:18
	movw	r0, :lower16:usb_cdc_tx_stream
	movt	r0, :upper16:usb_cdc_tx_stream
	movs	r1, #129
	bl	_ZN5fibre16Stm32UsbTxStreamC2Eh
	.loc	3 143 36 epilogue_begin is_stmt 0 @ ../communication/interface_usb.cpp:143:36
	pop	{r7, pc}
.Ltmp79:
.Lfunc_end17:
	.size	__cxx_global_var_init, .Lfunc_end17-__cxx_global_var_init
	.cfi_endproc
	.cantunwind
	.fnend
                                        @ -- End function
	.section	.text._ZN5fibre16Stm32UsbTxStreamC2Eh,"axG",%progbits,_ZN5fibre16Stm32UsbTxStreamC2Eh,comdat
	.hidden	_ZN5fibre16Stm32UsbTxStreamC2Eh @ -- Begin function _ZN5fibre16Stm32UsbTxStreamC2Eh
	.weak	_ZN5fibre16Stm32UsbTxStreamC2Eh
	.p2align	2
	.type	_ZN5fibre16Stm32UsbTxStreamC2Eh,%function
	.code	16                              @ @_ZN5fibre16Stm32UsbTxStreamC2Eh
	.thumb_func
_ZN5fibre16Stm32UsbTxStreamC2Eh:
.Lfunc_begin18:
	.loc	3 25 0 is_stmt 1                @ ../communication/interface_usb.cpp:25:0
	.fnstart
	.cfi_startproc
@ %bb.0:
	.save	{r7, lr}
	push	{r7, lr}
	.cfi_def_cfa_offset 8
	.cfi_offset lr, -4
	.cfi_offset r7, -8
	.pad	#16
	sub	sp, #16
	.cfi_def_cfa_offset 24
                                        @ kill: def $r2 killed $r1
	str	r0, [sp, #12]
	strb.w	r1, [sp, #11]
	ldr	r0, [sp, #12]
.Ltmp80:
	.loc	3 25 5 prologue_end             @ ../communication/interface_usb.cpp:25:5
	str	r0, [sp]                        @ 4-byte Spill
	bl	_ZN5fibre15AsyncStreamSinkC2Ev
	ldr	r0, [sp]                        @ 4-byte Reload
	.loc	3 25 74 is_stmt 0               @ ../communication/interface_usb.cpp:25:74
	movw	r1, :lower16:_ZTVN5fibre16Stm32UsbTxStreamE
	movt	r1, :upper16:_ZTVN5fibre16Stm32UsbTxStreamE
	adds	r1, #8
	str	r1, [r0]
	.loc	3 25 60                         @ ../communication/interface_usb.cpp:25:60
	ldrb.w	r1, [sp, #11]
	.loc	3 25 46                         @ ../communication/interface_usb.cpp:25:46
	strb	r1, [r0, #4]
	movs	r1, #0
	.loc	3 32 10 is_stmt 1               @ ../communication/interface_usb.cpp:32:10
	str	r1, [sp, #4]                    @ 4-byte Spill
	strb	r1, [r0, #5]
	.loc	3 25 5                          @ ../communication/interface_usb.cpp:25:5
	adds	r0, #8
	bl	_ZN5fibre8CallbackIvJNS_11WriteResultEEEC2Ev
	ldr	r0, [sp]                        @ 4-byte Reload
	ldr	r1, [sp, #4]                    @ 4-byte Reload
	.loc	3 34 20                         @ ../communication/interface_usb.cpp:34:20
	str	r1, [r0, #16]
	.loc	3 25 75 epilogue_begin          @ ../communication/interface_usb.cpp:25:75
	add	sp, #16
	pop	{r7, pc}
.Ltmp81:
.Lfunc_end18:
	.size	_ZN5fibre16Stm32UsbTxStreamC2Eh, .Lfunc_end18-_ZN5fibre16Stm32UsbTxStreamC2Eh
	.cfi_endproc
	.cantunwind
	.fnend
                                        @ -- End function
	.section	.text.__cxx_global_var_init.1,"ax",%progbits
	.p2align	2                               @ -- Begin function __cxx_global_var_init.1
	.type	__cxx_global_var_init.1,%function
	.code	16                              @ @__cxx_global_var_init.1
	.thumb_func
__cxx_global_var_init.1:
.Lfunc_begin19:
	.loc	17 0 0                          @ ../communication\interface_usb.cpp:0:0
	.fnstart
	.cfi_startproc
@ %bb.0:
	.save	{r7, lr}
	push	{r7, lr}
	.cfi_def_cfa_offset 8
	.cfi_offset lr, -4
	.cfi_offset r7, -8
.Ltmp82:
	.loc	3 144 18 prologue_end           @ ../communication/interface_usb.cpp:144:18
	movw	r0, :lower16:usb_native_tx_stream
	movt	r0, :upper16:usb_native_tx_stream
	movs	r1, #131
	bl	_ZN5fibre16Stm32UsbTxStreamC2Eh
	.loc	3 144 39 epilogue_begin is_stmt 0 @ ../communication/interface_usb.cpp:144:39
	pop	{r7, pc}
.Ltmp83:
.Lfunc_end19:
	.size	__cxx_global_var_init.1, .Lfunc_end19-__cxx_global_var_init.1
	.cfi_endproc
	.cantunwind
	.fnend
                                        @ -- End function
	.section	.text.__cxx_global_var_init.2,"ax",%progbits
	.p2align	2                               @ -- Begin function __cxx_global_var_init.2
	.type	__cxx_global_var_init.2,%function
	.code	16                              @ @__cxx_global_var_init.2
	.thumb_func
__cxx_global_var_init.2:
.Lfunc_begin20:
	.loc	17 0 0 is_stmt 1                @ ../communication\interface_usb.cpp:0:0
	.fnstart
	.cfi_startproc
@ %bb.0:
	.save	{r7, lr}
	push	{r7, lr}
	.cfi_def_cfa_offset 8
	.cfi_offset lr, -4
	.cfi_offset r7, -8
.Ltmp84:
	.loc	3 145 18 prologue_end           @ ../communication/interface_usb.cpp:145:18
	movw	r0, :lower16:usb_cdc_rx_stream
	movt	r0, :upper16:usb_cdc_rx_stream
	movs	r1, #1
	bl	_ZN5fibre16Stm32UsbRxStreamC2Eh
	.loc	3 145 36 epilogue_begin is_stmt 0 @ ../communication/interface_usb.cpp:145:36
	pop	{r7, pc}
.Ltmp85:
.Lfunc_end20:
	.size	__cxx_global_var_init.2, .Lfunc_end20-__cxx_global_var_init.2
	.cfi_endproc
	.cantunwind
	.fnend
                                        @ -- End function
	.section	.text._ZN5fibre16Stm32UsbRxStreamC2Eh,"axG",%progbits,_ZN5fibre16Stm32UsbRxStreamC2Eh,comdat
	.hidden	_ZN5fibre16Stm32UsbRxStreamC2Eh @ -- Begin function _ZN5fibre16Stm32UsbRxStreamC2Eh
	.weak	_ZN5fibre16Stm32UsbRxStreamC2Eh
	.p2align	2
	.type	_ZN5fibre16Stm32UsbRxStreamC2Eh,%function
	.code	16                              @ @_ZN5fibre16Stm32UsbRxStreamC2Eh
	.thumb_func
_ZN5fibre16Stm32UsbRxStreamC2Eh:
.Lfunc_begin21:
	.loc	3 39 0 is_stmt 1                @ ../communication/interface_usb.cpp:39:0
	.fnstart
	.cfi_startproc
@ %bb.0:
	.save	{r7, lr}
	push	{r7, lr}
	.cfi_def_cfa_offset 8
	.cfi_offset lr, -4
	.cfi_offset r7, -8
	.pad	#16
	sub	sp, #16
	.cfi_def_cfa_offset 24
                                        @ kill: def $r2 killed $r1
	str	r0, [sp, #12]
	strb.w	r1, [sp, #11]
	ldr	r0, [sp, #12]
.Ltmp86:
	.loc	3 39 5 prologue_end             @ ../communication/interface_usb.cpp:39:5
	str	r0, [sp]                        @ 4-byte Spill
	bl	_ZN5fibre17AsyncStreamSourceC2Ev
	ldr	r0, [sp]                        @ 4-byte Reload
	.loc	3 39 74 is_stmt 0               @ ../communication/interface_usb.cpp:39:74
	movw	r1, :lower16:_ZTVN5fibre16Stm32UsbRxStreamE
	movt	r1, :upper16:_ZTVN5fibre16Stm32UsbRxStreamE
	adds	r1, #8
	str	r1, [r0]
	.loc	3 39 60                         @ ../communication/interface_usb.cpp:39:60
	ldrb.w	r1, [sp, #11]
	.loc	3 39 46                         @ ../communication/interface_usb.cpp:39:46
	strb	r1, [r0, #4]
	movs	r1, #0
	.loc	3 46 10 is_stmt 1               @ ../communication/interface_usb.cpp:46:10
	str	r1, [sp, #4]                    @ 4-byte Spill
	strb	r1, [r0, #5]
	.loc	3 39 5                          @ ../communication/interface_usb.cpp:39:5
	adds	r0, #8
	bl	_ZN5fibre8CallbackIvJNS_10ReadResultEEEC2Ev
	ldr	r0, [sp]                        @ 4-byte Reload
	ldr	r1, [sp, #4]                    @ 4-byte Reload
	.loc	3 48 14                         @ ../communication/interface_usb.cpp:48:14
	str	r1, [r0, #16]
	.loc	3 39 75 epilogue_begin          @ ../communication/interface_usb.cpp:39:75
	add	sp, #16
	pop	{r7, pc}
.Ltmp87:
.Lfunc_end21:
	.size	_ZN5fibre16Stm32UsbRxStreamC2Eh, .Lfunc_end21-_ZN5fibre16Stm32UsbRxStreamC2Eh
	.cfi_endproc
	.cantunwind
	.fnend
                                        @ -- End function
	.section	.text.__cxx_global_var_init.3,"ax",%progbits
	.p2align	2                               @ -- Begin function __cxx_global_var_init.3
	.type	__cxx_global_var_init.3,%function
	.code	16                              @ @__cxx_global_var_init.3
	.thumb_func
__cxx_global_var_init.3:
.Lfunc_begin22:
	.loc	17 0 0                          @ ../communication\interface_usb.cpp:0:0
	.fnstart
	.cfi_startproc
@ %bb.0:
	.save	{r7, lr}
	push	{r7, lr}
	.cfi_def_cfa_offset 8
	.cfi_offset lr, -4
	.cfi_offset r7, -8
.Ltmp88:
	.loc	3 146 18 prologue_end           @ ../communication/interface_usb.cpp:146:18
	movw	r0, :lower16:usb_native_rx_stream
	movt	r0, :upper16:usb_native_rx_stream
	movs	r1, #3
	bl	_ZN5fibre16Stm32UsbRxStreamC2Eh
	.loc	3 146 39 epilogue_begin is_stmt 0 @ ../communication/interface_usb.cpp:146:39
	pop	{r7, pc}
.Ltmp89:
.Lfunc_end22:
	.size	__cxx_global_var_init.3, .Lfunc_end22-__cxx_global_var_init.3
	.cfi_endproc
	.cantunwind
	.fnend
                                        @ -- End function
	.section	.text.__cxx_global_var_init.4,"ax",%progbits
	.p2align	2                               @ -- Begin function __cxx_global_var_init.4
	.type	__cxx_global_var_init.4,%function
	.code	16                              @ @__cxx_global_var_init.4
	.thumb_func
__cxx_global_var_init.4:
.Lfunc_begin23:
	.loc	17 0 0 is_stmt 1                @ ../communication\interface_usb.cpp:0:0
	.fnstart
	.cfi_startproc
@ %bb.0:
	.save	{r7, lr}
	push	{r7, lr}
	.cfi_def_cfa_offset 8
	.cfi_offset lr, -4
	.cfi_offset r7, -8
.Ltmp90:
	.loc	3 148 27 prologue_end           @ ../communication/interface_usb.cpp:148:27
	movw	r0, :lower16:fibre_over_cdc
	movt	r0, :upper16:fibre_over_cdc
	movw	r1, :lower16:usb_cdc_rx_stream
	movt	r1, :upper16:usb_cdc_rx_stream
	movw	r2, :lower16:usb_cdc_tx_stream
	movt	r2, :upper16:usb_cdc_tx_stream
	bl	_ZN5fibre25LegacyProtocolStreamBasedC2EPNS_17AsyncStreamSourceEPNS_15AsyncStreamSinkE
	.loc	3 148 63 epilogue_begin is_stmt 0 @ ../communication/interface_usb.cpp:148:63
	pop	{r7, pc}
.Ltmp91:
.Lfunc_end23:
	.size	__cxx_global_var_init.4, .Lfunc_end23-__cxx_global_var_init.4
	.cfi_endproc
	.cantunwind
	.fnend
                                        @ -- End function
	.section	.text._ZN5fibre25LegacyProtocolStreamBasedC2EPNS_17AsyncStreamSourceEPNS_15AsyncStreamSinkE,"axG",%progbits,_ZN5fibre25LegacyProtocolStreamBasedC2EPNS_17AsyncStreamSourceEPNS_15AsyncStreamSinkE,comdat
	.hidden	_ZN5fibre25LegacyProtocolStreamBasedC2EPNS_17AsyncStreamSourceEPNS_15AsyncStreamSinkE @ -- Begin function _ZN5fibre25LegacyProtocolStreamBasedC2EPNS_17AsyncStreamSourceEPNS_15AsyncStreamSinkE
	.weak	_ZN5fibre25LegacyProtocolStreamBasedC2EPNS_17AsyncStreamSourceEPNS_15AsyncStreamSinkE
	.p2align	2
	.type	_ZN5fibre25LegacyProtocolStreamBasedC2EPNS_17AsyncStreamSourceEPNS_15AsyncStreamSinkE,%function
	.code	16                              @ @_ZN5fibre25LegacyProtocolStreamBasedC2EPNS_17AsyncStreamSourceEPNS_15AsyncStreamSinkE
	.thumb_func
_ZN5fibre25LegacyProtocolStreamBasedC2EPNS_17AsyncStreamSourceEPNS_15AsyncStreamSinkE:
.Lfunc_begin24:
	.loc	11 154 0 is_stmt 1              @ ../fibre-cpp/include\fibre/../../legacy_protocol.hpp:154:0
	.fnstart
	.cfi_startproc
@ %bb.0:
	.save	{r7, lr}
	push	{r7, lr}
	.cfi_def_cfa_offset 8
	.cfi_offset lr, -4
	.cfi_offset r7, -8
	.pad	#24
	sub	sp, #24
	.cfi_def_cfa_offset 32
	str	r0, [sp, #20]
	str	r1, [sp, #16]
	str	r2, [sp, #12]
	ldr	r0, [sp, #20]
.Ltmp92:
	.loc	11 154 22 prologue_end          @ ../fibre-cpp/include\fibre/../../legacy_protocol.hpp:154:22
	str	r0, [sp, #8]                    @ 4-byte Spill
	ldr	r1, [sp, #16]
	.loc	11 154 11 is_stmt 0             @ ../fibre-cpp/include\fibre/../../legacy_protocol.hpp:154:11
	bl	_ZN5fibre15PacketUnwrapperC2EPNS_17AsyncStreamSourceE
	ldr	r0, [sp, #8]                    @ 4-byte Reload
	.loc	11 154 35                       @ ../fibre-cpp/include\fibre/../../legacy_protocol.hpp:154:35
	adds	r0, #44
	.loc	11 154 44                       @ ../fibre-cpp/include\fibre/../../legacy_protocol.hpp:154:44
	str	r0, [sp, #4]                    @ 4-byte Spill
	ldr	r1, [sp, #12]
	.loc	11 154 35                       @ ../fibre-cpp/include\fibre/../../legacy_protocol.hpp:154:35
	bl	_ZN5fibre13PacketWrapperC2EPNS_15AsyncStreamSinkE
	ldr	r2, [sp, #4]                    @ 4-byte Reload
	ldr	r1, [sp, #8]                    @ 4-byte Reload
	.loc	11 168 31 is_stmt 1             @ ../fibre-cpp/include\fibre/../../legacy_protocol.hpp:168:31
	add.w	r0, r1, #88
	movs	r3, #127
	.loc	11 168 46 is_stmt 0             @ ../fibre-cpp/include\fibre/../../legacy_protocol.hpp:168:46
	bl	_ZN5fibre25LegacyProtocolPacketBasedC2EPNS_17AsyncStreamSourceEPNS_15AsyncStreamSinkEj
	ldr	r0, [sp, #8]                    @ 4-byte Reload
	.loc	11 154 57 epilogue_begin is_stmt 1 @ ../fibre-cpp/include\fibre/../../legacy_protocol.hpp:154:57
	add	sp, #24
	pop	{r7, pc}
.Ltmp93:
.Lfunc_end24:
	.size	_ZN5fibre25LegacyProtocolStreamBasedC2EPNS_17AsyncStreamSourceEPNS_15AsyncStreamSinkE, .Lfunc_end24-_ZN5fibre25LegacyProtocolStreamBasedC2EPNS_17AsyncStreamSourceEPNS_15AsyncStreamSinkE
	.cfi_endproc
	.cantunwind
	.fnend
                                        @ -- End function
	.section	.text.__cxx_global_var_init.5,"ax",%progbits
	.p2align	2                               @ -- Begin function __cxx_global_var_init.5
	.type	__cxx_global_var_init.5,%function
	.code	16                              @ @__cxx_global_var_init.5
	.thumb_func
__cxx_global_var_init.5:
.Lfunc_begin25:
	.loc	17 0 0                          @ ../communication\interface_usb.cpp:0:0
	.fnstart
	.cfi_startproc
@ %bb.0:
	.save	{r7, lr}
	push	{r7, lr}
	.cfi_def_cfa_offset 8
	.cfi_offset lr, -4
	.cfi_offset r7, -8
.Ltmp94:
	.loc	3 149 27 prologue_end           @ ../communication/interface_usb.cpp:149:27
	movw	r0, :lower16:fibre_over_usb
	movt	r0, :upper16:fibre_over_usb
	movw	r1, :lower16:usb_native_rx_stream
	movt	r1, :upper16:usb_native_rx_stream
	movw	r2, :lower16:usb_native_tx_stream
	movt	r2, :upper16:usb_native_tx_stream
	movs	r3, #63
	bl	_ZN5fibre25LegacyProtocolPacketBasedC2EPNS_17AsyncStreamSourceEPNS_15AsyncStreamSinkEj
	.loc	3 149 107 epilogue_begin is_stmt 0 @ ../communication/interface_usb.cpp:149:107
	pop	{r7, pc}
.Ltmp95:
.Lfunc_end25:
	.size	__cxx_global_var_init.5, .Lfunc_end25-__cxx_global_var_init.5
	.cfi_endproc
	.cantunwind
	.fnend
                                        @ -- End function
	.section	.text._ZN5fibre25LegacyProtocolPacketBasedC2EPNS_17AsyncStreamSourceEPNS_15AsyncStreamSinkEj,"axG",%progbits,_ZN5fibre25LegacyProtocolPacketBasedC2EPNS_17AsyncStreamSourceEPNS_15AsyncStreamSinkEj,comdat
	.hidden	_ZN5fibre25LegacyProtocolPacketBasedC2EPNS_17AsyncStreamSourceEPNS_15AsyncStreamSinkEj @ -- Begin function _ZN5fibre25LegacyProtocolPacketBasedC2EPNS_17AsyncStreamSourceEPNS_15AsyncStreamSinkEj
	.weak	_ZN5fibre25LegacyProtocolPacketBasedC2EPNS_17AsyncStreamSourceEPNS_15AsyncStreamSinkEj
	.p2align	2
	.type	_ZN5fibre25LegacyProtocolPacketBasedC2EPNS_17AsyncStreamSourceEPNS_15AsyncStreamSinkEj,%function
	.code	16                              @ @_ZN5fibre25LegacyProtocolPacketBasedC2EPNS_17AsyncStreamSourceEPNS_15AsyncStreamSinkEj
	.thumb_func
_ZN5fibre25LegacyProtocolPacketBasedC2EPNS_17AsyncStreamSourceEPNS_15AsyncStreamSinkEj:
.Lfunc_begin26:
	.loc	11 94 0 is_stmt 1               @ ../fibre-cpp/include\fibre/../../legacy_protocol.hpp:94:0
	.fnstart
	.cfi_startproc
@ %bb.0:
	.save	{r7, lr}
	push	{r7, lr}
	.cfi_def_cfa_offset 8
	.cfi_offset lr, -4
	.cfi_offset r7, -8
	.pad	#24
	sub	sp, #24
	.cfi_def_cfa_offset 32
	str	r0, [sp, #20]
	str	r1, [sp, #16]
	str	r2, [sp, #12]
	str	r3, [sp, #8]
	ldr	r1, [sp, #20]
.Ltmp96:
	.loc	11 94 23 prologue_end           @ ../fibre-cpp/include\fibre/../../legacy_protocol.hpp:94:23
	str	r1, [sp]                        @ 4-byte Spill
	ldr	r0, [sp, #16]
	.loc	11 94 11 is_stmt 0              @ ../fibre-cpp/include\fibre/../../legacy_protocol.hpp:94:11
	str	r0, [r1]
	.loc	11 94 48                        @ ../fibre-cpp/include\fibre/../../legacy_protocol.hpp:94:48
	ldr	r0, [sp, #12]
	.loc	11 94 36                        @ ../fibre-cpp/include\fibre/../../legacy_protocol.hpp:94:36
	str	r0, [r1, #4]
	movs	r0, #128
	.loc	11 94 86                        @ ../fibre-cpp/include\fibre/../../legacy_protocol.hpp:94:86
	str	r0, [sp, #4]
	add	r0, sp, #8
	add	r1, sp, #4
	.loc	11 94 69                        @ ../fibre-cpp/include\fibre/../../legacy_protocol.hpp:94:69
	bl	_ZNSt3__23minB7v180000IjEERKT_S3_S3_
	mov	r1, r0
	ldr	r0, [sp]                        @ 4-byte Reload
	ldr	r1, [r1]
	.loc	11 94 61                        @ ../fibre-cpp/include\fibre/../../legacy_protocol.hpp:94:61
	str	r1, [r0, #8]
	movs	r1, #0
	.loc	11 102 20 is_stmt 1             @ ../fibre-cpp/include\fibre/../../legacy_protocol.hpp:102:20
	str.w	r1, [r0, #268]
	.loc	11 103 14                       @ ../fibre-cpp/include\fibre/../../legacy_protocol.hpp:103:14
	str.w	r1, [r0, #272]
	.loc	11 104 18                       @ ../fibre-cpp/include\fibre/../../legacy_protocol.hpp:104:18
	strb.w	r1, [r0, #276]
	.loc	11 108 62                       @ ../fibre-cpp/include\fibre/../../legacy_protocol.hpp:108:62
	add.w	r0, r0, #280
	.loc	11 108 76 is_stmt 0             @ ../fibre-cpp/include\fibre/../../legacy_protocol.hpp:108:76
	bl	_ZN5fibre8CallbackIvJPNS_25LegacyProtocolPacketBasedENS_12StreamStatusEEEC2EDn
	ldr	r0, [sp]                        @ 4-byte Reload
	.loc	11 94 105 epilogue_begin is_stmt 1 @ ../fibre-cpp/include\fibre/../../legacy_protocol.hpp:94:105
	add	sp, #24
	pop	{r7, pc}
.Ltmp97:
.Lfunc_end26:
	.size	_ZN5fibre25LegacyProtocolPacketBasedC2EPNS_17AsyncStreamSourceEPNS_15AsyncStreamSinkEj, .Lfunc_end26-_ZN5fibre25LegacyProtocolPacketBasedC2EPNS_17AsyncStreamSourceEPNS_15AsyncStreamSinkEj
	.cfi_endproc
	.cantunwind
	.fnend
                                        @ -- End function
	.section	.text.__cxx_global_var_init.6,"ax",%progbits
	.p2align	2                               @ -- Begin function __cxx_global_var_init.6
	.type	__cxx_global_var_init.6,%function
	.code	16                              @ @__cxx_global_var_init.6
	.thumb_func
__cxx_global_var_init.6:
.Lfunc_begin27:
	.loc	17 0 0                          @ ../communication\interface_usb.cpp:0:0
	.fnstart
	.cfi_startproc
@ %bb.0:
	.save	{r7, lr}
	push	{r7, lr}
	.cfi_def_cfa_offset 8
	.cfi_offset lr, -4
	.cfi_offset r7, -8
.Ltmp98:
	.loc	3 151 38 prologue_end           @ ../communication/interface_usb.cpp:151:38
	movw	r0, :lower16:usb_cdc_tx_multiplexer
	movt	r0, :upper16:usb_cdc_tx_multiplexer
	movw	r1, :lower16:usb_cdc_tx_stream
	movt	r1, :upper16:usb_cdc_tx_stream
	bl	_ZN5fibre26AsyncStreamSinkMultiplexerILj2EEC2ERNS_15AsyncStreamSinkE
	.loc	3 151 61 epilogue_begin is_stmt 0 @ ../communication/interface_usb.cpp:151:61
	pop	{r7, pc}
.Ltmp99:
.Lfunc_end27:
	.size	__cxx_global_var_init.6, .Lfunc_end27-__cxx_global_var_init.6
	.cfi_endproc
	.cantunwind
	.fnend
                                        @ -- End function
	.section	.text._ZN5fibre26AsyncStreamSinkMultiplexerILj2EEC2ERNS_15AsyncStreamSinkE,"axG",%progbits,_ZN5fibre26AsyncStreamSinkMultiplexerILj2EEC2ERNS_15AsyncStreamSinkE,comdat
	.hidden	_ZN5fibre26AsyncStreamSinkMultiplexerILj2EEC2ERNS_15AsyncStreamSinkE @ -- Begin function _ZN5fibre26AsyncStreamSinkMultiplexerILj2EEC2ERNS_15AsyncStreamSinkE
	.weak	_ZN5fibre26AsyncStreamSinkMultiplexerILj2EEC2ERNS_15AsyncStreamSinkE
	.p2align	2
	.type	_ZN5fibre26AsyncStreamSinkMultiplexerILj2EEC2ERNS_15AsyncStreamSinkE,%function
	.code	16                              @ @_ZN5fibre26AsyncStreamSinkMultiplexerILj2EEC2ERNS_15AsyncStreamSinkE
	.thumb_func
_ZN5fibre26AsyncStreamSinkMultiplexerILj2EEC2ERNS_15AsyncStreamSinkE:
.Lfunc_begin28:
	.loc	12 104 0 is_stmt 1              @ ../fibre-cpp/include\fibre/../../stream_utils.hpp:104:0
	.fnstart
	.cfi_startproc
@ %bb.0:
	.save	{r7, lr}
	push	{r7, lr}
	.cfi_def_cfa_offset 8
	.cfi_offset lr, -4
	.cfi_offset r7, -8
	.pad	#32
	sub	sp, #32
	.cfi_def_cfa_offset 40
	str	r0, [sp, #24]
	str	r1, [sp, #20]
	ldr	r0, [sp, #24]
	str	r0, [sp, #8]                    @ 4-byte Spill
	str	r0, [sp, #28]
.Ltmp100:
	.loc	12 104 5 prologue_end           @ ../fibre-cpp/include\fibre/../../stream_utils.hpp:104:5
	bl	_ZN5fibre15AsyncStreamSinkC2Ev
	ldr	r1, [sp, #8]                    @ 4-byte Reload
	.loc	12 104 69 is_stmt 0             @ ../fibre-cpp/include\fibre/../../stream_utils.hpp:104:69
	movw	r0, :lower16:_ZTVN5fibre26AsyncStreamSinkMultiplexerILj2EEE
	movt	r0, :upper16:_ZTVN5fibre26AsyncStreamSinkMultiplexerILj2EEE
	adds	r0, #8
	str	r0, [r1]
	.loc	12 104 63                       @ ../fibre-cpp/include\fibre/../../stream_utils.hpp:104:63
	ldr	r0, [sp, #20]
	.loc	12 104 57                       @ ../fibre-cpp/include\fibre/../../stream_utils.hpp:104:57
	str	r0, [r1, #4]
	.loc	12 104 5                        @ ../fibre-cpp/include\fibre/../../stream_utils.hpp:104:5
	add.w	r0, r1, #8
	adds	r1, #48
	str	r1, [sp, #12]                   @ 4-byte Spill
	str	r0, [sp, #16]                   @ 4-byte Spill
	b	.LBB28_1
.LBB28_1:                               @ =>This Inner Loop Header: Depth=1
	ldr	r0, [sp, #16]                   @ 4-byte Reload
	str	r0, [sp, #4]                    @ 4-byte Spill
	bl	_ZNSt3__25tupleIJbN5fibre16generic_bufptr_tIKhEENS1_8CallbackIvJNS1_11WriteResultEEEEEEC2B7v180000INS_37__is_implicitly_default_constructibleELi0EEEv
	ldr	r0, [sp, #4]                    @ 4-byte Reload
	ldr	r2, [sp, #12]                   @ 4-byte Reload
	add.w	r1, r0, #20
	mov	r0, r1
	cmp	r1, r2
	str	r0, [sp, #16]                   @ 4-byte Spill
	bne	.LBB28_1
	b	.LBB28_2
.LBB28_2:
	.loc	12 0 5                          @ ../fibre-cpp/include\fibre/../../stream_utils.hpp:0:5
	ldr	r1, [sp, #8]                    @ 4-byte Reload
	movs	r0, #0
	.loc	12 182 12 is_stmt 1             @ ../fibre-cpp/include\fibre/../../stream_utils.hpp:182:12
	str	r0, [r1, #48]
	.loc	12 183 20                       @ ../fibre-cpp/include\fibre/../../stream_utils.hpp:183:20
	str	r0, [r1, #52]
	.loc	12 104 70                       @ ../fibre-cpp/include\fibre/../../stream_utils.hpp:104:70
	ldr	r0, [sp, #28]
	.loc	12 104 70 epilogue_begin is_stmt 0 @ ../fibre-cpp/include\fibre/../../stream_utils.hpp:104:70
	add	sp, #32
	pop	{r7, pc}
.Ltmp101:
.Lfunc_end28:
	.size	_ZN5fibre26AsyncStreamSinkMultiplexerILj2EEC2ERNS_15AsyncStreamSinkE, .Lfunc_end28-_ZN5fibre26AsyncStreamSinkMultiplexerILj2EEC2ERNS_15AsyncStreamSinkE
	.cfi_endproc
	.cantunwind
	.fnend
                                        @ -- End function
	.section	.text.__cxx_global_var_init.7,"ax",%progbits
	.p2align	2                               @ -- Begin function __cxx_global_var_init.7
	.type	__cxx_global_var_init.7,%function
	.code	16                              @ @__cxx_global_var_init.7
	.thumb_func
__cxx_global_var_init.7:
.Lfunc_begin29:
	.loc	17 0 0 is_stmt 1                @ ../communication\interface_usb.cpp:0:0
	.fnstart
	.cfi_startproc
@ %bb.0:
	.save	{r7, lr}
	push	{r7, lr}
	.cfi_def_cfa_offset 8
	.cfi_offset lr, -4
	.cfi_offset r7, -8
.Ltmp102:
	.loc	3 152 31 prologue_end           @ ../communication/interface_usb.cpp:152:31
	movw	r0, :lower16:usb_cdc_stdout_sink
	movt	r0, :upper16:usb_cdc_stdout_sink
	movw	r1, :lower16:usb_cdc_tx_multiplexer
	movt	r1, :upper16:usb_cdc_tx_multiplexer
	bl	_ZN5fibre18BufferedStreamSinkILj64EEC2ERNS_15AsyncStreamSinkE
	.loc	3 152 51 epilogue_begin is_stmt 0 @ ../communication/interface_usb.cpp:152:51
	pop	{r7, pc}
.Ltmp103:
.Lfunc_end29:
	.size	__cxx_global_var_init.7, .Lfunc_end29-__cxx_global_var_init.7
	.cfi_endproc
	.cantunwind
	.fnend
                                        @ -- End function
	.section	.text._ZN5fibre18BufferedStreamSinkILj64EEC2ERNS_15AsyncStreamSinkE,"axG",%progbits,_ZN5fibre18BufferedStreamSinkILj64EEC2ERNS_15AsyncStreamSinkE,comdat
	.hidden	_ZN5fibre18BufferedStreamSinkILj64EEC2ERNS_15AsyncStreamSinkE @ -- Begin function _ZN5fibre18BufferedStreamSinkILj64EEC2ERNS_15AsyncStreamSinkE
	.weak	_ZN5fibre18BufferedStreamSinkILj64EEC2ERNS_15AsyncStreamSinkE
	.p2align	2
	.type	_ZN5fibre18BufferedStreamSinkILj64EEC2ERNS_15AsyncStreamSinkE,%function
	.code	16                              @ @_ZN5fibre18BufferedStreamSinkILj64EEC2ERNS_15AsyncStreamSinkE
	.thumb_func
_ZN5fibre18BufferedStreamSinkILj64EEC2ERNS_15AsyncStreamSinkE:
.Lfunc_begin30:
	.loc	12 12 0 is_stmt 1               @ ../fibre-cpp/include\fibre/../../stream_utils.hpp:12:0
	.fnstart
	.cfi_startproc
@ %bb.0:
	.pad	#8
	sub	sp, #8
	.cfi_def_cfa_offset 8
	str	r0, [sp, #4]
	str	r1, [sp]
	ldr	r0, [sp, #4]
	movs	r1, #0
.Ltmp104:
	.loc	12 87 12 prologue_end           @ ../fibre-cpp/include\fibre/../../stream_utils.hpp:87:12
	str	r1, [r0, #64]
	.loc	12 88 12                        @ ../fibre-cpp/include\fibre/../../stream_utils.hpp:88:12
	str	r1, [r0, #68]
	.loc	12 89 10                        @ ../fibre-cpp/include\fibre/../../stream_utils.hpp:89:10
	strb.w	r1, [r0, #72]
	.loc	12 90 20                        @ ../fibre-cpp/include\fibre/../../stream_utils.hpp:90:20
	str	r1, [r0, #76]
	.loc	12 12 55                        @ ../fibre-cpp/include\fibre/../../stream_utils.hpp:12:55
	ldr	r1, [sp]
	.loc	12 12 49 is_stmt 0              @ ../fibre-cpp/include\fibre/../../stream_utils.hpp:12:49
	str	r1, [r0, #80]
	.loc	12 12 62 epilogue_begin         @ ../fibre-cpp/include\fibre/../../stream_utils.hpp:12:62
	add	sp, #8
	bx	lr
.Ltmp105:
.Lfunc_end30:
	.size	_ZN5fibre18BufferedStreamSinkILj64EEC2ERNS_15AsyncStreamSinkE, .Lfunc_end30-_ZN5fibre18BufferedStreamSinkILj64EEC2ERNS_15AsyncStreamSinkE
	.cfi_endproc
	.cantunwind
	.fnend
                                        @ -- End function
	.section	.text.__cxx_global_var_init.8,"ax",%progbits
	.p2align	2                               @ -- Begin function __cxx_global_var_init.8
	.type	__cxx_global_var_init.8,%function
	.code	16                              @ @__cxx_global_var_init.8
	.thumb_func
__cxx_global_var_init.8:
.Lfunc_begin31:
	.loc	17 0 0 is_stmt 1                @ ../communication\interface_usb.cpp:0:0
	.fnstart
	.cfi_startproc
@ %bb.0:
	.save	{r7, lr}
	push	{r7, lr}
	.cfi_def_cfa_offset 8
	.cfi_offset lr, -4
	.cfi_offset r7, -8
.Ltmp106:
	.loc	3 153 15 prologue_end           @ ../communication/interface_usb.cpp:153:15
	movw	r0, :lower16:ascii_over_cdc
	movt	r0, :upper16:ascii_over_cdc
	movw	r1, :lower16:usb_cdc_rx_stream
	movt	r1, :upper16:usb_cdc_rx_stream
	movw	r2, :lower16:usb_cdc_tx_multiplexer
	movt	r2, :upper16:usb_cdc_tx_multiplexer
	bl	_ZN13AsciiProtocolC2EPN5fibre17AsyncStreamSourceEPNS0_15AsyncStreamSinkE
	.loc	3 153 51 epilogue_begin is_stmt 0 @ ../communication/interface_usb.cpp:153:51
	pop	{r7, pc}
.Ltmp107:
.Lfunc_end31:
	.size	__cxx_global_var_init.8, .Lfunc_end31-__cxx_global_var_init.8
	.cfi_endproc
	.cantunwind
	.fnend
                                        @ -- End function
	.section	.text._ZN13AsciiProtocolC2EPN5fibre17AsyncStreamSourceEPNS0_15AsyncStreamSinkE,"axG",%progbits,_ZN13AsciiProtocolC2EPN5fibre17AsyncStreamSourceEPNS0_15AsyncStreamSinkE,comdat
	.hidden	_ZN13AsciiProtocolC2EPN5fibre17AsyncStreamSourceEPNS0_15AsyncStreamSinkE @ -- Begin function _ZN13AsciiProtocolC2EPN5fibre17AsyncStreamSourceEPNS0_15AsyncStreamSinkE
	.weak	_ZN13AsciiProtocolC2EPN5fibre17AsyncStreamSourceEPNS0_15AsyncStreamSinkE
	.p2align	2
	.type	_ZN13AsciiProtocolC2EPN5fibre17AsyncStreamSourceEPNS0_15AsyncStreamSinkE,%function
	.code	16                              @ @_ZN13AsciiProtocolC2EPN5fibre17AsyncStreamSourceEPNS0_15AsyncStreamSinkE
	.thumb_func
_ZN13AsciiProtocolC2EPN5fibre17AsyncStreamSourceEPNS0_15AsyncStreamSinkE:
.Lfunc_begin32:
	.loc	14 12 0 is_stmt 1               @ ../communication/ascii_protocol.hpp:12:0
	.fnstart
	.cfi_startproc
@ %bb.0:
	.save	{r7, lr}
	push	{r7, lr}
	.cfi_def_cfa_offset 8
	.cfi_offset lr, -4
	.cfi_offset r7, -8
	.pad	#16
	sub	sp, #16
	.cfi_def_cfa_offset 24
	str	r0, [sp, #12]
	str	r1, [sp, #8]
	str	r2, [sp, #4]
	ldr	r0, [sp, #12]
.Ltmp108:
	.loc	14 12 23 prologue_end           @ ../communication/ascii_protocol.hpp:12:23
	str	r0, [sp]                        @ 4-byte Spill
	ldr	r1, [sp, #8]
	.loc	14 12 11 is_stmt 0              @ ../communication/ascii_protocol.hpp:12:11
	str	r1, [r0]
	movs	r1, #0
	.loc	14 38 14 is_stmt 1              @ ../communication/ascii_protocol.hpp:38:14
	str	r1, [r0, #4]
	movs	r1, #1
	.loc	14 41 10                        @ ../communication/ascii_protocol.hpp:41:10
	strb.w	r1, [r0, #264]
	.loc	14 12 36                        @ ../communication/ascii_protocol.hpp:12:36
	add.w	r0, r0, #268
	.loc	14 12 43 is_stmt 0              @ ../communication/ascii_protocol.hpp:12:43
	ldr	r1, [sp, #4]
	.loc	14 12 36                        @ ../communication/ascii_protocol.hpp:12:36
	bl	_ZN5fibre18BufferedStreamSinkILj512EEC2ERNS_15AsyncStreamSinkE
	ldr	r0, [sp]                        @ 4-byte Reload
	.loc	14 12 56 epilogue_begin         @ ../communication/ascii_protocol.hpp:12:56
	add	sp, #16
	pop	{r7, pc}
.Ltmp109:
.Lfunc_end32:
	.size	_ZN13AsciiProtocolC2EPN5fibre17AsyncStreamSourceEPNS0_15AsyncStreamSinkE, .Lfunc_end32-_ZN13AsciiProtocolC2EPN5fibre17AsyncStreamSourceEPNS0_15AsyncStreamSinkE
	.cfi_endproc
	.cantunwind
	.fnend
                                        @ -- End function
	.section	.text.usb_rx_process_packet,"ax",%progbits
	.hidden	usb_rx_process_packet           @ -- Begin function usb_rx_process_packet
	.globl	usb_rx_process_packet
	.p2align	2
	.type	usb_rx_process_packet,%function
	.code	16                              @ @usb_rx_process_packet
	.thumb_func
usb_rx_process_packet:
.Lfunc_begin33:
	.loc	3 223 0 is_stmt 1               @ ../communication/interface_usb.cpp:223:0
	.fnstart
	.cfi_startproc
@ %bb.0:
	.save	{r7, lr}
	push	{r7, lr}
	.cfi_def_cfa_offset 8
	.cfi_offset lr, -4
	.cfi_offset r7, -8
	.pad	#16
	sub	sp, #16
	.cfi_def_cfa_offset 24
                                        @ kill: def $r3 killed $r2
	str	r0, [sp, #12]
	str	r1, [sp, #8]
	strb.w	r2, [sp, #7]
.Ltmp110:
	.loc	3 224 9 prologue_end            @ ../communication/interface_usb.cpp:224:9
	ldrb.w	r0, [sp, #7]
	.loc	3 224 37 is_stmt 0              @ ../communication/interface_usb.cpp:224:37
	cmp	r0, #1
	bne	.LBB33_3
	b	.LBB33_1
.LBB33_1:
	.loc	3 224 58                        @ ../communication/interface_usb.cpp:224:58
	movw	r0, :lower16:usb_cdc_rx_stream
	movt	r0, :upper16:usb_cdc_rx_stream
	ldr	r0, [r0, #16]
.Ltmp111:
	.loc	3 224 9                         @ ../communication/interface_usb.cpp:224:9
	cbz	r0, .LBB33_3
	b	.LBB33_2
.LBB33_2:
.Ltmp112:
	.loc	3 225 38 is_stmt 1              @ ../communication/interface_usb.cpp:225:38
	ldr	r2, [sp, #8]
	.loc	3 225 35 is_stmt 0              @ ../communication/interface_usb.cpp:225:35
	movw	r1, :lower16:usb_cdc_rx_stream
	movt	r1, :upper16:usb_cdc_rx_stream
	ldr	r0, [r1, #16]
	add	r0, r2
	str	r0, [r1, #16]
	.loc	3 226 22 is_stmt 1              @ ../communication/interface_usb.cpp:226:22
	movw	r0, :lower16:usb_event_queue
	movt	r0, :upper16:usb_event_queue
	ldr	r0, [r0]
	movs	r1, #5
	movs	r2, #0
	.loc	3 226 9 is_stmt 0               @ ../communication/interface_usb.cpp:226:9
	bl	osMessagePut
	.loc	3 227 5 is_stmt 1               @ ../communication/interface_usb.cpp:227:5
	b	.LBB33_7
.Ltmp113:
.LBB33_3:
	.loc	3 227 16 is_stmt 0              @ ../communication/interface_usb.cpp:227:16
	ldrb.w	r0, [sp, #7]
	.loc	3 227 47                        @ ../communication/interface_usb.cpp:227:47
	cmp	r0, #3
	bne	.LBB33_6
	b	.LBB33_4
.LBB33_4:
	.loc	3 227 71                        @ ../communication/interface_usb.cpp:227:71
	movw	r0, :lower16:usb_native_rx_stream
	movt	r0, :upper16:usb_native_rx_stream
	ldr	r0, [r0, #16]
.Ltmp114:
	.loc	3 227 16                        @ ../communication/interface_usb.cpp:227:16
	cbz	r0, .LBB33_6
	b	.LBB33_5
.LBB33_5:
.Ltmp115:
	.loc	3 228 41 is_stmt 1              @ ../communication/interface_usb.cpp:228:41
	ldr	r2, [sp, #8]
	.loc	3 228 38 is_stmt 0              @ ../communication/interface_usb.cpp:228:38
	movw	r1, :lower16:usb_native_rx_stream
	movt	r1, :upper16:usb_native_rx_stream
	ldr	r0, [r1, #16]
	add	r0, r2
	str	r0, [r1, #16]
	.loc	3 229 22 is_stmt 1              @ ../communication/interface_usb.cpp:229:22
	movw	r0, :lower16:usb_event_queue
	movt	r0, :upper16:usb_event_queue
	ldr	r0, [r0]
	movs	r1, #6
	movs	r2, #0
	.loc	3 229 9 is_stmt 0               @ ../communication/interface_usb.cpp:229:9
	bl	osMessagePut
	.loc	3 230 5 is_stmt 1               @ ../communication/interface_usb.cpp:230:5
	b	.LBB33_6
.Ltmp116:
.LBB33_6:
	.loc	3 0 5 is_stmt 0                 @ ../communication/interface_usb.cpp:0:5
	b	.LBB33_7
.LBB33_7:
	.loc	3 231 1 epilogue_begin is_stmt 1 @ ../communication/interface_usb.cpp:231:1
	add	sp, #16
	pop	{r7, pc}
.Ltmp117:
.Lfunc_end33:
	.size	usb_rx_process_packet, .Lfunc_end33-usb_rx_process_packet
	.cfi_endproc
	.cantunwind
	.fnend
                                        @ -- End function
	.section	.text.start_usb_server,"ax",%progbits
	.hidden	start_usb_server                @ -- Begin function start_usb_server
	.globl	start_usb_server
	.p2align	2
	.type	start_usb_server,%function
	.code	16                              @ @start_usb_server
	.thumb_func
start_usb_server:
.Lfunc_begin34:
	.loc	3 233 0                         @ ../communication/interface_usb.cpp:233:0
	.fnstart
	.cfi_startproc
@ %bb.0:
	.save	{r7, lr}
	push	{r7, lr}
	.cfi_def_cfa_offset 8
	.cfi_offset lr, -4
	.cfi_offset r7, -8
	.pad	#24
	sub	sp, #24
	.cfi_def_cfa_offset 32
.Ltmp118:
	.loc	3 235 5 prologue_end            @ ../communication/interface_usb.cpp:235:5
	movw	r12, :lower16:.L__const.start_usb_server.os_thread_def_usb_server_thread_def
	movt	r12, :upper16:.L__const.start_usb_server.os_thread_def_usb_server_thread_def
	ldr.w	r0, [r12]
	ldr.w	r1, [r12, #4]
	ldr.w	r2, [r12, #8]
	ldr.w	r3, [r12, #12]
	ldr.w	r12, [r12, #16]
	str.w	r12, [sp, #20]
	str	r3, [sp, #16]
	str	r2, [sp, #12]
	str	r1, [sp, #8]
	str	r0, [sp, #4]
	add	r0, sp, #4
	movs	r1, #0
	.loc	3 236 18                        @ ../communication/interface_usb.cpp:236:18
	bl	osThreadCreate
	.loc	3 236 16 is_stmt 0              @ ../communication/interface_usb.cpp:236:16
	movw	r1, :lower16:usb_thread
	movt	r1, :upper16:usb_thread
	str	r0, [r1]
	.loc	3 237 1 epilogue_begin is_stmt 1 @ ../communication/interface_usb.cpp:237:1
	add	sp, #24
	pop	{r7, pc}
.Ltmp119:
.Lfunc_end34:
	.size	start_usb_server, .Lfunc_end34-start_usb_server
	.cfi_endproc
	.cantunwind
	.fnend
                                        @ -- End function
	.section	.text._ZL17usb_server_threadPv,"ax",%progbits
	.p2align	2                               @ -- Begin function _ZL17usb_server_threadPv
	.type	_ZL17usb_server_threadPv,%function
	.code	16                              @ @_ZL17usb_server_threadPv
	.thumb_func
_ZL17usb_server_threadPv:
.Lfunc_begin35:
	.loc	3 157 0                         @ ../communication/interface_usb.cpp:157:0
	.fnstart
	.cfi_startproc
@ %bb.0:
	.save	{r7, lr}
	push	{r7, lr}
	.cfi_def_cfa_offset 8
	.cfi_offset lr, -4
	.cfi_offset r7, -8
	.pad	#56
	sub	sp, #56
	.cfi_def_cfa_offset 64
	str	r0, [sp, #52]
.Ltmp120:
	.loc	3 160 5 prologue_end            @ ../communication/interface_usb.cpp:160:5
	b	.LBB35_1
.LBB35_1:                               @ =>This Inner Loop Header: Depth=1
.Ltmp121:
	.loc	3 161 38                        @ ../communication/interface_usb.cpp:161:38
	movw	r0, :lower16:usb_event_queue
	movt	r0, :upper16:usb_event_queue
	ldr	r1, [r0]
	add	r0, sp, #40
	mov.w	r2, #-1
	.loc	3 161 25 is_stmt 0              @ ../communication/interface_usb.cpp:161:25
	bl	osMessageGet
.Ltmp122:
	.loc	3 163 19 is_stmt 1              @ ../communication/interface_usb.cpp:163:19
	ldr	r0, [sp, #40]
.Ltmp123:
	.loc	3 163 13 is_stmt 0              @ ../communication/interface_usb.cpp:163:13
	cmp	r0, #16
	beq	.LBB35_3
	b	.LBB35_2
.LBB35_2:                               @   in Loop: Header=BB35_1 Depth=1
.Ltmp124:
	.loc	3 164 13 is_stmt 1              @ ../communication/interface_usb.cpp:164:13
	b	.LBB35_1
.Ltmp125:
.LBB35_3:                               @   in Loop: Header=BB35_1 Depth=1
	.loc	3 167 26                        @ ../communication/interface_usb.cpp:167:26
	movw	r1, :lower16:usb_stats_
	movt	r1, :upper16:usb_stats_
	ldr	r0, [r1]
	adds	r0, #1
	str	r0, [r1]
	.loc	3 169 29                        @ ../communication/interface_usb.cpp:169:29
	ldr	r0, [sp, #44]
	.loc	3 169 9 is_stmt 0               @ ../communication/interface_usb.cpp:169:9
	subs	r0, #1
	mov	r1, r0
	str	r1, [sp, #20]                   @ 4-byte Spill
	cmp	r0, #6
	bhi.w	.LBB35_19
@ %bb.4:                                @   in Loop: Header=BB35_1 Depth=1
	.loc	3 0 9                           @ ../communication/interface_usb.cpp:0:9
	ldr	r1, [sp, #20]                   @ 4-byte Reload
.LCPI35_0:
	tbb	[pc, r1]
@ %bb.5:
.LJTI35_0:
	.byte	(.LBB35_6-(.LCPI35_0+4))/2
	.byte	(.LBB35_13-(.LCPI35_0+4))/2
	.byte	(.LBB35_14-(.LCPI35_0+4))/2
	.byte	(.LBB35_15-(.LCPI35_0+4))/2
	.byte	(.LBB35_16-(.LCPI35_0+4))/2
	.byte	(.LBB35_17-(.LCPI35_0+4))/2
	.byte	(.LBB35_18-(.LCPI35_0+4))/2
	.p2align	1
.LBB35_6:                               @   in Loop: Header=BB35_1 Depth=1
.Ltmp126:
	.loc	3 171 46 is_stmt 1              @ ../communication/interface_usb.cpp:171:46
	movw	r1, :lower16:usb_cdc_tx_stream
	movt	r1, :upper16:usb_cdc_tx_stream
	movs	r0, #1
	strb	r0, [r1, #5]
	.loc	3 172 49                        @ ../communication/interface_usb.cpp:172:49
	movw	r1, :lower16:usb_native_tx_stream
	movt	r1, :upper16:usb_native_tx_stream
	strb	r0, [r1, #5]
	.loc	3 173 46                        @ ../communication/interface_usb.cpp:173:46
	movw	r1, :lower16:usb_cdc_rx_stream
	movt	r1, :upper16:usb_cdc_rx_stream
	strb	r0, [r1, #5]
	.loc	3 174 49                        @ ../communication/interface_usb.cpp:174:49
	movw	r1, :lower16:usb_native_rx_stream
	movt	r1, :upper16:usb_native_rx_stream
	strb	r0, [r1, #5]
	add	r0, sp, #32
	.loc	3 176 38                        @ ../communication/interface_usb.cpp:176:38
	str	r0, [sp, #16]                   @ 4-byte Spill
	bl	_ZN5fibre8CallbackIvJPNS_25LegacyProtocolPacketBasedENS_12StreamStatusEEEC2Ev
	ldr	r1, [sp, #16]                   @ 4-byte Reload
	.loc	3 176 32 is_stmt 0              @ ../communication/interface_usb.cpp:176:32
	movw	r0, :lower16:fibre_over_usb
	movt	r0, :upper16:fibre_over_usb
	bl	_ZN5fibre25LegacyProtocolPacketBased5startENS_8CallbackIvJPS0_NS_12StreamStatusEEEE
.Ltmp127:
	.loc	3 178 34 is_stmt 1              @ ../communication/interface_usb.cpp:178:34
	movw	r0, :lower16:odrv
	movt	r0, :upper16:odrv
	movw	r1, #16797
	ldrb	r0, [r0, r1]
.Ltmp128:
	.loc	3 178 21 is_stmt 0              @ ../communication/interface_usb.cpp:178:21
	cbnz	r0, .LBB35_8
	b	.LBB35_7
.LBB35_7:                               @   in Loop: Header=BB35_1 Depth=1
	.loc	3 0 21                          @ ../communication/interface_usb.cpp:0:21
	add	r0, sp, #24
.Ltmp129:
	.loc	3 179 42 is_stmt 1              @ ../communication/interface_usb.cpp:179:42
	str	r0, [sp, #12]                   @ 4-byte Spill
	bl	_ZN5fibre8CallbackIvJPNS_25LegacyProtocolPacketBasedENS_12StreamStatusEEEC2Ev
	ldr	r1, [sp, #12]                   @ 4-byte Reload
	.loc	3 179 36 is_stmt 0              @ ../communication/interface_usb.cpp:179:36
	movw	r0, :lower16:fibre_over_cdc
	movt	r0, :upper16:fibre_over_cdc
	bl	_ZN5fibre25LegacyProtocolStreamBased5startENS_8CallbackIvJPNS_25LegacyProtocolPacketBasedENS_12StreamStatusEEEE
	.loc	3 180 17 is_stmt 1              @ ../communication/interface_usb.cpp:180:17
	b	.LBB35_12
.Ltmp130:
.LBB35_8:                               @   in Loop: Header=BB35_1 Depth=1
	.loc	3 180 41 is_stmt 0              @ ../communication/interface_usb.cpp:180:41
	movw	r0, :lower16:odrv
	movt	r0, :upper16:odrv
	movw	r1, #16797
	ldrb	r0, [r0, r1]
	.loc	3 181 25 is_stmt 1              @ ../communication/interface_usb.cpp:181:25
	cmp	r0, #1
	beq	.LBB35_10
	b	.LBB35_9
.LBB35_9:                               @   in Loop: Header=BB35_1 Depth=1
	.loc	3 181 41 is_stmt 0              @ ../communication/interface_usb.cpp:181:41
	movw	r0, :lower16:odrv
	movt	r0, :upper16:odrv
	movw	r1, #16797
	ldrb	r0, [r0, r1]
.Ltmp131:
	.loc	3 180 28 is_stmt 1              @ ../communication/interface_usb.cpp:180:28
	cmp	r0, #3
	bne	.LBB35_11
	b	.LBB35_10
.LBB35_10:                              @   in Loop: Header=BB35_1 Depth=1
.Ltmp132:
	.loc	3 182 36                        @ ../communication/interface_usb.cpp:182:36
	movw	r0, :lower16:ascii_over_cdc
	movt	r0, :upper16:ascii_over_cdc
	bl	_ZN13AsciiProtocol5startEv
	.loc	3 183 17                        @ ../communication/interface_usb.cpp:183:17
	b	.LBB35_11
.Ltmp133:
.LBB35_11:                              @   in Loop: Header=BB35_1 Depth=1
	.loc	3 0 17 is_stmt 0                @ ../communication/interface_usb.cpp:0:17
	b	.LBB35_12
.LBB35_12:                              @   in Loop: Header=BB35_1 Depth=1
	.loc	3 184 15 is_stmt 1              @ ../communication/interface_usb.cpp:184:15
	b	.LBB35_19
.LBB35_13:                              @   in Loop: Header=BB35_1 Depth=1
.Ltmp134:
	.loc	3 187 46                        @ ../communication/interface_usb.cpp:187:46
	movw	r0, :lower16:usb_cdc_tx_stream
	movt	r0, :upper16:usb_cdc_tx_stream
	movs	r1, #0
	strb	r1, [r0, #5]
	.loc	3 188 49                        @ ../communication/interface_usb.cpp:188:49
	movw	r2, :lower16:usb_native_tx_stream
	movt	r2, :upper16:usb_native_tx_stream
	str	r2, [sp]                        @ 4-byte Spill
	strb	r1, [r2, #5]
	.loc	3 189 46                        @ ../communication/interface_usb.cpp:189:46
	movw	r2, :lower16:usb_cdc_rx_stream
	movt	r2, :upper16:usb_cdc_rx_stream
	str	r2, [sp, #4]                    @ 4-byte Spill
	strb	r1, [r2, #5]
	.loc	3 190 49                        @ ../communication/interface_usb.cpp:190:49
	movw	r2, :lower16:usb_native_rx_stream
	movt	r2, :upper16:usb_native_rx_stream
	str	r2, [sp, #8]                    @ 4-byte Spill
	strb	r1, [r2, #5]
	.loc	3 191 35                        @ ../communication/interface_usb.cpp:191:35
	bl	_ZN5fibre16Stm32UsbTxStream10did_finishEv
	ldr	r0, [sp]                        @ 4-byte Reload
	.loc	3 192 38                        @ ../communication/interface_usb.cpp:192:38
	bl	_ZN5fibre16Stm32UsbTxStream10did_finishEv
	ldr	r0, [sp, #4]                    @ 4-byte Reload
	.loc	3 193 35                        @ ../communication/interface_usb.cpp:193:35
	bl	_ZN5fibre16Stm32UsbRxStream10did_finishEv
	ldr	r0, [sp, #8]                    @ 4-byte Reload
	.loc	3 194 38                        @ ../communication/interface_usb.cpp:194:38
	bl	_ZN5fibre16Stm32UsbRxStream10did_finishEv
.Ltmp135:
	.loc	3 195 15                        @ ../communication/interface_usb.cpp:195:15
	b	.LBB35_19
.LBB35_14:                              @   in Loop: Header=BB35_1 Depth=1
.Ltmp136:
	.loc	3 198 35                        @ ../communication/interface_usb.cpp:198:35
	movw	r0, :lower16:usb_cdc_tx_stream
	movt	r0, :upper16:usb_cdc_tx_stream
	bl	_ZN5fibre16Stm32UsbTxStream10did_finishEv
.Ltmp137:
	.loc	3 199 15                        @ ../communication/interface_usb.cpp:199:15
	b	.LBB35_19
.LBB35_15:                              @   in Loop: Header=BB35_1 Depth=1
.Ltmp138:
	.loc	3 202 38                        @ ../communication/interface_usb.cpp:202:38
	movw	r0, :lower16:usb_native_tx_stream
	movt	r0, :upper16:usb_native_tx_stream
	bl	_ZN5fibre16Stm32UsbTxStream10did_finishEv
.Ltmp139:
	.loc	3 203 15                        @ ../communication/interface_usb.cpp:203:15
	b	.LBB35_19
.LBB35_16:                              @   in Loop: Header=BB35_1 Depth=1
.Ltmp140:
	.loc	3 206 35                        @ ../communication/interface_usb.cpp:206:35
	movw	r0, :lower16:usb_cdc_rx_stream
	movt	r0, :upper16:usb_cdc_rx_stream
	bl	_ZN5fibre16Stm32UsbRxStream10did_finishEv
.Ltmp141:
	.loc	3 207 15                        @ ../communication/interface_usb.cpp:207:15
	b	.LBB35_19
.LBB35_17:                              @   in Loop: Header=BB35_1 Depth=1
.Ltmp142:
	.loc	3 210 38                        @ ../communication/interface_usb.cpp:210:38
	movw	r0, :lower16:usb_native_rx_stream
	movt	r0, :upper16:usb_native_rx_stream
	bl	_ZN5fibre16Stm32UsbRxStream10did_finishEv
.Ltmp143:
	.loc	3 211 15                        @ ../communication/interface_usb.cpp:211:15
	b	.LBB35_19
.LBB35_18:                              @   in Loop: Header=BB35_1 Depth=1
.Ltmp144:
	.loc	3 214 40                        @ ../communication/interface_usb.cpp:214:40
	movw	r1, :lower16:usb_cdc_stdout_pending
	movt	r1, :upper16:usb_cdc_stdout_pending
	movs	r0, #0
	strb	r0, [r1]
	.loc	3 215 37                        @ ../communication/interface_usb.cpp:215:37
	movw	r0, :lower16:usb_cdc_stdout_sink
	movt	r0, :upper16:usb_cdc_stdout_sink
	bl	_ZN5fibre18BufferedStreamSinkILj64EE23maybe_start_async_writeEv
.Ltmp145:
	.loc	3 216 15                        @ ../communication/interface_usb.cpp:216:15
	b	.LBB35_19
.Ltmp146:
.LBB35_19:                              @   in Loop: Header=BB35_1 Depth=1
	.loc	3 160 5                         @ ../communication/interface_usb.cpp:160:5
	b	.LBB35_1
.Ltmp147:
.Lfunc_end35:
	.size	_ZL17usb_server_threadPv, .Lfunc_end35-_ZL17usb_server_threadPv
	.cfi_endproc
	.cantunwind
	.fnend
                                        @ -- End function
	.section	.text._ZN5fibre15AsyncStreamSinkC2Ev,"axG",%progbits,_ZN5fibre15AsyncStreamSinkC2Ev,comdat
	.hidden	_ZN5fibre15AsyncStreamSinkC2Ev  @ -- Begin function _ZN5fibre15AsyncStreamSinkC2Ev
	.weak	_ZN5fibre15AsyncStreamSinkC2Ev
	.p2align	2
	.type	_ZN5fibre15AsyncStreamSinkC2Ev,%function
	.code	16                              @ @_ZN5fibre15AsyncStreamSinkC2Ev
	.thumb_func
_ZN5fibre15AsyncStreamSinkC2Ev:
.Lfunc_begin36:
	.loc	6 101 0                         @ ../fibre-cpp/include\fibre/async_stream.hpp:101:0
	.fnstart
	.cfi_startproc
@ %bb.0:
	.pad	#4
	sub	sp, #4
	.cfi_def_cfa_offset 4
	str	r0, [sp]
	ldr	r0, [sp]
.Ltmp148:
	.loc	6 101 7 prologue_end            @ ../fibre-cpp/include\fibre/async_stream.hpp:101:7
	movw	r1, :lower16:_ZTVN5fibre15AsyncStreamSinkE
	movt	r1, :upper16:_ZTVN5fibre15AsyncStreamSinkE
	adds	r1, #8
	str	r1, [r0]
	.loc	6 101 7 epilogue_begin is_stmt 0 @ ../fibre-cpp/include\fibre/async_stream.hpp:101:7
	add	sp, #4
	bx	lr
.Ltmp149:
.Lfunc_end36:
	.size	_ZN5fibre15AsyncStreamSinkC2Ev, .Lfunc_end36-_ZN5fibre15AsyncStreamSinkC2Ev
	.cfi_endproc
	.cantunwind
	.fnend
                                        @ -- End function
	.section	.text._ZN5fibre8CallbackIvJNS_11WriteResultEEEC2Ev,"axG",%progbits,_ZN5fibre8CallbackIvJNS_11WriteResultEEEC2Ev,comdat
	.hidden	_ZN5fibre8CallbackIvJNS_11WriteResultEEEC2Ev @ -- Begin function _ZN5fibre8CallbackIvJNS_11WriteResultEEEC2Ev
	.weak	_ZN5fibre8CallbackIvJNS_11WriteResultEEEC2Ev
	.p2align	2
	.type	_ZN5fibre8CallbackIvJNS_11WriteResultEEEC2Ev,%function
	.code	16                              @ @_ZN5fibre8CallbackIvJNS_11WriteResultEEEC2Ev
	.thumb_func
_ZN5fibre8CallbackIvJNS_11WriteResultEEEC2Ev:
.Lfunc_begin37:
	.loc	9 20 0 is_stmt 1                @ ../fibre-cpp/include\fibre/callback.hpp:20:0
	.fnstart
	.cfi_startproc
@ %bb.0:
	.pad	#4
	sub	sp, #4
	.cfi_def_cfa_offset 4
	str	r0, [sp]
	ldr	r0, [sp]
	movs	r1, #0
.Ltmp150:
	.loc	9 20 18 prologue_end            @ ../fibre-cpp/include\fibre/callback.hpp:20:18
	str	r1, [r0]
	.loc	9 20 32 is_stmt 0               @ ../fibre-cpp/include\fibre/callback.hpp:20:32
	str	r1, [r0, #4]
	.loc	9 20 47 epilogue_begin          @ ../fibre-cpp/include\fibre/callback.hpp:20:47
	add	sp, #4
	bx	lr
.Ltmp151:
.Lfunc_end37:
	.size	_ZN5fibre8CallbackIvJNS_11WriteResultEEEC2Ev, .Lfunc_end37-_ZN5fibre8CallbackIvJNS_11WriteResultEEEC2Ev
	.cfi_endproc
	.cantunwind
	.fnend
                                        @ -- End function
	.section	.text._ZN5fibre17AsyncStreamSourceC2Ev,"axG",%progbits,_ZN5fibre17AsyncStreamSourceC2Ev,comdat
	.hidden	_ZN5fibre17AsyncStreamSourceC2Ev @ -- Begin function _ZN5fibre17AsyncStreamSourceC2Ev
	.weak	_ZN5fibre17AsyncStreamSourceC2Ev
	.p2align	2
	.type	_ZN5fibre17AsyncStreamSourceC2Ev,%function
	.code	16                              @ @_ZN5fibre17AsyncStreamSourceC2Ev
	.thumb_func
_ZN5fibre17AsyncStreamSourceC2Ev:
.Lfunc_begin38:
	.loc	6 52 0 is_stmt 1                @ ../fibre-cpp/include\fibre/async_stream.hpp:52:0
	.fnstart
	.cfi_startproc
@ %bb.0:
	.pad	#4
	sub	sp, #4
	.cfi_def_cfa_offset 4
	str	r0, [sp]
	ldr	r0, [sp]
.Ltmp152:
	.loc	6 52 7 prologue_end             @ ../fibre-cpp/include\fibre/async_stream.hpp:52:7
	movw	r1, :lower16:_ZTVN5fibre17AsyncStreamSourceE
	movt	r1, :upper16:_ZTVN5fibre17AsyncStreamSourceE
	adds	r1, #8
	str	r1, [r0]
	.loc	6 52 7 epilogue_begin is_stmt 0 @ ../fibre-cpp/include\fibre/async_stream.hpp:52:7
	add	sp, #4
	bx	lr
.Ltmp153:
.Lfunc_end38:
	.size	_ZN5fibre17AsyncStreamSourceC2Ev, .Lfunc_end38-_ZN5fibre17AsyncStreamSourceC2Ev
	.cfi_endproc
	.cantunwind
	.fnend
                                        @ -- End function
	.section	.text._ZN5fibre8CallbackIvJNS_10ReadResultEEEC2Ev,"axG",%progbits,_ZN5fibre8CallbackIvJNS_10ReadResultEEEC2Ev,comdat
	.hidden	_ZN5fibre8CallbackIvJNS_10ReadResultEEEC2Ev @ -- Begin function _ZN5fibre8CallbackIvJNS_10ReadResultEEEC2Ev
	.weak	_ZN5fibre8CallbackIvJNS_10ReadResultEEEC2Ev
	.p2align	2
	.type	_ZN5fibre8CallbackIvJNS_10ReadResultEEEC2Ev,%function
	.code	16                              @ @_ZN5fibre8CallbackIvJNS_10ReadResultEEEC2Ev
	.thumb_func
_ZN5fibre8CallbackIvJNS_10ReadResultEEEC2Ev:
.Lfunc_begin39:
	.loc	9 20 0 is_stmt 1                @ ../fibre-cpp/include\fibre/callback.hpp:20:0
	.fnstart
	.cfi_startproc
@ %bb.0:
	.pad	#4
	sub	sp, #4
	.cfi_def_cfa_offset 4
	str	r0, [sp]
	ldr	r0, [sp]
	movs	r1, #0
.Ltmp154:
	.loc	9 20 18 prologue_end            @ ../fibre-cpp/include\fibre/callback.hpp:20:18
	str	r1, [r0]
	.loc	9 20 32 is_stmt 0               @ ../fibre-cpp/include\fibre/callback.hpp:20:32
	str	r1, [r0, #4]
	.loc	9 20 47 epilogue_begin          @ ../fibre-cpp/include\fibre/callback.hpp:20:47
	add	sp, #4
	bx	lr
.Ltmp155:
.Lfunc_end39:
	.size	_ZN5fibre8CallbackIvJNS_10ReadResultEEEC2Ev, .Lfunc_end39-_ZN5fibre8CallbackIvJNS_10ReadResultEEEC2Ev
	.cfi_endproc
	.cantunwind
	.fnend
                                        @ -- End function
	.section	.text._ZN5fibre15PacketUnwrapperC2EPNS_17AsyncStreamSourceE,"axG",%progbits,_ZN5fibre15PacketUnwrapperC2EPNS_17AsyncStreamSourceE,comdat
	.hidden	_ZN5fibre15PacketUnwrapperC2EPNS_17AsyncStreamSourceE @ -- Begin function _ZN5fibre15PacketUnwrapperC2EPNS_17AsyncStreamSourceE
	.weak	_ZN5fibre15PacketUnwrapperC2EPNS_17AsyncStreamSourceE
	.p2align	2
	.type	_ZN5fibre15PacketUnwrapperC2EPNS_17AsyncStreamSourceE,%function
	.code	16                              @ @_ZN5fibre15PacketUnwrapperC2EPNS_17AsyncStreamSourceE
	.thumb_func
_ZN5fibre15PacketUnwrapperC2EPNS_17AsyncStreamSourceE:
.Lfunc_begin40:
	.loc	11 65 0 is_stmt 1               @ ../fibre-cpp/include\fibre/../../legacy_protocol.hpp:65:0
	.fnstart
	.cfi_startproc
@ %bb.0:
	.save	{r7, lr}
	push	{r7, lr}
	.cfi_def_cfa_offset 8
	.cfi_offset lr, -4
	.cfi_offset r7, -8
	.pad	#16
	sub	sp, #16
	.cfi_def_cfa_offset 24
	str	r0, [sp, #12]
	str	r1, [sp, #8]
	ldr	r0, [sp, #12]
.Ltmp156:
	.loc	11 64 5 prologue_end            @ ../fibre-cpp/include\fibre/../../legacy_protocol.hpp:64:5
	str	r0, [sp]                        @ 4-byte Spill
	bl	_ZN5fibre17AsyncStreamSourceC2Ev
	ldr	r0, [sp]                        @ 4-byte Reload
	.loc	11 65 35                        @ ../fibre-cpp/include\fibre/../../legacy_protocol.hpp:65:35
	movw	r1, :lower16:_ZTVN5fibre15PacketUnwrapperE
	movt	r1, :upper16:_ZTVN5fibre15PacketUnwrapperE
	adds	r1, #8
	str	r1, [r0]
	.loc	11 65 23 is_stmt 0              @ ../fibre-cpp/include\fibre/../../legacy_protocol.hpp:65:23
	ldr	r1, [sp, #8]
	.loc	11 65 11                        @ ../fibre-cpp/include\fibre/../../legacy_protocol.hpp:65:11
	str	r1, [r0, #4]
	movs	r2, #0
	.loc	11 77 12 is_stmt 1              @ ../fibre-cpp/include\fibre/../../legacy_protocol.hpp:77:12
	str	r2, [sp, #4]                    @ 4-byte Spill
	str	r2, [r0, #20]
	.loc	11 78 14                        @ ../fibre-cpp/include\fibre/../../legacy_protocol.hpp:78:14
	adds	r0, #24
	.loc	11 78 27 is_stmt 0              @ ../fibre-cpp/include\fibre/../../legacy_protocol.hpp:78:27
	mov	r1, r2
	bl	_ZN5fibre16generic_bufptr_tIhEC2EPhS2_
	ldr	r0, [sp]                        @ 4-byte Reload
	.loc	11 64 5 is_stmt 1               @ ../fibre-cpp/include\fibre/../../legacy_protocol.hpp:64:5
	adds	r0, #32
	bl	_ZN5fibre8CallbackIvJNS_10ReadResultEEEC2Ev
	ldr	r0, [sp]                        @ 4-byte Reload
	ldr	r1, [sp, #4]                    @ 4-byte Reload
	.loc	11 87 7                         @ ../fibre-cpp/include\fibre/../../legacy_protocol.hpp:87:7
	strb.w	r1, [r0, #40]
	.loc	11 65 36 epilogue_begin         @ ../fibre-cpp/include\fibre/../../legacy_protocol.hpp:65:36
	add	sp, #16
	pop	{r7, pc}
.Ltmp157:
.Lfunc_end40:
	.size	_ZN5fibre15PacketUnwrapperC2EPNS_17AsyncStreamSourceE, .Lfunc_end40-_ZN5fibre15PacketUnwrapperC2EPNS_17AsyncStreamSourceE
	.cfi_endproc
	.cantunwind
	.fnend
                                        @ -- End function
	.section	.text._ZN5fibre13PacketWrapperC2EPNS_15AsyncStreamSinkE,"axG",%progbits,_ZN5fibre13PacketWrapperC2EPNS_15AsyncStreamSinkE,comdat
	.hidden	_ZN5fibre13PacketWrapperC2EPNS_15AsyncStreamSinkE @ -- Begin function _ZN5fibre13PacketWrapperC2EPNS_15AsyncStreamSinkE
	.weak	_ZN5fibre13PacketWrapperC2EPNS_15AsyncStreamSinkE
	.p2align	2
	.type	_ZN5fibre13PacketWrapperC2EPNS_15AsyncStreamSinkE,%function
	.code	16                              @ @_ZN5fibre13PacketWrapperC2EPNS_15AsyncStreamSinkE
	.thumb_func
_ZN5fibre13PacketWrapperC2EPNS_15AsyncStreamSinkE:
.Lfunc_begin41:
	.loc	11 36 0                         @ ../fibre-cpp/include\fibre/../../legacy_protocol.hpp:36:0
	.fnstart
	.cfi_startproc
@ %bb.0:
	.save	{r7, lr}
	push	{r7, lr}
	.cfi_def_cfa_offset 8
	.cfi_offset lr, -4
	.cfi_offset r7, -8
	.pad	#16
	sub	sp, #16
	.cfi_def_cfa_offset 24
	str	r0, [sp, #12]
	str	r1, [sp, #8]
	ldr	r0, [sp, #12]
.Ltmp158:
	.loc	11 35 5 prologue_end            @ ../fibre-cpp/include\fibre/../../legacy_protocol.hpp:35:5
	str	r0, [sp]                        @ 4-byte Spill
	bl	_ZN5fibre15AsyncStreamSinkC2Ev
	ldr	r0, [sp]                        @ 4-byte Reload
	.loc	11 36 35                        @ ../fibre-cpp/include\fibre/../../legacy_protocol.hpp:36:35
	movw	r1, :lower16:_ZTVN5fibre13PacketWrapperE
	movt	r1, :upper16:_ZTVN5fibre13PacketWrapperE
	adds	r1, #8
	str	r1, [r0]
	.loc	11 36 23 is_stmt 0              @ ../fibre-cpp/include\fibre/../../legacy_protocol.hpp:36:23
	ldr	r1, [sp, #8]
	.loc	11 36 11                        @ ../fibre-cpp/include\fibre/../../legacy_protocol.hpp:36:11
	str	r1, [r0, #4]
	.loc	11 49 15 is_stmt 1              @ ../fibre-cpp/include\fibre/../../legacy_protocol.hpp:49:15
	adds	r0, #24
	movs	r2, #0
	.loc	11 49 28 is_stmt 0              @ ../fibre-cpp/include\fibre/../../legacy_protocol.hpp:49:28
	str	r2, [sp, #4]                    @ 4-byte Spill
	mov	r1, r2
	bl	_ZN5fibre16generic_bufptr_tIKhEC2EPS1_S3_
	ldr	r0, [sp]                        @ 4-byte Reload
	.loc	11 35 5 is_stmt 1               @ ../fibre-cpp/include\fibre/../../legacy_protocol.hpp:35:5
	adds	r0, #32
	bl	_ZN5fibre8CallbackIvJNS_11WriteResultEEEC2Ev
	ldr	r0, [sp]                        @ 4-byte Reload
	ldr	r1, [sp, #4]                    @ 4-byte Reload
	.loc	11 58 7                         @ ../fibre-cpp/include\fibre/../../legacy_protocol.hpp:58:7
	strb.w	r1, [r0, #40]
	.loc	11 36 36 epilogue_begin         @ ../fibre-cpp/include\fibre/../../legacy_protocol.hpp:36:36
	add	sp, #16
	pop	{r7, pc}
.Ltmp159:
.Lfunc_end41:
	.size	_ZN5fibre13PacketWrapperC2EPNS_15AsyncStreamSinkE, .Lfunc_end41-_ZN5fibre13PacketWrapperC2EPNS_15AsyncStreamSinkE
	.cfi_endproc
	.cantunwind
	.fnend
                                        @ -- End function
	.section	.text._ZN5fibre16generic_bufptr_tIhEC2EPhS2_,"axG",%progbits,_ZN5fibre16generic_bufptr_tIhEC2EPhS2_,comdat
	.hidden	_ZN5fibre16generic_bufptr_tIhEC2EPhS2_ @ -- Begin function _ZN5fibre16generic_bufptr_tIhEC2EPhS2_
	.weak	_ZN5fibre16generic_bufptr_tIhEC2EPhS2_
	.p2align	2
	.type	_ZN5fibre16generic_bufptr_tIhEC2EPhS2_,%function
	.code	16                              @ @_ZN5fibre16generic_bufptr_tIhEC2EPhS2_
	.thumb_func
_ZN5fibre16generic_bufptr_tIhEC2EPhS2_:
.Lfunc_begin42:
	.loc	7 23 0                          @ ../fibre-cpp/include\fibre/bufptr.hpp:23:0
	.fnstart
	.cfi_startproc
@ %bb.0:
	.pad	#12
	sub	sp, #12
	.cfi_def_cfa_offset 12
	str	r0, [sp, #8]
	str	r1, [sp, #4]
	str	r2, [sp]
	ldr	r0, [sp, #8]
.Ltmp160:
	.loc	7 23 49 prologue_end            @ ../fibre-cpp/include\fibre/bufptr.hpp:23:49
	ldr	r1, [sp, #4]
	.loc	7 23 42 is_stmt 0               @ ../fibre-cpp/include\fibre/bufptr.hpp:23:42
	str	r1, [r0]
	.loc	7 23 62                         @ ../fibre-cpp/include\fibre/bufptr.hpp:23:62
	ldr	r1, [sp]
	.loc	7 23 57                         @ ../fibre-cpp/include\fibre/bufptr.hpp:23:57
	str	r1, [r0, #4]
	.loc	7 23 68 epilogue_begin          @ ../fibre-cpp/include\fibre/bufptr.hpp:23:68
	add	sp, #12
	bx	lr
.Ltmp161:
.Lfunc_end42:
	.size	_ZN5fibre16generic_bufptr_tIhEC2EPhS2_, .Lfunc_end42-_ZN5fibre16generic_bufptr_tIhEC2EPhS2_
	.cfi_endproc
	.cantunwind
	.fnend
                                        @ -- End function
	.section	.text._ZN5fibre16generic_bufptr_tIKhEC2EPS1_S3_,"axG",%progbits,_ZN5fibre16generic_bufptr_tIKhEC2EPS1_S3_,comdat
	.hidden	_ZN5fibre16generic_bufptr_tIKhEC2EPS1_S3_ @ -- Begin function _ZN5fibre16generic_bufptr_tIKhEC2EPS1_S3_
	.weak	_ZN5fibre16generic_bufptr_tIKhEC2EPS1_S3_
	.p2align	2
	.type	_ZN5fibre16generic_bufptr_tIKhEC2EPS1_S3_,%function
	.code	16                              @ @_ZN5fibre16generic_bufptr_tIKhEC2EPS1_S3_
	.thumb_func
_ZN5fibre16generic_bufptr_tIKhEC2EPS1_S3_:
.Lfunc_begin43:
	.loc	7 23 0 is_stmt 1                @ ../fibre-cpp/include\fibre/bufptr.hpp:23:0
	.fnstart
	.cfi_startproc
@ %bb.0:
	.pad	#12
	sub	sp, #12
	.cfi_def_cfa_offset 12
	str	r0, [sp, #8]
	str	r1, [sp, #4]
	str	r2, [sp]
	ldr	r0, [sp, #8]
.Ltmp162:
	.loc	7 23 49 prologue_end            @ ../fibre-cpp/include\fibre/bufptr.hpp:23:49
	ldr	r1, [sp, #4]
	.loc	7 23 42 is_stmt 0               @ ../fibre-cpp/include\fibre/bufptr.hpp:23:42
	str	r1, [r0]
	.loc	7 23 62                         @ ../fibre-cpp/include\fibre/bufptr.hpp:23:62
	ldr	r1, [sp]
	.loc	7 23 57                         @ ../fibre-cpp/include\fibre/bufptr.hpp:23:57
	str	r1, [r0, #4]
	.loc	7 23 68 epilogue_begin          @ ../fibre-cpp/include\fibre/bufptr.hpp:23:68
	add	sp, #12
	bx	lr
.Ltmp163:
.Lfunc_end43:
	.size	_ZN5fibre16generic_bufptr_tIKhEC2EPS1_S3_, .Lfunc_end43-_ZN5fibre16generic_bufptr_tIKhEC2EPS1_S3_
	.cfi_endproc
	.cantunwind
	.fnend
                                        @ -- End function
	.section	.text._ZNSt3__23minB7v180000IjEERKT_S3_S3_,"axG",%progbits,_ZNSt3__23minB7v180000IjEERKT_S3_S3_,comdat
	.hidden	_ZNSt3__23minB7v180000IjEERKT_S3_S3_ @ -- Begin function _ZNSt3__23minB7v180000IjEERKT_S3_S3_
	.weak	_ZNSt3__23minB7v180000IjEERKT_S3_S3_
	.p2align	2
	.type	_ZNSt3__23minB7v180000IjEERKT_S3_S3_,%function
	.code	16                              @ @_ZNSt3__23minB7v180000IjEERKT_S3_S3_
	.thumb_func
_ZNSt3__23minB7v180000IjEERKT_S3_S3_:
.Lfunc_begin44:
	.file	18 "D:\\Embed\\MDK\\MDK\\ARM\\ARMCompilerV621\\Bin\\..\\include\\libcxx\\__algorithm" "min.h"
	.loc	18 41 0 is_stmt 1               @ D:\Embed\MDK\MDK\ARM\ARMCompilerV621\Bin\..\include\libcxx\__algorithm/min.h:41:0
	.fnstart
	.cfi_startproc
@ %bb.0:
	.save	{r7, lr}
	push	{r7, lr}
	.cfi_def_cfa_offset 8
	.cfi_offset lr, -4
	.cfi_offset r7, -8
	.pad	#16
	sub	sp, #16
	.cfi_def_cfa_offset 24
	str	r0, [sp, #12]
	str	r1, [sp, #8]
.Ltmp164:
	.loc	18 42 23 prologue_end           @ D:\Embed\MDK\MDK\ARM\ARMCompilerV621\Bin\..\include\libcxx\__algorithm/min.h:42:23
	ldr	r0, [sp, #12]
	.loc	18 42 28 is_stmt 0              @ D:\Embed\MDK\MDK\ARM\ARMCompilerV621\Bin\..\include\libcxx\__algorithm/min.h:42:28
	ldr	r1, [sp, #8]
	.loc	18 42 12                        @ D:\Embed\MDK\MDK\ARM\ARMCompilerV621\Bin\..\include\libcxx\__algorithm/min.h:42:12
	bl	_ZNSt3__23minB7v180000IjNS_6__lessIvvEEEERKT_S5_S5_T0_
	.loc	18 42 5 epilogue_begin          @ D:\Embed\MDK\MDK\ARM\ARMCompilerV621\Bin\..\include\libcxx\__algorithm/min.h:42:5
	add	sp, #16
	pop	{r7, pc}
.Ltmp165:
.Lfunc_end44:
	.size	_ZNSt3__23minB7v180000IjEERKT_S3_S3_, .Lfunc_end44-_ZNSt3__23minB7v180000IjEERKT_S3_S3_
	.cfi_endproc
	.cantunwind
	.fnend
                                        @ -- End function
	.section	.text._ZN5fibre8CallbackIvJPNS_25LegacyProtocolPacketBasedENS_12StreamStatusEEEC2EDn,"axG",%progbits,_ZN5fibre8CallbackIvJPNS_25LegacyProtocolPacketBasedENS_12StreamStatusEEEC2EDn,comdat
	.hidden	_ZN5fibre8CallbackIvJPNS_25LegacyProtocolPacketBasedENS_12StreamStatusEEEC2EDn @ -- Begin function _ZN5fibre8CallbackIvJPNS_25LegacyProtocolPacketBasedENS_12StreamStatusEEEC2EDn
	.weak	_ZN5fibre8CallbackIvJPNS_25LegacyProtocolPacketBasedENS_12StreamStatusEEEC2EDn
	.p2align	2
	.type	_ZN5fibre8CallbackIvJPNS_25LegacyProtocolPacketBasedENS_12StreamStatusEEEC2EDn,%function
	.code	16                              @ @_ZN5fibre8CallbackIvJPNS_25LegacyProtocolPacketBasedENS_12StreamStatusEEEC2EDn
	.thumb_func
_ZN5fibre8CallbackIvJPNS_25LegacyProtocolPacketBasedENS_12StreamStatusEEEC2EDn:
.Lfunc_begin45:
	.loc	9 21 0 is_stmt 1                @ ../fibre-cpp/include\fibre/callback.hpp:21:0
	.fnstart
	.cfi_startproc
@ %bb.0:
	.pad	#8
	sub	sp, #8
	.cfi_def_cfa_offset 8
	str	r0, [sp, #4]
	str	r1, [sp]
	ldr	r0, [sp, #4]
	movs	r1, #0
.Ltmp166:
	.loc	9 21 32 prologue_end            @ ../fibre-cpp/include\fibre/callback.hpp:21:32
	str	r1, [r0]
	.loc	9 21 46 is_stmt 0               @ ../fibre-cpp/include\fibre/callback.hpp:21:46
	str	r1, [r0, #4]
	.loc	9 21 61 epilogue_begin          @ ../fibre-cpp/include\fibre/callback.hpp:21:61
	add	sp, #8
	bx	lr
.Ltmp167:
.Lfunc_end45:
	.size	_ZN5fibre8CallbackIvJPNS_25LegacyProtocolPacketBasedENS_12StreamStatusEEEC2EDn, .Lfunc_end45-_ZN5fibre8CallbackIvJPNS_25LegacyProtocolPacketBasedENS_12StreamStatusEEEC2EDn
	.cfi_endproc
	.cantunwind
	.fnend
                                        @ -- End function
	.section	.text._ZNSt3__23minB7v180000IjNS_6__lessIvvEEEERKT_S5_S5_T0_,"axG",%progbits,_ZNSt3__23minB7v180000IjNS_6__lessIvvEEEERKT_S5_S5_T0_,comdat
	.hidden	_ZNSt3__23minB7v180000IjNS_6__lessIvvEEEERKT_S5_S5_T0_ @ -- Begin function _ZNSt3__23minB7v180000IjNS_6__lessIvvEEEERKT_S5_S5_T0_
	.weak	_ZNSt3__23minB7v180000IjNS_6__lessIvvEEEERKT_S5_S5_T0_
	.p2align	2
	.type	_ZNSt3__23minB7v180000IjNS_6__lessIvvEEEERKT_S5_S5_T0_,%function
	.code	16                              @ @_ZNSt3__23minB7v180000IjNS_6__lessIvvEEEERKT_S5_S5_T0_
	.thumb_func
_ZNSt3__23minB7v180000IjNS_6__lessIvvEEEERKT_S5_S5_T0_:
.Lfunc_begin46:
	.loc	18 32 0 is_stmt 1               @ D:\Embed\MDK\MDK\ARM\ARMCompilerV621\Bin\..\include\libcxx\__algorithm/min.h:32:0
	.fnstart
	.cfi_startproc
@ %bb.0:
	.save	{r7, lr}
	push	{r7, lr}
	.cfi_def_cfa_offset 8
	.cfi_offset lr, -4
	.cfi_offset r7, -8
	.pad	#16
	sub	sp, #16
	.cfi_def_cfa_offset 24
	str	r0, [sp, #8]
	str	r1, [sp, #4]
.Ltmp168:
	.loc	18 33 19 prologue_end           @ D:\Embed\MDK\MDK\ARM\ARMCompilerV621\Bin\..\include\libcxx\__algorithm/min.h:33:19
	ldr	r1, [sp, #4]
	.loc	18 33 24 is_stmt 0              @ D:\Embed\MDK\MDK\ARM\ARMCompilerV621\Bin\..\include\libcxx\__algorithm/min.h:33:24
	ldr	r2, [sp, #8]
	add.w	r0, sp, #15
	.loc	18 33 12                        @ D:\Embed\MDK\MDK\ARM\ARMCompilerV621\Bin\..\include\libcxx\__algorithm/min.h:33:12
	bl	_ZNKSt3__26__lessIvvEclB7v180000IjjEEbRKT_RKT0_
	cbz	r0, .LBB46_2
	b	.LBB46_1
.LBB46_1:
	.loc	18 33 31                        @ D:\Embed\MDK\MDK\ARM\ARMCompilerV621\Bin\..\include\libcxx\__algorithm/min.h:33:31
	ldr	r0, [sp, #4]
	.loc	18 33 12                        @ D:\Embed\MDK\MDK\ARM\ARMCompilerV621\Bin\..\include\libcxx\__algorithm/min.h:33:12
	str	r0, [sp]                        @ 4-byte Spill
	b	.LBB46_3
.LBB46_2:
	.loc	18 33 37                        @ D:\Embed\MDK\MDK\ARM\ARMCompilerV621\Bin\..\include\libcxx\__algorithm/min.h:33:37
	ldr	r0, [sp, #8]
	.loc	18 33 12                        @ D:\Embed\MDK\MDK\ARM\ARMCompilerV621\Bin\..\include\libcxx\__algorithm/min.h:33:12
	str	r0, [sp]                        @ 4-byte Spill
	b	.LBB46_3
.LBB46_3:
	ldr	r0, [sp]                        @ 4-byte Reload
	.loc	18 33 5 epilogue_begin          @ D:\Embed\MDK\MDK\ARM\ARMCompilerV621\Bin\..\include\libcxx\__algorithm/min.h:33:5
	add	sp, #16
	pop	{r7, pc}
.Ltmp169:
.Lfunc_end46:
	.size	_ZNSt3__23minB7v180000IjNS_6__lessIvvEEEERKT_S5_S5_T0_, .Lfunc_end46-_ZNSt3__23minB7v180000IjNS_6__lessIvvEEEERKT_S5_S5_T0_
	.cfi_endproc
	.cantunwind
	.fnend
                                        @ -- End function
	.section	.text._ZNKSt3__26__lessIvvEclB7v180000IjjEEbRKT_RKT0_,"axG",%progbits,_ZNKSt3__26__lessIvvEclB7v180000IjjEEbRKT_RKT0_,comdat
	.hidden	_ZNKSt3__26__lessIvvEclB7v180000IjjEEbRKT_RKT0_ @ -- Begin function _ZNKSt3__26__lessIvvEclB7v180000IjjEEbRKT_RKT0_
	.weak	_ZNKSt3__26__lessIvvEclB7v180000IjjEEbRKT_RKT0_
	.p2align	2
	.type	_ZNKSt3__26__lessIvvEclB7v180000IjjEEbRKT_RKT0_,%function
	.code	16                              @ @_ZNKSt3__26__lessIvvEclB7v180000IjjEEbRKT_RKT0_
	.thumb_func
_ZNKSt3__26__lessIvvEclB7v180000IjjEEbRKT_RKT0_:
.Lfunc_begin47:
	.file	19 "D:\\Embed\\MDK\\MDK\\ARM\\ARMCompilerV621\\Bin\\..\\include\\libcxx\\__algorithm" "comp.h"
	.loc	19 40 0 is_stmt 1               @ D:\Embed\MDK\MDK\ARM\ARMCompilerV621\Bin\..\include\libcxx\__algorithm/comp.h:40:0
	.fnstart
	.cfi_startproc
@ %bb.0:
	.pad	#12
	sub	sp, #12
	.cfi_def_cfa_offset 12
	str	r0, [sp, #8]
	str	r1, [sp, #4]
	str	r2, [sp]
.Ltmp170:
	.loc	19 41 12 prologue_end           @ D:\Embed\MDK\MDK\ARM\ARMCompilerV621\Bin\..\include\libcxx\__algorithm/comp.h:41:12
	ldr	r0, [sp, #4]
	ldr	r1, [r0]
	.loc	19 41 20 is_stmt 0              @ D:\Embed\MDK\MDK\ARM\ARMCompilerV621\Bin\..\include\libcxx\__algorithm/comp.h:41:20
	ldr	r0, [sp]
	ldr	r2, [r0]
	movs	r0, #0
	.loc	19 41 18                        @ D:\Embed\MDK\MDK\ARM\ARMCompilerV621\Bin\..\include\libcxx\__algorithm/comp.h:41:18
	cmp	r1, r2
	it	lo
	movlo	r0, #1
	.loc	19 41 5 epilogue_begin          @ D:\Embed\MDK\MDK\ARM\ARMCompilerV621\Bin\..\include\libcxx\__algorithm/comp.h:41:5
	add	sp, #12
	bx	lr
.Ltmp171:
.Lfunc_end47:
	.size	_ZNKSt3__26__lessIvvEclB7v180000IjjEEbRKT_RKT0_, .Lfunc_end47-_ZNKSt3__26__lessIvvEclB7v180000IjjEEbRKT_RKT0_
	.cfi_endproc
	.cantunwind
	.fnend
                                        @ -- End function
	.section	.text._ZN5fibre18BufferedStreamSinkILj512EEC2ERNS_15AsyncStreamSinkE,"axG",%progbits,_ZN5fibre18BufferedStreamSinkILj512EEC2ERNS_15AsyncStreamSinkE,comdat
	.hidden	_ZN5fibre18BufferedStreamSinkILj512EEC2ERNS_15AsyncStreamSinkE @ -- Begin function _ZN5fibre18BufferedStreamSinkILj512EEC2ERNS_15AsyncStreamSinkE
	.weak	_ZN5fibre18BufferedStreamSinkILj512EEC2ERNS_15AsyncStreamSinkE
	.p2align	2
	.type	_ZN5fibre18BufferedStreamSinkILj512EEC2ERNS_15AsyncStreamSinkE,%function
	.code	16                              @ @_ZN5fibre18BufferedStreamSinkILj512EEC2ERNS_15AsyncStreamSinkE
	.thumb_func
_ZN5fibre18BufferedStreamSinkILj512EEC2ERNS_15AsyncStreamSinkE:
.Lfunc_begin48:
	.loc	12 12 0 is_stmt 1               @ ../fibre-cpp/include\fibre/../../stream_utils.hpp:12:0
	.fnstart
	.cfi_startproc
@ %bb.0:
	.pad	#8
	sub	sp, #8
	.cfi_def_cfa_offset 8
	str	r0, [sp, #4]
	str	r1, [sp]
	ldr	r0, [sp, #4]
	movs	r1, #0
.Ltmp172:
	.loc	12 87 12 prologue_end           @ ../fibre-cpp/include\fibre/../../stream_utils.hpp:87:12
	str.w	r1, [r0, #512]
	.loc	12 88 12                        @ ../fibre-cpp/include\fibre/../../stream_utils.hpp:88:12
	str.w	r1, [r0, #516]
	.loc	12 89 10                        @ ../fibre-cpp/include\fibre/../../stream_utils.hpp:89:10
	strb.w	r1, [r0, #520]
	.loc	12 90 20                        @ ../fibre-cpp/include\fibre/../../stream_utils.hpp:90:20
	str.w	r1, [r0, #524]
	.loc	12 12 55                        @ ../fibre-cpp/include\fibre/../../stream_utils.hpp:12:55
	ldr	r1, [sp]
	.loc	12 12 49 is_stmt 0              @ ../fibre-cpp/include\fibre/../../stream_utils.hpp:12:49
	str.w	r1, [r0, #528]
	.loc	12 12 62 epilogue_begin         @ ../fibre-cpp/include\fibre/../../stream_utils.hpp:12:62
	add	sp, #8
	bx	lr
.Ltmp173:
.Lfunc_end48:
	.size	_ZN5fibre18BufferedStreamSinkILj512EEC2ERNS_15AsyncStreamSinkE, .Lfunc_end48-_ZN5fibre18BufferedStreamSinkILj512EEC2ERNS_15AsyncStreamSinkE
	.cfi_endproc
	.cantunwind
	.fnend
                                        @ -- End function
	.section	.text._ZN5fibre8CallbackIvJPNS_25LegacyProtocolPacketBasedENS_12StreamStatusEEEC2Ev,"axG",%progbits,_ZN5fibre8CallbackIvJPNS_25LegacyProtocolPacketBasedENS_12StreamStatusEEEC2Ev,comdat
	.hidden	_ZN5fibre8CallbackIvJPNS_25LegacyProtocolPacketBasedENS_12StreamStatusEEEC2Ev @ -- Begin function _ZN5fibre8CallbackIvJPNS_25LegacyProtocolPacketBasedENS_12StreamStatusEEEC2Ev
	.weak	_ZN5fibre8CallbackIvJPNS_25LegacyProtocolPacketBasedENS_12StreamStatusEEEC2Ev
	.p2align	2
	.type	_ZN5fibre8CallbackIvJPNS_25LegacyProtocolPacketBasedENS_12StreamStatusEEEC2Ev,%function
	.code	16                              @ @_ZN5fibre8CallbackIvJPNS_25LegacyProtocolPacketBasedENS_12StreamStatusEEEC2Ev
	.thumb_func
_ZN5fibre8CallbackIvJPNS_25LegacyProtocolPacketBasedENS_12StreamStatusEEEC2Ev:
.Lfunc_begin49:
	.loc	9 20 0 is_stmt 1                @ ../fibre-cpp/include\fibre/callback.hpp:20:0
	.fnstart
	.cfi_startproc
@ %bb.0:
	.pad	#4
	sub	sp, #4
	.cfi_def_cfa_offset 4
	str	r0, [sp]
	ldr	r0, [sp]
	movs	r1, #0
.Ltmp174:
	.loc	9 20 18 prologue_end            @ ../fibre-cpp/include\fibre/callback.hpp:20:18
	str	r1, [r0]
	.loc	9 20 32 is_stmt 0               @ ../fibre-cpp/include\fibre/callback.hpp:20:32
	str	r1, [r0, #4]
	.loc	9 20 47 epilogue_begin          @ ../fibre-cpp/include\fibre/callback.hpp:20:47
	add	sp, #4
	bx	lr
.Ltmp175:
.Lfunc_end49:
	.size	_ZN5fibre8CallbackIvJPNS_25LegacyProtocolPacketBasedENS_12StreamStatusEEEC2Ev, .Lfunc_end49-_ZN5fibre8CallbackIvJPNS_25LegacyProtocolPacketBasedENS_12StreamStatusEEEC2Ev
	.cfi_endproc
	.cantunwind
	.fnend
                                        @ -- End function
	.section	.text._ZN5fibre25LegacyProtocolStreamBased5startENS_8CallbackIvJPNS_25LegacyProtocolPacketBasedENS_12StreamStatusEEEE,"axG",%progbits,_ZN5fibre25LegacyProtocolStreamBased5startENS_8CallbackIvJPNS_25LegacyProtocolPacketBasedENS_12StreamStatusEEEE,comdat
	.hidden	_ZN5fibre25LegacyProtocolStreamBased5startENS_8CallbackIvJPNS_25LegacyProtocolPacketBasedENS_12StreamStatusEEEE @ -- Begin function _ZN5fibre25LegacyProtocolStreamBased5startENS_8CallbackIvJPNS_25LegacyProtocolPacketBasedENS_12StreamStatusEEEE
	.weak	_ZN5fibre25LegacyProtocolStreamBased5startENS_8CallbackIvJPNS_25LegacyProtocolPacketBasedENS_12StreamStatusEEEE
	.p2align	2
	.type	_ZN5fibre25LegacyProtocolStreamBased5startENS_8CallbackIvJPNS_25LegacyProtocolPacketBasedENS_12StreamStatusEEEE,%function
	.code	16                              @ @_ZN5fibre25LegacyProtocolStreamBased5startENS_8CallbackIvJPNS_25LegacyProtocolPacketBasedENS_12StreamStatusEEEE
	.thumb_func
_ZN5fibre25LegacyProtocolStreamBased5startENS_8CallbackIvJPNS_25LegacyProtocolPacketBasedENS_12StreamStatusEEEE:
.Lfunc_begin50:
	.loc	11 162 0 is_stmt 1              @ ../fibre-cpp/include\fibre/../../legacy_protocol.hpp:162:0
	.fnstart
	.cfi_startproc
@ %bb.0:
	.save	{r7, lr}
	push	{r7, lr}
	.cfi_def_cfa_offset 8
	.cfi_offset lr, -4
	.cfi_offset r7, -8
	.pad	#24
	sub	sp, #24
	.cfi_def_cfa_offset 32
	str	r0, [sp, #20]
	str	r1, [sp, #16]
	ldr	r0, [sp, #20]
.Ltmp176:
	.loc	11 162 87 prologue_end          @ ../fibre-cpp/include\fibre/../../legacy_protocol.hpp:162:87
	adds	r0, #88
	.loc	11 162 109 is_stmt 0            @ ../fibre-cpp/include\fibre/../../legacy_protocol.hpp:162:109
	str	r0, [sp]                        @ 4-byte Spill
	add	r0, sp, #8
	str	r0, [sp, #4]                    @ 4-byte Spill
	bl	_ZN5fibre8CallbackIvJPNS_25LegacyProtocolPacketBasedENS_12StreamStatusEEEC2ERKS4_
	ldr	r0, [sp]                        @ 4-byte Reload
	ldr	r1, [sp, #4]                    @ 4-byte Reload
	.loc	11 162 103                      @ ../fibre-cpp/include\fibre/../../legacy_protocol.hpp:162:103
	bl	_ZN5fibre25LegacyProtocolPacketBased5startENS_8CallbackIvJPS0_NS_12StreamStatusEEEE
	.loc	11 162 122 epilogue_begin       @ ../fibre-cpp/include\fibre/../../legacy_protocol.hpp:162:122
	add	sp, #24
	pop	{r7, pc}
.Ltmp177:
.Lfunc_end50:
	.size	_ZN5fibre25LegacyProtocolStreamBased5startENS_8CallbackIvJPNS_25LegacyProtocolPacketBasedENS_12StreamStatusEEEE, .Lfunc_end50-_ZN5fibre25LegacyProtocolStreamBased5startENS_8CallbackIvJPNS_25LegacyProtocolPacketBasedENS_12StreamStatusEEEE
	.cfi_endproc
	.cantunwind
	.fnend
                                        @ -- End function
	.section	.text._ZN5fibre18BufferedStreamSinkILj64EE23maybe_start_async_writeEv,"axG",%progbits,_ZN5fibre18BufferedStreamSinkILj64EE23maybe_start_async_writeEv,comdat
	.hidden	_ZN5fibre18BufferedStreamSinkILj64EE23maybe_start_async_writeEv @ -- Begin function _ZN5fibre18BufferedStreamSinkILj64EE23maybe_start_async_writeEv
	.weak	_ZN5fibre18BufferedStreamSinkILj64EE23maybe_start_async_writeEv
	.p2align	2
	.type	_ZN5fibre18BufferedStreamSinkILj64EE23maybe_start_async_writeEv,%function
	.code	16                              @ @_ZN5fibre18BufferedStreamSinkILj64EE23maybe_start_async_writeEv
	.thumb_func
_ZN5fibre18BufferedStreamSinkILj64EE23maybe_start_async_writeEv:
.Lfunc_begin51:
	.loc	12 54 0 is_stmt 1               @ ../fibre-cpp/include\fibre/../../stream_utils.hpp:54:0
	.fnstart
	.cfi_startproc
@ %bb.0:
	.save	{r4, lr}
	push	{r4, lr}
	.cfi_def_cfa_offset 8
	.cfi_offset lr, -4
	.cfi_offset r4, -8
	.pad	#72
	sub	sp, #72
	.cfi_def_cfa_offset 80
	str	r0, [sp, #68]
	ldr	r0, [sp, #68]
.Ltmp178:
	.loc	12 55 13 prologue_end           @ ../fibre-cpp/include\fibre/../../stream_utils.hpp:55:13
	str	r0, [sp, #32]                   @ 4-byte Spill
	ldrb.w	r0, [r0, #72]
.Ltmp179:
	.loc	12 55 13 is_stmt 0              @ ../fibre-cpp/include\fibre/../../stream_utils.hpp:55:13
	lsls	r0, r0, #31
	cbz	r0, .LBB51_2
	b	.LBB51_1
.LBB51_1:
.Ltmp180:
	.loc	12 57 9 is_stmt 1               @ ../fibre-cpp/include\fibre/../../stream_utils.hpp:57:9
	b	.LBB51_9
.Ltmp181:
.LBB51_2:
	.loc	12 57 32 is_stmt 0              @ ../fibre-cpp/include\fibre/../../stream_utils.hpp:57:32
	ldr	r0, [sp, #32]                   @ 4-byte Reload
	ldr	r1, [r0, #64]
	.loc	12 57 20                        @ ../fibre-cpp/include\fibre/../../stream_utils.hpp:57:20
	ldr	r0, [r0, #68]
.Ltmp182:
	.loc	12 57 20                        @ ../fibre-cpp/include\fibre/../../stream_utils.hpp:57:20
	cmp	r0, r1
	bhs	.LBB51_4
	b	.LBB51_3
.LBB51_3:
	.loc	12 0 20                         @ ../fibre-cpp/include\fibre/../../stream_utils.hpp:0:20
	ldr	r0, [sp, #32]                   @ 4-byte Reload
	movs	r1, #1
.Ltmp183:
	.loc	12 58 24 is_stmt 1              @ ../fibre-cpp/include\fibre/../../stream_utils.hpp:58:24
	strb.w	r1, [r0, #72]
	.loc	12 59 63                        @ ../fibre-cpp/include\fibre/../../stream_utils.hpp:59:63
	ldr	r2, [r0, #64]
	.loc	12 59 42 is_stmt 0              @ ../fibre-cpp/include\fibre/../../stream_utils.hpp:59:42
	ldr	r1, [r0, #68]
	.loc	12 59 13                        @ ../fibre-cpp/include\fibre/../../stream_utils.hpp:59:13
	ldr	r3, [r0, #80]
	.loc	12 59 40                        @ ../fibre-cpp/include\fibre/../../stream_utils.hpp:59:40
	str	r3, [sp, #20]                   @ 4-byte Spill
	add	r1, r0
	.loc	12 59 61                        @ ../fibre-cpp/include\fibre/../../stream_utils.hpp:59:61
	add	r2, r0
	add	r0, sp, #60
	.loc	12 59 31                        @ ../fibre-cpp/include\fibre/../../stream_utils.hpp:59:31
	bl	_ZN5fibre16generic_bufptr_tIKhEC2EPS1_S3_
	ldr	r1, [sp, #32]                   @ 4-byte Reload
	.loc	12 59 77                        @ ../fibre-cpp/include\fibre/../../stream_utils.hpp:59:77
	add.w	r0, r1, #76
	.loc	12 59 95                        @ ../fibre-cpp/include\fibre/../../stream_utils.hpp:59:95
	str	r0, [sp, #24]                   @ 4-byte Spill
	add	r0, sp, #52
	str	r0, [sp, #28]                   @ 4-byte Spill
	bl	_ZN5fibre13make_callbackIMNS_18BufferedStreamSinkILj64EEEFvNS_11WriteResultEEXadL_ZNS2_17on_write_completeES3_EENS_15function_traitsIvS2_JS3_EEENS_14MemberCallbackIS5_XadL_ZNS2_17on_write_completeES3_EES2_vNSt3__25tupleIJS3_EEEEEEENT2_4cb_tEPNT1_4TObjE
	ldr	r0, [sp, #20]                   @ 4-byte Reload
	ldr	r3, [sp, #24]                   @ 4-byte Reload
	ldr.w	lr, [sp, #28]                   @ 4-byte Reload
	.loc	12 59 19                        @ ../fibre-cpp/include\fibre/../../stream_utils.hpp:59:19
	ldr	r1, [sp, #60]
	ldr	r2, [sp, #64]
	ldr.w	r12, [r0]
	ldr.w	r12, [r12]
	mov	r4, sp
	str.w	lr, [r4]
	blx	r12
	.loc	12 60 9 is_stmt 1               @ ../fibre-cpp/include\fibre/../../stream_utils.hpp:60:9
	b	.LBB51_8
.Ltmp184:
.LBB51_4:
	.loc	12 60 32 is_stmt 0              @ ../fibre-cpp/include\fibre/../../stream_utils.hpp:60:32
	ldr	r0, [sp, #32]                   @ 4-byte Reload
	ldr	r1, [r0, #64]
	.loc	12 60 20                        @ ../fibre-cpp/include\fibre/../../stream_utils.hpp:60:20
	ldr	r0, [r0, #68]
.Ltmp185:
	.loc	12 60 20                        @ ../fibre-cpp/include\fibre/../../stream_utils.hpp:60:20
	cmp	r0, r1
	bls	.LBB51_6
	b	.LBB51_5
.LBB51_5:
	.loc	12 0 20                         @ ../fibre-cpp/include\fibre/../../stream_utils.hpp:0:20
	ldr	r0, [sp, #32]                   @ 4-byte Reload
	movs	r1, #1
.Ltmp186:
	.loc	12 61 24 is_stmt 1              @ ../fibre-cpp/include\fibre/../../stream_utils.hpp:61:24
	strb.w	r1, [r0, #72]
	.loc	12 62 42                        @ ../fibre-cpp/include\fibre/../../stream_utils.hpp:62:42
	ldr	r1, [r0, #68]
	.loc	12 62 13 is_stmt 0              @ ../fibre-cpp/include\fibre/../../stream_utils.hpp:62:13
	ldr	r2, [r0, #80]
	.loc	12 62 40                        @ ../fibre-cpp/include\fibre/../../stream_utils.hpp:62:40
	str	r2, [sp, #8]                    @ 4-byte Spill
	add	r1, r0
	.loc	12 62 61                        @ ../fibre-cpp/include\fibre/../../stream_utils.hpp:62:61
	add.w	r2, r0, #64
	add	r0, sp, #44
	.loc	12 62 31                        @ ../fibre-cpp/include\fibre/../../stream_utils.hpp:62:31
	bl	_ZN5fibre16generic_bufptr_tIKhEC2EPS1_S3_
	ldr	r1, [sp, #32]                   @ 4-byte Reload
	.loc	12 62 68                        @ ../fibre-cpp/include\fibre/../../stream_utils.hpp:62:68
	add.w	r0, r1, #76
	.loc	12 62 86                        @ ../fibre-cpp/include\fibre/../../stream_utils.hpp:62:86
	str	r0, [sp, #12]                   @ 4-byte Spill
	add	r0, sp, #36
	str	r0, [sp, #16]                   @ 4-byte Spill
	bl	_ZN5fibre13make_callbackIMNS_18BufferedStreamSinkILj64EEEFvNS_11WriteResultEEXadL_ZNS2_17on_write_completeES3_EENS_15function_traitsIvS2_JS3_EEENS_14MemberCallbackIS5_XadL_ZNS2_17on_write_completeES3_EES2_vNSt3__25tupleIJS3_EEEEEEENT2_4cb_tEPNT1_4TObjE
	ldr	r0, [sp, #8]                    @ 4-byte Reload
	ldr	r3, [sp, #12]                   @ 4-byte Reload
	ldr.w	lr, [sp, #16]                   @ 4-byte Reload
	.loc	12 62 19                        @ ../fibre-cpp/include\fibre/../../stream_utils.hpp:62:19
	ldr	r1, [sp, #44]
	ldr	r2, [sp, #48]
	ldr.w	r12, [r0]
	ldr.w	r12, [r12]
	mov	r4, sp
	str.w	lr, [r4]
	blx	r12
	.loc	12 63 9 is_stmt 1               @ ../fibre-cpp/include\fibre/../../stream_utils.hpp:63:9
	b	.LBB51_7
.Ltmp187:
.LBB51_6:
	.loc	12 0 9 is_stmt 0                @ ../fibre-cpp/include\fibre/../../stream_utils.hpp:0:9
	b	.LBB51_7
.LBB51_7:
	b	.LBB51_8
.LBB51_8:
	b	.LBB51_9
.LBB51_9:
	.loc	12 66 5 epilogue_begin is_stmt 1 @ ../fibre-cpp/include\fibre/../../stream_utils.hpp:66:5
	add	sp, #72
	pop	{r4, pc}
.Ltmp188:
.Lfunc_end51:
	.size	_ZN5fibre18BufferedStreamSinkILj64EE23maybe_start_async_writeEv, .Lfunc_end51-_ZN5fibre18BufferedStreamSinkILj64EE23maybe_start_async_writeEv
	.cfi_endproc
	.cantunwind
	.fnend
                                        @ -- End function
	.section	.text._ZN5fibre8CallbackIvJPNS_25LegacyProtocolPacketBasedENS_12StreamStatusEEEC2ERKS4_,"axG",%progbits,_ZN5fibre8CallbackIvJPNS_25LegacyProtocolPacketBasedENS_12StreamStatusEEEC2ERKS4_,comdat
	.hidden	_ZN5fibre8CallbackIvJPNS_25LegacyProtocolPacketBasedENS_12StreamStatusEEEC2ERKS4_ @ -- Begin function _ZN5fibre8CallbackIvJPNS_25LegacyProtocolPacketBasedENS_12StreamStatusEEEC2ERKS4_
	.weak	_ZN5fibre8CallbackIvJPNS_25LegacyProtocolPacketBasedENS_12StreamStatusEEEC2ERKS4_
	.p2align	2
	.type	_ZN5fibre8CallbackIvJPNS_25LegacyProtocolPacketBasedENS_12StreamStatusEEEC2ERKS4_,%function
	.code	16                              @ @_ZN5fibre8CallbackIvJPNS_25LegacyProtocolPacketBasedENS_12StreamStatusEEEC2ERKS4_
	.thumb_func
_ZN5fibre8CallbackIvJPNS_25LegacyProtocolPacketBasedENS_12StreamStatusEEEC2ERKS4_:
.Lfunc_begin52:
	.loc	9 37 0                          @ ../fibre-cpp/include\fibre/callback.hpp:37:0
	.fnstart
	.cfi_startproc
@ %bb.0:
	.pad	#8
	sub	sp, #8
	.cfi_def_cfa_offset 8
	str	r0, [sp, #4]
	str	r1, [sp]
	ldr	r0, [sp, #4]
.Ltmp189:
	.loc	9 37 43 prologue_end            @ ../fibre-cpp/include\fibre/callback.hpp:37:43
	ldr	r1, [sp]
	.loc	9 37 49 is_stmt 0               @ ../fibre-cpp/include\fibre/callback.hpp:37:49
	ldr	r1, [r1]
	.loc	9 37 39                         @ ../fibre-cpp/include\fibre/callback.hpp:37:39
	str	r1, [r0]
	.loc	9 37 60                         @ ../fibre-cpp/include\fibre/callback.hpp:37:60
	ldr	r1, [sp]
	.loc	9 37 66                         @ ../fibre-cpp/include\fibre/callback.hpp:37:66
	ldr	r1, [r1, #4]
	.loc	9 37 55                         @ ../fibre-cpp/include\fibre/callback.hpp:37:55
	str	r1, [r0, #4]
	.loc	9 37 73 epilogue_begin          @ ../fibre-cpp/include\fibre/callback.hpp:37:73
	add	sp, #8
	bx	lr
.Ltmp190:
.Lfunc_end52:
	.size	_ZN5fibre8CallbackIvJPNS_25LegacyProtocolPacketBasedENS_12StreamStatusEEEC2ERKS4_, .Lfunc_end52-_ZN5fibre8CallbackIvJPNS_25LegacyProtocolPacketBasedENS_12StreamStatusEEEC2ERKS4_
	.cfi_endproc
	.cantunwind
	.fnend
                                        @ -- End function
	.section	.text._ZN5fibre13make_callbackIMNS_18BufferedStreamSinkILj64EEEFvNS_11WriteResultEEXadL_ZNS2_17on_write_completeES3_EENS_15function_traitsIvS2_JS3_EEENS_14MemberCallbackIS5_XadL_ZNS2_17on_write_completeES3_EES2_vNSt3__25tupleIJS3_EEEEEEENT2_4cb_tEPNT1_4TObjE,"axG",%progbits,_ZN5fibre13make_callbackIMNS_18BufferedStreamSinkILj64EEEFvNS_11WriteResultEEXadL_ZNS2_17on_write_completeES3_EENS_15function_traitsIvS2_JS3_EEENS_14MemberCallbackIS5_XadL_ZNS2_17on_write_completeES3_EES2_vNSt3__25tupleIJS3_EEEEEEENT2_4cb_tEPNT1_4TObjE,comdat
	.hidden	_ZN5fibre13make_callbackIMNS_18BufferedStreamSinkILj64EEEFvNS_11WriteResultEEXadL_ZNS2_17on_write_completeES3_EENS_15function_traitsIvS2_JS3_EEENS_14MemberCallbackIS5_XadL_ZNS2_17on_write_completeES3_EES2_vNSt3__25tupleIJS3_EEEEEEENT2_4cb_tEPNT1_4TObjE @ -- Begin function _ZN5fibre13make_callbackIMNS_18BufferedStreamSinkILj64EEEFvNS_11WriteResultEEXadL_ZNS2_17on_write_completeES3_EENS_15function_traitsIvS2_JS3_EEENS_14MemberCallbackIS5_XadL_ZNS2_17on_write_completeES3_EES2_vNSt3__25tupleIJS3_EEEEEEENT2_4cb_tEPNT1_4TObjE
	.weak	_ZN5fibre13make_callbackIMNS_18BufferedStreamSinkILj64EEEFvNS_11WriteResultEEXadL_ZNS2_17on_write_completeES3_EENS_15function_traitsIvS2_JS3_EEENS_14MemberCallbackIS5_XadL_ZNS2_17on_write_completeES3_EES2_vNSt3__25tupleIJS3_EEEEEEENT2_4cb_tEPNT1_4TObjE
	.p2align	2
	.type	_ZN5fibre13make_callbackIMNS_18BufferedStreamSinkILj64EEEFvNS_11WriteResultEEXadL_ZNS2_17on_write_completeES3_EENS_15function_traitsIvS2_JS3_EEENS_14MemberCallbackIS5_XadL_ZNS2_17on_write_completeES3_EES2_vNSt3__25tupleIJS3_EEEEEEENT2_4cb_tEPNT1_4TObjE,%function
	.code	16                              @ @_ZN5fibre13make_callbackIMNS_18BufferedStreamSinkILj64EEEFvNS_11WriteResultEEXadL_ZNS2_17on_write_completeES3_EENS_15function_traitsIvS2_JS3_EEENS_14MemberCallbackIS5_XadL_ZNS2_17on_write_completeES3_EES2_vNSt3__25tupleIJS3_EEEEEEENT2_4cb_tEPNT1_4TObjE
	.thumb_func
_ZN5fibre13make_callbackIMNS_18BufferedStreamSinkILj64EEEFvNS_11WriteResultEEXadL_ZNS2_17on_write_completeES3_EENS_15function_traitsIvS2_JS3_EEENS_14MemberCallbackIS5_XadL_ZNS2_17on_write_completeES3_EES2_vNSt3__25tupleIJS3_EEEEEEENT2_4cb_tEPNT1_4TObjE:
.Lfunc_begin53:
	.loc	9 114 0 is_stmt 1               @ ../fibre-cpp/include\fibre/callback.hpp:114:0
	.fnstart
	.cfi_startproc
@ %bb.0:
	.save	{r7, lr}
	push	{r7, lr}
	.cfi_def_cfa_offset 8
	.cfi_offset lr, -4
	.cfi_offset r7, -8
	.pad	#8
	sub	sp, #8
	.cfi_def_cfa_offset 16
	str	r0, [sp, #4]
	str	r1, [sp]
.Ltmp191:
	.loc	9 115 24 prologue_end           @ ../fibre-cpp/include\fibre/callback.hpp:115:24
	ldr	r1, [sp]
	.loc	9 115 12 is_stmt 0              @ ../fibre-cpp/include\fibre/callback.hpp:115:12
	bl	_ZN5fibre14MemberCallbackIMNS_18BufferedStreamSinkILj64EEEFvNS_11WriteResultEEXadL_ZNS2_17on_write_completeES3_EES2_vNSt3__25tupleIJS3_EEEE4withEPS2_
	.loc	9 115 5 epilogue_begin          @ ../fibre-cpp/include\fibre/callback.hpp:115:5
	add	sp, #8
	pop	{r7, pc}
.Ltmp192:
.Lfunc_end53:
	.size	_ZN5fibre13make_callbackIMNS_18BufferedStreamSinkILj64EEEFvNS_11WriteResultEEXadL_ZNS2_17on_write_completeES3_EENS_15function_traitsIvS2_JS3_EEENS_14MemberCallbackIS5_XadL_ZNS2_17on_write_completeES3_EES2_vNSt3__25tupleIJS3_EEEEEEENT2_4cb_tEPNT1_4TObjE, .Lfunc_end53-_ZN5fibre13make_callbackIMNS_18BufferedStreamSinkILj64EEEFvNS_11WriteResultEEXadL_ZNS2_17on_write_completeES3_EENS_15function_traitsIvS2_JS3_EEENS_14MemberCallbackIS5_XadL_ZNS2_17on_write_completeES3_EES2_vNSt3__25tupleIJS3_EEEEEEENT2_4cb_tEPNT1_4TObjE
	.cfi_endproc
	.cantunwind
	.fnend
                                        @ -- End function
	.section	.text._ZN5fibre18BufferedStreamSinkILj64EE17on_write_completeENS_11WriteResultE,"axG",%progbits,_ZN5fibre18BufferedStreamSinkILj64EE17on_write_completeENS_11WriteResultE,comdat
	.hidden	_ZN5fibre18BufferedStreamSinkILj64EE17on_write_completeENS_11WriteResultE @ -- Begin function _ZN5fibre18BufferedStreamSinkILj64EE17on_write_completeENS_11WriteResultE
	.weak	_ZN5fibre18BufferedStreamSinkILj64EE17on_write_completeENS_11WriteResultE
	.p2align	2
	.type	_ZN5fibre18BufferedStreamSinkILj64EE17on_write_completeENS_11WriteResultE,%function
	.code	16                              @ @_ZN5fibre18BufferedStreamSinkILj64EE17on_write_completeENS_11WriteResultE
	.thumb_func
_ZN5fibre18BufferedStreamSinkILj64EE17on_write_completeENS_11WriteResultE:
.Lfunc_begin54:
	.loc	12 69 0 is_stmt 1               @ ../fibre-cpp/include\fibre/../../stream_utils.hpp:69:0
	.fnstart
	.cfi_startproc
@ %bb.0:
	.save	{r7, lr}
	push	{r7, lr}
	.cfi_def_cfa_offset 8
	.cfi_offset lr, -4
	.cfi_offset r7, -8
	.pad	#16
	sub	sp, #16
	.cfi_def_cfa_offset 24
                                        @ kill: def $r3 killed $r2
                                        @ kill: def $r3 killed $r1
	str	r2, [sp, #12]
	str	r1, [sp, #8]
	str	r0, [sp, #4]
	ldr	r1, [sp, #4]
	str	r1, [sp]                        @ 4-byte Spill
	movs	r0, #0
.Ltmp193:
	.loc	12 70 20 prologue_end           @ ../fibre-cpp/include\fibre/../../stream_utils.hpp:70:20
	strb.w	r0, [r1, #72]
	.loc	12 71 26                        @ ../fibre-cpp/include\fibre/../../stream_utils.hpp:71:26
	str	r0, [r1, #76]
.Ltmp194:
	.loc	12 73 20                        @ ../fibre-cpp/include\fibre/../../stream_utils.hpp:73:20
	ldrb.w	r0, [sp, #8]
.Ltmp195:
	.loc	12 73 13 is_stmt 0              @ ../fibre-cpp/include\fibre/../../stream_utils.hpp:73:13
	cbnz	r0, .LBB54_6
	b	.LBB54_1
.LBB54_1:
.Ltmp196:
	.loc	12 74 24 is_stmt 1              @ ../fibre-cpp/include\fibre/../../stream_utils.hpp:74:24
	ldr	r1, [sp]                        @ 4-byte Reload
	ldr	r0, [sp, #12]
	.loc	12 74 38 is_stmt 0              @ ../fibre-cpp/include\fibre/../../stream_utils.hpp:74:38
	cmp	r0, r1
	blo	.LBB54_3
	b	.LBB54_2
.LBB54_2:
	.loc	12 74 48                        @ ../fibre-cpp/include\fibre/../../stream_utils.hpp:74:48
	ldr	r1, [sp]                        @ 4-byte Reload
	ldr	r0, [sp, #12]
	.loc	12 74 63                        @ ../fibre-cpp/include\fibre/../../stream_utils.hpp:74:63
	adds	r1, #64
.Ltmp197:
	.loc	12 74 17                        @ ../fibre-cpp/include\fibre/../../stream_utils.hpp:74:17
	cmp	r0, r1
	bls	.LBB54_5
	b	.LBB54_3
.LBB54_3:
.Ltmp198:
	.loc	12 75 17 is_stmt 1              @ ../fibre-cpp/include\fibre/../../stream_utils.hpp:75:17
	b	.LBB54_4
.LBB54_4:                               @ =>This Inner Loop Header: Depth=1
	.loc	12 0 17 is_stmt 0               @ ../fibre-cpp/include\fibre/../../stream_utils.hpp:0:17
	ldr	r1, [sp]                        @ 4-byte Reload
	movs	r0, #0
.Ltmp199:
	.loc	12 76 38 is_stmt 1              @ ../fibre-cpp/include\fibre/../../stream_utils.hpp:76:38
	str	r0, [r1, #76]
	.loc	12 75 17                        @ ../fibre-cpp/include\fibre/../../stream_utils.hpp:75:17
	b	.LBB54_4
.Ltmp200:
.LBB54_5:
	.loc	12 78 33                        @ ../fibre-cpp/include\fibre/../../stream_utils.hpp:78:33
	ldr	r0, [sp]                        @ 4-byte Reload
	ldr	r1, [sp, #12]
	.loc	12 78 37 is_stmt 0              @ ../fibre-cpp/include\fibre/../../stream_utils.hpp:78:37
	subs	r1, r1, r0
	.loc	12 78 48                        @ ../fibre-cpp/include\fibre/../../stream_utils.hpp:78:48
	and	r1, r1, #63
	.loc	12 78 23                        @ ../fibre-cpp/include\fibre/../../stream_utils.hpp:78:23
	str	r1, [r0, #68]
	.loc	12 79 13 is_stmt 1              @ ../fibre-cpp/include\fibre/../../stream_utils.hpp:79:13
	bl	_ZN5fibre18BufferedStreamSinkILj64EE23maybe_start_async_writeEv
	.loc	12 80 9                         @ ../fibre-cpp/include\fibre/../../stream_utils.hpp:80:9
	b	.LBB54_6
.Ltmp201:
.LBB54_6:
	.loc	12 81 5 epilogue_begin          @ ../fibre-cpp/include\fibre/../../stream_utils.hpp:81:5
	add	sp, #16
	pop	{r7, pc}
.Ltmp202:
.Lfunc_end54:
	.size	_ZN5fibre18BufferedStreamSinkILj64EE17on_write_completeENS_11WriteResultE, .Lfunc_end54-_ZN5fibre18BufferedStreamSinkILj64EE17on_write_completeENS_11WriteResultE
	.cfi_endproc
	.cantunwind
	.fnend
                                        @ -- End function
	.section	.text._ZN5fibre14MemberCallbackIMNS_18BufferedStreamSinkILj64EEEFvNS_11WriteResultEEXadL_ZNS2_17on_write_completeES3_EES2_vNSt3__25tupleIJS3_EEEE4withEPS2_,"axG",%progbits,_ZN5fibre14MemberCallbackIMNS_18BufferedStreamSinkILj64EEEFvNS_11WriteResultEEXadL_ZNS2_17on_write_completeES3_EES2_vNSt3__25tupleIJS3_EEEE4withEPS2_,comdat
	.hidden	_ZN5fibre14MemberCallbackIMNS_18BufferedStreamSinkILj64EEEFvNS_11WriteResultEEXadL_ZNS2_17on_write_completeES3_EES2_vNSt3__25tupleIJS3_EEEE4withEPS2_ @ -- Begin function _ZN5fibre14MemberCallbackIMNS_18BufferedStreamSinkILj64EEEFvNS_11WriteResultEEXadL_ZNS2_17on_write_completeES3_EES2_vNSt3__25tupleIJS3_EEEE4withEPS2_
	.weak	_ZN5fibre14MemberCallbackIMNS_18BufferedStreamSinkILj64EEEFvNS_11WriteResultEEXadL_ZNS2_17on_write_completeES3_EES2_vNSt3__25tupleIJS3_EEEE4withEPS2_
	.p2align	2
	.type	_ZN5fibre14MemberCallbackIMNS_18BufferedStreamSinkILj64EEEFvNS_11WriteResultEEXadL_ZNS2_17on_write_completeES3_EES2_vNSt3__25tupleIJS3_EEEE4withEPS2_,%function
	.code	16                              @ @_ZN5fibre14MemberCallbackIMNS_18BufferedStreamSinkILj64EEEFvNS_11WriteResultEEXadL_ZNS2_17on_write_completeES3_EES2_vNSt3__25tupleIJS3_EEEE4withEPS2_
	.thumb_func
_ZN5fibre14MemberCallbackIMNS_18BufferedStreamSinkILj64EEEFvNS_11WriteResultEEXadL_ZNS2_17on_write_completeES3_EES2_vNSt3__25tupleIJS3_EEEE4withEPS2_:
.Lfunc_begin55:
	.loc	9 104 0                         @ ../fibre-cpp/include\fibre/callback.hpp:104:0
	.fnstart
	.cfi_startproc
@ %bb.0:
	.save	{r7, lr}
	push	{r7, lr}
	.cfi_def_cfa_offset 8
	.cfi_offset lr, -4
	.cfi_offset r7, -8
	.pad	#16
	sub	sp, #16
	.cfi_def_cfa_offset 24
	str	r0, [sp]                        @ 4-byte Spill
	str	r0, [sp, #12]
	str	r1, [sp, #8]
	add.w	r0, sp, #7
.Ltmp203:
	.loc	9 105 21 prologue_end           @ ../fibre-cpp/include\fibre/callback.hpp:105:21
	bl	_ZZN5fibre14MemberCallbackIMNS_18BufferedStreamSinkILj64EEEFvNS_11WriteResultEEXadL_ZNS2_17on_write_completeES3_EES2_vNSt3__25tupleIJS3_EEEE4withEPS2_ENKUlPvS3_E_cvPFvSB_S3_EEv
	mov	r1, r0
	.loc	9 107 12                        @ ../fibre-cpp/include\fibre/callback.hpp:107:12
	ldr	r0, [sp]                        @ 4-byte Reload
	ldr	r2, [sp, #8]
	.loc	9 105 16                        @ ../fibre-cpp/include\fibre/callback.hpp:105:16
	bl	_ZN5fibre8CallbackIvJNS_11WriteResultEEEC2EPFvPvS1_ES3_
	.loc	9 105 9 epilogue_begin is_stmt 0 @ ../fibre-cpp/include\fibre/callback.hpp:105:9
	add	sp, #16
	pop	{r7, pc}
.Ltmp204:
.Lfunc_end55:
	.size	_ZN5fibre14MemberCallbackIMNS_18BufferedStreamSinkILj64EEEFvNS_11WriteResultEEXadL_ZNS2_17on_write_completeES3_EES2_vNSt3__25tupleIJS3_EEEE4withEPS2_, .Lfunc_end55-_ZN5fibre14MemberCallbackIMNS_18BufferedStreamSinkILj64EEEFvNS_11WriteResultEEXadL_ZNS2_17on_write_completeES3_EES2_vNSt3__25tupleIJS3_EEEE4withEPS2_
	.cfi_endproc
	.cantunwind
	.fnend
                                        @ -- End function
	.section	.text._ZZN5fibre14MemberCallbackIMNS_18BufferedStreamSinkILj64EEEFvNS_11WriteResultEEXadL_ZNS2_17on_write_completeES3_EES2_vNSt3__25tupleIJS3_EEEE4withEPS2_ENKUlPvS3_E_cvPFvSB_S3_EEv,"axG",%progbits,_ZZN5fibre14MemberCallbackIMNS_18BufferedStreamSinkILj64EEEFvNS_11WriteResultEEXadL_ZNS2_17on_write_completeES3_EES2_vNSt3__25tupleIJS3_EEEE4withEPS2_ENKUlPvS3_E_cvPFvSB_S3_EEv,comdat
	.hidden	_ZZN5fibre14MemberCallbackIMNS_18BufferedStreamSinkILj64EEEFvNS_11WriteResultEEXadL_ZNS2_17on_write_completeES3_EES2_vNSt3__25tupleIJS3_EEEE4withEPS2_ENKUlPvS3_E_cvPFvSB_S3_EEv @ -- Begin function _ZZN5fibre14MemberCallbackIMNS_18BufferedStreamSinkILj64EEEFvNS_11WriteResultEEXadL_ZNS2_17on_write_completeES3_EES2_vNSt3__25tupleIJS3_EEEE4withEPS2_ENKUlPvS3_E_cvPFvSB_S3_EEv
	.weak	_ZZN5fibre14MemberCallbackIMNS_18BufferedStreamSinkILj64EEEFvNS_11WriteResultEEXadL_ZNS2_17on_write_completeES3_EES2_vNSt3__25tupleIJS3_EEEE4withEPS2_ENKUlPvS3_E_cvPFvSB_S3_EEv
	.p2align	2
	.type	_ZZN5fibre14MemberCallbackIMNS_18BufferedStreamSinkILj64EEEFvNS_11WriteResultEEXadL_ZNS2_17on_write_completeES3_EES2_vNSt3__25tupleIJS3_EEEE4withEPS2_ENKUlPvS3_E_cvPFvSB_S3_EEv,%function
	.code	16                              @ @_ZZN5fibre14MemberCallbackIMNS_18BufferedStreamSinkILj64EEEFvNS_11WriteResultEEXadL_ZNS2_17on_write_completeES3_EES2_vNSt3__25tupleIJS3_EEEE4withEPS2_ENKUlPvS3_E_cvPFvSB_S3_EEv
	.thumb_func
_ZZN5fibre14MemberCallbackIMNS_18BufferedStreamSinkILj64EEEFvNS_11WriteResultEEXadL_ZNS2_17on_write_completeES3_EES2_vNSt3__25tupleIJS3_EEEE4withEPS2_ENKUlPvS3_E_cvPFvSB_S3_EEv:
.Lfunc_begin56:
	.loc	9 105 0 is_stmt 1               @ ../fibre-cpp/include\fibre/callback.hpp:105:0
	.fnstart
	.cfi_startproc
@ %bb.0:
	.pad	#4
	sub	sp, #4
	.cfi_def_cfa_offset 4
	str	r0, [sp]
.Ltmp205:
	.loc	9 105 21 prologue_end           @ ../fibre-cpp/include\fibre/callback.hpp:105:21
	movw	r0, :lower16:_ZZN5fibre14MemberCallbackIMNS_18BufferedStreamSinkILj64EEEFvNS_11WriteResultEEXadL_ZNS2_17on_write_completeES3_EES2_vNSt3__25tupleIJS3_EEEE4withEPS2_ENUlPvS3_E_8__invokeESB_S3_
	movt	r0, :upper16:_ZZN5fibre14MemberCallbackIMNS_18BufferedStreamSinkILj64EEEFvNS_11WriteResultEEXadL_ZNS2_17on_write_completeES3_EES2_vNSt3__25tupleIJS3_EEEE4withEPS2_ENUlPvS3_E_8__invokeESB_S3_
	.loc	9 105 21 epilogue_begin is_stmt 0 @ ../fibre-cpp/include\fibre/callback.hpp:105:21
	add	sp, #4
	bx	lr
.Ltmp206:
.Lfunc_end56:
	.size	_ZZN5fibre14MemberCallbackIMNS_18BufferedStreamSinkILj64EEEFvNS_11WriteResultEEXadL_ZNS2_17on_write_completeES3_EES2_vNSt3__25tupleIJS3_EEEE4withEPS2_ENKUlPvS3_E_cvPFvSB_S3_EEv, .Lfunc_end56-_ZZN5fibre14MemberCallbackIMNS_18BufferedStreamSinkILj64EEEFvNS_11WriteResultEEXadL_ZNS2_17on_write_completeES3_EES2_vNSt3__25tupleIJS3_EEEE4withEPS2_ENKUlPvS3_E_cvPFvSB_S3_EEv
	.cfi_endproc
	.cantunwind
	.fnend
                                        @ -- End function
	.section	.text._ZN5fibre8CallbackIvJNS_11WriteResultEEEC2EPFvPvS1_ES3_,"axG",%progbits,_ZN5fibre8CallbackIvJNS_11WriteResultEEEC2EPFvPvS1_ES3_,comdat
	.hidden	_ZN5fibre8CallbackIvJNS_11WriteResultEEEC2EPFvPvS1_ES3_ @ -- Begin function _ZN5fibre8CallbackIvJNS_11WriteResultEEEC2EPFvPvS1_ES3_
	.weak	_ZN5fibre8CallbackIvJNS_11WriteResultEEEC2EPFvPvS1_ES3_
	.p2align	2
	.type	_ZN5fibre8CallbackIvJNS_11WriteResultEEEC2EPFvPvS1_ES3_,%function
	.code	16                              @ @_ZN5fibre8CallbackIvJNS_11WriteResultEEEC2EPFvPvS1_ES3_
	.thumb_func
_ZN5fibre8CallbackIvJNS_11WriteResultEEEC2EPFvPvS1_ES3_:
.Lfunc_begin57:
	.loc	9 23 0 is_stmt 1                @ ../fibre-cpp/include\fibre/callback.hpp:23:0
	.fnstart
	.cfi_startproc
@ %bb.0:
	.pad	#12
	sub	sp, #12
	.cfi_def_cfa_offset 12
	str	r0, [sp, #8]
	str	r1, [sp, #4]
	str	r2, [sp]
	ldr	r0, [sp, #8]
.Ltmp207:
	.loc	9 23 13 prologue_end            @ ../fibre-cpp/include\fibre/callback.hpp:23:13
	ldr	r1, [sp, #4]
	.loc	9 23 9 is_stmt 0                @ ../fibre-cpp/include\fibre/callback.hpp:23:9
	str	r1, [r0]
	.loc	9 23 29                         @ ../fibre-cpp/include\fibre/callback.hpp:23:29
	ldr	r1, [sp]
	.loc	9 23 24                         @ ../fibre-cpp/include\fibre/callback.hpp:23:24
	str	r1, [r0, #4]
	.loc	9 23 35 epilogue_begin          @ ../fibre-cpp/include\fibre/callback.hpp:23:35
	add	sp, #12
	bx	lr
.Ltmp208:
.Lfunc_end57:
	.size	_ZN5fibre8CallbackIvJNS_11WriteResultEEEC2EPFvPvS1_ES3_, .Lfunc_end57-_ZN5fibre8CallbackIvJNS_11WriteResultEEEC2EPFvPvS1_ES3_
	.cfi_endproc
	.cantunwind
	.fnend
                                        @ -- End function
	.section	.text._ZZN5fibre14MemberCallbackIMNS_18BufferedStreamSinkILj64EEEFvNS_11WriteResultEEXadL_ZNS2_17on_write_completeES3_EES2_vNSt3__25tupleIJS3_EEEE4withEPS2_ENUlPvS3_E_8__invokeESB_S3_,"axG",%progbits,_ZZN5fibre14MemberCallbackIMNS_18BufferedStreamSinkILj64EEEFvNS_11WriteResultEEXadL_ZNS2_17on_write_completeES3_EES2_vNSt3__25tupleIJS3_EEEE4withEPS2_ENUlPvS3_E_8__invokeESB_S3_,comdat
	.hidden	_ZZN5fibre14MemberCallbackIMNS_18BufferedStreamSinkILj64EEEFvNS_11WriteResultEEXadL_ZNS2_17on_write_completeES3_EES2_vNSt3__25tupleIJS3_EEEE4withEPS2_ENUlPvS3_E_8__invokeESB_S3_ @ -- Begin function _ZZN5fibre14MemberCallbackIMNS_18BufferedStreamSinkILj64EEEFvNS_11WriteResultEEXadL_ZNS2_17on_write_completeES3_EES2_vNSt3__25tupleIJS3_EEEE4withEPS2_ENUlPvS3_E_8__invokeESB_S3_
	.weak	_ZZN5fibre14MemberCallbackIMNS_18BufferedStreamSinkILj64EEEFvNS_11WriteResultEEXadL_ZNS2_17on_write_completeES3_EES2_vNSt3__25tupleIJS3_EEEE4withEPS2_ENUlPvS3_E_8__invokeESB_S3_
	.p2align	2
	.type	_ZZN5fibre14MemberCallbackIMNS_18BufferedStreamSinkILj64EEEFvNS_11WriteResultEEXadL_ZNS2_17on_write_completeES3_EES2_vNSt3__25tupleIJS3_EEEE4withEPS2_ENUlPvS3_E_8__invokeESB_S3_,%function
	.code	16                              @ @_ZZN5fibre14MemberCallbackIMNS_18BufferedStreamSinkILj64EEEFvNS_11WriteResultEEXadL_ZNS2_17on_write_completeES3_EES2_vNSt3__25tupleIJS3_EEEE4withEPS2_ENUlPvS3_E_8__invokeESB_S3_
	.thumb_func
_ZZN5fibre14MemberCallbackIMNS_18BufferedStreamSinkILj64EEEFvNS_11WriteResultEEXadL_ZNS2_17on_write_completeES3_EES2_vNSt3__25tupleIJS3_EEEE4withEPS2_ENUlPvS3_E_8__invokeESB_S3_:
.Lfunc_begin58:
	.loc	9 105 0 is_stmt 1               @ ../fibre-cpp/include\fibre/callback.hpp:105:0
	.fnstart
	.cfi_startproc
@ %bb.0:
	.save	{r7, lr}
	push	{r7, lr}
	.cfi_def_cfa_offset 8
	.cfi_offset lr, -4
	.cfi_offset r7, -8
	.pad	#16
	sub	sp, #16
	.cfi_def_cfa_offset 24
                                        @ kill: def $r3 killed $r2
                                        @ kill: def $r3 killed $r1
	str	r2, [sp, #12]
	str	r1, [sp, #8]
	str	r0, [sp, #4]
.Ltmp209:
	.loc	9 105 21 prologue_end           @ ../fibre-cpp/include\fibre/callback.hpp:105:21
	ldr	r1, [sp, #4]
	ldr	r2, [sp, #8]
	ldr	r3, [sp, #12]
	add.w	r0, sp, #3
	bl	_ZZN5fibre14MemberCallbackIMNS_18BufferedStreamSinkILj64EEEFvNS_11WriteResultEEXadL_ZNS2_17on_write_completeES3_EES2_vNSt3__25tupleIJS3_EEEE4withEPS2_ENKUlPvS3_E_clESB_S3_
	.loc	9 105 21 epilogue_begin is_stmt 0 @ ../fibre-cpp/include\fibre/callback.hpp:105:21
	add	sp, #16
	pop	{r7, pc}
.Ltmp210:
.Lfunc_end58:
	.size	_ZZN5fibre14MemberCallbackIMNS_18BufferedStreamSinkILj64EEEFvNS_11WriteResultEEXadL_ZNS2_17on_write_completeES3_EES2_vNSt3__25tupleIJS3_EEEE4withEPS2_ENUlPvS3_E_8__invokeESB_S3_, .Lfunc_end58-_ZZN5fibre14MemberCallbackIMNS_18BufferedStreamSinkILj64EEEFvNS_11WriteResultEEXadL_ZNS2_17on_write_completeES3_EES2_vNSt3__25tupleIJS3_EEEE4withEPS2_ENUlPvS3_E_8__invokeESB_S3_
	.cfi_endproc
	.cantunwind
	.fnend
                                        @ -- End function
	.section	.text._ZZN5fibre14MemberCallbackIMNS_18BufferedStreamSinkILj64EEEFvNS_11WriteResultEEXadL_ZNS2_17on_write_completeES3_EES2_vNSt3__25tupleIJS3_EEEE4withEPS2_ENKUlPvS3_E_clESB_S3_,"axG",%progbits,_ZZN5fibre14MemberCallbackIMNS_18BufferedStreamSinkILj64EEEFvNS_11WriteResultEEXadL_ZNS2_17on_write_completeES3_EES2_vNSt3__25tupleIJS3_EEEE4withEPS2_ENKUlPvS3_E_clESB_S3_,comdat
	.hidden	_ZZN5fibre14MemberCallbackIMNS_18BufferedStreamSinkILj64EEEFvNS_11WriteResultEEXadL_ZNS2_17on_write_completeES3_EES2_vNSt3__25tupleIJS3_EEEE4withEPS2_ENKUlPvS3_E_clESB_S3_ @ -- Begin function _ZZN5fibre14MemberCallbackIMNS_18BufferedStreamSinkILj64EEEFvNS_11WriteResultEEXadL_ZNS2_17on_write_completeES3_EES2_vNSt3__25tupleIJS3_EEEE4withEPS2_ENKUlPvS3_E_clESB_S3_
	.weak	_ZZN5fibre14MemberCallbackIMNS_18BufferedStreamSinkILj64EEEFvNS_11WriteResultEEXadL_ZNS2_17on_write_completeES3_EES2_vNSt3__25tupleIJS3_EEEE4withEPS2_ENKUlPvS3_E_clESB_S3_
	.p2align	2
	.type	_ZZN5fibre14MemberCallbackIMNS_18BufferedStreamSinkILj64EEEFvNS_11WriteResultEEXadL_ZNS2_17on_write_completeES3_EES2_vNSt3__25tupleIJS3_EEEE4withEPS2_ENKUlPvS3_E_clESB_S3_,%function
	.code	16                              @ @_ZZN5fibre14MemberCallbackIMNS_18BufferedStreamSinkILj64EEEFvNS_11WriteResultEEXadL_ZNS2_17on_write_completeES3_EES2_vNSt3__25tupleIJS3_EEEE4withEPS2_ENKUlPvS3_E_clESB_S3_
	.thumb_func
_ZZN5fibre14MemberCallbackIMNS_18BufferedStreamSinkILj64EEEFvNS_11WriteResultEEXadL_ZNS2_17on_write_completeES3_EES2_vNSt3__25tupleIJS3_EEEE4withEPS2_ENKUlPvS3_E_clESB_S3_:
.Lfunc_begin59:
	.loc	9 105 0 is_stmt 1               @ ../fibre-cpp/include\fibre/callback.hpp:105:0
	.fnstart
	.cfi_startproc
@ %bb.0:
	.save	{r7, lr}
	push	{r7, lr}
	.cfi_def_cfa_offset 8
	.cfi_offset lr, -4
	.cfi_offset r7, -8
	.pad	#32
	sub	sp, #32
	.cfi_def_cfa_offset 40
                                        @ kill: def $r12 killed $r3
                                        @ kill: def $r12 killed $r2
	str	r3, [sp, #28]
	str	r2, [sp, #24]
	str	r0, [sp, #20]
	str	r1, [sp, #16]
.Ltmp211:
	.loc	9 106 29 prologue_end           @ ../fibre-cpp/include\fibre/callback.hpp:106:29
	ldr	r0, [sp, #16]
	str	r0, [sp, #4]                    @ 4-byte Spill
	movs	r0, #1
	.loc	9 106 20 is_stmt 0              @ ../fibre-cpp/include\fibre/callback.hpp:106:20
	cbnz	r0, .LBB59_2
	b	.LBB59_1
.LBB59_1:
	ldr	r0, [sp, #4]                    @ 4-byte Reload
	ldr	r0, [r0]
	movw	r1, :lower16:_ZN5fibre18BufferedStreamSinkILj64EE17on_write_completeENS_11WriteResultE
	movt	r1, :upper16:_ZN5fibre18BufferedStreamSinkILj64EE17on_write_completeENS_11WriteResultE
	ldr	r0, [r0, r1]
	str	r0, [sp]                        @ 4-byte Spill
	b	.LBB59_3
.LBB59_2:
	.loc	9 0 20                          @ ../fibre-cpp/include\fibre/callback.hpp:0:20
	movw	r0, :lower16:_ZN5fibre18BufferedStreamSinkILj64EE17on_write_completeENS_11WriteResultE
	movt	r0, :upper16:_ZN5fibre18BufferedStreamSinkILj64EE17on_write_completeENS_11WriteResultE
	.loc	9 106 20                        @ ../fibre-cpp/include\fibre/callback.hpp:106:20
	str	r0, [sp]                        @ 4-byte Spill
	b	.LBB59_3
.LBB59_3:
	ldr	r0, [sp, #4]                    @ 4-byte Reload
	ldr	r3, [sp]                        @ 4-byte Reload
	.loc	9 106 42                        @ ../fibre-cpp/include\fibre/callback.hpp:106:42
	ldr	r1, [sp, #24]
	ldr	r2, [sp, #28]
	str	r2, [sp, #12]
	str	r1, [sp, #8]
	.loc	9 106 20                        @ ../fibre-cpp/include\fibre/callback.hpp:106:20
	ldr	r1, [sp, #8]
	ldr	r2, [sp, #12]
	blx	r3
	.loc	9 106 13 epilogue_begin         @ ../fibre-cpp/include\fibre/callback.hpp:106:13
	add	sp, #32
	pop	{r7, pc}
.Ltmp212:
.Lfunc_end59:
	.size	_ZZN5fibre14MemberCallbackIMNS_18BufferedStreamSinkILj64EEEFvNS_11WriteResultEEXadL_ZNS2_17on_write_completeES3_EES2_vNSt3__25tupleIJS3_EEEE4withEPS2_ENKUlPvS3_E_clESB_S3_, .Lfunc_end59-_ZZN5fibre14MemberCallbackIMNS_18BufferedStreamSinkILj64EEEFvNS_11WriteResultEEXadL_ZNS2_17on_write_completeES3_EES2_vNSt3__25tupleIJS3_EEEE4withEPS2_ENKUlPvS3_E_clESB_S3_
	.cfi_endproc
	.cantunwind
	.fnend
                                        @ -- End function
	.section	.text._ZN5fibre6detail11get_defaultIvE3valEv,"axG",%progbits,_ZN5fibre6detail11get_defaultIvE3valEv,comdat
	.hidden	_ZN5fibre6detail11get_defaultIvE3valEv @ -- Begin function _ZN5fibre6detail11get_defaultIvE3valEv
	.weak	_ZN5fibre6detail11get_defaultIvE3valEv
	.p2align	2
	.type	_ZN5fibre6detail11get_defaultIvE3valEv,%function
	.code	16                              @ @_ZN5fibre6detail11get_defaultIvE3valEv
	.thumb_func
_ZN5fibre6detail11get_defaultIvE3valEv:
.Lfunc_begin60:
	.fnstart
	.cfi_startproc
@ %bb.0:
	.loc	9 14 58 prologue_end is_stmt 1  @ ../fibre-cpp/include\fibre/callback.hpp:14:58
	bx	lr
.Ltmp213:
.Lfunc_end60:
	.size	_ZN5fibre6detail11get_defaultIvE3valEv, .Lfunc_end60-_ZN5fibre6detail11get_defaultIvE3valEv
	.cfi_endproc
	.cantunwind
	.fnend
                                        @ -- End function
	.section	.text._ZNSt3__25tupleIJbN5fibre16generic_bufptr_tIKhEENS1_8CallbackIvJNS1_11WriteResultEEEEEEC2B7v180000INS_37__is_implicitly_default_constructibleELi0EEEv,"axG",%progbits,_ZNSt3__25tupleIJbN5fibre16generic_bufptr_tIKhEENS1_8CallbackIvJNS1_11WriteResultEEEEEEC2B7v180000INS_37__is_implicitly_default_constructibleELi0EEEv,comdat
	.hidden	_ZNSt3__25tupleIJbN5fibre16generic_bufptr_tIKhEENS1_8CallbackIvJNS1_11WriteResultEEEEEEC2B7v180000INS_37__is_implicitly_default_constructibleELi0EEEv @ -- Begin function _ZNSt3__25tupleIJbN5fibre16generic_bufptr_tIKhEENS1_8CallbackIvJNS1_11WriteResultEEEEEEC2B7v180000INS_37__is_implicitly_default_constructibleELi0EEEv
	.weak	_ZNSt3__25tupleIJbN5fibre16generic_bufptr_tIKhEENS1_8CallbackIvJNS1_11WriteResultEEEEEEC2B7v180000INS_37__is_implicitly_default_constructibleELi0EEEv
	.p2align	2
	.type	_ZNSt3__25tupleIJbN5fibre16generic_bufptr_tIKhEENS1_8CallbackIvJNS1_11WriteResultEEEEEEC2B7v180000INS_37__is_implicitly_default_constructibleELi0EEEv,%function
	.code	16                              @ @_ZNSt3__25tupleIJbN5fibre16generic_bufptr_tIKhEENS1_8CallbackIvJNS1_11WriteResultEEEEEEC2B7v180000INS_37__is_implicitly_default_constructibleELi0EEEv
	.thumb_func
_ZNSt3__25tupleIJbN5fibre16generic_bufptr_tIKhEENS1_8CallbackIvJNS1_11WriteResultEEEEEEC2B7v180000INS_37__is_implicitly_default_constructibleELi0EEEv:
.Lfunc_begin61:
	.loc	13 605 0                        @ D:\Embed\MDK\MDK\ARM\ARMCompilerV621\Bin\..\include\libcxx\tuple:605:0
	.fnstart
	.cfi_startproc
@ %bb.0:
	.save	{r7, lr}
	push	{r7, lr}
	.cfi_def_cfa_offset 8
	.cfi_offset lr, -4
	.cfi_offset r7, -8
	.pad	#8
	sub	sp, #8
	.cfi_def_cfa_offset 16
	str	r0, [sp, #4]
	ldr	r0, [sp, #4]
.Ltmp214:
	.loc	13 603 5 prologue_end           @ D:\Embed\MDK\MDK\ARM\ARMCompilerV621\Bin\..\include\libcxx\tuple:603:5
	str	r0, [sp]                        @ 4-byte Spill
	bl	_ZNSt3__212__tuple_implINS_15__tuple_indicesIJLj0ELj1ELj2EEEEJbN5fibre16generic_bufptr_tIKhEENS3_8CallbackIvJNS3_11WriteResultEEEEEEC2B7v180000Ev
	ldr	r0, [sp]                        @ 4-byte Reload
	.loc	13 605 7 epilogue_begin         @ D:\Embed\MDK\MDK\ARM\ARMCompilerV621\Bin\..\include\libcxx\tuple:605:7
	add	sp, #8
	pop	{r7, pc}
.Ltmp215:
.Lfunc_end61:
	.size	_ZNSt3__25tupleIJbN5fibre16generic_bufptr_tIKhEENS1_8CallbackIvJNS1_11WriteResultEEEEEEC2B7v180000INS_37__is_implicitly_default_constructibleELi0EEEv, .Lfunc_end61-_ZNSt3__25tupleIJbN5fibre16generic_bufptr_tIKhEENS1_8CallbackIvJNS1_11WriteResultEEEEEEC2B7v180000INS_37__is_implicitly_default_constructibleELi0EEEv
	.cfi_endproc
	.cantunwind
	.fnend
                                        @ -- End function
	.section	.text._ZN5fibre26AsyncStreamSinkMultiplexerILj2EE11start_writeENS_16generic_bufptr_tIKhEEPjNS_8CallbackIvJNS_11WriteResultEEEE,"axG",%progbits,_ZN5fibre26AsyncStreamSinkMultiplexerILj2EE11start_writeENS_16generic_bufptr_tIKhEEPjNS_8CallbackIvJNS_11WriteResultEEEE,comdat
	.hidden	_ZN5fibre26AsyncStreamSinkMultiplexerILj2EE11start_writeENS_16generic_bufptr_tIKhEEPjNS_8CallbackIvJNS_11WriteResultEEEE @ -- Begin function _ZN5fibre26AsyncStreamSinkMultiplexerILj2EE11start_writeENS_16generic_bufptr_tIKhEEPjNS_8CallbackIvJNS_11WriteResultEEEE
	.weak	_ZN5fibre26AsyncStreamSinkMultiplexerILj2EE11start_writeENS_16generic_bufptr_tIKhEEPjNS_8CallbackIvJNS_11WriteResultEEEE
	.p2align	2
	.type	_ZN5fibre26AsyncStreamSinkMultiplexerILj2EE11start_writeENS_16generic_bufptr_tIKhEEPjNS_8CallbackIvJNS_11WriteResultEEEE,%function
	.code	16                              @ @_ZN5fibre26AsyncStreamSinkMultiplexerILj2EE11start_writeENS_16generic_bufptr_tIKhEEPjNS_8CallbackIvJNS_11WriteResultEEEE
	.thumb_func
_ZN5fibre26AsyncStreamSinkMultiplexerILj2EE11start_writeENS_16generic_bufptr_tIKhEEPjNS_8CallbackIvJNS_11WriteResultEEEE:
.Lfunc_begin62:
	.loc	12 106 0                        @ ../fibre-cpp/include\fibre/../../stream_utils.hpp:106:0
	.fnstart
	.cfi_startproc
@ %bb.0:
	.save	{r4, lr}
	push	{r4, lr}
	.cfi_def_cfa_offset 8
	.cfi_offset lr, -4
	.cfi_offset r4, -8
	.pad	#104
	sub	sp, #104
	.cfi_def_cfa_offset 112
                                        @ kill: def $r12 killed $r2
                                        @ kill: def $r12 killed $r1
	ldr.w	r12, [sp, #112]
	str.w	r12, [sp, #32]                  @ 4-byte Spill
	str	r2, [sp, #100]
	str	r1, [sp, #96]
	str	r0, [sp, #92]
	str	r3, [sp, #88]
	ldr	r0, [sp, #92]
	str	r0, [sp, #36]                   @ 4-byte Spill
	movs	r0, #0
.Ltmp216:
	.loc	12 107 21 prologue_end          @ ../fibre-cpp/include\fibre/../../stream_utils.hpp:107:21
	str	r0, [sp, #84]
	.loc	12 107 14 is_stmt 0             @ ../fibre-cpp/include\fibre/../../stream_utils.hpp:107:14
	b	.LBB62_1
.LBB62_1:                               @ =>This Loop Header: Depth=1
                                        @     Child Loop BB62_3 Depth 2
                                        @       Child Loop BB62_4 Depth 3
.Ltmp217:
	.loc	12 107 28                       @ ../fibre-cpp/include\fibre/../../stream_utils.hpp:107:28
	ldr	r0, [sp, #84]
.Ltmp218:
	.loc	12 107 9                        @ ../fibre-cpp/include\fibre/../../stream_utils.hpp:107:9
	cmp	r0, #1
	bhi.w	.LBB62_15
	b	.LBB62_2
.LBB62_2:                               @   in Loop: Header=BB62_1 Depth=1
.Ltmp219:
	.loc	12 108 68 is_stmt 1             @ ../fibre-cpp/include\fibre/../../stream_utils.hpp:108:68
	ldr	r0, [sp, #36]                   @ 4-byte Reload
	ldr	r1, [sp, #84]
	.loc	12 108 61 is_stmt 0             @ ../fibre-cpp/include\fibre/../../stream_utils.hpp:108:61
	add.w	r1, r1, r1, lsl #2
	add.w	r0, r0, r1, lsl #2
	adds	r0, #8
	.loc	12 108 19                       @ ../fibre-cpp/include\fibre/../../stream_utils.hpp:108:19
	str	r0, [sp, #80]
	.loc	12 108 20                       @ ../fibre-cpp/include\fibre/../../stream_utils.hpp:108:20
	ldr	r0, [sp, #80]
	bl	_ZNSt3__23getB7v180000ILj0EJbN5fibre16generic_bufptr_tIKhEENS1_8CallbackIvJNS1_11WriteResultEEEEEEERNS_13tuple_elementIXT_ENS_5tupleIJDpT0_EEEE4typeERSC_
	str	r0, [sp, #76]
	.loc	12 108 33                       @ ../fibre-cpp/include\fibre/../../stream_utils.hpp:108:33
	ldr	r0, [sp, #80]
	bl	_ZNSt3__23getB7v180000ILj1EJbN5fibre16generic_bufptr_tIKhEENS1_8CallbackIvJNS1_11WriteResultEEEEEEERNS_13tuple_elementIXT_ENS_5tupleIJDpT0_EEEE4typeERSC_
	str	r0, [sp, #72]
	.loc	12 108 43                       @ ../fibre-cpp/include\fibre/../../stream_utils.hpp:108:43
	ldr	r0, [sp, #80]
	bl	_ZNSt3__23getB7v180000ILj2EJbN5fibre16generic_bufptr_tIKhEENS1_8CallbackIvJNS1_11WriteResultEEEEEEERNS_13tuple_elementIXT_ENS_5tupleIJDpT0_EEEE4typeERSC_
	str	r0, [sp, #68]
.Ltmp220:
	.loc	12 108 20                       @ ../fibre-cpp/include\fibre/../../stream_utils.hpp:108:20
	ldr	r0, [sp, #76]
	str	r0, [sp, #20]                   @ 4-byte Spill
	movs	r1, #1
	.loc	12 109 18 is_stmt 1             @ ../fibre-cpp/include\fibre/../../stream_utils.hpp:109:18
	strb.w	r1, [sp, #67]
	ldrb.w	r1, [sp, #67]
	str	r1, [sp, #24]                   @ 4-byte Spill
	dmb	sy
	ldrb	r0, [r0]
	str	r0, [sp, #28]                   @ 4-byte Spill
	b	.LBB62_3
.LBB62_3:                               @   Parent Loop BB62_1 Depth=1
                                        @ =>  This Loop Header: Depth=2
                                        @       Child Loop BB62_4 Depth 3
	ldr	r1, [sp, #28]                   @ 4-byte Reload
	ldr	r3, [sp, #20]                   @ 4-byte Reload
	ldr.w	r12, [sp, #24]                  @ 4-byte Reload
	uxtb	r1, r1
.LBB62_4:                               @   Parent Loop BB62_1 Depth=1
                                        @     Parent Loop BB62_3 Depth=2
                                        @ =>    This Inner Loop Header: Depth=3
	ldrexb	r0, [r3]
	cmp	r0, r1
	bne	.LBB62_6
@ %bb.5:                                @   in Loop: Header=BB62_4 Depth=3
	strexb	r2, r12, [r3]
	cmp	r2, #0
	bne	.LBB62_4
.LBB62_6:                               @   in Loop: Header=BB62_3 Depth=2
	str	r0, [sp, #16]                   @ 4-byte Spill
	uxtb	r1, r1
	subs	r1, r0, r1
	clz	r1, r1
	lsrs	r1, r1, #5
	cmp	r1, #1
	str	r0, [sp, #28]                   @ 4-byte Spill
	bne	.LBB62_3
	b	.LBB62_7
.LBB62_7:                               @   in Loop: Header=BB62_1 Depth=1
	ldr	r0, [sp, #16]                   @ 4-byte Reload
	dmb	sy
	strb.w	r0, [sp, #66]
	ldrb.w	r0, [sp, #66]
.Ltmp221:
	.loc	12 109 17 is_stmt 0             @ ../fibre-cpp/include\fibre/../../stream_utils.hpp:109:17
	lsls	r0, r0, #31
	cbnz	r0, .LBB62_13
	b	.LBB62_8
.LBB62_8:
.Ltmp222:
	.loc	12 108 33 is_stmt 1             @ ../fibre-cpp/include\fibre/../../stream_utils.hpp:108:33
	ldr	r2, [sp, #32]                   @ 4-byte Reload
	ldr	r1, [sp, #72]
	.loc	12 110 26                       @ ../fibre-cpp/include\fibre/../../stream_utils.hpp:110:26
	ldr	r0, [sp, #96]
	ldr	r3, [sp, #100]
	str	r3, [r1, #4]
	str	r0, [r1]
	.loc	12 108 43                       @ ../fibre-cpp/include\fibre/../../stream_utils.hpp:108:43
	ldr	r1, [sp, #68]
	.loc	12 111 32                       @ ../fibre-cpp/include\fibre/../../stream_utils.hpp:111:32
	ldr	r0, [r2]
	ldr	r2, [r2, #4]
	str	r2, [r1, #4]
	str	r0, [r1]
.Ltmp223:
	.loc	12 113 21                       @ ../fibre-cpp/include\fibre/../../stream_utils.hpp:113:21
	ldr	r0, [sp, #88]
.Ltmp224:
	.loc	12 113 21 is_stmt 0             @ ../fibre-cpp/include\fibre/../../stream_utils.hpp:113:21
	cbz	r0, .LBB62_10
	b	.LBB62_9
.LBB62_9:
.Ltmp225:
	.loc	12 114 31 is_stmt 1             @ ../fibre-cpp/include\fibre/../../stream_utils.hpp:114:31
	ldr	r0, [sp, #84]
	.loc	12 114 33 is_stmt 0             @ ../fibre-cpp/include\fibre/../../stream_utils.hpp:114:33
	adds	r0, #1
	.loc	12 114 22                       @ ../fibre-cpp/include\fibre/../../stream_utils.hpp:114:22
	ldr	r1, [sp, #88]
	.loc	12 114 29                       @ ../fibre-cpp/include\fibre/../../stream_utils.hpp:114:29
	str	r0, [r1]
	.loc	12 115 17 is_stmt 1             @ ../fibre-cpp/include\fibre/../../stream_utils.hpp:115:17
	b	.LBB62_10
.Ltmp226:
.LBB62_10:
	.loc	12 118 21                       @ ../fibre-cpp/include\fibre/../../stream_utils.hpp:118:21
	ldr	r0, [sp, #36]                   @ 4-byte Reload
	ldr	r0, [r0, #48]
.Ltmp227:
	.loc	12 118 21 is_stmt 0             @ ../fibre-cpp/include\fibre/../../stream_utils.hpp:118:21
	cbnz	r0, .LBB62_12
	b	.LBB62_11
.LBB62_11:
.Ltmp228:
	.loc	12 119 36 is_stmt 1             @ ../fibre-cpp/include\fibre/../../stream_utils.hpp:119:36
	ldr	r1, [sp, #36]                   @ 4-byte Reload
	ldr	r0, [sp, #84]
	.loc	12 119 38 is_stmt 0             @ ../fibre-cpp/include\fibre/../../stream_utils.hpp:119:38
	adds	r0, #1
	.loc	12 119 34                       @ ../fibre-cpp/include\fibre/../../stream_utils.hpp:119:34
	str	r0, [r1, #48]
	.loc	12 120 21 is_stmt 1             @ ../fibre-cpp/include\fibre/../../stream_utils.hpp:120:21
	ldr	r0, [r1, #4]
	.loc	12 108 33                       @ ../fibre-cpp/include\fibre/../../stream_utils.hpp:108:33
	str	r0, [sp, #4]                    @ 4-byte Spill
	ldr	r2, [sp, #72]
	.loc	12 120 39                       @ ../fibre-cpp/include\fibre/../../stream_utils.hpp:120:39
	ldr	r0, [r2]
	ldr	r2, [r2, #4]
	str	r2, [sp, #60]
	str	r0, [sp, #56]
	.loc	12 120 50 is_stmt 0             @ ../fibre-cpp/include\fibre/../../stream_utils.hpp:120:50
	add.w	r0, r1, #52
	.loc	12 120 68                       @ ../fibre-cpp/include\fibre/../../stream_utils.hpp:120:68
	str	r0, [sp, #8]                    @ 4-byte Spill
	add	r0, sp, #48
	str	r0, [sp, #12]                   @ 4-byte Spill
	bl	_ZN5fibre13make_callbackIMNS_26AsyncStreamSinkMultiplexerILj2EEEFvNS_11WriteResultEEXadL_ZNS2_17on_write_completeES3_EENS_15function_traitsIvS2_JS3_EEENS_14MemberCallbackIS5_XadL_ZNS2_17on_write_completeES3_EES2_vNSt3__25tupleIJS3_EEEEEEENT2_4cb_tEPNT1_4TObjE
	ldr	r0, [sp, #4]                    @ 4-byte Reload
	ldr	r3, [sp, #8]                    @ 4-byte Reload
	ldr.w	lr, [sp, #12]                   @ 4-byte Reload
	.loc	12 120 27                       @ ../fibre-cpp/include\fibre/../../stream_utils.hpp:120:27
	ldr	r1, [sp, #56]
	ldr	r2, [sp, #60]
	ldr.w	r12, [r0]
	ldr.w	r12, [r12]
	mov	r4, sp
	str.w	lr, [r4]
	blx	r12
	.loc	12 121 17 is_stmt 1             @ ../fibre-cpp/include\fibre/../../stream_utils.hpp:121:17
	b	.LBB62_12
.Ltmp229:
.LBB62_12:
	.loc	12 123 17                       @ ../fibre-cpp/include\fibre/../../stream_utils.hpp:123:17
	b	.LBB62_18
.Ltmp230:
.LBB62_13:                              @   in Loop: Header=BB62_1 Depth=1
	.loc	12 125 9                        @ ../fibre-cpp/include\fibre/../../stream_utils.hpp:125:9
	b	.LBB62_14
.Ltmp231:
.LBB62_14:                              @   in Loop: Header=BB62_1 Depth=1
	.loc	12 107 40                       @ ../fibre-cpp/include\fibre/../../stream_utils.hpp:107:40
	ldr	r0, [sp, #84]
	adds	r0, #1
	str	r0, [sp, #84]
	.loc	12 107 9 is_stmt 0              @ ../fibre-cpp/include\fibre/../../stream_utils.hpp:107:9
	b	.LBB62_1
.Ltmp232:
.LBB62_15:
	.loc	12 127 13 is_stmt 1             @ ../fibre-cpp/include\fibre/../../stream_utils.hpp:127:13
	ldr	r0, [sp, #88]
.Ltmp233:
	.loc	12 127 13 is_stmt 0             @ ../fibre-cpp/include\fibre/../../stream_utils.hpp:127:13
	cbz	r0, .LBB62_17
	b	.LBB62_16
.LBB62_16:
.Ltmp234:
	.loc	12 128 14 is_stmt 1             @ ../fibre-cpp/include\fibre/../../stream_utils.hpp:128:14
	ldr	r1, [sp, #88]
	movs	r0, #0
	.loc	12 128 21 is_stmt 0             @ ../fibre-cpp/include\fibre/../../stream_utils.hpp:128:21
	str	r0, [r1]
	.loc	12 129 9 is_stmt 1              @ ../fibre-cpp/include\fibre/../../stream_utils.hpp:129:9
	b	.LBB62_17
.Ltmp235:
.LBB62_17:
	.loc	12 0 9 is_stmt 0                @ ../fibre-cpp/include\fibre/../../stream_utils.hpp:0:9
	movs	r0, #3
	.loc	12 130 26 is_stmt 1             @ ../fibre-cpp/include\fibre/../../stream_utils.hpp:130:26
	strb.w	r0, [sp, #40]
	add	r0, sp, #96
	.loc	12 130 48 is_stmt 0             @ ../fibre-cpp/include\fibre/../../stream_utils.hpp:130:48
	bl	_ZN5fibre16generic_bufptr_tIKhE5beginEv
	mov	r1, r0
	ldr	r0, [sp, #32]                   @ 4-byte Reload
	ldr	r1, [r1]
	.loc	12 130 26                       @ ../fibre-cpp/include\fibre/../../stream_utils.hpp:130:26
	str	r1, [sp, #44]
	.loc	12 130 19                       @ ../fibre-cpp/include\fibre/../../stream_utils.hpp:130:19
	ldr	r1, [sp, #40]
	ldr	r2, [sp, #44]
	bl	_ZNK5fibre8CallbackIvJNS_11WriteResultEEE6invokeES1_
	.loc	12 131 5 is_stmt 1              @ ../fibre-cpp/include\fibre/../../stream_utils.hpp:131:5
	b	.LBB62_18
.LBB62_18:
	.loc	12 131 5 epilogue_begin is_stmt 0 @ ../fibre-cpp/include\fibre/../../stream_utils.hpp:131:5
	add	sp, #104
	pop	{r4, pc}
.Ltmp236:
.Lfunc_end62:
	.size	_ZN5fibre26AsyncStreamSinkMultiplexerILj2EE11start_writeENS_16generic_bufptr_tIKhEEPjNS_8CallbackIvJNS_11WriteResultEEEE, .Lfunc_end62-_ZN5fibre26AsyncStreamSinkMultiplexerILj2EE11start_writeENS_16generic_bufptr_tIKhEEPjNS_8CallbackIvJNS_11WriteResultEEEE
	.cfi_endproc
	.cantunwind
	.fnend
                                        @ -- End function
	.section	.text._ZN5fibre26AsyncStreamSinkMultiplexerILj2EE12cancel_writeEj,"axG",%progbits,_ZN5fibre26AsyncStreamSinkMultiplexerILj2EE12cancel_writeEj,comdat
	.hidden	_ZN5fibre26AsyncStreamSinkMultiplexerILj2EE12cancel_writeEj @ -- Begin function _ZN5fibre26AsyncStreamSinkMultiplexerILj2EE12cancel_writeEj
	.weak	_ZN5fibre26AsyncStreamSinkMultiplexerILj2EE12cancel_writeEj
	.p2align	2
	.type	_ZN5fibre26AsyncStreamSinkMultiplexerILj2EE12cancel_writeEj,%function
	.code	16                              @ @_ZN5fibre26AsyncStreamSinkMultiplexerILj2EE12cancel_writeEj
	.thumb_func
_ZN5fibre26AsyncStreamSinkMultiplexerILj2EE12cancel_writeEj:
.Lfunc_begin63:
	.loc	12 133 0 is_stmt 1              @ ../fibre-cpp/include\fibre/../../stream_utils.hpp:133:0
	.fnstart
	.cfi_startproc
@ %bb.0:
	.save	{r7, lr}
	push	{r7, lr}
	.cfi_def_cfa_offset 8
	.cfi_offset lr, -4
	.cfi_offset r7, -8
	.pad	#56
	sub	sp, #56
	.cfi_def_cfa_offset 64
	str	r0, [sp, #52]
	str	r1, [sp, #48]
	ldr	r1, [sp, #52]
.Ltmp237:
	.loc	12 134 13 prologue_end          @ ../fibre-cpp/include\fibre/../../stream_utils.hpp:134:13
	str	r1, [sp, #8]                    @ 4-byte Spill
	ldr	r0, [sp, #48]
	.loc	12 134 32 is_stmt 0             @ ../fibre-cpp/include\fibre/../../stream_utils.hpp:134:32
	ldr	r1, [r1, #48]
.Ltmp238:
	.loc	12 134 13                       @ ../fibre-cpp/include\fibre/../../stream_utils.hpp:134:13
	cmp	r0, r1
	bne	.LBB63_2
	b	.LBB63_1
.LBB63_1:
.Ltmp239:
	.loc	12 136 13 is_stmt 1             @ ../fibre-cpp/include\fibre/../../stream_utils.hpp:136:13
	ldr	r1, [sp, #8]                    @ 4-byte Reload
	ldr	r0, [r1, #4]
	.loc	12 136 32 is_stmt 0             @ ../fibre-cpp/include\fibre/../../stream_utils.hpp:136:32
	ldr	r1, [r1, #52]
	.loc	12 136 19                       @ ../fibre-cpp/include\fibre/../../stream_utils.hpp:136:19
	ldr	r2, [r0]
	ldr	r2, [r2, #4]
	blx	r2
	.loc	12 137 9 is_stmt 1              @ ../fibre-cpp/include\fibre/../../stream_utils.hpp:137:9
	b	.LBB63_3
.Ltmp240:
.LBB63_2:
	.loc	12 139 68                       @ ../fibre-cpp/include\fibre/../../stream_utils.hpp:139:68
	ldr	r0, [sp, #8]                    @ 4-byte Reload
	ldr	r1, [sp, #48]
	.loc	12 139 84 is_stmt 0             @ ../fibre-cpp/include\fibre/../../stream_utils.hpp:139:84
	add.w	r1, r1, r1, lsl #2
	.loc	12 139 61                       @ ../fibre-cpp/include\fibre/../../stream_utils.hpp:139:61
	add.w	r0, r0, r1, lsl #2
	subs	r0, #12
	.loc	12 139 19                       @ ../fibre-cpp/include\fibre/../../stream_utils.hpp:139:19
	str	r0, [sp, #44]
	.loc	12 139 20                       @ ../fibre-cpp/include\fibre/../../stream_utils.hpp:139:20
	ldr	r0, [sp, #44]
	bl	_ZNSt3__23getB7v180000ILj0EJbN5fibre16generic_bufptr_tIKhEENS1_8CallbackIvJNS1_11WriteResultEEEEEEERNS_13tuple_elementIXT_ENS_5tupleIJDpT0_EEEE4typeERSC_
	str	r0, [sp, #40]
	.loc	12 139 33                       @ ../fibre-cpp/include\fibre/../../stream_utils.hpp:139:33
	ldr	r0, [sp, #44]
	bl	_ZNSt3__23getB7v180000ILj1EJbN5fibre16generic_bufptr_tIKhEENS1_8CallbackIvJNS1_11WriteResultEEEEEEERNS_13tuple_elementIXT_ENS_5tupleIJDpT0_EEEE4typeERSC_
	str	r0, [sp, #36]
	.loc	12 139 43                       @ ../fibre-cpp/include\fibre/../../stream_utils.hpp:139:43
	ldr	r0, [sp, #44]
	bl	_ZNSt3__23getB7v180000ILj2EJbN5fibre16generic_bufptr_tIKhEENS1_8CallbackIvJNS1_11WriteResultEEEEEEERNS_13tuple_elementIXT_ENS_5tupleIJDpT0_EEEE4typeERSC_
	str	r0, [sp, #32]
	ldr	r1, [sp, #32]
	add	r0, sp, #24
	.loc	12 140 30 is_stmt 1             @ ../fibre-cpp/include\fibre/../../stream_utils.hpp:140:30
	str	r0, [sp, #4]                    @ 4-byte Spill
	bl	_ZN5fibre8CallbackIvJNS_11WriteResultEEEC2ERKS2_
	.loc	12 139 33                       @ ../fibre-cpp/include\fibre/../../stream_utils.hpp:139:33
	ldr	r0, [sp, #36]
	.loc	12 141 33                       @ ../fibre-cpp/include\fibre/../../stream_utils.hpp:141:33
	bl	_ZN5fibre16generic_bufptr_tIKhE3endEv
	mov	r1, r0
	ldr	r0, [sp, #4]                    @ 4-byte Reload
	ldr	r1, [r1]
	.loc	12 141 18 is_stmt 0             @ ../fibre-cpp/include\fibre/../../stream_utils.hpp:141:18
	str	r1, [sp, #20]
	.loc	12 139 20 is_stmt 1             @ ../fibre-cpp/include\fibre/../../stream_utils.hpp:139:20
	ldr	r2, [sp, #40]
	movs	r1, #0
	.loc	12 142 25                       @ ../fibre-cpp/include\fibre/../../stream_utils.hpp:142:25
	strb	r1, [r2]
	movs	r1, #1
	.loc	12 143 40                       @ ../fibre-cpp/include\fibre/../../stream_utils.hpp:143:40
	strb.w	r1, [sp, #12]
	.loc	12 143 59 is_stmt 0             @ ../fibre-cpp/include\fibre/../../stream_utils.hpp:143:59
	ldr	r1, [sp, #20]
	.loc	12 143 40                       @ ../fibre-cpp/include\fibre/../../stream_utils.hpp:143:40
	str	r1, [sp, #16]
	.loc	12 143 23                       @ ../fibre-cpp/include\fibre/../../stream_utils.hpp:143:23
	ldr	r1, [sp, #12]
	ldr	r2, [sp, #16]
	bl	_ZN5fibre8CallbackIvJNS_11WriteResultEEE16invoke_and_clearES1_
	b	.LBB63_3
.Ltmp241:
.LBB63_3:
	.loc	12 145 5 epilogue_begin is_stmt 1 @ ../fibre-cpp/include\fibre/../../stream_utils.hpp:145:5
	add	sp, #56
	pop	{r7, pc}
.Ltmp242:
.Lfunc_end63:
	.size	_ZN5fibre26AsyncStreamSinkMultiplexerILj2EE12cancel_writeEj, .Lfunc_end63-_ZN5fibre26AsyncStreamSinkMultiplexerILj2EE12cancel_writeEj
	.cfi_endproc
	.cantunwind
	.fnend
                                        @ -- End function
	.section	.text._ZNSt3__212__tuple_implINS_15__tuple_indicesIJLj0ELj1ELj2EEEEJbN5fibre16generic_bufptr_tIKhEENS3_8CallbackIvJNS3_11WriteResultEEEEEEC2B7v180000Ev,"axG",%progbits,_ZNSt3__212__tuple_implINS_15__tuple_indicesIJLj0ELj1ELj2EEEEJbN5fibre16generic_bufptr_tIKhEENS3_8CallbackIvJNS3_11WriteResultEEEEEEC2B7v180000Ev,comdat
	.hidden	_ZNSt3__212__tuple_implINS_15__tuple_indicesIJLj0ELj1ELj2EEEEJbN5fibre16generic_bufptr_tIKhEENS3_8CallbackIvJNS3_11WriteResultEEEEEEC2B7v180000Ev @ -- Begin function _ZNSt3__212__tuple_implINS_15__tuple_indicesIJLj0ELj1ELj2EEEEJbN5fibre16generic_bufptr_tIKhEENS3_8CallbackIvJNS3_11WriteResultEEEEEEC2B7v180000Ev
	.weak	_ZNSt3__212__tuple_implINS_15__tuple_indicesIJLj0ELj1ELj2EEEEJbN5fibre16generic_bufptr_tIKhEENS3_8CallbackIvJNS3_11WriteResultEEEEEEC2B7v180000Ev
	.p2align	2
	.type	_ZNSt3__212__tuple_implINS_15__tuple_indicesIJLj0ELj1ELj2EEEEJbN5fibre16generic_bufptr_tIKhEENS3_8CallbackIvJNS3_11WriteResultEEEEEEC2B7v180000Ev,%function
	.code	16                              @ @_ZNSt3__212__tuple_implINS_15__tuple_indicesIJLj0ELj1ELj2EEEEJbN5fibre16generic_bufptr_tIKhEENS3_8CallbackIvJNS3_11WriteResultEEEEEEC2B7v180000Ev
	.thumb_func
_ZNSt3__212__tuple_implINS_15__tuple_indicesIJLj0ELj1ELj2EEEEJbN5fibre16generic_bufptr_tIKhEENS3_8CallbackIvJNS3_11WriteResultEEEEEEC2B7v180000Ev:
.Lfunc_begin64:
	.loc	13 497 0                        @ D:\Embed\MDK\MDK\ARM\ARMCompilerV621\Bin\..\include\libcxx\tuple:497:0
	.fnstart
	.cfi_startproc
@ %bb.0:
	.save	{r7, lr}
	push	{r7, lr}
	.cfi_def_cfa_offset 8
	.cfi_offset lr, -4
	.cfi_offset r7, -8
	.pad	#8
	sub	sp, #8
	.cfi_def_cfa_offset 16
	str	r0, [sp, #4]
	ldr	r0, [sp, #4]
.Ltmp243:
	.loc	13 496 15 prologue_end          @ D:\Embed\MDK\MDK\ARM\ARMCompilerV621\Bin\..\include\libcxx\tuple:496:15
	str	r0, [sp]                        @ 4-byte Spill
	bl	_ZNSt3__212__tuple_leafILj0EbLb0EEC2B7v180000Ev
	ldr	r0, [sp]                        @ 4-byte Reload
	.loc	13 497 83                       @ D:\Embed\MDK\MDK\ARM\ARMCompilerV621\Bin\..\include\libcxx\tuple:497:83
	adds	r0, #4
	.loc	13 496 15                       @ D:\Embed\MDK\MDK\ARM\ARMCompilerV621\Bin\..\include\libcxx\tuple:496:15
	bl	_ZNSt3__212__tuple_leafILj1EN5fibre16generic_bufptr_tIKhEELb0EEC2B7v180000Ev
	ldr	r0, [sp]                        @ 4-byte Reload
	.loc	13 497 83                       @ D:\Embed\MDK\MDK\ARM\ARMCompilerV621\Bin\..\include\libcxx\tuple:497:83
	adds	r0, #12
	.loc	13 496 15                       @ D:\Embed\MDK\MDK\ARM\ARMCompilerV621\Bin\..\include\libcxx\tuple:496:15
	bl	_ZNSt3__212__tuple_leafILj2EN5fibre8CallbackIvJNS1_11WriteResultEEEELb0EEC2B7v180000Ev
	ldr	r0, [sp]                        @ 4-byte Reload
	.loc	13 497 84 epilogue_begin        @ D:\Embed\MDK\MDK\ARM\ARMCompilerV621\Bin\..\include\libcxx\tuple:497:84
	add	sp, #8
	pop	{r7, pc}
.Ltmp244:
.Lfunc_end64:
	.size	_ZNSt3__212__tuple_implINS_15__tuple_indicesIJLj0ELj1ELj2EEEEJbN5fibre16generic_bufptr_tIKhEENS3_8CallbackIvJNS3_11WriteResultEEEEEEC2B7v180000Ev, .Lfunc_end64-_ZNSt3__212__tuple_implINS_15__tuple_indicesIJLj0ELj1ELj2EEEEJbN5fibre16generic_bufptr_tIKhEENS3_8CallbackIvJNS3_11WriteResultEEEEEEC2B7v180000Ev
	.cfi_endproc
	.cantunwind
	.fnend
                                        @ -- End function
	.section	.text._ZNSt3__212__tuple_leafILj0EbLb0EEC2B7v180000Ev,"axG",%progbits,_ZNSt3__212__tuple_leafILj0EbLb0EEC2B7v180000Ev,comdat
	.hidden	_ZNSt3__212__tuple_leafILj0EbLb0EEC2B7v180000Ev @ -- Begin function _ZNSt3__212__tuple_leafILj0EbLb0EEC2B7v180000Ev
	.weak	_ZNSt3__212__tuple_leafILj0EbLb0EEC2B7v180000Ev
	.p2align	2
	.type	_ZNSt3__212__tuple_leafILj0EbLb0EEC2B7v180000Ev,%function
	.code	16                              @ @_ZNSt3__212__tuple_leafILj0EbLb0EEC2B7v180000Ev
	.thumb_func
_ZNSt3__212__tuple_leafILj0EbLb0EEC2B7v180000Ev:
.Lfunc_begin65:
	.loc	13 324 0                        @ D:\Embed\MDK\MDK\ARM\ARMCompilerV621\Bin\..\include\libcxx\tuple:324:0
	.fnstart
	.cfi_startproc
@ %bb.0:
	.pad	#4
	sub	sp, #4
	.cfi_def_cfa_offset 4
	str	r0, [sp]
	ldr	r0, [sp]
	movs	r1, #0
.Ltmp245:
	.loc	13 323 73 prologue_end          @ D:\Embed\MDK\MDK\ARM\ARMCompilerV621\Bin\..\include\libcxx\tuple:323:73
	strb	r1, [r0]
	.loc	13 325 80 epilogue_begin        @ D:\Embed\MDK\MDK\ARM\ARMCompilerV621\Bin\..\include\libcxx\tuple:325:80
	add	sp, #4
	bx	lr
.Ltmp246:
.Lfunc_end65:
	.size	_ZNSt3__212__tuple_leafILj0EbLb0EEC2B7v180000Ev, .Lfunc_end65-_ZNSt3__212__tuple_leafILj0EbLb0EEC2B7v180000Ev
	.cfi_endproc
	.cantunwind
	.fnend
                                        @ -- End function
	.section	.text._ZNSt3__212__tuple_leafILj1EN5fibre16generic_bufptr_tIKhEELb0EEC2B7v180000Ev,"axG",%progbits,_ZNSt3__212__tuple_leafILj1EN5fibre16generic_bufptr_tIKhEELb0EEC2B7v180000Ev,comdat
	.hidden	_ZNSt3__212__tuple_leafILj1EN5fibre16generic_bufptr_tIKhEELb0EEC2B7v180000Ev @ -- Begin function _ZNSt3__212__tuple_leafILj1EN5fibre16generic_bufptr_tIKhEELb0EEC2B7v180000Ev
	.weak	_ZNSt3__212__tuple_leafILj1EN5fibre16generic_bufptr_tIKhEELb0EEC2B7v180000Ev
	.p2align	2
	.type	_ZNSt3__212__tuple_leafILj1EN5fibre16generic_bufptr_tIKhEELb0EEC2B7v180000Ev,%function
	.code	16                              @ @_ZNSt3__212__tuple_leafILj1EN5fibre16generic_bufptr_tIKhEELb0EEC2B7v180000Ev
	.thumb_func
_ZNSt3__212__tuple_leafILj1EN5fibre16generic_bufptr_tIKhEELb0EEC2B7v180000Ev:
.Lfunc_begin66:
	.loc	13 324 0                        @ D:\Embed\MDK\MDK\ARM\ARMCompilerV621\Bin\..\include\libcxx\tuple:324:0
	.fnstart
	.cfi_startproc
@ %bb.0:
	.save	{r7, lr}
	push	{r7, lr}
	.cfi_def_cfa_offset 8
	.cfi_offset lr, -4
	.cfi_offset r7, -8
	.pad	#8
	sub	sp, #8
	.cfi_def_cfa_offset 16
	str	r0, [sp, #4]
	ldr	r0, [sp, #4]
.Ltmp247:
	.loc	13 323 73 prologue_end          @ D:\Embed\MDK\MDK\ARM\ARMCompilerV621\Bin\..\include\libcxx\tuple:323:73
	str	r0, [sp]                        @ 4-byte Spill
	bl	_ZN5fibre16generic_bufptr_tIKhEC2Ev
	ldr	r0, [sp]                        @ 4-byte Reload
	.loc	13 325 80 epilogue_begin        @ D:\Embed\MDK\MDK\ARM\ARMCompilerV621\Bin\..\include\libcxx\tuple:325:80
	add	sp, #8
	pop	{r7, pc}
.Ltmp248:
.Lfunc_end66:
	.size	_ZNSt3__212__tuple_leafILj1EN5fibre16generic_bufptr_tIKhEELb0EEC2B7v180000Ev, .Lfunc_end66-_ZNSt3__212__tuple_leafILj1EN5fibre16generic_bufptr_tIKhEELb0EEC2B7v180000Ev
	.cfi_endproc
	.cantunwind
	.fnend
                                        @ -- End function
	.section	.text._ZNSt3__212__tuple_leafILj2EN5fibre8CallbackIvJNS1_11WriteResultEEEELb0EEC2B7v180000Ev,"axG",%progbits,_ZNSt3__212__tuple_leafILj2EN5fibre8CallbackIvJNS1_11WriteResultEEEELb0EEC2B7v180000Ev,comdat
	.hidden	_ZNSt3__212__tuple_leafILj2EN5fibre8CallbackIvJNS1_11WriteResultEEEELb0EEC2B7v180000Ev @ -- Begin function _ZNSt3__212__tuple_leafILj2EN5fibre8CallbackIvJNS1_11WriteResultEEEELb0EEC2B7v180000Ev
	.weak	_ZNSt3__212__tuple_leafILj2EN5fibre8CallbackIvJNS1_11WriteResultEEEELb0EEC2B7v180000Ev
	.p2align	2
	.type	_ZNSt3__212__tuple_leafILj2EN5fibre8CallbackIvJNS1_11WriteResultEEEELb0EEC2B7v180000Ev,%function
	.code	16                              @ @_ZNSt3__212__tuple_leafILj2EN5fibre8CallbackIvJNS1_11WriteResultEEEELb0EEC2B7v180000Ev
	.thumb_func
_ZNSt3__212__tuple_leafILj2EN5fibre8CallbackIvJNS1_11WriteResultEEEELb0EEC2B7v180000Ev:
.Lfunc_begin67:
	.loc	13 324 0                        @ D:\Embed\MDK\MDK\ARM\ARMCompilerV621\Bin\..\include\libcxx\tuple:324:0
	.fnstart
	.cfi_startproc
@ %bb.0:
	.save	{r7, lr}
	push	{r7, lr}
	.cfi_def_cfa_offset 8
	.cfi_offset lr, -4
	.cfi_offset r7, -8
	.pad	#8
	sub	sp, #8
	.cfi_def_cfa_offset 16
	str	r0, [sp, #4]
	ldr	r0, [sp, #4]
.Ltmp249:
	.loc	13 323 73 prologue_end          @ D:\Embed\MDK\MDK\ARM\ARMCompilerV621\Bin\..\include\libcxx\tuple:323:73
	str	r0, [sp]                        @ 4-byte Spill
	bl	_ZN5fibre8CallbackIvJNS_11WriteResultEEEC2Ev
	ldr	r0, [sp]                        @ 4-byte Reload
	.loc	13 325 80 epilogue_begin        @ D:\Embed\MDK\MDK\ARM\ARMCompilerV621\Bin\..\include\libcxx\tuple:325:80
	add	sp, #8
	pop	{r7, pc}
.Ltmp250:
.Lfunc_end67:
	.size	_ZNSt3__212__tuple_leafILj2EN5fibre8CallbackIvJNS1_11WriteResultEEEELb0EEC2B7v180000Ev, .Lfunc_end67-_ZNSt3__212__tuple_leafILj2EN5fibre8CallbackIvJNS1_11WriteResultEEEELb0EEC2B7v180000Ev
	.cfi_endproc
	.cantunwind
	.fnend
                                        @ -- End function
	.section	.text._ZN5fibre16generic_bufptr_tIKhEC2Ev,"axG",%progbits,_ZN5fibre16generic_bufptr_tIKhEC2Ev,comdat
	.hidden	_ZN5fibre16generic_bufptr_tIKhEC2Ev @ -- Begin function _ZN5fibre16generic_bufptr_tIKhEC2Ev
	.weak	_ZN5fibre16generic_bufptr_tIKhEC2Ev
	.p2align	2
	.type	_ZN5fibre16generic_bufptr_tIKhEC2Ev,%function
	.code	16                              @ @_ZN5fibre16generic_bufptr_tIKhEC2Ev
	.thumb_func
_ZN5fibre16generic_bufptr_tIKhEC2Ev:
.Lfunc_begin68:
	.loc	7 25 0                          @ ../fibre-cpp/include\fibre/bufptr.hpp:25:0
	.fnstart
	.cfi_startproc
@ %bb.0:
	.pad	#4
	sub	sp, #4
	.cfi_def_cfa_offset 4
	str	r0, [sp]
	ldr	r0, [sp]
	movs	r1, #0
.Ltmp251:
	.loc	7 25 26 prologue_end            @ ../fibre-cpp/include\fibre/bufptr.hpp:25:26
	str	r1, [r0]
	.loc	7 25 43 is_stmt 0               @ ../fibre-cpp/include\fibre/bufptr.hpp:25:43
	str	r1, [r0, #4]
	.loc	7 25 58 epilogue_begin          @ ../fibre-cpp/include\fibre/bufptr.hpp:25:58
	add	sp, #4
	bx	lr
.Ltmp252:
.Lfunc_end68:
	.size	_ZN5fibre16generic_bufptr_tIKhEC2Ev, .Lfunc_end68-_ZN5fibre16generic_bufptr_tIKhEC2Ev
	.cfi_endproc
	.cantunwind
	.fnend
                                        @ -- End function
	.section	.text._ZNSt3__23getB7v180000ILj0EJbN5fibre16generic_bufptr_tIKhEENS1_8CallbackIvJNS1_11WriteResultEEEEEEERNS_13tuple_elementIXT_ENS_5tupleIJDpT0_EEEE4typeERSC_,"axG",%progbits,_ZNSt3__23getB7v180000ILj0EJbN5fibre16generic_bufptr_tIKhEENS1_8CallbackIvJNS1_11WriteResultEEEEEEERNS_13tuple_elementIXT_ENS_5tupleIJDpT0_EEEE4typeERSC_,comdat
	.hidden	_ZNSt3__23getB7v180000ILj0EJbN5fibre16generic_bufptr_tIKhEENS1_8CallbackIvJNS1_11WriteResultEEEEEEERNS_13tuple_elementIXT_ENS_5tupleIJDpT0_EEEE4typeERSC_ @ -- Begin function _ZNSt3__23getB7v180000ILj0EJbN5fibre16generic_bufptr_tIKhEENS1_8CallbackIvJNS1_11WriteResultEEEEEEERNS_13tuple_elementIXT_ENS_5tupleIJDpT0_EEEE4typeERSC_
	.weak	_ZNSt3__23getB7v180000ILj0EJbN5fibre16generic_bufptr_tIKhEENS1_8CallbackIvJNS1_11WriteResultEEEEEEERNS_13tuple_elementIXT_ENS_5tupleIJDpT0_EEEE4typeERSC_
	.p2align	2
	.type	_ZNSt3__23getB7v180000ILj0EJbN5fibre16generic_bufptr_tIKhEENS1_8CallbackIvJNS1_11WriteResultEEEEEEERNS_13tuple_elementIXT_ENS_5tupleIJDpT0_EEEE4typeERSC_,%function
	.code	16                              @ @_ZNSt3__23getB7v180000ILj0EJbN5fibre16generic_bufptr_tIKhEENS1_8CallbackIvJNS1_11WriteResultEEEEEEERNS_13tuple_elementIXT_ENS_5tupleIJDpT0_EEEE4typeERSC_
	.thumb_func
_ZNSt3__23getB7v180000ILj0EJbN5fibre16generic_bufptr_tIKhEENS1_8CallbackIvJNS1_11WriteResultEEEEEEERNS_13tuple_elementIXT_ENS_5tupleIJDpT0_EEEE4typeERSC_:
.Lfunc_begin69:
	.loc	13 1394 0 is_stmt 1             @ D:\Embed\MDK\MDK\ARM\ARMCompilerV621\Bin\..\include\libcxx\tuple:1394:0
	.fnstart
	.cfi_startproc
@ %bb.0:
	.save	{r7, lr}
	push	{r7, lr}
	.cfi_def_cfa_offset 8
	.cfi_offset lr, -4
	.cfi_offset r7, -8
	.pad	#8
	sub	sp, #8
	.cfi_def_cfa_offset 16
	str	r0, [sp, #4]
.Ltmp253:
	.loc	13 1396 50 prologue_end         @ D:\Embed\MDK\MDK\ARM\ARMCompilerV621\Bin\..\include\libcxx\tuple:1396:50
	ldr	r0, [sp, #4]
	.loc	13 1396 63 is_stmt 0            @ D:\Embed\MDK\MDK\ARM\ARMCompilerV621\Bin\..\include\libcxx\tuple:1396:63
	bl	_ZNSt3__212__tuple_leafILj0EbLb0EE3getB7v180000Ev
	.loc	13 1396 5 epilogue_begin        @ D:\Embed\MDK\MDK\ARM\ARMCompilerV621\Bin\..\include\libcxx\tuple:1396:5
	add	sp, #8
	pop	{r7, pc}
.Ltmp254:
.Lfunc_end69:
	.size	_ZNSt3__23getB7v180000ILj0EJbN5fibre16generic_bufptr_tIKhEENS1_8CallbackIvJNS1_11WriteResultEEEEEEERNS_13tuple_elementIXT_ENS_5tupleIJDpT0_EEEE4typeERSC_, .Lfunc_end69-_ZNSt3__23getB7v180000ILj0EJbN5fibre16generic_bufptr_tIKhEENS1_8CallbackIvJNS1_11WriteResultEEEEEEERNS_13tuple_elementIXT_ENS_5tupleIJDpT0_EEEE4typeERSC_
	.cfi_endproc
	.cantunwind
	.fnend
                                        @ -- End function
	.section	.text._ZNSt3__23getB7v180000ILj1EJbN5fibre16generic_bufptr_tIKhEENS1_8CallbackIvJNS1_11WriteResultEEEEEEERNS_13tuple_elementIXT_ENS_5tupleIJDpT0_EEEE4typeERSC_,"axG",%progbits,_ZNSt3__23getB7v180000ILj1EJbN5fibre16generic_bufptr_tIKhEENS1_8CallbackIvJNS1_11WriteResultEEEEEEERNS_13tuple_elementIXT_ENS_5tupleIJDpT0_EEEE4typeERSC_,comdat
	.hidden	_ZNSt3__23getB7v180000ILj1EJbN5fibre16generic_bufptr_tIKhEENS1_8CallbackIvJNS1_11WriteResultEEEEEEERNS_13tuple_elementIXT_ENS_5tupleIJDpT0_EEEE4typeERSC_ @ -- Begin function _ZNSt3__23getB7v180000ILj1EJbN5fibre16generic_bufptr_tIKhEENS1_8CallbackIvJNS1_11WriteResultEEEEEEERNS_13tuple_elementIXT_ENS_5tupleIJDpT0_EEEE4typeERSC_
	.weak	_ZNSt3__23getB7v180000ILj1EJbN5fibre16generic_bufptr_tIKhEENS1_8CallbackIvJNS1_11WriteResultEEEEEEERNS_13tuple_elementIXT_ENS_5tupleIJDpT0_EEEE4typeERSC_
	.p2align	2
	.type	_ZNSt3__23getB7v180000ILj1EJbN5fibre16generic_bufptr_tIKhEENS1_8CallbackIvJNS1_11WriteResultEEEEEEERNS_13tuple_elementIXT_ENS_5tupleIJDpT0_EEEE4typeERSC_,%function
	.code	16                              @ @_ZNSt3__23getB7v180000ILj1EJbN5fibre16generic_bufptr_tIKhEENS1_8CallbackIvJNS1_11WriteResultEEEEEEERNS_13tuple_elementIXT_ENS_5tupleIJDpT0_EEEE4typeERSC_
	.thumb_func
_ZNSt3__23getB7v180000ILj1EJbN5fibre16generic_bufptr_tIKhEENS1_8CallbackIvJNS1_11WriteResultEEEEEEERNS_13tuple_elementIXT_ENS_5tupleIJDpT0_EEEE4typeERSC_:
.Lfunc_begin70:
	.loc	13 1394 0 is_stmt 1             @ D:\Embed\MDK\MDK\ARM\ARMCompilerV621\Bin\..\include\libcxx\tuple:1394:0
	.fnstart
	.cfi_startproc
@ %bb.0:
	.save	{r7, lr}
	push	{r7, lr}
	.cfi_def_cfa_offset 8
	.cfi_offset lr, -4
	.cfi_offset r7, -8
	.pad	#8
	sub	sp, #8
	.cfi_def_cfa_offset 16
	str	r0, [sp, #4]
.Ltmp255:
	.loc	13 1396 50 prologue_end         @ D:\Embed\MDK\MDK\ARM\ARMCompilerV621\Bin\..\include\libcxx\tuple:1396:50
	ldr	r0, [sp, #4]
	adds	r0, #4
	.loc	13 1396 63 is_stmt 0            @ D:\Embed\MDK\MDK\ARM\ARMCompilerV621\Bin\..\include\libcxx\tuple:1396:63
	bl	_ZNSt3__212__tuple_leafILj1EN5fibre16generic_bufptr_tIKhEELb0EE3getB7v180000Ev
	.loc	13 1396 5 epilogue_begin        @ D:\Embed\MDK\MDK\ARM\ARMCompilerV621\Bin\..\include\libcxx\tuple:1396:5
	add	sp, #8
	pop	{r7, pc}
.Ltmp256:
.Lfunc_end70:
	.size	_ZNSt3__23getB7v180000ILj1EJbN5fibre16generic_bufptr_tIKhEENS1_8CallbackIvJNS1_11WriteResultEEEEEEERNS_13tuple_elementIXT_ENS_5tupleIJDpT0_EEEE4typeERSC_, .Lfunc_end70-_ZNSt3__23getB7v180000ILj1EJbN5fibre16generic_bufptr_tIKhEENS1_8CallbackIvJNS1_11WriteResultEEEEEEERNS_13tuple_elementIXT_ENS_5tupleIJDpT0_EEEE4typeERSC_
	.cfi_endproc
	.cantunwind
	.fnend
                                        @ -- End function
	.section	.text._ZNSt3__23getB7v180000ILj2EJbN5fibre16generic_bufptr_tIKhEENS1_8CallbackIvJNS1_11WriteResultEEEEEEERNS_13tuple_elementIXT_ENS_5tupleIJDpT0_EEEE4typeERSC_,"axG",%progbits,_ZNSt3__23getB7v180000ILj2EJbN5fibre16generic_bufptr_tIKhEENS1_8CallbackIvJNS1_11WriteResultEEEEEEERNS_13tuple_elementIXT_ENS_5tupleIJDpT0_EEEE4typeERSC_,comdat
	.hidden	_ZNSt3__23getB7v180000ILj2EJbN5fibre16generic_bufptr_tIKhEENS1_8CallbackIvJNS1_11WriteResultEEEEEEERNS_13tuple_elementIXT_ENS_5tupleIJDpT0_EEEE4typeERSC_ @ -- Begin function _ZNSt3__23getB7v180000ILj2EJbN5fibre16generic_bufptr_tIKhEENS1_8CallbackIvJNS1_11WriteResultEEEEEEERNS_13tuple_elementIXT_ENS_5tupleIJDpT0_EEEE4typeERSC_
	.weak	_ZNSt3__23getB7v180000ILj2EJbN5fibre16generic_bufptr_tIKhEENS1_8CallbackIvJNS1_11WriteResultEEEEEEERNS_13tuple_elementIXT_ENS_5tupleIJDpT0_EEEE4typeERSC_
	.p2align	2
	.type	_ZNSt3__23getB7v180000ILj2EJbN5fibre16generic_bufptr_tIKhEENS1_8CallbackIvJNS1_11WriteResultEEEEEEERNS_13tuple_elementIXT_ENS_5tupleIJDpT0_EEEE4typeERSC_,%function
	.code	16                              @ @_ZNSt3__23getB7v180000ILj2EJbN5fibre16generic_bufptr_tIKhEENS1_8CallbackIvJNS1_11WriteResultEEEEEEERNS_13tuple_elementIXT_ENS_5tupleIJDpT0_EEEE4typeERSC_
	.thumb_func
_ZNSt3__23getB7v180000ILj2EJbN5fibre16generic_bufptr_tIKhEENS1_8CallbackIvJNS1_11WriteResultEEEEEEERNS_13tuple_elementIXT_ENS_5tupleIJDpT0_EEEE4typeERSC_:
.Lfunc_begin71:
	.loc	13 1394 0 is_stmt 1             @ D:\Embed\MDK\MDK\ARM\ARMCompilerV621\Bin\..\include\libcxx\tuple:1394:0
	.fnstart
	.cfi_startproc
@ %bb.0:
	.save	{r7, lr}
	push	{r7, lr}
	.cfi_def_cfa_offset 8
	.cfi_offset lr, -4
	.cfi_offset r7, -8
	.pad	#8
	sub	sp, #8
	.cfi_def_cfa_offset 16
	str	r0, [sp, #4]
.Ltmp257:
	.loc	13 1396 50 prologue_end         @ D:\Embed\MDK\MDK\ARM\ARMCompilerV621\Bin\..\include\libcxx\tuple:1396:50
	ldr	r0, [sp, #4]
	adds	r0, #12
	.loc	13 1396 63 is_stmt 0            @ D:\Embed\MDK\MDK\ARM\ARMCompilerV621\Bin\..\include\libcxx\tuple:1396:63
	bl	_ZNSt3__212__tuple_leafILj2EN5fibre8CallbackIvJNS1_11WriteResultEEEELb0EE3getB7v180000Ev
	.loc	13 1396 5 epilogue_begin        @ D:\Embed\MDK\MDK\ARM\ARMCompilerV621\Bin\..\include\libcxx\tuple:1396:5
	add	sp, #8
	pop	{r7, pc}
.Ltmp258:
.Lfunc_end71:
	.size	_ZNSt3__23getB7v180000ILj2EJbN5fibre16generic_bufptr_tIKhEENS1_8CallbackIvJNS1_11WriteResultEEEEEEERNS_13tuple_elementIXT_ENS_5tupleIJDpT0_EEEE4typeERSC_, .Lfunc_end71-_ZNSt3__23getB7v180000ILj2EJbN5fibre16generic_bufptr_tIKhEENS1_8CallbackIvJNS1_11WriteResultEEEEEEERNS_13tuple_elementIXT_ENS_5tupleIJDpT0_EEEE4typeERSC_
	.cfi_endproc
	.cantunwind
	.fnend
                                        @ -- End function
	.section	.text._ZN5fibre13make_callbackIMNS_26AsyncStreamSinkMultiplexerILj2EEEFvNS_11WriteResultEEXadL_ZNS2_17on_write_completeES3_EENS_15function_traitsIvS2_JS3_EEENS_14MemberCallbackIS5_XadL_ZNS2_17on_write_completeES3_EES2_vNSt3__25tupleIJS3_EEEEEEENT2_4cb_tEPNT1_4TObjE,"axG",%progbits,_ZN5fibre13make_callbackIMNS_26AsyncStreamSinkMultiplexerILj2EEEFvNS_11WriteResultEEXadL_ZNS2_17on_write_completeES3_EENS_15function_traitsIvS2_JS3_EEENS_14MemberCallbackIS5_XadL_ZNS2_17on_write_completeES3_EES2_vNSt3__25tupleIJS3_EEEEEEENT2_4cb_tEPNT1_4TObjE,comdat
	.hidden	_ZN5fibre13make_callbackIMNS_26AsyncStreamSinkMultiplexerILj2EEEFvNS_11WriteResultEEXadL_ZNS2_17on_write_completeES3_EENS_15function_traitsIvS2_JS3_EEENS_14MemberCallbackIS5_XadL_ZNS2_17on_write_completeES3_EES2_vNSt3__25tupleIJS3_EEEEEEENT2_4cb_tEPNT1_4TObjE @ -- Begin function _ZN5fibre13make_callbackIMNS_26AsyncStreamSinkMultiplexerILj2EEEFvNS_11WriteResultEEXadL_ZNS2_17on_write_completeES3_EENS_15function_traitsIvS2_JS3_EEENS_14MemberCallbackIS5_XadL_ZNS2_17on_write_completeES3_EES2_vNSt3__25tupleIJS3_EEEEEEENT2_4cb_tEPNT1_4TObjE
	.weak	_ZN5fibre13make_callbackIMNS_26AsyncStreamSinkMultiplexerILj2EEEFvNS_11WriteResultEEXadL_ZNS2_17on_write_completeES3_EENS_15function_traitsIvS2_JS3_EEENS_14MemberCallbackIS5_XadL_ZNS2_17on_write_completeES3_EES2_vNSt3__25tupleIJS3_EEEEEEENT2_4cb_tEPNT1_4TObjE
	.p2align	2
	.type	_ZN5fibre13make_callbackIMNS_26AsyncStreamSinkMultiplexerILj2EEEFvNS_11WriteResultEEXadL_ZNS2_17on_write_completeES3_EENS_15function_traitsIvS2_JS3_EEENS_14MemberCallbackIS5_XadL_ZNS2_17on_write_completeES3_EES2_vNSt3__25tupleIJS3_EEEEEEENT2_4cb_tEPNT1_4TObjE,%function
	.code	16                              @ @_ZN5fibre13make_callbackIMNS_26AsyncStreamSinkMultiplexerILj2EEEFvNS_11WriteResultEEXadL_ZNS2_17on_write_completeES3_EENS_15function_traitsIvS2_JS3_EEENS_14MemberCallbackIS5_XadL_ZNS2_17on_write_completeES3_EES2_vNSt3__25tupleIJS3_EEEEEEENT2_4cb_tEPNT1_4TObjE
	.thumb_func
_ZN5fibre13make_callbackIMNS_26AsyncStreamSinkMultiplexerILj2EEEFvNS_11WriteResultEEXadL_ZNS2_17on_write_completeES3_EENS_15function_traitsIvS2_JS3_EEENS_14MemberCallbackIS5_XadL_ZNS2_17on_write_completeES3_EES2_vNSt3__25tupleIJS3_EEEEEEENT2_4cb_tEPNT1_4TObjE:
.Lfunc_begin72:
	.loc	9 114 0 is_stmt 1               @ ../fibre-cpp/include\fibre/callback.hpp:114:0
	.fnstart
	.cfi_startproc
@ %bb.0:
	.save	{r7, lr}
	push	{r7, lr}
	.cfi_def_cfa_offset 8
	.cfi_offset lr, -4
	.cfi_offset r7, -8
	.pad	#8
	sub	sp, #8
	.cfi_def_cfa_offset 16
	str	r0, [sp, #4]
	str	r1, [sp]
.Ltmp259:
	.loc	9 115 24 prologue_end           @ ../fibre-cpp/include\fibre/callback.hpp:115:24
	ldr	r1, [sp]
	.loc	9 115 12 is_stmt 0              @ ../fibre-cpp/include\fibre/callback.hpp:115:12
	bl	_ZN5fibre14MemberCallbackIMNS_26AsyncStreamSinkMultiplexerILj2EEEFvNS_11WriteResultEEXadL_ZNS2_17on_write_completeES3_EES2_vNSt3__25tupleIJS3_EEEE4withEPS2_
	.loc	9 115 5 epilogue_begin          @ ../fibre-cpp/include\fibre/callback.hpp:115:5
	add	sp, #8
	pop	{r7, pc}
.Ltmp260:
.Lfunc_end72:
	.size	_ZN5fibre13make_callbackIMNS_26AsyncStreamSinkMultiplexerILj2EEEFvNS_11WriteResultEEXadL_ZNS2_17on_write_completeES3_EENS_15function_traitsIvS2_JS3_EEENS_14MemberCallbackIS5_XadL_ZNS2_17on_write_completeES3_EES2_vNSt3__25tupleIJS3_EEEEEEENT2_4cb_tEPNT1_4TObjE, .Lfunc_end72-_ZN5fibre13make_callbackIMNS_26AsyncStreamSinkMultiplexerILj2EEEFvNS_11WriteResultEEXadL_ZNS2_17on_write_completeES3_EENS_15function_traitsIvS2_JS3_EEENS_14MemberCallbackIS5_XadL_ZNS2_17on_write_completeES3_EES2_vNSt3__25tupleIJS3_EEEEEEENT2_4cb_tEPNT1_4TObjE
	.cfi_endproc
	.cantunwind
	.fnend
                                        @ -- End function
	.section	.text._ZNSt3__212__tuple_leafILj0EbLb0EE3getB7v180000Ev,"axG",%progbits,_ZNSt3__212__tuple_leafILj0EbLb0EE3getB7v180000Ev,comdat
	.hidden	_ZNSt3__212__tuple_leafILj0EbLb0EE3getB7v180000Ev @ -- Begin function _ZNSt3__212__tuple_leafILj0EbLb0EE3getB7v180000Ev
	.weak	_ZNSt3__212__tuple_leafILj0EbLb0EE3getB7v180000Ev
	.p2align	2
	.type	_ZNSt3__212__tuple_leafILj0EbLb0EE3getB7v180000Ev,%function
	.code	16                              @ @_ZNSt3__212__tuple_leafILj0EbLb0EE3getB7v180000Ev
	.thumb_func
_ZNSt3__212__tuple_leafILj0EbLb0EE3getB7v180000Ev:
.Lfunc_begin73:
	.loc	13 399 0 is_stmt 1              @ D:\Embed\MDK\MDK\ARM\ARMCompilerV621\Bin\..\include\libcxx\tuple:399:0
	.fnstart
	.cfi_startproc
@ %bb.0:
	.pad	#4
	sub	sp, #4
	.cfi_def_cfa_offset 4
	str	r0, [sp]
	ldr	r0, [sp]
.Ltmp261:
	.loc	13 399 95 prologue_end epilogue_begin @ D:\Embed\MDK\MDK\ARM\ARMCompilerV621\Bin\..\include\libcxx\tuple:399:95
	add	sp, #4
	bx	lr
.Ltmp262:
.Lfunc_end73:
	.size	_ZNSt3__212__tuple_leafILj0EbLb0EE3getB7v180000Ev, .Lfunc_end73-_ZNSt3__212__tuple_leafILj0EbLb0EE3getB7v180000Ev
	.cfi_endproc
	.cantunwind
	.fnend
                                        @ -- End function
	.section	.text._ZNSt3__212__tuple_leafILj1EN5fibre16generic_bufptr_tIKhEELb0EE3getB7v180000Ev,"axG",%progbits,_ZNSt3__212__tuple_leafILj1EN5fibre16generic_bufptr_tIKhEELb0EE3getB7v180000Ev,comdat
	.hidden	_ZNSt3__212__tuple_leafILj1EN5fibre16generic_bufptr_tIKhEELb0EE3getB7v180000Ev @ -- Begin function _ZNSt3__212__tuple_leafILj1EN5fibre16generic_bufptr_tIKhEELb0EE3getB7v180000Ev
	.weak	_ZNSt3__212__tuple_leafILj1EN5fibre16generic_bufptr_tIKhEELb0EE3getB7v180000Ev
	.p2align	2
	.type	_ZNSt3__212__tuple_leafILj1EN5fibre16generic_bufptr_tIKhEELb0EE3getB7v180000Ev,%function
	.code	16                              @ @_ZNSt3__212__tuple_leafILj1EN5fibre16generic_bufptr_tIKhEELb0EE3getB7v180000Ev
	.thumb_func
_ZNSt3__212__tuple_leafILj1EN5fibre16generic_bufptr_tIKhEELb0EE3getB7v180000Ev:
.Lfunc_begin74:
	.loc	13 399 0                        @ D:\Embed\MDK\MDK\ARM\ARMCompilerV621\Bin\..\include\libcxx\tuple:399:0
	.fnstart
	.cfi_startproc
@ %bb.0:
	.pad	#4
	sub	sp, #4
	.cfi_def_cfa_offset 4
	str	r0, [sp]
	ldr	r0, [sp]
.Ltmp263:
	.loc	13 399 95 prologue_end epilogue_begin @ D:\Embed\MDK\MDK\ARM\ARMCompilerV621\Bin\..\include\libcxx\tuple:399:95
	add	sp, #4
	bx	lr
.Ltmp264:
.Lfunc_end74:
	.size	_ZNSt3__212__tuple_leafILj1EN5fibre16generic_bufptr_tIKhEELb0EE3getB7v180000Ev, .Lfunc_end74-_ZNSt3__212__tuple_leafILj1EN5fibre16generic_bufptr_tIKhEELb0EE3getB7v180000Ev
	.cfi_endproc
	.cantunwind
	.fnend
                                        @ -- End function
	.section	.text._ZNSt3__212__tuple_leafILj2EN5fibre8CallbackIvJNS1_11WriteResultEEEELb0EE3getB7v180000Ev,"axG",%progbits,_ZNSt3__212__tuple_leafILj2EN5fibre8CallbackIvJNS1_11WriteResultEEEELb0EE3getB7v180000Ev,comdat
	.hidden	_ZNSt3__212__tuple_leafILj2EN5fibre8CallbackIvJNS1_11WriteResultEEEELb0EE3getB7v180000Ev @ -- Begin function _ZNSt3__212__tuple_leafILj2EN5fibre8CallbackIvJNS1_11WriteResultEEEELb0EE3getB7v180000Ev
	.weak	_ZNSt3__212__tuple_leafILj2EN5fibre8CallbackIvJNS1_11WriteResultEEEELb0EE3getB7v180000Ev
	.p2align	2
	.type	_ZNSt3__212__tuple_leafILj2EN5fibre8CallbackIvJNS1_11WriteResultEEEELb0EE3getB7v180000Ev,%function
	.code	16                              @ @_ZNSt3__212__tuple_leafILj2EN5fibre8CallbackIvJNS1_11WriteResultEEEELb0EE3getB7v180000Ev
	.thumb_func
_ZNSt3__212__tuple_leafILj2EN5fibre8CallbackIvJNS1_11WriteResultEEEELb0EE3getB7v180000Ev:
.Lfunc_begin75:
	.loc	13 399 0                        @ D:\Embed\MDK\MDK\ARM\ARMCompilerV621\Bin\..\include\libcxx\tuple:399:0
	.fnstart
	.cfi_startproc
@ %bb.0:
	.pad	#4
	sub	sp, #4
	.cfi_def_cfa_offset 4
	str	r0, [sp]
	ldr	r0, [sp]
.Ltmp265:
	.loc	13 399 95 prologue_end epilogue_begin @ D:\Embed\MDK\MDK\ARM\ARMCompilerV621\Bin\..\include\libcxx\tuple:399:95
	add	sp, #4
	bx	lr
.Ltmp266:
.Lfunc_end75:
	.size	_ZNSt3__212__tuple_leafILj2EN5fibre8CallbackIvJNS1_11WriteResultEEEELb0EE3getB7v180000Ev, .Lfunc_end75-_ZNSt3__212__tuple_leafILj2EN5fibre8CallbackIvJNS1_11WriteResultEEEELb0EE3getB7v180000Ev
	.cfi_endproc
	.cantunwind
	.fnend
                                        @ -- End function
	.section	.text._ZN5fibre26AsyncStreamSinkMultiplexerILj2EE17on_write_completeENS_11WriteResultE,"axG",%progbits,_ZN5fibre26AsyncStreamSinkMultiplexerILj2EE17on_write_completeENS_11WriteResultE,comdat
	.hidden	_ZN5fibre26AsyncStreamSinkMultiplexerILj2EE17on_write_completeENS_11WriteResultE @ -- Begin function _ZN5fibre26AsyncStreamSinkMultiplexerILj2EE17on_write_completeENS_11WriteResultE
	.weak	_ZN5fibre26AsyncStreamSinkMultiplexerILj2EE17on_write_completeENS_11WriteResultE
	.p2align	2
	.type	_ZN5fibre26AsyncStreamSinkMultiplexerILj2EE17on_write_completeENS_11WriteResultE,%function
	.code	16                              @ @_ZN5fibre26AsyncStreamSinkMultiplexerILj2EE17on_write_completeENS_11WriteResultE
	.thumb_func
_ZN5fibre26AsyncStreamSinkMultiplexerILj2EE17on_write_completeENS_11WriteResultE:
.Lfunc_begin76:
	.loc	12 148 0                        @ ../fibre-cpp/include\fibre/../../stream_utils.hpp:148:0
	.fnstart
	.cfi_startproc
@ %bb.0:
	.save	{r4, lr}
	push	{r4, lr}
	.cfi_def_cfa_offset 8
	.cfi_offset lr, -4
	.cfi_offset r4, -8
	.pad	#128
	sub	sp, #128
	.cfi_def_cfa_offset 136
                                        @ kill: def $r3 killed $r2
                                        @ kill: def $r3 killed $r1
	str	r2, [sp, #124]
	str	r1, [sp, #120]
	str	r0, [sp, #116]
	ldr	r0, [sp, #116]
	str	r0, [sp, #16]                   @ 4-byte Spill
	movs	r1, #0
.Ltmp267:
	.loc	12 149 26 prologue_end          @ ../fibre-cpp/include\fibre/../../stream_utils.hpp:149:26
	str	r1, [sp, #24]                   @ 4-byte Spill
	str	r1, [r0, #52]
	.loc	12 151 65                       @ ../fibre-cpp/include\fibre/../../stream_utils.hpp:151:65
	ldr	r1, [r0, #48]
	.loc	12 151 78 is_stmt 0             @ ../fibre-cpp/include\fibre/../../stream_utils.hpp:151:78
	add.w	r1, r1, r1, lsl #2
	.loc	12 151 58                       @ ../fibre-cpp/include\fibre/../../stream_utils.hpp:151:58
	add.w	r0, r0, r1, lsl #2
	subs	r0, #12
	.loc	12 151 15                       @ ../fibre-cpp/include\fibre/../../stream_utils.hpp:151:15
	str	r0, [sp, #112]
	.loc	12 151 16                       @ ../fibre-cpp/include\fibre/../../stream_utils.hpp:151:16
	ldr	r0, [sp, #112]
	bl	_ZNSt3__23getB7v180000ILj0EJbN5fibre16generic_bufptr_tIKhEENS1_8CallbackIvJNS1_11WriteResultEEEEEEERNS_13tuple_elementIXT_ENS_5tupleIJDpT0_EEEE4typeERSC_
	str	r0, [sp, #108]
	.loc	12 151 29                       @ ../fibre-cpp/include\fibre/../../stream_utils.hpp:151:29
	ldr	r0, [sp, #112]
	bl	_ZNSt3__23getB7v180000ILj1EJbN5fibre16generic_bufptr_tIKhEENS1_8CallbackIvJNS1_11WriteResultEEEEEEERNS_13tuple_elementIXT_ENS_5tupleIJDpT0_EEEE4typeERSC_
	str	r0, [sp, #104]
	.loc	12 151 39                       @ ../fibre-cpp/include\fibre/../../stream_utils.hpp:151:39
	ldr	r0, [sp, #112]
	bl	_ZNSt3__23getB7v180000ILj2EJbN5fibre16generic_bufptr_tIKhEENS1_8CallbackIvJNS1_11WriteResultEEEEEEERNS_13tuple_elementIXT_ENS_5tupleIJDpT0_EEEE4typeERSC_
	str	r0, [sp, #100]
	ldr	r1, [sp, #100]
	add	r0, sp, #92
	.loc	12 153 26 is_stmt 1             @ ../fibre-cpp/include\fibre/../../stream_utils.hpp:153:26
	str	r0, [sp, #20]                   @ 4-byte Spill
	bl	_ZN5fibre8CallbackIvJNS_11WriteResultEEEC2ERKS2_
	ldr	r0, [sp, #20]                   @ 4-byte Reload
	ldr	r1, [sp, #24]                   @ 4-byte Reload
	.loc	12 151 16                       @ ../fibre-cpp/include\fibre/../../stream_utils.hpp:151:16
	ldr	r2, [sp, #108]
	.loc	12 154 21                       @ ../fibre-cpp/include\fibre/../../stream_utils.hpp:154:21
	strb	r1, [r2]
	.loc	12 156 36                       @ ../fibre-cpp/include\fibre/../../stream_utils.hpp:156:36
	ldr	r1, [sp, #120]
	ldr	r2, [sp, #124]
	str	r2, [sp, #88]
	str	r1, [sp, #84]
	.loc	12 156 19 is_stmt 0             @ ../fibre-cpp/include\fibre/../../stream_utils.hpp:156:19
	ldr	r1, [sp, #84]
	ldr	r2, [sp, #88]
	bl	_ZN5fibre8CallbackIvJNS_11WriteResultEEE16invoke_and_clearES1_
	ldr	r0, [sp, #24]                   @ 4-byte Reload
	.loc	12 159 16 is_stmt 1             @ ../fibre-cpp/include\fibre/../../stream_utils.hpp:159:16
	str	r0, [sp, #80]
.Ltmp268:
	.loc	12 160 21                       @ ../fibre-cpp/include\fibre/../../stream_utils.hpp:160:21
	str	r0, [sp, #76]
	.loc	12 160 14 is_stmt 0             @ ../fibre-cpp/include\fibre/../../stream_utils.hpp:160:14
	b	.LBB76_1
.LBB76_1:                               @ =>This Inner Loop Header: Depth=1
.Ltmp269:
	.loc	12 160 28                       @ ../fibre-cpp/include\fibre/../../stream_utils.hpp:160:28
	ldr	r0, [sp, #76]
.Ltmp270:
	.loc	12 160 9                        @ ../fibre-cpp/include\fibre/../../stream_utils.hpp:160:9
	cmp	r0, #1
	bhi	.LBB76_6
	b	.LBB76_2
.LBB76_2:                               @   in Loop: Header=BB76_1 Depth=1
.Ltmp271:
	.loc	12 161 68 is_stmt 1             @ ../fibre-cpp/include\fibre/../../stream_utils.hpp:161:68
	ldr	r0, [sp, #16]                   @ 4-byte Reload
	ldr	r1, [sp, #76]
	.loc	12 161 61 is_stmt 0             @ ../fibre-cpp/include\fibre/../../stream_utils.hpp:161:61
	add.w	r1, r1, r1, lsl #2
	add.w	r0, r0, r1, lsl #2
	adds	r0, #8
	.loc	12 161 19                       @ ../fibre-cpp/include\fibre/../../stream_utils.hpp:161:19
	str	r0, [sp, #72]
	.loc	12 161 20                       @ ../fibre-cpp/include\fibre/../../stream_utils.hpp:161:20
	ldr	r0, [sp, #72]
	bl	_ZNSt3__23getB7v180000ILj0EJbN5fibre16generic_bufptr_tIKhEENS1_8CallbackIvJNS1_11WriteResultEEEEEEERNS_13tuple_elementIXT_ENS_5tupleIJDpT0_EEEE4typeERSC_
	str	r0, [sp, #68]
	.loc	12 161 33                       @ ../fibre-cpp/include\fibre/../../stream_utils.hpp:161:33
	ldr	r0, [sp, #72]
	bl	_ZNSt3__23getB7v180000ILj1EJbN5fibre16generic_bufptr_tIKhEENS1_8CallbackIvJNS1_11WriteResultEEEEEEERNS_13tuple_elementIXT_ENS_5tupleIJDpT0_EEEE4typeERSC_
	str	r0, [sp, #64]
	.loc	12 161 43                       @ ../fibre-cpp/include\fibre/../../stream_utils.hpp:161:43
	ldr	r0, [sp, #72]
	bl	_ZNSt3__23getB7v180000ILj2EJbN5fibre16generic_bufptr_tIKhEENS1_8CallbackIvJNS1_11WriteResultEEEEEEERNS_13tuple_elementIXT_ENS_5tupleIJDpT0_EEEE4typeERSC_
	str	r0, [sp, #60]
.Ltmp272:
	.loc	12 161 20                       @ ../fibre-cpp/include\fibre/../../stream_utils.hpp:161:20
	ldr	r0, [sp, #68]
	.loc	12 164 17 is_stmt 1             @ ../fibre-cpp/include\fibre/../../stream_utils.hpp:164:17
	ldrb	r0, [r0]
.Ltmp273:
	.loc	12 164 17 is_stmt 0             @ ../fibre-cpp/include\fibre/../../stream_utils.hpp:164:17
	lsls	r0, r0, #31
	cbz	r0, .LBB76_4
	b	.LBB76_3
.LBB76_3:
.Ltmp274:
	.loc	12 165 31 is_stmt 1             @ ../fibre-cpp/include\fibre/../../stream_utils.hpp:165:31
	ldr	r0, [sp, #76]
	.loc	12 165 33 is_stmt 0             @ ../fibre-cpp/include\fibre/../../stream_utils.hpp:165:33
	adds	r0, #1
	.loc	12 165 29                       @ ../fibre-cpp/include\fibre/../../stream_utils.hpp:165:29
	str	r0, [sp, #80]
	.loc	12 166 17 is_stmt 1             @ ../fibre-cpp/include\fibre/../../stream_utils.hpp:166:17
	b	.LBB76_6
.Ltmp275:
.LBB76_4:                               @   in Loop: Header=BB76_1 Depth=1
	.loc	12 168 9                        @ ../fibre-cpp/include\fibre/../../stream_utils.hpp:168:9
	b	.LBB76_5
.Ltmp276:
.LBB76_5:                               @   in Loop: Header=BB76_1 Depth=1
	.loc	12 160 40                       @ ../fibre-cpp/include\fibre/../../stream_utils.hpp:160:40
	ldr	r0, [sp, #76]
	adds	r0, #1
	str	r0, [sp, #76]
	.loc	12 160 9 is_stmt 0              @ ../fibre-cpp/include\fibre/../../stream_utils.hpp:160:9
	b	.LBB76_1
.Ltmp277:
.LBB76_6:
	.loc	12 171 24 is_stmt 1             @ ../fibre-cpp/include\fibre/../../stream_utils.hpp:171:24
	ldr	r1, [sp, #16]                   @ 4-byte Reload
	ldr	r0, [sp, #80]
	.loc	12 171 22 is_stmt 0             @ ../fibre-cpp/include\fibre/../../stream_utils.hpp:171:22
	str	r0, [r1, #48]
.Ltmp278:
	.loc	12 172 13 is_stmt 1             @ ../fibre-cpp/include\fibre/../../stream_utils.hpp:172:13
	ldr	r0, [sp, #80]
.Ltmp279:
	.loc	12 172 13 is_stmt 0             @ ../fibre-cpp/include\fibre/../../stream_utils.hpp:172:13
	cbz	r0, .LBB76_8
	b	.LBB76_7
.LBB76_7:
.Ltmp280:
	.loc	12 173 68 is_stmt 1             @ ../fibre-cpp/include\fibre/../../stream_utils.hpp:173:68
	ldr	r0, [sp, #16]                   @ 4-byte Reload
	ldr	r1, [sp, #80]
	.loc	12 173 80 is_stmt 0             @ ../fibre-cpp/include\fibre/../../stream_utils.hpp:173:80
	add.w	r1, r1, r1, lsl #2
	.loc	12 173 61                       @ ../fibre-cpp/include\fibre/../../stream_utils.hpp:173:61
	add.w	r0, r0, r1, lsl #2
	subs	r0, #12
	.loc	12 173 19                       @ ../fibre-cpp/include\fibre/../../stream_utils.hpp:173:19
	str	r0, [sp, #56]
	.loc	12 173 20                       @ ../fibre-cpp/include\fibre/../../stream_utils.hpp:173:20
	ldr	r0, [sp, #56]
	bl	_ZNSt3__23getB7v180000ILj0EJbN5fibre16generic_bufptr_tIKhEENS1_8CallbackIvJNS1_11WriteResultEEEEEEERNS_13tuple_elementIXT_ENS_5tupleIJDpT0_EEEE4typeERSC_
	str	r0, [sp, #52]
	.loc	12 173 33                       @ ../fibre-cpp/include\fibre/../../stream_utils.hpp:173:33
	ldr	r0, [sp, #56]
	bl	_ZNSt3__23getB7v180000ILj1EJbN5fibre16generic_bufptr_tIKhEENS1_8CallbackIvJNS1_11WriteResultEEEEEEERNS_13tuple_elementIXT_ENS_5tupleIJDpT0_EEEE4typeERSC_
	str	r0, [sp, #48]
	.loc	12 173 43                       @ ../fibre-cpp/include\fibre/../../stream_utils.hpp:173:43
	ldr	r0, [sp, #56]
	bl	_ZNSt3__23getB7v180000ILj2EJbN5fibre16generic_bufptr_tIKhEENS1_8CallbackIvJNS1_11WriteResultEEEEEEERNS_13tuple_elementIXT_ENS_5tupleIJDpT0_EEEE4typeERSC_
	ldr	r1, [sp, #16]                   @ 4-byte Reload
	str	r0, [sp, #44]
	.loc	12 176 13 is_stmt 1             @ ../fibre-cpp/include\fibre/../../stream_utils.hpp:176:13
	ldr	r0, [r1, #4]
	.loc	12 173 33                       @ ../fibre-cpp/include\fibre/../../stream_utils.hpp:173:33
	str	r0, [sp, #4]                    @ 4-byte Spill
	ldr	r2, [sp, #48]
	.loc	12 176 31                       @ ../fibre-cpp/include\fibre/../../stream_utils.hpp:176:31
	ldr	r0, [r2]
	ldr	r2, [r2, #4]
	str	r2, [sp, #40]
	str	r0, [sp, #36]
	.loc	12 176 42 is_stmt 0             @ ../fibre-cpp/include\fibre/../../stream_utils.hpp:176:42
	add.w	r0, r1, #52
	.loc	12 176 60                       @ ../fibre-cpp/include\fibre/../../stream_utils.hpp:176:60
	str	r0, [sp, #8]                    @ 4-byte Spill
	add	r0, sp, #28
	str	r0, [sp, #12]                   @ 4-byte Spill
	bl	_ZN5fibre13make_callbackIMNS_26AsyncStreamSinkMultiplexerILj2EEEFvNS_11WriteResultEEXadL_ZNS2_17on_write_completeES3_EENS_15function_traitsIvS2_JS3_EEENS_14MemberCallbackIS5_XadL_ZNS2_17on_write_completeES3_EES2_vNSt3__25tupleIJS3_EEEEEEENT2_4cb_tEPNT1_4TObjE
	ldr	r0, [sp, #4]                    @ 4-byte Reload
	ldr	r3, [sp, #8]                    @ 4-byte Reload
	ldr.w	lr, [sp, #12]                   @ 4-byte Reload
	.loc	12 176 19                       @ ../fibre-cpp/include\fibre/../../stream_utils.hpp:176:19
	ldr	r1, [sp, #36]
	ldr	r2, [sp, #40]
	ldr.w	r12, [r0]
	ldr.w	r12, [r12]
	mov	r4, sp
	str.w	lr, [r4]
	blx	r12
	.loc	12 177 9 is_stmt 1              @ ../fibre-cpp/include\fibre/../../stream_utils.hpp:177:9
	b	.LBB76_8
.Ltmp281:
.LBB76_8:
	.loc	12 178 5 epilogue_begin         @ ../fibre-cpp/include\fibre/../../stream_utils.hpp:178:5
	add	sp, #128
	pop	{r4, pc}
.Ltmp282:
.Lfunc_end76:
	.size	_ZN5fibre26AsyncStreamSinkMultiplexerILj2EE17on_write_completeENS_11WriteResultE, .Lfunc_end76-_ZN5fibre26AsyncStreamSinkMultiplexerILj2EE17on_write_completeENS_11WriteResultE
	.cfi_endproc
	.cantunwind
	.fnend
                                        @ -- End function
	.section	.text._ZN5fibre14MemberCallbackIMNS_26AsyncStreamSinkMultiplexerILj2EEEFvNS_11WriteResultEEXadL_ZNS2_17on_write_completeES3_EES2_vNSt3__25tupleIJS3_EEEE4withEPS2_,"axG",%progbits,_ZN5fibre14MemberCallbackIMNS_26AsyncStreamSinkMultiplexerILj2EEEFvNS_11WriteResultEEXadL_ZNS2_17on_write_completeES3_EES2_vNSt3__25tupleIJS3_EEEE4withEPS2_,comdat
	.hidden	_ZN5fibre14MemberCallbackIMNS_26AsyncStreamSinkMultiplexerILj2EEEFvNS_11WriteResultEEXadL_ZNS2_17on_write_completeES3_EES2_vNSt3__25tupleIJS3_EEEE4withEPS2_ @ -- Begin function _ZN5fibre14MemberCallbackIMNS_26AsyncStreamSinkMultiplexerILj2EEEFvNS_11WriteResultEEXadL_ZNS2_17on_write_completeES3_EES2_vNSt3__25tupleIJS3_EEEE4withEPS2_
	.weak	_ZN5fibre14MemberCallbackIMNS_26AsyncStreamSinkMultiplexerILj2EEEFvNS_11WriteResultEEXadL_ZNS2_17on_write_completeES3_EES2_vNSt3__25tupleIJS3_EEEE4withEPS2_
	.p2align	2
	.type	_ZN5fibre14MemberCallbackIMNS_26AsyncStreamSinkMultiplexerILj2EEEFvNS_11WriteResultEEXadL_ZNS2_17on_write_completeES3_EES2_vNSt3__25tupleIJS3_EEEE4withEPS2_,%function
	.code	16                              @ @_ZN5fibre14MemberCallbackIMNS_26AsyncStreamSinkMultiplexerILj2EEEFvNS_11WriteResultEEXadL_ZNS2_17on_write_completeES3_EES2_vNSt3__25tupleIJS3_EEEE4withEPS2_
	.thumb_func
_ZN5fibre14MemberCallbackIMNS_26AsyncStreamSinkMultiplexerILj2EEEFvNS_11WriteResultEEXadL_ZNS2_17on_write_completeES3_EES2_vNSt3__25tupleIJS3_EEEE4withEPS2_:
.Lfunc_begin77:
	.loc	9 104 0                         @ ../fibre-cpp/include\fibre/callback.hpp:104:0
	.fnstart
	.cfi_startproc
@ %bb.0:
	.save	{r7, lr}
	push	{r7, lr}
	.cfi_def_cfa_offset 8
	.cfi_offset lr, -4
	.cfi_offset r7, -8
	.pad	#16
	sub	sp, #16
	.cfi_def_cfa_offset 24
	str	r0, [sp]                        @ 4-byte Spill
	str	r0, [sp, #12]
	str	r1, [sp, #8]
	add.w	r0, sp, #7
.Ltmp283:
	.loc	9 105 21 prologue_end           @ ../fibre-cpp/include\fibre/callback.hpp:105:21
	bl	_ZZN5fibre14MemberCallbackIMNS_26AsyncStreamSinkMultiplexerILj2EEEFvNS_11WriteResultEEXadL_ZNS2_17on_write_completeES3_EES2_vNSt3__25tupleIJS3_EEEE4withEPS2_ENKUlPvS3_E_cvPFvSB_S3_EEv
	mov	r1, r0
	.loc	9 107 12                        @ ../fibre-cpp/include\fibre/callback.hpp:107:12
	ldr	r0, [sp]                        @ 4-byte Reload
	ldr	r2, [sp, #8]
	.loc	9 105 16                        @ ../fibre-cpp/include\fibre/callback.hpp:105:16
	bl	_ZN5fibre8CallbackIvJNS_11WriteResultEEEC2EPFvPvS1_ES3_
	.loc	9 105 9 epilogue_begin is_stmt 0 @ ../fibre-cpp/include\fibre/callback.hpp:105:9
	add	sp, #16
	pop	{r7, pc}
.Ltmp284:
.Lfunc_end77:
	.size	_ZN5fibre14MemberCallbackIMNS_26AsyncStreamSinkMultiplexerILj2EEEFvNS_11WriteResultEEXadL_ZNS2_17on_write_completeES3_EES2_vNSt3__25tupleIJS3_EEEE4withEPS2_, .Lfunc_end77-_ZN5fibre14MemberCallbackIMNS_26AsyncStreamSinkMultiplexerILj2EEEFvNS_11WriteResultEEXadL_ZNS2_17on_write_completeES3_EES2_vNSt3__25tupleIJS3_EEEE4withEPS2_
	.cfi_endproc
	.cantunwind
	.fnend
                                        @ -- End function
	.section	.text._ZN5fibre8CallbackIvJNS_11WriteResultEEEC2ERKS2_,"axG",%progbits,_ZN5fibre8CallbackIvJNS_11WriteResultEEEC2ERKS2_,comdat
	.hidden	_ZN5fibre8CallbackIvJNS_11WriteResultEEEC2ERKS2_ @ -- Begin function _ZN5fibre8CallbackIvJNS_11WriteResultEEEC2ERKS2_
	.weak	_ZN5fibre8CallbackIvJNS_11WriteResultEEEC2ERKS2_
	.p2align	2
	.type	_ZN5fibre8CallbackIvJNS_11WriteResultEEEC2ERKS2_,%function
	.code	16                              @ @_ZN5fibre8CallbackIvJNS_11WriteResultEEEC2ERKS2_
	.thumb_func
_ZN5fibre8CallbackIvJNS_11WriteResultEEEC2ERKS2_:
.Lfunc_begin78:
	.loc	9 37 0 is_stmt 1                @ ../fibre-cpp/include\fibre/callback.hpp:37:0
	.fnstart
	.cfi_startproc
@ %bb.0:
	.pad	#8
	sub	sp, #8
	.cfi_def_cfa_offset 8
	str	r0, [sp, #4]
	str	r1, [sp]
	ldr	r0, [sp, #4]
.Ltmp285:
	.loc	9 37 43 prologue_end            @ ../fibre-cpp/include\fibre/callback.hpp:37:43
	ldr	r1, [sp]
	.loc	9 37 49 is_stmt 0               @ ../fibre-cpp/include\fibre/callback.hpp:37:49
	ldr	r1, [r1]
	.loc	9 37 39                         @ ../fibre-cpp/include\fibre/callback.hpp:37:39
	str	r1, [r0]
	.loc	9 37 60                         @ ../fibre-cpp/include\fibre/callback.hpp:37:60
	ldr	r1, [sp]
	.loc	9 37 66                         @ ../fibre-cpp/include\fibre/callback.hpp:37:66
	ldr	r1, [r1, #4]
	.loc	9 37 55                         @ ../fibre-cpp/include\fibre/callback.hpp:37:55
	str	r1, [r0, #4]
	.loc	9 37 73 epilogue_begin          @ ../fibre-cpp/include\fibre/callback.hpp:37:73
	add	sp, #8
	bx	lr
.Ltmp286:
.Lfunc_end78:
	.size	_ZN5fibre8CallbackIvJNS_11WriteResultEEEC2ERKS2_, .Lfunc_end78-_ZN5fibre8CallbackIvJNS_11WriteResultEEEC2ERKS2_
	.cfi_endproc
	.cantunwind
	.fnend
                                        @ -- End function
	.section	.text._ZZN5fibre14MemberCallbackIMNS_26AsyncStreamSinkMultiplexerILj2EEEFvNS_11WriteResultEEXadL_ZNS2_17on_write_completeES3_EES2_vNSt3__25tupleIJS3_EEEE4withEPS2_ENKUlPvS3_E_cvPFvSB_S3_EEv,"axG",%progbits,_ZZN5fibre14MemberCallbackIMNS_26AsyncStreamSinkMultiplexerILj2EEEFvNS_11WriteResultEEXadL_ZNS2_17on_write_completeES3_EES2_vNSt3__25tupleIJS3_EEEE4withEPS2_ENKUlPvS3_E_cvPFvSB_S3_EEv,comdat
	.hidden	_ZZN5fibre14MemberCallbackIMNS_26AsyncStreamSinkMultiplexerILj2EEEFvNS_11WriteResultEEXadL_ZNS2_17on_write_completeES3_EES2_vNSt3__25tupleIJS3_EEEE4withEPS2_ENKUlPvS3_E_cvPFvSB_S3_EEv @ -- Begin function _ZZN5fibre14MemberCallbackIMNS_26AsyncStreamSinkMultiplexerILj2EEEFvNS_11WriteResultEEXadL_ZNS2_17on_write_completeES3_EES2_vNSt3__25tupleIJS3_EEEE4withEPS2_ENKUlPvS3_E_cvPFvSB_S3_EEv
	.weak	_ZZN5fibre14MemberCallbackIMNS_26AsyncStreamSinkMultiplexerILj2EEEFvNS_11WriteResultEEXadL_ZNS2_17on_write_completeES3_EES2_vNSt3__25tupleIJS3_EEEE4withEPS2_ENKUlPvS3_E_cvPFvSB_S3_EEv
	.p2align	2
	.type	_ZZN5fibre14MemberCallbackIMNS_26AsyncStreamSinkMultiplexerILj2EEEFvNS_11WriteResultEEXadL_ZNS2_17on_write_completeES3_EES2_vNSt3__25tupleIJS3_EEEE4withEPS2_ENKUlPvS3_E_cvPFvSB_S3_EEv,%function
	.code	16                              @ @_ZZN5fibre14MemberCallbackIMNS_26AsyncStreamSinkMultiplexerILj2EEEFvNS_11WriteResultEEXadL_ZNS2_17on_write_completeES3_EES2_vNSt3__25tupleIJS3_EEEE4withEPS2_ENKUlPvS3_E_cvPFvSB_S3_EEv
	.thumb_func
_ZZN5fibre14MemberCallbackIMNS_26AsyncStreamSinkMultiplexerILj2EEEFvNS_11WriteResultEEXadL_ZNS2_17on_write_completeES3_EES2_vNSt3__25tupleIJS3_EEEE4withEPS2_ENKUlPvS3_E_cvPFvSB_S3_EEv:
.Lfunc_begin79:
	.loc	9 105 0 is_stmt 1               @ ../fibre-cpp/include\fibre/callback.hpp:105:0
	.fnstart
	.cfi_startproc
@ %bb.0:
	.pad	#4
	sub	sp, #4
	.cfi_def_cfa_offset 4
	str	r0, [sp]
.Ltmp287:
	.loc	9 105 21 prologue_end           @ ../fibre-cpp/include\fibre/callback.hpp:105:21
	movw	r0, :lower16:_ZZN5fibre14MemberCallbackIMNS_26AsyncStreamSinkMultiplexerILj2EEEFvNS_11WriteResultEEXadL_ZNS2_17on_write_completeES3_EES2_vNSt3__25tupleIJS3_EEEE4withEPS2_ENUlPvS3_E_8__invokeESB_S3_
	movt	r0, :upper16:_ZZN5fibre14MemberCallbackIMNS_26AsyncStreamSinkMultiplexerILj2EEEFvNS_11WriteResultEEXadL_ZNS2_17on_write_completeES3_EES2_vNSt3__25tupleIJS3_EEEE4withEPS2_ENUlPvS3_E_8__invokeESB_S3_
	.loc	9 105 21 epilogue_begin is_stmt 0 @ ../fibre-cpp/include\fibre/callback.hpp:105:21
	add	sp, #4
	bx	lr
.Ltmp288:
.Lfunc_end79:
	.size	_ZZN5fibre14MemberCallbackIMNS_26AsyncStreamSinkMultiplexerILj2EEEFvNS_11WriteResultEEXadL_ZNS2_17on_write_completeES3_EES2_vNSt3__25tupleIJS3_EEEE4withEPS2_ENKUlPvS3_E_cvPFvSB_S3_EEv, .Lfunc_end79-_ZZN5fibre14MemberCallbackIMNS_26AsyncStreamSinkMultiplexerILj2EEEFvNS_11WriteResultEEXadL_ZNS2_17on_write_completeES3_EES2_vNSt3__25tupleIJS3_EEEE4withEPS2_ENKUlPvS3_E_cvPFvSB_S3_EEv
	.cfi_endproc
	.cantunwind
	.fnend
                                        @ -- End function
	.section	.text._ZZN5fibre14MemberCallbackIMNS_26AsyncStreamSinkMultiplexerILj2EEEFvNS_11WriteResultEEXadL_ZNS2_17on_write_completeES3_EES2_vNSt3__25tupleIJS3_EEEE4withEPS2_ENUlPvS3_E_8__invokeESB_S3_,"axG",%progbits,_ZZN5fibre14MemberCallbackIMNS_26AsyncStreamSinkMultiplexerILj2EEEFvNS_11WriteResultEEXadL_ZNS2_17on_write_completeES3_EES2_vNSt3__25tupleIJS3_EEEE4withEPS2_ENUlPvS3_E_8__invokeESB_S3_,comdat
	.hidden	_ZZN5fibre14MemberCallbackIMNS_26AsyncStreamSinkMultiplexerILj2EEEFvNS_11WriteResultEEXadL_ZNS2_17on_write_completeES3_EES2_vNSt3__25tupleIJS3_EEEE4withEPS2_ENUlPvS3_E_8__invokeESB_S3_ @ -- Begin function _ZZN5fibre14MemberCallbackIMNS_26AsyncStreamSinkMultiplexerILj2EEEFvNS_11WriteResultEEXadL_ZNS2_17on_write_completeES3_EES2_vNSt3__25tupleIJS3_EEEE4withEPS2_ENUlPvS3_E_8__invokeESB_S3_
	.weak	_ZZN5fibre14MemberCallbackIMNS_26AsyncStreamSinkMultiplexerILj2EEEFvNS_11WriteResultEEXadL_ZNS2_17on_write_completeES3_EES2_vNSt3__25tupleIJS3_EEEE4withEPS2_ENUlPvS3_E_8__invokeESB_S3_
	.p2align	2
	.type	_ZZN5fibre14MemberCallbackIMNS_26AsyncStreamSinkMultiplexerILj2EEEFvNS_11WriteResultEEXadL_ZNS2_17on_write_completeES3_EES2_vNSt3__25tupleIJS3_EEEE4withEPS2_ENUlPvS3_E_8__invokeESB_S3_,%function
	.code	16                              @ @_ZZN5fibre14MemberCallbackIMNS_26AsyncStreamSinkMultiplexerILj2EEEFvNS_11WriteResultEEXadL_ZNS2_17on_write_completeES3_EES2_vNSt3__25tupleIJS3_EEEE4withEPS2_ENUlPvS3_E_8__invokeESB_S3_
	.thumb_func
_ZZN5fibre14MemberCallbackIMNS_26AsyncStreamSinkMultiplexerILj2EEEFvNS_11WriteResultEEXadL_ZNS2_17on_write_completeES3_EES2_vNSt3__25tupleIJS3_EEEE4withEPS2_ENUlPvS3_E_8__invokeESB_S3_:
.Lfunc_begin80:
	.loc	9 105 0 is_stmt 1               @ ../fibre-cpp/include\fibre/callback.hpp:105:0
	.fnstart
	.cfi_startproc
@ %bb.0:
	.save	{r7, lr}
	push	{r7, lr}
	.cfi_def_cfa_offset 8
	.cfi_offset lr, -4
	.cfi_offset r7, -8
	.pad	#16
	sub	sp, #16
	.cfi_def_cfa_offset 24
                                        @ kill: def $r3 killed $r2
                                        @ kill: def $r3 killed $r1
	str	r2, [sp, #12]
	str	r1, [sp, #8]
	str	r0, [sp, #4]
.Ltmp289:
	.loc	9 105 21 prologue_end           @ ../fibre-cpp/include\fibre/callback.hpp:105:21
	ldr	r1, [sp, #4]
	ldr	r2, [sp, #8]
	ldr	r3, [sp, #12]
	add.w	r0, sp, #3
	bl	_ZZN5fibre14MemberCallbackIMNS_26AsyncStreamSinkMultiplexerILj2EEEFvNS_11WriteResultEEXadL_ZNS2_17on_write_completeES3_EES2_vNSt3__25tupleIJS3_EEEE4withEPS2_ENKUlPvS3_E_clESB_S3_
	.loc	9 105 21 epilogue_begin is_stmt 0 @ ../fibre-cpp/include\fibre/callback.hpp:105:21
	add	sp, #16
	pop	{r7, pc}
.Ltmp290:
.Lfunc_end80:
	.size	_ZZN5fibre14MemberCallbackIMNS_26AsyncStreamSinkMultiplexerILj2EEEFvNS_11WriteResultEEXadL_ZNS2_17on_write_completeES3_EES2_vNSt3__25tupleIJS3_EEEE4withEPS2_ENUlPvS3_E_8__invokeESB_S3_, .Lfunc_end80-_ZZN5fibre14MemberCallbackIMNS_26AsyncStreamSinkMultiplexerILj2EEEFvNS_11WriteResultEEXadL_ZNS2_17on_write_completeES3_EES2_vNSt3__25tupleIJS3_EEEE4withEPS2_ENUlPvS3_E_8__invokeESB_S3_
	.cfi_endproc
	.cantunwind
	.fnend
                                        @ -- End function
	.section	.text._ZZN5fibre14MemberCallbackIMNS_26AsyncStreamSinkMultiplexerILj2EEEFvNS_11WriteResultEEXadL_ZNS2_17on_write_completeES3_EES2_vNSt3__25tupleIJS3_EEEE4withEPS2_ENKUlPvS3_E_clESB_S3_,"axG",%progbits,_ZZN5fibre14MemberCallbackIMNS_26AsyncStreamSinkMultiplexerILj2EEEFvNS_11WriteResultEEXadL_ZNS2_17on_write_completeES3_EES2_vNSt3__25tupleIJS3_EEEE4withEPS2_ENKUlPvS3_E_clESB_S3_,comdat
	.hidden	_ZZN5fibre14MemberCallbackIMNS_26AsyncStreamSinkMultiplexerILj2EEEFvNS_11WriteResultEEXadL_ZNS2_17on_write_completeES3_EES2_vNSt3__25tupleIJS3_EEEE4withEPS2_ENKUlPvS3_E_clESB_S3_ @ -- Begin function _ZZN5fibre14MemberCallbackIMNS_26AsyncStreamSinkMultiplexerILj2EEEFvNS_11WriteResultEEXadL_ZNS2_17on_write_completeES3_EES2_vNSt3__25tupleIJS3_EEEE4withEPS2_ENKUlPvS3_E_clESB_S3_
	.weak	_ZZN5fibre14MemberCallbackIMNS_26AsyncStreamSinkMultiplexerILj2EEEFvNS_11WriteResultEEXadL_ZNS2_17on_write_completeES3_EES2_vNSt3__25tupleIJS3_EEEE4withEPS2_ENKUlPvS3_E_clESB_S3_
	.p2align	2
	.type	_ZZN5fibre14MemberCallbackIMNS_26AsyncStreamSinkMultiplexerILj2EEEFvNS_11WriteResultEEXadL_ZNS2_17on_write_completeES3_EES2_vNSt3__25tupleIJS3_EEEE4withEPS2_ENKUlPvS3_E_clESB_S3_,%function
	.code	16                              @ @_ZZN5fibre14MemberCallbackIMNS_26AsyncStreamSinkMultiplexerILj2EEEFvNS_11WriteResultEEXadL_ZNS2_17on_write_completeES3_EES2_vNSt3__25tupleIJS3_EEEE4withEPS2_ENKUlPvS3_E_clESB_S3_
	.thumb_func
_ZZN5fibre14MemberCallbackIMNS_26AsyncStreamSinkMultiplexerILj2EEEFvNS_11WriteResultEEXadL_ZNS2_17on_write_completeES3_EES2_vNSt3__25tupleIJS3_EEEE4withEPS2_ENKUlPvS3_E_clESB_S3_:
.Lfunc_begin81:
	.loc	9 105 0 is_stmt 1               @ ../fibre-cpp/include\fibre/callback.hpp:105:0
	.fnstart
	.cfi_startproc
@ %bb.0:
	.save	{r7, lr}
	push	{r7, lr}
	.cfi_def_cfa_offset 8
	.cfi_offset lr, -4
	.cfi_offset r7, -8
	.pad	#32
	sub	sp, #32
	.cfi_def_cfa_offset 40
                                        @ kill: def $r12 killed $r3
                                        @ kill: def $r12 killed $r2
	str	r3, [sp, #28]
	str	r2, [sp, #24]
	str	r0, [sp, #20]
	str	r1, [sp, #16]
.Ltmp291:
	.loc	9 106 29 prologue_end           @ ../fibre-cpp/include\fibre/callback.hpp:106:29
	ldr	r0, [sp, #16]
	str	r0, [sp, #4]                    @ 4-byte Spill
	movs	r0, #1
	.loc	9 106 20 is_stmt 0              @ ../fibre-cpp/include\fibre/callback.hpp:106:20
	cbnz	r0, .LBB81_2
	b	.LBB81_1
.LBB81_1:
	ldr	r0, [sp, #4]                    @ 4-byte Reload
	ldr	r0, [r0]
	movw	r1, :lower16:_ZN5fibre26AsyncStreamSinkMultiplexerILj2EE17on_write_completeENS_11WriteResultE
	movt	r1, :upper16:_ZN5fibre26AsyncStreamSinkMultiplexerILj2EE17on_write_completeENS_11WriteResultE
	ldr	r0, [r0, r1]
	str	r0, [sp]                        @ 4-byte Spill
	b	.LBB81_3
.LBB81_2:
	.loc	9 0 20                          @ ../fibre-cpp/include\fibre/callback.hpp:0:20
	movw	r0, :lower16:_ZN5fibre26AsyncStreamSinkMultiplexerILj2EE17on_write_completeENS_11WriteResultE
	movt	r0, :upper16:_ZN5fibre26AsyncStreamSinkMultiplexerILj2EE17on_write_completeENS_11WriteResultE
	.loc	9 106 20                        @ ../fibre-cpp/include\fibre/callback.hpp:106:20
	str	r0, [sp]                        @ 4-byte Spill
	b	.LBB81_3
.LBB81_3:
	ldr	r0, [sp, #4]                    @ 4-byte Reload
	ldr	r3, [sp]                        @ 4-byte Reload
	.loc	9 106 42                        @ ../fibre-cpp/include\fibre/callback.hpp:106:42
	ldr	r1, [sp, #24]
	ldr	r2, [sp, #28]
	str	r2, [sp, #12]
	str	r1, [sp, #8]
	.loc	9 106 20                        @ ../fibre-cpp/include\fibre/callback.hpp:106:20
	ldr	r1, [sp, #8]
	ldr	r2, [sp, #12]
	blx	r3
	.loc	9 106 13 epilogue_begin         @ ../fibre-cpp/include\fibre/callback.hpp:106:13
	add	sp, #32
	pop	{r7, pc}
.Ltmp292:
.Lfunc_end81:
	.size	_ZZN5fibre14MemberCallbackIMNS_26AsyncStreamSinkMultiplexerILj2EEEFvNS_11WriteResultEEXadL_ZNS2_17on_write_completeES3_EES2_vNSt3__25tupleIJS3_EEEE4withEPS2_ENKUlPvS3_E_clESB_S3_, .Lfunc_end81-_ZZN5fibre14MemberCallbackIMNS_26AsyncStreamSinkMultiplexerILj2EEEFvNS_11WriteResultEEXadL_ZNS2_17on_write_completeES3_EES2_vNSt3__25tupleIJS3_EEEE4withEPS2_ENKUlPvS3_E_clESB_S3_
	.cfi_endproc
	.cantunwind
	.fnend
                                        @ -- End function
	.section	.text._GLOBAL__sub_I_interface_usb.cpp,"ax",%progbits
	.p2align	2                               @ -- Begin function _GLOBAL__sub_I_interface_usb.cpp
	.type	_GLOBAL__sub_I_interface_usb.cpp,%function
	.code	16                              @ @_GLOBAL__sub_I_interface_usb.cpp
	.thumb_func
_GLOBAL__sub_I_interface_usb.cpp:
.Lfunc_begin82:
	.loc	17 0 0 is_stmt 1                @ ../communication\interface_usb.cpp:0:0
	.fnstart
	.cfi_startproc
@ %bb.0:
	.save	{r7, lr}
	push	{r7, lr}
	.cfi_def_cfa_offset 8
	.cfi_offset lr, -4
	.cfi_offset r7, -8
.Ltmp293:
	bl	__cxx_global_var_init
	bl	__cxx_global_var_init.1
	bl	__cxx_global_var_init.2
	bl	__cxx_global_var_init.3
	bl	__cxx_global_var_init.4
	bl	__cxx_global_var_init.5
	bl	__cxx_global_var_init.6
	bl	__cxx_global_var_init.7
	bl	__cxx_global_var_init.8
	pop	{r7, pc}
.Ltmp294:
.Lfunc_end82:
	.size	_GLOBAL__sub_I_interface_usb.cpp, .Lfunc_end82-_GLOBAL__sub_I_interface_usb.cpp
	.cfi_endproc
	.cantunwind
	.fnend
                                        @ -- End function
	.hidden	usb_thread                      @ @usb_thread
	.type	usb_thread,%object
	.section	.bss.usb_thread,"aw",%nobits
	.globl	usb_thread
	.p2align	2, 0x0
usb_thread:
	.long	0
	.size	usb_thread, 4

	.hidden	stack_size_usb_thread           @ @stack_size_usb_thread
	.type	stack_size_usb_thread,%object
	.section	.rodata.stack_size_usb_thread,"a",%progbits
	.globl	stack_size_usb_thread
	.p2align	2, 0x0
stack_size_usb_thread:
	.long	4096                            @ 0x1000
	.size	stack_size_usb_thread, 4

	.hidden	usb_stats_                      @ @usb_stats_
	.type	usb_stats_,%object
	.section	.bss.usb_stats_,"aw",%nobits
	.globl	usb_stats_
	.p2align	2, 0x0
usb_stats_:
	.zero	12
	.size	usb_stats_, 12

	.hidden	usb_cdc_tx_stream               @ @usb_cdc_tx_stream
	.type	usb_cdc_tx_stream,%object
	.section	.bss.usb_cdc_tx_stream,"aw",%nobits
	.globl	usb_cdc_tx_stream
	.p2align	2, 0x0
usb_cdc_tx_stream:
	.zero	20
	.size	usb_cdc_tx_stream, 20

	.hidden	usb_native_tx_stream            @ @usb_native_tx_stream
	.type	usb_native_tx_stream,%object
	.section	.bss.usb_native_tx_stream,"aw",%nobits
	.globl	usb_native_tx_stream
	.p2align	2, 0x0
usb_native_tx_stream:
	.zero	20
	.size	usb_native_tx_stream, 20

	.hidden	usb_cdc_rx_stream               @ @usb_cdc_rx_stream
	.type	usb_cdc_rx_stream,%object
	.section	.bss.usb_cdc_rx_stream,"aw",%nobits
	.globl	usb_cdc_rx_stream
	.p2align	2, 0x0
usb_cdc_rx_stream:
	.zero	20
	.size	usb_cdc_rx_stream, 20

	.hidden	usb_native_rx_stream            @ @usb_native_rx_stream
	.type	usb_native_rx_stream,%object
	.section	.bss.usb_native_rx_stream,"aw",%nobits
	.globl	usb_native_rx_stream
	.p2align	2, 0x0
usb_native_rx_stream:
	.zero	20
	.size	usb_native_rx_stream, 20

	.hidden	fibre_over_cdc                  @ @fibre_over_cdc
	.type	fibre_over_cdc,%object
	.section	.bss.fibre_over_cdc,"aw",%nobits
	.globl	fibre_over_cdc
	.p2align	2, 0x0
fibre_over_cdc:
	.zero	376
	.size	fibre_over_cdc, 376

	.hidden	fibre_over_usb                  @ @fibre_over_usb
	.type	fibre_over_usb,%object
	.section	.bss.fibre_over_usb,"aw",%nobits
	.globl	fibre_over_usb
	.p2align	2, 0x0
fibre_over_usb:
	.zero	288
	.size	fibre_over_usb, 288

	.hidden	usb_cdc_tx_multiplexer          @ @usb_cdc_tx_multiplexer
	.type	usb_cdc_tx_multiplexer,%object
	.section	.bss.usb_cdc_tx_multiplexer,"aw",%nobits
	.globl	usb_cdc_tx_multiplexer
	.p2align	2, 0x0
usb_cdc_tx_multiplexer:
	.zero	56
	.size	usb_cdc_tx_multiplexer, 56

	.hidden	usb_cdc_stdout_sink             @ @usb_cdc_stdout_sink
	.type	usb_cdc_stdout_sink,%object
	.section	.bss.usb_cdc_stdout_sink,"aw",%nobits
	.globl	usb_cdc_stdout_sink
	.p2align	2, 0x0
usb_cdc_stdout_sink:
	.zero	84
	.size	usb_cdc_stdout_sink, 84

	.hidden	ascii_over_cdc                  @ @ascii_over_cdc
	.type	ascii_over_cdc,%object
	.section	.bss.ascii_over_cdc,"aw",%nobits
	.globl	ascii_over_cdc
	.p2align	2, 0x0
ascii_over_cdc:
	.zero	800
	.size	ascii_over_cdc, 800

	.hidden	usb_cdc_stdout_pending          @ @usb_cdc_stdout_pending
	.type	usb_cdc_stdout_pending,%object
	.section	.bss.usb_cdc_stdout_pending,"aw",%nobits
	.globl	usb_cdc_stdout_pending
usb_cdc_stdout_pending:
	.byte	0                               @ 0x0
	.size	usb_cdc_stdout_pending, 1

	.type	.L.str,%object                  @ @.str
	.section	.rodata.str1.1,"aMS",%progbits,1
.L.str:
	.asciz	"usb_server_thread_def"
	.size	.L.str, 22

	.type	.L__const.start_usb_server.os_thread_def_usb_server_thread_def,%object @ @__const.start_usb_server.os_thread_def_usb_server_thread_def
	.section	.rodata..L__const.start_usb_server.os_thread_def_usb_server_thread_def,"a",%progbits
	.p2align	2, 0x0
.L__const.start_usb_server.os_thread_def_usb_server_thread_def:
	.long	.L.str
	.long	_ZL17usb_server_threadPv
	.short	0                               @ 0x0
	.zero	2
	.long	0                               @ 0x0
	.long	1024                            @ 0x400
	.size	.L__const.start_usb_server.os_thread_def_usb_server_thread_def, 20

	.hidden	_ZTVN5fibre16Stm32UsbTxStreamE  @ @_ZTVN5fibre16Stm32UsbTxStreamE
	.type	_ZTVN5fibre16Stm32UsbTxStreamE,%object
	.section	.rodata._ZTVN5fibre16Stm32UsbTxStreamE,"a",%progbits
	.globl	_ZTVN5fibre16Stm32UsbTxStreamE
	.p2align	2, 0x0
_ZTVN5fibre16Stm32UsbTxStreamE:
	.long	0
	.long	_ZTIN5fibre16Stm32UsbTxStreamE
	.long	_ZN5fibre16Stm32UsbTxStream11start_writeENS_16generic_bufptr_tIKhEEPjNS_8CallbackIvJNS_11WriteResultEEEE
	.long	_ZN5fibre16Stm32UsbTxStream12cancel_writeEj
	.size	_ZTVN5fibre16Stm32UsbTxStreamE, 16

	.hidden	_ZTSN5fibre16Stm32UsbTxStreamE  @ @_ZTSN5fibre16Stm32UsbTxStreamE
	.type	_ZTSN5fibre16Stm32UsbTxStreamE,%object
	.section	.rodata._ZTSN5fibre16Stm32UsbTxStreamE,"a",%progbits
	.globl	_ZTSN5fibre16Stm32UsbTxStreamE
_ZTSN5fibre16Stm32UsbTxStreamE:
	.asciz	"N5fibre16Stm32UsbTxStreamE"
	.size	_ZTSN5fibre16Stm32UsbTxStreamE, 27

	.hidden	_ZTSN5fibre15AsyncStreamSinkE   @ @_ZTSN5fibre15AsyncStreamSinkE
	.type	_ZTSN5fibre15AsyncStreamSinkE,%object
	.section	.rodata._ZTSN5fibre15AsyncStreamSinkE,"aG",%progbits,_ZTSN5fibre15AsyncStreamSinkE,comdat
	.weak	_ZTSN5fibre15AsyncStreamSinkE
_ZTSN5fibre15AsyncStreamSinkE:
	.asciz	"N5fibre15AsyncStreamSinkE"
	.size	_ZTSN5fibre15AsyncStreamSinkE, 26

	.hidden	_ZTIN5fibre15AsyncStreamSinkE   @ @_ZTIN5fibre15AsyncStreamSinkE
	.type	_ZTIN5fibre15AsyncStreamSinkE,%object
	.section	.rodata._ZTIN5fibre15AsyncStreamSinkE,"aG",%progbits,_ZTIN5fibre15AsyncStreamSinkE,comdat
	.weak	_ZTIN5fibre15AsyncStreamSinkE
	.p2align	2, 0x0
_ZTIN5fibre15AsyncStreamSinkE:
	.long	_ZTVN10__cxxabiv117__class_type_infoE+8
	.long	_ZTSN5fibre15AsyncStreamSinkE
	.size	_ZTIN5fibre15AsyncStreamSinkE, 8

	.hidden	_ZTIN5fibre16Stm32UsbTxStreamE  @ @_ZTIN5fibre16Stm32UsbTxStreamE
	.type	_ZTIN5fibre16Stm32UsbTxStreamE,%object
	.section	.rodata._ZTIN5fibre16Stm32UsbTxStreamE,"a",%progbits
	.globl	_ZTIN5fibre16Stm32UsbTxStreamE
	.p2align	2, 0x0
_ZTIN5fibre16Stm32UsbTxStreamE:
	.long	_ZTVN10__cxxabiv120__si_class_type_infoE+8
	.long	_ZTSN5fibre16Stm32UsbTxStreamE
	.long	_ZTIN5fibre15AsyncStreamSinkE
	.size	_ZTIN5fibre16Stm32UsbTxStreamE, 12

	.hidden	_ZTVN5fibre16Stm32UsbRxStreamE  @ @_ZTVN5fibre16Stm32UsbRxStreamE
	.type	_ZTVN5fibre16Stm32UsbRxStreamE,%object
	.section	.rodata._ZTVN5fibre16Stm32UsbRxStreamE,"a",%progbits
	.globl	_ZTVN5fibre16Stm32UsbRxStreamE
	.p2align	2, 0x0
_ZTVN5fibre16Stm32UsbRxStreamE:
	.long	0
	.long	_ZTIN5fibre16Stm32UsbRxStreamE
	.long	_ZN5fibre16Stm32UsbRxStream10start_readENS_16generic_bufptr_tIhEEPjNS_8CallbackIvJNS_10ReadResultEEEE
	.long	_ZN5fibre16Stm32UsbRxStream11cancel_readEj
	.size	_ZTVN5fibre16Stm32UsbRxStreamE, 16

	.hidden	_ZTSN5fibre16Stm32UsbRxStreamE  @ @_ZTSN5fibre16Stm32UsbRxStreamE
	.type	_ZTSN5fibre16Stm32UsbRxStreamE,%object
	.section	.rodata._ZTSN5fibre16Stm32UsbRxStreamE,"a",%progbits
	.globl	_ZTSN5fibre16Stm32UsbRxStreamE
_ZTSN5fibre16Stm32UsbRxStreamE:
	.asciz	"N5fibre16Stm32UsbRxStreamE"
	.size	_ZTSN5fibre16Stm32UsbRxStreamE, 27

	.hidden	_ZTSN5fibre17AsyncStreamSourceE @ @_ZTSN5fibre17AsyncStreamSourceE
	.type	_ZTSN5fibre17AsyncStreamSourceE,%object
	.section	.rodata._ZTSN5fibre17AsyncStreamSourceE,"aG",%progbits,_ZTSN5fibre17AsyncStreamSourceE,comdat
	.weak	_ZTSN5fibre17AsyncStreamSourceE
_ZTSN5fibre17AsyncStreamSourceE:
	.asciz	"N5fibre17AsyncStreamSourceE"
	.size	_ZTSN5fibre17AsyncStreamSourceE, 28

	.hidden	_ZTIN5fibre17AsyncStreamSourceE @ @_ZTIN5fibre17AsyncStreamSourceE
	.type	_ZTIN5fibre17AsyncStreamSourceE,%object
	.section	.rodata._ZTIN5fibre17AsyncStreamSourceE,"aG",%progbits,_ZTIN5fibre17AsyncStreamSourceE,comdat
	.weak	_ZTIN5fibre17AsyncStreamSourceE
	.p2align	2, 0x0
_ZTIN5fibre17AsyncStreamSourceE:
	.long	_ZTVN10__cxxabiv117__class_type_infoE+8
	.long	_ZTSN5fibre17AsyncStreamSourceE
	.size	_ZTIN5fibre17AsyncStreamSourceE, 8

	.hidden	_ZTIN5fibre16Stm32UsbRxStreamE  @ @_ZTIN5fibre16Stm32UsbRxStreamE
	.type	_ZTIN5fibre16Stm32UsbRxStreamE,%object
	.section	.rodata._ZTIN5fibre16Stm32UsbRxStreamE,"a",%progbits
	.globl	_ZTIN5fibre16Stm32UsbRxStreamE
	.p2align	2, 0x0
_ZTIN5fibre16Stm32UsbRxStreamE:
	.long	_ZTVN10__cxxabiv120__si_class_type_infoE+8
	.long	_ZTSN5fibre16Stm32UsbRxStreamE
	.long	_ZTIN5fibre17AsyncStreamSourceE
	.size	_ZTIN5fibre16Stm32UsbRxStreamE, 12

	.hidden	_ZTVN5fibre15AsyncStreamSinkE   @ @_ZTVN5fibre15AsyncStreamSinkE
	.type	_ZTVN5fibre15AsyncStreamSinkE,%object
	.section	.rodata._ZTVN5fibre15AsyncStreamSinkE,"aG",%progbits,_ZTVN5fibre15AsyncStreamSinkE,comdat
	.weak	_ZTVN5fibre15AsyncStreamSinkE
	.p2align	2, 0x0
_ZTVN5fibre15AsyncStreamSinkE:
	.long	0
	.long	_ZTIN5fibre15AsyncStreamSinkE
	.long	__cxa_pure_virtual
	.long	__cxa_pure_virtual
	.size	_ZTVN5fibre15AsyncStreamSinkE, 16

	.hidden	_ZTVN5fibre17AsyncStreamSourceE @ @_ZTVN5fibre17AsyncStreamSourceE
	.type	_ZTVN5fibre17AsyncStreamSourceE,%object
	.section	.rodata._ZTVN5fibre17AsyncStreamSourceE,"aG",%progbits,_ZTVN5fibre17AsyncStreamSourceE,comdat
	.weak	_ZTVN5fibre17AsyncStreamSourceE
	.p2align	2, 0x0
_ZTVN5fibre17AsyncStreamSourceE:
	.long	0
	.long	_ZTIN5fibre17AsyncStreamSourceE
	.long	__cxa_pure_virtual
	.long	__cxa_pure_virtual
	.size	_ZTVN5fibre17AsyncStreamSourceE, 16

	.hidden	_ZTVN5fibre26AsyncStreamSinkMultiplexerILj2EEE @ @_ZTVN5fibre26AsyncStreamSinkMultiplexerILj2EEE
	.type	_ZTVN5fibre26AsyncStreamSinkMultiplexerILj2EEE,%object
	.section	.rodata._ZTVN5fibre26AsyncStreamSinkMultiplexerILj2EEE,"aG",%progbits,_ZTVN5fibre26AsyncStreamSinkMultiplexerILj2EEE,comdat
	.weak	_ZTVN5fibre26AsyncStreamSinkMultiplexerILj2EEE
	.p2align	2, 0x0
_ZTVN5fibre26AsyncStreamSinkMultiplexerILj2EEE:
	.long	0
	.long	_ZTIN5fibre26AsyncStreamSinkMultiplexerILj2EEE
	.long	_ZN5fibre26AsyncStreamSinkMultiplexerILj2EE11start_writeENS_16generic_bufptr_tIKhEEPjNS_8CallbackIvJNS_11WriteResultEEEE
	.long	_ZN5fibre26AsyncStreamSinkMultiplexerILj2EE12cancel_writeEj
	.size	_ZTVN5fibre26AsyncStreamSinkMultiplexerILj2EEE, 16

	.hidden	_ZTSN5fibre26AsyncStreamSinkMultiplexerILj2EEE @ @_ZTSN5fibre26AsyncStreamSinkMultiplexerILj2EEE
	.type	_ZTSN5fibre26AsyncStreamSinkMultiplexerILj2EEE,%object
	.section	.rodata._ZTSN5fibre26AsyncStreamSinkMultiplexerILj2EEE,"aG",%progbits,_ZTSN5fibre26AsyncStreamSinkMultiplexerILj2EEE,comdat
	.weak	_ZTSN5fibre26AsyncStreamSinkMultiplexerILj2EEE
_ZTSN5fibre26AsyncStreamSinkMultiplexerILj2EEE:
	.asciz	"N5fibre26AsyncStreamSinkMultiplexerILj2EEE"
	.size	_ZTSN5fibre26AsyncStreamSinkMultiplexerILj2EEE, 43

	.hidden	_ZTIN5fibre26AsyncStreamSinkMultiplexerILj2EEE @ @_ZTIN5fibre26AsyncStreamSinkMultiplexerILj2EEE
	.type	_ZTIN5fibre26AsyncStreamSinkMultiplexerILj2EEE,%object
	.section	.rodata._ZTIN5fibre26AsyncStreamSinkMultiplexerILj2EEE,"aG",%progbits,_ZTIN5fibre26AsyncStreamSinkMultiplexerILj2EEE,comdat
	.weak	_ZTIN5fibre26AsyncStreamSinkMultiplexerILj2EEE
	.p2align	2, 0x0
_ZTIN5fibre26AsyncStreamSinkMultiplexerILj2EEE:
	.long	_ZTVN10__cxxabiv120__si_class_type_infoE+8
	.long	_ZTSN5fibre26AsyncStreamSinkMultiplexerILj2EEE
	.long	_ZTIN5fibre15AsyncStreamSinkE
	.size	_ZTIN5fibre26AsyncStreamSinkMultiplexerILj2EEE, 12

	.section	.init_array,"aw",%init_array
	.p2align	2, 0x0
	.long	_GLOBAL__sub_I_interface_usb.cpp(target1)
	.file	20 "D:\\Embed\\MDK\\MDK\\ARM\\ARMCompilerV621\\Bin\\..\\include" "stddef.h"
	.file	21 "D:\\Embed\\MDK\\MDK\\ARM\\ARMCompilerV621\\Bin\\..\\include" "stdlib.h"
	.file	22 "D:\\Embed\\MDK\\MDK\\ARM\\ARMCompilerV621\\Bin\\..\\include\\libcxx" "cstddef"
	.file	23 "D:\\Embed\\MDK\\MDK\\ARM\\ARMCompilerV621\\Bin\\..\\include\\libcxx" "cstdint"
	.file	24 "D:\\Embed\\MDK\\MDK\\ARM\\ARMCompilerV621\\Bin\\..\\include\\libcxx" "cstdlib"
	.file	25 "D:\\Embed\\MDK\\MDK\\ARM\\ARMCompilerV621\\Bin\\..\\include\\libcxx" "stdlib.h"
	.file	26 "D:\\Embed\\MDK\\MDK\\ARM\\ARMCompilerV621\\Bin\\..\\include" "ctype.h"
	.file	27 "D:\\Embed\\MDK\\MDK\\ARM\\ARMCompilerV621\\Bin\\..\\include\\libcxx" "cctype"
	.file	28 "D:\\Embed\\MDK\\MDK\\ARM\\ARMCompilerV621\\Bin\\..\\include" "wctype.h"
	.file	29 "D:\\Embed\\MDK\\MDK\\ARM\\ARMCompilerV621\\Bin\\..\\include\\libcxx" "cwctype"
	.file	30 "D:\\Embed\\MDK\\MDK\\ARM\\ARMCompilerV621\\Bin\\..\\include" "wchar.h"
	.file	31 "D:\\Embed\\MDK\\MDK\\ARM\\ARMCompilerV621\\Bin\\..\\include\\libcxx" "cwchar"
	.file	32 "D:\\Embed\\MDK\\MDK\\ARM\\ARMCompilerV621\\Bin\\..\\include\\libcxx" "wchar.h"
	.file	33 "D:\\Embed\\MDK\\MDK\\ARM\\ARMCompilerV621\\Bin\\..\\include" "string.h"
	.file	34 "D:\\Embed\\MDK\\MDK\\ARM\\ARMCompilerV621\\Bin\\..\\include\\libcxx" "cstring"
	.file	35 "D:\\Embed\\MDK\\MDK\\ARM\\ARMCompilerV621\\Bin\\..\\include\\libcxx" "string.h"
	.file	36 "D:\\Embed\\MDK\\MDK\\ARM\\ARMCompilerV621\\Bin\\..\\include\\libcxx" "__std_mbstate_t.h"
	.file	37 "D:\\Embed\\MDK\\MDK\\ARM\\ARMCompilerV621\\Bin\\..\\include" "stdio.h"
	.file	38 "D:\\Embed\\MDK\\MDK\\ARM\\ARMCompilerV621\\Bin\\..\\include\\libcxx" "cstdio"
	.file	39 "D:\\Embed\\MDK\\MDK\\ARM\\ARMCompilerV621\\Bin\\..\\include" "math.h"
	.file	40 "D:\\Embed\\MDK\\MDK\\ARM\\ARMCompilerV621\\Bin\\..\\include\\libcxx\\__math" "traits.h"
	.file	41 "D:\\Embed\\MDK\\MDK\\ARM\\ARMCompilerV621\\Bin\\..\\include\\libcxx" "math.h"
	.file	42 "D:\\Embed\\MDK\\MDK\\ARM\\ARMCompilerV621\\Bin\\..\\include\\libcxx\\__math" "modulo.h"
	.file	43 "D:\\Embed\\MDK\\MDK\\ARM\\ARMCompilerV621\\Bin\\..\\include\\libcxx" "cmath"
	.file	44 "D:\\Embed\\MDK\\MDK\\ARM\\ARMCompilerV621\\Bin\\..\\include\\libcxx\\__chrono" "duration.h"
	.file	45 "D:\\Embed\\MDK\\MDK\\ARM\\ARMCompilerV621\\Bin\\..\\include\\libcxx" "ctime"
	.file	46 "D:\\Embed\\MDK\\MDK\\ARM\\ARMCompilerV621\\Bin\\..\\include" "errno.h"
	.file	47 "D:\\Embed\\MDK\\MDK\\ARM\\ARMCompilerV621\\Bin\\..\\include" "locale.h"
	.file	48 "D:\\Embed\\MDK\\MDK\\ARM\\ARMCompilerV621\\Bin\\..\\include\\libcxx" "clocale"
	.file	49 "D:\\Embed\\MDK\\MDK\\ARM\\ARMCompilerV621\\Bin\\..\\include" "stdarg.h"
	.file	50 "D:\\Embed\\MDK\\MDK\\ARM\\ARMCompilerV621\\Bin\\..\\include\\libcxx" "cstdarg"
	.file	51 "<stdin>"
	.file	52 "D:\\ikingtec\\Robot\\ODrive\\Firmware\\MDK-ARM" "../ThirdParty/FreeRTOS/Source/include\\queue.h"