	.text
	.syntax unified
	.eabi_attribute	67, "2.09"	@ Tag_conformance
	.cpu	cortex-m4
	.eabi_attribute	6, 13	@ Tag_CPU_arch
	.eabi_attribute	7, 77	@ Tag_CPU_arch_profile
	.eabi_attribute	8, 0	@ Tag_ARM_ISA_use
	.eabi_attribute	9, 2	@ Tag_THUMB_ISA_use
	.fpu	fpv4-sp-d16
	.eabi_attribute	27, 1	@ Tag_ABI_HardFP_use
	.eabi_attribute	36, 1	@ Tag_FP_HP_extension
	.eabi_attribute	34, 1	@ Tag_CPU_unaligned_access
	.eabi_attribute	17, 1	@ Tag_ABI_PCS_GOT_use
	.eabi_attribute	20, 2	@ Tag_ABI_FP_denormal
	.eabi_attribute	21, 0	@ Tag_ABI_FP_exceptions
	.eabi_attribute	23, 1	@ Tag_ABI_FP_number_model
	.eabi_attribute	24, 1	@ Tag_ABI_align_needed
	.eabi_attribute	25, 1	@ Tag_ABI_align_preserved
	.eabi_attribute	28, 1	@ Tag_ABI_VFP_args
	.eabi_attribute	38, 1	@ Tag_ABI_FP_16bit_format
	.eabi_attribute	18, 2	@ Tag_ABI_PCS_wchar_t
	.eabi_attribute	26, 1	@ Tag_ABI_enum_size
	.eabi_attribute	14, 0	@ Tag_ABI_PCS_R9_use
	.file	"legacy_protocol.cpp"
	.file	1 "D:\\Embed\\MDK\\MDK\\ARM\\ARMCompilerV621\\Bin\\..\\include" "stdint.h"
	.file	2 "D:\\ikingtec\\Robot\\ODrive\\Firmware\\MDK-ARM" "../fibre-cpp/legacy_protocol.hpp"
	.file	3 "D:\\ikingtec\\Robot\\ODrive\\Firmware\\MDK-ARM" "../fibre-cpp/legacy_protocol.cpp"
	.file	4 "D:\\Embed\\MDK\\MDK\\ARM\\ARMCompilerV621\\Bin\\..\\include\\libcxx" "optional"
	.file	5 "D:\\Embed\\MDK\\MDK\\ARM\\ARMCompilerV621\\Bin\\..\\include\\libcxx\\__utility" "in_place.h"
	.file	6 "D:\\ikingtec\\Robot\\ODrive\\Firmware\\MDK-ARM" "../fibre-cpp/include\\fibre/async_stream.hpp"
	.file	7 "D:\\ikingtec\\Robot\\ODrive\\Firmware\\MDK-ARM" "../fibre-cpp/include\\fibre/bufptr.hpp"
	.file	8 "D:\\Embed\\MDK\\MDK\\ARM\\ARMCompilerV621\\Bin\\..\\include" "time.h"
	.file	9 "D:\\ikingtec\\Robot\\ODrive\\Firmware\\MDK-ARM" "../fibre-cpp/include\\fibre/callback.hpp"
	.file	10 "D:\\Embed\\MDK\\MDK\\ARM\\ARMCompilerV621\\Bin\\..\\include\\libcxx" "stddef.h"
	.file	11 "D:\\Embed\\MDK\\MDK\\ARM\\ARMCompilerV621\\Bin\\..\\include\\libcxx" "limits"
	.file	12 "D:\\Embed\\MDK\\MDK\\ARM\\ARMCompilerV621\\Bin\\..\\include\\libcxx\\__tuple" "sfinae_helpers.h"
	.file	13 "D:\\Embed\\MDK\\MDK\\ARM\\ARMCompilerV621\\Bin\\..\\include\\libcxx\\__type_traits" "add_pointer.h"
	.file	14 "D:\\ikingtec\\Robot\\ODrive\\Firmware\\MDK-ARM" "../fibre-cpp/include\\fibre/simple_serdes.hpp"
	.file	15 "D:\\ikingtec\\Robot\\ODrive\\Firmware\\MDK-ARM" "../fibre-cpp/print_utils.hpp"
	.file	16 "D:\\Embed\\MDK\\MDK\\ARM\\ARMCompilerV621\\Bin\\..\\include\\libcxx\\__fwd" "string.h"
	.section	.text._ZN5fibre13PacketWrapper11start_writeENS_16generic_bufptr_tIKhEEPjNS_8CallbackIvJNS_11WriteResultEEEE,"ax",%progbits
	.hidden	_ZN5fibre13PacketWrapper11start_writeENS_16generic_bufptr_tIKhEEPjNS_8CallbackIvJNS_11WriteResultEEEE @ -- Begin function _ZN5fibre13PacketWrapper11start_writeENS_16generic_bufptr_tIKhEEPjNS_8CallbackIvJNS_11WriteResultEEEE
	.globl	_ZN5fibre13PacketWrapper11start_writeENS_16generic_bufptr_tIKhEEPjNS_8CallbackIvJNS_11WriteResultEEEE
	.p2align	2
	.type	_ZN5fibre13PacketWrapper11start_writeENS_16generic_bufptr_tIKhEEPjNS_8CallbackIvJNS_11WriteResultEEEE,%function
	.code	16                              @ @_ZN5fibre13PacketWrapper11start_writeENS_16generic_bufptr_tIKhEEPjNS_8CallbackIvJNS_11WriteResultEEEE
	.thumb_func
_ZN5fibre13PacketWrapper11start_writeENS_16generic_bufptr_tIKhEEPjNS_8CallbackIvJNS_11WriteResultEEEE:
.Lfunc_begin0:
	.loc	3 22 0                          @ ../fibre-cpp/legacy_protocol.cpp:22:0
	.fnstart
	.cfi_sections .debug_frame
	.cfi_startproc
@ %bb.0:
	.save	{r4, lr}
	push	{r4, lr}
	.cfi_def_cfa_offset 8
	.cfi_offset lr, -4
	.cfi_offset r4, -8
	.pad	#96
	sub	sp, #96
	.cfi_def_cfa_offset 104
                                        @ kill: def $r12 killed $r2
                                        @ kill: def $r12 killed $r1
	ldr.w	r12, [sp, #104]
	str.w	r12, [sp, #36]                  @ 4-byte Spill
	str	r2, [sp, #92]
	str	r1, [sp, #88]
	str	r0, [sp, #84]
	str	r3, [sp, #80]
	ldr	r0, [sp, #84]
.Ltmp0:
	.loc	3 23 9 prologue_end             @ ../fibre-cpp/legacy_protocol.cpp:23:9
	str	r0, [sp, #40]                   @ 4-byte Spill
	ldr	r0, [sp, #80]
.Ltmp1:
	.loc	3 23 9 is_stmt 0                @ ../fibre-cpp/legacy_protocol.cpp:23:9
	cbz	r0, .LBB0_2
	b	.LBB0_1
.LBB0_1:
.Ltmp2:
	.loc	3 24 10 is_stmt 1               @ ../fibre-cpp/legacy_protocol.cpp:24:10
	ldr	r0, [sp, #40]                   @ 4-byte Reload
	ldr	r1, [sp, #80]
	.loc	3 24 17 is_stmt 0               @ ../fibre-cpp/legacy_protocol.cpp:24:17
	str	r0, [r1]
	.loc	3 25 5 is_stmt 1                @ ../fibre-cpp/legacy_protocol.cpp:25:5
	b	.LBB0_2
.Ltmp3:
.LBB0_2:
	.loc	3 27 9                          @ ../fibre-cpp/legacy_protocol.cpp:27:9
	ldr	r0, [sp, #40]                   @ 4-byte Reload
	ldrb.w	r0, [r0, #40]
.Ltmp4:
	.loc	3 27 9 is_stmt 0                @ ../fibre-cpp/legacy_protocol.cpp:27:9
	cbz	r0, .LBB0_4
	b	.LBB0_3
.LBB0_3:
	.loc	3 0 9                           @ ../fibre-cpp/legacy_protocol.cpp:0:9
	movs	r0, #3
.Ltmp5:
	.loc	3 28 26 is_stmt 1               @ ../fibre-cpp/legacy_protocol.cpp:28:26
	strb.w	r0, [sp, #72]
	add	r0, sp, #88
	.loc	3 28 48 is_stmt 0               @ ../fibre-cpp/legacy_protocol.cpp:28:48
	bl	_ZN5fibre16generic_bufptr_tIKhE5beginEv
	mov	r1, r0
	ldr	r0, [sp, #36]                   @ 4-byte Reload
	ldr	r1, [r1]
	.loc	3 28 26                         @ ../fibre-cpp/legacy_protocol.cpp:28:26
	str	r1, [sp, #76]
	.loc	3 28 19                         @ ../fibre-cpp/legacy_protocol.cpp:28:19
	ldr	r1, [sp, #72]
	ldr	r2, [sp, #76]
	bl	_ZNK5fibre8CallbackIvJNS_11WriteResultEEE6invokeES1_
	.loc	3 29 5 is_stmt 1                @ ../fibre-cpp/legacy_protocol.cpp:29:5
	b	.LBB0_4
.Ltmp6:
.LBB0_4:
	.loc	3 0 5 is_stmt 0                 @ ../fibre-cpp/legacy_protocol.cpp:0:5
	add	r0, sp, #88
.Ltmp7:
	.loc	3 32 16 is_stmt 1               @ ../fibre-cpp/legacy_protocol.cpp:32:16
	bl	_ZNK5fibre16generic_bufptr_tIKhE4sizeEv
.Ltmp8:
	.loc	3 32 9 is_stmt 0                @ ../fibre-cpp/legacy_protocol.cpp:32:9
	cmp	r0, #128
	blo	.LBB0_6
	b	.LBB0_5
.LBB0_5:
	.loc	3 0 9                           @ ../fibre-cpp/legacy_protocol.cpp:0:9
	movs	r0, #3
.Ltmp9:
	.loc	3 33 26 is_stmt 1               @ ../fibre-cpp/legacy_protocol.cpp:33:26
	strb.w	r0, [sp, #64]
	add	r0, sp, #88
	.loc	3 33 48 is_stmt 0               @ ../fibre-cpp/legacy_protocol.cpp:33:48
	bl	_ZN5fibre16generic_bufptr_tIKhE5beginEv
	mov	r1, r0
	ldr	r0, [sp, #36]                   @ 4-byte Reload
	ldr	r1, [r1]
	.loc	3 33 26                         @ ../fibre-cpp/legacy_protocol.cpp:33:26
	str	r1, [sp, #68]
	.loc	3 33 19                         @ ../fibre-cpp/legacy_protocol.cpp:33:19
	ldr	r1, [sp, #64]
	ldr	r2, [sp, #68]
	bl	_ZNK5fibre8CallbackIvJNS_11WriteResultEEE6invokeES1_
	.loc	3 34 5 is_stmt 1                @ ../fibre-cpp/legacy_protocol.cpp:34:5
	b	.LBB0_6
.Ltmp10:
.LBB0_6:
	.loc	3 36 16                         @ ../fibre-cpp/legacy_protocol.cpp:36:16
	ldr	r0, [sp, #40]                   @ 4-byte Reload
	ldr	r2, [sp, #36]                   @ 4-byte Reload
	ldr	r1, [r2]
	ldr	r2, [r2, #4]
	str	r2, [r0, #36]
	str	r1, [r0, #32]
	movs	r1, #170
	.loc	3 38 20                         @ ../fibre-cpp/legacy_protocol.cpp:38:20
	strb	r1, [r0, #12]!
	.loc	3 39 50                         @ ../fibre-cpp/legacy_protocol.cpp:39:50
	str	r0, [sp, #20]                   @ 4-byte Spill
	add	r0, sp, #88
	str	r0, [sp, #8]                    @ 4-byte Spill
	bl	_ZNK5fibre16generic_bufptr_tIKhE4sizeEv
	ldr	r1, [sp, #20]                   @ 4-byte Reload
	ldr	r2, [sp, #40]                   @ 4-byte Reload
	.loc	3 39 20 is_stmt 0               @ ../fibre-cpp/legacy_protocol.cpp:39:20
	strb	r0, [r2, #13]
	movs	r0, #66
	movs	r2, #2
	.loc	3 40 22 is_stmt 1               @ ../fibre-cpp/legacy_protocol.cpp:40:22
	str	r2, [sp, #16]                   @ 4-byte Spill
	bl	_ZL9calc_crc8ILj55EEhhPKhj
	ldr	r2, [sp, #40]                   @ 4-byte Reload
	mov	r1, r0
	.loc	3 40 20 is_stmt 0               @ ../fibre-cpp/legacy_protocol.cpp:40:20
	ldr	r0, [sp, #8]                    @ 4-byte Reload
	strb	r1, [r2, #14]
	.loc	3 42 18 is_stmt 1               @ ../fibre-cpp/legacy_protocol.cpp:42:18
	ldr	r1, [sp, #88]
	ldr	r3, [sp, #92]
	str	r3, [r2, #28]
	str	r1, [r2, #24]
	.loc	3 44 90                         @ ../fibre-cpp/legacy_protocol.cpp:44:90
	bl	_ZN5fibre16generic_bufptr_tIKhE5beginEv
	mov	r1, r0
	ldr	r0, [sp, #8]                    @ 4-byte Reload
	ldr	r1, [r1]
	.loc	3 44 106 is_stmt 0              @ ../fibre-cpp/legacy_protocol.cpp:44:106
	str	r1, [sp, #12]                   @ 4-byte Spill
	bl	_ZNK5fibre16generic_bufptr_tIKhE4sizeEv
	ldr	r1, [sp, #12]                   @ 4-byte Reload
	mov	r2, r0
	movw	r0, #4919
	.loc	3 44 22                         @ ../fibre-cpp/legacy_protocol.cpp:44:22
	bl	_ZL10calc_crc16ILj15717EEttPKhj
	ldr	r3, [sp, #16]                   @ 4-byte Reload
	ldr	r1, [sp, #20]                   @ 4-byte Reload
	mov	r2, r0
	.loc	3 44 14                         @ ../fibre-cpp/legacy_protocol.cpp:44:14
	ldr	r0, [sp, #40]                   @ 4-byte Reload
	strh.w	r2, [sp, #62]
	.loc	3 45 34 is_stmt 1               @ ../fibre-cpp/legacy_protocol.cpp:45:34
	ldrb.w	r12, [sp, #63]
	.loc	3 45 21 is_stmt 0               @ ../fibre-cpp/legacy_protocol.cpp:45:21
	mov	r2, r0
	strb	r12, [r2, #15]!
	.loc	3 46 34 is_stmt 1               @ ../fibre-cpp/legacy_protocol.cpp:46:34
	ldrh.w	r12, [sp, #62]
	.loc	3 46 21 is_stmt 0               @ ../fibre-cpp/legacy_protocol.cpp:46:21
	strb.w	r12, [r0, #16]
	.loc	3 48 12 is_stmt 1               @ ../fibre-cpp/legacy_protocol.cpp:48:12
	strb.w	r3, [r0, #40]
	.loc	3 49 22                         @ ../fibre-cpp/legacy_protocol.cpp:49:22
	str	r2, [r0, #20]
	.loc	3 50 5                          @ ../fibre-cpp/legacy_protocol.cpp:50:5
	ldr	r0, [r0, #4]
	.loc	3 50 30 is_stmt 0               @ ../fibre-cpp/legacy_protocol.cpp:50:30
	str	r0, [sp, #24]                   @ 4-byte Spill
	add	r0, sp, #52
	bl	_ZN5fibre16generic_bufptr_tIKhEC2ILj3EEERAT__S1_
	ldr	r1, [sp, #40]                   @ 4-byte Reload
	.loc	3 50 44                         @ ../fibre-cpp/legacy_protocol.cpp:50:44
	add.w	r0, r1, #8
	.loc	3 50 68                         @ ../fibre-cpp/legacy_protocol.cpp:50:68
	str	r0, [sp, #28]                   @ 4-byte Spill
	add	r0, sp, #44
	str	r0, [sp, #32]                   @ 4-byte Spill
	bl	_ZN5fibre13make_callbackIMNS_13PacketWrapperEFvNS_11WriteResultEEXadL_ZNS1_8completeES2_EENS_15function_traitsIvS1_JS2_EEENS_14MemberCallbackIS4_XadL_ZNS1_8completeES2_EES1_vNSt3__25tupleIJS2_EEEEEEENT2_4cb_tEPNT1_4TObjE
	ldr	r0, [sp, #24]                   @ 4-byte Reload
	ldr	r3, [sp, #28]                   @ 4-byte Reload
	ldr.w	lr, [sp, #32]                   @ 4-byte Reload
	.loc	3 50 18                         @ ../fibre-cpp/legacy_protocol.cpp:50:18
	ldr	r1, [sp, #52]
	ldr	r2, [sp, #56]
	ldr.w	r12, [r0]
	ldr.w	r12, [r12]
	mov	r4, sp
	str.w	lr, [r4]
	blx	r12
	.loc	3 51 1 epilogue_begin is_stmt 1 @ ../fibre-cpp/legacy_protocol.cpp:51:1
	add	sp, #96
	pop	{r4, pc}
.Ltmp11:
.Lfunc_end0:
	.size	_ZN5fibre13PacketWrapper11start_writeENS_16generic_bufptr_tIKhEEPjNS_8CallbackIvJNS_11WriteResultEEEE, .Lfunc_end0-_ZN5fibre13PacketWrapper11start_writeENS_16generic_bufptr_tIKhEEPjNS_8CallbackIvJNS_11WriteResultEEEE
	.cfi_endproc
	.cantunwind
	.fnend
                                        @ -- End function
	.section	.text._ZNK5fibre8CallbackIvJNS_11WriteResultEEE6invokeES1_,"axG",%progbits,_ZNK5fibre8CallbackIvJNS_11WriteResultEEE6invokeES1_,comdat
	.hidden	_ZNK5fibre8CallbackIvJNS_11WriteResultEEE6invokeES1_ @ -- Begin function _ZNK5fibre8CallbackIvJNS_11WriteResultEEE6invokeES1_
	.weak	_ZNK5fibre8CallbackIvJNS_11WriteResultEEE6invokeES1_
	.p2align	2
	.type	_ZNK5fibre8CallbackIvJNS_11WriteResultEEE6invokeES1_,%function
	.code	16                              @ @_ZNK5fibre8CallbackIvJNS_11WriteResultEEE6invokeES1_
	.thumb_func
_ZNK5fibre8CallbackIvJNS_11WriteResultEEE6invokeES1_:
.Lfunc_begin1:
	.loc	9 59 0                          @ ../fibre-cpp/include\fibre/callback.hpp:59:0
	.fnstart
	.cfi_startproc
@ %bb.0:
	.save	{r7, lr}
	push	{r7, lr}
	.cfi_def_cfa_offset 8
	.cfi_offset lr, -4
	.cfi_offset r7, -8
	.pad	#24
	sub	sp, #24
	.cfi_def_cfa_offset 32
                                        @ kill: def $r3 killed $r2
                                        @ kill: def $r3 killed $r1
	str	r2, [sp, #20]
	str	r1, [sp, #16]
	str	r0, [sp, #12]
	ldr	r0, [sp, #12]
.Ltmp12:
	.loc	9 60 13 prologue_end            @ ../fibre-cpp/include\fibre/callback.hpp:60:13
	str	r0, [sp]                        @ 4-byte Spill
	ldr	r0, [r0]
.Ltmp13:
	.loc	9 60 13 is_stmt 0               @ ../fibre-cpp/include\fibre/callback.hpp:60:13
	cbz	r0, .LBB1_2
	b	.LBB1_1
.LBB1_1:
.Ltmp14:
	.loc	9 61 22 is_stmt 1               @ ../fibre-cpp/include\fibre/callback.hpp:61:22
	ldr	r0, [sp]                        @ 4-byte Reload
	ldr	r3, [r0]
	.loc	9 61 27 is_stmt 0               @ ../fibre-cpp/include\fibre/callback.hpp:61:27
	ldr	r0, [r0, #4]
	.loc	9 61 33                         @ ../fibre-cpp/include\fibre/callback.hpp:61:33
	ldr	r1, [sp, #16]
	ldr	r2, [sp, #20]
	str	r2, [sp, #8]
	str	r1, [sp, #4]
	.loc	9 61 20                         @ ../fibre-cpp/include\fibre/callback.hpp:61:20
	ldr	r1, [sp, #4]
	ldr	r2, [sp, #8]
	blx	r3
	.loc	9 61 13                         @ ../fibre-cpp/include\fibre/callback.hpp:61:13
	b	.LBB1_3
.Ltmp15:
.LBB1_2:
	.loc	9 63 16 is_stmt 1               @ ../fibre-cpp/include\fibre/callback.hpp:63:16
	bl	_ZN5fibre6detail11get_defaultIvE3valEv
	.loc	9 63 9 is_stmt 0                @ ../fibre-cpp/include\fibre/callback.hpp:63:9
	b	.LBB1_3
.LBB1_3:
	.loc	9 64 5 epilogue_begin is_stmt 1 @ ../fibre-cpp/include\fibre/callback.hpp:64:5
	add	sp, #24
	pop	{r7, pc}
.Ltmp16:
.Lfunc_end1:
	.size	_ZNK5fibre8CallbackIvJNS_11WriteResultEEE6invokeES1_, .Lfunc_end1-_ZNK5fibre8CallbackIvJNS_11WriteResultEEE6invokeES1_
	.cfi_endproc
	.cantunwind
	.fnend
                                        @ -- End function
	.section	.text._ZN5fibre16generic_bufptr_tIKhE5beginEv,"axG",%progbits,_ZN5fibre16generic_bufptr_tIKhE5beginEv,comdat
	.hidden	_ZN5fibre16generic_bufptr_tIKhE5beginEv @ -- Begin function _ZN5fibre16generic_bufptr_tIKhE5beginEv
	.weak	_ZN5fibre16generic_bufptr_tIKhE5beginEv
	.p2align	2
	.type	_ZN5fibre16generic_bufptr_tIKhE5beginEv,%function
	.code	16                              @ @_ZN5fibre16generic_bufptr_tIKhE5beginEv
	.thumb_func
_ZN5fibre16generic_bufptr_tIKhE5beginEv:
.Lfunc_begin2:
	.loc	7 82 0                          @ ../fibre-cpp/include\fibre/bufptr.hpp:82:0
	.fnstart
	.cfi_startproc
@ %bb.0:
	.pad	#4
	sub	sp, #4
	.cfi_def_cfa_offset 4
	str	r0, [sp]
	ldr	r0, [sp]
.Ltmp17:
	.loc	7 82 19 prologue_end epilogue_begin @ ../fibre-cpp/include\fibre/bufptr.hpp:82:19
	add	sp, #4
	bx	lr
.Ltmp18:
.Lfunc_end2:
	.size	_ZN5fibre16generic_bufptr_tIKhE5beginEv, .Lfunc_end2-_ZN5fibre16generic_bufptr_tIKhE5beginEv
	.cfi_endproc
	.cantunwind
	.fnend
                                        @ -- End function
	.section	.text._ZNK5fibre16generic_bufptr_tIKhE4sizeEv,"axG",%progbits,_ZNK5fibre16generic_bufptr_tIKhE4sizeEv,comdat
	.hidden	_ZNK5fibre16generic_bufptr_tIKhE4sizeEv @ -- Begin function _ZNK5fibre16generic_bufptr_tIKhE4sizeEv
	.weak	_ZNK5fibre16generic_bufptr_tIKhE4sizeEv
	.p2align	2
	.type	_ZNK5fibre16generic_bufptr_tIKhE4sizeEv,%function
	.code	16                              @ @_ZNK5fibre16generic_bufptr_tIKhE4sizeEv
	.thumb_func
_ZNK5fibre16generic_bufptr_tIKhE4sizeEv:
.Lfunc_begin3:
	.loc	7 74 0                          @ ../fibre-cpp/include\fibre/bufptr.hpp:74:0
	.fnstart
	.cfi_startproc
@ %bb.0:
	.pad	#4
	sub	sp, #4
	.cfi_def_cfa_offset 4
	str	r0, [sp]
	ldr	r0, [sp]
.Ltmp19:
	.loc	7 75 23 prologue_end            @ ../fibre-cpp/include\fibre/bufptr.hpp:75:23
	ldr	r1, [r0]
	.loc	7 75 16 is_stmt 0               @ ../fibre-cpp/include\fibre/bufptr.hpp:75:16
	ldr	r0, [r0, #4]
	.loc	7 75 21                         @ ../fibre-cpp/include\fibre/bufptr.hpp:75:21
	subs	r0, r0, r1
	.loc	7 75 9 epilogue_begin           @ ../fibre-cpp/include\fibre/bufptr.hpp:75:9
	add	sp, #4
	bx	lr
.Ltmp20:
.Lfunc_end3:
	.size	_ZNK5fibre16generic_bufptr_tIKhE4sizeEv, .Lfunc_end3-_ZNK5fibre16generic_bufptr_tIKhE4sizeEv
	.cfi_endproc
	.cantunwind
	.fnend
                                        @ -- End function
	.section	.text._ZL9calc_crc8ILj55EEhhPKhj,"ax",%progbits
	.p2align	2                               @ -- Begin function _ZL9calc_crc8ILj55EEhhPKhj
	.type	_ZL9calc_crc8ILj55EEhhPKhj,%function
	.code	16                              @ @_ZL9calc_crc8ILj55EEhhPKhj
	.thumb_func
_ZL9calc_crc8ILj55EEhhPKhj:
.Lfunc_begin4:
	.file	17 "D:\\ikingtec\\Robot\\ODrive\\Firmware\\MDK-ARM" "../fibre-cpp/crc.hpp"
	.loc	17 47 0 is_stmt 1               @ ../fibre-cpp/crc.hpp:47:0
	.fnstart
	.cfi_startproc
@ %bb.0:
	.save	{r7, lr}
	push	{r7, lr}
	.cfi_def_cfa_offset 8
	.cfi_offset lr, -4
	.cfi_offset r7, -8
	.pad	#16
	sub	sp, #16
	.cfi_def_cfa_offset 24
                                        @ kill: def $r3 killed $r0
	strb.w	r0, [sp, #15]
	str	r1, [sp, #8]
	str	r2, [sp, #4]
.Ltmp21:
	.loc	17 48 42 prologue_end           @ ../fibre-cpp/crc.hpp:48:42
	ldrb.w	r0, [sp, #15]
	.loc	17 48 53 is_stmt 0              @ ../fibre-cpp/crc.hpp:48:53
	ldr	r1, [sp, #8]
	.loc	17 48 61                        @ ../fibre-cpp/crc.hpp:48:61
	ldr	r2, [sp, #4]
	.loc	17 48 12                        @ ../fibre-cpp/crc.hpp:48:12
	bl	_ZL8calc_crcIhLj55EET_S0_PKhj
	.loc	17 48 5 epilogue_begin          @ ../fibre-cpp/crc.hpp:48:5
	add	sp, #16
	pop	{r7, pc}
.Ltmp22:
.Lfunc_end4:
	.size	_ZL9calc_crc8ILj55EEhhPKhj, .Lfunc_end4-_ZL9calc_crc8ILj55EEhhPKhj
	.cfi_endproc
	.cantunwind
	.fnend
                                        @ -- End function
	.section	.text._ZL10calc_crc16ILj15717EEttPKhj,"ax",%progbits
	.p2align	2                               @ -- Begin function _ZL10calc_crc16ILj15717EEttPKhj
	.type	_ZL10calc_crc16ILj15717EEttPKhj,%function
	.code	16                              @ @_ZL10calc_crc16ILj15717EEttPKhj
	.thumb_func
_ZL10calc_crc16ILj15717EEttPKhj:
.Lfunc_begin5:
	.loc	17 52 0 is_stmt 1               @ ../fibre-cpp/crc.hpp:52:0
	.fnstart
	.cfi_startproc
@ %bb.0:
	.save	{r7, lr}
	push	{r7, lr}
	.cfi_def_cfa_offset 8
	.cfi_offset lr, -4
	.cfi_offset r7, -8
	.pad	#16
	sub	sp, #16
	.cfi_def_cfa_offset 24
                                        @ kill: def $r3 killed $r0
	strh.w	r0, [sp, #14]
	str	r1, [sp, #8]
	str	r2, [sp, #4]
.Ltmp23:
	.loc	17 53 43 prologue_end           @ ../fibre-cpp/crc.hpp:53:43
	ldrh.w	r0, [sp, #14]
	.loc	17 53 54 is_stmt 0              @ ../fibre-cpp/crc.hpp:53:54
	ldr	r1, [sp, #8]
	.loc	17 53 62                        @ ../fibre-cpp/crc.hpp:53:62
	ldr	r2, [sp, #4]
	.loc	17 53 12                        @ ../fibre-cpp/crc.hpp:53:12
	bl	_ZL8calc_crcItLj15717EET_S0_PKhj
	.loc	17 53 5 epilogue_begin          @ ../fibre-cpp/crc.hpp:53:5
	add	sp, #16
	pop	{r7, pc}
.Ltmp24:
.Lfunc_end5:
	.size	_ZL10calc_crc16ILj15717EEttPKhj, .Lfunc_end5-_ZL10calc_crc16ILj15717EEttPKhj
	.cfi_endproc
	.cantunwind
	.fnend
                                        @ -- End function
	.section	.text._ZN5fibre16generic_bufptr_tIKhEC2ILj3EEERAT__S1_,"axG",%progbits,_ZN5fibre16generic_bufptr_tIKhEC2ILj3EEERAT__S1_,comdat
	.hidden	_ZN5fibre16generic_bufptr_tIKhEC2ILj3EEERAT__S1_ @ -- Begin function _ZN5fibre16generic_bufptr_tIKhEC2ILj3EEERAT__S1_
	.weak	_ZN5fibre16generic_bufptr_tIKhEC2ILj3EEERAT__S1_
	.p2align	2
	.type	_ZN5fibre16generic_bufptr_tIKhEC2ILj3EEERAT__S1_,%function
	.code	16                              @ @_ZN5fibre16generic_bufptr_tIKhEC2ILj3EEERAT__S1_
	.thumb_func
_ZN5fibre16generic_bufptr_tIKhEC2ILj3EEERAT__S1_:
.Lfunc_begin6:
	.loc	7 28 0 is_stmt 1                @ ../fibre-cpp/include\fibre/bufptr.hpp:28:0
	.fnstart
	.cfi_startproc
@ %bb.0:
	.save	{r7, lr}
	push	{r7, lr}
	.cfi_def_cfa_offset 8
	.cfi_offset lr, -4
	.cfi_offset r7, -8
	.pad	#16
	sub	sp, #16
	.cfi_def_cfa_offset 24
	str	r0, [sp, #12]
	str	r1, [sp, #8]
	ldr	r0, [sp, #12]
.Ltmp25:
	.loc	7 28 56 prologue_end            @ ../fibre-cpp/include\fibre/bufptr.hpp:28:56
	str	r0, [sp, #4]                    @ 4-byte Spill
	ldr	r1, [sp, #8]
	movs	r2, #3
	.loc	7 28 39 is_stmt 0               @ ../fibre-cpp/include\fibre/bufptr.hpp:28:39
	bl	_ZN5fibre16generic_bufptr_tIKhEC2EPS1_j
	ldr	r0, [sp, #4]                    @ 4-byte Reload
	.loc	7 28 67 epilogue_begin          @ ../fibre-cpp/include\fibre/bufptr.hpp:28:67
	add	sp, #16
	pop	{r7, pc}
.Ltmp26:
.Lfunc_end6:
	.size	_ZN5fibre16generic_bufptr_tIKhEC2ILj3EEERAT__S1_, .Lfunc_end6-_ZN5fibre16generic_bufptr_tIKhEC2ILj3EEERAT__S1_
	.cfi_endproc
	.cantunwind
	.fnend
                                        @ -- End function
	.section	.text._ZN5fibre13make_callbackIMNS_13PacketWrapperEFvNS_11WriteResultEEXadL_ZNS1_8completeES2_EENS_15function_traitsIvS1_JS2_EEENS_14MemberCallbackIS4_XadL_ZNS1_8completeES2_EES1_vNSt3__25tupleIJS2_EEEEEEENT2_4cb_tEPNT1_4TObjE,"axG",%progbits,_ZN5fibre13make_callbackIMNS_13PacketWrapperEFvNS_11WriteResultEEXadL_ZNS1_8completeES2_EENS_15function_traitsIvS1_JS2_EEENS_14MemberCallbackIS4_XadL_ZNS1_8completeES2_EES1_vNSt3__25tupleIJS2_EEEEEEENT2_4cb_tEPNT1_4TObjE,comdat
	.hidden	_ZN5fibre13make_callbackIMNS_13PacketWrapperEFvNS_11WriteResultEEXadL_ZNS1_8completeES2_EENS_15function_traitsIvS1_JS2_EEENS_14MemberCallbackIS4_XadL_ZNS1_8completeES2_EES1_vNSt3__25tupleIJS2_EEEEEEENT2_4cb_tEPNT1_4TObjE @ -- Begin function _ZN5fibre13make_callbackIMNS_13PacketWrapperEFvNS_11WriteResultEEXadL_ZNS1_8completeES2_EENS_15function_traitsIvS1_JS2_EEENS_14MemberCallbackIS4_XadL_ZNS1_8completeES2_EES1_vNSt3__25tupleIJS2_EEEEEEENT2_4cb_tEPNT1_4TObjE
	.weak	_ZN5fibre13make_callbackIMNS_13PacketWrapperEFvNS_11WriteResultEEXadL_ZNS1_8completeES2_EENS_15function_traitsIvS1_JS2_EEENS_14MemberCallbackIS4_XadL_ZNS1_8completeES2_EES1_vNSt3__25tupleIJS2_EEEEEEENT2_4cb_tEPNT1_4TObjE
	.p2align	2
	.type	_ZN5fibre13make_callbackIMNS_13PacketWrapperEFvNS_11WriteResultEEXadL_ZNS1_8completeES2_EENS_15function_traitsIvS1_JS2_EEENS_14MemberCallbackIS4_XadL_ZNS1_8completeES2_EES1_vNSt3__25tupleIJS2_EEEEEEENT2_4cb_tEPNT1_4TObjE,%function
	.code	16                              @ @_ZN5fibre13make_callbackIMNS_13PacketWrapperEFvNS_11WriteResultEEXadL_ZNS1_8completeES2_EENS_15function_traitsIvS1_JS2_EEENS_14MemberCallbackIS4_XadL_ZNS1_8completeES2_EES1_vNSt3__25tupleIJS2_EEEEEEENT2_4cb_tEPNT1_4TObjE
	.thumb_func
_ZN5fibre13make_callbackIMNS_13PacketWrapperEFvNS_11WriteResultEEXadL_ZNS1_8completeES2_EENS_15function_traitsIvS1_JS2_EEENS_14MemberCallbackIS4_XadL_ZNS1_8completeES2_EES1_vNSt3__25tupleIJS2_EEEEEEENT2_4cb_tEPNT1_4TObjE:
.Lfunc_begin7:
	.loc	9 114 0 is_stmt 1               @ ../fibre-cpp/include\fibre/callback.hpp:114:0
	.fnstart
	.cfi_startproc
@ %bb.0:
	.save	{r7, lr}
	push	{r7, lr}
	.cfi_def_cfa_offset 8
	.cfi_offset lr, -4
	.cfi_offset r7, -8
	.pad	#8
	sub	sp, #8
	.cfi_def_cfa_offset 16
	str	r0, [sp, #4]
	str	r1, [sp]
.Ltmp27:
	.loc	9 115 24 prologue_end           @ ../fibre-cpp/include\fibre/callback.hpp:115:24
	ldr	r1, [sp]
	.loc	9 115 12 is_stmt 0              @ ../fibre-cpp/include\fibre/callback.hpp:115:12
	bl	_ZN5fibre14MemberCallbackIMNS_13PacketWrapperEFvNS_11WriteResultEEXadL_ZNS1_8completeES2_EES1_vNSt3__25tupleIJS2_EEEE4withEPS1_
	.loc	9 115 5 epilogue_begin          @ ../fibre-cpp/include\fibre/callback.hpp:115:5
	add	sp, #8
	pop	{r7, pc}
.Ltmp28:
.Lfunc_end7:
	.size	_ZN5fibre13make_callbackIMNS_13PacketWrapperEFvNS_11WriteResultEEXadL_ZNS1_8completeES2_EENS_15function_traitsIvS1_JS2_EEENS_14MemberCallbackIS4_XadL_ZNS1_8completeES2_EES1_vNSt3__25tupleIJS2_EEEEEEENT2_4cb_tEPNT1_4TObjE, .Lfunc_end7-_ZN5fibre13make_callbackIMNS_13PacketWrapperEFvNS_11WriteResultEEXadL_ZNS1_8completeES2_EENS_15function_traitsIvS1_JS2_EEENS_14MemberCallbackIS4_XadL_ZNS1_8completeES2_EES1_vNSt3__25tupleIJS2_EEEEEEENT2_4cb_tEPNT1_4TObjE
	.cfi_endproc
	.cantunwind
	.fnend
                                        @ -- End function
	.section	.text._ZN5fibre13PacketWrapper12cancel_writeEj,"ax",%progbits
	.hidden	_ZN5fibre13PacketWrapper12cancel_writeEj @ -- Begin function _ZN5fibre13PacketWrapper12cancel_writeEj
	.globl	_ZN5fibre13PacketWrapper12cancel_writeEj
	.p2align	2
	.type	_ZN5fibre13PacketWrapper12cancel_writeEj,%function
	.code	16                              @ @_ZN5fibre13PacketWrapper12cancel_writeEj
	.thumb_func
_ZN5fibre13PacketWrapper12cancel_writeEj:
.Lfunc_begin8:
	.loc	3 53 0 is_stmt 1                @ ../fibre-cpp/legacy_protocol.cpp:53:0
	.fnstart
	.cfi_startproc
@ %bb.0:
	.save	{r7, lr}
	push	{r7, lr}
	.cfi_def_cfa_offset 8
	.cfi_offset lr, -4
	.cfi_offset r7, -8
	.pad	#8
	sub	sp, #8
	.cfi_def_cfa_offset 16
	str	r0, [sp, #4]
	str	r1, [sp]
	ldr	r1, [sp, #4]
	movs	r0, #1
.Ltmp29:
	.loc	3 54 12 prologue_end            @ ../fibre-cpp/legacy_protocol.cpp:54:12
	strb.w	r0, [r1, #40]
	.loc	3 55 5                          @ ../fibre-cpp/legacy_protocol.cpp:55:5
	ldr	r0, [r1, #4]
	.loc	3 55 31 is_stmt 0               @ ../fibre-cpp/legacy_protocol.cpp:55:31
	ldr	r1, [r1, #8]
	.loc	3 55 18                         @ ../fibre-cpp/legacy_protocol.cpp:55:18
	ldr	r2, [r0]
	ldr	r2, [r2, #4]
	blx	r2
	.loc	3 56 1 epilogue_begin is_stmt 1 @ ../fibre-cpp/legacy_protocol.cpp:56:1
	add	sp, #8
	pop	{r7, pc}
.Ltmp30:
.Lfunc_end8:
	.size	_ZN5fibre13PacketWrapper12cancel_writeEj, .Lfunc_end8-_ZN5fibre13PacketWrapper12cancel_writeEj
	.cfi_endproc
	.cantunwind
	.fnend
                                        @ -- End function
	.section	.text._ZN5fibre13PacketWrapper8completeENS_11WriteResultE,"ax",%progbits
	.hidden	_ZN5fibre13PacketWrapper8completeENS_11WriteResultE @ -- Begin function _ZN5fibre13PacketWrapper8completeENS_11WriteResultE
	.globl	_ZN5fibre13PacketWrapper8completeENS_11WriteResultE
	.p2align	2
	.type	_ZN5fibre13PacketWrapper8completeENS_11WriteResultE,%function
	.code	16                              @ @_ZN5fibre13PacketWrapper8completeENS_11WriteResultE
	.thumb_func
_ZN5fibre13PacketWrapper8completeENS_11WriteResultE:
.Lfunc_begin9:
	.loc	3 58 0                          @ ../fibre-cpp/legacy_protocol.cpp:58:0
	.fnstart
	.cfi_startproc
@ %bb.0:
	.save	{r4, lr}
	push	{r4, lr}
	.cfi_def_cfa_offset 8
	.cfi_offset lr, -4
	.cfi_offset r4, -8
	.pad	#144
	sub	sp, #144
	.cfi_def_cfa_offset 152
                                        @ kill: def $r3 killed $r2
                                        @ kill: def $r3 killed $r1
	str	r2, [sp, #140]
	str	r1, [sp, #136]
	str	r0, [sp, #132]
	ldr	r0, [sp, #132]
.Ltmp31:
	.loc	3 59 9 prologue_end             @ ../fibre-cpp/legacy_protocol.cpp:59:9
	str	r0, [sp, #56]                   @ 4-byte Spill
	ldrb.w	r0, [r0, #40]
.Ltmp32:
	.loc	3 59 9 is_stmt 0                @ ../fibre-cpp/legacy_protocol.cpp:59:9
	cmp	r0, #1
	bne	.LBB9_2
	b	.LBB9_1
.LBB9_1:
	.loc	3 0 9                           @ ../fibre-cpp/legacy_protocol.cpp:0:9
	ldr	r0, [sp, #56]                   @ 4-byte Reload
	movs	r1, #0
.Ltmp33:
	.loc	3 60 16 is_stmt 1               @ ../fibre-cpp/legacy_protocol.cpp:60:16
	strb.w	r1, [r0, #40]
	.loc	3 61 9                          @ ../fibre-cpp/legacy_protocol.cpp:61:9
	add.w	r1, r0, #32
	str	r1, [sp, #52]                   @ 4-byte Spill
	movs	r1, #1
	.loc	3 61 37 is_stmt 0               @ ../fibre-cpp/legacy_protocol.cpp:61:37
	strb.w	r1, [sp, #124]
	.loc	3 61 56                         @ ../fibre-cpp/legacy_protocol.cpp:61:56
	adds	r0, #24
	.loc	3 61 69                         @ ../fibre-cpp/legacy_protocol.cpp:61:69
	bl	_ZN5fibre16generic_bufptr_tIKhE5beginEv
	mov	r1, r0
	ldr	r0, [sp, #52]                   @ 4-byte Reload
	ldr	r1, [r1]
	.loc	3 61 37                         @ ../fibre-cpp/legacy_protocol.cpp:61:37
	str	r1, [sp, #128]
	.loc	3 61 20                         @ ../fibre-cpp/legacy_protocol.cpp:61:20
	ldr	r1, [sp, #124]
	ldr	r2, [sp, #128]
	bl	_ZN5fibre8CallbackIvJNS_11WriteResultEEE16invoke_and_clearES1_
	.loc	3 62 9 is_stmt 1                @ ../fibre-cpp/legacy_protocol.cpp:62:9
	b	.LBB9_14
.Ltmp34:
.LBB9_2:
	.loc	3 65 16                         @ ../fibre-cpp/legacy_protocol.cpp:65:16
	ldrb.w	r0, [sp, #136]
.Ltmp35:
	.loc	3 65 9 is_stmt 0                @ ../fibre-cpp/legacy_protocol.cpp:65:9
	cbz	r0, .LBB9_4
	b	.LBB9_3
.LBB9_3:
	.loc	3 0 9                           @ ../fibre-cpp/legacy_protocol.cpp:0:9
	ldr	r0, [sp, #56]                   @ 4-byte Reload
	movs	r1, #0
.Ltmp36:
	.loc	3 66 16 is_stmt 1               @ ../fibre-cpp/legacy_protocol.cpp:66:16
	strb.w	r1, [r0, #40]
	.loc	3 67 9                          @ ../fibre-cpp/legacy_protocol.cpp:67:9
	add.w	r1, r0, #32
	.loc	3 67 45 is_stmt 0               @ ../fibre-cpp/legacy_protocol.cpp:67:45
	str	r1, [sp, #48]                   @ 4-byte Spill
	ldrb.w	r1, [sp, #136]
	.loc	3 67 37                         @ ../fibre-cpp/legacy_protocol.cpp:67:37
	strb.w	r1, [sp, #116]
	.loc	3 67 53                         @ ../fibre-cpp/legacy_protocol.cpp:67:53
	adds	r0, #24
	.loc	3 67 66                         @ ../fibre-cpp/legacy_protocol.cpp:67:66
	bl	_ZN5fibre16generic_bufptr_tIKhE5beginEv
	mov	r1, r0
	ldr	r0, [sp, #48]                   @ 4-byte Reload
	ldr	r1, [r1]
	.loc	3 67 37                         @ ../fibre-cpp/legacy_protocol.cpp:67:37
	str	r1, [sp, #120]
	.loc	3 67 20                         @ ../fibre-cpp/legacy_protocol.cpp:67:20
	ldr	r1, [sp, #116]
	ldr	r2, [sp, #120]
	bl	_ZN5fibre8CallbackIvJNS_11WriteResultEEE16invoke_and_clearES1_
	.loc	3 68 9 is_stmt 1                @ ../fibre-cpp/legacy_protocol.cpp:68:9
	b	.LBB9_14
.Ltmp37:
.LBB9_4:
	.loc	3 71 16                         @ ../fibre-cpp/legacy_protocol.cpp:71:16
	ldr	r1, [sp, #56]                   @ 4-byte Reload
	ldr	r0, [sp, #140]
	.loc	3 71 22 is_stmt 0               @ ../fibre-cpp/legacy_protocol.cpp:71:22
	ldr	r1, [r1, #20]
.Ltmp38:
	.loc	3 71 9                          @ ../fibre-cpp/legacy_protocol.cpp:71:9
	cmp	r0, r1
	bhs	.LBB9_6
	b	.LBB9_5
.LBB9_5:
.Ltmp39:
	.loc	3 72 42 is_stmt 1               @ ../fibre-cpp/legacy_protocol.cpp:72:42
	ldr	r0, [sp, #56]                   @ 4-byte Reload
	ldr	r1, [sp, #140]
	.loc	3 72 9 is_stmt 0                @ ../fibre-cpp/legacy_protocol.cpp:72:9
	ldr	r2, [r0, #4]
	.loc	3 72 47                         @ ../fibre-cpp/legacy_protocol.cpp:72:47
	str	r2, [sp, #36]                   @ 4-byte Spill
	ldr	r2, [r0, #20]
	add	r0, sp, #108
	.loc	3 72 34                         @ ../fibre-cpp/legacy_protocol.cpp:72:34
	bl	_ZN5fibre16generic_bufptr_tIKhEC2EPS1_S3_
	ldr	r1, [sp, #56]                   @ 4-byte Reload
	.loc	3 72 67                         @ ../fibre-cpp/legacy_protocol.cpp:72:67
	add.w	r0, r1, #8
	.loc	3 72 91                         @ ../fibre-cpp/legacy_protocol.cpp:72:91
	str	r0, [sp, #40]                   @ 4-byte Spill
	add	r0, sp, #100
	str	r0, [sp, #44]                   @ 4-byte Spill
	bl	_ZN5fibre13make_callbackIMNS_13PacketWrapperEFvNS_11WriteResultEEXadL_ZNS1_8completeES2_EENS_15function_traitsIvS1_JS2_EEENS_14MemberCallbackIS4_XadL_ZNS1_8completeES2_EES1_vNSt3__25tupleIJS2_EEEEEEENT2_4cb_tEPNT1_4TObjE
	ldr	r0, [sp, #36]                   @ 4-byte Reload
	ldr	r3, [sp, #40]                   @ 4-byte Reload
	ldr.w	lr, [sp, #44]                   @ 4-byte Reload
	.loc	3 72 22                         @ ../fibre-cpp/legacy_protocol.cpp:72:22
	ldr	r1, [sp, #108]
	ldr	r2, [sp, #112]
	ldr.w	r12, [r0]
	ldr.w	r12, [r12]
	mov	r4, sp
	str.w	lr, [r4]
	blx	r12
	.loc	3 73 9 is_stmt 1                @ ../fibre-cpp/legacy_protocol.cpp:73:9
	b	.LBB9_14
.Ltmp40:
.LBB9_6:
	.loc	3 76 9                          @ ../fibre-cpp/legacy_protocol.cpp:76:9
	ldr	r0, [sp, #56]                   @ 4-byte Reload
	ldrb.w	r0, [r0, #40]
.Ltmp41:
	.loc	3 76 9 is_stmt 0                @ ../fibre-cpp/legacy_protocol.cpp:76:9
	cmp	r0, #2
	bne	.LBB9_8
	b	.LBB9_7
.LBB9_7:
	.loc	3 0 9                           @ ../fibre-cpp/legacy_protocol.cpp:0:9
	ldr	r0, [sp, #56]                   @ 4-byte Reload
	movs	r1, #3
.Ltmp42:
	.loc	3 77 16 is_stmt 1               @ ../fibre-cpp/legacy_protocol.cpp:77:16
	strb.w	r1, [r0, #40]
	.loc	3 78 28                         @ ../fibre-cpp/legacy_protocol.cpp:78:28
	adds	r0, #24
	.loc	3 78 41 is_stmt 0               @ ../fibre-cpp/legacy_protocol.cpp:78:41
	bl	_ZN5fibre16generic_bufptr_tIKhE3endEv
	ldr	r1, [sp, #56]                   @ 4-byte Reload
	ldr	r0, [r0]
	.loc	3 78 26                         @ ../fibre-cpp/legacy_protocol.cpp:78:26
	str	r0, [r1, #20]
	.loc	3 79 9 is_stmt 1                @ ../fibre-cpp/legacy_protocol.cpp:79:9
	ldr	r0, [r1, #4]
	.loc	3 79 34 is_stmt 0               @ ../fibre-cpp/legacy_protocol.cpp:79:34
	str	r0, [sp, #24]                   @ 4-byte Spill
	ldr	r0, [r1, #24]
	ldr	r2, [r1, #28]
	str	r2, [sp, #96]
	str	r0, [sp, #92]
	.loc	3 79 49                         @ ../fibre-cpp/legacy_protocol.cpp:79:49
	add.w	r0, r1, #8
	.loc	3 79 73                         @ ../fibre-cpp/legacy_protocol.cpp:79:73
	str	r0, [sp, #28]                   @ 4-byte Spill
	add	r0, sp, #84
	str	r0, [sp, #32]                   @ 4-byte Spill
	bl	_ZN5fibre13make_callbackIMNS_13PacketWrapperEFvNS_11WriteResultEEXadL_ZNS1_8completeES2_EENS_15function_traitsIvS1_JS2_EEENS_14MemberCallbackIS4_XadL_ZNS1_8completeES2_EES1_vNSt3__25tupleIJS2_EEEEEEENT2_4cb_tEPNT1_4TObjE
	ldr	r0, [sp, #24]                   @ 4-byte Reload
	ldr	r3, [sp, #28]                   @ 4-byte Reload
	ldr.w	lr, [sp, #32]                   @ 4-byte Reload
	.loc	3 79 22                         @ ../fibre-cpp/legacy_protocol.cpp:79:22
	ldr	r1, [sp, #92]
	ldr	r2, [sp, #96]
	ldr.w	r12, [r0]
	ldr.w	r12, [r12]
	mov	r4, sp
	str.w	lr, [r4]
	blx	r12
	.loc	3 81 5 is_stmt 1                @ ../fibre-cpp/legacy_protocol.cpp:81:5
	b	.LBB9_14
.Ltmp43:
.LBB9_8:
	.loc	3 81 16 is_stmt 0               @ ../fibre-cpp/legacy_protocol.cpp:81:16
	ldr	r0, [sp, #56]                   @ 4-byte Reload
	ldrb.w	r0, [r0, #40]
.Ltmp44:
	.loc	3 81 16                         @ ../fibre-cpp/legacy_protocol.cpp:81:16
	cmp	r0, #3
	bne	.LBB9_10
	b	.LBB9_9
.LBB9_9:
	.loc	3 0 16                          @ ../fibre-cpp/legacy_protocol.cpp:0:16
	ldr	r0, [sp, #56]                   @ 4-byte Reload
	movs	r1, #4
.Ltmp45:
	.loc	3 82 16 is_stmt 1               @ ../fibre-cpp/legacy_protocol.cpp:82:16
	strb.w	r1, [r0, #40]
	.loc	3 83 28                         @ ../fibre-cpp/legacy_protocol.cpp:83:28
	add.w	r1, r0, #15
	.loc	3 83 41 is_stmt 0               @ ../fibre-cpp/legacy_protocol.cpp:83:41
	add.w	r2, r0, #17
	.loc	3 83 26                         @ ../fibre-cpp/legacy_protocol.cpp:83:26
	str	r2, [r0, #20]
	.loc	3 84 9 is_stmt 1                @ ../fibre-cpp/legacy_protocol.cpp:84:9
	ldr	r0, [r0, #4]
	.loc	3 84 34 is_stmt 0               @ ../fibre-cpp/legacy_protocol.cpp:84:34
	str	r0, [sp, #12]                   @ 4-byte Spill
	add	r0, sp, #76
	bl	_ZN5fibre16generic_bufptr_tIKhEC2ILj2EEERAT__S1_
	ldr	r1, [sp, #56]                   @ 4-byte Reload
	.loc	3 84 49                         @ ../fibre-cpp/legacy_protocol.cpp:84:49
	add.w	r0, r1, #8
	.loc	3 84 73                         @ ../fibre-cpp/legacy_protocol.cpp:84:73
	str	r0, [sp, #16]                   @ 4-byte Spill
	add	r0, sp, #68
	str	r0, [sp, #20]                   @ 4-byte Spill
	bl	_ZN5fibre13make_callbackIMNS_13PacketWrapperEFvNS_11WriteResultEEXadL_ZNS1_8completeES2_EENS_15function_traitsIvS1_JS2_EEENS_14MemberCallbackIS4_XadL_ZNS1_8completeES2_EES1_vNSt3__25tupleIJS2_EEEEEEENT2_4cb_tEPNT1_4TObjE
	ldr	r0, [sp, #12]                   @ 4-byte Reload
	ldr	r3, [sp, #16]                   @ 4-byte Reload
	ldr.w	lr, [sp, #20]                   @ 4-byte Reload
	.loc	3 84 22                         @ ../fibre-cpp/legacy_protocol.cpp:84:22
	ldr	r1, [sp, #76]
	ldr	r2, [sp, #80]
	ldr.w	r12, [r0]
	ldr.w	r12, [r12]
	mov	r4, sp
	str.w	lr, [r4]
	blx	r12
	.loc	3 86 5 is_stmt 1                @ ../fibre-cpp/legacy_protocol.cpp:86:5
	b	.LBB9_13
.Ltmp46:
.LBB9_10:
	.loc	3 86 16 is_stmt 0               @ ../fibre-cpp/legacy_protocol.cpp:86:16
	ldr	r0, [sp, #56]                   @ 4-byte Reload
	ldrb.w	r0, [r0, #40]
.Ltmp47:
	.loc	3 86 16                         @ ../fibre-cpp/legacy_protocol.cpp:86:16
	cmp	r0, #4
	bne	.LBB9_12
	b	.LBB9_11
.LBB9_11:
	.loc	3 0 16                          @ ../fibre-cpp/legacy_protocol.cpp:0:16
	ldr	r0, [sp, #56]                   @ 4-byte Reload
	movs	r1, #0
.Ltmp48:
	.loc	3 87 16 is_stmt 1               @ ../fibre-cpp/legacy_protocol.cpp:87:16
	strb.w	r1, [r0, #40]
	.loc	3 88 9                          @ ../fibre-cpp/legacy_protocol.cpp:88:9
	add.w	r2, r0, #32
	.loc	3 88 37 is_stmt 0               @ ../fibre-cpp/legacy_protocol.cpp:88:37
	str	r2, [sp, #8]                    @ 4-byte Spill
	strb.w	r1, [sp, #60]
	.loc	3 88 49                         @ ../fibre-cpp/legacy_protocol.cpp:88:49
	adds	r0, #24
	.loc	3 88 62                         @ ../fibre-cpp/legacy_protocol.cpp:88:62
	bl	_ZN5fibre16generic_bufptr_tIKhE3endEv
	mov	r1, r0
	ldr	r0, [sp, #8]                    @ 4-byte Reload
	ldr	r1, [r1]
	.loc	3 88 37                         @ ../fibre-cpp/legacy_protocol.cpp:88:37
	str	r1, [sp, #64]
	.loc	3 88 20                         @ ../fibre-cpp/legacy_protocol.cpp:88:20
	ldr	r1, [sp, #60]
	ldr	r2, [sp, #64]
	bl	_ZN5fibre8CallbackIvJNS_11WriteResultEEE16invoke_and_clearES1_
	.loc	3 89 5 is_stmt 1                @ ../fibre-cpp/legacy_protocol.cpp:89:5
	b	.LBB9_12
.Ltmp49:
.LBB9_12:
	.loc	3 0 5 is_stmt 0                 @ ../fibre-cpp/legacy_protocol.cpp:0:5
	b	.LBB9_13
.LBB9_13:
	b	.LBB9_14
.LBB9_14:
	.loc	3 90 1 epilogue_begin is_stmt 1 @ ../fibre-cpp/legacy_protocol.cpp:90:1
	add	sp, #144
	pop	{r4, pc}
.Ltmp50:
.Lfunc_end9:
	.size	_ZN5fibre13PacketWrapper8completeENS_11WriteResultE, .Lfunc_end9-_ZN5fibre13PacketWrapper8completeENS_11WriteResultE
	.cfi_endproc
	.cantunwind
	.fnend
                                        @ -- End function
	.section	.text._ZN5fibre8CallbackIvJNS_11WriteResultEEE16invoke_and_clearES1_,"axG",%progbits,_ZN5fibre8CallbackIvJNS_11WriteResultEEE16invoke_and_clearES1_,comdat
	.hidden	_ZN5fibre8CallbackIvJNS_11WriteResultEEE16invoke_and_clearES1_ @ -- Begin function _ZN5fibre8CallbackIvJNS_11WriteResultEEE16invoke_and_clearES1_
	.weak	_ZN5fibre8CallbackIvJNS_11WriteResultEEE16invoke_and_clearES1_
	.p2align	2
	.type	_ZN5fibre8CallbackIvJNS_11WriteResultEEE16invoke_and_clearES1_,%function
	.code	16                              @ @_ZN5fibre8CallbackIvJNS_11WriteResultEEE16invoke_and_clearES1_
	.thumb_func
_ZN5fibre8CallbackIvJNS_11WriteResultEEE16invoke_and_clearES1_:
.Lfunc_begin10:
	.loc	9 66 0                          @ ../fibre-cpp/include\fibre/callback.hpp:66:0
	.fnstart
	.cfi_startproc
@ %bb.0:
	.save	{r7, lr}
	push	{r7, lr}
	.cfi_def_cfa_offset 8
	.cfi_offset lr, -4
	.cfi_offset r7, -8
	.pad	#32
	sub	sp, #32
	.cfi_def_cfa_offset 40
                                        @ kill: def $r3 killed $r2
                                        @ kill: def $r3 killed $r1
	str	r2, [sp, #28]
	str	r1, [sp, #24]
	str	r0, [sp, #20]
	ldr	r1, [sp, #20]
.Ltmp51:
	.loc	9 67 21 prologue_end            @ ../fibre-cpp/include\fibre/callback.hpp:67:21
	ldr	r0, [r1, #4]
	.loc	9 67 15 is_stmt 0               @ ../fibre-cpp/include\fibre/callback.hpp:67:15
	str	r0, [sp, #16]
	.loc	9 68 19 is_stmt 1               @ ../fibre-cpp/include\fibre/callback.hpp:68:19
	ldr	r0, [r1]
	.loc	9 68 14 is_stmt 0               @ ../fibre-cpp/include\fibre/callback.hpp:68:14
	str	r0, [sp, #12]
	movs	r0, #0
	.loc	9 69 14 is_stmt 1               @ ../fibre-cpp/include\fibre/callback.hpp:69:14
	str	r0, [r1, #4]
	.loc	9 70 13                         @ ../fibre-cpp/include\fibre/callback.hpp:70:13
	str	r0, [r1]
.Ltmp52:
	.loc	9 71 13                         @ ../fibre-cpp/include\fibre/callback.hpp:71:13
	ldr	r0, [sp, #12]
.Ltmp53:
	.loc	9 71 13 is_stmt 0               @ ../fibre-cpp/include\fibre/callback.hpp:71:13
	cbz	r0, .LBB10_2
	b	.LBB10_1
.LBB10_1:
.Ltmp54:
	.loc	9 72 22 is_stmt 1               @ ../fibre-cpp/include\fibre/callback.hpp:72:22
	ldr	r3, [sp, #12]
	.loc	9 72 26 is_stmt 0               @ ../fibre-cpp/include\fibre/callback.hpp:72:26
	ldr	r0, [sp, #16]
	.loc	9 72 31                         @ ../fibre-cpp/include\fibre/callback.hpp:72:31
	ldr	r1, [sp, #24]
	ldr	r2, [sp, #28]
	str	r2, [sp, #8]
	str	r1, [sp, #4]
	.loc	9 72 20                         @ ../fibre-cpp/include\fibre/callback.hpp:72:20
	ldr	r1, [sp, #4]
	ldr	r2, [sp, #8]
	blx	r3
	.loc	9 72 13                         @ ../fibre-cpp/include\fibre/callback.hpp:72:13
	b	.LBB10_3
.Ltmp55:
.LBB10_2:
	.loc	9 74 16 is_stmt 1               @ ../fibre-cpp/include\fibre/callback.hpp:74:16
	bl	_ZN5fibre6detail11get_defaultIvE3valEv
	.loc	9 74 9 is_stmt 0                @ ../fibre-cpp/include\fibre/callback.hpp:74:9
	b	.LBB10_3
.LBB10_3:
	.loc	9 75 5 epilogue_begin is_stmt 1 @ ../fibre-cpp/include\fibre/callback.hpp:75:5
	add	sp, #32
	pop	{r7, pc}
.Ltmp56:
.Lfunc_end10:
	.size	_ZN5fibre8CallbackIvJNS_11WriteResultEEE16invoke_and_clearES1_, .Lfunc_end10-_ZN5fibre8CallbackIvJNS_11WriteResultEEE16invoke_and_clearES1_
	.cfi_endproc
	.cantunwind
	.fnend
                                        @ -- End function
	.section	.text._ZN5fibre16generic_bufptr_tIKhEC2EPS1_S3_,"axG",%progbits,_ZN5fibre16generic_bufptr_tIKhEC2EPS1_S3_,comdat
	.hidden	_ZN5fibre16generic_bufptr_tIKhEC2EPS1_S3_ @ -- Begin function _ZN5fibre16generic_bufptr_tIKhEC2EPS1_S3_
	.weak	_ZN5fibre16generic_bufptr_tIKhEC2EPS1_S3_
	.p2align	2
	.type	_ZN5fibre16generic_bufptr_tIKhEC2EPS1_S3_,%function
	.code	16                              @ @_ZN5fibre16generic_bufptr_tIKhEC2EPS1_S3_
	.thumb_func
_ZN5fibre16generic_bufptr_tIKhEC2EPS1_S3_:
.Lfunc_begin11:
	.loc	7 23 0                          @ ../fibre-cpp/include\fibre/bufptr.hpp:23:0
	.fnstart
	.cfi_startproc
@ %bb.0:
	.pad	#12
	sub	sp, #12
	.cfi_def_cfa_offset 12
	str	r0, [sp, #8]
	str	r1, [sp, #4]
	str	r2, [sp]
	ldr	r0, [sp, #8]
.Ltmp57:
	.loc	7 23 49 prologue_end            @ ../fibre-cpp/include\fibre/bufptr.hpp:23:49
	ldr	r1, [sp, #4]
	.loc	7 23 42 is_stmt 0               @ ../fibre-cpp/include\fibre/bufptr.hpp:23:42
	str	r1, [r0]
	.loc	7 23 62                         @ ../fibre-cpp/include\fibre/bufptr.hpp:23:62
	ldr	r1, [sp]
	.loc	7 23 57                         @ ../fibre-cpp/include\fibre/bufptr.hpp:23:57
	str	r1, [r0, #4]
	.loc	7 23 68 epilogue_begin          @ ../fibre-cpp/include\fibre/bufptr.hpp:23:68
	add	sp, #12
	bx	lr
.Ltmp58:
.Lfunc_end11:
	.size	_ZN5fibre16generic_bufptr_tIKhEC2EPS1_S3_, .Lfunc_end11-_ZN5fibre16generic_bufptr_tIKhEC2EPS1_S3_
	.cfi_endproc
	.cantunwind
	.fnend
                                        @ -- End function
	.section	.text._ZN5fibre16generic_bufptr_tIKhE3endEv,"axG",%progbits,_ZN5fibre16generic_bufptr_tIKhE3endEv,comdat
	.hidden	_ZN5fibre16generic_bufptr_tIKhE3endEv @ -- Begin function _ZN5fibre16generic_bufptr_tIKhE3endEv
	.weak	_ZN5fibre16generic_bufptr_tIKhE3endEv
	.p2align	2
	.type	_ZN5fibre16generic_bufptr_tIKhE3endEv,%function
	.code	16                              @ @_ZN5fibre16generic_bufptr_tIKhE3endEv
	.thumb_func
_ZN5fibre16generic_bufptr_tIKhE3endEv:
.Lfunc_begin12:
	.loc	7 83 0 is_stmt 1                @ ../fibre-cpp/include\fibre/bufptr.hpp:83:0
	.fnstart
	.cfi_startproc
@ %bb.0:
	.pad	#4
	sub	sp, #4
	.cfi_def_cfa_offset 4
	str	r0, [sp]
	ldr	r0, [sp]
.Ltmp59:
	.loc	7 83 24 prologue_end            @ ../fibre-cpp/include\fibre/bufptr.hpp:83:24
	adds	r0, #4
	.loc	7 83 17 epilogue_begin is_stmt 0 @ ../fibre-cpp/include\fibre/bufptr.hpp:83:17
	add	sp, #4
	bx	lr
.Ltmp60:
.Lfunc_end12:
	.size	_ZN5fibre16generic_bufptr_tIKhE3endEv, .Lfunc_end12-_ZN5fibre16generic_bufptr_tIKhE3endEv
	.cfi_endproc
	.cantunwind
	.fnend
                                        @ -- End function
	.section	.text._ZN5fibre16generic_bufptr_tIKhEC2ILj2EEERAT__S1_,"axG",%progbits,_ZN5fibre16generic_bufptr_tIKhEC2ILj2EEERAT__S1_,comdat
	.hidden	_ZN5fibre16generic_bufptr_tIKhEC2ILj2EEERAT__S1_ @ -- Begin function _ZN5fibre16generic_bufptr_tIKhEC2ILj2EEERAT__S1_
	.weak	_ZN5fibre16generic_bufptr_tIKhEC2ILj2EEERAT__S1_
	.p2align	2
	.type	_ZN5fibre16generic_bufptr_tIKhEC2ILj2EEERAT__S1_,%function
	.code	16                              @ @_ZN5fibre16generic_bufptr_tIKhEC2ILj2EEERAT__S1_
	.thumb_func
_ZN5fibre16generic_bufptr_tIKhEC2ILj2EEERAT__S1_:
.Lfunc_begin13:
	.loc	7 28 0 is_stmt 1                @ ../fibre-cpp/include\fibre/bufptr.hpp:28:0
	.fnstart
	.cfi_startproc
@ %bb.0:
	.save	{r7, lr}
	push	{r7, lr}
	.cfi_def_cfa_offset 8
	.cfi_offset lr, -4
	.cfi_offset r7, -8
	.pad	#16
	sub	sp, #16
	.cfi_def_cfa_offset 24
	str	r0, [sp, #12]
	str	r1, [sp, #8]
	ldr	r0, [sp, #12]
.Ltmp61:
	.loc	7 28 56 prologue_end            @ ../fibre-cpp/include\fibre/bufptr.hpp:28:56
	str	r0, [sp, #4]                    @ 4-byte Spill
	ldr	r1, [sp, #8]
	movs	r2, #2
	.loc	7 28 39 is_stmt 0               @ ../fibre-cpp/include\fibre/bufptr.hpp:28:39
	bl	_ZN5fibre16generic_bufptr_tIKhEC2EPS1_j
	ldr	r0, [sp, #4]                    @ 4-byte Reload
	.loc	7 28 67 epilogue_begin          @ ../fibre-cpp/include\fibre/bufptr.hpp:28:67
	add	sp, #16
	pop	{r7, pc}
.Ltmp62:
.Lfunc_end13:
	.size	_ZN5fibre16generic_bufptr_tIKhEC2ILj2EEERAT__S1_, .Lfunc_end13-_ZN5fibre16generic_bufptr_tIKhEC2ILj2EEERAT__S1_
	.cfi_endproc
	.cantunwind
	.fnend
                                        @ -- End function
	.section	.text._ZN5fibre15PacketUnwrapper10start_readENS_16generic_bufptr_tIhEEPjNS_8CallbackIvJNS_10ReadResultEEEE,"ax",%progbits
	.hidden	_ZN5fibre15PacketUnwrapper10start_readENS_16generic_bufptr_tIhEEPjNS_8CallbackIvJNS_10ReadResultEEEE @ -- Begin function _ZN5fibre15PacketUnwrapper10start_readENS_16generic_bufptr_tIhEEPjNS_8CallbackIvJNS_10ReadResultEEEE
	.globl	_ZN5fibre15PacketUnwrapper10start_readENS_16generic_bufptr_tIhEEPjNS_8CallbackIvJNS_10ReadResultEEEE
	.p2align	2
	.type	_ZN5fibre15PacketUnwrapper10start_readENS_16generic_bufptr_tIhEEPjNS_8CallbackIvJNS_10ReadResultEEEE,%function
	.code	16                              @ @_ZN5fibre15PacketUnwrapper10start_readENS_16generic_bufptr_tIhEEPjNS_8CallbackIvJNS_10ReadResultEEEE
	.thumb_func
_ZN5fibre15PacketUnwrapper10start_readENS_16generic_bufptr_tIhEEPjNS_8CallbackIvJNS_10ReadResultEEEE:
.Lfunc_begin14:
	.loc	3 95 0 is_stmt 1                @ ../fibre-cpp/legacy_protocol.cpp:95:0
	.fnstart
	.cfi_startproc
@ %bb.0:
	.save	{r7, lr}
	push	{r7, lr}
	.cfi_def_cfa_offset 8
	.cfi_offset lr, -4
	.cfi_offset r7, -8
	.pad	#72
	sub	sp, #72
	.cfi_def_cfa_offset 80
	str	r3, [sp, #20]                   @ 4-byte Spill
	str	r1, [sp, #24]                   @ 4-byte Spill
	str	r0, [sp, #68]
	str	r1, [sp, #64]
	str	r2, [sp, #60]
	str	r3, [sp, #56]
	ldr	r0, [sp, #68]
.Ltmp63:
	.loc	3 96 9 prologue_end             @ ../fibre-cpp/legacy_protocol.cpp:96:9
	str	r0, [sp, #28]                   @ 4-byte Spill
	ldr	r0, [sp, #60]
.Ltmp64:
	.loc	3 96 9 is_stmt 0                @ ../fibre-cpp/legacy_protocol.cpp:96:9
	cbz	r0, .LBB14_2
	b	.LBB14_1
.LBB14_1:
.Ltmp65:
	.loc	3 97 10 is_stmt 1               @ ../fibre-cpp/legacy_protocol.cpp:97:10
	ldr	r0, [sp, #28]                   @ 4-byte Reload
	ldr	r1, [sp, #60]
	.loc	3 97 17 is_stmt 0               @ ../fibre-cpp/legacy_protocol.cpp:97:17
	str	r0, [r1]
	.loc	3 98 5 is_stmt 1                @ ../fibre-cpp/legacy_protocol.cpp:98:5
	b	.LBB14_2
.Ltmp66:
.LBB14_2:
	.loc	3 100 9                         @ ../fibre-cpp/legacy_protocol.cpp:100:9
	ldr	r0, [sp, #28]                   @ 4-byte Reload
	ldrb.w	r0, [r0, #40]
.Ltmp67:
	.loc	3 100 9 is_stmt 0               @ ../fibre-cpp/legacy_protocol.cpp:100:9
	cbz	r0, .LBB14_4
	b	.LBB14_3
.LBB14_3:
	.loc	3 0 9                           @ ../fibre-cpp/legacy_protocol.cpp:0:9
	ldr	r0, [sp, #24]                   @ 4-byte Reload
	movs	r1, #3
.Ltmp68:
	.loc	3 101 26 is_stmt 1              @ ../fibre-cpp/legacy_protocol.cpp:101:26
	strb.w	r1, [sp, #48]
	.loc	3 101 48 is_stmt 0              @ ../fibre-cpp/legacy_protocol.cpp:101:48
	bl	_ZN5fibre16generic_bufptr_tIhE5beginEv
	mov	r1, r0
	ldr	r0, [sp, #20]                   @ 4-byte Reload
	ldr	r1, [r1]
	.loc	3 101 26                        @ ../fibre-cpp/legacy_protocol.cpp:101:26
	str	r1, [sp, #52]
	.loc	3 101 19                        @ ../fibre-cpp/legacy_protocol.cpp:101:19
	ldr	r1, [sp, #48]
	ldr	r2, [sp, #52]
	bl	_ZNK5fibre8CallbackIvJNS_10ReadResultEEE6invokeES1_
	.loc	3 102 5 is_stmt 1               @ ../fibre-cpp/legacy_protocol.cpp:102:5
	b	.LBB14_4
.Ltmp69:
.LBB14_4:
	.loc	3 104 16                        @ ../fibre-cpp/legacy_protocol.cpp:104:16
	ldr	r0, [sp, #28]                   @ 4-byte Reload
	ldr	r2, [sp, #24]                   @ 4-byte Reload
	ldr	r3, [sp, #20]                   @ 4-byte Reload
	ldr	r1, [r3]
	ldr	r3, [r3, #4]
	str	r3, [r0, #36]
	str	r1, [r0, #32]
	.loc	3 105 18                        @ ../fibre-cpp/legacy_protocol.cpp:105:18
	ldr	r1, [r2]
	ldr	r2, [r2, #4]
	str	r2, [r0, #28]
	str	r1, [r0, #24]
	movs	r1, #2
	.loc	3 107 12                        @ ../fibre-cpp/legacy_protocol.cpp:107:12
	strb.w	r1, [r0, #40]
	.loc	3 108 24                        @ ../fibre-cpp/legacy_protocol.cpp:108:24
	add.w	r1, r0, #12
	.loc	3 108 32 is_stmt 0              @ ../fibre-cpp/legacy_protocol.cpp:108:32
	add.w	r2, r0, #15
	.loc	3 108 22                        @ ../fibre-cpp/legacy_protocol.cpp:108:22
	str	r2, [r0, #16]
	.loc	3 109 5 is_stmt 1               @ ../fibre-cpp/legacy_protocol.cpp:109:5
	ldr	r2, [r0, #4]
	.loc	3 109 39 is_stmt 0              @ ../fibre-cpp/legacy_protocol.cpp:109:39
	str	r2, [sp, #4]                    @ 4-byte Spill
	ldr	r2, [r0, #16]
	add	r0, sp, #40
	.loc	3 109 29                        @ ../fibre-cpp/legacy_protocol.cpp:109:29
	str	r0, [sp, #8]                    @ 4-byte Spill
	bl	_ZN5fibre16generic_bufptr_tIhEC2EPhS2_
	ldr	r1, [sp, #28]                   @ 4-byte Reload
	.loc	3 109 59                        @ ../fibre-cpp/legacy_protocol.cpp:109:59
	add.w	r0, r1, #8
	.loc	3 109 83                        @ ../fibre-cpp/legacy_protocol.cpp:109:83
	str	r0, [sp, #12]                   @ 4-byte Spill
	add	r0, sp, #32
	str	r0, [sp, #16]                   @ 4-byte Spill
	bl	_ZN5fibre13make_callbackIMNS_15PacketUnwrapperEFvNS_10ReadResultEEXadL_ZNS1_8completeES2_EENS_15function_traitsIvS1_JS2_EEENS_14MemberCallbackIS4_XadL_ZNS1_8completeES2_EES1_vNSt3__25tupleIJS2_EEEEEEENT2_4cb_tEPNT1_4TObjE
	ldr	r0, [sp, #4]                    @ 4-byte Reload
	ldr	r1, [sp, #8]                    @ 4-byte Reload
	ldr	r2, [sp, #12]                   @ 4-byte Reload
	ldr	r3, [sp, #16]                   @ 4-byte Reload
	.loc	3 109 18                        @ ../fibre-cpp/legacy_protocol.cpp:109:18
	ldr.w	r12, [r0]
	ldr.w	r12, [r12]
	blx	r12
	.loc	3 110 1 epilogue_begin is_stmt 1 @ ../fibre-cpp/legacy_protocol.cpp:110:1
	add	sp, #72
	pop	{r7, pc}
.Ltmp70:
.Lfunc_end14:
	.size	_ZN5fibre15PacketUnwrapper10start_readENS_16generic_bufptr_tIhEEPjNS_8CallbackIvJNS_10ReadResultEEEE, .Lfunc_end14-_ZN5fibre15PacketUnwrapper10start_readENS_16generic_bufptr_tIhEEPjNS_8CallbackIvJNS_10ReadResultEEEE
	.cfi_endproc
	.cantunwind
	.fnend
                                        @ -- End function
	.section	.text._ZNK5fibre8CallbackIvJNS_10ReadResultEEE6invokeES1_,"axG",%progbits,_ZNK5fibre8CallbackIvJNS_10ReadResultEEE6invokeES1_,comdat
	.hidden	_ZNK5fibre8CallbackIvJNS_10ReadResultEEE6invokeES1_ @ -- Begin function _ZNK5fibre8CallbackIvJNS_10ReadResultEEE6invokeES1_
	.weak	_ZNK5fibre8CallbackIvJNS_10ReadResultEEE6invokeES1_
	.p2align	2
	.type	_ZNK5fibre8CallbackIvJNS_10ReadResultEEE6invokeES1_,%function
	.code	16                              @ @_ZNK5fibre8CallbackIvJNS_10ReadResultEEE6invokeES1_
	.thumb_func
_ZNK5fibre8CallbackIvJNS_10ReadResultEEE6invokeES1_:
.Lfunc_begin15:
	.loc	9 59 0                          @ ../fibre-cpp/include\fibre/callback.hpp:59:0
	.fnstart
	.cfi_startproc
@ %bb.0:
	.save	{r7, lr}
	push	{r7, lr}
	.cfi_def_cfa_offset 8
	.cfi_offset lr, -4
	.cfi_offset r7, -8
	.pad	#24
	sub	sp, #24
	.cfi_def_cfa_offset 32
                                        @ kill: def $r3 killed $r2
                                        @ kill: def $r3 killed $r1
	str	r2, [sp, #20]
	str	r1, [sp, #16]
	str	r0, [sp, #12]
	ldr	r0, [sp, #12]
.Ltmp71:
	.loc	9 60 13 prologue_end            @ ../fibre-cpp/include\fibre/callback.hpp:60:13
	str	r0, [sp]                        @ 4-byte Spill
	ldr	r0, [r0]
.Ltmp72:
	.loc	9 60 13 is_stmt 0               @ ../fibre-cpp/include\fibre/callback.hpp:60:13
	cbz	r0, .LBB15_2
	b	.LBB15_1
.LBB15_1:
.Ltmp73:
	.loc	9 61 22 is_stmt 1               @ ../fibre-cpp/include\fibre/callback.hpp:61:22
	ldr	r0, [sp]                        @ 4-byte Reload
	ldr	r3, [r0]
	.loc	9 61 27 is_stmt 0               @ ../fibre-cpp/include\fibre/callback.hpp:61:27
	ldr	r0, [r0, #4]
	.loc	9 61 33                         @ ../fibre-cpp/include\fibre/callback.hpp:61:33
	ldr	r1, [sp, #16]
	ldr	r2, [sp, #20]
	str	r2, [sp, #8]
	str	r1, [sp, #4]
	.loc	9 61 20                         @ ../fibre-cpp/include\fibre/callback.hpp:61:20
	ldr	r1, [sp, #4]
	ldr	r2, [sp, #8]
	blx	r3
	.loc	9 61 13                         @ ../fibre-cpp/include\fibre/callback.hpp:61:13
	b	.LBB15_3
.Ltmp74:
.LBB15_2:
	.loc	9 63 16 is_stmt 1               @ ../fibre-cpp/include\fibre/callback.hpp:63:16
	bl	_ZN5fibre6detail11get_defaultIvE3valEv
	.loc	9 63 9 is_stmt 0                @ ../fibre-cpp/include\fibre/callback.hpp:63:9
	b	.LBB15_3
.LBB15_3:
	.loc	9 64 5 epilogue_begin is_stmt 1 @ ../fibre-cpp/include\fibre/callback.hpp:64:5
	add	sp, #24
	pop	{r7, pc}
.Ltmp75:
.Lfunc_end15:
	.size	_ZNK5fibre8CallbackIvJNS_10ReadResultEEE6invokeES1_, .Lfunc_end15-_ZNK5fibre8CallbackIvJNS_10ReadResultEEE6invokeES1_
	.cfi_endproc
	.cantunwind
	.fnend
                                        @ -- End function
	.section	.text._ZN5fibre16generic_bufptr_tIhE5beginEv,"axG",%progbits,_ZN5fibre16generic_bufptr_tIhE5beginEv,comdat
	.hidden	_ZN5fibre16generic_bufptr_tIhE5beginEv @ -- Begin function _ZN5fibre16generic_bufptr_tIhE5beginEv
	.weak	_ZN5fibre16generic_bufptr_tIhE5beginEv
	.p2align	2
	.type	_ZN5fibre16generic_bufptr_tIhE5beginEv,%function
	.code	16                              @ @_ZN5fibre16generic_bufptr_tIhE5beginEv
	.thumb_func
_ZN5fibre16generic_bufptr_tIhE5beginEv:
.Lfunc_begin16:
	.loc	7 82 0                          @ ../fibre-cpp/include\fibre/bufptr.hpp:82:0
	.fnstart
	.cfi_startproc
@ %bb.0:
	.pad	#4
	sub	sp, #4
	.cfi_def_cfa_offset 4
	str	r0, [sp]
	ldr	r0, [sp]
.Ltmp76:
	.loc	7 82 19 prologue_end epilogue_begin @ ../fibre-cpp/include\fibre/bufptr.hpp:82:19
	add	sp, #4
	bx	lr
.Ltmp77:
.Lfunc_end16:
	.size	_ZN5fibre16generic_bufptr_tIhE5beginEv, .Lfunc_end16-_ZN5fibre16generic_bufptr_tIhE5beginEv
	.cfi_endproc
	.cantunwind
	.fnend
                                        @ -- End function
	.section	.text._ZN5fibre16generic_bufptr_tIhEC2EPhS2_,"axG",%progbits,_ZN5fibre16generic_bufptr_tIhEC2EPhS2_,comdat
	.hidden	_ZN5fibre16generic_bufptr_tIhEC2EPhS2_ @ -- Begin function _ZN5fibre16generic_bufptr_tIhEC2EPhS2_
	.weak	_ZN5fibre16generic_bufptr_tIhEC2EPhS2_
	.p2align	2
	.type	_ZN5fibre16generic_bufptr_tIhEC2EPhS2_,%function
	.code	16                              @ @_ZN5fibre16generic_bufptr_tIhEC2EPhS2_
	.thumb_func
_ZN5fibre16generic_bufptr_tIhEC2EPhS2_:
.Lfunc_begin17:
	.loc	7 23 0                          @ ../fibre-cpp/include\fibre/bufptr.hpp:23:0
	.fnstart
	.cfi_startproc
@ %bb.0:
	.pad	#12
	sub	sp, #12
	.cfi_def_cfa_offset 12
	str	r0, [sp, #8]
	str	r1, [sp, #4]
	str	r2, [sp]
	ldr	r0, [sp, #8]
.Ltmp78:
	.loc	7 23 49 prologue_end            @ ../fibre-cpp/include\fibre/bufptr.hpp:23:49
	ldr	r1, [sp, #4]
	.loc	7 23 42 is_stmt 0               @ ../fibre-cpp/include\fibre/bufptr.hpp:23:42
	str	r1, [r0]
	.loc	7 23 62                         @ ../fibre-cpp/include\fibre/bufptr.hpp:23:62
	ldr	r1, [sp]
	.loc	7 23 57                         @ ../fibre-cpp/include\fibre/bufptr.hpp:23:57
	str	r1, [r0, #4]
	.loc	7 23 68 epilogue_begin          @ ../fibre-cpp/include\fibre/bufptr.hpp:23:68
	add	sp, #12
	bx	lr
.Ltmp79:
.Lfunc_end17:
	.size	_ZN5fibre16generic_bufptr_tIhEC2EPhS2_, .Lfunc_end17-_ZN5fibre16generic_bufptr_tIhEC2EPhS2_
	.cfi_endproc
	.cantunwind
	.fnend
                                        @ -- End function
	.section	.text._ZN5fibre13make_callbackIMNS_15PacketUnwrapperEFvNS_10ReadResultEEXadL_ZNS1_8completeES2_EENS_15function_traitsIvS1_JS2_EEENS_14MemberCallbackIS4_XadL_ZNS1_8completeES2_EES1_vNSt3__25tupleIJS2_EEEEEEENT2_4cb_tEPNT1_4TObjE,"axG",%progbits,_ZN5fibre13make_callbackIMNS_15PacketUnwrapperEFvNS_10ReadResultEEXadL_ZNS1_8completeES2_EENS_15function_traitsIvS1_JS2_EEENS_14MemberCallbackIS4_XadL_ZNS1_8completeES2_EES1_vNSt3__25tupleIJS2_EEEEEEENT2_4cb_tEPNT1_4TObjE,comdat
	.hidden	_ZN5fibre13make_callbackIMNS_15PacketUnwrapperEFvNS_10ReadResultEEXadL_ZNS1_8completeES2_EENS_15function_traitsIvS1_JS2_EEENS_14MemberCallbackIS4_XadL_ZNS1_8completeES2_EES1_vNSt3__25tupleIJS2_EEEEEEENT2_4cb_tEPNT1_4TObjE @ -- Begin function _ZN5fibre13make_callbackIMNS_15PacketUnwrapperEFvNS_10ReadResultEEXadL_ZNS1_8completeES2_EENS_15function_traitsIvS1_JS2_EEENS_14MemberCallbackIS4_XadL_ZNS1_8completeES2_EES1_vNSt3__25tupleIJS2_EEEEEEENT2_4cb_tEPNT1_4TObjE
	.weak	_ZN5fibre13make_callbackIMNS_15PacketUnwrapperEFvNS_10ReadResultEEXadL_ZNS1_8completeES2_EENS_15function_traitsIvS1_JS2_EEENS_14MemberCallbackIS4_XadL_ZNS1_8completeES2_EES1_vNSt3__25tupleIJS2_EEEEEEENT2_4cb_tEPNT1_4TObjE
	.p2align	2
	.type	_ZN5fibre13make_callbackIMNS_15PacketUnwrapperEFvNS_10ReadResultEEXadL_ZNS1_8completeES2_EENS_15function_traitsIvS1_JS2_EEENS_14MemberCallbackIS4_XadL_ZNS1_8completeES2_EES1_vNSt3__25tupleIJS2_EEEEEEENT2_4cb_tEPNT1_4TObjE,%function
	.code	16                              @ @_ZN5fibre13make_callbackIMNS_15PacketUnwrapperEFvNS_10ReadResultEEXadL_ZNS1_8completeES2_EENS_15function_traitsIvS1_JS2_EEENS_14MemberCallbackIS4_XadL_ZNS1_8completeES2_EES1_vNSt3__25tupleIJS2_EEEEEEENT2_4cb_tEPNT1_4TObjE
	.thumb_func
_ZN5fibre13make_callbackIMNS_15PacketUnwrapperEFvNS_10ReadResultEEXadL_ZNS1_8completeES2_EENS_15function_traitsIvS1_JS2_EEENS_14MemberCallbackIS4_XadL_ZNS1_8completeES2_EES1_vNSt3__25tupleIJS2_EEEEEEENT2_4cb_tEPNT1_4TObjE:
.Lfunc_begin18:
	.loc	9 114 0 is_stmt 1               @ ../fibre-cpp/include\fibre/callback.hpp:114:0
	.fnstart
	.cfi_startproc
@ %bb.0:
	.save	{r7, lr}
	push	{r7, lr}
	.cfi_def_cfa_offset 8
	.cfi_offset lr, -4
	.cfi_offset r7, -8
	.pad	#8
	sub	sp, #8
	.cfi_def_cfa_offset 16
	str	r0, [sp, #4]
	str	r1, [sp]
.Ltmp80:
	.loc	9 115 24 prologue_end           @ ../fibre-cpp/include\fibre/callback.hpp:115:24
	ldr	r1, [sp]
	.loc	9 115 12 is_stmt 0              @ ../fibre-cpp/include\fibre/callback.hpp:115:12
	bl	_ZN5fibre14MemberCallbackIMNS_15PacketUnwrapperEFvNS_10ReadResultEEXadL_ZNS1_8completeES2_EES1_vNSt3__25tupleIJS2_EEEE4withEPS1_
	.loc	9 115 5 epilogue_begin          @ ../fibre-cpp/include\fibre/callback.hpp:115:5
	add	sp, #8
	pop	{r7, pc}
.Ltmp81:
.Lfunc_end18:
	.size	_ZN5fibre13make_callbackIMNS_15PacketUnwrapperEFvNS_10ReadResultEEXadL_ZNS1_8completeES2_EENS_15function_traitsIvS1_JS2_EEENS_14MemberCallbackIS4_XadL_ZNS1_8completeES2_EES1_vNSt3__25tupleIJS2_EEEEEEENT2_4cb_tEPNT1_4TObjE, .Lfunc_end18-_ZN5fibre13make_callbackIMNS_15PacketUnwrapperEFvNS_10ReadResultEEXadL_ZNS1_8completeES2_EENS_15function_traitsIvS1_JS2_EEENS_14MemberCallbackIS4_XadL_ZNS1_8completeES2_EES1_vNSt3__25tupleIJS2_EEEEEEENT2_4cb_tEPNT1_4TObjE
	.cfi_endproc
	.cantunwind
	.fnend
                                        @ -- End function
	.section	.text._ZN5fibre15PacketUnwrapper11cancel_readEj,"ax",%progbits
	.hidden	_ZN5fibre15PacketUnwrapper11cancel_readEj @ -- Begin function _ZN5fibre15PacketUnwrapper11cancel_readEj
	.globl	_ZN5fibre15PacketUnwrapper11cancel_readEj
	.p2align	2
	.type	_ZN5fibre15PacketUnwrapper11cancel_readEj,%function
	.code	16                              @ @_ZN5fibre15PacketUnwrapper11cancel_readEj
	.thumb_func
_ZN5fibre15PacketUnwrapper11cancel_readEj:
.Lfunc_begin19:
	.loc	3 112 0 is_stmt 1               @ ../fibre-cpp/legacy_protocol.cpp:112:0
	.fnstart
	.cfi_startproc
@ %bb.0:
	.save	{r7, lr}
	push	{r7, lr}
	.cfi_def_cfa_offset 8
	.cfi_offset lr, -4
	.cfi_offset r7, -8
	.pad	#8
	sub	sp, #8
	.cfi_def_cfa_offset 16
	str	r0, [sp, #4]
	str	r1, [sp]
	ldr	r1, [sp, #4]
	movs	r0, #1
.Ltmp82:
	.loc	3 113 12 prologue_end           @ ../fibre-cpp/legacy_protocol.cpp:113:12
	strb.w	r0, [r1, #40]
	.loc	3 114 5                         @ ../fibre-cpp/legacy_protocol.cpp:114:5
	ldr	r0, [r1, #4]
	.loc	3 114 30 is_stmt 0              @ ../fibre-cpp/legacy_protocol.cpp:114:30
	ldr	r1, [r1, #8]
	.loc	3 114 18                        @ ../fibre-cpp/legacy_protocol.cpp:114:18
	ldr	r2, [r0]
	ldr	r2, [r2, #4]
	blx	r2
	.loc	3 115 1 epilogue_begin is_stmt 1 @ ../fibre-cpp/legacy_protocol.cpp:115:1
	add	sp, #8
	pop	{r7, pc}
.Ltmp83:
.Lfunc_end19:
	.size	_ZN5fibre15PacketUnwrapper11cancel_readEj, .Lfunc_end19-_ZN5fibre15PacketUnwrapper11cancel_readEj
	.cfi_endproc
	.cantunwind
	.fnend
                                        @ -- End function
	.section	.text._ZN5fibre15PacketUnwrapper8completeENS_10ReadResultE,"ax",%progbits
	.hidden	_ZN5fibre15PacketUnwrapper8completeENS_10ReadResultE @ -- Begin function _ZN5fibre15PacketUnwrapper8completeENS_10ReadResultE
	.globl	_ZN5fibre15PacketUnwrapper8completeENS_10ReadResultE
	.p2align	2
	.type	_ZN5fibre15PacketUnwrapper8completeENS_10ReadResultE,%function
	.code	16                              @ @_ZN5fibre15PacketUnwrapper8completeENS_10ReadResultE
	.thumb_func
_ZN5fibre15PacketUnwrapper8completeENS_10ReadResultE:
.Lfunc_begin20:
	.loc	3 117 0                         @ ../fibre-cpp/legacy_protocol.cpp:117:0
	.fnstart
	.cfi_startproc
@ %bb.0:
	.save	{r7, lr}
	push	{r7, lr}
	.cfi_def_cfa_offset 8
	.cfi_offset lr, -4
	.cfi_offset r7, -8
	.pad	#248
	sub	sp, #248
	.cfi_def_cfa_offset 256
                                        @ kill: def $r3 killed $r2
                                        @ kill: def $r3 killed $r1
	str	r2, [sp, #244]
	str	r1, [sp, #240]
	str	r0, [sp, #236]
	ldr	r0, [sp, #236]
.Ltmp84:
	.loc	3 122 9 prologue_end            @ ../fibre-cpp/legacy_protocol.cpp:122:9
	str	r0, [sp, #104]                  @ 4-byte Spill
	ldrb.w	r0, [r0, #40]
.Ltmp85:
	.loc	3 122 9 is_stmt 0               @ ../fibre-cpp/legacy_protocol.cpp:122:9
	cmp	r0, #1
	bne	.LBB20_2
	b	.LBB20_1
.LBB20_1:
	.loc	3 0 9                           @ ../fibre-cpp/legacy_protocol.cpp:0:9
	ldr	r0, [sp, #104]                  @ 4-byte Reload
	movs	r1, #0
.Ltmp86:
	.loc	3 123 16 is_stmt 1              @ ../fibre-cpp/legacy_protocol.cpp:123:16
	strb.w	r1, [r0, #40]
	.loc	3 124 9                         @ ../fibre-cpp/legacy_protocol.cpp:124:9
	add.w	r1, r0, #32
	str	r1, [sp, #100]                  @ 4-byte Spill
	movs	r1, #1
	.loc	3 124 37 is_stmt 0              @ ../fibre-cpp/legacy_protocol.cpp:124:37
	strb.w	r1, [sp, #228]
	.loc	3 124 56                        @ ../fibre-cpp/legacy_protocol.cpp:124:56
	adds	r0, #24
	.loc	3 124 69                        @ ../fibre-cpp/legacy_protocol.cpp:124:69
	bl	_ZN5fibre16generic_bufptr_tIhE5beginEv
	mov	r1, r0
	ldr	r0, [sp, #100]                  @ 4-byte Reload
	ldr	r1, [r1]
	.loc	3 124 37                        @ ../fibre-cpp/legacy_protocol.cpp:124:37
	str	r1, [sp, #232]
	.loc	3 124 20                        @ ../fibre-cpp/legacy_protocol.cpp:124:20
	ldr	r1, [sp, #228]
	ldr	r2, [sp, #232]
	bl	_ZN5fibre8CallbackIvJNS_10ReadResultEEE16invoke_and_clearES1_
	.loc	3 125 9 is_stmt 1               @ ../fibre-cpp/legacy_protocol.cpp:125:9
	b	.LBB20_26
.Ltmp87:
.LBB20_2:
	.loc	3 128 16                        @ ../fibre-cpp/legacy_protocol.cpp:128:16
	ldrb.w	r0, [sp, #240]
.Ltmp88:
	.loc	3 128 9 is_stmt 0               @ ../fibre-cpp/legacy_protocol.cpp:128:9
	cbz	r0, .LBB20_4
	b	.LBB20_3
.LBB20_3:
	.loc	3 0 9                           @ ../fibre-cpp/legacy_protocol.cpp:0:9
	ldr	r0, [sp, #104]                  @ 4-byte Reload
	movs	r1, #0
.Ltmp89:
	.loc	3 129 16 is_stmt 1              @ ../fibre-cpp/legacy_protocol.cpp:129:16
	strb.w	r1, [r0, #40]
	.loc	3 130 9                         @ ../fibre-cpp/legacy_protocol.cpp:130:9
	add.w	r1, r0, #32
	.loc	3 130 45 is_stmt 0              @ ../fibre-cpp/legacy_protocol.cpp:130:45
	str	r1, [sp, #96]                   @ 4-byte Spill
	ldrb.w	r1, [sp, #240]
	.loc	3 130 37                        @ ../fibre-cpp/legacy_protocol.cpp:130:37
	strb.w	r1, [sp, #220]
	.loc	3 130 53                        @ ../fibre-cpp/legacy_protocol.cpp:130:53
	adds	r0, #24
	.loc	3 130 66                        @ ../fibre-cpp/legacy_protocol.cpp:130:66
	bl	_ZN5fibre16generic_bufptr_tIhE5beginEv
	mov	r1, r0
	ldr	r0, [sp, #96]                   @ 4-byte Reload
	ldr	r1, [r1]
	.loc	3 130 37                        @ ../fibre-cpp/legacy_protocol.cpp:130:37
	str	r1, [sp, #224]
	.loc	3 130 20                        @ ../fibre-cpp/legacy_protocol.cpp:130:20
	ldr	r1, [sp, #220]
	ldr	r2, [sp, #224]
	bl	_ZN5fibre8CallbackIvJNS_10ReadResultEEE16invoke_and_clearES1_
	.loc	3 131 9 is_stmt 1               @ ../fibre-cpp/legacy_protocol.cpp:131:9
	b	.LBB20_26
.Ltmp90:
.LBB20_4:
	.loc	3 134 16                        @ ../fibre-cpp/legacy_protocol.cpp:134:16
	ldr	r1, [sp, #104]                  @ 4-byte Reload
	ldr	r0, [sp, #244]
	.loc	3 134 22 is_stmt 0              @ ../fibre-cpp/legacy_protocol.cpp:134:22
	ldr	r1, [r1, #16]
.Ltmp91:
	.loc	3 134 9                         @ ../fibre-cpp/legacy_protocol.cpp:134:9
	cmp	r0, r1
	bhs	.LBB20_6
	b	.LBB20_5
.LBB20_5:
.Ltmp92:
	.loc	3 135 41 is_stmt 1              @ ../fibre-cpp/legacy_protocol.cpp:135:41
	ldr	r0, [sp, #104]                  @ 4-byte Reload
	ldr	r1, [sp, #244]
	.loc	3 135 9 is_stmt 0               @ ../fibre-cpp/legacy_protocol.cpp:135:9
	ldr	r2, [r0, #4]
	.loc	3 135 46                        @ ../fibre-cpp/legacy_protocol.cpp:135:46
	str	r2, [sp, #80]                   @ 4-byte Spill
	ldr	r2, [r0, #16]
	add	r0, sp, #212
	.loc	3 135 33                        @ ../fibre-cpp/legacy_protocol.cpp:135:33
	str	r0, [sp, #84]                   @ 4-byte Spill
	bl	_ZN5fibre16generic_bufptr_tIhEC2EPhS2_
	ldr	r1, [sp, #104]                  @ 4-byte Reload
	.loc	3 135 66                        @ ../fibre-cpp/legacy_protocol.cpp:135:66
	add.w	r0, r1, #8
	.loc	3 135 90                        @ ../fibre-cpp/legacy_protocol.cpp:135:90
	str	r0, [sp, #88]                   @ 4-byte Spill
	add	r0, sp, #204
	str	r0, [sp, #92]                   @ 4-byte Spill
	bl	_ZN5fibre13make_callbackIMNS_15PacketUnwrapperEFvNS_10ReadResultEEXadL_ZNS1_8completeES2_EENS_15function_traitsIvS1_JS2_EEENS_14MemberCallbackIS4_XadL_ZNS1_8completeES2_EES1_vNSt3__25tupleIJS2_EEEEEEENT2_4cb_tEPNT1_4TObjE
	ldr	r0, [sp, #80]                   @ 4-byte Reload
	ldr	r1, [sp, #84]                   @ 4-byte Reload
	ldr	r2, [sp, #88]                   @ 4-byte Reload
	ldr	r3, [sp, #92]                   @ 4-byte Reload
	.loc	3 135 22                        @ ../fibre-cpp/legacy_protocol.cpp:135:22
	ldr.w	r12, [r0]
	ldr.w	r12, [r12]
	blx	r12
	.loc	3 136 9 is_stmt 1               @ ../fibre-cpp/legacy_protocol.cpp:136:9
	b	.LBB20_26
.Ltmp93:
.LBB20_6:
	.loc	3 139 9                         @ ../fibre-cpp/legacy_protocol.cpp:139:9
	ldr	r0, [sp, #104]                  @ 4-byte Reload
	ldrb.w	r0, [r0, #40]
.Ltmp94:
	.loc	3 139 9 is_stmt 0               @ ../fibre-cpp/legacy_protocol.cpp:139:9
	cmp	r0, #2
	bne.w	.LBB20_17
	b	.LBB20_7
.LBB20_7:
.Ltmp95:
	.loc	3 143 13 is_stmt 1              @ ../fibre-cpp/legacy_protocol.cpp:143:13
	ldr	r0, [sp, #104]                  @ 4-byte Reload
	ldrb	r0, [r0, #12]
.Ltmp96:
	.loc	3 143 13 is_stmt 0              @ ../fibre-cpp/legacy_protocol.cpp:143:13
	cmp	r0, #170
	beq	.LBB20_9
	b	.LBB20_8
.LBB20_8:
	.loc	3 0 13                          @ ../fibre-cpp/legacy_protocol.cpp:0:13
	movs	r0, #1
.Ltmp97:
	.loc	3 144 23 is_stmt 1              @ ../fibre-cpp/legacy_protocol.cpp:144:23
	str	r0, [sp, #200]
	.loc	3 145 9                         @ ../fibre-cpp/legacy_protocol.cpp:145:9
	b	.LBB20_16
.Ltmp98:
.LBB20_9:
	.loc	3 145 21 is_stmt 0              @ ../fibre-cpp/legacy_protocol.cpp:145:21
	ldr	r0, [sp, #104]                  @ 4-byte Reload
	ldrb	r0, [r0, #13]
.Ltmp99:
	.loc	3 145 20                        @ ../fibre-cpp/legacy_protocol.cpp:145:20
	lsls	r0, r0, #24
	cmp	r0, #0
	bpl	.LBB20_11
	b	.LBB20_10
.LBB20_10:
	.loc	3 0 20                          @ ../fibre-cpp/legacy_protocol.cpp:0:20
	movs	r0, #2
.Ltmp100:
	.loc	3 146 23 is_stmt 1              @ ../fibre-cpp/legacy_protocol.cpp:146:23
	str	r0, [sp, #200]
	.loc	3 147 9                         @ ../fibre-cpp/legacy_protocol.cpp:147:9
	b	.LBB20_15
.Ltmp101:
.LBB20_11:
	.loc	3 147 78 is_stmt 0              @ ../fibre-cpp/legacy_protocol.cpp:147:78
	ldr	r0, [sp, #104]                  @ 4-byte Reload
	add.w	r1, r0, #12
	movs	r0, #66
	movs	r2, #3
	.loc	3 147 20                        @ ../fibre-cpp/legacy_protocol.cpp:147:20
	bl	_ZL9calc_crc8ILj55EEhhPKhj
.Ltmp102:
	.loc	3 147 20                        @ ../fibre-cpp/legacy_protocol.cpp:147:20
	cbz	r0, .LBB20_13
	b	.LBB20_12
.LBB20_12:
	.loc	3 0 20                          @ ../fibre-cpp/legacy_protocol.cpp:0:20
	movs	r0, #3
.Ltmp103:
	.loc	3 148 23 is_stmt 1              @ ../fibre-cpp/legacy_protocol.cpp:148:23
	str	r0, [sp, #200]
	.loc	3 149 9                         @ ../fibre-cpp/legacy_protocol.cpp:149:9
	b	.LBB20_14
.Ltmp104:
.LBB20_13:
	.loc	3 0 9 is_stmt 0                 @ ../fibre-cpp/legacy_protocol.cpp:0:9
	ldr	r0, [sp, #104]                  @ 4-byte Reload
	movs	r1, #3
.Ltmp105:
	.loc	3 150 20 is_stmt 1              @ ../fibre-cpp/legacy_protocol.cpp:150:20
	strb.w	r1, [r0, #40]
	.loc	3 151 40                        @ ../fibre-cpp/legacy_protocol.cpp:151:40
	adds	r0, #24
	.loc	3 151 53 is_stmt 0              @ ../fibre-cpp/legacy_protocol.cpp:151:53
	str	r0, [sp, #60]                   @ 4-byte Spill
	bl	_ZNK5fibre16generic_bufptr_tIhE4sizeEv
	mov	r1, r0
	.loc	3 151 40                        @ ../fibre-cpp/legacy_protocol.cpp:151:40
	ldr	r0, [sp, #104]                  @ 4-byte Reload
	str	r1, [sp, #196]
	.loc	3 151 69                        @ ../fibre-cpp/legacy_protocol.cpp:151:69
	ldrb	r0, [r0, #13]
	.loc	3 151 61                        @ ../fibre-cpp/legacy_protocol.cpp:151:61
	str	r0, [sp, #192]
	add	r0, sp, #196
	add	r1, sp, #192
	.loc	3 151 31                        @ ../fibre-cpp/legacy_protocol.cpp:151:31
	bl	_ZNSt3__23minB7v180000IjEERKT_S3_S3_
	ldr	r2, [sp, #104]                  @ 4-byte Reload
	mov	r1, r0
	ldr	r0, [sp, #60]                   @ 4-byte Reload
	ldr	r1, [r1]
	.loc	3 151 29                        @ ../fibre-cpp/legacy_protocol.cpp:151:29
	str	r1, [r2, #20]
	.loc	3 152 45 is_stmt 1              @ ../fibre-cpp/legacy_protocol.cpp:152:45
	bl	_ZN5fibre16generic_bufptr_tIhE5beginEv
	ldr	r1, [sp, #60]                   @ 4-byte Reload
	mov	r2, r0
	ldr	r0, [sp, #104]                  @ 4-byte Reload
	ldr	r2, [r2]
	.loc	3 152 55 is_stmt 0              @ ../fibre-cpp/legacy_protocol.cpp:152:55
	ldr	r3, [r0, #20]
	.loc	3 152 53                        @ ../fibre-cpp/legacy_protocol.cpp:152:53
	add	r2, r3
	.loc	3 152 30                        @ ../fibre-cpp/legacy_protocol.cpp:152:30
	str	r2, [r0, #16]
	.loc	3 153 13 is_stmt 1              @ ../fibre-cpp/legacy_protocol.cpp:153:13
	ldr	r2, [r0, #4]
	.loc	3 153 55 is_stmt 0              @ ../fibre-cpp/legacy_protocol.cpp:153:55
	str	r2, [sp, #64]                   @ 4-byte Spill
	ldr	r2, [r0, #20]
	add	r0, sp, #184
	.loc	3 153 50                        @ ../fibre-cpp/legacy_protocol.cpp:153:50
	str	r0, [sp, #68]                   @ 4-byte Spill
	bl	_ZNK5fibre16generic_bufptr_tIhE4takeEj
	ldr	r1, [sp, #104]                  @ 4-byte Reload
	.loc	3 153 74                        @ ../fibre-cpp/legacy_protocol.cpp:153:74
	add.w	r0, r1, #8
	.loc	3 153 98                        @ ../fibre-cpp/legacy_protocol.cpp:153:98
	str	r0, [sp, #72]                   @ 4-byte Spill
	add	r0, sp, #176
	str	r0, [sp, #76]                   @ 4-byte Spill
	bl	_ZN5fibre13make_callbackIMNS_15PacketUnwrapperEFvNS_10ReadResultEEXadL_ZNS1_8completeES2_EENS_15function_traitsIvS1_JS2_EEENS_14MemberCallbackIS4_XadL_ZNS1_8completeES2_EES1_vNSt3__25tupleIJS2_EEEEEEENT2_4cb_tEPNT1_4TObjE
	ldr	r0, [sp, #64]                   @ 4-byte Reload
	ldr	r1, [sp, #68]                   @ 4-byte Reload
	ldr	r2, [sp, #72]                   @ 4-byte Reload
	ldr	r3, [sp, #76]                   @ 4-byte Reload
	.loc	3 153 26                        @ ../fibre-cpp/legacy_protocol.cpp:153:26
	ldr.w	r12, [r0]
	ldr.w	r12, [r12]
	blx	r12
	.loc	3 154 13 is_stmt 1              @ ../fibre-cpp/legacy_protocol.cpp:154:13
	b	.LBB20_26
.Ltmp106:
.LBB20_14:
	.loc	3 0 13 is_stmt 0                @ ../fibre-cpp/legacy_protocol.cpp:0:13
	b	.LBB20_15
.LBB20_15:
	b	.LBB20_16
.LBB20_16:
	.loc	3 158 17 is_stmt 1              @ ../fibre-cpp/legacy_protocol.cpp:158:17
	ldr	r0, [sp, #104]                  @ 4-byte Reload
	adds	r0, #12
	.loc	3 158 36 is_stmt 0              @ ../fibre-cpp/legacy_protocol.cpp:158:36
	str	r0, [sp, #36]                   @ 4-byte Spill
	ldr	r2, [sp, #200]
	.loc	3 158 34                        @ ../fibre-cpp/legacy_protocol.cpp:158:34
	adds	r1, r0, r2
	.loc	3 158 63                        @ ../fibre-cpp/legacy_protocol.cpp:158:63
	rsb.w	r2, r2, #3
	.loc	3 158 9                         @ ../fibre-cpp/legacy_protocol.cpp:158:9
	bl	__aeabi_memmove
	ldr	r1, [sp, #36]                   @ 4-byte Reload
	ldr	r0, [sp, #104]                  @ 4-byte Reload
	.loc	3 159 9 is_stmt 1               @ ../fibre-cpp/legacy_protocol.cpp:159:9
	ldr	r0, [r0, #4]
	.loc	3 159 33 is_stmt 0              @ ../fibre-cpp/legacy_protocol.cpp:159:33
	str	r0, [sp, #44]                   @ 4-byte Spill
	add	r0, sp, #160
	str	r0, [sp, #40]                   @ 4-byte Spill
	bl	_ZN5fibre16generic_bufptr_tIhEC2ILj3EEERAT__h
	ldr	r1, [sp, #40]                   @ 4-byte Reload
	.loc	3 159 60                        @ ../fibre-cpp/legacy_protocol.cpp:159:60
	ldr	r0, [sp, #200]
	.loc	3 159 58                        @ ../fibre-cpp/legacy_protocol.cpp:159:58
	rsb.w	r2, r0, #3
	add	r0, sp, #168
	str	r0, [sp, #48]                   @ 4-byte Spill
	movs	r3, #0
	.loc	3 159 51                        @ ../fibre-cpp/legacy_protocol.cpp:159:51
	bl	_ZNK5fibre16generic_bufptr_tIhE4skipEjPj
	ldr	r1, [sp, #104]                  @ 4-byte Reload
	.loc	3 159 73                        @ ../fibre-cpp/legacy_protocol.cpp:159:73
	add.w	r0, r1, #8
	.loc	3 159 97                        @ ../fibre-cpp/legacy_protocol.cpp:159:97
	str	r0, [sp, #52]                   @ 4-byte Spill
	add	r0, sp, #152
	str	r0, [sp, #56]                   @ 4-byte Spill
	bl	_ZN5fibre13make_callbackIMNS_15PacketUnwrapperEFvNS_10ReadResultEEXadL_ZNS1_8completeES2_EENS_15function_traitsIvS1_JS2_EEENS_14MemberCallbackIS4_XadL_ZNS1_8completeES2_EES1_vNSt3__25tupleIJS2_EEEEEEENT2_4cb_tEPNT1_4TObjE
	ldr	r0, [sp, #44]                   @ 4-byte Reload
	ldr	r1, [sp, #48]                   @ 4-byte Reload
	ldr	r2, [sp, #52]                   @ 4-byte Reload
	ldr	r3, [sp, #56]                   @ 4-byte Reload
	.loc	3 159 22                        @ ../fibre-cpp/legacy_protocol.cpp:159:22
	ldr.w	r12, [r0]
	ldr.w	r12, [r12]
	blx	r12
	.loc	3 161 5 is_stmt 1               @ ../fibre-cpp/legacy_protocol.cpp:161:5
	b	.LBB20_26
.Ltmp107:
.LBB20_17:
	.loc	3 161 16 is_stmt 0              @ ../fibre-cpp/legacy_protocol.cpp:161:16
	ldr	r0, [sp, #104]                  @ 4-byte Reload
	ldrb.w	r0, [r0, #40]
.Ltmp108:
	.loc	3 161 16                        @ ../fibre-cpp/legacy_protocol.cpp:161:16
	cmp	r0, #3
	bne	.LBB20_19
	b	.LBB20_18
.LBB20_18:
.Ltmp109:
	.loc	3 162 28 is_stmt 1              @ ../fibre-cpp/legacy_protocol.cpp:162:28
	ldr	r0, [sp, #104]                  @ 4-byte Reload
	add.w	r1, r0, #12
	.loc	3 162 36 is_stmt 0              @ ../fibre-cpp/legacy_protocol.cpp:162:36
	add.w	r2, r0, #14
	.loc	3 162 26                        @ ../fibre-cpp/legacy_protocol.cpp:162:26
	str	r2, [r0, #16]
	movs	r2, #4
	.loc	3 163 16 is_stmt 1              @ ../fibre-cpp/legacy_protocol.cpp:163:16
	strb.w	r2, [r0, #40]
	.loc	3 164 9                         @ ../fibre-cpp/legacy_protocol.cpp:164:9
	ldr	r2, [r0, #4]
	.loc	3 164 43 is_stmt 0              @ ../fibre-cpp/legacy_protocol.cpp:164:43
	str	r2, [sp, #20]                   @ 4-byte Spill
	ldr	r2, [r0, #16]
	add	r0, sp, #144
	.loc	3 164 33                        @ ../fibre-cpp/legacy_protocol.cpp:164:33
	str	r0, [sp, #24]                   @ 4-byte Spill
	bl	_ZN5fibre16generic_bufptr_tIhEC2EPhS2_
	ldr	r1, [sp, #104]                  @ 4-byte Reload
	.loc	3 164 63                        @ ../fibre-cpp/legacy_protocol.cpp:164:63
	add.w	r0, r1, #8
	.loc	3 164 87                        @ ../fibre-cpp/legacy_protocol.cpp:164:87
	str	r0, [sp, #28]                   @ 4-byte Spill
	add	r0, sp, #136
	str	r0, [sp, #32]                   @ 4-byte Spill
	bl	_ZN5fibre13make_callbackIMNS_15PacketUnwrapperEFvNS_10ReadResultEEXadL_ZNS1_8completeES2_EENS_15function_traitsIvS1_JS2_EEENS_14MemberCallbackIS4_XadL_ZNS1_8completeES2_EES1_vNSt3__25tupleIJS2_EEEEEEENT2_4cb_tEPNT1_4TObjE
	ldr	r0, [sp, #20]                   @ 4-byte Reload
	ldr	r1, [sp, #24]                   @ 4-byte Reload
	ldr	r2, [sp, #28]                   @ 4-byte Reload
	ldr	r3, [sp, #32]                   @ 4-byte Reload
	.loc	3 164 22                        @ ../fibre-cpp/legacy_protocol.cpp:164:22
	ldr.w	r12, [r0]
	ldr.w	r12, [r12]
	blx	r12
	.loc	3 166 5 is_stmt 1               @ ../fibre-cpp/legacy_protocol.cpp:166:5
	b	.LBB20_25
.Ltmp110:
.LBB20_19:
	.loc	3 166 16 is_stmt 0              @ ../fibre-cpp/legacy_protocol.cpp:166:16
	ldr	r0, [sp, #104]                  @ 4-byte Reload
	ldrb.w	r0, [r0, #40]
.Ltmp111:
	.loc	3 166 16                        @ ../fibre-cpp/legacy_protocol.cpp:166:16
	cmp	r0, #4
	bne	.LBB20_24
	b	.LBB20_20
.LBB20_20:
.Ltmp112:
	.loc	3 167 85 is_stmt 1              @ ../fibre-cpp/legacy_protocol.cpp:167:85
	ldr	r0, [sp, #104]                  @ 4-byte Reload
	adds	r0, #24
	.loc	3 167 98 is_stmt 0              @ ../fibre-cpp/legacy_protocol.cpp:167:98
	bl	_ZN5fibre16generic_bufptr_tIhE5beginEv
	mov	r1, r0
	ldr	r0, [sp, #104]                  @ 4-byte Reload
	ldr	r1, [r1]
	.loc	3 167 107                       @ ../fibre-cpp/legacy_protocol.cpp:167:107
	ldr	r2, [r0, #20]
	movw	r0, #4919
	.loc	3 167 24                        @ ../fibre-cpp/legacy_protocol.cpp:167:24
	bl	_ZL10calc_crc16ILj15717EEttPKhj
	ldr	r1, [sp, #104]                  @ 4-byte Reload
	.loc	3 167 18                        @ ../fibre-cpp/legacy_protocol.cpp:167:18
	strh.w	r0, [sp, #134]
	.loc	3 168 54 is_stmt 1              @ ../fibre-cpp/legacy_protocol.cpp:168:54
	ldrh.w	r0, [sp, #134]
	.loc	3 168 59 is_stmt 0              @ ../fibre-cpp/legacy_protocol.cpp:168:59
	adds	r1, #12
	movs	r2, #2
	.loc	3 168 15                        @ ../fibre-cpp/legacy_protocol.cpp:168:15
	bl	_ZL10calc_crc16ILj15717EEttPKhj
	.loc	3 168 13                        @ ../fibre-cpp/legacy_protocol.cpp:168:13
	strh.w	r0, [sp, #134]
.Ltmp113:
	.loc	3 170 14 is_stmt 1              @ ../fibre-cpp/legacy_protocol.cpp:170:14
	ldrh.w	r0, [sp, #134]
.Ltmp114:
	.loc	3 170 13 is_stmt 0              @ ../fibre-cpp/legacy_protocol.cpp:170:13
	cbnz	r0, .LBB20_22
	b	.LBB20_21
.LBB20_21:
	.loc	3 0 13                          @ ../fibre-cpp/legacy_protocol.cpp:0:13
	ldr	r0, [sp, #104]                  @ 4-byte Reload
	movs	r1, #0
.Ltmp115:
	.loc	3 171 20 is_stmt 1              @ ../fibre-cpp/legacy_protocol.cpp:171:20
	strb.w	r1, [r0, #40]
	.loc	3 172 13                        @ ../fibre-cpp/legacy_protocol.cpp:172:13
	add.w	r2, r0, #32
	.loc	3 172 41 is_stmt 0              @ ../fibre-cpp/legacy_protocol.cpp:172:41
	str	r2, [sp, #16]                   @ 4-byte Spill
	strb.w	r1, [sp, #124]
	.loc	3 172 53                        @ ../fibre-cpp/legacy_protocol.cpp:172:53
	adds	r0, #24
	.loc	3 172 66                        @ ../fibre-cpp/legacy_protocol.cpp:172:66
	bl	_ZN5fibre16generic_bufptr_tIhE5beginEv
	ldr	r2, [sp, #104]                  @ 4-byte Reload
	mov	r1, r0
	ldr	r0, [sp, #16]                   @ 4-byte Reload
	ldr	r1, [r1]
	.loc	3 172 76                        @ ../fibre-cpp/legacy_protocol.cpp:172:76
	ldr	r2, [r2, #20]
	.loc	3 172 74                        @ ../fibre-cpp/legacy_protocol.cpp:172:74
	add	r1, r2
	.loc	3 172 41                        @ ../fibre-cpp/legacy_protocol.cpp:172:41
	str	r1, [sp, #128]
	.loc	3 172 24                        @ ../fibre-cpp/legacy_protocol.cpp:172:24
	ldr	r1, [sp, #124]
	ldr	r2, [sp, #128]
	bl	_ZN5fibre8CallbackIvJNS_10ReadResultEEE16invoke_and_clearES1_
	.loc	3 173 9 is_stmt 1               @ ../fibre-cpp/legacy_protocol.cpp:173:9
	b	.LBB20_23
.Ltmp116:
.LBB20_22:
	.loc	3 0 9 is_stmt 0                 @ ../fibre-cpp/legacy_protocol.cpp:0:9
	ldr	r0, [sp, #104]                  @ 4-byte Reload
	movs	r1, #2
.Ltmp117:
	.loc	3 174 20 is_stmt 1              @ ../fibre-cpp/legacy_protocol.cpp:174:20
	strb.w	r1, [r0, #40]
	.loc	3 175 32                        @ ../fibre-cpp/legacy_protocol.cpp:175:32
	add.w	r1, r0, #12
	.loc	3 175 40 is_stmt 0              @ ../fibre-cpp/legacy_protocol.cpp:175:40
	add.w	r2, r0, #15
	.loc	3 175 30                        @ ../fibre-cpp/legacy_protocol.cpp:175:30
	str	r2, [r0, #16]
	.loc	3 176 13 is_stmt 1              @ ../fibre-cpp/legacy_protocol.cpp:176:13
	ldr	r2, [r0, #4]
	.loc	3 176 47 is_stmt 0              @ ../fibre-cpp/legacy_protocol.cpp:176:47
	str	r2, [sp]                        @ 4-byte Spill
	ldr	r2, [r0, #16]
	add	r0, sp, #116
	.loc	3 176 37                        @ ../fibre-cpp/legacy_protocol.cpp:176:37
	str	r0, [sp, #4]                    @ 4-byte Spill
	bl	_ZN5fibre16generic_bufptr_tIhEC2EPhS2_
	ldr	r1, [sp, #104]                  @ 4-byte Reload
	.loc	3 176 67                        @ ../fibre-cpp/legacy_protocol.cpp:176:67
	add.w	r0, r1, #8
	.loc	3 176 91                        @ ../fibre-cpp/legacy_protocol.cpp:176:91
	str	r0, [sp, #8]                    @ 4-byte Spill
	add	r0, sp, #108
	str	r0, [sp, #12]                   @ 4-byte Spill
	bl	_ZN5fibre13make_callbackIMNS_15PacketUnwrapperEFvNS_10ReadResultEEXadL_ZNS1_8completeES2_EENS_15function_traitsIvS1_JS2_EEENS_14MemberCallbackIS4_XadL_ZNS1_8completeES2_EES1_vNSt3__25tupleIJS2_EEEEEEENT2_4cb_tEPNT1_4TObjE
	ldr	r0, [sp]                        @ 4-byte Reload
	ldr	r1, [sp, #4]                    @ 4-byte Reload
	ldr	r2, [sp, #8]                    @ 4-byte Reload
	ldr	r3, [sp, #12]                   @ 4-byte Reload
	.loc	3 176 26                        @ ../fibre-cpp/legacy_protocol.cpp:176:26
	ldr.w	r12, [r0]
	ldr.w	r12, [r12]
	blx	r12
	b	.LBB20_23
.Ltmp118:
.LBB20_23:
	.loc	3 178 5 is_stmt 1               @ ../fibre-cpp/legacy_protocol.cpp:178:5
	b	.LBB20_24
.Ltmp119:
.LBB20_24:
	.loc	3 0 5 is_stmt 0                 @ ../fibre-cpp/legacy_protocol.cpp:0:5
	b	.LBB20_25
.LBB20_25:
	b	.LBB20_26
.LBB20_26:
	.loc	3 179 1 epilogue_begin is_stmt 1 @ ../fibre-cpp/legacy_protocol.cpp:179:1
	add	sp, #248
	pop	{r7, pc}
.Ltmp120:
.Lfunc_end20:
	.size	_ZN5fibre15PacketUnwrapper8completeENS_10ReadResultE, .Lfunc_end20-_ZN5fibre15PacketUnwrapper8completeENS_10ReadResultE
	.cfi_endproc
	.cantunwind
	.fnend
                                        @ -- End function
	.section	.text._ZN5fibre8CallbackIvJNS_10ReadResultEEE16invoke_and_clearES1_,"axG",%progbits,_ZN5fibre8CallbackIvJNS_10ReadResultEEE16invoke_and_clearES1_,comdat
	.hidden	_ZN5fibre8CallbackIvJNS_10ReadResultEEE16invoke_and_clearES1_ @ -- Begin function _ZN5fibre8CallbackIvJNS_10ReadResultEEE16invoke_and_clearES1_
	.weak	_ZN5fibre8CallbackIvJNS_10ReadResultEEE16invoke_and_clearES1_
	.p2align	2
	.type	_ZN5fibre8CallbackIvJNS_10ReadResultEEE16invoke_and_clearES1_,%function
	.code	16                              @ @_ZN5fibre8CallbackIvJNS_10ReadResultEEE16invoke_and_clearES1_
	.thumb_func
_ZN5fibre8CallbackIvJNS_10ReadResultEEE16invoke_and_clearES1_:
.Lfunc_begin21:
	.loc	9 66 0                          @ ../fibre-cpp/include\fibre/callback.hpp:66:0
	.fnstart
	.cfi_startproc
@ %bb.0:
	.save	{r7, lr}
	push	{r7, lr}
	.cfi_def_cfa_offset 8
	.cfi_offset lr, -4
	.cfi_offset r7, -8
	.pad	#32
	sub	sp, #32
	.cfi_def_cfa_offset 40
                                        @ kill: def $r3 killed $r2
                                        @ kill: def $r3 killed $r1
	str	r2, [sp, #28]
	str	r1, [sp, #24]
	str	r0, [sp, #20]
	ldr	r1, [sp, #20]
.Ltmp121:
	.loc	9 67 21 prologue_end            @ ../fibre-cpp/include\fibre/callback.hpp:67:21
	ldr	r0, [r1, #4]
	.loc	9 67 15 is_stmt 0               @ ../fibre-cpp/include\fibre/callback.hpp:67:15
	str	r0, [sp, #16]
	.loc	9 68 19 is_stmt 1               @ ../fibre-cpp/include\fibre/callback.hpp:68:19
	ldr	r0, [r1]
	.loc	9 68 14 is_stmt 0               @ ../fibre-cpp/include\fibre/callback.hpp:68:14
	str	r0, [sp, #12]
	movs	r0, #0
	.loc	9 69 14 is_stmt 1               @ ../fibre-cpp/include\fibre/callback.hpp:69:14
	str	r0, [r1, #4]
	.loc	9 70 13                         @ ../fibre-cpp/include\fibre/callback.hpp:70:13
	str	r0, [r1]
.Ltmp122:
	.loc	9 71 13                         @ ../fibre-cpp/include\fibre/callback.hpp:71:13
	ldr	r0, [sp, #12]
.Ltmp123:
	.loc	9 71 13 is_stmt 0               @ ../fibre-cpp/include\fibre/callback.hpp:71:13
	cbz	r0, .LBB21_2
	b	.LBB21_1
.LBB21_1:
.Ltmp124:
	.loc	9 72 22 is_stmt 1               @ ../fibre-cpp/include\fibre/callback.hpp:72:22
	ldr	r3, [sp, #12]
	.loc	9 72 26 is_stmt 0               @ ../fibre-cpp/include\fibre/callback.hpp:72:26
	ldr	r0, [sp, #16]
	.loc	9 72 31                         @ ../fibre-cpp/include\fibre/callback.hpp:72:31
	ldr	r1, [sp, #24]
	ldr	r2, [sp, #28]
	str	r2, [sp, #8]
	str	r1, [sp, #4]
	.loc	9 72 20                         @ ../fibre-cpp/include\fibre/callback.hpp:72:20
	ldr	r1, [sp, #4]
	ldr	r2, [sp, #8]
	blx	r3
	.loc	9 72 13                         @ ../fibre-cpp/include\fibre/callback.hpp:72:13
	b	.LBB21_3
.Ltmp125:
.LBB21_2:
	.loc	9 74 16 is_stmt 1               @ ../fibre-cpp/include\fibre/callback.hpp:74:16
	bl	_ZN5fibre6detail11get_defaultIvE3valEv
	.loc	9 74 9 is_stmt 0                @ ../fibre-cpp/include\fibre/callback.hpp:74:9
	b	.LBB21_3
.LBB21_3:
	.loc	9 75 5 epilogue_begin is_stmt 1 @ ../fibre-cpp/include\fibre/callback.hpp:75:5
	add	sp, #32
	pop	{r7, pc}
.Ltmp126:
.Lfunc_end21:
	.size	_ZN5fibre8CallbackIvJNS_10ReadResultEEE16invoke_and_clearES1_, .Lfunc_end21-_ZN5fibre8CallbackIvJNS_10ReadResultEEE16invoke_and_clearES1_
	.cfi_endproc
	.cantunwind
	.fnend
                                        @ -- End function
	.section	.text._ZNSt3__23minB7v180000IjEERKT_S3_S3_,"axG",%progbits,_ZNSt3__23minB7v180000IjEERKT_S3_S3_,comdat
	.hidden	_ZNSt3__23minB7v180000IjEERKT_S3_S3_ @ -- Begin function _ZNSt3__23minB7v180000IjEERKT_S3_S3_
	.weak	_ZNSt3__23minB7v180000IjEERKT_S3_S3_
	.p2align	2
	.type	_ZNSt3__23minB7v180000IjEERKT_S3_S3_,%function
	.code	16                              @ @_ZNSt3__23minB7v180000IjEERKT_S3_S3_
	.thumb_func
_ZNSt3__23minB7v180000IjEERKT_S3_S3_:
.Lfunc_begin22:
	.file	18 "D:\\Embed\\MDK\\MDK\\ARM\\ARMCompilerV621\\Bin\\..\\include\\libcxx\\__algorithm" "min.h"
	.loc	18 41 0                         @ D:\Embed\MDK\MDK\ARM\ARMCompilerV621\Bin\..\include\libcxx\__algorithm/min.h:41:0
	.fnstart
	.cfi_startproc
@ %bb.0:
	.save	{r7, lr}
	push	{r7, lr}
	.cfi_def_cfa_offset 8
	.cfi_offset lr, -4
	.cfi_offset r7, -8
	.pad	#16
	sub	sp, #16
	.cfi_def_cfa_offset 24
	str	r0, [sp, #12]
	str	r1, [sp, #8]
.Ltmp127:
	.loc	18 42 23 prologue_end           @ D:\Embed\MDK\MDK\ARM\ARMCompilerV621\Bin\..\include\libcxx\__algorithm/min.h:42:23
	ldr	r0, [sp, #12]
	.loc	18 42 28 is_stmt 0              @ D:\Embed\MDK\MDK\ARM\ARMCompilerV621\Bin\..\include\libcxx\__algorithm/min.h:42:28
	ldr	r1, [sp, #8]
	.loc	18 42 12                        @ D:\Embed\MDK\MDK\ARM\ARMCompilerV621\Bin\..\include\libcxx\__algorithm/min.h:42:12
	bl	_ZNSt3__23minB7v180000IjNS_6__lessIvvEEEERKT_S5_S5_T0_
	.loc	18 42 5 epilogue_begin          @ D:\Embed\MDK\MDK\ARM\ARMCompilerV621\Bin\..\include\libcxx\__algorithm/min.h:42:5
	add	sp, #16
	pop	{r7, pc}
.Ltmp128:
.Lfunc_end22:
	.size	_ZNSt3__23minB7v180000IjEERKT_S3_S3_, .Lfunc_end22-_ZNSt3__23minB7v180000IjEERKT_S3_S3_
	.cfi_endproc
	.cantunwind
	.fnend
                                        @ -- End function
	.section	.text._ZNK5fibre16generic_bufptr_tIhE4sizeEv,"axG",%progbits,_ZNK5fibre16generic_bufptr_tIhE4sizeEv,comdat
	.hidden	_ZNK5fibre16generic_bufptr_tIhE4sizeEv @ -- Begin function _ZNK5fibre16generic_bufptr_tIhE4sizeEv
	.weak	_ZNK5fibre16generic_bufptr_tIhE4sizeEv
	.p2align	2
	.type	_ZNK5fibre16generic_bufptr_tIhE4sizeEv,%function
	.code	16                              @ @_ZNK5fibre16generic_bufptr_tIhE4sizeEv
	.thumb_func
_ZNK5fibre16generic_bufptr_tIhE4sizeEv:
.Lfunc_begin23:
	.loc	7 74 0 is_stmt 1                @ ../fibre-cpp/include\fibre/bufptr.hpp:74:0
	.fnstart
	.cfi_startproc
@ %bb.0:
	.pad	#4
	sub	sp, #4
	.cfi_def_cfa_offset 4
	str	r0, [sp]
	ldr	r0, [sp]
.Ltmp129:
	.loc	7 75 23 prologue_end            @ ../fibre-cpp/include\fibre/bufptr.hpp:75:23
	ldr	r1, [r0]
	.loc	7 75 16 is_stmt 0               @ ../fibre-cpp/include\fibre/bufptr.hpp:75:16
	ldr	r0, [r0, #4]
	.loc	7 75 21                         @ ../fibre-cpp/include\fibre/bufptr.hpp:75:21
	subs	r0, r0, r1
	.loc	7 75 9 epilogue_begin           @ ../fibre-cpp/include\fibre/bufptr.hpp:75:9
	add	sp, #4
	bx	lr
.Ltmp130:
.Lfunc_end23:
	.size	_ZNK5fibre16generic_bufptr_tIhE4sizeEv, .Lfunc_end23-_ZNK5fibre16generic_bufptr_tIhE4sizeEv
	.cfi_endproc
	.cantunwind
	.fnend
                                        @ -- End function
	.section	.text._ZNK5fibre16generic_bufptr_tIhE4takeEj,"axG",%progbits,_ZNK5fibre16generic_bufptr_tIhE4takeEj,comdat
	.hidden	_ZNK5fibre16generic_bufptr_tIhE4takeEj @ -- Begin function _ZNK5fibre16generic_bufptr_tIhE4takeEj
	.weak	_ZNK5fibre16generic_bufptr_tIhE4takeEj
	.p2align	2
	.type	_ZNK5fibre16generic_bufptr_tIhE4takeEj,%function
	.code	16                              @ @_ZNK5fibre16generic_bufptr_tIhE4takeEj
	.thumb_func
_ZNK5fibre16generic_bufptr_tIhE4takeEj:
.Lfunc_begin24:
	.loc	7 57 0 is_stmt 1                @ ../fibre-cpp/include\fibre/bufptr.hpp:57:0
	.fnstart
	.cfi_startproc
@ %bb.0:
	.save	{r7, lr}
	push	{r7, lr}
	.cfi_def_cfa_offset 8
	.cfi_offset lr, -4
	.cfi_offset r7, -8
	.pad	#24
	sub	sp, #24
	.cfi_def_cfa_offset 32
	str	r0, [sp]                        @ 4-byte Spill
	str	r0, [sp, #20]
	str	r1, [sp, #16]
	str	r2, [sp, #12]
	ldr	r0, [sp, #16]
.Ltmp131:
	.loc	7 58 26 prologue_end            @ ../fibre-cpp/include\fibre/bufptr.hpp:58:26
	str	r0, [sp, #4]                    @ 4-byte Spill
	ldr	r1, [sp, #12]
	.loc	7 58 33 is_stmt 0               @ ../fibre-cpp/include\fibre/bufptr.hpp:58:33
	str	r1, [sp, #8]                    @ 4-byte Spill
	bl	_ZNK5fibre16generic_bufptr_tIhE4sizeEv
	ldr	r1, [sp, #8]                    @ 4-byte Reload
	mov	r2, r0
	movs	r0, #0
	.loc	7 58 30                         @ ../fibre-cpp/include\fibre/bufptr.hpp:58:30
	cmp	r1, r2
	it	ls
	movls	r0, #1
	.loc	7 58 14                         @ ../fibre-cpp/include\fibre/bufptr.hpp:58:14
	bl	_ZN5fibreL11soft_assertEb
.Ltmp132:
	.loc	7 58 13                         @ ../fibre-cpp/include\fibre/bufptr.hpp:58:13
	cbnz	r0, .LBB24_2
	b	.LBB24_1
.LBB24_1:
.Ltmp133:
	.loc	7 59 19 is_stmt 1               @ ../fibre-cpp/include\fibre/bufptr.hpp:59:19
	ldr	r0, [sp, #4]                    @ 4-byte Reload
	bl	_ZNK5fibre16generic_bufptr_tIhE4sizeEv
	.loc	7 59 17 is_stmt 0               @ ../fibre-cpp/include\fibre/bufptr.hpp:59:17
	str	r0, [sp, #12]
	.loc	7 60 9 is_stmt 1                @ ../fibre-cpp/include\fibre/bufptr.hpp:60:9
	b	.LBB24_2
.Ltmp134:
.LBB24_2:
	.loc	7 61 36                         @ ../fibre-cpp/include\fibre/bufptr.hpp:61:36
	ldr	r0, [sp]                        @ 4-byte Reload
	ldr	r1, [sp, #4]                    @ 4-byte Reload
	ldr	r1, [r1]
	.loc	7 61 44 is_stmt 0               @ ../fibre-cpp/include\fibre/bufptr.hpp:61:44
	ldr	r2, [sp, #12]
	.loc	7 61 35                         @ ../fibre-cpp/include\fibre/bufptr.hpp:61:35
	bl	_ZN5fibre16generic_bufptr_tIhEC2EPhj
	.loc	7 62 9 epilogue_begin is_stmt 1 @ ../fibre-cpp/include\fibre/bufptr.hpp:62:9
	add	sp, #24
	pop	{r7, pc}
.Ltmp135:
.Lfunc_end24:
	.size	_ZNK5fibre16generic_bufptr_tIhE4takeEj, .Lfunc_end24-_ZNK5fibre16generic_bufptr_tIhE4takeEj
	.cfi_endproc
	.cantunwind
	.fnend
                                        @ -- End function
	.section	.text._ZN5fibre16generic_bufptr_tIhEC2ILj3EEERAT__h,"axG",%progbits,_ZN5fibre16generic_bufptr_tIhEC2ILj3EEERAT__h,comdat
	.hidden	_ZN5fibre16generic_bufptr_tIhEC2ILj3EEERAT__h @ -- Begin function _ZN5fibre16generic_bufptr_tIhEC2ILj3EEERAT__h
	.weak	_ZN5fibre16generic_bufptr_tIhEC2ILj3EEERAT__h
	.p2align	2
	.type	_ZN5fibre16generic_bufptr_tIhEC2ILj3EEERAT__h,%function
	.code	16                              @ @_ZN5fibre16generic_bufptr_tIhEC2ILj3EEERAT__h
	.thumb_func
_ZN5fibre16generic_bufptr_tIhEC2ILj3EEERAT__h:
.Lfunc_begin25:
	.loc	7 28 0                          @ ../fibre-cpp/include\fibre/bufptr.hpp:28:0
	.fnstart
	.cfi_startproc
@ %bb.0:
	.save	{r7, lr}
	push	{r7, lr}
	.cfi_def_cfa_offset 8
	.cfi_offset lr, -4
	.cfi_offset r7, -8
	.pad	#16
	sub	sp, #16
	.cfi_def_cfa_offset 24
	str	r0, [sp, #12]
	str	r1, [sp, #8]
	ldr	r0, [sp, #12]
.Ltmp136:
	.loc	7 28 56 prologue_end            @ ../fibre-cpp/include\fibre/bufptr.hpp:28:56
	str	r0, [sp, #4]                    @ 4-byte Spill
	ldr	r1, [sp, #8]
	movs	r2, #3
	.loc	7 28 39 is_stmt 0               @ ../fibre-cpp/include\fibre/bufptr.hpp:28:39
	bl	_ZN5fibre16generic_bufptr_tIhEC2EPhj
	ldr	r0, [sp, #4]                    @ 4-byte Reload
	.loc	7 28 67 epilogue_begin          @ ../fibre-cpp/include\fibre/bufptr.hpp:28:67
	add	sp, #16
	pop	{r7, pc}
.Ltmp137:
.Lfunc_end25:
	.size	_ZN5fibre16generic_bufptr_tIhEC2ILj3EEERAT__h, .Lfunc_end25-_ZN5fibre16generic_bufptr_tIhEC2ILj3EEERAT__h
	.cfi_endproc
	.cantunwind
	.fnend
                                        @ -- End function
	.section	.text._ZNK5fibre16generic_bufptr_tIhE4skipEjPj,"axG",%progbits,_ZNK5fibre16generic_bufptr_tIhE4skipEjPj,comdat
	.hidden	_ZNK5fibre16generic_bufptr_tIhE4skipEjPj @ -- Begin function _ZNK5fibre16generic_bufptr_tIhE4skipEjPj
	.weak	_ZNK5fibre16generic_bufptr_tIhE4skipEjPj
	.p2align	2
	.type	_ZNK5fibre16generic_bufptr_tIhE4skipEjPj,%function
	.code	16                              @ @_ZNK5fibre16generic_bufptr_tIhE4skipEjPj
	.thumb_func
_ZNK5fibre16generic_bufptr_tIhE4skipEjPj:
.Lfunc_begin26:
	.loc	7 65 0 is_stmt 1                @ ../fibre-cpp/include\fibre/bufptr.hpp:65:0
	.fnstart
	.cfi_startproc
@ %bb.0:
	.save	{r7, lr}
	push	{r7, lr}
	.cfi_def_cfa_offset 8
	.cfi_offset lr, -4
	.cfi_offset r7, -8
	.pad	#32
	sub	sp, #32
	.cfi_def_cfa_offset 40
	str	r0, [sp, #4]                    @ 4-byte Spill
	str	r0, [sp, #28]
	str	r1, [sp, #24]
	str	r2, [sp, #20]
	str	r3, [sp, #16]
	ldr	r0, [sp, #24]
.Ltmp138:
	.loc	7 66 26 prologue_end            @ ../fibre-cpp/include\fibre/bufptr.hpp:66:26
	str	r0, [sp, #8]                    @ 4-byte Spill
	ldr	r1, [sp, #20]
	.loc	7 66 33 is_stmt 0               @ ../fibre-cpp/include\fibre/bufptr.hpp:66:33
	str	r1, [sp, #12]                   @ 4-byte Spill
	bl	_ZNK5fibre16generic_bufptr_tIhE4sizeEv
	ldr	r1, [sp, #12]                   @ 4-byte Reload
	mov	r2, r0
	movs	r0, #0
	.loc	7 66 30                         @ ../fibre-cpp/include\fibre/bufptr.hpp:66:30
	cmp	r1, r2
	it	ls
	movls	r0, #1
	.loc	7 66 14                         @ ../fibre-cpp/include\fibre/bufptr.hpp:66:14
	bl	_ZN5fibreL11soft_assertEb
.Ltmp139:
	.loc	7 66 13                         @ ../fibre-cpp/include\fibre/bufptr.hpp:66:13
	cbnz	r0, .LBB26_2
	b	.LBB26_1
.LBB26_1:
.Ltmp140:
	.loc	7 67 19 is_stmt 1               @ ../fibre-cpp/include\fibre/bufptr.hpp:67:19
	ldr	r0, [sp, #8]                    @ 4-byte Reload
	bl	_ZNK5fibre16generic_bufptr_tIhE4sizeEv
	.loc	7 67 17 is_stmt 0               @ ../fibre-cpp/include\fibre/bufptr.hpp:67:17
	str	r0, [sp, #20]
	.loc	7 68 9 is_stmt 1                @ ../fibre-cpp/include\fibre/bufptr.hpp:68:9
	b	.LBB26_2
.Ltmp141:
.LBB26_2:
	.loc	7 69 13                         @ ../fibre-cpp/include\fibre/bufptr.hpp:69:13
	ldr	r0, [sp, #16]
.Ltmp142:
	.loc	7 69 13 is_stmt 0               @ ../fibre-cpp/include\fibre/bufptr.hpp:69:13
	cbz	r0, .LBB26_4
	b	.LBB26_3
.LBB26_3:
.Ltmp143:
	.loc	7 70 35 is_stmt 1               @ ../fibre-cpp/include\fibre/bufptr.hpp:70:35
	ldr	r2, [sp, #20]
	.loc	7 70 15 is_stmt 0               @ ../fibre-cpp/include\fibre/bufptr.hpp:70:15
	ldr	r1, [sp, #16]
	.loc	7 70 32                         @ ../fibre-cpp/include\fibre/bufptr.hpp:70:32
	ldr	r0, [r1]
	add	r0, r2
	str	r0, [r1]
	.loc	7 70 13                         @ ../fibre-cpp/include\fibre/bufptr.hpp:70:13
	b	.LBB26_4
.Ltmp144:
.LBB26_4:
	.loc	7 71 26 is_stmt 1               @ ../fibre-cpp/include\fibre/bufptr.hpp:71:26
	ldr	r0, [sp, #4]                    @ 4-byte Reload
	ldr	r2, [sp, #8]                    @ 4-byte Reload
	ldr	r3, [sp, #20]
	.loc	7 71 17 is_stmt 0               @ ../fibre-cpp/include\fibre/bufptr.hpp:71:17
	ldr	r1, [r2]
	.loc	7 71 31                         @ ../fibre-cpp/include\fibre/bufptr.hpp:71:31
	ldr	r2, [r2, #4]
	.loc	7 71 24                         @ ../fibre-cpp/include\fibre/bufptr.hpp:71:24
	add	r1, r3
	.loc	7 71 16                         @ ../fibre-cpp/include\fibre/bufptr.hpp:71:16
	bl	_ZN5fibre16generic_bufptr_tIhEC2EPhS2_
	.loc	7 71 9 epilogue_begin           @ ../fibre-cpp/include\fibre/bufptr.hpp:71:9
	add	sp, #32
	pop	{r7, pc}
.Ltmp145:
.Lfunc_end26:
	.size	_ZNK5fibre16generic_bufptr_tIhE4skipEjPj, .Lfunc_end26-_ZNK5fibre16generic_bufptr_tIhE4skipEjPj
	.cfi_endproc
	.cantunwind
	.fnend
                                        @ -- End function
	.section	.text._ZN5fibre17endpoint0_handlerEPNS_16generic_bufptr_tIKhEEPNS0_IhEE,"ax",%progbits
	.hidden	_ZN5fibre17endpoint0_handlerEPNS_16generic_bufptr_tIKhEEPNS0_IhEE @ -- Begin function _ZN5fibre17endpoint0_handlerEPNS_16generic_bufptr_tIKhEEPNS0_IhEE
	.globl	_ZN5fibre17endpoint0_handlerEPNS_16generic_bufptr_tIKhEEPNS0_IhEE
	.p2align	2
	.type	_ZN5fibre17endpoint0_handlerEPNS_16generic_bufptr_tIKhEEPNS0_IhEE,%function
	.code	16                              @ @_ZN5fibre17endpoint0_handlerEPNS_16generic_bufptr_tIKhEEPNS0_IhEE
	.thumb_func
_ZN5fibre17endpoint0_handlerEPNS_16generic_bufptr_tIKhEEPNS0_IhEE:
.Lfunc_begin27:
	.loc	3 298 0 is_stmt 1               @ ../fibre-cpp/legacy_protocol.cpp:298:0
	.fnstart
	.cfi_startproc
@ %bb.0:
	.save	{r7, lr}
	push	{r7, lr}
	.cfi_def_cfa_offset 8
	.cfi_offset lr, -4
	.cfi_offset r7, -8
	.pad	#56
	sub	sp, #56
	.cfi_def_cfa_offset 64
	str	r0, [sp, #48]
	str	r1, [sp, #44]
.Ltmp146:
	.loc	3 300 56 prologue_end           @ ../fibre-cpp/legacy_protocol.cpp:300:56
	ldr	r1, [sp, #48]
	add	r0, sp, #36
	.loc	3 300 38 is_stmt 0              @ ../fibre-cpp/legacy_protocol.cpp:300:38
	str	r0, [sp, #12]                   @ 4-byte Spill
	bl	_Z7read_leIjENSt3__28optionalIT_EEPN5fibre16generic_bufptr_tIKhEE
	ldr	r0, [sp, #12]                   @ 4-byte Reload
.Ltmp147:
	.loc	3 302 17 is_stmt 1              @ ../fibre-cpp/legacy_protocol.cpp:302:17
	bl	_ZNKSt3__223__optional_storage_baseIjLb0EE9has_valueB7v180000Ev
.Ltmp148:
	.loc	3 302 9 is_stmt 0               @ ../fibre-cpp/legacy_protocol.cpp:302:9
	cbnz	r0, .LBB27_2
	b	.LBB27_1
.LBB27_1:
	.loc	3 0 9                           @ ../fibre-cpp/legacy_protocol.cpp:0:9
	movs	r0, #0
.Ltmp149:
	.loc	3 304 9 is_stmt 1               @ ../fibre-cpp/legacy_protocol.cpp:304:9
	strb.w	r0, [sp, #55]
	b	.LBB27_7
.Ltmp150:
.LBB27_2:
	.loc	3 0 9 is_stmt 0                 @ ../fibre-cpp/legacy_protocol.cpp:0:9
	add	r0, sp, #36
.Ltmp151:
	.loc	3 305 16 is_stmt 1              @ ../fibre-cpp/legacy_protocol.cpp:305:16
	bl	_ZNRSt3__28optionalIjEdeB7v180000Ev
	ldr	r0, [r0]
.Ltmp152:
	.loc	3 305 16 is_stmt 0              @ ../fibre-cpp/legacy_protocol.cpp:305:16
	adds	r0, #1
	cbnz	r0, .LBB27_4
	b	.LBB27_3
.LBB27_3:
.Ltmp153:
	.loc	3 307 35 is_stmt 1              @ ../fibre-cpp/legacy_protocol.cpp:307:35
	movw	r0, :lower16:_ZN5fibre16json_version_id_E
	movt	r0, :upper16:_ZN5fibre16json_version_id_E
	ldr	r0, [r0]
	.loc	3 307 53 is_stmt 0              @ ../fibre-cpp/legacy_protocol.cpp:307:53
	ldr	r1, [sp, #44]
	.loc	3 307 16                        @ ../fibre-cpp/legacy_protocol.cpp:307:16
	bl	_Z8write_leIjEbT_PN5fibre16generic_bufptr_tIhEE
	.loc	3 307 9                         @ ../fibre-cpp/legacy_protocol.cpp:307:9
	strb.w	r0, [sp, #55]
	b	.LBB27_7
.Ltmp154:
.LBB27_4:
	.loc	3 0 9                           @ ../fibre-cpp/legacy_protocol.cpp:0:9
	add	r0, sp, #36
.Ltmp155:
	.loc	3 308 16 is_stmt 1              @ ../fibre-cpp/legacy_protocol.cpp:308:16
	bl	_ZNRSt3__28optionalIjEdeB7v180000Ev
	ldr	r0, [r0]
	.loc	3 308 27 is_stmt 0              @ ../fibre-cpp/legacy_protocol.cpp:308:27
	movw	r1, :lower16:_ZN5fibre20embedded_json_lengthE
	movt	r1, :upper16:_ZN5fibre20embedded_json_lengthE
	ldr	r1, [r1]
.Ltmp156:
	.loc	3 308 16                        @ ../fibre-cpp/legacy_protocol.cpp:308:16
	cmp	r0, r1
	blo	.LBB27_6
	b	.LBB27_5
.LBB27_5:
	.loc	3 0 16                          @ ../fibre-cpp/legacy_protocol.cpp:0:16
	movs	r0, #1
.Ltmp157:
	.loc	3 310 9 is_stmt 1               @ ../fibre-cpp/legacy_protocol.cpp:310:9
	strb.w	r0, [sp, #55]
	b	.LBB27_7
.Ltmp158:
.LBB27_6:
	.loc	3 313 34                        @ ../fibre-cpp/legacy_protocol.cpp:313:34
	ldr	r0, [sp, #44]
	.loc	3 313 49 is_stmt 0              @ ../fibre-cpp/legacy_protocol.cpp:313:49
	bl	_ZNK5fibre16generic_bufptr_tIhE4sizeEv
	.loc	3 313 34                        @ ../fibre-cpp/legacy_protocol.cpp:313:34
	str	r0, [sp, #28]
	.loc	3 313 57                        @ ../fibre-cpp/legacy_protocol.cpp:313:57
	movw	r0, :lower16:_ZN5fibre20embedded_json_lengthE
	movt	r0, :upper16:_ZN5fibre20embedded_json_lengthE
	ldr	r0, [r0]
	.loc	3 313 88                        @ ../fibre-cpp/legacy_protocol.cpp:313:88
	str	r0, [sp]                        @ 4-byte Spill
	add	r0, sp, #36
	str	r0, [sp, #4]                    @ 4-byte Spill
	bl	_ZNRSt3__28optionalIjEdeB7v180000Ev
	mov	r1, r0
	ldr	r0, [sp]                        @ 4-byte Reload
	ldr	r1, [r1]
	.loc	3 313 78                        @ ../fibre-cpp/legacy_protocol.cpp:313:78
	subs	r0, r0, r1
	.loc	3 313 57                        @ ../fibre-cpp/legacy_protocol.cpp:313:57
	str	r0, [sp, #24]
	add	r0, sp, #28
	add	r1, sp, #24
	.loc	3 313 25                        @ ../fibre-cpp/legacy_protocol.cpp:313:25
	bl	_ZNSt3__23minB7v180000IjEERKT_S3_S3_
	ldr	r0, [r0]
	.loc	3 313 16                        @ ../fibre-cpp/legacy_protocol.cpp:313:16
	str	r0, [sp, #32]
	.loc	3 314 16 is_stmt 1              @ ../fibre-cpp/legacy_protocol.cpp:314:16
	ldr	r0, [sp, #44]
	.loc	3 314 31 is_stmt 0              @ ../fibre-cpp/legacy_protocol.cpp:314:31
	bl	_ZN5fibre16generic_bufptr_tIhE5beginEv
	mov	r1, r0
	ldr	r0, [sp, #4]                    @ 4-byte Reload
	ldr	r1, [r1]
	.loc	3 314 56                        @ ../fibre-cpp/legacy_protocol.cpp:314:56
	str	r1, [sp, #8]                    @ 4-byte Spill
	bl	_ZNRSt3__28optionalIjEdeB7v180000Ev
	mov	r1, r0
	ldr	r0, [sp, #8]                    @ 4-byte Reload
	ldr	r2, [r1]
	.loc	3 314 54                        @ ../fibre-cpp/legacy_protocol.cpp:314:54
	movw	r1, :lower16:_ZN5fibre13embedded_jsonE
	movt	r1, :upper16:_ZN5fibre13embedded_jsonE
	add	r1, r2
	.loc	3 314 65                        @ ../fibre-cpp/legacy_protocol.cpp:314:65
	ldr	r2, [sp, #32]
	.loc	3 314 9                         @ ../fibre-cpp/legacy_protocol.cpp:314:9
	bl	__aeabi_memcpy
	.loc	3 315 26 is_stmt 1              @ ../fibre-cpp/legacy_protocol.cpp:315:26
	ldr	r1, [sp, #44]
	.loc	3 315 46 is_stmt 0              @ ../fibre-cpp/legacy_protocol.cpp:315:46
	ldr	r2, [sp, #32]
	add	r0, sp, #16
	movs	r3, #0
	.loc	3 315 41                        @ ../fibre-cpp/legacy_protocol.cpp:315:41
	bl	_ZNK5fibre16generic_bufptr_tIhE4skipEjPj
	.loc	3 315 10                        @ ../fibre-cpp/legacy_protocol.cpp:315:10
	ldr	r1, [sp, #44]
	.loc	3 315 24                        @ ../fibre-cpp/legacy_protocol.cpp:315:24
	ldr	r0, [sp, #16]
	ldr	r2, [sp, #20]
	str	r2, [r1, #4]
	str	r0, [r1]
	movs	r0, #1
	.loc	3 316 9 is_stmt 1               @ ../fibre-cpp/legacy_protocol.cpp:316:9
	strb.w	r0, [sp, #55]
	b	.LBB27_7
.Ltmp159:
.LBB27_7:
	.loc	3 318 1                         @ ../fibre-cpp/legacy_protocol.cpp:318:1
	ldrb.w	r0, [sp, #55]
	.loc	3 318 1 epilogue_begin is_stmt 0 @ ../fibre-cpp/legacy_protocol.cpp:318:1
	add	sp, #56
	pop	{r7, pc}
.Ltmp160:
.Lfunc_end27:
	.size	_ZN5fibre17endpoint0_handlerEPNS_16generic_bufptr_tIKhEEPNS0_IhEE, .Lfunc_end27-_ZN5fibre17endpoint0_handlerEPNS_16generic_bufptr_tIKhEEPNS0_IhEE
	.cfi_endproc
	.cantunwind
	.fnend
                                        @ -- End function
	.section	.text._Z7read_leIjENSt3__28optionalIT_EEPN5fibre16generic_bufptr_tIKhEE,"axG",%progbits,_Z7read_leIjENSt3__28optionalIT_EEPN5fibre16generic_bufptr_tIKhEE,comdat
	.hidden	_Z7read_leIjENSt3__28optionalIT_EEPN5fibre16generic_bufptr_tIKhEE @ -- Begin function _Z7read_leIjENSt3__28optionalIT_EEPN5fibre16generic_bufptr_tIKhEE
	.weak	_Z7read_leIjENSt3__28optionalIT_EEPN5fibre16generic_bufptr_tIKhEE
	.p2align	2
	.type	_Z7read_leIjENSt3__28optionalIT_EEPN5fibre16generic_bufptr_tIKhEE,%function
	.code	16                              @ @_Z7read_leIjENSt3__28optionalIT_EEPN5fibre16generic_bufptr_tIKhEE
	.thumb_func
_Z7read_leIjENSt3__28optionalIT_EEPN5fibre16generic_bufptr_tIKhEE:
.Lfunc_begin28:
	.loc	14 68 0 is_stmt 1               @ ../fibre-cpp/include\fibre/simple_serdes.hpp:68:0
	.fnstart
	.cfi_startproc
@ %bb.0:
	.save	{r7, lr}
	push	{r7, lr}
	.cfi_def_cfa_offset 8
	.cfi_offset lr, -4
	.cfi_offset r7, -8
	.pad	#16
	sub	sp, #16
	.cfi_def_cfa_offset 24
	str	r0, [sp, #8]                    @ 4-byte Spill
	str	r1, [sp, #12]
.Ltmp161:
	.loc	14 70 45 prologue_end           @ ../fibre-cpp/include\fibre/simple_serdes.hpp:70:45
	ldr	r0, [sp, #12]
	.loc	14 70 53 is_stmt 0              @ ../fibre-cpp/include\fibre/simple_serdes.hpp:70:53
	bl	_ZN5fibre16generic_bufptr_tIKhE5beginEv
	.loc	14 70 62                        @ ../fibre-cpp/include\fibre/simple_serdes.hpp:70:62
	str	r0, [sp, #4]                    @ 4-byte Spill
	ldr	r0, [sp, #12]
	.loc	14 70 70                        @ ../fibre-cpp/include\fibre/simple_serdes.hpp:70:70
	bl	_ZN5fibre16generic_bufptr_tIKhE3endEv
	ldr	r1, [sp, #4]                    @ 4-byte Reload
	mov	r2, r0
	ldr	r0, [sp, #8]                    @ 4-byte Reload
	ldr	r2, [r2]
	.loc	14 70 12                        @ ../fibre-cpp/include\fibre/simple_serdes.hpp:70:12
	bl	_ZN16SimpleSerializerIjLb0EvE4readIPKhEENSt3__28optionalIjEEPT_S7_
	.loc	14 70 5 epilogue_begin          @ ../fibre-cpp/include\fibre/simple_serdes.hpp:70:5
	add	sp, #16
	pop	{r7, pc}
.Ltmp162:
.Lfunc_end28:
	.size	_Z7read_leIjENSt3__28optionalIT_EEPN5fibre16generic_bufptr_tIKhEE, .Lfunc_end28-_Z7read_leIjENSt3__28optionalIT_EEPN5fibre16generic_bufptr_tIKhEE
	.cfi_endproc
	.cantunwind
	.fnend
                                        @ -- End function
	.section	.text._ZNKSt3__223__optional_storage_baseIjLb0EE9has_valueB7v180000Ev,"axG",%progbits,_ZNKSt3__223__optional_storage_baseIjLb0EE9has_valueB7v180000Ev,comdat
	.hidden	_ZNKSt3__223__optional_storage_baseIjLb0EE9has_valueB7v180000Ev @ -- Begin function _ZNKSt3__223__optional_storage_baseIjLb0EE9has_valueB7v180000Ev
	.weak	_ZNKSt3__223__optional_storage_baseIjLb0EE9has_valueB7v180000Ev
	.p2align	2
	.type	_ZNKSt3__223__optional_storage_baseIjLb0EE9has_valueB7v180000Ev,%function
	.code	16                              @ @_ZNKSt3__223__optional_storage_baseIjLb0EE9has_valueB7v180000Ev
	.thumb_func
_ZNKSt3__223__optional_storage_baseIjLb0EE9has_valueB7v180000Ev:
.Lfunc_begin29:
	.loc	4 386 0 is_stmt 1               @ D:\Embed\MDK\MDK\ARM\ARMCompilerV621\Bin\..\include\libcxx\optional:386:0
	.fnstart
	.cfi_startproc
@ %bb.0:
	.pad	#4
	sub	sp, #4
	.cfi_def_cfa_offset 4
	str	r0, [sp]
	ldr	r0, [sp]
.Ltmp163:
	.loc	4 387 9 prologue_end            @ D:\Embed\MDK\MDK\ARM\ARMCompilerV621\Bin\..\include\libcxx\optional:387:9
	ldrb	r0, [r0, #4]
	and	r0, r0, #1
	.loc	4 387 9 epilogue_begin is_stmt 0 @ D:\Embed\MDK\MDK\ARM\ARMCompilerV621\Bin\..\include\libcxx\optional:387:9
	add	sp, #4
	bx	lr
.Ltmp164:
.Lfunc_end29:
	.size	_ZNKSt3__223__optional_storage_baseIjLb0EE9has_valueB7v180000Ev, .Lfunc_end29-_ZNKSt3__223__optional_storage_baseIjLb0EE9has_valueB7v180000Ev
	.cfi_endproc
	.cantunwind
	.fnend
                                        @ -- End function
	.section	.text._ZNRSt3__28optionalIjEdeB7v180000Ev,"axG",%progbits,_ZNRSt3__28optionalIjEdeB7v180000Ev,comdat
	.hidden	_ZNRSt3__28optionalIjEdeB7v180000Ev @ -- Begin function _ZNRSt3__28optionalIjEdeB7v180000Ev
	.weak	_ZNRSt3__28optionalIjEdeB7v180000Ev
	.p2align	2
	.type	_ZNRSt3__28optionalIjEdeB7v180000Ev,%function
	.code	16                              @ @_ZNRSt3__28optionalIjEdeB7v180000Ev
	.thumb_func
_ZNRSt3__28optionalIjEdeB7v180000Ev:
.Lfunc_begin30:
	.loc	4 1026 0 is_stmt 1              @ D:\Embed\MDK\MDK\ARM\ARMCompilerV621\Bin\..\include\libcxx\optional:1026:0
	.fnstart
	.cfi_startproc
@ %bb.0:
	.save	{r7, lr}
	push	{r7, lr}
	.cfi_def_cfa_offset 8
	.cfi_offset lr, -4
	.cfi_offset r7, -8
	.pad	#8
	sub	sp, #8
	.cfi_def_cfa_offset 16
	str	r0, [sp, #4]
	ldr	r0, [sp, #4]
.Ltmp165:
	.loc	4 1028 22 prologue_end          @ D:\Embed\MDK\MDK\ARM\ARMCompilerV621\Bin\..\include\libcxx\optional:1028:22
	bl	_ZNRSt3__223__optional_storage_baseIjLb0EE5__getB7v180000Ev
	.loc	4 1028 9 epilogue_begin is_stmt 0 @ D:\Embed\MDK\MDK\ARM\ARMCompilerV621\Bin\..\include\libcxx\optional:1028:9
	add	sp, #8
	pop	{r7, pc}
.Ltmp166:
.Lfunc_end30:
	.size	_ZNRSt3__28optionalIjEdeB7v180000Ev, .Lfunc_end30-_ZNRSt3__28optionalIjEdeB7v180000Ev
	.cfi_endproc
	.cantunwind
	.fnend
                                        @ -- End function
	.section	.text._Z8write_leIjEbT_PN5fibre16generic_bufptr_tIhEE,"axG",%progbits,_Z8write_leIjEbT_PN5fibre16generic_bufptr_tIhEE,comdat
	.hidden	_Z8write_leIjEbT_PN5fibre16generic_bufptr_tIhEE @ -- Begin function _Z8write_leIjEbT_PN5fibre16generic_bufptr_tIhEE
	.weak	_Z8write_leIjEbT_PN5fibre16generic_bufptr_tIhEE
	.p2align	2
	.type	_Z8write_leIjEbT_PN5fibre16generic_bufptr_tIhEE,%function
	.code	16                              @ @_Z8write_leIjEbT_PN5fibre16generic_bufptr_tIhEE
	.thumb_func
_Z8write_leIjEbT_PN5fibre16generic_bufptr_tIhEE:
.Lfunc_begin31:
	.loc	14 74 0 is_stmt 1               @ ../fibre-cpp/include\fibre/simple_serdes.hpp:74:0
	.fnstart
	.cfi_startproc
@ %bb.0:
	.save	{r7, lr}
	push	{r7, lr}
	.cfi_def_cfa_offset 8
	.cfi_offset lr, -4
	.cfi_offset r7, -8
	.pad	#16
	sub	sp, #16
	.cfi_def_cfa_offset 24
	str	r0, [sp, #12]
	str	r1, [sp, #8]
.Ltmp167:
	.loc	14 76 45 prologue_end           @ ../fibre-cpp/include\fibre/simple_serdes.hpp:76:45
	ldr	r0, [sp, #12]
	.loc	14 76 53 is_stmt 0              @ ../fibre-cpp/include\fibre/simple_serdes.hpp:76:53
	str	r0, [sp, #4]                    @ 4-byte Spill
	ldr	r0, [sp, #8]
	.loc	14 76 61                        @ ../fibre-cpp/include\fibre/simple_serdes.hpp:76:61
	bl	_ZN5fibre16generic_bufptr_tIhE5beginEv
	.loc	14 76 70                        @ ../fibre-cpp/include\fibre/simple_serdes.hpp:76:70
	str	r0, [sp]                        @ 4-byte Spill
	ldr	r0, [sp, #8]
	.loc	14 76 78                        @ ../fibre-cpp/include\fibre/simple_serdes.hpp:76:78
	bl	_ZN5fibre16generic_bufptr_tIhE3endEv
	ldr	r1, [sp]                        @ 4-byte Reload
	mov	r2, r0
	ldr	r0, [sp, #4]                    @ 4-byte Reload
	ldr	r2, [r2]
	.loc	14 76 12                        @ ../fibre-cpp/include\fibre/simple_serdes.hpp:76:12
	bl	_ZN16SimpleSerializerIjLb0EvE5writeIPhEEbjPT_S3_
	.loc	14 76 5 epilogue_begin          @ ../fibre-cpp/include\fibre/simple_serdes.hpp:76:5
	add	sp, #16
	pop	{r7, pc}
.Ltmp168:
.Lfunc_end31:
	.size	_Z8write_leIjEbT_PN5fibre16generic_bufptr_tIhEE, .Lfunc_end31-_Z8write_leIjEbT_PN5fibre16generic_bufptr_tIhEE
	.cfi_endproc
	.cantunwind
	.fnend
                                        @ -- End function
	.section	.text._ZN5fibre25LegacyProtocolPacketBased17on_write_finishedENS_11WriteResultE,"ax",%progbits
	.hidden	_ZN5fibre25LegacyProtocolPacketBased17on_write_finishedENS_11WriteResultE @ -- Begin function _ZN5fibre25LegacyProtocolPacketBased17on_write_finishedENS_11WriteResultE
	.globl	_ZN5fibre25LegacyProtocolPacketBased17on_write_finishedENS_11WriteResultE
	.p2align	2
	.type	_ZN5fibre25LegacyProtocolPacketBased17on_write_finishedENS_11WriteResultE,%function
	.code	16                              @ @_ZN5fibre25LegacyProtocolPacketBased17on_write_finishedENS_11WriteResultE
	.thumb_func
_ZN5fibre25LegacyProtocolPacketBased17on_write_finishedENS_11WriteResultE:
.Lfunc_begin32:
	.loc	3 322 0 is_stmt 1               @ ../fibre-cpp/legacy_protocol.cpp:322:0
	.fnstart
	.cfi_startproc
@ %bb.0:
	.save	{r7, lr}
	push	{r7, lr}
	.cfi_def_cfa_offset 8
	.cfi_offset lr, -4
	.cfi_offset r7, -8
	.pad	#32
	sub	sp, #32
	.cfi_def_cfa_offset 40
                                        @ kill: def $r3 killed $r2
                                        @ kill: def $r3 killed $r1
	str	r2, [sp, #28]
	str	r1, [sp, #24]
	str	r0, [sp, #20]
	ldr	r0, [sp, #20]
	str	r0, [sp, #4]                    @ 4-byte Spill
	movs	r1, #0
.Ltmp169:
	.loc	3 323 16 prologue_end           @ ../fibre-cpp/legacy_protocol.cpp:323:16
	str.w	r1, [r0, #268]
.Ltmp170:
	.loc	3 325 9                         @ ../fibre-cpp/legacy_protocol.cpp:325:9
	ldrb.w	r0, [r0, #276]
.Ltmp171:
	.loc	3 325 9 is_stmt 0               @ ../fibre-cpp/legacy_protocol.cpp:325:9
	cbz	r0, .LBB32_2
	b	.LBB32_1
.LBB32_1:
.Ltmp172:
	.loc	3 326 25 is_stmt 1              @ ../fibre-cpp/legacy_protocol.cpp:326:25
	ldr	r0, [sp, #4]                    @ 4-byte Reload
	ldrb.w	r1, [r0, #276]
	.loc	3 326 9 is_stmt 0               @ ../fibre-cpp/legacy_protocol.cpp:326:9
	bl	_ZN5fibre25LegacyProtocolPacketBased15on_rx_tx_closedENS_12StreamStatusE
	.loc	3 327 9 is_stmt 1               @ ../fibre-cpp/legacy_protocol.cpp:327:9
	b	.LBB32_4
.Ltmp173:
.LBB32_2:
	.loc	3 363 9                         @ ../fibre-cpp/legacy_protocol.cpp:363:9
	ldr	r0, [sp, #4]                    @ 4-byte Reload
	ldr.w	r0, [r0, #272]
.Ltmp174:
	.loc	3 363 9 is_stmt 0               @ ../fibre-cpp/legacy_protocol.cpp:363:9
	cbz	r0, .LBB32_4
	b	.LBB32_3
.LBB32_3:
.Ltmp175:
	.loc	3 366 27 is_stmt 1              @ ../fibre-cpp/legacy_protocol.cpp:366:27
	ldr	r0, [sp, #4]                    @ 4-byte Reload
	ldr.w	r1, [r0, #272]
	.loc	3 366 18 is_stmt 0              @ ../fibre-cpp/legacy_protocol.cpp:366:18
	str	r1, [sp, #16]
	movs	r1, #0
	.loc	3 367 17 is_stmt 1              @ ../fibre-cpp/legacy_protocol.cpp:367:17
	str.w	r1, [r0, #272]
	.loc	3 368 26                        @ ../fibre-cpp/legacy_protocol.cpp:368:26
	strb.w	r1, [sp, #8]
	.loc	3 368 38 is_stmt 0              @ ../fibre-cpp/legacy_protocol.cpp:368:38
	ldr	r1, [sp, #16]
	.loc	3 368 26                        @ ../fibre-cpp/legacy_protocol.cpp:368:26
	str	r1, [sp, #12]
	.loc	3 368 9                         @ ../fibre-cpp/legacy_protocol.cpp:368:9
	ldr	r1, [sp, #8]
	ldr	r2, [sp, #12]
	bl	_ZN5fibre25LegacyProtocolPacketBased16on_read_finishedENS_10ReadResultE
	.loc	3 374 5 is_stmt 1               @ ../fibre-cpp/legacy_protocol.cpp:374:5
	b	.LBB32_4
.Ltmp176:
.LBB32_4:
	.loc	3 389 1 epilogue_begin          @ ../fibre-cpp/legacy_protocol.cpp:389:1
	add	sp, #32
	pop	{r7, pc}
.Ltmp177:
.Lfunc_end32:
	.size	_ZN5fibre25LegacyProtocolPacketBased17on_write_finishedENS_11WriteResultE, .Lfunc_end32-_ZN5fibre25LegacyProtocolPacketBased17on_write_finishedENS_11WriteResultE
	.cfi_endproc
	.cantunwind
	.fnend
                                        @ -- End function
	.section	.text._ZN5fibre25LegacyProtocolPacketBased15on_rx_tx_closedENS_12StreamStatusE,"ax",%progbits
	.hidden	_ZN5fibre25LegacyProtocolPacketBased15on_rx_tx_closedENS_12StreamStatusE @ -- Begin function _ZN5fibre25LegacyProtocolPacketBased15on_rx_tx_closedENS_12StreamStatusE
	.globl	_ZN5fibre25LegacyProtocolPacketBased15on_rx_tx_closedENS_12StreamStatusE
	.p2align	2
	.type	_ZN5fibre25LegacyProtocolPacketBased15on_rx_tx_closedENS_12StreamStatusE,%function
	.code	16                              @ @_ZN5fibre25LegacyProtocolPacketBased15on_rx_tx_closedENS_12StreamStatusE
	.thumb_func
_ZN5fibre25LegacyProtocolPacketBased15on_rx_tx_closedENS_12StreamStatusE:
.Lfunc_begin33:
	.loc	3 522 0                         @ ../fibre-cpp/legacy_protocol.cpp:522:0
	.fnstart
	.cfi_startproc
@ %bb.0:
	.save	{r7, lr}
	push	{r7, lr}
	.cfi_def_cfa_offset 8
	.cfi_offset lr, -4
	.cfi_offset r7, -8
	.pad	#16
	sub	sp, #16
	.cfi_def_cfa_offset 24
                                        @ kill: def $r2 killed $r1
	str	r0, [sp, #12]
	strb.w	r1, [sp, #11]
	ldr	r0, [sp, #12]
.Ltmp178:
	.loc	3 523 9 prologue_end            @ ../fibre-cpp/legacy_protocol.cpp:523:9
	str	r0, [sp, #4]                    @ 4-byte Spill
	ldrb.w	r0, [sp, #11]
	.loc	3 523 33 is_stmt 0              @ ../fibre-cpp/legacy_protocol.cpp:523:33
	cmp	r0, #2
	beq	.LBB33_2
	b	.LBB33_1
.LBB33_1:
	.loc	3 523 36                        @ ../fibre-cpp/legacy_protocol.cpp:523:36
	ldrb.w	r0, [sp, #11]
.Ltmp179:
	.loc	3 523 9                         @ ../fibre-cpp/legacy_protocol.cpp:523:9
	cmp	r0, #1
	bne	.LBB33_3
	b	.LBB33_2
.LBB33_2:
	.loc	3 0 9                           @ ../fibre-cpp/legacy_protocol.cpp:0:9
	movs	r0, #3
.Ltmp180:
	.loc	3 525 16 is_stmt 1              @ ../fibre-cpp/legacy_protocol.cpp:525:16
	strb.w	r0, [sp, #11]
	.loc	3 526 5                         @ ../fibre-cpp/legacy_protocol.cpp:526:5
	b	.LBB33_3
.Ltmp181:
.LBB33_3:
	.loc	3 550 5                         @ ../fibre-cpp/legacy_protocol.cpp:550:5
	ldr	r1, [sp, #4]                    @ 4-byte Reload
	add.w	r0, r1, #280
	.loc	3 550 40 is_stmt 0              @ ../fibre-cpp/legacy_protocol.cpp:550:40
	ldrb.w	r2, [sp, #11]
	.loc	3 550 17                        @ ../fibre-cpp/legacy_protocol.cpp:550:17
	bl	_ZN5fibre8CallbackIvJPNS_25LegacyProtocolPacketBasedENS_12StreamStatusEEE16invoke_and_clearES2_S3_
	.loc	3 551 1 epilogue_begin is_stmt 1 @ ../fibre-cpp/legacy_protocol.cpp:551:1
	add	sp, #16
	pop	{r7, pc}
.Ltmp182:
.Lfunc_end33:
	.size	_ZN5fibre25LegacyProtocolPacketBased15on_rx_tx_closedENS_12StreamStatusE, .Lfunc_end33-_ZN5fibre25LegacyProtocolPacketBased15on_rx_tx_closedENS_12StreamStatusE
	.cfi_endproc
	.cantunwind
	.fnend
                                        @ -- End function
	.section	.text._ZN5fibre25LegacyProtocolPacketBased16on_read_finishedENS_10ReadResultE,"ax",%progbits
	.hidden	_ZN5fibre25LegacyProtocolPacketBased16on_read_finishedENS_10ReadResultE @ -- Begin function _ZN5fibre25LegacyProtocolPacketBased16on_read_finishedENS_10ReadResultE
	.globl	_ZN5fibre25LegacyProtocolPacketBased16on_read_finishedENS_10ReadResultE
	.p2align	2
	.type	_ZN5fibre25LegacyProtocolPacketBased16on_read_finishedENS_10ReadResultE,%function
	.code	16                              @ @_ZN5fibre25LegacyProtocolPacketBased16on_read_finishedENS_10ReadResultE
	.thumb_func
_ZN5fibre25LegacyProtocolPacketBased16on_read_finishedENS_10ReadResultE:
.Lfunc_begin34:
	.loc	3 391 0                         @ ../fibre-cpp/legacy_protocol.cpp:391:0
	.fnstart
	.cfi_startproc
@ %bb.0:
	.save	{r4, lr}
	push	{r4, lr}
	.cfi_def_cfa_offset 8
	.cfi_offset lr, -4
	.cfi_offset r4, -8
	.pad	#296
	sub	sp, #296
	.cfi_def_cfa_offset 304
                                        @ kill: def $r3 killed $r2
                                        @ kill: def $r3 killed $r1
	str	r2, [sp, #292]
	str	r1, [sp, #288]
	str	r0, [sp, #284]
	ldr	r0, [sp, #284]
.Ltmp183:
	.loc	3 394 16 prologue_end           @ ../fibre-cpp/legacy_protocol.cpp:394:16
	str	r0, [sp, #104]                  @ 4-byte Spill
	ldrb.w	r0, [sp, #288]
.Ltmp184:
	.loc	3 394 9 is_stmt 0               @ ../fibre-cpp/legacy_protocol.cpp:394:9
	cmp	r0, #2
	bne	.LBB34_2
	b	.LBB34_1
.LBB34_1:
.Ltmp185:
	.loc	3 395 22 is_stmt 1              @ ../fibre-cpp/legacy_protocol.cpp:395:22
	movw	r1, :lower16:.L.str
	movt	r1, :upper16:.L.str
	addw	r0, sp, #279
	bl	_ZN10NullStreamlsIPKcEERS_T_
                                        @ kill: def $r1 killed $r0
	.loc	3 396 9                         @ ../fibre-cpp/legacy_protocol.cpp:396:9
	ldr	r0, [sp, #104]                  @ 4-byte Reload
	movs	r1, #2
	bl	_ZN5fibre25LegacyProtocolPacketBased12on_rx_closedENS_12StreamStatusE
	.loc	3 397 9                         @ ../fibre-cpp/legacy_protocol.cpp:397:9
	b	.LBB34_29
.Ltmp186:
.LBB34_2:
	.loc	3 398 23                        @ ../fibre-cpp/legacy_protocol.cpp:398:23
	ldrb.w	r0, [sp, #288]
.Ltmp187:
	.loc	3 398 16 is_stmt 0              @ ../fibre-cpp/legacy_protocol.cpp:398:16
	cmp	r0, #1
	bne	.LBB34_4
	b	.LBB34_3
.LBB34_3:
.Ltmp188:
	.loc	3 399 22 is_stmt 1              @ ../fibre-cpp/legacy_protocol.cpp:399:22
	movw	r1, :lower16:.L.str.1
	movt	r1, :upper16:.L.str.1
	add.w	r0, sp, #278
	bl	_ZN10NullStreamlsIPKcEERS_T_
                                        @ kill: def $r1 killed $r0
	.loc	3 400 9                         @ ../fibre-cpp/legacy_protocol.cpp:400:9
	ldr	r0, [sp, #104]                  @ 4-byte Reload
	movs	r1, #1
	bl	_ZN5fibre25LegacyProtocolPacketBased12on_rx_closedENS_12StreamStatusE
	.loc	3 401 9                         @ ../fibre-cpp/legacy_protocol.cpp:401:9
	b	.LBB34_29
.Ltmp189:
.LBB34_4:
	.loc	3 402 23                        @ ../fibre-cpp/legacy_protocol.cpp:402:23
	ldrb.w	r0, [sp, #288]
.Ltmp190:
	.loc	3 402 16 is_stmt 0              @ ../fibre-cpp/legacy_protocol.cpp:402:16
	cbz	r0, .LBB34_6
	b	.LBB34_5
.LBB34_5:
.Ltmp191:
	.loc	3 403 22 is_stmt 1              @ ../fibre-cpp/legacy_protocol.cpp:403:22
	movw	r1, :lower16:.L.str.2
	movt	r1, :upper16:.L.str.2
	addw	r0, sp, #277
	bl	_ZN10NullStreamlsIPKcEERS_T_
                                        @ kill: def $r1 killed $r0
	.loc	3 407 9                         @ ../fibre-cpp/legacy_protocol.cpp:407:9
	ldr	r0, [sp, #104]                  @ 4-byte Reload
	movs	r1, #3
	bl	_ZN5fibre25LegacyProtocolPacketBased12on_rx_closedENS_12StreamStatusE
	.loc	3 408 9                         @ ../fibre-cpp/legacy_protocol.cpp:408:9
	b	.LBB34_29
.Ltmp192:
.LBB34_6:
	.loc	3 0 9 is_stmt 0                 @ ../fibre-cpp/legacy_protocol.cpp:0:9
	b	.LBB34_7
.LBB34_7:
	b	.LBB34_8
.LBB34_8:
	.loc	3 411 34 is_stmt 1              @ ../fibre-cpp/legacy_protocol.cpp:411:34
	ldr	r0, [sp, #104]                  @ 4-byte Reload
	add.w	r1, r0, #140
	.loc	3 411 50 is_stmt 0              @ ../fibre-cpp/legacy_protocol.cpp:411:50
	ldr	r2, [sp, #292]
	add	r0, sp, #268
	.loc	3 411 24                        @ ../fibre-cpp/legacy_protocol.cpp:411:24
	str	r0, [sp, #100]                  @ 4-byte Spill
	bl	_ZN5fibre16generic_bufptr_tIKhEC2EPS1_S3_
	ldr	r0, [sp, #100]                  @ 4-byte Reload
	.loc	3 414 38 is_stmt 1              @ ../fibre-cpp/legacy_protocol.cpp:414:38
	bl	_Z7read_leItENSt3__28optionalIT_EEPN5fibre16generic_bufptr_tIKhEE
	str	r0, [sp, #264]
	add	r0, sp, #264
.Ltmp193:
	.loc	3 416 17                        @ ../fibre-cpp/legacy_protocol.cpp:416:17
	bl	_ZNKSt3__223__optional_storage_baseItLb0EE9has_valueB7v180000Ev
.Ltmp194:
	.loc	3 416 9 is_stmt 0               @ ../fibre-cpp/legacy_protocol.cpp:416:9
	cbnz	r0, .LBB34_10
	b	.LBB34_9
.LBB34_9:
.Ltmp195:
	.loc	3 417 22 is_stmt 1              @ ../fibre-cpp/legacy_protocol.cpp:417:22
	movw	r1, :lower16:.L.str.3
	movt	r1, :upper16:.L.str.3
	addw	r0, sp, #263
	bl	_ZN10NullStreamlsIPKcEERS_T_
	.loc	3 419 5                         @ ../fibre-cpp/legacy_protocol.cpp:419:5
	b	.LBB34_28
.Ltmp196:
.LBB34_10:
	.loc	3 0 5 is_stmt 0                 @ ../fibre-cpp/legacy_protocol.cpp:0:5
	add	r0, sp, #264
.Ltmp197:
	.loc	3 419 16                        @ ../fibre-cpp/legacy_protocol.cpp:419:16
	bl	_ZNRSt3__28optionalItEdeB7v180000Ev
	ldrh	r0, [r0]
.Ltmp198:
	.loc	3 419 16                        @ ../fibre-cpp/legacy_protocol.cpp:419:16
	lsls	r0, r0, #16
	cmp	r0, #0
	bpl	.LBB34_12
	b	.LBB34_11
.LBB34_11:
.Ltmp199:
	.loc	3 443 22 is_stmt 1              @ ../fibre-cpp/legacy_protocol.cpp:443:22
	movw	r1, :lower16:.L.str.4
	movt	r1, :upper16:.L.str.4
	add.w	r0, sp, #262
	bl	_ZN10NullStreamlsIPKcEERS_T_
	.loc	3 446 5                         @ ../fibre-cpp/legacy_protocol.cpp:446:5
	b	.LBB34_27
.Ltmp200:
.LBB34_12:
	.loc	3 0 5 is_stmt 0                 @ ../fibre-cpp/legacy_protocol.cpp:0:5
	add	r0, sp, #268
.Ltmp201:
	.loc	3 449 20 is_stmt 1              @ ../fibre-cpp/legacy_protocol.cpp:449:20
	bl	_ZNK5fibre16generic_bufptr_tIKhE4sizeEv
.Ltmp202:
	.loc	3 449 13 is_stmt 0              @ ../fibre-cpp/legacy_protocol.cpp:449:13
	cmp	r0, #5
	bhi	.LBB34_14
	b	.LBB34_13
.LBB34_13:
.Ltmp203:
	.loc	3 450 26 is_stmt 1              @ ../fibre-cpp/legacy_protocol.cpp:450:26
	movw	r1, :lower16:.L.str.3
	movt	r1, :upper16:.L.str.3
	addw	r0, sp, #261
	bl	_ZN10NullStreamlsIPKcEERS_T_
	ldr	r1, [sp, #104]                  @ 4-byte Reload
	.loc	3 451 13                        @ ../fibre-cpp/legacy_protocol.cpp:451:13
	ldr	r0, [r1], #140
	.loc	3 451 37 is_stmt 0              @ ../fibre-cpp/legacy_protocol.cpp:451:37
	str	r0, [sp, #88]                   @ 4-byte Spill
	add	r0, sp, #252
	str	r0, [sp, #92]                   @ 4-byte Spill
	bl	_ZN5fibre16generic_bufptr_tIhEC2ILj128EEERAT__h
	ldr	r1, [sp, #104]                  @ 4-byte Reload
	add	r0, sp, #244
	.loc	3 451 54                        @ ../fibre-cpp/legacy_protocol.cpp:451:54
	str	r0, [sp, #96]                   @ 4-byte Spill
	bl	_ZN5fibre13make_callbackIMNS_25LegacyProtocolPacketBasedEFvNS_10ReadResultEEXadL_ZNS1_16on_read_finishedES2_EENS_15function_traitsIvS1_JS2_EEENS_14MemberCallbackIS4_XadL_ZNS1_16on_read_finishedES2_EES1_vNSt3__25tupleIJS2_EEEEEEENT2_4cb_tEPNT1_4TObjE
	ldr	r0, [sp, #88]                   @ 4-byte Reload
	ldr	r1, [sp, #92]                   @ 4-byte Reload
	ldr	r3, [sp, #96]                   @ 4-byte Reload
	.loc	3 451 26                        @ ../fibre-cpp/legacy_protocol.cpp:451:26
	ldr	r2, [r0]
	ldr.w	r12, [r2]
	add	r2, sp, #280
	blx	r12
	.loc	3 452 13 is_stmt 1              @ ../fibre-cpp/legacy_protocol.cpp:452:13
	b	.LBB34_29
.Ltmp204:
.LBB34_14:
	.loc	3 0 13 is_stmt 0                @ ../fibre-cpp/legacy_protocol.cpp:0:13
	add	r0, sp, #268
	.loc	3 458 33 is_stmt 1              @ ../fibre-cpp/legacy_protocol.cpp:458:33
	bl	_Z7read_leItENSt3__28optionalIT_EEPN5fibre16generic_bufptr_tIKhEE
	str.w	r0, [sp, #238]
	add.w	r0, sp, #238
	.loc	3 458 32 is_stmt 0              @ ../fibre-cpp/legacy_protocol.cpp:458:32
	bl	_ZNOSt3__28optionalItEdeB7v180000Ev
	ldrh	r0, [r0]
	.loc	3 458 18                        @ ../fibre-cpp/legacy_protocol.cpp:458:18
	strh.w	r0, [sp, #242]
	.loc	3 459 32 is_stmt 1              @ ../fibre-cpp/legacy_protocol.cpp:459:32
	ldrh.w	r0, [sp, #242]
	lsrs	r0, r0, #15
	.loc	3 459 14 is_stmt 0              @ ../fibre-cpp/legacy_protocol.cpp:459:14
	strb.w	r0, [sp, #237]
	.loc	3 460 21 is_stmt 1              @ ../fibre-cpp/legacy_protocol.cpp:460:21
	ldrh.w	r0, [sp, #242]
	bfc	r0, #15, #17
	strh.w	r0, [sp, #242]
.Ltmp205:
	.loc	3 462 13                        @ ../fibre-cpp/legacy_protocol.cpp:462:13
	ldrb.w	r0, [sp, #237]
	.loc	3 462 29 is_stmt 0              @ ../fibre-cpp/legacy_protocol.cpp:462:29
	lsls	r0, r0, #31
	cbz	r0, .LBB34_17
	b	.LBB34_15
.LBB34_15:
	.loc	3 462 32                        @ ../fibre-cpp/legacy_protocol.cpp:462:32
	ldr	r0, [sp, #104]                  @ 4-byte Reload
	ldr.w	r0, [r0, #268]
.Ltmp206:
	.loc	3 462 13                        @ ../fibre-cpp/legacy_protocol.cpp:462:13
	cbz	r0, .LBB34_17
	b	.LBB34_16
.LBB34_16:
.Ltmp207:
	.loc	3 466 30 is_stmt 1              @ ../fibre-cpp/legacy_protocol.cpp:466:30
	ldr	r1, [sp, #104]                  @ 4-byte Reload
	ldr	r0, [sp, #292]
	.loc	3 466 21 is_stmt 0              @ ../fibre-cpp/legacy_protocol.cpp:466:21
	str.w	r0, [r1, #272]
	.loc	3 467 13 is_stmt 1              @ ../fibre-cpp/legacy_protocol.cpp:467:13
	b	.LBB34_29
.Ltmp208:
.LBB34_17:
	.loc	3 473 37                        @ ../fibre-cpp/legacy_protocol.cpp:473:37
	ldrh.w	r0, [sp, #242]
	cbz	r0, .LBB34_19
	b	.LBB34_18
.LBB34_18:
	.loc	3 473 51 is_stmt 0              @ ../fibre-cpp/legacy_protocol.cpp:473:51
	movw	r0, :lower16:_ZN5fibre9json_crc_E
	movt	r0, :upper16:_ZN5fibre9json_crc_E
	ldrh	r0, [r0]
	.loc	3 473 37                        @ ../fibre-cpp/legacy_protocol.cpp:473:37
	str	r0, [sp, #84]                   @ 4-byte Spill
	b	.LBB34_20
.LBB34_19:
	.loc	3 0 37                          @ ../fibre-cpp/legacy_protocol.cpp:0:37
	movs	r0, #1
	.loc	3 473 37                        @ ../fibre-cpp/legacy_protocol.cpp:473:37
	str	r0, [sp, #84]                   @ 4-byte Spill
	b	.LBB34_20
.LBB34_20:
	ldr	r0, [sp, #84]                   @ 4-byte Reload
	.loc	3 473 18                        @ ../fibre-cpp/legacy_protocol.cpp:473:18
	strh.w	r0, [sp, #234]
	add	r0, sp, #268
	.loc	3 474 44 is_stmt 1              @ ../fibre-cpp/legacy_protocol.cpp:474:44
	str	r0, [sp, #76]                   @ 4-byte Spill
	bl	_ZN5fibre16generic_bufptr_tIKhE3endEv
	mov	r1, r0
	ldr	r0, [sp, #76]                   @ 4-byte Reload
	ldr	r1, [r1]
	.loc	3 474 35 is_stmt 0              @ ../fibre-cpp/legacy_protocol.cpp:474:35
	ldrb	r1, [r1, #-2]
	.loc	3 474 67                        @ ../fibre-cpp/legacy_protocol.cpp:474:67
	str	r1, [sp, #80]                   @ 4-byte Spill
	bl	_ZN5fibre16generic_bufptr_tIKhE3endEv
	mov	r1, r0
	ldr	r0, [sp, #80]                   @ 4-byte Reload
	ldr	r1, [r1]
	.loc	3 474 58                        @ ../fibre-cpp/legacy_protocol.cpp:474:58
	ldrb	r1, [r1, #-1]
	.loc	3 474 55                        @ ../fibre-cpp/legacy_protocol.cpp:474:55
	orr.w	r0, r0, r1, lsl #8
	.loc	3 474 18                        @ ../fibre-cpp/legacy_protocol.cpp:474:18
	strh.w	r0, [sp, #232]
.Ltmp209:
	.loc	3 475 13 is_stmt 1              @ ../fibre-cpp/legacy_protocol.cpp:475:13
	ldrh.w	r0, [sp, #234]
	.loc	3 475 33 is_stmt 0              @ ../fibre-cpp/legacy_protocol.cpp:475:33
	ldrh.w	r1, [sp, #232]
.Ltmp210:
	.loc	3 475 13                        @ ../fibre-cpp/legacy_protocol.cpp:475:13
	cmp	r0, r1
	beq	.LBB34_22
	b	.LBB34_21
.LBB34_21:
.Ltmp211:
	.loc	3 476 26 is_stmt 1              @ ../fibre-cpp/legacy_protocol.cpp:476:26
	movw	r1, :lower16:.L.str.5
	movt	r1, :upper16:.L.str.5
	add.w	r0, sp, #231
	bl	_ZN10NullStreamlsIPKcEERS_T_
	.loc	3 476 65 is_stmt 0              @ ../fibre-cpp/legacy_protocol.cpp:476:65
	ldrh.w	r1, [sp, #242]
	.loc	3 476 62                        @ ../fibre-cpp/legacy_protocol.cpp:476:62
	bl	_ZN10NullStreamlsItEERS_T_
	.loc	3 476 77                        @ ../fibre-cpp/legacy_protocol.cpp:476:77
	movw	r1, :lower16:.L.str.6
	movt	r1, :upper16:.L.str.6
	bl	_ZN10NullStreamlsIPKcEERS_T_
	.loc	3 476 104                       @ ../fibre-cpp/legacy_protocol.cpp:476:104
	str	r0, [sp, #52]                   @ 4-byte Spill
	ldrh.w	r1, [sp, #234]
	add	r0, sp, #220
	movs	r2, #1
	.loc	3 476 97                        @ ../fibre-cpp/legacy_protocol.cpp:476:97
	str	r2, [sp, #56]                   @ 4-byte Spill
	bl	_ZN5fibre6as_hexItEENS_10HexPrinterIT_EES2_b
	ldr	r0, [sp, #52]                   @ 4-byte Reload
	.loc	3 476 94                        @ ../fibre-cpp/legacy_protocol.cpp:476:94
	ldrh.w	r1, [sp, #228]
	strh.w	r1, [sp, #216]
	ldr	r1, [sp, #220]
	ldr	r2, [sp, #224]
	str	r2, [sp, #212]
	str	r1, [sp, #208]
	ldr	r1, [sp, #208]
	ldr	r2, [sp, #212]
	ldr	r3, [sp, #216]
	bl	_ZN10NullStreamlsIN5fibre10HexPrinterItEEEERS_T_
	.loc	3 476 122                       @ ../fibre-cpp/legacy_protocol.cpp:476:122
	movw	r1, :lower16:.L.str.7
	movt	r1, :upper16:.L.str.7
	bl	_ZN10NullStreamlsIPKcEERS_T_
	ldr	r2, [sp, #56]                   @ 4-byte Reload
	.loc	3 476 144                       @ ../fibre-cpp/legacy_protocol.cpp:476:144
	str	r0, [sp, #60]                   @ 4-byte Spill
	ldrh.w	r1, [sp, #232]
	add.w	r0, sp, #198
	.loc	3 476 137                       @ ../fibre-cpp/legacy_protocol.cpp:476:137
	bl	_ZN5fibre6as_hexItEENS_10HexPrinterIT_EES2_b
	ldr	r0, [sp, #60]                   @ 4-byte Reload
	.loc	3 476 134                       @ ../fibre-cpp/legacy_protocol.cpp:476:134
	ldrh.w	r1, [sp, #206]
	strh.w	r1, [sp, #192]
	ldr.w	r1, [sp, #198]
	ldr.w	r2, [sp, #202]
	str	r2, [sp, #188]
	str	r1, [sp, #184]
	ldr	r1, [sp, #184]
	ldr	r2, [sp, #188]
	ldr	r3, [sp, #192]
	bl	_ZN10NullStreamlsIN5fibre10HexPrinterItEEEERS_T_
	ldr	r1, [sp, #104]                  @ 4-byte Reload
	.loc	3 477 13 is_stmt 1              @ ../fibre-cpp/legacy_protocol.cpp:477:13
	ldr	r0, [r1], #140
	.loc	3 477 37 is_stmt 0              @ ../fibre-cpp/legacy_protocol.cpp:477:37
	str	r0, [sp, #64]                   @ 4-byte Spill
	add	r0, sp, #176
	str	r0, [sp, #68]                   @ 4-byte Spill
	bl	_ZN5fibre16generic_bufptr_tIhEC2ILj128EEERAT__h
	ldr	r1, [sp, #104]                  @ 4-byte Reload
	add	r0, sp, #168
	.loc	3 477 54                        @ ../fibre-cpp/legacy_protocol.cpp:477:54
	str	r0, [sp, #72]                   @ 4-byte Spill
	bl	_ZN5fibre13make_callbackIMNS_25LegacyProtocolPacketBasedEFvNS_10ReadResultEEXadL_ZNS1_16on_read_finishedES2_EENS_15function_traitsIvS1_JS2_EEENS_14MemberCallbackIS4_XadL_ZNS1_16on_read_finishedES2_EES1_vNSt3__25tupleIJS2_EEEEEEENT2_4cb_tEPNT1_4TObjE
	ldr	r0, [sp, #64]                   @ 4-byte Reload
	ldr	r1, [sp, #68]                   @ 4-byte Reload
	ldr	r3, [sp, #72]                   @ 4-byte Reload
	.loc	3 477 26                        @ ../fibre-cpp/legacy_protocol.cpp:477:26
	ldr	r2, [r0]
	ldr.w	r12, [r2]
	add	r2, sp, #280
	blx	r12
	.loc	3 478 13 is_stmt 1              @ ../fibre-cpp/legacy_protocol.cpp:478:13
	b	.LBB34_29
.Ltmp212:
.LBB34_22:
	.loc	3 480 22                        @ ../fibre-cpp/legacy_protocol.cpp:480:22
	movw	r1, :lower16:.L.str.8
	movt	r1, :upper16:.L.str.8
	add.w	r0, sp, #167
	bl	_ZN10NullStreamlsIPKcEERS_T_
	.loc	3 480 55 is_stmt 0              @ ../fibre-cpp/legacy_protocol.cpp:480:55
	ldrh.w	r1, [sp, #242]
	.loc	3 480 52                        @ ../fibre-cpp/legacy_protocol.cpp:480:52
	bl	_ZN10NullStreamlsItEERS_T_
	add	r0, sp, #268
	.loc	3 484 46 is_stmt 1              @ ../fibre-cpp/legacy_protocol.cpp:484:46
	bl	_Z7read_leItENSt3__28optionalIT_EEPN5fibre16generic_bufptr_tIKhEE
	str	r0, [sp, #160]
	add	r0, sp, #160
	.loc	3 484 45 is_stmt 0              @ ../fibre-cpp/legacy_protocol.cpp:484:45
	bl	_ZNOSt3__28optionalItEdeB7v180000Ev
	ldr	r1, [sp, #104]                  @ 4-byte Reload
	ldrh	r0, [r0]
	.loc	3 484 18                        @ ../fibre-cpp/legacy_protocol.cpp:484:18
	strh.w	r0, [sp, #164]
.Ltmp213:
	.loc	3 487 13 is_stmt 1              @ ../fibre-cpp/legacy_protocol.cpp:487:13
	ldrh.w	r0, [sp, #164]
	.loc	3 487 40 is_stmt 0              @ ../fibre-cpp/legacy_protocol.cpp:487:40
	ldr	r1, [r1, #8]
	.loc	3 487 48                        @ ../fibre-cpp/legacy_protocol.cpp:487:48
	subs	r1, #2
.Ltmp214:
	.loc	3 487 13                        @ ../fibre-cpp/legacy_protocol.cpp:487:13
	cmp	r0, r1
	bls	.LBB34_24
	b	.LBB34_23
.LBB34_23:
.Ltmp215:
	.loc	3 488 40 is_stmt 1              @ ../fibre-cpp/legacy_protocol.cpp:488:40
	ldr	r0, [sp, #104]                  @ 4-byte Reload
	ldr	r0, [r0, #8]
	.loc	3 488 48 is_stmt 0              @ ../fibre-cpp/legacy_protocol.cpp:488:48
	subs	r0, #2
	.loc	3 488 38                        @ ../fibre-cpp/legacy_protocol.cpp:488:38
	strh.w	r0, [sp, #164]
	.loc	3 488 13                        @ ../fibre-cpp/legacy_protocol.cpp:488:13
	b	.LBB34_24
.Ltmp216:
.LBB34_24:
	.loc	3 0 13                          @ ../fibre-cpp/legacy_protocol.cpp:0:13
	add	r0, sp, #268
	.loc	3 490 46 is_stmt 1              @ ../fibre-cpp/legacy_protocol.cpp:490:46
	str	r0, [sp, #36]                   @ 4-byte Spill
	bl	_ZN5fibre16generic_bufptr_tIKhE5beginEv
	mov	r1, r0
	ldr	r0, [sp, #36]                   @ 4-byte Reload
	ldr	r1, [r1]
	.loc	3 490 62 is_stmt 0              @ ../fibre-cpp/legacy_protocol.cpp:490:62
	str	r1, [sp, #40]                   @ 4-byte Spill
	bl	_ZN5fibre16generic_bufptr_tIKhE3endEv
	ldr	r1, [sp, #40]                   @ 4-byte Reload
	ldr	r0, [r0]
	.loc	3 490 68                        @ ../fibre-cpp/legacy_protocol.cpp:490:68
	subs	r2, r0, #2
	add	r0, sp, #152
	.loc	3 490 26                        @ ../fibre-cpp/legacy_protocol.cpp:490:26
	str	r0, [sp, #44]                   @ 4-byte Spill
	bl	_ZN5fibre16generic_bufptr_tIKhEC2EPS1_S3_
	ldr	r0, [sp, #104]                  @ 4-byte Reload
	.loc	3 491 47 is_stmt 1              @ ../fibre-cpp/legacy_protocol.cpp:491:47
	add.w	r1, r0, #14
	.loc	3 491 52 is_stmt 0              @ ../fibre-cpp/legacy_protocol.cpp:491:52
	ldrh.w	r2, [sp, #164]
	add	r0, sp, #144
	.loc	3 491 25                        @ ../fibre-cpp/legacy_protocol.cpp:491:25
	str	r0, [sp, #48]                   @ 4-byte Spill
	bl	_ZN5fibre16generic_bufptr_tIhEC2EPhj
	ldr	r1, [sp, #44]                   @ 4-byte Reload
	ldr	r2, [sp, #48]                   @ 4-byte Reload
	.loc	3 492 33 is_stmt 1              @ ../fibre-cpp/legacy_protocol.cpp:492:33
	ldrh.w	r0, [sp, #242]
	.loc	3 492 9 is_stmt 0               @ ../fibre-cpp/legacy_protocol.cpp:492:9
	bl	_ZN5fibre16endpoint_handlerEiPNS_16generic_bufptr_tIKhEEPNS0_IhEE
.Ltmp217:
	.loc	3 495 13 is_stmt 1              @ ../fibre-cpp/legacy_protocol.cpp:495:13
	ldrb.w	r0, [sp, #237]
.Ltmp218:
	.loc	3 495 13 is_stmt 0              @ ../fibre-cpp/legacy_protocol.cpp:495:13
	lsls	r0, r0, #31
	cbz	r0, .LBB34_26
	b	.LBB34_25
.LBB34_25:
.Ltmp219:
	.loc	3 496 45 is_stmt 1              @ ../fibre-cpp/legacy_protocol.cpp:496:45
	ldrh.w	r0, [sp, #164]
	.loc	3 496 86 is_stmt 0              @ ../fibre-cpp/legacy_protocol.cpp:496:86
	str	r0, [sp, #16]                   @ 4-byte Spill
	add	r0, sp, #144
	bl	_ZNK5fibre16generic_bufptr_tIhE4sizeEv
	mov	r1, r0
	.loc	3 496 70                        @ ../fibre-cpp/legacy_protocol.cpp:496:70
	ldr	r0, [sp, #16]                   @ 4-byte Reload
	subs	r0, r0, r1
	.loc	3 496 93                        @ ../fibre-cpp/legacy_protocol.cpp:496:93
	adds	r0, #2
	.loc	3 496 20                        @ ../fibre-cpp/legacy_protocol.cpp:496:20
	str	r0, [sp, #140]
	add	r0, sp, #264
	.loc	3 497 32 is_stmt 1              @ ../fibre-cpp/legacy_protocol.cpp:497:32
	bl	_ZNRSt3__28optionalItEdeB7v180000Ev
	ldr	r1, [sp, #104]                  @ 4-byte Reload
	ldrh	r0, [r0]
	.loc	3 497 40 is_stmt 0              @ ../fibre-cpp/legacy_protocol.cpp:497:40
	orr	r0, r0, #32768
	.loc	3 497 50                        @ ../fibre-cpp/legacy_protocol.cpp:497:50
	adds	r1, #12
	.loc	3 497 13                        @ ../fibre-cpp/legacy_protocol.cpp:497:13
	str	r1, [sp, #20]                   @ 4-byte Spill
	bl	_Z8write_leItvEjT_Ph
	ldr	r1, [sp, #20]                   @ 4-byte Reload
                                        @ kill: def $r2 killed $r0
	.loc	3 500 13 is_stmt 1              @ ../fibre-cpp/legacy_protocol.cpp:500:13
	ldr	r0, [sp, #104]                  @ 4-byte Reload
	ldr	r0, [r0, #4]
	.loc	3 500 48 is_stmt 0              @ ../fibre-cpp/legacy_protocol.cpp:500:48
	str	r0, [sp, #24]                   @ 4-byte Spill
	ldr	r2, [sp, #140]
	add	r0, sp, #132
	.loc	3 500 38                        @ ../fibre-cpp/legacy_protocol.cpp:500:38
	bl	_ZN5fibre16generic_bufptr_tIKhEC2EPS1_j
	ldr	r1, [sp, #104]                  @ 4-byte Reload
	.loc	3 500 74                        @ ../fibre-cpp/legacy_protocol.cpp:500:74
	add.w	r0, r1, #268
	.loc	3 500 86                        @ ../fibre-cpp/legacy_protocol.cpp:500:86
	str	r0, [sp, #28]                   @ 4-byte Spill
	add	r0, sp, #124
	str	r0, [sp, #32]                   @ 4-byte Spill
	bl	_ZN5fibre13make_callbackIMNS_25LegacyProtocolPacketBasedEFvNS_11WriteResultEEXadL_ZNS1_17on_write_finishedES2_EENS_15function_traitsIvS1_JS2_EEENS_14MemberCallbackIS4_XadL_ZNS1_17on_write_finishedES2_EES1_vNSt3__25tupleIJS2_EEEEEEENT2_4cb_tEPNT1_4TObjE
	ldr	r0, [sp, #24]                   @ 4-byte Reload
	ldr	r3, [sp, #28]                   @ 4-byte Reload
	ldr.w	lr, [sp, #32]                   @ 4-byte Reload
	.loc	3 500 26                        @ ../fibre-cpp/legacy_protocol.cpp:500:26
	ldr	r1, [sp, #132]
	ldr	r2, [sp, #136]
	ldr.w	r12, [r0]
	ldr.w	r12, [r12]
	mov	r4, sp
	str.w	lr, [r4]
	blx	r12
	.loc	3 501 9 is_stmt 1               @ ../fibre-cpp/legacy_protocol.cpp:501:9
	b	.LBB34_26
.Ltmp220:
.LBB34_26:
	.loc	3 0 9 is_stmt 0                 @ ../fibre-cpp/legacy_protocol.cpp:0:9
	b	.LBB34_27
.LBB34_27:
	b	.LBB34_28
.LBB34_28:
	.loc	3 507 5 is_stmt 1               @ ../fibre-cpp/legacy_protocol.cpp:507:5
	ldr	r1, [sp, #104]                  @ 4-byte Reload
	ldr	r0, [r1], #140
	.loc	3 507 29 is_stmt 0              @ ../fibre-cpp/legacy_protocol.cpp:507:29
	str	r0, [sp, #4]                    @ 4-byte Spill
	add	r0, sp, #116
	str	r0, [sp, #8]                    @ 4-byte Spill
	bl	_ZN5fibre16generic_bufptr_tIhEC2ILj128EEERAT__h
	ldr	r1, [sp, #104]                  @ 4-byte Reload
	add	r0, sp, #108
	.loc	3 507 46                        @ ../fibre-cpp/legacy_protocol.cpp:507:46
	str	r0, [sp, #12]                   @ 4-byte Spill
	bl	_ZN5fibre13make_callbackIMNS_25LegacyProtocolPacketBasedEFvNS_10ReadResultEEXadL_ZNS1_16on_read_finishedES2_EENS_15function_traitsIvS1_JS2_EEENS_14MemberCallbackIS4_XadL_ZNS1_16on_read_finishedES2_EES1_vNSt3__25tupleIJS2_EEEEEEENT2_4cb_tEPNT1_4TObjE
	ldr	r0, [sp, #4]                    @ 4-byte Reload
	ldr	r1, [sp, #8]                    @ 4-byte Reload
	ldr	r3, [sp, #12]                   @ 4-byte Reload
	.loc	3 507 18                        @ ../fibre-cpp/legacy_protocol.cpp:507:18
	ldr	r2, [r0]
	ldr.w	r12, [r2]
	add	r2, sp, #280
	blx	r12
	.loc	3 508 1 is_stmt 1               @ ../fibre-cpp/legacy_protocol.cpp:508:1
	b	.LBB34_29
.LBB34_29:
	.loc	3 508 1 epilogue_begin is_stmt 0 @ ../fibre-cpp/legacy_protocol.cpp:508:1
	add	sp, #296
	pop	{r4, pc}
.Ltmp221:
.Lfunc_end34:
	.size	_ZN5fibre25LegacyProtocolPacketBased16on_read_finishedENS_10ReadResultE, .Lfunc_end34-_ZN5fibre25LegacyProtocolPacketBased16on_read_finishedENS_10ReadResultE
	.cfi_endproc
	.cantunwind
	.fnend
                                        @ -- End function
	.section	.text._ZN10NullStreamlsIPKcEERS_T_,"axG",%progbits,_ZN10NullStreamlsIPKcEERS_T_,comdat
	.hidden	_ZN10NullStreamlsIPKcEERS_T_    @ -- Begin function _ZN10NullStreamlsIPKcEERS_T_
	.weak	_ZN10NullStreamlsIPKcEERS_T_
	.p2align	2
	.type	_ZN10NullStreamlsIPKcEERS_T_,%function
	.code	16                              @ @_ZN10NullStreamlsIPKcEERS_T_
	.thumb_func
_ZN10NullStreamlsIPKcEERS_T_:
.Lfunc_begin35:
	.file	19 "D:\\ikingtec\\Robot\\ODrive\\Firmware\\MDK-ARM" "../fibre-cpp/logging.hpp"
	.loc	19 334 0 is_stmt 1              @ ../fibre-cpp/logging.hpp:334:0
	.fnstart
	.cfi_startproc
@ %bb.0:
	.pad	#8
	sub	sp, #8
	.cfi_def_cfa_offset 8
	str	r0, [sp, #4]
	str	r1, [sp]
	ldr	r0, [sp, #4]
.Ltmp222:
	.loc	19 334 58 prologue_end epilogue_begin @ ../fibre-cpp/logging.hpp:334:58
	add	sp, #8
	bx	lr
.Ltmp223:
.Lfunc_end35:
	.size	_ZN10NullStreamlsIPKcEERS_T_, .Lfunc_end35-_ZN10NullStreamlsIPKcEERS_T_
	.cfi_endproc
	.cantunwind
	.fnend
                                        @ -- End function
	.section	.text._ZN5fibre25LegacyProtocolPacketBased12on_rx_closedENS_12StreamStatusE,"ax",%progbits
	.hidden	_ZN5fibre25LegacyProtocolPacketBased12on_rx_closedENS_12StreamStatusE @ -- Begin function _ZN5fibre25LegacyProtocolPacketBased12on_rx_closedENS_12StreamStatusE
	.globl	_ZN5fibre25LegacyProtocolPacketBased12on_rx_closedENS_12StreamStatusE
	.p2align	2
	.type	_ZN5fibre25LegacyProtocolPacketBased12on_rx_closedENS_12StreamStatusE,%function
	.code	16                              @ @_ZN5fibre25LegacyProtocolPacketBased12on_rx_closedENS_12StreamStatusE
	.thumb_func
_ZN5fibre25LegacyProtocolPacketBased12on_rx_closedENS_12StreamStatusE:
.Lfunc_begin36:
	.loc	3 510 0                         @ ../fibre-cpp/legacy_protocol.cpp:510:0
	.fnstart
	.cfi_startproc
@ %bb.0:
	.save	{r7, lr}
	push	{r7, lr}
	.cfi_def_cfa_offset 8
	.cfi_offset lr, -4
	.cfi_offset r7, -8
	.pad	#16
	sub	sp, #16
	.cfi_def_cfa_offset 24
                                        @ kill: def $r2 killed $r1
	str	r0, [sp, #12]
	strb.w	r1, [sp, #11]
	ldr	r0, [sp, #12]
.Ltmp224:
	.loc	3 511 9 prologue_end            @ ../fibre-cpp/legacy_protocol.cpp:511:9
	str	r0, [sp, #4]                    @ 4-byte Spill
	ldr.w	r0, [r0, #268]
.Ltmp225:
	.loc	3 511 9 is_stmt 0               @ ../fibre-cpp/legacy_protocol.cpp:511:9
	cbz	r0, .LBB36_2
	b	.LBB36_1
.LBB36_1:
.Ltmp226:
	.loc	3 514 22 is_stmt 1              @ ../fibre-cpp/legacy_protocol.cpp:514:22
	ldr	r1, [sp, #4]                    @ 4-byte Reload
	ldrb.w	r0, [sp, #11]
	.loc	3 514 20 is_stmt 0              @ ../fibre-cpp/legacy_protocol.cpp:514:20
	strb.w	r0, [r1, #276]
	.loc	3 515 9 is_stmt 1               @ ../fibre-cpp/legacy_protocol.cpp:515:9
	ldr	r0, [r1, #4]
	.loc	3 515 35 is_stmt 0              @ ../fibre-cpp/legacy_protocol.cpp:515:35
	ldr.w	r1, [r1, #268]
	.loc	3 515 22                        @ ../fibre-cpp/legacy_protocol.cpp:515:22
	ldr	r2, [r0]
	ldr	r2, [r2, #4]
	blx	r2
	.loc	3 516 5 is_stmt 1               @ ../fibre-cpp/legacy_protocol.cpp:516:5
	b	.LBB36_3
.Ltmp227:
.LBB36_2:
	.loc	3 518 25                        @ ../fibre-cpp/legacy_protocol.cpp:518:25
	ldr	r0, [sp, #4]                    @ 4-byte Reload
	ldrb.w	r1, [sp, #11]
	.loc	3 518 9 is_stmt 0               @ ../fibre-cpp/legacy_protocol.cpp:518:9
	bl	_ZN5fibre25LegacyProtocolPacketBased15on_rx_tx_closedENS_12StreamStatusE
	b	.LBB36_3
.Ltmp228:
.LBB36_3:
	.loc	3 520 1 epilogue_begin is_stmt 1 @ ../fibre-cpp/legacy_protocol.cpp:520:1
	add	sp, #16
	pop	{r7, pc}
.Ltmp229:
.Lfunc_end36:
	.size	_ZN5fibre25LegacyProtocolPacketBased12on_rx_closedENS_12StreamStatusE, .Lfunc_end36-_ZN5fibre25LegacyProtocolPacketBased12on_rx_closedENS_12StreamStatusE
	.cfi_endproc
	.cantunwind
	.fnend
                                        @ -- End function
	.section	.text._Z7read_leItENSt3__28optionalIT_EEPN5fibre16generic_bufptr_tIKhEE,"axG",%progbits,_Z7read_leItENSt3__28optionalIT_EEPN5fibre16generic_bufptr_tIKhEE,comdat
	.hidden	_Z7read_leItENSt3__28optionalIT_EEPN5fibre16generic_bufptr_tIKhEE @ -- Begin function _Z7read_leItENSt3__28optionalIT_EEPN5fibre16generic_bufptr_tIKhEE
	.weak	_Z7read_leItENSt3__28optionalIT_EEPN5fibre16generic_bufptr_tIKhEE
	.p2align	2
	.type	_Z7read_leItENSt3__28optionalIT_EEPN5fibre16generic_bufptr_tIKhEE,%function
	.code	16                              @ @_Z7read_leItENSt3__28optionalIT_EEPN5fibre16generic_bufptr_tIKhEE
	.thumb_func
_Z7read_leItENSt3__28optionalIT_EEPN5fibre16generic_bufptr_tIKhEE:
.Lfunc_begin37:
	.loc	14 68 0                         @ ../fibre-cpp/include\fibre/simple_serdes.hpp:68:0
	.fnstart
	.cfi_startproc
@ %bb.0:
	.save	{r7, lr}
	push	{r7, lr}
	.cfi_def_cfa_offset 8
	.cfi_offset lr, -4
	.cfi_offset r7, -8
	.pad	#16
	sub	sp, #16
	.cfi_def_cfa_offset 24
	str	r0, [sp, #8]
.Ltmp230:
	.loc	14 70 45 prologue_end           @ ../fibre-cpp/include\fibre/simple_serdes.hpp:70:45
	ldr	r0, [sp, #8]
	.loc	14 70 53 is_stmt 0              @ ../fibre-cpp/include\fibre/simple_serdes.hpp:70:53
	bl	_ZN5fibre16generic_bufptr_tIKhE5beginEv
	.loc	14 70 62                        @ ../fibre-cpp/include\fibre/simple_serdes.hpp:70:62
	str	r0, [sp, #4]                    @ 4-byte Spill
	ldr	r0, [sp, #8]
	.loc	14 70 70                        @ ../fibre-cpp/include\fibre/simple_serdes.hpp:70:70
	bl	_ZN5fibre16generic_bufptr_tIKhE3endEv
	mov	r1, r0
	ldr	r0, [sp, #4]                    @ 4-byte Reload
	ldr	r1, [r1]
	.loc	14 70 12                        @ ../fibre-cpp/include\fibre/simple_serdes.hpp:70:12
	bl	_ZN16SimpleSerializerItLb0EvE4readIPKhEENSt3__28optionalItEEPT_S7_
	str	r0, [sp, #12]
	.loc	14 70 5                         @ ../fibre-cpp/include\fibre/simple_serdes.hpp:70:5
	ldr	r0, [sp, #12]
	.loc	14 70 5 epilogue_begin          @ ../fibre-cpp/include\fibre/simple_serdes.hpp:70:5
	add	sp, #16
	pop	{r7, pc}
.Ltmp231:
.Lfunc_end37:
	.size	_Z7read_leItENSt3__28optionalIT_EEPN5fibre16generic_bufptr_tIKhEE, .Lfunc_end37-_Z7read_leItENSt3__28optionalIT_EEPN5fibre16generic_bufptr_tIKhEE
	.cfi_endproc
	.cantunwind
	.fnend
                                        @ -- End function
	.section	.text._ZNKSt3__223__optional_storage_baseItLb0EE9has_valueB7v180000Ev,"axG",%progbits,_ZNKSt3__223__optional_storage_baseItLb0EE9has_valueB7v180000Ev,comdat
	.hidden	_ZNKSt3__223__optional_storage_baseItLb0EE9has_valueB7v180000Ev @ -- Begin function _ZNKSt3__223__optional_storage_baseItLb0EE9has_valueB7v180000Ev
	.weak	_ZNKSt3__223__optional_storage_baseItLb0EE9has_valueB7v180000Ev
	.p2align	2
	.type	_ZNKSt3__223__optional_storage_baseItLb0EE9has_valueB7v180000Ev,%function
	.code	16                              @ @_ZNKSt3__223__optional_storage_baseItLb0EE9has_valueB7v180000Ev
	.thumb_func
_ZNKSt3__223__optional_storage_baseItLb0EE9has_valueB7v180000Ev:
.Lfunc_begin38:
	.loc	4 386 0 is_stmt 1               @ D:\Embed\MDK\MDK\ARM\ARMCompilerV621\Bin\..\include\libcxx\optional:386:0
	.fnstart
	.cfi_startproc
@ %bb.0:
	.pad	#4
	sub	sp, #4
	.cfi_def_cfa_offset 4
	str	r0, [sp]
	ldr	r0, [sp]
.Ltmp232:
	.loc	4 387 9 prologue_end            @ D:\Embed\MDK\MDK\ARM\ARMCompilerV621\Bin\..\include\libcxx\optional:387:9
	ldrb	r0, [r0, #2]
	and	r0, r0, #1
	.loc	4 387 9 epilogue_begin is_stmt 0 @ D:\Embed\MDK\MDK\ARM\ARMCompilerV621\Bin\..\include\libcxx\optional:387:9
	add	sp, #4
	bx	lr
.Ltmp233:
.Lfunc_end38:
	.size	_ZNKSt3__223__optional_storage_baseItLb0EE9has_valueB7v180000Ev, .Lfunc_end38-_ZNKSt3__223__optional_storage_baseItLb0EE9has_valueB7v180000Ev
	.cfi_endproc
	.cantunwind
	.fnend
                                        @ -- End function
	.section	.text._ZNRSt3__28optionalItEdeB7v180000Ev,"axG",%progbits,_ZNRSt3__28optionalItEdeB7v180000Ev,comdat
	.hidden	_ZNRSt3__28optionalItEdeB7v180000Ev @ -- Begin function _ZNRSt3__28optionalItEdeB7v180000Ev
	.weak	_ZNRSt3__28optionalItEdeB7v180000Ev
	.p2align	2
	.type	_ZNRSt3__28optionalItEdeB7v180000Ev,%function
	.code	16                              @ @_ZNRSt3__28optionalItEdeB7v180000Ev
	.thumb_func
_ZNRSt3__28optionalItEdeB7v180000Ev:
.Lfunc_begin39:
	.loc	4 1026 0 is_stmt 1              @ D:\Embed\MDK\MDK\ARM\ARMCompilerV621\Bin\..\include\libcxx\optional:1026:0
	.fnstart
	.cfi_startproc
@ %bb.0:
	.save	{r7, lr}
	push	{r7, lr}
	.cfi_def_cfa_offset 8
	.cfi_offset lr, -4
	.cfi_offset r7, -8
	.pad	#8
	sub	sp, #8
	.cfi_def_cfa_offset 16
	str	r0, [sp, #4]
	ldr	r0, [sp, #4]
.Ltmp234:
	.loc	4 1028 22 prologue_end          @ D:\Embed\MDK\MDK\ARM\ARMCompilerV621\Bin\..\include\libcxx\optional:1028:22
	bl	_ZNRSt3__223__optional_storage_baseItLb0EE5__getB7v180000Ev
	.loc	4 1028 9 epilogue_begin is_stmt 0 @ D:\Embed\MDK\MDK\ARM\ARMCompilerV621\Bin\..\include\libcxx\optional:1028:9
	add	sp, #8
	pop	{r7, pc}
.Ltmp235:
.Lfunc_end39:
	.size	_ZNRSt3__28optionalItEdeB7v180000Ev, .Lfunc_end39-_ZNRSt3__28optionalItEdeB7v180000Ev
	.cfi_endproc
	.cantunwind
	.fnend
                                        @ -- End function
	.section	.text._ZN5fibre16generic_bufptr_tIhEC2ILj128EEERAT__h,"axG",%progbits,_ZN5fibre16generic_bufptr_tIhEC2ILj128EEERAT__h,comdat
	.hidden	_ZN5fibre16generic_bufptr_tIhEC2ILj128EEERAT__h @ -- Begin function _ZN5fibre16generic_bufptr_tIhEC2ILj128EEERAT__h
	.weak	_ZN5fibre16generic_bufptr_tIhEC2ILj128EEERAT__h
	.p2align	2
	.type	_ZN5fibre16generic_bufptr_tIhEC2ILj128EEERAT__h,%function
	.code	16                              @ @_ZN5fibre16generic_bufptr_tIhEC2ILj128EEERAT__h
	.thumb_func
_ZN5fibre16generic_bufptr_tIhEC2ILj128EEERAT__h:
.Lfunc_begin40:
	.loc	7 28 0 is_stmt 1                @ ../fibre-cpp/include\fibre/bufptr.hpp:28:0
	.fnstart
	.cfi_startproc
@ %bb.0:
	.save	{r7, lr}
	push	{r7, lr}
	.cfi_def_cfa_offset 8
	.cfi_offset lr, -4
	.cfi_offset r7, -8
	.pad	#16
	sub	sp, #16
	.cfi_def_cfa_offset 24
	str	r0, [sp, #12]
	str	r1, [sp, #8]
	ldr	r0, [sp, #12]
.Ltmp236:
	.loc	7 28 56 prologue_end            @ ../fibre-cpp/include\fibre/bufptr.hpp:28:56
	str	r0, [sp, #4]                    @ 4-byte Spill
	ldr	r1, [sp, #8]
	movs	r2, #128
	.loc	7 28 39 is_stmt 0               @ ../fibre-cpp/include\fibre/bufptr.hpp:28:39
	bl	_ZN5fibre16generic_bufptr_tIhEC2EPhj
	ldr	r0, [sp, #4]                    @ 4-byte Reload
	.loc	7 28 67 epilogue_begin          @ ../fibre-cpp/include\fibre/bufptr.hpp:28:67
	add	sp, #16
	pop	{r7, pc}
.Ltmp237:
.Lfunc_end40:
	.size	_ZN5fibre16generic_bufptr_tIhEC2ILj128EEERAT__h, .Lfunc_end40-_ZN5fibre16generic_bufptr_tIhEC2ILj128EEERAT__h
	.cfi_endproc
	.cantunwind
	.fnend
                                        @ -- End function
	.section	.text._ZN5fibre13make_callbackIMNS_25LegacyProtocolPacketBasedEFvNS_10ReadResultEEXadL_ZNS1_16on_read_finishedES2_EENS_15function_traitsIvS1_JS2_EEENS_14MemberCallbackIS4_XadL_ZNS1_16on_read_finishedES2_EES1_vNSt3__25tupleIJS2_EEEEEEENT2_4cb_tEPNT1_4TObjE,"axG",%progbits,_ZN5fibre13make_callbackIMNS_25LegacyProtocolPacketBasedEFvNS_10ReadResultEEXadL_ZNS1_16on_read_finishedES2_EENS_15function_traitsIvS1_JS2_EEENS_14MemberCallbackIS4_XadL_ZNS1_16on_read_finishedES2_EES1_vNSt3__25tupleIJS2_EEEEEEENT2_4cb_tEPNT1_4TObjE,comdat
	.hidden	_ZN5fibre13make_callbackIMNS_25LegacyProtocolPacketBasedEFvNS_10ReadResultEEXadL_ZNS1_16on_read_finishedES2_EENS_15function_traitsIvS1_JS2_EEENS_14MemberCallbackIS4_XadL_ZNS1_16on_read_finishedES2_EES1_vNSt3__25tupleIJS2_EEEEEEENT2_4cb_tEPNT1_4TObjE @ -- Begin function _ZN5fibre13make_callbackIMNS_25LegacyProtocolPacketBasedEFvNS_10ReadResultEEXadL_ZNS1_16on_read_finishedES2_EENS_15function_traitsIvS1_JS2_EEENS_14MemberCallbackIS4_XadL_ZNS1_16on_read_finishedES2_EES1_vNSt3__25tupleIJS2_EEEEEEENT2_4cb_tEPNT1_4TObjE
	.weak	_ZN5fibre13make_callbackIMNS_25LegacyProtocolPacketBasedEFvNS_10ReadResultEEXadL_ZNS1_16on_read_finishedES2_EENS_15function_traitsIvS1_JS2_EEENS_14MemberCallbackIS4_XadL_ZNS1_16on_read_finishedES2_EES1_vNSt3__25tupleIJS2_EEEEEEENT2_4cb_tEPNT1_4TObjE
	.p2align	2
	.type	_ZN5fibre13make_callbackIMNS_25LegacyProtocolPacketBasedEFvNS_10ReadResultEEXadL_ZNS1_16on_read_finishedES2_EENS_15function_traitsIvS1_JS2_EEENS_14MemberCallbackIS4_XadL_ZNS1_16on_read_finishedES2_EES1_vNSt3__25tupleIJS2_EEEEEEENT2_4cb_tEPNT1_4TObjE,%function
	.code	16                              @ @_ZN5fibre13make_callbackIMNS_25LegacyProtocolPacketBasedEFvNS_10ReadResultEEXadL_ZNS1_16on_read_finishedES2_EENS_15function_traitsIvS1_JS2_EEENS_14MemberCallbackIS4_XadL_ZNS1_16on_read_finishedES2_EES1_vNSt3__25tupleIJS2_EEEEEEENT2_4cb_tEPNT1_4TObjE
	.thumb_func
_ZN5fibre13make_callbackIMNS_25LegacyProtocolPacketBasedEFvNS_10ReadResultEEXadL_ZNS1_16on_read_finishedES2_EENS_15function_traitsIvS1_JS2_EEENS_14MemberCallbackIS4_XadL_ZNS1_16on_read_finishedES2_EES1_vNSt3__25tupleIJS2_EEEEEEENT2_4cb_tEPNT1_4TObjE:
.Lfunc_begin41:
	.loc	9 114 0 is_stmt 1               @ ../fibre-cpp/include\fibre/callback.hpp:114:0
	.fnstart
	.cfi_startproc
@ %bb.0:
	.save	{r7, lr}
	push	{r7, lr}
	.cfi_def_cfa_offset 8
	.cfi_offset lr, -4
	.cfi_offset r7, -8
	.pad	#8
	sub	sp, #8
	.cfi_def_cfa_offset 16
	str	r0, [sp, #4]
	str	r1, [sp]
.Ltmp238:
	.loc	9 115 24 prologue_end           @ ../fibre-cpp/include\fibre/callback.hpp:115:24
	ldr	r1, [sp]
	.loc	9 115 12 is_stmt 0              @ ../fibre-cpp/include\fibre/callback.hpp:115:12
	bl	_ZN5fibre14MemberCallbackIMNS_25LegacyProtocolPacketBasedEFvNS_10ReadResultEEXadL_ZNS1_16on_read_finishedES2_EES1_vNSt3__25tupleIJS2_EEEE4withEPS1_
	.loc	9 115 5 epilogue_begin          @ ../fibre-cpp/include\fibre/callback.hpp:115:5
	add	sp, #8
	pop	{r7, pc}
.Ltmp239:
.Lfunc_end41:
	.size	_ZN5fibre13make_callbackIMNS_25LegacyProtocolPacketBasedEFvNS_10ReadResultEEXadL_ZNS1_16on_read_finishedES2_EENS_15function_traitsIvS1_JS2_EEENS_14MemberCallbackIS4_XadL_ZNS1_16on_read_finishedES2_EES1_vNSt3__25tupleIJS2_EEEEEEENT2_4cb_tEPNT1_4TObjE, .Lfunc_end41-_ZN5fibre13make_callbackIMNS_25LegacyProtocolPacketBasedEFvNS_10ReadResultEEXadL_ZNS1_16on_read_finishedES2_EENS_15function_traitsIvS1_JS2_EEENS_14MemberCallbackIS4_XadL_ZNS1_16on_read_finishedES2_EES1_vNSt3__25tupleIJS2_EEEEEEENT2_4cb_tEPNT1_4TObjE
	.cfi_endproc
	.cantunwind
	.fnend
                                        @ -- End function
	.section	.text._ZNOSt3__28optionalItEdeB7v180000Ev,"axG",%progbits,_ZNOSt3__28optionalItEdeB7v180000Ev,comdat
	.hidden	_ZNOSt3__28optionalItEdeB7v180000Ev @ -- Begin function _ZNOSt3__28optionalItEdeB7v180000Ev
	.weak	_ZNOSt3__28optionalItEdeB7v180000Ev
	.p2align	2
	.type	_ZNOSt3__28optionalItEdeB7v180000Ev,%function
	.code	16                              @ @_ZNOSt3__28optionalItEdeB7v180000Ev
	.thumb_func
_ZNOSt3__28optionalItEdeB7v180000Ev:
.Lfunc_begin42:
	.loc	4 1035 0 is_stmt 1              @ D:\Embed\MDK\MDK\ARM\ARMCompilerV621\Bin\..\include\libcxx\optional:1035:0
	.fnstart
	.cfi_startproc
@ %bb.0:
	.save	{r7, lr}
	push	{r7, lr}
	.cfi_def_cfa_offset 8
	.cfi_offset lr, -4
	.cfi_offset r7, -8
	.pad	#8
	sub	sp, #8
	.cfi_def_cfa_offset 16
	str	r0, [sp, #4]
	ldr	r0, [sp, #4]
.Ltmp240:
	.loc	4 1037 34 prologue_end          @ D:\Embed\MDK\MDK\ARM\ARMCompilerV621\Bin\..\include\libcxx\optional:1037:34
	bl	_ZNRSt3__223__optional_storage_baseItLb0EE5__getB7v180000Ev
	.loc	4 1037 9 epilogue_begin is_stmt 0 @ D:\Embed\MDK\MDK\ARM\ARMCompilerV621\Bin\..\include\libcxx\optional:1037:9
	add	sp, #8
	pop	{r7, pc}
.Ltmp241:
.Lfunc_end42:
	.size	_ZNOSt3__28optionalItEdeB7v180000Ev, .Lfunc_end42-_ZNOSt3__28optionalItEdeB7v180000Ev
	.cfi_endproc
	.cantunwind
	.fnend
                                        @ -- End function
	.section	.text._ZN10NullStreamlsItEERS_T_,"axG",%progbits,_ZN10NullStreamlsItEERS_T_,comdat
	.hidden	_ZN10NullStreamlsItEERS_T_      @ -- Begin function _ZN10NullStreamlsItEERS_T_
	.weak	_ZN10NullStreamlsItEERS_T_
	.p2align	2
	.type	_ZN10NullStreamlsItEERS_T_,%function
	.code	16                              @ @_ZN10NullStreamlsItEERS_T_
	.thumb_func
_ZN10NullStreamlsItEERS_T_:
.Lfunc_begin43:
	.loc	19 334 0 is_stmt 1              @ ../fibre-cpp/logging.hpp:334:0
	.fnstart
	.cfi_startproc
@ %bb.0:
	.pad	#8
	sub	sp, #8
	.cfi_def_cfa_offset 8
                                        @ kill: def $r2 killed $r1
	str	r0, [sp, #4]
	strh.w	r1, [sp, #2]
	ldr	r0, [sp, #4]
.Ltmp242:
	.loc	19 334 58 prologue_end epilogue_begin @ ../fibre-cpp/logging.hpp:334:58
	add	sp, #8
	bx	lr
.Ltmp243:
.Lfunc_end43:
	.size	_ZN10NullStreamlsItEERS_T_, .Lfunc_end43-_ZN10NullStreamlsItEERS_T_
	.cfi_endproc
	.cantunwind
	.fnend
                                        @ -- End function
	.section	.text._ZN10NullStreamlsIN5fibre10HexPrinterItEEEERS_T_,"axG",%progbits,_ZN10NullStreamlsIN5fibre10HexPrinterItEEEERS_T_,comdat
	.hidden	_ZN10NullStreamlsIN5fibre10HexPrinterItEEEERS_T_ @ -- Begin function _ZN10NullStreamlsIN5fibre10HexPrinterItEEEERS_T_
	.weak	_ZN10NullStreamlsIN5fibre10HexPrinterItEEEERS_T_
	.p2align	2
	.type	_ZN10NullStreamlsIN5fibre10HexPrinterItEEEERS_T_,%function
	.code	16                              @ @_ZN10NullStreamlsIN5fibre10HexPrinterItEEEERS_T_
	.thumb_func
_ZN10NullStreamlsIN5fibre10HexPrinterItEEEERS_T_:
.Lfunc_begin44:
	.loc	19 334 0                        @ ../fibre-cpp/logging.hpp:334:0
	.fnstart
	.cfi_startproc
@ %bb.0:
	.pad	#28
	sub	sp, #28
	.cfi_def_cfa_offset 28
                                        @ kill: def $r12 killed $r3
                                        @ kill: def $r12 killed $r2
                                        @ kill: def $r12 killed $r1
	str	r3, [sp, #12]
	str	r2, [sp, #8]
	str	r1, [sp, #4]
	ldrh.w	r1, [sp, #12]
	strh.w	r1, [sp, #24]
	ldr	r1, [sp, #4]
	ldr	r2, [sp, #8]
	str	r2, [sp, #20]
	str	r1, [sp, #16]
	str	r0, [sp]
	ldr	r0, [sp]
.Ltmp244:
	.loc	19 334 58 prologue_end epilogue_begin @ ../fibre-cpp/logging.hpp:334:58
	add	sp, #28
	bx	lr
.Ltmp245:
.Lfunc_end44:
	.size	_ZN10NullStreamlsIN5fibre10HexPrinterItEEEERS_T_, .Lfunc_end44-_ZN10NullStreamlsIN5fibre10HexPrinterItEEEERS_T_
	.cfi_endproc
	.cantunwind
	.fnend
                                        @ -- End function
	.section	.text._ZN5fibre6as_hexItEENS_10HexPrinterIT_EES2_b,"axG",%progbits,_ZN5fibre6as_hexItEENS_10HexPrinterIT_EES2_b,comdat
	.hidden	_ZN5fibre6as_hexItEENS_10HexPrinterIT_EES2_b @ -- Begin function _ZN5fibre6as_hexItEENS_10HexPrinterIT_EES2_b
	.weak	_ZN5fibre6as_hexItEENS_10HexPrinterIT_EES2_b
	.p2align	2
	.type	_ZN5fibre6as_hexItEENS_10HexPrinterIT_EES2_b,%function
	.code	16                              @ @_ZN5fibre6as_hexItEENS_10HexPrinterIT_EES2_b
	.thumb_func
_ZN5fibre6as_hexItEENS_10HexPrinterIT_EES2_b:
.Lfunc_begin45:
	.loc	15 109 0                        @ ../fibre-cpp/print_utils.hpp:109:0
	.fnstart
	.cfi_startproc
@ %bb.0:
	.save	{r7, lr}
	push	{r7, lr}
	.cfi_def_cfa_offset 8
	.cfi_offset lr, -4
	.cfi_offset r7, -8
	.pad	#8
	sub	sp, #8
	.cfi_def_cfa_offset 16
                                        @ kill: def $r3 killed $r2
                                        @ kill: def $r3 killed $r1
	strh.w	r1, [sp, #6]
	strb.w	r2, [sp, #5]
.Ltmp246:
	.loc	15 109 72 prologue_end          @ ../fibre-cpp/print_utils.hpp:109:72
	ldrh.w	r1, [sp, #6]
	.loc	15 109 58 is_stmt 0             @ ../fibre-cpp/print_utils.hpp:109:58
	ldrb.w	r2, [sp, #5]
	and	r2, r2, #1
	bl	_ZN5fibre10HexPrinterItEC2Etb
	.loc	15 109 51 epilogue_begin        @ ../fibre-cpp/print_utils.hpp:109:51
	add	sp, #8
	pop	{r7, pc}
.Ltmp247:
.Lfunc_end45:
	.size	_ZN5fibre6as_hexItEENS_10HexPrinterIT_EES2_b, .Lfunc_end45-_ZN5fibre6as_hexItEENS_10HexPrinterIT_EES2_b
	.cfi_endproc
	.cantunwind
	.fnend
                                        @ -- End function
	.section	.text._ZN5fibre16generic_bufptr_tIhEC2EPhj,"axG",%progbits,_ZN5fibre16generic_bufptr_tIhEC2EPhj,comdat
	.hidden	_ZN5fibre16generic_bufptr_tIhEC2EPhj @ -- Begin function _ZN5fibre16generic_bufptr_tIhEC2EPhj
	.weak	_ZN5fibre16generic_bufptr_tIhEC2EPhj
	.p2align	2
	.type	_ZN5fibre16generic_bufptr_tIhEC2EPhj,%function
	.code	16                              @ @_ZN5fibre16generic_bufptr_tIhEC2EPhj
	.thumb_func
_ZN5fibre16generic_bufptr_tIhEC2EPhj:
.Lfunc_begin46:
	.loc	7 21 0 is_stmt 1                @ ../fibre-cpp/include\fibre/bufptr.hpp:21:0
	.fnstart
	.cfi_startproc
@ %bb.0:
	.pad	#12
	sub	sp, #12
	.cfi_def_cfa_offset 12
	str	r0, [sp, #8]
	str	r1, [sp, #4]
	str	r2, [sp]
	ldr	r0, [sp, #8]
.Ltmp248:
	.loc	7 21 56 prologue_end            @ ../fibre-cpp/include\fibre/bufptr.hpp:21:56
	ldr	r1, [sp, #4]
	.loc	7 21 49 is_stmt 0               @ ../fibre-cpp/include\fibre/bufptr.hpp:21:49
	str	r1, [r0]
	.loc	7 21 69                         @ ../fibre-cpp/include\fibre/bufptr.hpp:21:69
	ldr	r1, [sp, #4]
	.loc	7 21 77                         @ ../fibre-cpp/include\fibre/bufptr.hpp:21:77
	ldr	r2, [sp]
	.loc	7 21 75                         @ ../fibre-cpp/include\fibre/bufptr.hpp:21:75
	add	r1, r2
	.loc	7 21 64                         @ ../fibre-cpp/include\fibre/bufptr.hpp:21:64
	str	r1, [r0, #4]
	.loc	7 21 86 epilogue_begin          @ ../fibre-cpp/include\fibre/bufptr.hpp:21:86
	add	sp, #12
	bx	lr
.Ltmp249:
.Lfunc_end46:
	.size	_ZN5fibre16generic_bufptr_tIhEC2EPhj, .Lfunc_end46-_ZN5fibre16generic_bufptr_tIhEC2EPhj
	.cfi_endproc
	.cantunwind
	.fnend
                                        @ -- End function
	.section	.text._Z8write_leItvEjT_Ph,"axG",%progbits,_Z8write_leItvEjT_Ph,comdat
	.hidden	_Z8write_leItvEjT_Ph            @ -- Begin function _Z8write_leItvEjT_Ph
	.weak	_Z8write_leItvEjT_Ph
	.p2align	2
	.type	_Z8write_leItvEjT_Ph,%function
	.code	16                              @ @_Z8write_leItvEjT_Ph
	.thumb_func
_Z8write_leItvEjT_Ph:
.Lfunc_begin47:
	.loc	14 80 0 is_stmt 1               @ ../fibre-cpp/include\fibre/simple_serdes.hpp:80:0
	.fnstart
	.cfi_startproc
@ %bb.0:
	.pad	#8
	sub	sp, #8
	.cfi_def_cfa_offset 8
                                        @ kill: def $r2 killed $r0
	strh.w	r0, [sp, #6]
	str	r1, [sp]
.Ltmp250:
	.loc	14 82 18 prologue_end           @ ../fibre-cpp/include\fibre/simple_serdes.hpp:82:18
	ldr	r1, [sp]
	.loc	14 82 5 is_stmt 0               @ ../fibre-cpp/include\fibre/simple_serdes.hpp:82:5
	ldrh.w	r0, [sp, #6]
	strh	r0, [r1]
	movs	r0, #2
	.loc	14 83 5 epilogue_begin is_stmt 1 @ ../fibre-cpp/include\fibre/simple_serdes.hpp:83:5
	add	sp, #8
	bx	lr
.Ltmp251:
.Lfunc_end47:
	.size	_Z8write_leItvEjT_Ph, .Lfunc_end47-_Z8write_leItvEjT_Ph
	.cfi_endproc
	.cantunwind
	.fnend
                                        @ -- End function
	.section	.text._ZN5fibre16generic_bufptr_tIKhEC2EPS1_j,"axG",%progbits,_ZN5fibre16generic_bufptr_tIKhEC2EPS1_j,comdat
	.hidden	_ZN5fibre16generic_bufptr_tIKhEC2EPS1_j @ -- Begin function _ZN5fibre16generic_bufptr_tIKhEC2EPS1_j
	.weak	_ZN5fibre16generic_bufptr_tIKhEC2EPS1_j
	.p2align	2
	.type	_ZN5fibre16generic_bufptr_tIKhEC2EPS1_j,%function
	.code	16                              @ @_ZN5fibre16generic_bufptr_tIKhEC2EPS1_j
	.thumb_func
_ZN5fibre16generic_bufptr_tIKhEC2EPS1_j:
.Lfunc_begin48:
	.loc	7 21 0                          @ ../fibre-cpp/include\fibre/bufptr.hpp:21:0
	.fnstart
	.cfi_startproc
@ %bb.0:
	.pad	#12
	sub	sp, #12
	.cfi_def_cfa_offset 12
	str	r0, [sp, #8]
	str	r1, [sp, #4]
	str	r2, [sp]
	ldr	r0, [sp, #8]
.Ltmp252:
	.loc	7 21 56 prologue_end            @ ../fibre-cpp/include\fibre/bufptr.hpp:21:56
	ldr	r1, [sp, #4]
	.loc	7 21 49 is_stmt 0               @ ../fibre-cpp/include\fibre/bufptr.hpp:21:49
	str	r1, [r0]
	.loc	7 21 69                         @ ../fibre-cpp/include\fibre/bufptr.hpp:21:69
	ldr	r1, [sp, #4]
	.loc	7 21 77                         @ ../fibre-cpp/include\fibre/bufptr.hpp:21:77
	ldr	r2, [sp]
	.loc	7 21 75                         @ ../fibre-cpp/include\fibre/bufptr.hpp:21:75
	add	r1, r2
	.loc	7 21 64                         @ ../fibre-cpp/include\fibre/bufptr.hpp:21:64
	str	r1, [r0, #4]
	.loc	7 21 86 epilogue_begin          @ ../fibre-cpp/include\fibre/bufptr.hpp:21:86
	add	sp, #12
	bx	lr
.Ltmp253:
.Lfunc_end48:
	.size	_ZN5fibre16generic_bufptr_tIKhEC2EPS1_j, .Lfunc_end48-_ZN5fibre16generic_bufptr_tIKhEC2EPS1_j
	.cfi_endproc
	.cantunwind
	.fnend
                                        @ -- End function
	.section	.text._ZN5fibre13make_callbackIMNS_25LegacyProtocolPacketBasedEFvNS_11WriteResultEEXadL_ZNS1_17on_write_finishedES2_EENS_15function_traitsIvS1_JS2_EEENS_14MemberCallbackIS4_XadL_ZNS1_17on_write_finishedES2_EES1_vNSt3__25tupleIJS2_EEEEEEENT2_4cb_tEPNT1_4TObjE,"axG",%progbits,_ZN5fibre13make_callbackIMNS_25LegacyProtocolPacketBasedEFvNS_11WriteResultEEXadL_ZNS1_17on_write_finishedES2_EENS_15function_traitsIvS1_JS2_EEENS_14MemberCallbackIS4_XadL_ZNS1_17on_write_finishedES2_EES1_vNSt3__25tupleIJS2_EEEEEEENT2_4cb_tEPNT1_4TObjE,comdat
	.hidden	_ZN5fibre13make_callbackIMNS_25LegacyProtocolPacketBasedEFvNS_11WriteResultEEXadL_ZNS1_17on_write_finishedES2_EENS_15function_traitsIvS1_JS2_EEENS_14MemberCallbackIS4_XadL_ZNS1_17on_write_finishedES2_EES1_vNSt3__25tupleIJS2_EEEEEEENT2_4cb_tEPNT1_4TObjE @ -- Begin function _ZN5fibre13make_callbackIMNS_25LegacyProtocolPacketBasedEFvNS_11WriteResultEEXadL_ZNS1_17on_write_finishedES2_EENS_15function_traitsIvS1_JS2_EEENS_14MemberCallbackIS4_XadL_ZNS1_17on_write_finishedES2_EES1_vNSt3__25tupleIJS2_EEEEEEENT2_4cb_tEPNT1_4TObjE
	.weak	_ZN5fibre13make_callbackIMNS_25LegacyProtocolPacketBasedEFvNS_11WriteResultEEXadL_ZNS1_17on_write_finishedES2_EENS_15function_traitsIvS1_JS2_EEENS_14MemberCallbackIS4_XadL_ZNS1_17on_write_finishedES2_EES1_vNSt3__25tupleIJS2_EEEEEEENT2_4cb_tEPNT1_4TObjE
	.p2align	2
	.type	_ZN5fibre13make_callbackIMNS_25LegacyProtocolPacketBasedEFvNS_11WriteResultEEXadL_ZNS1_17on_write_finishedES2_EENS_15function_traitsIvS1_JS2_EEENS_14MemberCallbackIS4_XadL_ZNS1_17on_write_finishedES2_EES1_vNSt3__25tupleIJS2_EEEEEEENT2_4cb_tEPNT1_4TObjE,%function
	.code	16                              @ @_ZN5fibre13make_callbackIMNS_25LegacyProtocolPacketBasedEFvNS_11WriteResultEEXadL_ZNS1_17on_write_finishedES2_EENS_15function_traitsIvS1_JS2_EEENS_14MemberCallbackIS4_XadL_ZNS1_17on_write_finishedES2_EES1_vNSt3__25tupleIJS2_EEEEEEENT2_4cb_tEPNT1_4TObjE
	.thumb_func
_ZN5fibre13make_callbackIMNS_25LegacyProtocolPacketBasedEFvNS_11WriteResultEEXadL_ZNS1_17on_write_finishedES2_EENS_15function_traitsIvS1_JS2_EEENS_14MemberCallbackIS4_XadL_ZNS1_17on_write_finishedES2_EES1_vNSt3__25tupleIJS2_EEEEEEENT2_4cb_tEPNT1_4TObjE:
.Lfunc_begin49:
	.loc	9 114 0 is_stmt 1               @ ../fibre-cpp/include\fibre/callback.hpp:114:0
	.fnstart
	.cfi_startproc
@ %bb.0:
	.save	{r7, lr}
	push	{r7, lr}
	.cfi_def_cfa_offset 8
	.cfi_offset lr, -4
	.cfi_offset r7, -8
	.pad	#8
	sub	sp, #8
	.cfi_def_cfa_offset 16
	str	r0, [sp, #4]
	str	r1, [sp]
.Ltmp254:
	.loc	9 115 24 prologue_end           @ ../fibre-cpp/include\fibre/callback.hpp:115:24
	ldr	r1, [sp]
	.loc	9 115 12 is_stmt 0              @ ../fibre-cpp/include\fibre/callback.hpp:115:12
	bl	_ZN5fibre14MemberCallbackIMNS_25LegacyProtocolPacketBasedEFvNS_11WriteResultEEXadL_ZNS1_17on_write_finishedES2_EES1_vNSt3__25tupleIJS2_EEEE4withEPS1_
	.loc	9 115 5 epilogue_begin          @ ../fibre-cpp/include\fibre/callback.hpp:115:5
	add	sp, #8
	pop	{r7, pc}
.Ltmp255:
.Lfunc_end49:
	.size	_ZN5fibre13make_callbackIMNS_25LegacyProtocolPacketBasedEFvNS_11WriteResultEEXadL_ZNS1_17on_write_finishedES2_EENS_15function_traitsIvS1_JS2_EEENS_14MemberCallbackIS4_XadL_ZNS1_17on_write_finishedES2_EES1_vNSt3__25tupleIJS2_EEEEEEENT2_4cb_tEPNT1_4TObjE, .Lfunc_end49-_ZN5fibre13make_callbackIMNS_25LegacyProtocolPacketBasedEFvNS_11WriteResultEEXadL_ZNS1_17on_write_finishedES2_EENS_15function_traitsIvS1_JS2_EEENS_14MemberCallbackIS4_XadL_ZNS1_17on_write_finishedES2_EES1_vNSt3__25tupleIJS2_EEEEEEENT2_4cb_tEPNT1_4TObjE
	.cfi_endproc
	.cantunwind
	.fnend
                                        @ -- End function
	.section	.text._ZN5fibre8CallbackIvJPNS_25LegacyProtocolPacketBasedENS_12StreamStatusEEE16invoke_and_clearES2_S3_,"axG",%progbits,_ZN5fibre8CallbackIvJPNS_25LegacyProtocolPacketBasedENS_12StreamStatusEEE16invoke_and_clearES2_S3_,comdat
	.hidden	_ZN5fibre8CallbackIvJPNS_25LegacyProtocolPacketBasedENS_12StreamStatusEEE16invoke_and_clearES2_S3_ @ -- Begin function _ZN5fibre8CallbackIvJPNS_25LegacyProtocolPacketBasedENS_12StreamStatusEEE16invoke_and_clearES2_S3_
	.weak	_ZN5fibre8CallbackIvJPNS_25LegacyProtocolPacketBasedENS_12StreamStatusEEE16invoke_and_clearES2_S3_
	.p2align	2
	.type	_ZN5fibre8CallbackIvJPNS_25LegacyProtocolPacketBasedENS_12StreamStatusEEE16invoke_and_clearES2_S3_,%function
	.code	16                              @ @_ZN5fibre8CallbackIvJPNS_25LegacyProtocolPacketBasedENS_12StreamStatusEEE16invoke_and_clearES2_S3_
	.thumb_func
_ZN5fibre8CallbackIvJPNS_25LegacyProtocolPacketBasedENS_12StreamStatusEEE16invoke_and_clearES2_S3_:
.Lfunc_begin50:
	.loc	9 66 0 is_stmt 1                @ ../fibre-cpp/include\fibre/callback.hpp:66:0
	.fnstart
	.cfi_startproc
@ %bb.0:
	.save	{r7, lr}
	push	{r7, lr}
	.cfi_def_cfa_offset 8
	.cfi_offset lr, -4
	.cfi_offset r7, -8
	.pad	#24
	sub	sp, #24
	.cfi_def_cfa_offset 32
                                        @ kill: def $r3 killed $r2
	str	r0, [sp, #20]
	str	r1, [sp, #16]
	strb.w	r2, [sp, #15]
	ldr	r1, [sp, #20]
.Ltmp256:
	.loc	9 67 21 prologue_end            @ ../fibre-cpp/include\fibre/callback.hpp:67:21
	ldr	r0, [r1, #4]
	.loc	9 67 15 is_stmt 0               @ ../fibre-cpp/include\fibre/callback.hpp:67:15
	str	r0, [sp, #8]
	.loc	9 68 19 is_stmt 1               @ ../fibre-cpp/include\fibre/callback.hpp:68:19
	ldr	r0, [r1]
	.loc	9 68 14 is_stmt 0               @ ../fibre-cpp/include\fibre/callback.hpp:68:14
	str	r0, [sp, #4]
	movs	r0, #0
	.loc	9 69 14 is_stmt 1               @ ../fibre-cpp/include\fibre/callback.hpp:69:14
	str	r0, [r1, #4]
	.loc	9 70 13                         @ ../fibre-cpp/include\fibre/callback.hpp:70:13
	str	r0, [r1]
.Ltmp257:
	.loc	9 71 13                         @ ../fibre-cpp/include\fibre/callback.hpp:71:13
	ldr	r0, [sp, #4]
.Ltmp258:
	.loc	9 71 13 is_stmt 0               @ ../fibre-cpp/include\fibre/callback.hpp:71:13
	cbz	r0, .LBB50_2
	b	.LBB50_1
.LBB50_1:
.Ltmp259:
	.loc	9 72 22 is_stmt 1               @ ../fibre-cpp/include\fibre/callback.hpp:72:22
	ldr	r3, [sp, #4]
	.loc	9 72 26 is_stmt 0               @ ../fibre-cpp/include\fibre/callback.hpp:72:26
	ldr	r0, [sp, #8]
	.loc	9 72 31                         @ ../fibre-cpp/include\fibre/callback.hpp:72:31
	ldr	r1, [sp, #16]
	ldrb.w	r2, [sp, #15]
	.loc	9 72 20                         @ ../fibre-cpp/include\fibre/callback.hpp:72:20
	blx	r3
	.loc	9 72 13                         @ ../fibre-cpp/include\fibre/callback.hpp:72:13
	b	.LBB50_3
.Ltmp260:
.LBB50_2:
	.loc	9 74 16 is_stmt 1               @ ../fibre-cpp/include\fibre/callback.hpp:74:16
	bl	_ZN5fibre6detail11get_defaultIvE3valEv
	.loc	9 74 9 is_stmt 0                @ ../fibre-cpp/include\fibre/callback.hpp:74:9
	b	.LBB50_3
.LBB50_3:
	.loc	9 75 5 epilogue_begin is_stmt 1 @ ../fibre-cpp/include\fibre/callback.hpp:75:5
	add	sp, #24
	pop	{r7, pc}
.Ltmp261:
.Lfunc_end50:
	.size	_ZN5fibre8CallbackIvJPNS_25LegacyProtocolPacketBasedENS_12StreamStatusEEE16invoke_and_clearES2_S3_, .Lfunc_end50-_ZN5fibre8CallbackIvJPNS_25LegacyProtocolPacketBasedENS_12StreamStatusEEE16invoke_and_clearES2_S3_
	.cfi_endproc
	.cantunwind
	.fnend
                                        @ -- End function
	.section	.text._ZN5fibre25LegacyProtocolPacketBased5startENS_8CallbackIvJPS0_NS_12StreamStatusEEEE,"ax",%progbits
	.hidden	_ZN5fibre25LegacyProtocolPacketBased5startENS_8CallbackIvJPS0_NS_12StreamStatusEEEE @ -- Begin function _ZN5fibre25LegacyProtocolPacketBased5startENS_8CallbackIvJPS0_NS_12StreamStatusEEEE
	.globl	_ZN5fibre25LegacyProtocolPacketBased5startENS_8CallbackIvJPS0_NS_12StreamStatusEEEE
	.p2align	2
	.type	_ZN5fibre25LegacyProtocolPacketBased5startENS_8CallbackIvJPS0_NS_12StreamStatusEEEE,%function
	.code	16                              @ @_ZN5fibre25LegacyProtocolPacketBased5startENS_8CallbackIvJPS0_NS_12StreamStatusEEEE
	.thumb_func
_ZN5fibre25LegacyProtocolPacketBased5startENS_8CallbackIvJPS0_NS_12StreamStatusEEEE:
.Lfunc_begin51:
	.loc	3 556 0                         @ ../fibre-cpp/legacy_protocol.cpp:556:0
	.fnstart
	.cfi_startproc
@ %bb.0:
	.save	{r7, lr}
	push	{r7, lr}
	.cfi_def_cfa_offset 8
	.cfi_offset lr, -4
	.cfi_offset r7, -8
	.pad	#48
	sub	sp, #48
	.cfi_def_cfa_offset 56
	mov	r2, r1
	str	r0, [sp, #44]
	str	r2, [sp, #40]
	ldr	r0, [sp, #44]
.Ltmp262:
	.loc	3 558 17 prologue_end           @ ../fibre-cpp/legacy_protocol.cpp:558:17
	str	r0, [sp, #4]                    @ 4-byte Spill
	ldr	r1, [r2]
	ldr	r2, [r2, #4]
	str.w	r2, [r0, #284]
	str.w	r1, [r0, #280]
	.loc	3 560 5                         @ ../fibre-cpp/legacy_protocol.cpp:560:5
	ldr	r1, [r0]
	.loc	3 560 29 is_stmt 0              @ ../fibre-cpp/legacy_protocol.cpp:560:29
	str	r1, [sp, #8]                    @ 4-byte Spill
	add.w	r1, r0, #140
	add	r0, sp, #28
	str	r0, [sp, #12]                   @ 4-byte Spill
	bl	_ZN5fibre16generic_bufptr_tIhEC2ILj128EEERAT__h
	ldr	r1, [sp, #4]                    @ 4-byte Reload
	add	r0, sp, #20
	.loc	3 560 46                        @ ../fibre-cpp/legacy_protocol.cpp:560:46
	str	r0, [sp, #16]                   @ 4-byte Spill
	bl	_ZN5fibre13make_callbackIMNS_25LegacyProtocolPacketBasedEFvNS_10ReadResultEEXadL_ZNS1_16on_read_finishedES2_EENS_15function_traitsIvS1_JS2_EEENS_14MemberCallbackIS4_XadL_ZNS1_16on_read_finishedES2_EES1_vNSt3__25tupleIJS2_EEEEEEENT2_4cb_tEPNT1_4TObjE
	ldr	r0, [sp, #8]                    @ 4-byte Reload
	ldr	r1, [sp, #12]                   @ 4-byte Reload
	ldr	r3, [sp, #16]                   @ 4-byte Reload
	.loc	3 560 18                        @ ../fibre-cpp/legacy_protocol.cpp:560:18
	ldr	r2, [r0]
	ldr.w	r12, [r2]
	add	r2, sp, #36
	blx	r12
	.loc	3 567 1 epilogue_begin is_stmt 1 @ ../fibre-cpp/legacy_protocol.cpp:567:1
	add	sp, #48
	pop	{r7, pc}
.Ltmp263:
.Lfunc_end51:
	.size	_ZN5fibre25LegacyProtocolPacketBased5startENS_8CallbackIvJPS0_NS_12StreamStatusEEEE, .Lfunc_end51-_ZN5fibre25LegacyProtocolPacketBased5startENS_8CallbackIvJPS0_NS_12StreamStatusEEEE
	.cfi_endproc
	.cantunwind
	.fnend
                                        @ -- End function
	.section	.text._ZNSt3__23minB7v180000IjNS_6__lessIvvEEEERKT_S5_S5_T0_,"axG",%progbits,_ZNSt3__23minB7v180000IjNS_6__lessIvvEEEERKT_S5_S5_T0_,comdat
	.hidden	_ZNSt3__23minB7v180000IjNS_6__lessIvvEEEERKT_S5_S5_T0_ @ -- Begin function _ZNSt3__23minB7v180000IjNS_6__lessIvvEEEERKT_S5_S5_T0_
	.weak	_ZNSt3__23minB7v180000IjNS_6__lessIvvEEEERKT_S5_S5_T0_
	.p2align	2
	.type	_ZNSt3__23minB7v180000IjNS_6__lessIvvEEEERKT_S5_S5_T0_,%function
	.code	16                              @ @_ZNSt3__23minB7v180000IjNS_6__lessIvvEEEERKT_S5_S5_T0_
	.thumb_func
_ZNSt3__23minB7v180000IjNS_6__lessIvvEEEERKT_S5_S5_T0_:
.Lfunc_begin52:
	.loc	18 32 0                         @ D:\Embed\MDK\MDK\ARM\ARMCompilerV621\Bin\..\include\libcxx\__algorithm/min.h:32:0
	.fnstart
	.cfi_startproc
@ %bb.0:
	.save	{r7, lr}
	push	{r7, lr}
	.cfi_def_cfa_offset 8
	.cfi_offset lr, -4
	.cfi_offset r7, -8
	.pad	#16
	sub	sp, #16
	.cfi_def_cfa_offset 24
	str	r0, [sp, #8]
	str	r1, [sp, #4]
.Ltmp264:
	.loc	18 33 19 prologue_end           @ D:\Embed\MDK\MDK\ARM\ARMCompilerV621\Bin\..\include\libcxx\__algorithm/min.h:33:19
	ldr	r1, [sp, #4]
	.loc	18 33 24 is_stmt 0              @ D:\Embed\MDK\MDK\ARM\ARMCompilerV621\Bin\..\include\libcxx\__algorithm/min.h:33:24
	ldr	r2, [sp, #8]
	add.w	r0, sp, #15
	.loc	18 33 12                        @ D:\Embed\MDK\MDK\ARM\ARMCompilerV621\Bin\..\include\libcxx\__algorithm/min.h:33:12
	bl	_ZNKSt3__26__lessIvvEclB7v180000IjjEEbRKT_RKT0_
	cbz	r0, .LBB52_2
	b	.LBB52_1
.LBB52_1:
	.loc	18 33 31                        @ D:\Embed\MDK\MDK\ARM\ARMCompilerV621\Bin\..\include\libcxx\__algorithm/min.h:33:31
	ldr	r0, [sp, #4]
	.loc	18 33 12                        @ D:\Embed\MDK\MDK\ARM\ARMCompilerV621\Bin\..\include\libcxx\__algorithm/min.h:33:12
	str	r0, [sp]                        @ 4-byte Spill
	b	.LBB52_3
.LBB52_2:
	.loc	18 33 37                        @ D:\Embed\MDK\MDK\ARM\ARMCompilerV621\Bin\..\include\libcxx\__algorithm/min.h:33:37
	ldr	r0, [sp, #8]
	.loc	18 33 12                        @ D:\Embed\MDK\MDK\ARM\ARMCompilerV621\Bin\..\include\libcxx\__algorithm/min.h:33:12
	str	r0, [sp]                        @ 4-byte Spill
	b	.LBB52_3
.LBB52_3:
	ldr	r0, [sp]                        @ 4-byte Reload
	.loc	18 33 5 epilogue_begin          @ D:\Embed\MDK\MDK\ARM\ARMCompilerV621\Bin\..\include\libcxx\__algorithm/min.h:33:5
	add	sp, #16
	pop	{r7, pc}
.Ltmp265:
.Lfunc_end52:
	.size	_ZNSt3__23minB7v180000IjNS_6__lessIvvEEEERKT_S5_S5_T0_, .Lfunc_end52-_ZNSt3__23minB7v180000IjNS_6__lessIvvEEEERKT_S5_S5_T0_
	.cfi_endproc
	.cantunwind
	.fnend
                                        @ -- End function
	.section	.text._ZNKSt3__26__lessIvvEclB7v180000IjjEEbRKT_RKT0_,"axG",%progbits,_ZNKSt3__26__lessIvvEclB7v180000IjjEEbRKT_RKT0_,comdat
	.hidden	_ZNKSt3__26__lessIvvEclB7v180000IjjEEbRKT_RKT0_ @ -- Begin function _ZNKSt3__26__lessIvvEclB7v180000IjjEEbRKT_RKT0_
	.weak	_ZNKSt3__26__lessIvvEclB7v180000IjjEEbRKT_RKT0_
	.p2align	2
	.type	_ZNKSt3__26__lessIvvEclB7v180000IjjEEbRKT_RKT0_,%function
	.code	16                              @ @_ZNKSt3__26__lessIvvEclB7v180000IjjEEbRKT_RKT0_
	.thumb_func
_ZNKSt3__26__lessIvvEclB7v180000IjjEEbRKT_RKT0_:
.Lfunc_begin53:
	.file	20 "D:\\Embed\\MDK\\MDK\\ARM\\ARMCompilerV621\\Bin\\..\\include\\libcxx\\__algorithm" "comp.h"
	.loc	20 40 0 is_stmt 1               @ D:\Embed\MDK\MDK\ARM\ARMCompilerV621\Bin\..\include\libcxx\__algorithm/comp.h:40:0
	.fnstart
	.cfi_startproc
@ %bb.0:
	.pad	#12
	sub	sp, #12
	.cfi_def_cfa_offset 12
	str	r0, [sp, #8]
	str	r1, [sp, #4]
	str	r2, [sp]
.Ltmp266:
	.loc	20 41 12 prologue_end           @ D:\Embed\MDK\MDK\ARM\ARMCompilerV621\Bin\..\include\libcxx\__algorithm/comp.h:41:12
	ldr	r0, [sp, #4]
	ldr	r1, [r0]
	.loc	20 41 20 is_stmt 0              @ D:\Embed\MDK\MDK\ARM\ARMCompilerV621\Bin\..\include\libcxx\__algorithm/comp.h:41:20
	ldr	r0, [sp]
	ldr	r2, [r0]
	movs	r0, #0
	.loc	20 41 18                        @ D:\Embed\MDK\MDK\ARM\ARMCompilerV621\Bin\..\include\libcxx\__algorithm/comp.h:41:18
	cmp	r1, r2
	it	lo
	movlo	r0, #1
	.loc	20 41 5 epilogue_begin          @ D:\Embed\MDK\MDK\ARM\ARMCompilerV621\Bin\..\include\libcxx\__algorithm/comp.h:41:5
	add	sp, #12
	bx	lr
.Ltmp267:
.Lfunc_end53:
	.size	_ZNKSt3__26__lessIvvEclB7v180000IjjEEbRKT_RKT0_, .Lfunc_end53-_ZNKSt3__26__lessIvvEclB7v180000IjjEEbRKT_RKT0_
	.cfi_endproc
	.cantunwind
	.fnend
                                        @ -- End function
	.section	.text._ZNRSt3__223__optional_storage_baseIjLb0EE5__getB7v180000Ev,"axG",%progbits,_ZNRSt3__223__optional_storage_baseIjLb0EE5__getB7v180000Ev,comdat
	.hidden	_ZNRSt3__223__optional_storage_baseIjLb0EE5__getB7v180000Ev @ -- Begin function _ZNRSt3__223__optional_storage_baseIjLb0EE5__getB7v180000Ev
	.weak	_ZNRSt3__223__optional_storage_baseIjLb0EE5__getB7v180000Ev
	.p2align	2
	.type	_ZNRSt3__223__optional_storage_baseIjLb0EE5__getB7v180000Ev,%function
	.code	16                              @ @_ZNRSt3__223__optional_storage_baseIjLb0EE5__getB7v180000Ev
	.thumb_func
_ZNRSt3__223__optional_storage_baseIjLb0EE5__getB7v180000Ev:
.Lfunc_begin54:
	.loc	4 392 0 is_stmt 1               @ D:\Embed\MDK\MDK\ARM\ARMCompilerV621\Bin\..\include\libcxx\optional:392:0
	.fnstart
	.cfi_startproc
@ %bb.0:
	.pad	#4
	sub	sp, #4
	.cfi_def_cfa_offset 4
	str	r0, [sp]
	ldr	r0, [sp]
.Ltmp268:
	.loc	4 393 9 prologue_end epilogue_begin @ D:\Embed\MDK\MDK\ARM\ARMCompilerV621\Bin\..\include\libcxx\optional:393:9
	add	sp, #4
	bx	lr
.Ltmp269:
.Lfunc_end54:
	.size	_ZNRSt3__223__optional_storage_baseIjLb0EE5__getB7v180000Ev, .Lfunc_end54-_ZNRSt3__223__optional_storage_baseIjLb0EE5__getB7v180000Ev
	.cfi_endproc
	.cantunwind
	.fnend
                                        @ -- End function
	.section	.text._ZNRSt3__223__optional_storage_baseItLb0EE5__getB7v180000Ev,"axG",%progbits,_ZNRSt3__223__optional_storage_baseItLb0EE5__getB7v180000Ev,comdat
	.hidden	_ZNRSt3__223__optional_storage_baseItLb0EE5__getB7v180000Ev @ -- Begin function _ZNRSt3__223__optional_storage_baseItLb0EE5__getB7v180000Ev
	.weak	_ZNRSt3__223__optional_storage_baseItLb0EE5__getB7v180000Ev
	.p2align	2
	.type	_ZNRSt3__223__optional_storage_baseItLb0EE5__getB7v180000Ev,%function
	.code	16                              @ @_ZNRSt3__223__optional_storage_baseItLb0EE5__getB7v180000Ev
	.thumb_func
_ZNRSt3__223__optional_storage_baseItLb0EE5__getB7v180000Ev:
.Lfunc_begin55:
	.loc	4 392 0                         @ D:\Embed\MDK\MDK\ARM\ARMCompilerV621\Bin\..\include\libcxx\optional:392:0
	.fnstart
	.cfi_startproc
@ %bb.0:
	.pad	#4
	sub	sp, #4
	.cfi_def_cfa_offset 4
	str	r0, [sp]
	ldr	r0, [sp]
.Ltmp270:
	.loc	4 393 9 prologue_end epilogue_begin @ D:\Embed\MDK\MDK\ARM\ARMCompilerV621\Bin\..\include\libcxx\optional:393:9
	add	sp, #4
	bx	lr
.Ltmp271:
.Lfunc_end55:
	.size	_ZNRSt3__223__optional_storage_baseItLb0EE5__getB7v180000Ev, .Lfunc_end55-_ZNRSt3__223__optional_storage_baseItLb0EE5__getB7v180000Ev
	.cfi_endproc
	.cantunwind
	.fnend
                                        @ -- End function
	.section	.text._ZN5fibre6detail11get_defaultIvE3valEv,"axG",%progbits,_ZN5fibre6detail11get_defaultIvE3valEv,comdat
	.hidden	_ZN5fibre6detail11get_defaultIvE3valEv @ -- Begin function _ZN5fibre6detail11get_defaultIvE3valEv
	.weak	_ZN5fibre6detail11get_defaultIvE3valEv
	.p2align	2
	.type	_ZN5fibre6detail11get_defaultIvE3valEv,%function
	.code	16                              @ @_ZN5fibre6detail11get_defaultIvE3valEv
	.thumb_func
_ZN5fibre6detail11get_defaultIvE3valEv:
.Lfunc_begin56:
	.fnstart
	.cfi_startproc
@ %bb.0:
	.loc	9 14 58 prologue_end            @ ../fibre-cpp/include\fibre/callback.hpp:14:58
	bx	lr
.Ltmp272:
.Lfunc_end56:
	.size	_ZN5fibre6detail11get_defaultIvE3valEv, .Lfunc_end56-_ZN5fibre6detail11get_defaultIvE3valEv
	.cfi_endproc
	.cantunwind
	.fnend
                                        @ -- End function
	.section	.text._ZL8calc_crcIhLj55EET_S0_PKhj,"ax",%progbits
	.p2align	2                               @ -- Begin function _ZL8calc_crcIhLj55EET_S0_PKhj
	.type	_ZL8calc_crcIhLj55EET_S0_PKhj,%function
	.code	16                              @ @_ZL8calc_crcIhLj55EET_S0_PKhj
	.thumb_func
_ZL8calc_crcIhLj55EET_S0_PKhj:
.Lfunc_begin57:
	.loc	17 30 0                         @ ../fibre-cpp/crc.hpp:30:0
	.fnstart
	.cfi_startproc
@ %bb.0:
	.save	{r7, lr}
	push	{r7, lr}
	.cfi_def_cfa_offset 8
	.cfi_offset lr, -4
	.cfi_offset r7, -8
	.pad	#16
	sub	sp, #16
	.cfi_def_cfa_offset 24
                                        @ kill: def $r3 killed $r0
	strb.w	r0, [sp, #15]
	str	r1, [sp, #8]
	str	r2, [sp, #4]
.Ltmp273:
	.loc	17 31 5 prologue_end            @ ../fibre-cpp/crc.hpp:31:5
	b	.LBB57_1
.LBB57_1:                               @ =>This Inner Loop Header: Depth=1
	.loc	17 31 18 is_stmt 0              @ ../fibre-cpp/crc.hpp:31:18
	ldr	r0, [sp, #4]
	subs	r1, r0, #1
	str	r1, [sp, #4]
	.loc	17 31 5                         @ ../fibre-cpp/crc.hpp:31:5
	cbz	r0, .LBB57_3
	b	.LBB57_2
.LBB57_2:                               @   in Loop: Header=BB57_1 Depth=1
	.loc	17 32 45 is_stmt 1              @ ../fibre-cpp/crc.hpp:32:45
	ldrb.w	r0, [sp, #15]
	.loc	17 32 64 is_stmt 0              @ ../fibre-cpp/crc.hpp:32:64
	ldr	r1, [sp, #8]
	adds	r2, r1, #1
	str	r2, [sp, #8]
	.loc	17 32 56                        @ ../fibre-cpp/crc.hpp:32:56
	ldrb	r1, [r1]
	.loc	17 32 21                        @ ../fibre-cpp/crc.hpp:32:21
	bl	_ZL8calc_crcIhLj55EET_S0_h
	.loc	17 32 19                        @ ../fibre-cpp/crc.hpp:32:19
	strb.w	r0, [sp, #15]
	.loc	17 31 5 is_stmt 1               @ ../fibre-cpp/crc.hpp:31:5
	b	.LBB57_1
.LBB57_3:
	.loc	17 33 12                        @ ../fibre-cpp/crc.hpp:33:12
	ldrb.w	r0, [sp, #15]
	.loc	17 33 5 epilogue_begin is_stmt 0 @ ../fibre-cpp/crc.hpp:33:5
	add	sp, #16
	pop	{r7, pc}
.Ltmp274:
.Lfunc_end57:
	.size	_ZL8calc_crcIhLj55EET_S0_PKhj, .Lfunc_end57-_ZL8calc_crcIhLj55EET_S0_PKhj
	.cfi_endproc
	.cantunwind
	.fnend
                                        @ -- End function
	.section	.text._ZL8calc_crcIhLj55EET_S0_h,"ax",%progbits
	.p2align	2                               @ -- Begin function _ZL8calc_crcIhLj55EET_S0_h
	.type	_ZL8calc_crcIhLj55EET_S0_h,%function
	.code	16                              @ @_ZL8calc_crcIhLj55EET_S0_h
	.thumb_func
_ZL8calc_crcIhLj55EET_S0_h:
.Lfunc_begin58:
	.loc	17 10 0 is_stmt 1               @ ../fibre-cpp/crc.hpp:10:0
	.fnstart
	.cfi_startproc
@ %bb.0:
	.pad	#8
	sub	sp, #8
	.cfi_def_cfa_offset 8
                                        @ kill: def $r2 killed $r1
                                        @ kill: def $r2 killed $r0
	strb.w	r0, [sp, #7]
	strb.w	r1, [sp, #6]
	movs	r0, #8
.Ltmp275:
	.loc	17 11 17 prologue_end           @ ../fibre-cpp/crc.hpp:11:17
	strb.w	r0, [sp, #5]
	movs	r1, #128
	.loc	17 12 17                        @ ../fibre-cpp/crc.hpp:12:17
	strb.w	r1, [sp, #4]
	.loc	17 15 19                        @ ../fibre-cpp/crc.hpp:15:19
	ldrb.w	r2, [sp, #6]
	.loc	17 15 15 is_stmt 0              @ ../fibre-cpp/crc.hpp:15:15
	ldrb.w	r1, [sp, #7]
	eors	r1, r2
	strb.w	r1, [sp, #7]
.Ltmp276:
	.loc	17 18 18 is_stmt 1              @ ../fibre-cpp/crc.hpp:18:18
	strb.w	r0, [sp, #3]
	.loc	17 18 10 is_stmt 0              @ ../fibre-cpp/crc.hpp:18:10
	b	.LBB58_1
.LBB58_1:                               @ =>This Inner Loop Header: Depth=1
.Ltmp277:
	.loc	17 18 27                        @ ../fibre-cpp/crc.hpp:18:27
	ldrb.w	r0, [sp, #3]
.Ltmp278:
	.loc	17 18 5                         @ ../fibre-cpp/crc.hpp:18:5
	cbz	r0, .LBB58_7
	b	.LBB58_2
.LBB58_2:                               @   in Loop: Header=BB58_1 Depth=1
.Ltmp279:
	.loc	17 19 13 is_stmt 1              @ ../fibre-cpp/crc.hpp:19:13
	ldrb.w	r0, [sp, #7]
.Ltmp280:
	.loc	17 19 13 is_stmt 0              @ ../fibre-cpp/crc.hpp:19:13
	lsls	r0, r0, #24
	cmp	r0, #0
	bpl	.LBB58_4
	b	.LBB58_3
.LBB58_3:                               @   in Loop: Header=BB58_1 Depth=1
.Ltmp281:
	.loc	17 20 26 is_stmt 1              @ ../fibre-cpp/crc.hpp:20:26
	ldrb.w	r1, [sp, #7]
	movs	r0, #55
	.loc	17 20 42 is_stmt 0              @ ../fibre-cpp/crc.hpp:20:42
	eor.w	r0, r0, r1, lsl #1
	.loc	17 20 23                        @ ../fibre-cpp/crc.hpp:20:23
	strb.w	r0, [sp, #7]
	.loc	17 21 9 is_stmt 1               @ ../fibre-cpp/crc.hpp:21:9
	b	.LBB58_5
.Ltmp282:
.LBB58_4:                               @   in Loop: Header=BB58_1 Depth=1
	.loc	17 22 26                        @ ../fibre-cpp/crc.hpp:22:26
	ldrb.w	r0, [sp, #7]
	.loc	17 22 36 is_stmt 0              @ ../fibre-cpp/crc.hpp:22:36
	lsls	r0, r0, #1
	.loc	17 22 23                        @ ../fibre-cpp/crc.hpp:22:23
	strb.w	r0, [sp, #7]
	b	.LBB58_5
.Ltmp283:
.LBB58_5:                               @   in Loop: Header=BB58_1 Depth=1
	.loc	17 24 5 is_stmt 1               @ ../fibre-cpp/crc.hpp:24:5
	b	.LBB58_6
.Ltmp284:
.LBB58_6:                               @   in Loop: Header=BB58_1 Depth=1
	.loc	17 18 32                        @ ../fibre-cpp/crc.hpp:18:32
	ldrb.w	r0, [sp, #3]
	subs	r0, #1
	strb.w	r0, [sp, #3]
	.loc	17 18 5 is_stmt 0               @ ../fibre-cpp/crc.hpp:18:5
	b	.LBB58_1
.Ltmp285:
.LBB58_7:
	.loc	17 26 12 is_stmt 1              @ ../fibre-cpp/crc.hpp:26:12
	ldrb.w	r0, [sp, #7]
	.loc	17 26 5 epilogue_begin is_stmt 0 @ ../fibre-cpp/crc.hpp:26:5
	add	sp, #8
	bx	lr
.Ltmp286:
.Lfunc_end58:
	.size	_ZL8calc_crcIhLj55EET_S0_h, .Lfunc_end58-_ZL8calc_crcIhLj55EET_S0_h
	.cfi_endproc
	.cantunwind
	.fnend
                                        @ -- End function
	.section	.text._ZL8calc_crcItLj15717EET_S0_PKhj,"ax",%progbits
	.p2align	2                               @ -- Begin function _ZL8calc_crcItLj15717EET_S0_PKhj
	.type	_ZL8calc_crcItLj15717EET_S0_PKhj,%function
	.code	16                              @ @_ZL8calc_crcItLj15717EET_S0_PKhj
	.thumb_func
_ZL8calc_crcItLj15717EET_S0_PKhj:
.Lfunc_begin59:
	.loc	17 30 0 is_stmt 1               @ ../fibre-cpp/crc.hpp:30:0
	.fnstart
	.cfi_startproc
@ %bb.0:
	.save	{r7, lr}
	push	{r7, lr}
	.cfi_def_cfa_offset 8
	.cfi_offset lr, -4
	.cfi_offset r7, -8
	.pad	#16
	sub	sp, #16
	.cfi_def_cfa_offset 24
                                        @ kill: def $r3 killed $r0
	strh.w	r0, [sp, #14]
	str	r1, [sp, #8]
	str	r2, [sp, #4]
.Ltmp287:
	.loc	17 31 5 prologue_end            @ ../fibre-cpp/crc.hpp:31:5
	b	.LBB59_1
.LBB59_1:                               @ =>This Inner Loop Header: Depth=1
	.loc	17 31 18 is_stmt 0              @ ../fibre-cpp/crc.hpp:31:18
	ldr	r0, [sp, #4]
	subs	r1, r0, #1
	str	r1, [sp, #4]
	.loc	17 31 5                         @ ../fibre-cpp/crc.hpp:31:5
	cbz	r0, .LBB59_3
	b	.LBB59_2
.LBB59_2:                               @   in Loop: Header=BB59_1 Depth=1
	.loc	17 32 45 is_stmt 1              @ ../fibre-cpp/crc.hpp:32:45
	ldrh.w	r0, [sp, #14]
	.loc	17 32 64 is_stmt 0              @ ../fibre-cpp/crc.hpp:32:64
	ldr	r1, [sp, #8]
	adds	r2, r1, #1
	str	r2, [sp, #8]
	.loc	17 32 56                        @ ../fibre-cpp/crc.hpp:32:56
	ldrb	r1, [r1]
	.loc	17 32 21                        @ ../fibre-cpp/crc.hpp:32:21
	bl	_ZL8calc_crcItLj15717EET_S0_h
	.loc	17 32 19                        @ ../fibre-cpp/crc.hpp:32:19
	strh.w	r0, [sp, #14]
	.loc	17 31 5 is_stmt 1               @ ../fibre-cpp/crc.hpp:31:5
	b	.LBB59_1
.LBB59_3:
	.loc	17 33 12                        @ ../fibre-cpp/crc.hpp:33:12
	ldrh.w	r0, [sp, #14]
	.loc	17 33 5 epilogue_begin is_stmt 0 @ ../fibre-cpp/crc.hpp:33:5
	add	sp, #16
	pop	{r7, pc}
.Ltmp288:
.Lfunc_end59:
	.size	_ZL8calc_crcItLj15717EET_S0_PKhj, .Lfunc_end59-_ZL8calc_crcItLj15717EET_S0_PKhj
	.cfi_endproc
	.cantunwind
	.fnend
                                        @ -- End function
	.section	.text._ZL8calc_crcItLj15717EET_S0_h,"ax",%progbits
	.p2align	2                               @ -- Begin function _ZL8calc_crcItLj15717EET_S0_h
	.type	_ZL8calc_crcItLj15717EET_S0_h,%function
	.code	16                              @ @_ZL8calc_crcItLj15717EET_S0_h
	.thumb_func
_ZL8calc_crcItLj15717EET_S0_h:
.Lfunc_begin60:
	.loc	17 10 0 is_stmt 1               @ ../fibre-cpp/crc.hpp:10:0
	.fnstart
	.cfi_startproc
@ %bb.0:
	.pad	#12
	sub	sp, #12
	.cfi_def_cfa_offset 12
                                        @ kill: def $r2 killed $r1
                                        @ kill: def $r2 killed $r0
	strh.w	r0, [sp, #10]
	strb.w	r1, [sp, #9]
	movs	r0, #16
.Ltmp289:
	.loc	17 11 17 prologue_end           @ ../fibre-cpp/crc.hpp:11:17
	strh.w	r0, [sp, #6]
	mov.w	r0, #32768
	.loc	17 12 17                        @ ../fibre-cpp/crc.hpp:12:17
	strh.w	r0, [sp, #4]
	.loc	17 15 19                        @ ../fibre-cpp/crc.hpp:15:19
	ldrb.w	r1, [sp, #9]
	.loc	17 15 15 is_stmt 0              @ ../fibre-cpp/crc.hpp:15:15
	ldrh.w	r0, [sp, #10]
	eor.w	r0, r0, r1, lsl #8
	strh.w	r0, [sp, #10]
	movs	r0, #8
.Ltmp290:
	.loc	17 18 18 is_stmt 1              @ ../fibre-cpp/crc.hpp:18:18
	strb.w	r0, [sp, #3]
	.loc	17 18 10 is_stmt 0              @ ../fibre-cpp/crc.hpp:18:10
	b	.LBB60_1
.LBB60_1:                               @ =>This Inner Loop Header: Depth=1
.Ltmp291:
	.loc	17 18 27                        @ ../fibre-cpp/crc.hpp:18:27
	ldrb.w	r0, [sp, #3]
.Ltmp292:
	.loc	17 18 5                         @ ../fibre-cpp/crc.hpp:18:5
	cbz	r0, .LBB60_7
	b	.LBB60_2
.LBB60_2:                               @   in Loop: Header=BB60_1 Depth=1
.Ltmp293:
	.loc	17 19 13 is_stmt 1              @ ../fibre-cpp/crc.hpp:19:13
	ldrh.w	r0, [sp, #10]
.Ltmp294:
	.loc	17 19 13 is_stmt 0              @ ../fibre-cpp/crc.hpp:19:13
	lsls	r0, r0, #16
	cmp	r0, #0
	bpl	.LBB60_4
	b	.LBB60_3
.LBB60_3:                               @   in Loop: Header=BB60_1 Depth=1
.Ltmp295:
	.loc	17 20 26 is_stmt 1              @ ../fibre-cpp/crc.hpp:20:26
	ldrh.w	r1, [sp, #10]
	movw	r0, #15717
	.loc	17 20 42 is_stmt 0              @ ../fibre-cpp/crc.hpp:20:42
	eor.w	r0, r0, r1, lsl #1
	.loc	17 20 23                        @ ../fibre-cpp/crc.hpp:20:23
	strh.w	r0, [sp, #10]
	.loc	17 21 9 is_stmt 1               @ ../fibre-cpp/crc.hpp:21:9
	b	.LBB60_5
.Ltmp296:
.LBB60_4:                               @   in Loop: Header=BB60_1 Depth=1
	.loc	17 22 26                        @ ../fibre-cpp/crc.hpp:22:26
	ldrh.w	r0, [sp, #10]
	.loc	17 22 36 is_stmt 0              @ ../fibre-cpp/crc.hpp:22:36
	lsls	r0, r0, #1
	.loc	17 22 23                        @ ../fibre-cpp/crc.hpp:22:23
	strh.w	r0, [sp, #10]
	b	.LBB60_5
.Ltmp297:
.LBB60_5:                               @   in Loop: Header=BB60_1 Depth=1
	.loc	17 24 5 is_stmt 1               @ ../fibre-cpp/crc.hpp:24:5
	b	.LBB60_6
.Ltmp298:
.LBB60_6:                               @   in Loop: Header=BB60_1 Depth=1
	.loc	17 18 32                        @ ../fibre-cpp/crc.hpp:18:32
	ldrb.w	r0, [sp, #3]
	subs	r0, #1
	strb.w	r0, [sp, #3]
	.loc	17 18 5 is_stmt 0               @ ../fibre-cpp/crc.hpp:18:5
	b	.LBB60_1
.Ltmp299:
.LBB60_7:
	.loc	17 26 12 is_stmt 1              @ ../fibre-cpp/crc.hpp:26:12
	ldrh.w	r0, [sp, #10]
	.loc	17 26 5 epilogue_begin is_stmt 0 @ ../fibre-cpp/crc.hpp:26:5
	add	sp, #12
	bx	lr
.Ltmp300:
.Lfunc_end60:
	.size	_ZL8calc_crcItLj15717EET_S0_h, .Lfunc_end60-_ZL8calc_crcItLj15717EET_S0_h
	.cfi_endproc
	.cantunwind
	.fnend
                                        @ -- End function
	.section	.text._ZN5fibre14MemberCallbackIMNS_13PacketWrapperEFvNS_11WriteResultEEXadL_ZNS1_8completeES2_EES1_vNSt3__25tupleIJS2_EEEE4withEPS1_,"axG",%progbits,_ZN5fibre14MemberCallbackIMNS_13PacketWrapperEFvNS_11WriteResultEEXadL_ZNS1_8completeES2_EES1_vNSt3__25tupleIJS2_EEEE4withEPS1_,comdat
	.hidden	_ZN5fibre14MemberCallbackIMNS_13PacketWrapperEFvNS_11WriteResultEEXadL_ZNS1_8completeES2_EES1_vNSt3__25tupleIJS2_EEEE4withEPS1_ @ -- Begin function _ZN5fibre14MemberCallbackIMNS_13PacketWrapperEFvNS_11WriteResultEEXadL_ZNS1_8completeES2_EES1_vNSt3__25tupleIJS2_EEEE4withEPS1_
	.weak	_ZN5fibre14MemberCallbackIMNS_13PacketWrapperEFvNS_11WriteResultEEXadL_ZNS1_8completeES2_EES1_vNSt3__25tupleIJS2_EEEE4withEPS1_
	.p2align	2
	.type	_ZN5fibre14MemberCallbackIMNS_13PacketWrapperEFvNS_11WriteResultEEXadL_ZNS1_8completeES2_EES1_vNSt3__25tupleIJS2_EEEE4withEPS1_,%function
	.code	16                              @ @_ZN5fibre14MemberCallbackIMNS_13PacketWrapperEFvNS_11WriteResultEEXadL_ZNS1_8completeES2_EES1_vNSt3__25tupleIJS2_EEEE4withEPS1_
	.thumb_func
_ZN5fibre14MemberCallbackIMNS_13PacketWrapperEFvNS_11WriteResultEEXadL_ZNS1_8completeES2_EES1_vNSt3__25tupleIJS2_EEEE4withEPS1_:
.Lfunc_begin61:
	.loc	9 104 0 is_stmt 1               @ ../fibre-cpp/include\fibre/callback.hpp:104:0
	.fnstart
	.cfi_startproc
@ %bb.0:
	.save	{r7, lr}
	push	{r7, lr}
	.cfi_def_cfa_offset 8
	.cfi_offset lr, -4
	.cfi_offset r7, -8
	.pad	#16
	sub	sp, #16
	.cfi_def_cfa_offset 24
	str	r0, [sp]                        @ 4-byte Spill
	str	r0, [sp, #12]
	str	r1, [sp, #8]
	add.w	r0, sp, #7
.Ltmp301:
	.loc	9 105 21 prologue_end           @ ../fibre-cpp/include\fibre/callback.hpp:105:21
	bl	_ZZN5fibre14MemberCallbackIMNS_13PacketWrapperEFvNS_11WriteResultEEXadL_ZNS1_8completeES2_EES1_vNSt3__25tupleIJS2_EEEE4withEPS1_ENKUlPvS2_E_cvPFvSA_S2_EEv
	mov	r1, r0
	.loc	9 107 12                        @ ../fibre-cpp/include\fibre/callback.hpp:107:12
	ldr	r0, [sp]                        @ 4-byte Reload
	ldr	r2, [sp, #8]
	.loc	9 105 16                        @ ../fibre-cpp/include\fibre/callback.hpp:105:16
	bl	_ZN5fibre8CallbackIvJNS_11WriteResultEEEC2EPFvPvS1_ES3_
	.loc	9 105 9 epilogue_begin is_stmt 0 @ ../fibre-cpp/include\fibre/callback.hpp:105:9
	add	sp, #16
	pop	{r7, pc}
.Ltmp302:
.Lfunc_end61:
	.size	_ZN5fibre14MemberCallbackIMNS_13PacketWrapperEFvNS_11WriteResultEEXadL_ZNS1_8completeES2_EES1_vNSt3__25tupleIJS2_EEEE4withEPS1_, .Lfunc_end61-_ZN5fibre14MemberCallbackIMNS_13PacketWrapperEFvNS_11WriteResultEEXadL_ZNS1_8completeES2_EES1_vNSt3__25tupleIJS2_EEEE4withEPS1_
	.cfi_endproc
	.cantunwind
	.fnend
                                        @ -- End function
	.section	.text._ZZN5fibre14MemberCallbackIMNS_13PacketWrapperEFvNS_11WriteResultEEXadL_ZNS1_8completeES2_EES1_vNSt3__25tupleIJS2_EEEE4withEPS1_ENKUlPvS2_E_cvPFvSA_S2_EEv,"axG",%progbits,_ZZN5fibre14MemberCallbackIMNS_13PacketWrapperEFvNS_11WriteResultEEXadL_ZNS1_8completeES2_EES1_vNSt3__25tupleIJS2_EEEE4withEPS1_ENKUlPvS2_E_cvPFvSA_S2_EEv,comdat
	.hidden	_ZZN5fibre14MemberCallbackIMNS_13PacketWrapperEFvNS_11WriteResultEEXadL_ZNS1_8completeES2_EES1_vNSt3__25tupleIJS2_EEEE4withEPS1_ENKUlPvS2_E_cvPFvSA_S2_EEv @ -- Begin function _ZZN5fibre14MemberCallbackIMNS_13PacketWrapperEFvNS_11WriteResultEEXadL_ZNS1_8completeES2_EES1_vNSt3__25tupleIJS2_EEEE4withEPS1_ENKUlPvS2_E_cvPFvSA_S2_EEv
	.weak	_ZZN5fibre14MemberCallbackIMNS_13PacketWrapperEFvNS_11WriteResultEEXadL_ZNS1_8completeES2_EES1_vNSt3__25tupleIJS2_EEEE4withEPS1_ENKUlPvS2_E_cvPFvSA_S2_EEv
	.p2align	2
	.type	_ZZN5fibre14MemberCallbackIMNS_13PacketWrapperEFvNS_11WriteResultEEXadL_ZNS1_8completeES2_EES1_vNSt3__25tupleIJS2_EEEE4withEPS1_ENKUlPvS2_E_cvPFvSA_S2_EEv,%function
	.code	16                              @ @_ZZN5fibre14MemberCallbackIMNS_13PacketWrapperEFvNS_11WriteResultEEXadL_ZNS1_8completeES2_EES1_vNSt3__25tupleIJS2_EEEE4withEPS1_ENKUlPvS2_E_cvPFvSA_S2_EEv
	.thumb_func
_ZZN5fibre14MemberCallbackIMNS_13PacketWrapperEFvNS_11WriteResultEEXadL_ZNS1_8completeES2_EES1_vNSt3__25tupleIJS2_EEEE4withEPS1_ENKUlPvS2_E_cvPFvSA_S2_EEv:
.Lfunc_begin62:
	.loc	9 105 0 is_stmt 1               @ ../fibre-cpp/include\fibre/callback.hpp:105:0
	.fnstart
	.cfi_startproc
@ %bb.0:
	.pad	#4
	sub	sp, #4
	.cfi_def_cfa_offset 4
	str	r0, [sp]
.Ltmp303:
	.loc	9 105 21 prologue_end           @ ../fibre-cpp/include\fibre/callback.hpp:105:21
	movw	r0, :lower16:_ZZN5fibre14MemberCallbackIMNS_13PacketWrapperEFvNS_11WriteResultEEXadL_ZNS1_8completeES2_EES1_vNSt3__25tupleIJS2_EEEE4withEPS1_ENUlPvS2_E_8__invokeESA_S2_
	movt	r0, :upper16:_ZZN5fibre14MemberCallbackIMNS_13PacketWrapperEFvNS_11WriteResultEEXadL_ZNS1_8completeES2_EES1_vNSt3__25tupleIJS2_EEEE4withEPS1_ENUlPvS2_E_8__invokeESA_S2_
	.loc	9 105 21 epilogue_begin is_stmt 0 @ ../fibre-cpp/include\fibre/callback.hpp:105:21
	add	sp, #4
	bx	lr
.Ltmp304:
.Lfunc_end62:
	.size	_ZZN5fibre14MemberCallbackIMNS_13PacketWrapperEFvNS_11WriteResultEEXadL_ZNS1_8completeES2_EES1_vNSt3__25tupleIJS2_EEEE4withEPS1_ENKUlPvS2_E_cvPFvSA_S2_EEv, .Lfunc_end62-_ZZN5fibre14MemberCallbackIMNS_13PacketWrapperEFvNS_11WriteResultEEXadL_ZNS1_8completeES2_EES1_vNSt3__25tupleIJS2_EEEE4withEPS1_ENKUlPvS2_E_cvPFvSA_S2_EEv
	.cfi_endproc
	.cantunwind
	.fnend
                                        @ -- End function
	.section	.text._ZN5fibre8CallbackIvJNS_11WriteResultEEEC2EPFvPvS1_ES3_,"axG",%progbits,_ZN5fibre8CallbackIvJNS_11WriteResultEEEC2EPFvPvS1_ES3_,comdat
	.hidden	_ZN5fibre8CallbackIvJNS_11WriteResultEEEC2EPFvPvS1_ES3_ @ -- Begin function _ZN5fibre8CallbackIvJNS_11WriteResultEEEC2EPFvPvS1_ES3_
	.weak	_ZN5fibre8CallbackIvJNS_11WriteResultEEEC2EPFvPvS1_ES3_
	.p2align	2
	.type	_ZN5fibre8CallbackIvJNS_11WriteResultEEEC2EPFvPvS1_ES3_,%function
	.code	16                              @ @_ZN5fibre8CallbackIvJNS_11WriteResultEEEC2EPFvPvS1_ES3_
	.thumb_func
_ZN5fibre8CallbackIvJNS_11WriteResultEEEC2EPFvPvS1_ES3_:
.Lfunc_begin63:
	.loc	9 23 0 is_stmt 1                @ ../fibre-cpp/include\fibre/callback.hpp:23:0
	.fnstart
	.cfi_startproc
@ %bb.0:
	.pad	#12
	sub	sp, #12
	.cfi_def_cfa_offset 12
	str	r0, [sp, #8]
	str	r1, [sp, #4]
	str	r2, [sp]
	ldr	r0, [sp, #8]
.Ltmp305:
	.loc	9 23 13 prologue_end            @ ../fibre-cpp/include\fibre/callback.hpp:23:13
	ldr	r1, [sp, #4]
	.loc	9 23 9 is_stmt 0                @ ../fibre-cpp/include\fibre/callback.hpp:23:9
	str	r1, [r0]
	.loc	9 23 29                         @ ../fibre-cpp/include\fibre/callback.hpp:23:29
	ldr	r1, [sp]
	.loc	9 23 24                         @ ../fibre-cpp/include\fibre/callback.hpp:23:24
	str	r1, [r0, #4]
	.loc	9 23 35 epilogue_begin          @ ../fibre-cpp/include\fibre/callback.hpp:23:35
	add	sp, #12
	bx	lr
.Ltmp306:
.Lfunc_end63:
	.size	_ZN5fibre8CallbackIvJNS_11WriteResultEEEC2EPFvPvS1_ES3_, .Lfunc_end63-_ZN5fibre8CallbackIvJNS_11WriteResultEEEC2EPFvPvS1_ES3_
	.cfi_endproc
	.cantunwind
	.fnend
                                        @ -- End function
	.section	.text._ZZN5fibre14MemberCallbackIMNS_13PacketWrapperEFvNS_11WriteResultEEXadL_ZNS1_8completeES2_EES1_vNSt3__25tupleIJS2_EEEE4withEPS1_ENUlPvS2_E_8__invokeESA_S2_,"axG",%progbits,_ZZN5fibre14MemberCallbackIMNS_13PacketWrapperEFvNS_11WriteResultEEXadL_ZNS1_8completeES2_EES1_vNSt3__25tupleIJS2_EEEE4withEPS1_ENUlPvS2_E_8__invokeESA_S2_,comdat
	.hidden	_ZZN5fibre14MemberCallbackIMNS_13PacketWrapperEFvNS_11WriteResultEEXadL_ZNS1_8completeES2_EES1_vNSt3__25tupleIJS2_EEEE4withEPS1_ENUlPvS2_E_8__invokeESA_S2_ @ -- Begin function _ZZN5fibre14MemberCallbackIMNS_13PacketWrapperEFvNS_11WriteResultEEXadL_ZNS1_8completeES2_EES1_vNSt3__25tupleIJS2_EEEE4withEPS1_ENUlPvS2_E_8__invokeESA_S2_
	.weak	_ZZN5fibre14MemberCallbackIMNS_13PacketWrapperEFvNS_11WriteResultEEXadL_ZNS1_8completeES2_EES1_vNSt3__25tupleIJS2_EEEE4withEPS1_ENUlPvS2_E_8__invokeESA_S2_
	.p2align	2
	.type	_ZZN5fibre14MemberCallbackIMNS_13PacketWrapperEFvNS_11WriteResultEEXadL_ZNS1_8completeES2_EES1_vNSt3__25tupleIJS2_EEEE4withEPS1_ENUlPvS2_E_8__invokeESA_S2_,%function
	.code	16                              @ @_ZZN5fibre14MemberCallbackIMNS_13PacketWrapperEFvNS_11WriteResultEEXadL_ZNS1_8completeES2_EES1_vNSt3__25tupleIJS2_EEEE4withEPS1_ENUlPvS2_E_8__invokeESA_S2_
	.thumb_func
_ZZN5fibre14MemberCallbackIMNS_13PacketWrapperEFvNS_11WriteResultEEXadL_ZNS1_8completeES2_EES1_vNSt3__25tupleIJS2_EEEE4withEPS1_ENUlPvS2_E_8__invokeESA_S2_:
.Lfunc_begin64:
	.loc	9 105 0 is_stmt 1               @ ../fibre-cpp/include\fibre/callback.hpp:105:0
	.fnstart
	.cfi_startproc
@ %bb.0:
	.save	{r7, lr}
	push	{r7, lr}
	.cfi_def_cfa_offset 8
	.cfi_offset lr, -4
	.cfi_offset r7, -8
	.pad	#16
	sub	sp, #16
	.cfi_def_cfa_offset 24
                                        @ kill: def $r3 killed $r2
                                        @ kill: def $r3 killed $r1
	str	r2, [sp, #12]
	str	r1, [sp, #8]
	str	r0, [sp, #4]
.Ltmp307:
	.loc	9 105 21 prologue_end           @ ../fibre-cpp/include\fibre/callback.hpp:105:21
	ldr	r1, [sp, #4]
	ldr	r2, [sp, #8]
	ldr	r3, [sp, #12]
	add.w	r0, sp, #3
	bl	_ZZN5fibre14MemberCallbackIMNS_13PacketWrapperEFvNS_11WriteResultEEXadL_ZNS1_8completeES2_EES1_vNSt3__25tupleIJS2_EEEE4withEPS1_ENKUlPvS2_E_clESA_S2_
	.loc	9 105 21 epilogue_begin is_stmt 0 @ ../fibre-cpp/include\fibre/callback.hpp:105:21
	add	sp, #16
	pop	{r7, pc}
.Ltmp308:
.Lfunc_end64:
	.size	_ZZN5fibre14MemberCallbackIMNS_13PacketWrapperEFvNS_11WriteResultEEXadL_ZNS1_8completeES2_EES1_vNSt3__25tupleIJS2_EEEE4withEPS1_ENUlPvS2_E_8__invokeESA_S2_, .Lfunc_end64-_ZZN5fibre14MemberCallbackIMNS_13PacketWrapperEFvNS_11WriteResultEEXadL_ZNS1_8completeES2_EES1_vNSt3__25tupleIJS2_EEEE4withEPS1_ENUlPvS2_E_8__invokeESA_S2_
	.cfi_endproc
	.cantunwind
	.fnend
                                        @ -- End function
	.section	.text._ZZN5fibre14MemberCallbackIMNS_13PacketWrapperEFvNS_11WriteResultEEXadL_ZNS1_8completeES2_EES1_vNSt3__25tupleIJS2_EEEE4withEPS1_ENKUlPvS2_E_clESA_S2_,"axG",%progbits,_ZZN5fibre14MemberCallbackIMNS_13PacketWrapperEFvNS_11WriteResultEEXadL_ZNS1_8completeES2_EES1_vNSt3__25tupleIJS2_EEEE4withEPS1_ENKUlPvS2_E_clESA_S2_,comdat
	.hidden	_ZZN5fibre14MemberCallbackIMNS_13PacketWrapperEFvNS_11WriteResultEEXadL_ZNS1_8completeES2_EES1_vNSt3__25tupleIJS2_EEEE4withEPS1_ENKUlPvS2_E_clESA_S2_ @ -- Begin function _ZZN5fibre14MemberCallbackIMNS_13PacketWrapperEFvNS_11WriteResultEEXadL_ZNS1_8completeES2_EES1_vNSt3__25tupleIJS2_EEEE4withEPS1_ENKUlPvS2_E_clESA_S2_
	.weak	_ZZN5fibre14MemberCallbackIMNS_13PacketWrapperEFvNS_11WriteResultEEXadL_ZNS1_8completeES2_EES1_vNSt3__25tupleIJS2_EEEE4withEPS1_ENKUlPvS2_E_clESA_S2_
	.p2align	2
	.type	_ZZN5fibre14MemberCallbackIMNS_13PacketWrapperEFvNS_11WriteResultEEXadL_ZNS1_8completeES2_EES1_vNSt3__25tupleIJS2_EEEE4withEPS1_ENKUlPvS2_E_clESA_S2_,%function
	.code	16                              @ @_ZZN5fibre14MemberCallbackIMNS_13PacketWrapperEFvNS_11WriteResultEEXadL_ZNS1_8completeES2_EES1_vNSt3__25tupleIJS2_EEEE4withEPS1_ENKUlPvS2_E_clESA_S2_
	.thumb_func
_ZZN5fibre14MemberCallbackIMNS_13PacketWrapperEFvNS_11WriteResultEEXadL_ZNS1_8completeES2_EES1_vNSt3__25tupleIJS2_EEEE4withEPS1_ENKUlPvS2_E_clESA_S2_:
.Lfunc_begin65:
	.loc	9 105 0 is_stmt 1               @ ../fibre-cpp/include\fibre/callback.hpp:105:0
	.fnstart
	.cfi_startproc
@ %bb.0:
	.save	{r7, lr}
	push	{r7, lr}
	.cfi_def_cfa_offset 8
	.cfi_offset lr, -4
	.cfi_offset r7, -8
	.pad	#32
	sub	sp, #32
	.cfi_def_cfa_offset 40
                                        @ kill: def $r12 killed $r3
                                        @ kill: def $r12 killed $r2
	str	r3, [sp, #28]
	str	r2, [sp, #24]
	str	r0, [sp, #20]
	str	r1, [sp, #16]
.Ltmp309:
	.loc	9 106 29 prologue_end           @ ../fibre-cpp/include\fibre/callback.hpp:106:29
	ldr	r0, [sp, #16]
	str	r0, [sp, #4]                    @ 4-byte Spill
	movs	r0, #1
	.loc	9 106 20 is_stmt 0              @ ../fibre-cpp/include\fibre/callback.hpp:106:20
	cbnz	r0, .LBB65_2
	b	.LBB65_1
.LBB65_1:
	ldr	r0, [sp, #4]                    @ 4-byte Reload
	ldr	r0, [r0]
	movw	r1, :lower16:_ZN5fibre13PacketWrapper8completeENS_11WriteResultE
	movt	r1, :upper16:_ZN5fibre13PacketWrapper8completeENS_11WriteResultE
	ldr	r0, [r0, r1]
	str	r0, [sp]                        @ 4-byte Spill
	b	.LBB65_3
.LBB65_2:
	.loc	9 0 20                          @ ../fibre-cpp/include\fibre/callback.hpp:0:20
	movw	r0, :lower16:_ZN5fibre13PacketWrapper8completeENS_11WriteResultE
	movt	r0, :upper16:_ZN5fibre13PacketWrapper8completeENS_11WriteResultE
	.loc	9 106 20                        @ ../fibre-cpp/include\fibre/callback.hpp:106:20
	str	r0, [sp]                        @ 4-byte Spill
	b	.LBB65_3
.LBB65_3:
	ldr	r0, [sp, #4]                    @ 4-byte Reload
	ldr	r3, [sp]                        @ 4-byte Reload
	.loc	9 106 42                        @ ../fibre-cpp/include\fibre/callback.hpp:106:42
	ldr	r1, [sp, #24]
	ldr	r2, [sp, #28]
	str	r2, [sp, #12]
	str	r1, [sp, #8]
	.loc	9 106 20                        @ ../fibre-cpp/include\fibre/callback.hpp:106:20
	ldr	r1, [sp, #8]
	ldr	r2, [sp, #12]
	blx	r3
	.loc	9 106 13 epilogue_begin         @ ../fibre-cpp/include\fibre/callback.hpp:106:13
	add	sp, #32
	pop	{r7, pc}
.Ltmp310:
.Lfunc_end65:
	.size	_ZZN5fibre14MemberCallbackIMNS_13PacketWrapperEFvNS_11WriteResultEEXadL_ZNS1_8completeES2_EES1_vNSt3__25tupleIJS2_EEEE4withEPS1_ENKUlPvS2_E_clESA_S2_, .Lfunc_end65-_ZZN5fibre14MemberCallbackIMNS_13PacketWrapperEFvNS_11WriteResultEEXadL_ZNS1_8completeES2_EES1_vNSt3__25tupleIJS2_EEEE4withEPS1_ENKUlPvS2_E_clESA_S2_
	.cfi_endproc
	.cantunwind
	.fnend
                                        @ -- End function
	.section	.text._ZN5fibre14MemberCallbackIMNS_15PacketUnwrapperEFvNS_10ReadResultEEXadL_ZNS1_8completeES2_EES1_vNSt3__25tupleIJS2_EEEE4withEPS1_,"axG",%progbits,_ZN5fibre14MemberCallbackIMNS_15PacketUnwrapperEFvNS_10ReadResultEEXadL_ZNS1_8completeES2_EES1_vNSt3__25tupleIJS2_EEEE4withEPS1_,comdat
	.hidden	_ZN5fibre14MemberCallbackIMNS_15PacketUnwrapperEFvNS_10ReadResultEEXadL_ZNS1_8completeES2_EES1_vNSt3__25tupleIJS2_EEEE4withEPS1_ @ -- Begin function _ZN5fibre14MemberCallbackIMNS_15PacketUnwrapperEFvNS_10ReadResultEEXadL_ZNS1_8completeES2_EES1_vNSt3__25tupleIJS2_EEEE4withEPS1_
	.weak	_ZN5fibre14MemberCallbackIMNS_15PacketUnwrapperEFvNS_10ReadResultEEXadL_ZNS1_8completeES2_EES1_vNSt3__25tupleIJS2_EEEE4withEPS1_
	.p2align	2
	.type	_ZN5fibre14MemberCallbackIMNS_15PacketUnwrapperEFvNS_10ReadResultEEXadL_ZNS1_8completeES2_EES1_vNSt3__25tupleIJS2_EEEE4withEPS1_,%function
	.code	16                              @ @_ZN5fibre14MemberCallbackIMNS_15PacketUnwrapperEFvNS_10ReadResultEEXadL_ZNS1_8completeES2_EES1_vNSt3__25tupleIJS2_EEEE4withEPS1_
	.thumb_func
_ZN5fibre14MemberCallbackIMNS_15PacketUnwrapperEFvNS_10ReadResultEEXadL_ZNS1_8completeES2_EES1_vNSt3__25tupleIJS2_EEEE4withEPS1_:
.Lfunc_begin66:
	.loc	9 104 0 is_stmt 1               @ ../fibre-cpp/include\fibre/callback.hpp:104:0
	.fnstart
	.cfi_startproc
@ %bb.0:
	.save	{r7, lr}
	push	{r7, lr}
	.cfi_def_cfa_offset 8
	.cfi_offset lr, -4
	.cfi_offset r7, -8
	.pad	#16
	sub	sp, #16
	.cfi_def_cfa_offset 24
	str	r0, [sp]                        @ 4-byte Spill
	str	r0, [sp, #12]
	str	r1, [sp, #8]
	add.w	r0, sp, #7
.Ltmp311:
	.loc	9 105 21 prologue_end           @ ../fibre-cpp/include\fibre/callback.hpp:105:21
	bl	_ZZN5fibre14MemberCallbackIMNS_15PacketUnwrapperEFvNS_10ReadResultEEXadL_ZNS1_8completeES2_EES1_vNSt3__25tupleIJS2_EEEE4withEPS1_ENKUlPvS2_E_cvPFvSA_S2_EEv
	mov	r1, r0
	.loc	9 107 12                        @ ../fibre-cpp/include\fibre/callback.hpp:107:12
	ldr	r0, [sp]                        @ 4-byte Reload
	ldr	r2, [sp, #8]
	.loc	9 105 16                        @ ../fibre-cpp/include\fibre/callback.hpp:105:16
	bl	_ZN5fibre8CallbackIvJNS_10ReadResultEEEC2EPFvPvS1_ES3_
	.loc	9 105 9 epilogue_begin is_stmt 0 @ ../fibre-cpp/include\fibre/callback.hpp:105:9
	add	sp, #16
	pop	{r7, pc}
.Ltmp312:
.Lfunc_end66:
	.size	_ZN5fibre14MemberCallbackIMNS_15PacketUnwrapperEFvNS_10ReadResultEEXadL_ZNS1_8completeES2_EES1_vNSt3__25tupleIJS2_EEEE4withEPS1_, .Lfunc_end66-_ZN5fibre14MemberCallbackIMNS_15PacketUnwrapperEFvNS_10ReadResultEEXadL_ZNS1_8completeES2_EES1_vNSt3__25tupleIJS2_EEEE4withEPS1_
	.cfi_endproc
	.cantunwind
	.fnend
                                        @ -- End function
	.section	.text._ZZN5fibre14MemberCallbackIMNS_15PacketUnwrapperEFvNS_10ReadResultEEXadL_ZNS1_8completeES2_EES1_vNSt3__25tupleIJS2_EEEE4withEPS1_ENKUlPvS2_E_cvPFvSA_S2_EEv,"axG",%progbits,_ZZN5fibre14MemberCallbackIMNS_15PacketUnwrapperEFvNS_10ReadResultEEXadL_ZNS1_8completeES2_EES1_vNSt3__25tupleIJS2_EEEE4withEPS1_ENKUlPvS2_E_cvPFvSA_S2_EEv,comdat
	.hidden	_ZZN5fibre14MemberCallbackIMNS_15PacketUnwrapperEFvNS_10ReadResultEEXadL_ZNS1_8completeES2_EES1_vNSt3__25tupleIJS2_EEEE4withEPS1_ENKUlPvS2_E_cvPFvSA_S2_EEv @ -- Begin function _ZZN5fibre14MemberCallbackIMNS_15PacketUnwrapperEFvNS_10ReadResultEEXadL_ZNS1_8completeES2_EES1_vNSt3__25tupleIJS2_EEEE4withEPS1_ENKUlPvS2_E_cvPFvSA_S2_EEv
	.weak	_ZZN5fibre14MemberCallbackIMNS_15PacketUnwrapperEFvNS_10ReadResultEEXadL_ZNS1_8completeES2_EES1_vNSt3__25tupleIJS2_EEEE4withEPS1_ENKUlPvS2_E_cvPFvSA_S2_EEv
	.p2align	2
	.type	_ZZN5fibre14MemberCallbackIMNS_15PacketUnwrapperEFvNS_10ReadResultEEXadL_ZNS1_8completeES2_EES1_vNSt3__25tupleIJS2_EEEE4withEPS1_ENKUlPvS2_E_cvPFvSA_S2_EEv,%function
	.code	16                              @ @_ZZN5fibre14MemberCallbackIMNS_15PacketUnwrapperEFvNS_10ReadResultEEXadL_ZNS1_8completeES2_EES1_vNSt3__25tupleIJS2_EEEE4withEPS1_ENKUlPvS2_E_cvPFvSA_S2_EEv
	.thumb_func
_ZZN5fibre14MemberCallbackIMNS_15PacketUnwrapperEFvNS_10ReadResultEEXadL_ZNS1_8completeES2_EES1_vNSt3__25tupleIJS2_EEEE4withEPS1_ENKUlPvS2_E_cvPFvSA_S2_EEv:
.Lfunc_begin67:
	.loc	9 105 0 is_stmt 1               @ ../fibre-cpp/include\fibre/callback.hpp:105:0
	.fnstart
	.cfi_startproc
@ %bb.0:
	.pad	#4
	sub	sp, #4
	.cfi_def_cfa_offset 4
	str	r0, [sp]
.Ltmp313:
	.loc	9 105 21 prologue_end           @ ../fibre-cpp/include\fibre/callback.hpp:105:21
	movw	r0, :lower16:_ZZN5fibre14MemberCallbackIMNS_15PacketUnwrapperEFvNS_10ReadResultEEXadL_ZNS1_8completeES2_EES1_vNSt3__25tupleIJS2_EEEE4withEPS1_ENUlPvS2_E_8__invokeESA_S2_
	movt	r0, :upper16:_ZZN5fibre14MemberCallbackIMNS_15PacketUnwrapperEFvNS_10ReadResultEEXadL_ZNS1_8completeES2_EES1_vNSt3__25tupleIJS2_EEEE4withEPS1_ENUlPvS2_E_8__invokeESA_S2_
	.loc	9 105 21 epilogue_begin is_stmt 0 @ ../fibre-cpp/include\fibre/callback.hpp:105:21
	add	sp, #4
	bx	lr
.Ltmp314:
.Lfunc_end67:
	.size	_ZZN5fibre14MemberCallbackIMNS_15PacketUnwrapperEFvNS_10ReadResultEEXadL_ZNS1_8completeES2_EES1_vNSt3__25tupleIJS2_EEEE4withEPS1_ENKUlPvS2_E_cvPFvSA_S2_EEv, .Lfunc_end67-_ZZN5fibre14MemberCallbackIMNS_15PacketUnwrapperEFvNS_10ReadResultEEXadL_ZNS1_8completeES2_EES1_vNSt3__25tupleIJS2_EEEE4withEPS1_ENKUlPvS2_E_cvPFvSA_S2_EEv
	.cfi_endproc
	.cantunwind
	.fnend
                                        @ -- End function
	.section	.text._ZN5fibre8CallbackIvJNS_10ReadResultEEEC2EPFvPvS1_ES3_,"axG",%progbits,_ZN5fibre8CallbackIvJNS_10ReadResultEEEC2EPFvPvS1_ES3_,comdat
	.hidden	_ZN5fibre8CallbackIvJNS_10ReadResultEEEC2EPFvPvS1_ES3_ @ -- Begin function _ZN5fibre8CallbackIvJNS_10ReadResultEEEC2EPFvPvS1_ES3_
	.weak	_ZN5fibre8CallbackIvJNS_10ReadResultEEEC2EPFvPvS1_ES3_
	.p2align	2
	.type	_ZN5fibre8CallbackIvJNS_10ReadResultEEEC2EPFvPvS1_ES3_,%function
	.code	16                              @ @_ZN5fibre8CallbackIvJNS_10ReadResultEEEC2EPFvPvS1_ES3_
	.thumb_func
_ZN5fibre8CallbackIvJNS_10ReadResultEEEC2EPFvPvS1_ES3_:
.Lfunc_begin68:
	.loc	9 23 0 is_stmt 1                @ ../fibre-cpp/include\fibre/callback.hpp:23:0
	.fnstart
	.cfi_startproc
@ %bb.0:
	.pad	#12
	sub	sp, #12
	.cfi_def_cfa_offset 12
	str	r0, [sp, #8]
	str	r1, [sp, #4]
	str	r2, [sp]
	ldr	r0, [sp, #8]
.Ltmp315:
	.loc	9 23 13 prologue_end            @ ../fibre-cpp/include\fibre/callback.hpp:23:13
	ldr	r1, [sp, #4]
	.loc	9 23 9 is_stmt 0                @ ../fibre-cpp/include\fibre/callback.hpp:23:9
	str	r1, [r0]
	.loc	9 23 29                         @ ../fibre-cpp/include\fibre/callback.hpp:23:29
	ldr	r1, [sp]
	.loc	9 23 24                         @ ../fibre-cpp/include\fibre/callback.hpp:23:24
	str	r1, [r0, #4]
	.loc	9 23 35 epilogue_begin          @ ../fibre-cpp/include\fibre/callback.hpp:23:35
	add	sp, #12
	bx	lr
.Ltmp316:
.Lfunc_end68:
	.size	_ZN5fibre8CallbackIvJNS_10ReadResultEEEC2EPFvPvS1_ES3_, .Lfunc_end68-_ZN5fibre8CallbackIvJNS_10ReadResultEEEC2EPFvPvS1_ES3_
	.cfi_endproc
	.cantunwind
	.fnend
                                        @ -- End function
	.section	.text._ZZN5fibre14MemberCallbackIMNS_15PacketUnwrapperEFvNS_10ReadResultEEXadL_ZNS1_8completeES2_EES1_vNSt3__25tupleIJS2_EEEE4withEPS1_ENUlPvS2_E_8__invokeESA_S2_,"axG",%progbits,_ZZN5fibre14MemberCallbackIMNS_15PacketUnwrapperEFvNS_10ReadResultEEXadL_ZNS1_8completeES2_EES1_vNSt3__25tupleIJS2_EEEE4withEPS1_ENUlPvS2_E_8__invokeESA_S2_,comdat
	.hidden	_ZZN5fibre14MemberCallbackIMNS_15PacketUnwrapperEFvNS_10ReadResultEEXadL_ZNS1_8completeES2_EES1_vNSt3__25tupleIJS2_EEEE4withEPS1_ENUlPvS2_E_8__invokeESA_S2_ @ -- Begin function _ZZN5fibre14MemberCallbackIMNS_15PacketUnwrapperEFvNS_10ReadResultEEXadL_ZNS1_8completeES2_EES1_vNSt3__25tupleIJS2_EEEE4withEPS1_ENUlPvS2_E_8__invokeESA_S2_
	.weak	_ZZN5fibre14MemberCallbackIMNS_15PacketUnwrapperEFvNS_10ReadResultEEXadL_ZNS1_8completeES2_EES1_vNSt3__25tupleIJS2_EEEE4withEPS1_ENUlPvS2_E_8__invokeESA_S2_
	.p2align	2
	.type	_ZZN5fibre14MemberCallbackIMNS_15PacketUnwrapperEFvNS_10ReadResultEEXadL_ZNS1_8completeES2_EES1_vNSt3__25tupleIJS2_EEEE4withEPS1_ENUlPvS2_E_8__invokeESA_S2_,%function
	.code	16                              @ @_ZZN5fibre14MemberCallbackIMNS_15PacketUnwrapperEFvNS_10ReadResultEEXadL_ZNS1_8completeES2_EES1_vNSt3__25tupleIJS2_EEEE4withEPS1_ENUlPvS2_E_8__invokeESA_S2_
	.thumb_func
_ZZN5fibre14MemberCallbackIMNS_15PacketUnwrapperEFvNS_10ReadResultEEXadL_ZNS1_8completeES2_EES1_vNSt3__25tupleIJS2_EEEE4withEPS1_ENUlPvS2_E_8__invokeESA_S2_:
.Lfunc_begin69:
	.loc	9 105 0 is_stmt 1               @ ../fibre-cpp/include\fibre/callback.hpp:105:0
	.fnstart
	.cfi_startproc
@ %bb.0:
	.save	{r7, lr}
	push	{r7, lr}
	.cfi_def_cfa_offset 8
	.cfi_offset lr, -4
	.cfi_offset r7, -8
	.pad	#16
	sub	sp, #16
	.cfi_def_cfa_offset 24
                                        @ kill: def $r3 killed $r2
                                        @ kill: def $r3 killed $r1
	str	r2, [sp, #12]
	str	r1, [sp, #8]
	str	r0, [sp, #4]
.Ltmp317:
	.loc	9 105 21 prologue_end           @ ../fibre-cpp/include\fibre/callback.hpp:105:21
	ldr	r1, [sp, #4]
	ldr	r2, [sp, #8]
	ldr	r3, [sp, #12]
	add.w	r0, sp, #3
	bl	_ZZN5fibre14MemberCallbackIMNS_15PacketUnwrapperEFvNS_10ReadResultEEXadL_ZNS1_8completeES2_EES1_vNSt3__25tupleIJS2_EEEE4withEPS1_ENKUlPvS2_E_clESA_S2_
	.loc	9 105 21 epilogue_begin is_stmt 0 @ ../fibre-cpp/include\fibre/callback.hpp:105:21
	add	sp, #16
	pop	{r7, pc}
.Ltmp318:
.Lfunc_end69:
	.size	_ZZN5fibre14MemberCallbackIMNS_15PacketUnwrapperEFvNS_10ReadResultEEXadL_ZNS1_8completeES2_EES1_vNSt3__25tupleIJS2_EEEE4withEPS1_ENUlPvS2_E_8__invokeESA_S2_, .Lfunc_end69-_ZZN5fibre14MemberCallbackIMNS_15PacketUnwrapperEFvNS_10ReadResultEEXadL_ZNS1_8completeES2_EES1_vNSt3__25tupleIJS2_EEEE4withEPS1_ENUlPvS2_E_8__invokeESA_S2_
	.cfi_endproc
	.cantunwind
	.fnend
                                        @ -- End function
	.section	.text._ZZN5fibre14MemberCallbackIMNS_15PacketUnwrapperEFvNS_10ReadResultEEXadL_ZNS1_8completeES2_EES1_vNSt3__25tupleIJS2_EEEE4withEPS1_ENKUlPvS2_E_clESA_S2_,"axG",%progbits,_ZZN5fibre14MemberCallbackIMNS_15PacketUnwrapperEFvNS_10ReadResultEEXadL_ZNS1_8completeES2_EES1_vNSt3__25tupleIJS2_EEEE4withEPS1_ENKUlPvS2_E_clESA_S2_,comdat
	.hidden	_ZZN5fibre14MemberCallbackIMNS_15PacketUnwrapperEFvNS_10ReadResultEEXadL_ZNS1_8completeES2_EES1_vNSt3__25tupleIJS2_EEEE4withEPS1_ENKUlPvS2_E_clESA_S2_ @ -- Begin function _ZZN5fibre14MemberCallbackIMNS_15PacketUnwrapperEFvNS_10ReadResultEEXadL_ZNS1_8completeES2_EES1_vNSt3__25tupleIJS2_EEEE4withEPS1_ENKUlPvS2_E_clESA_S2_
	.weak	_ZZN5fibre14MemberCallbackIMNS_15PacketUnwrapperEFvNS_10ReadResultEEXadL_ZNS1_8completeES2_EES1_vNSt3__25tupleIJS2_EEEE4withEPS1_ENKUlPvS2_E_clESA_S2_
	.p2align	2
	.type	_ZZN5fibre14MemberCallbackIMNS_15PacketUnwrapperEFvNS_10ReadResultEEXadL_ZNS1_8completeES2_EES1_vNSt3__25tupleIJS2_EEEE4withEPS1_ENKUlPvS2_E_clESA_S2_,%function
	.code	16                              @ @_ZZN5fibre14MemberCallbackIMNS_15PacketUnwrapperEFvNS_10ReadResultEEXadL_ZNS1_8completeES2_EES1_vNSt3__25tupleIJS2_EEEE4withEPS1_ENKUlPvS2_E_clESA_S2_
	.thumb_func
_ZZN5fibre14MemberCallbackIMNS_15PacketUnwrapperEFvNS_10ReadResultEEXadL_ZNS1_8completeES2_EES1_vNSt3__25tupleIJS2_EEEE4withEPS1_ENKUlPvS2_E_clESA_S2_:
.Lfunc_begin70:
	.loc	9 105 0 is_stmt 1               @ ../fibre-cpp/include\fibre/callback.hpp:105:0
	.fnstart
	.cfi_startproc
@ %bb.0:
	.save	{r7, lr}
	push	{r7, lr}
	.cfi_def_cfa_offset 8
	.cfi_offset lr, -4
	.cfi_offset r7, -8
	.pad	#32
	sub	sp, #32
	.cfi_def_cfa_offset 40
                                        @ kill: def $r12 killed $r3
                                        @ kill: def $r12 killed $r2
	str	r3, [sp, #28]
	str	r2, [sp, #24]
	str	r0, [sp, #20]
	str	r1, [sp, #16]
.Ltmp319:
	.loc	9 106 29 prologue_end           @ ../fibre-cpp/include\fibre/callback.hpp:106:29
	ldr	r0, [sp, #16]
	str	r0, [sp, #4]                    @ 4-byte Spill
	movs	r0, #1
	.loc	9 106 20 is_stmt 0              @ ../fibre-cpp/include\fibre/callback.hpp:106:20
	cbnz	r0, .LBB70_2
	b	.LBB70_1
.LBB70_1:
	ldr	r0, [sp, #4]                    @ 4-byte Reload
	ldr	r0, [r0]
	movw	r1, :lower16:_ZN5fibre15PacketUnwrapper8completeENS_10ReadResultE
	movt	r1, :upper16:_ZN5fibre15PacketUnwrapper8completeENS_10ReadResultE
	ldr	r0, [r0, r1]
	str	r0, [sp]                        @ 4-byte Spill
	b	.LBB70_3
.LBB70_2:
	.loc	9 0 20                          @ ../fibre-cpp/include\fibre/callback.hpp:0:20
	movw	r0, :lower16:_ZN5fibre15PacketUnwrapper8completeENS_10ReadResultE
	movt	r0, :upper16:_ZN5fibre15PacketUnwrapper8completeENS_10ReadResultE
	.loc	9 106 20                        @ ../fibre-cpp/include\fibre/callback.hpp:106:20
	str	r0, [sp]                        @ 4-byte Spill
	b	.LBB70_3
.LBB70_3:
	ldr	r0, [sp, #4]                    @ 4-byte Reload
	ldr	r3, [sp]                        @ 4-byte Reload
	.loc	9 106 42                        @ ../fibre-cpp/include\fibre/callback.hpp:106:42
	ldr	r1, [sp, #24]
	ldr	r2, [sp, #28]
	str	r2, [sp, #12]
	str	r1, [sp, #8]
	.loc	9 106 20                        @ ../fibre-cpp/include\fibre/callback.hpp:106:20
	ldr	r1, [sp, #8]
	ldr	r2, [sp, #12]
	blx	r3
	.loc	9 106 13 epilogue_begin         @ ../fibre-cpp/include\fibre/callback.hpp:106:13
	add	sp, #32
	pop	{r7, pc}
.Ltmp320:
.Lfunc_end70:
	.size	_ZZN5fibre14MemberCallbackIMNS_15PacketUnwrapperEFvNS_10ReadResultEEXadL_ZNS1_8completeES2_EES1_vNSt3__25tupleIJS2_EEEE4withEPS1_ENKUlPvS2_E_clESA_S2_, .Lfunc_end70-_ZZN5fibre14MemberCallbackIMNS_15PacketUnwrapperEFvNS_10ReadResultEEXadL_ZNS1_8completeES2_EES1_vNSt3__25tupleIJS2_EEEE4withEPS1_ENKUlPvS2_E_clESA_S2_
	.cfi_endproc
	.cantunwind
	.fnend
                                        @ -- End function
	.section	.text._ZN5fibreL11soft_assertEb,"ax",%progbits
	.p2align	2                               @ -- Begin function _ZN5fibreL11soft_assertEb
	.type	_ZN5fibreL11soft_assertEb,%function
	.code	16                              @ @_ZN5fibreL11soft_assertEb
	.thumb_func
_ZN5fibreL11soft_assertEb:
.Lfunc_begin71:
	.loc	7 9 0 is_stmt 1                 @ ../fibre-cpp/include\fibre/bufptr.hpp:9:0
	.fnstart
	.cfi_startproc
@ %bb.0:
	.pad	#4
	sub	sp, #4
	.cfi_def_cfa_offset 4
                                        @ kill: def $r1 killed $r0
	strb.w	r0, [sp, #3]
.Ltmp321:
	.loc	7 9 45 prologue_end             @ ../fibre-cpp/include\fibre/bufptr.hpp:9:45
	ldrb.w	r0, [sp, #3]
	and	r0, r0, #1
	.loc	7 9 45 epilogue_begin is_stmt 0 @ ../fibre-cpp/include\fibre/bufptr.hpp:9:45
	add	sp, #4
	bx	lr
.Ltmp322:
.Lfunc_end71:
	.size	_ZN5fibreL11soft_assertEb, .Lfunc_end71-_ZN5fibreL11soft_assertEb
	.cfi_endproc
	.cantunwind
	.fnend
                                        @ -- End function
	.section	.text._ZN16SimpleSerializerIjLb0EvE4readIPKhEENSt3__28optionalIjEEPT_S7_,"axG",%progbits,_ZN16SimpleSerializerIjLb0EvE4readIPKhEENSt3__28optionalIjEEPT_S7_,comdat
	.hidden	_ZN16SimpleSerializerIjLb0EvE4readIPKhEENSt3__28optionalIjEEPT_S7_ @ -- Begin function _ZN16SimpleSerializerIjLb0EvE4readIPKhEENSt3__28optionalIjEEPT_S7_
	.weak	_ZN16SimpleSerializerIjLb0EvE4readIPKhEENSt3__28optionalIjEEPT_S7_
	.p2align	2
	.type	_ZN16SimpleSerializerIjLb0EvE4readIPKhEENSt3__28optionalIjEEPT_S7_,%function
	.code	16                              @ @_ZN16SimpleSerializerIjLb0EvE4readIPKhEENSt3__28optionalIjEEPT_S7_
	.thumb_func
_ZN16SimpleSerializerIjLb0EvE4readIPKhEENSt3__28optionalIjEEPT_S7_:
.Lfunc_begin72:
	.loc	14 26 0 is_stmt 1               @ ../fibre-cpp/include\fibre/simple_serdes.hpp:26:0
	.fnstart
	.cfi_startproc
@ %bb.0:
	.save	{r7, lr}
	push	{r7, lr}
	.cfi_def_cfa_offset 8
	.cfi_offset lr, -4
	.cfi_offset r7, -8
	.pad	#24
	sub	sp, #24
	.cfi_def_cfa_offset 32
	str	r0, [sp]                        @ 4-byte Spill
	str	r1, [sp, #20]
	str	r2, [sp, #16]
	movs	r0, #0
.Ltmp323:
	.loc	14 27 11 prologue_end           @ ../fibre-cpp/include\fibre/simple_serdes.hpp:27:11
	str	r0, [sp, #12]
.Ltmp324:
	.loc	14 36 25                        @ ../fibre-cpp/include\fibre/simple_serdes.hpp:36:25
	str	r0, [sp, #8]
	.loc	14 36 18 is_stmt 0              @ ../fibre-cpp/include\fibre/simple_serdes.hpp:36:18
	b	.LBB72_1
.LBB72_1:                               @ =>This Inner Loop Header: Depth=1
.Ltmp325:
	.loc	14 36 32                        @ ../fibre-cpp/include\fibre/simple_serdes.hpp:36:32
	ldr	r0, [sp, #8]
.Ltmp326:
	.loc	14 36 13                        @ ../fibre-cpp/include\fibre/simple_serdes.hpp:36:13
	cmp	r0, #3
	bhi	.LBB72_7
	b	.LBB72_2
.LBB72_2:                               @   in Loop: Header=BB72_1 Depth=1
.Ltmp327:
	.loc	14 37 21 is_stmt 1              @ ../fibre-cpp/include\fibre/simple_serdes.hpp:37:21
	ldr	r0, [sp, #16]
	.loc	14 37 25 is_stmt 0              @ ../fibre-cpp/include\fibre/simple_serdes.hpp:37:25
	cbz	r0, .LBB72_5
	b	.LBB72_3
.LBB72_3:                               @   in Loop: Header=BB72_1 Depth=1
	.loc	14 37 31                        @ ../fibre-cpp/include\fibre/simple_serdes.hpp:37:31
	ldr	r0, [sp, #20]
	.loc	14 37 30                        @ ../fibre-cpp/include\fibre/simple_serdes.hpp:37:30
	ldr	r0, [r0]
	.loc	14 37 39                        @ ../fibre-cpp/include\fibre/simple_serdes.hpp:37:39
	ldr	r1, [sp, #16]
.Ltmp328:
	.loc	14 37 21                        @ ../fibre-cpp/include\fibre/simple_serdes.hpp:37:21
	cmp	r0, r1
	blo	.LBB72_5
	b	.LBB72_4
.LBB72_4:
.Ltmp329:
	.loc	14 38 28 is_stmt 1              @ ../fibre-cpp/include\fibre/simple_serdes.hpp:38:28
	ldr	r0, [sp]                        @ 4-byte Reload
	bl	_ZNSt3__28optionalIjEC2B7v180000ENS_9nullopt_tE
	.loc	14 38 21 is_stmt 0              @ ../fibre-cpp/include\fibre/simple_serdes.hpp:38:21
	b	.LBB72_8
.Ltmp330:
.LBB72_5:                               @   in Loop: Header=BB72_1 Depth=1
	.loc	14 39 34 is_stmt 1              @ ../fibre-cpp/include\fibre/simple_serdes.hpp:39:34
	ldr	r0, [sp, #20]
	.loc	14 39 33 is_stmt 0              @ ../fibre-cpp/include\fibre/simple_serdes.hpp:39:33
	ldr	r0, [r0]
	.loc	14 39 32                        @ ../fibre-cpp/include\fibre/simple_serdes.hpp:39:32
	ldrb	r0, [r0]
	.loc	14 39 25                        @ ../fibre-cpp/include\fibre/simple_serdes.hpp:39:25
	strb.w	r0, [sp, #6]
	.loc	14 40 42 is_stmt 1              @ ../fibre-cpp/include\fibre/simple_serdes.hpp:40:42
	ldrb.w	r0, [sp, #6]
	.loc	14 40 52 is_stmt 0              @ ../fibre-cpp/include\fibre/simple_serdes.hpp:40:52
	ldr	r1, [sp, #8]
	.loc	14 40 54                        @ ../fibre-cpp/include\fibre/simple_serdes.hpp:40:54
	lsls	r1, r1, #3
	.loc	14 40 48                        @ ../fibre-cpp/include\fibre/simple_serdes.hpp:40:48
	lsl.w	r1, r0, r1
	.loc	14 40 24                        @ ../fibre-cpp/include\fibre/simple_serdes.hpp:40:24
	ldr	r0, [sp, #12]
	orrs	r0, r1
	str	r0, [sp, #12]
	.loc	14 41 13 is_stmt 1              @ ../fibre-cpp/include\fibre/simple_serdes.hpp:41:13
	b	.LBB72_6
.Ltmp331:
.LBB72_6:                               @   in Loop: Header=BB72_1 Depth=1
	.loc	14 36 50                        @ ../fibre-cpp/include\fibre/simple_serdes.hpp:36:50
	ldr	r0, [sp, #8]
	adds	r0, #1
	str	r0, [sp, #8]
	.loc	14 36 56 is_stmt 0              @ ../fibre-cpp/include\fibre/simple_serdes.hpp:36:56
	ldr	r1, [sp, #20]
	.loc	14 36 62                        @ ../fibre-cpp/include\fibre/simple_serdes.hpp:36:62
	ldr	r0, [r1]
	adds	r0, #1
	str	r0, [r1]
	.loc	14 36 13                        @ ../fibre-cpp/include\fibre/simple_serdes.hpp:36:13
	b	.LBB72_1
.Ltmp332:
.LBB72_7:
	.loc	14 43 16 is_stmt 1              @ ../fibre-cpp/include\fibre/simple_serdes.hpp:43:16
	ldr	r0, [sp]                        @ 4-byte Reload
	add	r1, sp, #12
	bl	_ZNSt3__28optionalIjEC2B7v180000IjLi0EEEOT_
	.loc	14 43 9 is_stmt 0               @ ../fibre-cpp/include\fibre/simple_serdes.hpp:43:9
	b	.LBB72_8
.LBB72_8:
	.loc	14 44 5 epilogue_begin is_stmt 1 @ ../fibre-cpp/include\fibre/simple_serdes.hpp:44:5
	add	sp, #24
	pop	{r7, pc}
.Ltmp333:
.Lfunc_end72:
	.size	_ZN16SimpleSerializerIjLb0EvE4readIPKhEENSt3__28optionalIjEEPT_S7_, .Lfunc_end72-_ZN16SimpleSerializerIjLb0EvE4readIPKhEENSt3__28optionalIjEEPT_S7_
	.cfi_endproc
	.cantunwind
	.fnend
                                        @ -- End function
	.section	.text._ZNSt3__28optionalIjEC2B7v180000ENS_9nullopt_tE,"axG",%progbits,_ZNSt3__28optionalIjEC2B7v180000ENS_9nullopt_tE,comdat
	.hidden	_ZNSt3__28optionalIjEC2B7v180000ENS_9nullopt_tE @ -- Begin function _ZNSt3__28optionalIjEC2B7v180000ENS_9nullopt_tE
	.weak	_ZNSt3__28optionalIjEC2B7v180000ENS_9nullopt_tE
	.p2align	2
	.type	_ZNSt3__28optionalIjEC2B7v180000ENS_9nullopt_tE,%function
	.code	16                              @ @_ZNSt3__28optionalIjEC2B7v180000ENS_9nullopt_tE
	.thumb_func
_ZNSt3__28optionalIjEC2B7v180000ENS_9nullopt_tE:
.Lfunc_begin73:
	.loc	4 803 0                         @ D:\Embed\MDK\MDK\ARM\ARMCompilerV621\Bin\..\include\libcxx\optional:803:0
	.fnstart
	.cfi_startproc
@ %bb.0:
	.save	{r7, lr}
	push	{r7, lr}
	.cfi_def_cfa_offset 8
	.cfi_offset lr, -4
	.cfi_offset r7, -8
	.pad	#16
	sub	sp, #16
	.cfi_def_cfa_offset 24
	str	r0, [sp, #8]
	ldr	r0, [sp, #8]
.Ltmp334:
	.loc	4 803 41 prologue_end           @ D:\Embed\MDK\MDK\ARM\ARMCompilerV621\Bin\..\include\libcxx\optional:803:41
	str	r0, [sp, #4]                    @ 4-byte Spill
	bl	_ZNSt3__227__optional_move_assign_baseIjLb1EEC2Ev
	ldr	r0, [sp, #4]                    @ 4-byte Reload
	.loc	4 803 71 epilogue_begin is_stmt 0 @ D:\Embed\MDK\MDK\ARM\ARMCompilerV621\Bin\..\include\libcxx\optional:803:71
	add	sp, #16
	pop	{r7, pc}
.Ltmp335:
.Lfunc_end73:
	.size	_ZNSt3__28optionalIjEC2B7v180000ENS_9nullopt_tE, .Lfunc_end73-_ZNSt3__28optionalIjEC2B7v180000ENS_9nullopt_tE
	.cfi_endproc
	.cantunwind
	.fnend
                                        @ -- End function
	.section	.text._ZNSt3__28optionalIjEC2B7v180000IjLi0EEEOT_,"axG",%progbits,_ZNSt3__28optionalIjEC2B7v180000IjLi0EEEOT_,comdat
	.hidden	_ZNSt3__28optionalIjEC2B7v180000IjLi0EEEOT_ @ -- Begin function _ZNSt3__28optionalIjEC2B7v180000IjLi0EEEOT_
	.weak	_ZNSt3__28optionalIjEC2B7v180000IjLi0EEEOT_
	.p2align	2
	.type	_ZNSt3__28optionalIjEC2B7v180000IjLi0EEEOT_,%function
	.code	16                              @ @_ZNSt3__28optionalIjEC2B7v180000IjLi0EEEOT_
	.thumb_func
_ZNSt3__28optionalIjEC2B7v180000IjLi0EEEOT_:
.Lfunc_begin74:
	.loc	4 828 0 is_stmt 1               @ D:\Embed\MDK\MDK\ARM\ARMCompilerV621\Bin\..\include\libcxx\optional:828:0
	.fnstart
	.cfi_startproc
@ %bb.0:
	.save	{r7, lr}
	push	{r7, lr}
	.cfi_def_cfa_offset 8
	.cfi_offset lr, -4
	.cfi_offset r7, -8
	.pad	#16
	sub	sp, #16
	.cfi_def_cfa_offset 24
	str	r0, [sp, #12]
	str	r1, [sp, #8]
	ldr	r0, [sp, #12]
.Ltmp336:
	.loc	4 828 48 prologue_end           @ D:\Embed\MDK\MDK\ARM\ARMCompilerV621\Bin\..\include\libcxx\optional:828:48
	str	r0, [sp]                        @ 4-byte Spill
	ldr	r1, [sp, #8]
	.loc	4 828 11 is_stmt 0              @ D:\Embed\MDK\MDK\ARM\ARMCompilerV621\Bin\..\include\libcxx\optional:828:11
	bl	_ZNSt3__227__optional_move_assign_baseIjLb1EECI2NS_24__optional_destruct_baseIjLb1EEEIJjEEENS_10in_place_tEDpOT_
	ldr	r0, [sp]                        @ 4-byte Reload
	.loc	4 828 55 epilogue_begin         @ D:\Embed\MDK\MDK\ARM\ARMCompilerV621\Bin\..\include\libcxx\optional:828:55
	add	sp, #16
	pop	{r7, pc}
.Ltmp337:
.Lfunc_end74:
	.size	_ZNSt3__28optionalIjEC2B7v180000IjLi0EEEOT_, .Lfunc_end74-_ZNSt3__28optionalIjEC2B7v180000IjLi0EEEOT_
	.cfi_endproc
	.cantunwind
	.fnend
                                        @ -- End function
	.section	.text._ZNSt3__227__optional_move_assign_baseIjLb1EEC2Ev,"axG",%progbits,_ZNSt3__227__optional_move_assign_baseIjLb1EEC2Ev,comdat
	.hidden	_ZNSt3__227__optional_move_assign_baseIjLb1EEC2Ev @ -- Begin function _ZNSt3__227__optional_move_assign_baseIjLb1EEC2Ev
	.weak	_ZNSt3__227__optional_move_assign_baseIjLb1EEC2Ev
	.p2align	2
	.type	_ZNSt3__227__optional_move_assign_baseIjLb1EEC2Ev,%function
	.code	16                              @ @_ZNSt3__227__optional_move_assign_baseIjLb1EEC2Ev
	.thumb_func
_ZNSt3__227__optional_move_assign_baseIjLb1EEC2Ev:
.Lfunc_begin75:
	.loc	4 638 0 is_stmt 1               @ D:\Embed\MDK\MDK\ARM\ARMCompilerV621\Bin\..\include\libcxx\optional:638:0
	.fnstart
	.cfi_startproc
@ %bb.0:
	.save	{r7, lr}
	push	{r7, lr}
	.cfi_def_cfa_offset 8
	.cfi_offset lr, -4
	.cfi_offset r7, -8
	.pad	#8
	sub	sp, #8
	.cfi_def_cfa_offset 16
	str	r0, [sp, #4]
	ldr	r0, [sp, #4]
.Ltmp338:
	.loc	4 638 8 prologue_end            @ D:\Embed\MDK\MDK\ARM\ARMCompilerV621\Bin\..\include\libcxx\optional:638:8
	str	r0, [sp]                        @ 4-byte Spill
	bl	_ZNSt3__227__optional_copy_assign_baseIjLb1EEC2Ev
	ldr	r0, [sp]                        @ 4-byte Reload
	.loc	4 638 8 epilogue_begin is_stmt 0 @ D:\Embed\MDK\MDK\ARM\ARMCompilerV621\Bin\..\include\libcxx\optional:638:8
	add	sp, #8
	pop	{r7, pc}
.Ltmp339:
.Lfunc_end75:
	.size	_ZNSt3__227__optional_move_assign_baseIjLb1EEC2Ev, .Lfunc_end75-_ZNSt3__227__optional_move_assign_baseIjLb1EEC2Ev
	.cfi_endproc
	.cantunwind
	.fnend
                                        @ -- End function
	.section	.text._ZNSt3__227__optional_copy_assign_baseIjLb1EEC2Ev,"axG",%progbits,_ZNSt3__227__optional_copy_assign_baseIjLb1EEC2Ev,comdat
	.hidden	_ZNSt3__227__optional_copy_assign_baseIjLb1EEC2Ev @ -- Begin function _ZNSt3__227__optional_copy_assign_baseIjLb1EEC2Ev
	.weak	_ZNSt3__227__optional_copy_assign_baseIjLb1EEC2Ev
	.p2align	2
	.type	_ZNSt3__227__optional_copy_assign_baseIjLb1EEC2Ev,%function
	.code	16                              @ @_ZNSt3__227__optional_copy_assign_baseIjLb1EEC2Ev
	.thumb_func
_ZNSt3__227__optional_copy_assign_baseIjLb1EEC2Ev:
.Lfunc_begin76:
	.loc	4 606 0 is_stmt 1               @ D:\Embed\MDK\MDK\ARM\ARMCompilerV621\Bin\..\include\libcxx\optional:606:0
	.fnstart
	.cfi_startproc
@ %bb.0:
	.save	{r7, lr}
	push	{r7, lr}
	.cfi_def_cfa_offset 8
	.cfi_offset lr, -4
	.cfi_offset r7, -8
	.pad	#8
	sub	sp, #8
	.cfi_def_cfa_offset 16
	str	r0, [sp, #4]
	ldr	r0, [sp, #4]
.Ltmp340:
	.loc	4 606 8 prologue_end            @ D:\Embed\MDK\MDK\ARM\ARMCompilerV621\Bin\..\include\libcxx\optional:606:8
	str	r0, [sp]                        @ 4-byte Spill
	bl	_ZNSt3__220__optional_move_baseIjLb1EEC2Ev
	ldr	r0, [sp]                        @ 4-byte Reload
	.loc	4 606 8 epilogue_begin is_stmt 0 @ D:\Embed\MDK\MDK\ARM\ARMCompilerV621\Bin\..\include\libcxx\optional:606:8
	add	sp, #8
	pop	{r7, pc}
.Ltmp341:
.Lfunc_end76:
	.size	_ZNSt3__227__optional_copy_assign_baseIjLb1EEC2Ev, .Lfunc_end76-_ZNSt3__227__optional_copy_assign_baseIjLb1EEC2Ev
	.cfi_endproc
	.cantunwind
	.fnend
                                        @ -- End function
	.section	.text._ZNSt3__220__optional_move_baseIjLb1EEC2Ev,"axG",%progbits,_ZNSt3__220__optional_move_baseIjLb1EEC2Ev,comdat
	.hidden	_ZNSt3__220__optional_move_baseIjLb1EEC2Ev @ -- Begin function _ZNSt3__220__optional_move_baseIjLb1EEC2Ev
	.weak	_ZNSt3__220__optional_move_baseIjLb1EEC2Ev
	.p2align	2
	.type	_ZNSt3__220__optional_move_baseIjLb1EEC2Ev,%function
	.code	16                              @ @_ZNSt3__220__optional_move_baseIjLb1EEC2Ev
	.thumb_func
_ZNSt3__220__optional_move_baseIjLb1EEC2Ev:
.Lfunc_begin77:
	.loc	4 573 0 is_stmt 1               @ D:\Embed\MDK\MDK\ARM\ARMCompilerV621\Bin\..\include\libcxx\optional:573:0
	.fnstart
	.cfi_startproc
@ %bb.0:
	.save	{r7, lr}
	push	{r7, lr}
	.cfi_def_cfa_offset 8
	.cfi_offset lr, -4
	.cfi_offset r7, -8
	.pad	#8
	sub	sp, #8
	.cfi_def_cfa_offset 16
	str	r0, [sp, #4]
	ldr	r0, [sp, #4]
.Ltmp342:
	.loc	4 573 8 prologue_end            @ D:\Embed\MDK\MDK\ARM\ARMCompilerV621\Bin\..\include\libcxx\optional:573:8
	str	r0, [sp]                        @ 4-byte Spill
	bl	_ZNSt3__220__optional_copy_baseIjLb1EEC2Ev
	ldr	r0, [sp]                        @ 4-byte Reload
	.loc	4 573 8 epilogue_begin is_stmt 0 @ D:\Embed\MDK\MDK\ARM\ARMCompilerV621\Bin\..\include\libcxx\optional:573:8
	add	sp, #8
	pop	{r7, pc}
.Ltmp343:
.Lfunc_end77:
	.size	_ZNSt3__220__optional_move_baseIjLb1EEC2Ev, .Lfunc_end77-_ZNSt3__220__optional_move_baseIjLb1EEC2Ev
	.cfi_endproc
	.cantunwind
	.fnend
                                        @ -- End function
	.section	.text._ZNSt3__220__optional_copy_baseIjLb1EEC2Ev,"axG",%progbits,_ZNSt3__220__optional_copy_baseIjLb1EEC2Ev,comdat
	.hidden	_ZNSt3__220__optional_copy_baseIjLb1EEC2Ev @ -- Begin function _ZNSt3__220__optional_copy_baseIjLb1EEC2Ev
	.weak	_ZNSt3__220__optional_copy_baseIjLb1EEC2Ev
	.p2align	2
	.type	_ZNSt3__220__optional_copy_baseIjLb1EEC2Ev,%function
	.code	16                              @ @_ZNSt3__220__optional_copy_baseIjLb1EEC2Ev
	.thumb_func
_ZNSt3__220__optional_copy_baseIjLb1EEC2Ev:
.Lfunc_begin78:
	.loc	4 545 0 is_stmt 1               @ D:\Embed\MDK\MDK\ARM\ARMCompilerV621\Bin\..\include\libcxx\optional:545:0
	.fnstart
	.cfi_startproc
@ %bb.0:
	.save	{r7, lr}
	push	{r7, lr}
	.cfi_def_cfa_offset 8
	.cfi_offset lr, -4
	.cfi_offset r7, -8
	.pad	#8
	sub	sp, #8
	.cfi_def_cfa_offset 16
	str	r0, [sp, #4]
	ldr	r0, [sp, #4]
.Ltmp344:
	.loc	4 545 8 prologue_end            @ D:\Embed\MDK\MDK\ARM\ARMCompilerV621\Bin\..\include\libcxx\optional:545:8
	str	r0, [sp]                        @ 4-byte Spill
	bl	_ZNSt3__223__optional_storage_baseIjLb0EEC2Ev
	ldr	r0, [sp]                        @ 4-byte Reload
	.loc	4 545 8 epilogue_begin is_stmt 0 @ D:\Embed\MDK\MDK\ARM\ARMCompilerV621\Bin\..\include\libcxx\optional:545:8
	add	sp, #8
	pop	{r7, pc}
.Ltmp345:
.Lfunc_end78:
	.size	_ZNSt3__220__optional_copy_baseIjLb1EEC2Ev, .Lfunc_end78-_ZNSt3__220__optional_copy_baseIjLb1EEC2Ev
	.cfi_endproc
	.cantunwind
	.fnend
                                        @ -- End function
	.section	.text._ZNSt3__223__optional_storage_baseIjLb0EEC2Ev,"axG",%progbits,_ZNSt3__223__optional_storage_baseIjLb0EEC2Ev,comdat
	.hidden	_ZNSt3__223__optional_storage_baseIjLb0EEC2Ev @ -- Begin function _ZNSt3__223__optional_storage_baseIjLb0EEC2Ev
	.weak	_ZNSt3__223__optional_storage_baseIjLb0EEC2Ev
	.p2align	2
	.type	_ZNSt3__223__optional_storage_baseIjLb0EEC2Ev,%function
	.code	16                              @ @_ZNSt3__223__optional_storage_baseIjLb0EEC2Ev
	.thumb_func
_ZNSt3__223__optional_storage_baseIjLb0EEC2Ev:
.Lfunc_begin79:
	.loc	4 378 0 is_stmt 1               @ D:\Embed\MDK\MDK\ARM\ARMCompilerV621\Bin\..\include\libcxx\optional:378:0
	.fnstart
	.cfi_startproc
@ %bb.0:
	.save	{r7, lr}
	push	{r7, lr}
	.cfi_def_cfa_offset 8
	.cfi_offset lr, -4
	.cfi_offset r7, -8
	.pad	#8
	sub	sp, #8
	.cfi_def_cfa_offset 16
	str	r0, [sp, #4]
	ldr	r0, [sp, #4]
.Ltmp346:
	.loc	4 378 8 prologue_end            @ D:\Embed\MDK\MDK\ARM\ARMCompilerV621\Bin\..\include\libcxx\optional:378:8
	str	r0, [sp]                        @ 4-byte Spill
	bl	_ZNSt3__224__optional_destruct_baseIjLb1EEC2B7v180000Ev
	ldr	r0, [sp]                        @ 4-byte Reload
	.loc	4 378 8 epilogue_begin is_stmt 0 @ D:\Embed\MDK\MDK\ARM\ARMCompilerV621\Bin\..\include\libcxx\optional:378:8
	add	sp, #8
	pop	{r7, pc}
.Ltmp347:
.Lfunc_end79:
	.size	_ZNSt3__223__optional_storage_baseIjLb0EEC2Ev, .Lfunc_end79-_ZNSt3__223__optional_storage_baseIjLb0EEC2Ev
	.cfi_endproc
	.cantunwind
	.fnend
                                        @ -- End function
	.section	.text._ZNSt3__224__optional_destruct_baseIjLb1EEC2B7v180000Ev,"axG",%progbits,_ZNSt3__224__optional_destruct_baseIjLb1EEC2B7v180000Ev,comdat
	.hidden	_ZNSt3__224__optional_destruct_baseIjLb1EEC2B7v180000Ev @ -- Begin function _ZNSt3__224__optional_destruct_baseIjLb1EEC2B7v180000Ev
	.weak	_ZNSt3__224__optional_destruct_baseIjLb1EEC2B7v180000Ev
	.p2align	2
	.type	_ZNSt3__224__optional_destruct_baseIjLb1EEC2B7v180000Ev,%function
	.code	16                              @ @_ZNSt3__224__optional_destruct_baseIjLb1EEC2B7v180000Ev
	.thumb_func
_ZNSt3__224__optional_destruct_baseIjLb1EEC2B7v180000Ev:
.Lfunc_begin80:
	.loc	4 352 0 is_stmt 1               @ D:\Embed\MDK\MDK\ARM\ARMCompilerV621\Bin\..\include\libcxx\optional:352:0
	.fnstart
	.cfi_startproc
@ %bb.0:
	.pad	#4
	sub	sp, #4
	.cfi_def_cfa_offset 4
	str	r0, [sp]
	ldr	r0, [sp]
	movs	r1, #0
.Ltmp348:
	.loc	4 351 12 prologue_end           @ D:\Embed\MDK\MDK\ARM\ARMCompilerV621\Bin\..\include\libcxx\optional:351:12
	strb	r1, [r0]
	.loc	4 352 12                        @ D:\Embed\MDK\MDK\ARM\ARMCompilerV621\Bin\..\include\libcxx\optional:352:12
	strb	r1, [r0, #4]
	.loc	4 352 31 epilogue_begin is_stmt 0 @ D:\Embed\MDK\MDK\ARM\ARMCompilerV621\Bin\..\include\libcxx\optional:352:31
	add	sp, #4
	bx	lr
.Ltmp349:
.Lfunc_end80:
	.size	_ZNSt3__224__optional_destruct_baseIjLb1EEC2B7v180000Ev, .Lfunc_end80-_ZNSt3__224__optional_destruct_baseIjLb1EEC2B7v180000Ev
	.cfi_endproc
	.cantunwind
	.fnend
                                        @ -- End function
	.section	.text._ZNSt3__227__optional_move_assign_baseIjLb1EECI2NS_24__optional_destruct_baseIjLb1EEEIJjEEENS_10in_place_tEDpOT_,"axG",%progbits,_ZNSt3__227__optional_move_assign_baseIjLb1EECI2NS_24__optional_destruct_baseIjLb1EEEIJjEEENS_10in_place_tEDpOT_,comdat
	.hidden	_ZNSt3__227__optional_move_assign_baseIjLb1EECI2NS_24__optional_destruct_baseIjLb1EEEIJjEEENS_10in_place_tEDpOT_ @ -- Begin function _ZNSt3__227__optional_move_assign_baseIjLb1EECI2NS_24__optional_destruct_baseIjLb1EEEIJjEEENS_10in_place_tEDpOT_
	.weak	_ZNSt3__227__optional_move_assign_baseIjLb1EECI2NS_24__optional_destruct_baseIjLb1EEEIJjEEENS_10in_place_tEDpOT_
	.p2align	2
	.type	_ZNSt3__227__optional_move_assign_baseIjLb1EECI2NS_24__optional_destruct_baseIjLb1EEEIJjEEENS_10in_place_tEDpOT_,%function
	.code	16                              @ @_ZNSt3__227__optional_move_assign_baseIjLb1EECI2NS_24__optional_destruct_baseIjLb1EEEIJjEEENS_10in_place_tEDpOT_
	.thumb_func
_ZNSt3__227__optional_move_assign_baseIjLb1EECI2NS_24__optional_destruct_baseIjLb1EEEIJjEEENS_10in_place_tEDpOT_:
.Lfunc_begin81:
	.loc	4 640 0 is_stmt 1               @ D:\Embed\MDK\MDK\ARM\ARMCompilerV621\Bin\..\include\libcxx\optional:640:0
	.fnstart
	.cfi_startproc
@ %bb.0:
	.save	{r7, lr}
	push	{r7, lr}
	.cfi_def_cfa_offset 8
	.cfi_offset lr, -4
	.cfi_offset r7, -8
	.pad	#16
	sub	sp, #16
	.cfi_def_cfa_offset 24
	str	r0, [sp, #8]
	str	r1, [sp, #4]
	ldr	r0, [sp, #8]
.Ltmp350:
	.loc	4 640 45 prologue_end           @ D:\Embed\MDK\MDK\ARM\ARMCompilerV621\Bin\..\include\libcxx\optional:640:45
	str	r0, [sp]                        @ 4-byte Spill
	ldr	r1, [sp, #4]
	bl	_ZNSt3__227__optional_copy_assign_baseIjLb1EECI2NS_24__optional_destruct_baseIjLb1EEEIJjEEENS_10in_place_tEDpOT_
	ldr	r0, [sp]                        @ 4-byte Reload
	.loc	4 640 45 epilogue_begin is_stmt 0 @ D:\Embed\MDK\MDK\ARM\ARMCompilerV621\Bin\..\include\libcxx\optional:640:45
	add	sp, #16
	pop	{r7, pc}
.Ltmp351:
.Lfunc_end81:
	.size	_ZNSt3__227__optional_move_assign_baseIjLb1EECI2NS_24__optional_destruct_baseIjLb1EEEIJjEEENS_10in_place_tEDpOT_, .Lfunc_end81-_ZNSt3__227__optional_move_assign_baseIjLb1EECI2NS_24__optional_destruct_baseIjLb1EEEIJjEEENS_10in_place_tEDpOT_
	.cfi_endproc
	.cantunwind
	.fnend
                                        @ -- End function
	.section	.text._ZNSt3__227__optional_copy_assign_baseIjLb1EECI2NS_24__optional_destruct_baseIjLb1EEEIJjEEENS_10in_place_tEDpOT_,"axG",%progbits,_ZNSt3__227__optional_copy_assign_baseIjLb1EECI2NS_24__optional_destruct_baseIjLb1EEEIJjEEENS_10in_place_tEDpOT_,comdat
	.hidden	_ZNSt3__227__optional_copy_assign_baseIjLb1EECI2NS_24__optional_destruct_baseIjLb1EEEIJjEEENS_10in_place_tEDpOT_ @ -- Begin function _ZNSt3__227__optional_copy_assign_baseIjLb1EECI2NS_24__optional_destruct_baseIjLb1EEEIJjEEENS_10in_place_tEDpOT_
	.weak	_ZNSt3__227__optional_copy_assign_baseIjLb1EECI2NS_24__optional_destruct_baseIjLb1EEEIJjEEENS_10in_place_tEDpOT_
	.p2align	2
	.type	_ZNSt3__227__optional_copy_assign_baseIjLb1EECI2NS_24__optional_destruct_baseIjLb1EEEIJjEEENS_10in_place_tEDpOT_,%function
	.code	16                              @ @_ZNSt3__227__optional_copy_assign_baseIjLb1EECI2NS_24__optional_destruct_baseIjLb1EEEIJjEEENS_10in_place_tEDpOT_
	.thumb_func
_ZNSt3__227__optional_copy_assign_baseIjLb1EECI2NS_24__optional_destruct_baseIjLb1EEEIJjEEENS_10in_place_tEDpOT_:
.Lfunc_begin82:
	.loc	4 608 0 is_stmt 1               @ D:\Embed\MDK\MDK\ARM\ARMCompilerV621\Bin\..\include\libcxx\optional:608:0
	.fnstart
	.cfi_startproc
@ %bb.0:
	.save	{r7, lr}
	push	{r7, lr}
	.cfi_def_cfa_offset 8
	.cfi_offset lr, -4
	.cfi_offset r7, -8
	.pad	#16
	sub	sp, #16
	.cfi_def_cfa_offset 24
	str	r0, [sp, #8]
	str	r1, [sp, #4]
	ldr	r0, [sp, #8]
.Ltmp352:
	.loc	4 608 38 prologue_end           @ D:\Embed\MDK\MDK\ARM\ARMCompilerV621\Bin\..\include\libcxx\optional:608:38
	str	r0, [sp]                        @ 4-byte Spill
	ldr	r1, [sp, #4]
	bl	_ZNSt3__220__optional_move_baseIjLb1EECI2NS_24__optional_destruct_baseIjLb1EEEIJjEEENS_10in_place_tEDpOT_
	ldr	r0, [sp]                        @ 4-byte Reload
	.loc	4 608 38 epilogue_begin is_stmt 0 @ D:\Embed\MDK\MDK\ARM\ARMCompilerV621\Bin\..\include\libcxx\optional:608:38
	add	sp, #16
	pop	{r7, pc}
.Ltmp353:
.Lfunc_end82:
	.size	_ZNSt3__227__optional_copy_assign_baseIjLb1EECI2NS_24__optional_destruct_baseIjLb1EEEIJjEEENS_10in_place_tEDpOT_, .Lfunc_end82-_ZNSt3__227__optional_copy_assign_baseIjLb1EECI2NS_24__optional_destruct_baseIjLb1EEEIJjEEENS_10in_place_tEDpOT_
	.cfi_endproc
	.cantunwind
	.fnend
                                        @ -- End function
	.section	.text._ZNSt3__220__optional_move_baseIjLb1EECI2NS_24__optional_destruct_baseIjLb1EEEIJjEEENS_10in_place_tEDpOT_,"axG",%progbits,_ZNSt3__220__optional_move_baseIjLb1EECI2NS_24__optional_destruct_baseIjLb1EEEIJjEEENS_10in_place_tEDpOT_,comdat
	.hidden	_ZNSt3__220__optional_move_baseIjLb1EECI2NS_24__optional_destruct_baseIjLb1EEEIJjEEENS_10in_place_tEDpOT_ @ -- Begin function _ZNSt3__220__optional_move_baseIjLb1EECI2NS_24__optional_destruct_baseIjLb1EEEIJjEEENS_10in_place_tEDpOT_
	.weak	_ZNSt3__220__optional_move_baseIjLb1EECI2NS_24__optional_destruct_baseIjLb1EEEIJjEEENS_10in_place_tEDpOT_
	.p2align	2
	.type	_ZNSt3__220__optional_move_baseIjLb1EECI2NS_24__optional_destruct_baseIjLb1EEEIJjEEENS_10in_place_tEDpOT_,%function
	.code	16                              @ @_ZNSt3__220__optional_move_baseIjLb1EECI2NS_24__optional_destruct_baseIjLb1EEEIJjEEENS_10in_place_tEDpOT_
	.thumb_func
_ZNSt3__220__optional_move_baseIjLb1EECI2NS_24__optional_destruct_baseIjLb1EEEIJjEEENS_10in_place_tEDpOT_:
.Lfunc_begin83:
	.loc	4 575 0 is_stmt 1               @ D:\Embed\MDK\MDK\ARM\ARMCompilerV621\Bin\..\include\libcxx\optional:575:0
	.fnstart
	.cfi_startproc
@ %bb.0:
	.save	{r7, lr}
	push	{r7, lr}
	.cfi_def_cfa_offset 8
	.cfi_offset lr, -4
	.cfi_offset r7, -8
	.pad	#16
	sub	sp, #16
	.cfi_def_cfa_offset 24
	str	r0, [sp, #8]
	str	r1, [sp, #4]
	ldr	r0, [sp, #8]
.Ltmp354:
	.loc	4 575 38 prologue_end           @ D:\Embed\MDK\MDK\ARM\ARMCompilerV621\Bin\..\include\libcxx\optional:575:38
	str	r0, [sp]                        @ 4-byte Spill
	ldr	r1, [sp, #4]
	bl	_ZNSt3__220__optional_copy_baseIjLb1EECI2NS_24__optional_destruct_baseIjLb1EEEIJjEEENS_10in_place_tEDpOT_
	ldr	r0, [sp]                        @ 4-byte Reload
	.loc	4 575 38 epilogue_begin is_stmt 0 @ D:\Embed\MDK\MDK\ARM\ARMCompilerV621\Bin\..\include\libcxx\optional:575:38
	add	sp, #16
	pop	{r7, pc}
.Ltmp355:
.Lfunc_end83:
	.size	_ZNSt3__220__optional_move_baseIjLb1EECI2NS_24__optional_destruct_baseIjLb1EEEIJjEEENS_10in_place_tEDpOT_, .Lfunc_end83-_ZNSt3__220__optional_move_baseIjLb1EECI2NS_24__optional_destruct_baseIjLb1EEEIJjEEENS_10in_place_tEDpOT_
	.cfi_endproc
	.cantunwind
	.fnend
                                        @ -- End function
	.section	.text._ZNSt3__220__optional_copy_baseIjLb1EECI2NS_24__optional_destruct_baseIjLb1EEEIJjEEENS_10in_place_tEDpOT_,"axG",%progbits,_ZNSt3__220__optional_copy_baseIjLb1EECI2NS_24__optional_destruct_baseIjLb1EEEIJjEEENS_10in_place_tEDpOT_,comdat
	.hidden	_ZNSt3__220__optional_copy_baseIjLb1EECI2NS_24__optional_destruct_baseIjLb1EEEIJjEEENS_10in_place_tEDpOT_ @ -- Begin function _ZNSt3__220__optional_copy_baseIjLb1EECI2NS_24__optional_destruct_baseIjLb1EEEIJjEEENS_10in_place_tEDpOT_
	.weak	_ZNSt3__220__optional_copy_baseIjLb1EECI2NS_24__optional_destruct_baseIjLb1EEEIJjEEENS_10in_place_tEDpOT_
	.p2align	2
	.type	_ZNSt3__220__optional_copy_baseIjLb1EECI2NS_24__optional_destruct_baseIjLb1EEEIJjEEENS_10in_place_tEDpOT_,%function
	.code	16                              @ @_ZNSt3__220__optional_copy_baseIjLb1EECI2NS_24__optional_destruct_baseIjLb1EEEIJjEEENS_10in_place_tEDpOT_
	.thumb_func
_ZNSt3__220__optional_copy_baseIjLb1EECI2NS_24__optional_destruct_baseIjLb1EEEIJjEEENS_10in_place_tEDpOT_:
.Lfunc_begin84:
	.loc	4 547 0 is_stmt 1               @ D:\Embed\MDK\MDK\ARM\ARMCompilerV621\Bin\..\include\libcxx\optional:547:0
	.fnstart
	.cfi_startproc
@ %bb.0:
	.save	{r7, lr}
	push	{r7, lr}
	.cfi_def_cfa_offset 8
	.cfi_offset lr, -4
	.cfi_offset r7, -8
	.pad	#16
	sub	sp, #16
	.cfi_def_cfa_offset 24
	str	r0, [sp, #8]
	str	r1, [sp, #4]
	ldr	r0, [sp, #8]
.Ltmp356:
	.loc	4 547 41 prologue_end           @ D:\Embed\MDK\MDK\ARM\ARMCompilerV621\Bin\..\include\libcxx\optional:547:41
	str	r0, [sp]                        @ 4-byte Spill
	ldr	r1, [sp, #4]
	bl	_ZNSt3__223__optional_storage_baseIjLb0EECI2NS_24__optional_destruct_baseIjLb1EEEIJjEEENS_10in_place_tEDpOT_
	ldr	r0, [sp]                        @ 4-byte Reload
	.loc	4 547 41 epilogue_begin is_stmt 0 @ D:\Embed\MDK\MDK\ARM\ARMCompilerV621\Bin\..\include\libcxx\optional:547:41
	add	sp, #16
	pop	{r7, pc}
.Ltmp357:
.Lfunc_end84:
	.size	_ZNSt3__220__optional_copy_baseIjLb1EECI2NS_24__optional_destruct_baseIjLb1EEEIJjEEENS_10in_place_tEDpOT_, .Lfunc_end84-_ZNSt3__220__optional_copy_baseIjLb1EECI2NS_24__optional_destruct_baseIjLb1EEEIJjEEENS_10in_place_tEDpOT_
	.cfi_endproc
	.cantunwind
	.fnend
                                        @ -- End function
	.section	.text._ZNSt3__223__optional_storage_baseIjLb0EECI2NS_24__optional_destruct_baseIjLb1EEEIJjEEENS_10in_place_tEDpOT_,"axG",%progbits,_ZNSt3__223__optional_storage_baseIjLb0EECI2NS_24__optional_destruct_baseIjLb1EEEIJjEEENS_10in_place_tEDpOT_,comdat
	.hidden	_ZNSt3__223__optional_storage_baseIjLb0EECI2NS_24__optional_destruct_baseIjLb1EEEIJjEEENS_10in_place_tEDpOT_ @ -- Begin function _ZNSt3__223__optional_storage_baseIjLb0EECI2NS_24__optional_destruct_baseIjLb1EEEIJjEEENS_10in_place_tEDpOT_
	.weak	_ZNSt3__223__optional_storage_baseIjLb0EECI2NS_24__optional_destruct_baseIjLb1EEEIJjEEENS_10in_place_tEDpOT_
	.p2align	2
