	.text
	.syntax unified
	.eabi_attribute	67, "2.09"	@ Tag_conformance
	.cpu	cortex-m4
	.eabi_attribute	6, 13	@ Tag_CPU_arch
	.eabi_attribute	7, 77	@ Tag_CPU_arch_profile
	.eabi_attribute	8, 0	@ Tag_ARM_ISA_use
	.eabi_attribute	9, 2	@ Tag_THUMB_ISA_use
	.fpu	fpv4-sp-d16
	.eabi_attribute	27, 1	@ Tag_ABI_HardFP_use
	.eabi_attribute	36, 1	@ Tag_FP_HP_extension
	.eabi_attribute	34, 1	@ Tag_CPU_unaligned_access
	.eabi_attribute	17, 1	@ Tag_ABI_PCS_GOT_use
	.eabi_attribute	20, 2	@ Tag_ABI_FP_denormal
	.eabi_attribute	21, 0	@ Tag_ABI_FP_exceptions
	.eabi_attribute	23, 1	@ Tag_ABI_FP_number_model
	.eabi_attribute	24, 1	@ Tag_ABI_align_needed
	.eabi_attribute	25, 1	@ Tag_ABI_align_preserved
	.eabi_attribute	28, 1	@ Tag_ABI_VFP_args
	.eabi_attribute	38, 1	@ Tag_ABI_FP_16bit_format
	.eabi_attribute	18, 2	@ Tag_ABI_PCS_wchar_t
	.eabi_attribute	26, 1	@ Tag_ABI_enum_size
	.eabi_attribute	14, 0	@ Tag_ABI_PCS_R9_use
	.file	"low_level.cpp"
	.file	1 "D:\\ikingtec\\Robot\\ODrive\\Firmware\\MDK-ARM" "../MotorControl/low_level.cpp"
	.file	2 "D:\\Embed\\MDK\\MDK\\ARM\\ARMCompilerV621\\Bin\\..\\include" "stdint.h"
	.file	3 "D:\\ikingtec\\Robot\\ODrive\\Firmware\\MDK-ARM" "../ThirdParty/FreeRTOS/Source/include\\task.h"
	.file	4 "D:\\ikingtec\\Robot\\ODrive\\Firmware\\MDK-ARM" "../ThirdParty/FreeRTOS/Source/CMSIS_RTOS\\cmsis_os.h"
	.file	5 "D:\\ikingtec\\Robot\\ODrive\\Firmware\\MDK-ARM" "../../Firmware\\autogen/interfaces.hpp"
	.file	6 "D:\\ikingtec\\Robot\\ODrive\\Firmware\\MDK-ARM" "../ThirdParty/CMSIS/Device/ST/STM32F4xx/Include\\stm32f4xx.h"
	.file	7 "D:\\ikingtec\\Robot\\ODrive\\Firmware\\MDK-ARM" "../ThirdParty/STM32F4xx_HAL_Driver/Inc/stm32f4xx_hal_def.h"
	.file	8 "D:\\ikingtec\\Robot\\ODrive\\Firmware\\MDK-ARM" "../ThirdParty/CMSIS/Device/ST/STM32F4xx/Include/stm32f405xx.h"
	.file	9 "D:\\Embed\\MDK\\MDK\\ARM\\ARMCompilerV621\\Bin\\..\\include\\libcxx" "array"
	.file	10 "D:\\Embed\\MDK\\MDK\\ARM\\ARMCompilerV621\\Bin\\..\\include" "stddef.h"
	.file	11 "D:\\ikingtec\\Robot\\ODrive\\Firmware\\MDK-ARM" "../../Firmware\\Drivers/STM32/stm32_system.h"
	.section	.text.safety_critical_arm_brake_resistor,"ax",%progbits
	.hidden	safety_critical_arm_brake_resistor @ -- Begin function safety_critical_arm_brake_resistor
	.globl	safety_critical_arm_brake_resistor
	.p2align	2
	.type	safety_critical_arm_brake_resistor,%function
	.code	16                              @ @safety_critical_arm_brake_resistor
	.thumb_func
safety_critical_arm_brake_resistor:
.Lfunc_begin0:
	.loc	1 80 0                          @ ../MotorControl/low_level.cpp:80:0
	.fnstart
	.cfi_sections .debug_frame
	.cfi_startproc
@ %bb.0:
	.save	{r7, lr}
	push	{r7, lr}
	.cfi_def_cfa_offset 8
	.cfi_offset lr, -4
	.cfi_offset r7, -8
	.pad	#16
	sub	sp, #16
	.cfi_def_cfa_offset 24
	add	r0, sp, #8
.Ltmp0:
	.loc	1 81 5 prologue_end             @ ../MotorControl/low_level.cpp:81:5
	bl	_ZN22CriticalSectionContextC2Ev
	b	.LBB0_1
.LBB0_1:                                @ =>This Loop Header: Depth=1
                                        @     Child Loop BB0_4 Depth 2
.Ltmp1:
	.loc	1 81 5 is_stmt 0                @ ../MotorControl/low_level.cpp:81:5
	ldrb.w	r0, [sp, #12]
.Ltmp2:
	.loc	1 81 5                          @ ../MotorControl/low_level.cpp:81:5
	lsls	r0, r0, #31
	cbz	r0, .LBB0_3
	b	.LBB0_2
.LBB0_2:
	.loc	1 0 5                           @ ../MotorControl/low_level.cpp:0:5
	add	r0, sp, #8
.Ltmp3:
	.loc	1 81 5                          @ ../MotorControl/low_level.cpp:81:5
	bl	_ZN22CriticalSectionContextD2Ev
	b	.LBB0_9
.LBB0_3:                                @   in Loop: Header=BB0_1 Depth=1
	.loc	1 0 5                           @ ../MotorControl/low_level.cpp:0:5
	movs	r0, #0
.Ltmp4:
	.loc	1 82 21 is_stmt 1               @ ../MotorControl/low_level.cpp:82:21
	str	r0, [sp, #4]
	.loc	1 82 14 is_stmt 0               @ ../MotorControl/low_level.cpp:82:14
	b	.LBB0_4
.LBB0_4:                                @   Parent Loop BB0_1 Depth=1
                                        @ =>  This Inner Loop Header: Depth=2
.Ltmp5:
	.loc	1 82 28                         @ ../MotorControl/low_level.cpp:82:28
	ldr	r0, [sp, #4]
.Ltmp6:
	.loc	1 82 9                          @ ../MotorControl/low_level.cpp:82:9
	cmp	r0, #1
	bhi	.LBB0_7
	b	.LBB0_5
.LBB0_5:                                @   in Loop: Header=BB0_4 Depth=2
.Ltmp7:
	.loc	1 83 18 is_stmt 1               @ ../MotorControl/low_level.cpp:83:18
	ldr	r1, [sp, #4]
	.loc	1 83 13 is_stmt 0               @ ../MotorControl/low_level.cpp:83:13
	movw	r0, :lower16:axes
	movt	r0, :upper16:axes
	bl	_ZNSt3__25arrayI4AxisLj2EEixB7v180000Ej
	.loc	1 83 21                         @ ../MotorControl/low_level.cpp:83:21
	ldr.w	r1, [r0, #344]
	movs	r0, #0
	.loc	1 83 35                         @ ../MotorControl/low_level.cpp:83:35
	str.w	r0, [r1, #200]
	.loc	1 84 9 is_stmt 1                @ ../MotorControl/low_level.cpp:84:9
	b	.LBB0_6
.Ltmp8:
.LBB0_6:                                @   in Loop: Header=BB0_4 Depth=2
	.loc	1 82 44                         @ ../MotorControl/low_level.cpp:82:44
	ldr	r0, [sp, #4]
	adds	r0, #1
	str	r0, [sp, #4]
	.loc	1 82 9 is_stmt 0                @ ../MotorControl/low_level.cpp:82:9
	b	.LBB0_4
.Ltmp9:
.LBB0_7:                                @   in Loop: Header=BB0_1 Depth=1
	.loc	1 85 30 is_stmt 1               @ ../MotorControl/low_level.cpp:85:30
	movw	r1, :lower16:brake_resistor_armed
	movt	r1, :upper16:brake_resistor_armed
	movs	r0, #1
	strb	r0, [r1]
	.loc	1 87 15                         @ ../MotorControl/low_level.cpp:87:15
	movw	r0, :lower16:htim2
	movt	r0, :upper16:htim2
	ldr	r2, [r0]
	movs	r1, #0
	.loc	1 87 30 is_stmt 0               @ ../MotorControl/low_level.cpp:87:30
	str	r1, [r2, #60]
	.loc	1 88 15 is_stmt 1               @ ../MotorControl/low_level.cpp:88:15
	ldr	r1, [r0]
	movw	r0, #4097
	.loc	1 88 30 is_stmt 0               @ ../MotorControl/low_level.cpp:88:30
	str	r0, [r1, #64]
	.loc	1 90 5 is_stmt 1                @ ../MotorControl/low_level.cpp:90:5
	b	.LBB0_8
.Ltmp10:
.LBB0_8:                                @   in Loop: Header=BB0_1 Depth=1
	.loc	1 0 5 is_stmt 0                 @ ../MotorControl/low_level.cpp:0:5
	movs	r0, #1
	.loc	1 81 5 is_stmt 1                @ ../MotorControl/low_level.cpp:81:5
	strb.w	r0, [sp, #12]
	b	.LBB0_1
.Ltmp11:
.LBB0_9:
	.loc	1 91 1 epilogue_begin           @ ../MotorControl/low_level.cpp:91:1
	add	sp, #16
	pop	{r7, pc}
.Ltmp12:
.Lfunc_end0:
	.size	safety_critical_arm_brake_resistor, .Lfunc_end0-safety_critical_arm_brake_resistor
	.cfi_endproc
	.cantunwind
	.fnend
                                        @ -- End function
	.section	.text._ZN22CriticalSectionContextC2Ev,"axG",%progbits,_ZN22CriticalSectionContextC2Ev,comdat
	.hidden	_ZN22CriticalSectionContextC2Ev @ -- Begin function _ZN22CriticalSectionContextC2Ev
	.weak	_ZN22CriticalSectionContextC2Ev
	.p2align	2
	.type	_ZN22CriticalSectionContextC2Ev,%function
	.code	16                              @ @_ZN22CriticalSectionContextC2Ev
	.thumb_func
_ZN22CriticalSectionContextC2Ev:
.Lfunc_begin1:
	.loc	11 56 0                         @ ../../Firmware\Drivers/STM32/stm32_system.h:56:0
	.fnstart
	.cfi_startproc
@ %bb.0:
	.save	{r7, lr}
	push	{r7, lr}
	.cfi_def_cfa_offset 8
	.cfi_offset lr, -4
	.cfi_offset r7, -8
	.pad	#8
	sub	sp, #8
	.cfi_def_cfa_offset 16
	str	r0, [sp, #4]
	ldr	r0, [sp, #4]
.Ltmp13:
	.loc	11 56 38 prologue_end           @ ../../Firmware\Drivers/STM32/stm32_system.h:56:38
	str	r0, [sp]                        @ 4-byte Spill
	bl	_ZL18cpu_enter_criticalv
	mov	r1, r0
	.loc	11 56 32 is_stmt 0              @ ../../Firmware\Drivers/STM32/stm32_system.h:56:32
	ldr	r0, [sp]                        @ 4-byte Reload
	str	r1, [r0]
	movs	r1, #0
	.loc	11 59 10 is_stmt 1              @ ../../Firmware\Drivers/STM32/stm32_system.h:59:10
	strb	r1, [r0, #4]
	.loc	11 56 61 epilogue_begin         @ ../../Firmware\Drivers/STM32/stm32_system.h:56:61
	add	sp, #8
	pop	{r7, pc}
.Ltmp14:
.Lfunc_end1:
	.size	_ZN22CriticalSectionContextC2Ev, .Lfunc_end1-_ZN22CriticalSectionContextC2Ev
	.cfi_endproc
	.cantunwind
	.fnend
                                        @ -- End function
	.section	.text._ZNSt3__25arrayI4AxisLj2EEixB7v180000Ej,"axG",%progbits,_ZNSt3__25arrayI4AxisLj2EEixB7v180000Ej,comdat
	.hidden	_ZNSt3__25arrayI4AxisLj2EEixB7v180000Ej @ -- Begin function _ZNSt3__25arrayI4AxisLj2EEixB7v180000Ej
	.weak	_ZNSt3__25arrayI4AxisLj2EEixB7v180000Ej
	.p2align	2
	.type	_ZNSt3__25arrayI4AxisLj2EEixB7v180000Ej,%function
	.code	16                              @ @_ZNSt3__25arrayI4AxisLj2EEixB7v180000Ej
	.thumb_func
_ZNSt3__25arrayI4AxisLj2EEixB7v180000Ej:
.Lfunc_begin2:
	.loc	9 231 0                         @ D:\Embed\MDK\MDK\ARM\ARMCompilerV621\Bin\..\include\libcxx\array:231:0
	.fnstart
	.cfi_startproc
@ %bb.0:
	.pad	#8
	sub	sp, #8
	.cfi_def_cfa_offset 8
	str	r0, [sp, #4]
	str	r1, [sp]
	ldr	r2, [sp, #4]
.Ltmp15:
	.loc	9 233 25 prologue_end           @ D:\Embed\MDK\MDK\ARM\ARMCompilerV621\Bin\..\include\libcxx\array:233:25
	ldr	r0, [sp]
	mov.w	r1, #696
	.loc	9 233 16 is_stmt 0              @ D:\Embed\MDK\MDK\ARM\ARMCompilerV621\Bin\..\include\libcxx\array:233:16
	mla	r0, r0, r1, r2
	.loc	9 233 9 epilogue_begin          @ D:\Embed\MDK\MDK\ARM\ARMCompilerV621\Bin\..\include\libcxx\array:233:9
	add	sp, #8
	bx	lr
.Ltmp16:
.Lfunc_end2:
	.size	_ZNSt3__25arrayI4AxisLj2EEixB7v180000Ej, .Lfunc_end2-_ZNSt3__25arrayI4AxisLj2EEixB7v180000Ej
	.cfi_endproc
	.cantunwind
	.fnend
                                        @ -- End function
	.section	.text._ZN22CriticalSectionContextD2Ev,"axG",%progbits,_ZN22CriticalSectionContextD2Ev,comdat
	.hidden	_ZN22CriticalSectionContextD2Ev @ -- Begin function _ZN22CriticalSectionContextD2Ev
	.weak	_ZN22CriticalSectionContextD2Ev
	.p2align	2
	.type	_ZN22CriticalSectionContextD2Ev,%function
	.code	16                              @ @_ZN22CriticalSectionContextD2Ev
	.thumb_func
_ZN22CriticalSectionContextD2Ev:
.Lfunc_begin3:
	.loc	11 57 0 is_stmt 1               @ ../../Firmware\Drivers/STM32/stm32_system.h:57:0
	.fnstart
	.cfi_startproc
@ %bb.0:
	.save	{r7, lr}
	push	{r7, lr}
	.cfi_def_cfa_offset 8
	.cfi_offset lr, -4
	.cfi_offset r7, -8
	.pad	#8
	sub	sp, #8
	.cfi_def_cfa_offset 16
	str	r0, [sp, #4]
	ldr	r0, [sp, #4]
.Ltmp17:
	.loc	11 57 51 prologue_end           @ ../../Firmware\Drivers/STM32/stm32_system.h:57:51
	str	r0, [sp]                        @ 4-byte Spill
	ldr	r0, [r0]
	.loc	11 57 33 is_stmt 0              @ ../../Firmware\Drivers/STM32/stm32_system.h:57:33
	bl	_ZL17cpu_exit_criticalj
	ldr	r0, [sp]                        @ 4-byte Reload
.Ltmp18:
	.loc	11 57 59 epilogue_begin         @ ../../Firmware\Drivers/STM32/stm32_system.h:57:59
	add	sp, #8
	pop	{r7, pc}
.Ltmp19:
.Lfunc_end3:
	.size	_ZN22CriticalSectionContextD2Ev, .Lfunc_end3-_ZN22CriticalSectionContextD2Ev
	.cfi_endproc
	.cantunwind
	.fnend
                                        @ -- End function
	.section	.text.safety_critical_disarm_brake_resistor,"ax",%progbits
	.hidden	safety_critical_disarm_brake_resistor @ -- Begin function safety_critical_disarm_brake_resistor
	.globl	safety_critical_disarm_brake_resistor
	.p2align	2
	.type	safety_critical_disarm_brake_resistor,%function
	.code	16                              @ @safety_critical_disarm_brake_resistor
	.thumb_func
safety_critical_disarm_brake_resistor:
.Lfunc_begin4:
	.loc	1 97 0 is_stmt 1                @ ../MotorControl/low_level.cpp:97:0
	.fnstart
	.cfi_startproc
@ %bb.0:
	.save	{r7, lr}
	push	{r7, lr}
	.cfi_def_cfa_offset 8
	.cfi_offset lr, -4
	.cfi_offset r7, -8
	.pad	#32
	sub	sp, #32
	.cfi_def_cfa_offset 40
.Ltmp20:
	.loc	1 98 37 prologue_end            @ ../MotorControl/low_level.cpp:98:37
	movw	r0, :lower16:brake_resistor_armed
	movt	r0, :upper16:brake_resistor_armed
	ldrb	r0, [r0]
	.loc	1 98 10 is_stmt 0               @ ../MotorControl/low_level.cpp:98:10
	and	r0, r0, #1
	strb.w	r0, [sp, #31]
	add	r0, sp, #20
.Ltmp21:
	.loc	1 100 5 is_stmt 1               @ ../MotorControl/low_level.cpp:100:5
	bl	_ZN22CriticalSectionContextC2Ev
	b	.LBB4_1
.LBB4_1:                                @ =>This Inner Loop Header: Depth=1
.Ltmp22:
	.loc	1 100 5 is_stmt 0               @ ../MotorControl/low_level.cpp:100:5
	ldrb.w	r0, [sp, #24]
.Ltmp23:
	.loc	1 100 5                         @ ../MotorControl/low_level.cpp:100:5
	lsls	r0, r0, #31
	cbz	r0, .LBB4_3
	b	.LBB4_2
.LBB4_2:
	.loc	1 0 5                           @ ../MotorControl/low_level.cpp:0:5
	add	r0, sp, #20
.Ltmp24:
	.loc	1 100 5                         @ ../MotorControl/low_level.cpp:100:5
	bl	_ZN22CriticalSectionContextD2Ev
	b	.LBB4_5
.LBB4_3:                                @   in Loop: Header=BB4_1 Depth=1
.Ltmp25:
	.loc	1 101 30 is_stmt 1              @ ../MotorControl/low_level.cpp:101:30
	movw	r0, :lower16:brake_resistor_armed
	movt	r0, :upper16:brake_resistor_armed
	movs	r1, #0
	strb	r1, [r0]
	.loc	1 103 15                        @ ../MotorControl/low_level.cpp:103:15
	movw	r0, :lower16:htim2
	movt	r0, :upper16:htim2
	ldr	r2, [r0]
	.loc	1 103 30 is_stmt 0              @ ../MotorControl/low_level.cpp:103:30
	str	r1, [r2, #60]
	.loc	1 104 15 is_stmt 1              @ ../MotorControl/low_level.cpp:104:15
	ldr	r1, [r0]
	movw	r0, #4097
	.loc	1 104 30 is_stmt 0              @ ../MotorControl/low_level.cpp:104:30
	str	r0, [r1, #64]
	.loc	1 106 5 is_stmt 1               @ ../MotorControl/low_level.cpp:106:5
	b	.LBB4_4
.Ltmp26:
.LBB4_4:                                @   in Loop: Header=BB4_1 Depth=1
	.loc	1 0 5 is_stmt 0                 @ ../MotorControl/low_level.cpp:0:5
	movs	r0, #1
	.loc	1 100 5 is_stmt 1               @ ../MotorControl/low_level.cpp:100:5
	strb.w	r0, [sp, #24]
	b	.LBB4_1
.Ltmp27:
.LBB4_5:
	.loc	1 109 9                         @ ../MotorControl/low_level.cpp:109:9
	ldrb.w	r0, [sp, #31]
.Ltmp28:
	.loc	1 109 9 is_stmt 0               @ ../MotorControl/low_level.cpp:109:9
	lsls	r0, r0, #31
	cbz	r0, .LBB4_11
	b	.LBB4_6
.LBB4_6:
.Ltmp29:
	.loc	1 110 26 is_stmt 1              @ ../MotorControl/low_level.cpp:110:26
	movw	r0, :lower16:axes
	movt	r0, :upper16:axes
	str	r0, [sp]                        @ 4-byte Spill
	str	r0, [sp, #16]
	.loc	1 110 24 is_stmt 0              @ ../MotorControl/low_level.cpp:110:24
	bl	_ZNSt3__25arrayI4AxisLj2EE5beginB7v180000Ev
	mov	r1, r0
	ldr	r0, [sp]                        @ 4-byte Reload
	str	r1, [sp, #12]
	bl	_ZNSt3__25arrayI4AxisLj2EE3endB7v180000Ev
	str	r0, [sp, #8]
	b	.LBB4_7
.LBB4_7:                                @ =>This Inner Loop Header: Depth=1
	ldr	r0, [sp, #12]
	ldr	r1, [sp, #8]
	cmp	r0, r1
	beq	.LBB4_10
	b	.LBB4_8
.LBB4_8:                                @   in Loop: Header=BB4_7 Depth=1
.Ltmp30:
	.loc	1 110 24                        @ ../MotorControl/low_level.cpp:110:24
	ldr	r0, [sp, #12]
	.loc	1 110 20                        @ ../MotorControl/low_level.cpp:110:20
	str	r0, [sp, #4]
.Ltmp31:
	.loc	1 111 13 is_stmt 1              @ ../MotorControl/low_level.cpp:111:13
	ldr	r0, [sp, #4]
	.loc	1 111 18 is_stmt 0              @ ../MotorControl/low_level.cpp:111:18
	ldr.w	r0, [r0, #344]
	movs	r1, #0
	.loc	1 111 25                        @ ../MotorControl/low_level.cpp:111:25
	bl	_ZN5Motor6disarmEPb
.Ltmp32:
	.loc	1 110 9 is_stmt 1               @ ../MotorControl/low_level.cpp:110:9
	b	.LBB4_9
.LBB4_9:                                @   in Loop: Header=BB4_7 Depth=1
	.loc	1 110 24 is_stmt 0              @ ../MotorControl/low_level.cpp:110:24
	ldr	r0, [sp, #12]
	add.w	r0, r0, #696
	str	r0, [sp, #12]
	b	.LBB4_7
.Ltmp33:
.LBB4_10:
	.loc	1 113 5 is_stmt 1               @ ../MotorControl/low_level.cpp:113:5
	b	.LBB4_11
.Ltmp34:
.LBB4_11:
	.loc	1 114 1 epilogue_begin          @ ../MotorControl/low_level.cpp:114:1
	add	sp, #32
	pop	{r7, pc}
.Ltmp35:
.Lfunc_end4:
	.size	safety_critical_disarm_brake_resistor, .Lfunc_end4-safety_critical_disarm_brake_resistor
	.cfi_endproc
	.cantunwind
	.fnend
                                        @ -- End function
	.section	.text._ZNSt3__25arrayI4AxisLj2EE5beginB7v180000Ev,"axG",%progbits,_ZNSt3__25arrayI4AxisLj2EE5beginB7v180000Ev,comdat
	.hidden	_ZNSt3__25arrayI4AxisLj2EE5beginB7v180000Ev @ -- Begin function _ZNSt3__25arrayI4AxisLj2EE5beginB7v180000Ev
	.weak	_ZNSt3__25arrayI4AxisLj2EE5beginB7v180000Ev
	.p2align	2
	.type	_ZNSt3__25arrayI4AxisLj2EE5beginB7v180000Ev,%function
	.code	16                              @ @_ZNSt3__25arrayI4AxisLj2EE5beginB7v180000Ev
	.thumb_func
_ZNSt3__25arrayI4AxisLj2EE5beginB7v180000Ev:
.Lfunc_begin5:
	.loc	9 195 0                         @ D:\Embed\MDK\MDK\ARM\ARMCompilerV621\Bin\..\include\libcxx\array:195:0
	.fnstart
	.cfi_startproc
@ %bb.0:
	.save	{r7, lr}
	push	{r7, lr}
	.cfi_def_cfa_offset 8
	.cfi_offset lr, -4
	.cfi_offset r7, -8
	.pad	#8
	sub	sp, #8
	.cfi_def_cfa_offset 16
	str	r0, [sp, #4]
	ldr	r0, [sp, #4]
.Ltmp36:
	.loc	9 195 49 prologue_end           @ D:\Embed\MDK\MDK\ARM\ARMCompilerV621\Bin\..\include\libcxx\array:195:49
	bl	_ZNSt3__25arrayI4AxisLj2EE4dataB7v180000Ev
	.loc	9 195 33 epilogue_begin is_stmt 0 @ D:\Embed\MDK\MDK\ARM\ARMCompilerV621\Bin\..\include\libcxx\array:195:33
	add	sp, #8
	pop	{r7, pc}
.Ltmp37:
.Lfunc_end5:
	.size	_ZNSt3__25arrayI4AxisLj2EE5beginB7v180000Ev, .Lfunc_end5-_ZNSt3__25arrayI4AxisLj2EE5beginB7v180000Ev
	.cfi_endproc
	.cantunwind
	.fnend
                                        @ -- End function
	.section	.text._ZNSt3__25arrayI4AxisLj2EE3endB7v180000Ev,"axG",%progbits,_ZNSt3__25arrayI4AxisLj2EE3endB7v180000Ev,comdat
	.hidden	_ZNSt3__25arrayI4AxisLj2EE3endB7v180000Ev @ -- Begin function _ZNSt3__25arrayI4AxisLj2EE3endB7v180000Ev
	.weak	_ZNSt3__25arrayI4AxisLj2EE3endB7v180000Ev
	.p2align	2
	.type	_ZNSt3__25arrayI4AxisLj2EE3endB7v180000Ev,%function
	.code	16                              @ @_ZNSt3__25arrayI4AxisLj2EE3endB7v180000Ev
	.thumb_func
_ZNSt3__25arrayI4AxisLj2EE3endB7v180000Ev:
.Lfunc_begin6:
	.loc	9 199 0 is_stmt 1               @ D:\Embed\MDK\MDK\ARM\ARMCompilerV621\Bin\..\include\libcxx\array:199:0
	.fnstart
	.cfi_startproc
@ %bb.0:
	.save	{r7, lr}
	push	{r7, lr}
	.cfi_def_cfa_offset 8
	.cfi_offset lr, -4
	.cfi_offset r7, -8
	.pad	#8
	sub	sp, #8
	.cfi_def_cfa_offset 16
	str	r0, [sp, #4]
	ldr	r0, [sp, #4]
.Ltmp38:
	.loc	9 199 47 prologue_end           @ D:\Embed\MDK\MDK\ARM\ARMCompilerV621\Bin\..\include\libcxx\array:199:47
	bl	_ZNSt3__25arrayI4AxisLj2EE4dataB7v180000Ev
	.loc	9 199 54 is_stmt 0              @ D:\Embed\MDK\MDK\ARM\ARMCompilerV621\Bin\..\include\libcxx\array:199:54
	add.w	r0, r0, #1392
	.loc	9 199 31 epilogue_begin         @ D:\Embed\MDK\MDK\ARM\ARMCompilerV621\Bin\..\include\libcxx\array:199:31
	add	sp, #8
	pop	{r7, pc}
.Ltmp39:
.Lfunc_end6:
	.size	_ZNSt3__25arrayI4AxisLj2EE3endB7v180000Ev, .Lfunc_end6-_ZNSt3__25arrayI4AxisLj2EE3endB7v180000Ev
	.cfi_endproc
	.cantunwind
	.fnend
                                        @ -- End function
	.section	.text.safety_critical_apply_brake_resistor_timings,"ax",%progbits
	.hidden	safety_critical_apply_brake_resistor_timings @ -- Begin function safety_critical_apply_brake_resistor_timings
	.globl	safety_critical_apply_brake_resistor_timings
	.p2align	2
	.type	safety_critical_apply_brake_resistor_timings,%function
	.code	16                              @ @safety_critical_apply_brake_resistor_timings
	.thumb_func
safety_critical_apply_brake_resistor_timings:
.Lfunc_begin7:
	.loc	1 118 0 is_stmt 1               @ ../MotorControl/low_level.cpp:118:0
	.fnstart
	.cfi_startproc
@ %bb.0:
	.save	{r7, lr}
	push	{r7, lr}
	.cfi_def_cfa_offset 8
	.cfi_offset lr, -4
	.cfi_offset r7, -8
	.pad	#16
	sub	sp, #16
	.cfi_def_cfa_offset 24
	str	r0, [sp, #12]
	str	r1, [sp, #8]
.Ltmp40:
	.loc	1 119 9 prologue_end            @ ../MotorControl/low_level.cpp:119:9
	ldr	r0, [sp, #8]
	.loc	1 119 19 is_stmt 0              @ ../MotorControl/low_level.cpp:119:19
	ldr	r1, [sp, #12]
	.loc	1 119 17                        @ ../MotorControl/low_level.cpp:119:17
	subs	r0, r0, r1
.Ltmp41:
	.loc	1 119 9                         @ ../MotorControl/low_level.cpp:119:9
	cmp	r0, #39
	bhi	.LBB7_2
	b	.LBB7_1
.LBB7_1:
.Ltmp42:
	.loc	1 120 14 is_stmt 1              @ ../MotorControl/low_level.cpp:120:14
	movw	r0, :lower16:odrv
	movt	r0, :upper16:odrv
	movs	r1, #32
	bl	_ZN6ODrive17disarm_with_errorEN10ODriveIntf5ErrorE
	.loc	1 121 5                         @ ../MotorControl/low_level.cpp:121:5
	b	.LBB7_2
.Ltmp43:
.LBB7_2:
	.loc	1 0 5 is_stmt 0                 @ ../MotorControl/low_level.cpp:0:5
	mov	r0, sp
.Ltmp44:
	.loc	1 123 5 is_stmt 1               @ ../MotorControl/low_level.cpp:123:5
	bl	_ZN22CriticalSectionContextC2Ev
	b	.LBB7_3
.LBB7_3:                                @ =>This Inner Loop Header: Depth=1
.Ltmp45:
	.loc	1 123 5 is_stmt 0               @ ../MotorControl/low_level.cpp:123:5
	ldrb.w	r0, [sp, #4]
.Ltmp46:
	.loc	1 123 5                         @ ../MotorControl/low_level.cpp:123:5
	lsls	r0, r0, #31
	cbz	r0, .LBB7_5
	b	.LBB7_4
.LBB7_4:
	.loc	1 0 5                           @ ../MotorControl/low_level.cpp:0:5
	mov	r0, sp
.Ltmp47:
	.loc	1 123 5                         @ ../MotorControl/low_level.cpp:123:5
	bl	_ZN22CriticalSectionContextD2Ev
	b	.LBB7_9
.LBB7_5:                                @   in Loop: Header=BB7_3 Depth=1
.Ltmp48:
	.loc	1 124 13 is_stmt 1              @ ../MotorControl/low_level.cpp:124:13
	movw	r0, :lower16:brake_resistor_armed
	movt	r0, :upper16:brake_resistor_armed
	ldrb	r0, [r0]
.Ltmp49:
	.loc	1 124 13 is_stmt 0              @ ../MotorControl/low_level.cpp:124:13
	lsls	r0, r0, #31
	cbz	r0, .LBB7_7
	b	.LBB7_6
.LBB7_6:                                @   in Loop: Header=BB7_3 Depth=1
.Ltmp50:
	.loc	1 129 19 is_stmt 1              @ ../MotorControl/low_level.cpp:129:19
	movw	r1, :lower16:htim2
	movt	r1, :upper16:htim2
	ldr	r2, [r1]
	movs	r0, #0
	.loc	1 129 34 is_stmt 0              @ ../MotorControl/low_level.cpp:129:34
	str	r0, [r2, #60]
	.loc	1 130 19 is_stmt 1              @ ../MotorControl/low_level.cpp:130:19
	ldr	r2, [r1]
	movw	r0, #4097
	.loc	1 130 34 is_stmt 0              @ ../MotorControl/low_level.cpp:130:34
	str	r0, [r2, #64]
	.loc	1 131 36 is_stmt 1              @ ../MotorControl/low_level.cpp:131:36
	ldr	r0, [sp, #12]
	.loc	1 131 19 is_stmt 0              @ ../MotorControl/low_level.cpp:131:19
	ldr	r2, [r1]
	.loc	1 131 34                        @ ../MotorControl/low_level.cpp:131:34
	str	r0, [r2, #60]
	.loc	1 132 36 is_stmt 1              @ ../MotorControl/low_level.cpp:132:36
	ldr	r0, [sp, #8]
	.loc	1 132 19 is_stmt 0              @ ../MotorControl/low_level.cpp:132:19
	ldr	r1, [r1]
	.loc	1 132 34                        @ ../MotorControl/low_level.cpp:132:34
	str	r0, [r1, #64]
	.loc	1 134 9 is_stmt 1               @ ../MotorControl/low_level.cpp:134:9
	b	.LBB7_7
.Ltmp51:
.LBB7_7:                                @   in Loop: Header=BB7_3 Depth=1
	.loc	1 135 5                         @ ../MotorControl/low_level.cpp:135:5
	b	.LBB7_8
.Ltmp52:
.LBB7_8:                                @   in Loop: Header=BB7_3 Depth=1
	.loc	1 0 5 is_stmt 0                 @ ../MotorControl/low_level.cpp:0:5
	movs	r0, #1
	.loc	1 123 5 is_stmt 1               @ ../MotorControl/low_level.cpp:123:5
	strb.w	r0, [sp, #4]
	b	.LBB7_3
.Ltmp53:
.LBB7_9:
	.loc	1 136 1 epilogue_begin          @ ../MotorControl/low_level.cpp:136:1
	add	sp, #16
	pop	{r7, pc}
.Ltmp54:
.Lfunc_end7:
	.size	safety_critical_apply_brake_resistor_timings, .Lfunc_end7-safety_critical_apply_brake_resistor_timings
	.cfi_endproc
	.cantunwind
	.fnend
                                        @ -- End function
	.section	.text.start_adc_pwm,"ax",%progbits
	.hidden	start_adc_pwm                   @ -- Begin function start_adc_pwm
	.globl	start_adc_pwm
	.p2align	2
	.type	start_adc_pwm,%function
	.code	16                              @ @start_adc_pwm
	.thumb_func
start_adc_pwm:
.Lfunc_begin8:
	.loc	1 140 0                         @ ../MotorControl/low_level.cpp:140:0
	.fnstart
	.cfi_startproc
@ %bb.0:
	.save	{r7, lr}
	push	{r7, lr}
	.cfi_def_cfa_offset 8
	.cfi_offset lr, -4
	.cfi_offset r7, -8
	.pad	#48
	sub	sp, #48
	.cfi_def_cfa_offset 56
.Ltmp55:
	.loc	1 142 22 prologue_end           @ ../MotorControl/low_level.cpp:142:22
	movw	r0, :lower16:axes
	movt	r0, :upper16:axes
	str	r0, [sp, #8]                    @ 4-byte Spill
	str	r0, [sp, #44]
	.loc	1 142 20 is_stmt 0              @ ../MotorControl/low_level.cpp:142:20
	bl	_ZNSt3__25arrayI4AxisLj2EE5beginB7v180000Ev
	mov	r1, r0
	ldr	r0, [sp, #8]                    @ 4-byte Reload
	str	r1, [sp, #40]
	bl	_ZNSt3__25arrayI4AxisLj2EE3endB7v180000Ev
	str	r0, [sp, #36]
	b	.LBB8_1
.LBB8_1:                                @ =>This Inner Loop Header: Depth=1
	ldr	r0, [sp, #40]
	ldr	r1, [sp, #36]
	cmp	r0, r1
	beq	.LBB8_4
	b	.LBB8_2
.LBB8_2:                                @   in Loop: Header=BB8_1 Depth=1
.Ltmp56:
	.loc	1 142 20                        @ ../MotorControl/low_level.cpp:142:20
	ldr	r0, [sp, #40]
	.loc	1 142 16                        @ ../MotorControl/low_level.cpp:142:16
	str	r0, [sp, #32]
.Ltmp57:
	.loc	1 143 9 is_stmt 1               @ ../MotorControl/low_level.cpp:143:9
	ldr	r0, [sp, #32]
	.loc	1 143 14 is_stmt 0              @ ../MotorControl/low_level.cpp:143:14
	ldr.w	r0, [r0, #344]
	movs	r1, #0
	.loc	1 143 21                        @ ../MotorControl/low_level.cpp:143:21
	bl	_ZN5Motor6disarmEPb
.Ltmp58:
	.loc	1 142 5 is_stmt 1               @ ../MotorControl/low_level.cpp:142:5
	b	.LBB8_3
.LBB8_3:                                @   in Loop: Header=BB8_1 Depth=1
	.loc	1 142 20 is_stmt 0              @ ../MotorControl/low_level.cpp:142:20
	ldr	r0, [sp, #40]
	add.w	r0, r0, #696
	str	r0, [sp, #40]
	b	.LBB8_1
.Ltmp59:
.LBB8_4:
	.loc	1 146 24 is_stmt 1              @ ../MotorControl/low_level.cpp:146:24
	movw	r0, :lower16:motors
	movt	r0, :upper16:motors
	str	r0, [sp, #28]
	.loc	1 146 22 is_stmt 0              @ ../MotorControl/low_level.cpp:146:22
	str	r0, [sp, #24]
	add.w	r0, r0, #880
	str	r0, [sp, #20]
	b	.LBB8_5
.LBB8_5:                                @ =>This Inner Loop Header: Depth=1
	ldr	r0, [sp, #24]
	ldr	r1, [sp, #20]
	cmp	r0, r1
	beq	.LBB8_8
	b	.LBB8_6
.LBB8_6:                                @   in Loop: Header=BB8_5 Depth=1
.Ltmp60:
	.loc	1 146 22                        @ ../MotorControl/low_level.cpp:146:22
	ldr	r0, [sp, #24]
	.loc	1 146 17                        @ ../MotorControl/low_level.cpp:146:17
	str	r0, [sp, #16]
	movw	r0, #1750
.Ltmp61:
	.loc	1 148 13 is_stmt 1              @ ../MotorControl/low_level.cpp:148:13
	str	r0, [sp, #12]
	.loc	1 149 40                        @ ../MotorControl/low_level.cpp:149:40
	ldr	r0, [sp, #12]
	.loc	1 149 9 is_stmt 0               @ ../MotorControl/low_level.cpp:149:9
	ldr	r1, [sp, #16]
	.loc	1 149 15                        @ ../MotorControl/low_level.cpp:149:15
	ldr	r1, [r1]
	.loc	1 149 23                        @ ../MotorControl/low_level.cpp:149:23
	ldr	r1, [r1]
	.loc	1 149 38                        @ ../MotorControl/low_level.cpp:149:38
	str	r0, [r1, #52]
	.loc	1 150 40 is_stmt 1              @ ../MotorControl/low_level.cpp:150:40
	ldr	r0, [sp, #12]
	.loc	1 150 9 is_stmt 0               @ ../MotorControl/low_level.cpp:150:9
	ldr	r1, [sp, #16]
	.loc	1 150 15                        @ ../MotorControl/low_level.cpp:150:15
	ldr	r1, [r1]
	.loc	1 150 23                        @ ../MotorControl/low_level.cpp:150:23
	ldr	r1, [r1]
	.loc	1 150 38                        @ ../MotorControl/low_level.cpp:150:38
	str	r0, [r1, #56]
	.loc	1 151 40 is_stmt 1              @ ../MotorControl/low_level.cpp:151:40
	ldr	r0, [sp, #12]
	.loc	1 151 9 is_stmt 0               @ ../MotorControl/low_level.cpp:151:9
	ldr	r1, [sp, #16]
	.loc	1 151 15                        @ ../MotorControl/low_level.cpp:151:15
	ldr	r1, [r1]
	.loc	1 151 23                        @ ../MotorControl/low_level.cpp:151:23
	ldr	r1, [r1]
	.loc	1 151 38                        @ ../MotorControl/low_level.cpp:151:38
	str	r0, [r1, #60]
	.loc	1 154 9 is_stmt 1               @ ../MotorControl/low_level.cpp:154:9
	ldr	r0, [sp, #16]
	.loc	1 154 15 is_stmt 0              @ ../MotorControl/low_level.cpp:154:15
	ldr	r0, [r0]
	.loc	1 154 23                        @ ../MotorControl/low_level.cpp:154:23
	ldr	r1, [r0]
	.loc	1 154 38                        @ ../MotorControl/low_level.cpp:154:38
	ldr	r0, [r1, #32]
	orr	r0, r0, #1
	str	r0, [r1, #32]
	.loc	1 155 9 is_stmt 1               @ ../MotorControl/low_level.cpp:155:9
	ldr	r0, [sp, #16]
	.loc	1 155 15 is_stmt 0              @ ../MotorControl/low_level.cpp:155:15
	ldr	r0, [r0]
	.loc	1 155 23                        @ ../MotorControl/low_level.cpp:155:23
	ldr	r1, [r0]
	.loc	1 155 38                        @ ../MotorControl/low_level.cpp:155:38
	ldr	r0, [r1, #32]
	orr	r0, r0, #4
	str	r0, [r1, #32]
	.loc	1 156 9 is_stmt 1               @ ../MotorControl/low_level.cpp:156:9
	ldr	r0, [sp, #16]
	.loc	1 156 15 is_stmt 0              @ ../MotorControl/low_level.cpp:156:15
	ldr	r0, [r0]
	.loc	1 156 23                        @ ../MotorControl/low_level.cpp:156:23
	ldr	r1, [r0]
	.loc	1 156 38                        @ ../MotorControl/low_level.cpp:156:38
	ldr	r0, [r1, #32]
	orr	r0, r0, #16
	str	r0, [r1, #32]
	.loc	1 157 9 is_stmt 1               @ ../MotorControl/low_level.cpp:157:9
	ldr	r0, [sp, #16]
	.loc	1 157 15 is_stmt 0              @ ../MotorControl/low_level.cpp:157:15
	ldr	r0, [r0]
	.loc	1 157 23                        @ ../MotorControl/low_level.cpp:157:23
	ldr	r1, [r0]
	.loc	1 157 38                        @ ../MotorControl/low_level.cpp:157:38
	ldr	r0, [r1, #32]
	orr	r0, r0, #64
	str	r0, [r1, #32]
	.loc	1 158 9 is_stmt 1               @ ../MotorControl/low_level.cpp:158:9
	ldr	r0, [sp, #16]
	.loc	1 158 15 is_stmt 0              @ ../MotorControl/low_level.cpp:158:15
	ldr	r0, [r0]
	.loc	1 158 23                        @ ../MotorControl/low_level.cpp:158:23
	ldr	r1, [r0]
	.loc	1 158 38                        @ ../MotorControl/low_level.cpp:158:38
	ldr	r0, [r1, #32]
	orr	r0, r0, #256
	str	r0, [r1, #32]
	.loc	1 159 9 is_stmt 1               @ ../MotorControl/low_level.cpp:159:9
	ldr	r0, [sp, #16]
	.loc	1 159 15 is_stmt 0              @ ../MotorControl/low_level.cpp:159:15
	ldr	r0, [r0]
	.loc	1 159 23                        @ ../MotorControl/low_level.cpp:159:23
	ldr	r1, [r0]
	.loc	1 159 38                        @ ../MotorControl/low_level.cpp:159:38
	ldr	r0, [r1, #32]
	orr	r0, r0, #1024
	str	r0, [r1, #32]
.Ltmp62:
	.loc	1 146 5 is_stmt 1               @ ../MotorControl/low_level.cpp:146:5
	b	.LBB8_7
.LBB8_7:                                @   in Loop: Header=BB8_5 Depth=1
	.loc	1 146 22 is_stmt 0              @ ../MotorControl/low_level.cpp:146:22
	ldr	r0, [sp, #24]
	add.w	r0, r0, #440
	str	r0, [sp, #24]
	b	.LBB8_5
.Ltmp63:
.LBB8_8:
	.loc	1 163 5 is_stmt 1               @ ../MotorControl/low_level.cpp:163:5
	movw	r0, :lower16:hadc1
	movt	r0, :upper16:hadc1
	ldr	r1, [r0]
	ldr	r0, [r1, #8]
	orr	r0, r0, #1
	str	r0, [r1, #8]
	.loc	1 164 5                         @ ../MotorControl/low_level.cpp:164:5
	movw	r0, :lower16:hadc2
	movt	r0, :upper16:hadc2
	ldr	r1, [r0]
	ldr	r0, [r1, #8]
	orr	r0, r0, #1
	str	r0, [r1, #8]
	.loc	1 165 5                         @ ../MotorControl/low_level.cpp:165:5
	movw	r0, :lower16:hadc3
	movt	r0, :upper16:hadc3
	ldr	r1, [r0]
	ldr	r0, [r1, #8]
	orr	r0, r0, #1
	str	r0, [r1, #8]
	movs	r0, #2
	.loc	1 167 5                         @ ../MotorControl/low_level.cpp:167:5
	bl	osDelay
	.loc	1 170 5                         @ ../MotorControl/low_level.cpp:170:5
	bl	_Z12start_timersv
	.loc	1 175 11                        @ ../MotorControl/low_level.cpp:175:11
	movw	r0, :lower16:htim2
	movt	r0, :upper16:htim2
	str	r0, [sp, #4]                    @ 4-byte Spill
	ldr	r2, [r0]
	movs	r1, #0
	.loc	1 175 26 is_stmt 0              @ ../MotorControl/low_level.cpp:175:26
	str	r1, [r2, #60]
	.loc	1 176 11 is_stmt 1              @ ../MotorControl/low_level.cpp:176:11
	ldr	r2, [r0]
	movw	r1, #4097
	.loc	1 176 26 is_stmt 0              @ ../MotorControl/low_level.cpp:176:26
	str	r1, [r2, #64]
	movs	r1, #8
	.loc	1 177 5 is_stmt 1               @ ../MotorControl/low_level.cpp:177:5
	bl	HAL_TIM_PWM_Start
                                        @ kill: def $r1 killed $r0
	.loc	1 178 5                         @ ../MotorControl/low_level.cpp:178:5
	ldr	r0, [sp, #4]                    @ 4-byte Reload
	movs	r1, #12
	bl	HAL_TIM_PWM_Start
.Ltmp64:
	.loc	1 181 22                        @ ../MotorControl/low_level.cpp:181:22
	movw	r0, :lower16:odrv
	movt	r0, :upper16:odrv
	movw	r1, #16808
	ldrb	r0, [r0, r1]
.Ltmp65:
	.loc	1 181 9 is_stmt 0               @ ../MotorControl/low_level.cpp:181:9
	lsls	r0, r0, #31
	cbz	r0, .LBB8_10
	b	.LBB8_9
.LBB8_9:
.Ltmp66:
	.loc	1 182 9 is_stmt 1               @ ../MotorControl/low_level.cpp:182:9
	bl	safety_critical_arm_brake_resistor
	.loc	1 183 5                         @ ../MotorControl/low_level.cpp:183:5
	b	.LBB8_10
.Ltmp67:
.LBB8_10:
	.loc	1 184 1 epilogue_begin          @ ../MotorControl/low_level.cpp:184:1
	add	sp, #48
	pop	{r7, pc}
.Ltmp68:
.Lfunc_end8:
	.size	start_adc_pwm, .Lfunc_end8-start_adc_pwm
	.cfi_endproc
	.cantunwind
	.fnend
                                        @ -- End function
	.section	.text.start_general_purpose_adc,"ax",%progbits
	.hidden	start_general_purpose_adc       @ -- Begin function start_general_purpose_adc
	.globl	start_general_purpose_adc
	.p2align	2
	.type	start_general_purpose_adc,%function
	.code	16                              @ @start_general_purpose_adc
	.thumb_func
start_general_purpose_adc:
.Lfunc_begin9:
	.loc	1 198 0                         @ ../MotorControl/low_level.cpp:198:0
	.fnstart
	.cfi_startproc
@ %bb.0:
	.save	{r7, lr}
	push	{r7, lr}
	.cfi_def_cfa_offset 8
	.cfi_offset lr, -4
	.cfi_offset r7, -8
	.pad	#24
	sub	sp, #24
	.cfi_def_cfa_offset 32
.Ltmp69:
	.loc	1 202 20 prologue_end           @ ../MotorControl/low_level.cpp:202:20
	movw	r0, :lower16:hadc1
	movt	r0, :upper16:hadc1
	str	r0, [sp]                        @ 4-byte Spill
	movw	r1, #8192
	movt	r1, #16385
	str	r1, [r0]
	mov.w	r1, #65536
	.loc	1 203 31                        @ ../MotorControl/low_level.cpp:203:31
	str	r1, [r0, #4]
	movs	r2, #0
	.loc	1 204 27                        @ ../MotorControl/low_level.cpp:204:27
	str	r2, [r0, #8]
	movs	r1, #1
	.loc	1 205 29                        @ ../MotorControl/low_level.cpp:205:29
	str	r1, [r0, #16]
	.loc	1 206 35                        @ ../MotorControl/low_level.cpp:206:35
	str	r1, [r0, #24]
	.loc	1 207 38                        @ ../MotorControl/low_level.cpp:207:38
	str	r2, [r0, #32]
	.loc	1 208 37                        @ ../MotorControl/low_level.cpp:208:37
	str	r2, [r0, #44]
	movs	r3, #1
	movt	r3, #3840
	.loc	1 209 33                        @ ../MotorControl/low_level.cpp:209:33
	str	r3, [r0, #40]
	.loc	1 210 26                        @ ../MotorControl/low_level.cpp:210:26
	str	r2, [r0, #12]
	movs	r2, #16
	.loc	1 211 32                        @ ../MotorControl/low_level.cpp:211:32
	str	r2, [r0, #28]
	.loc	1 212 38                        @ ../MotorControl/low_level.cpp:212:38
	str	r1, [r0, #48]
	.loc	1 213 29                        @ ../MotorControl/low_level.cpp:213:29
	str	r1, [r0, #20]
.Ltmp70:
	.loc	1 214 9                         @ ../MotorControl/low_level.cpp:214:9
	bl	HAL_ADC_Init
.Ltmp71:
	.loc	1 214 9 is_stmt 0               @ ../MotorControl/low_level.cpp:214:9
	cbz	r0, .LBB9_2
	b	.LBB9_1
.LBB9_1:
.Ltmp72:
	.loc	1 215 29 is_stmt 1              @ ../MotorControl/low_level.cpp:215:29
	movw	r1, :lower16:odrv
	movt	r1, :upper16:odrv
	movw	r2, #17100
	movs	r0, #1
	strb	r0, [r1, r2]
	.loc	1 216 9                         @ ../MotorControl/low_level.cpp:216:9
	b	.LBB9_9
.Ltmp73:
.LBB9_2:
	.loc	1 0 9 is_stmt 0                 @ ../MotorControl/low_level.cpp:0:9
	movs	r0, #1
	.loc	1 220 26 is_stmt 1              @ ../MotorControl/low_level.cpp:220:26
	str	r0, [sp, #16]
	movs	r0, #0
.Ltmp74:
	.loc	1 221 19                        @ ../MotorControl/low_level.cpp:221:19
	str	r0, [sp, #4]
	.loc	1 221 10 is_stmt 0              @ ../MotorControl/low_level.cpp:221:10
	b	.LBB9_3
.LBB9_3:                                @ =>This Inner Loop Header: Depth=1
.Ltmp75:
	.loc	1 221 32                        @ ../MotorControl/low_level.cpp:221:32
	ldr	r0, [sp, #4]
.Ltmp76:
	.loc	1 221 5                         @ ../MotorControl/low_level.cpp:221:5
	cmp	r0, #15
	bhi	.LBB9_8
	b	.LBB9_4
.LBB9_4:                                @   in Loop: Header=BB9_3 Depth=1
.Ltmp77:
	.loc	1 222 27 is_stmt 1              @ ../MotorControl/low_level.cpp:222:27
	ldr	r0, [sp, #4]
	.loc	1 222 25 is_stmt 0              @ ../MotorControl/low_level.cpp:222:25
	str	r0, [sp, #8]
	.loc	1 223 24 is_stmt 1              @ ../MotorControl/low_level.cpp:223:24
	ldr	r0, [sp, #4]
	.loc	1 223 32 is_stmt 0              @ ../MotorControl/low_level.cpp:223:32
	adds	r0, #1
	.loc	1 223 22                        @ ../MotorControl/low_level.cpp:223:22
	str	r0, [sp, #12]
.Ltmp78:
	.loc	1 224 13 is_stmt 1              @ ../MotorControl/low_level.cpp:224:13
	movw	r0, :lower16:hadc1
	movt	r0, :upper16:hadc1
	add	r1, sp, #8
	bl	HAL_ADC_ConfigChannel
.Ltmp79:
	.loc	1 224 13 is_stmt 0              @ ../MotorControl/low_level.cpp:224:13
	cbz	r0, .LBB9_6
	b	.LBB9_5
.LBB9_5:
.Ltmp80:
	.loc	1 225 33 is_stmt 1              @ ../MotorControl/low_level.cpp:225:33
	movw	r1, :lower16:odrv
	movt	r1, :upper16:odrv
	movw	r2, #17100
	movs	r0, #1
	strb	r0, [r1, r2]
	.loc	1 226 13                        @ ../MotorControl/low_level.cpp:226:13
	b	.LBB9_9
.Ltmp81:
.LBB9_6:                                @   in Loop: Header=BB9_3 Depth=1
	.loc	1 228 5                         @ ../MotorControl/low_level.cpp:228:5
	b	.LBB9_7
.Ltmp82:
.LBB9_7:                                @   in Loop: Header=BB9_3 Depth=1
	.loc	1 221 61                        @ ../MotorControl/low_level.cpp:221:61
	ldr	r0, [sp, #4]
	adds	r0, #1
	str	r0, [sp, #4]
	.loc	1 221 5 is_stmt 0               @ ../MotorControl/low_level.cpp:221:5
	b	.LBB9_3
.Ltmp83:
.LBB9_8:
	.loc	1 230 5 is_stmt 1               @ ../MotorControl/low_level.cpp:230:5
	movw	r0, :lower16:hadc1
	movt	r0, :upper16:hadc1
	movw	r1, :lower16:adc_measurements_
	movt	r1, :upper16:adc_measurements_
	movs	r2, #16
	bl	HAL_ADC_Start_DMA
	.loc	1 231 1                         @ ../MotorControl/low_level.cpp:231:1
	b	.LBB9_9
.LBB9_9:
	.loc	1 231 1 epilogue_begin is_stmt 0 @ ../MotorControl/low_level.cpp:231:1
	add	sp, #24
	pop	{r7, pc}
.Ltmp84:
.Lfunc_end9:
	.size	start_general_purpose_adc, .Lfunc_end9-start_general_purpose_adc
	.cfi_endproc
	.cantunwind
	.fnend
                                        @ -- End function
	.section	.text.get_adc_voltage,"ax",%progbits
	.hidden	get_adc_voltage                 @ -- Begin function get_adc_voltage
	.globl	get_adc_voltage
	.p2align	2
	.type	get_adc_voltage,%function
	.code	16                              @ @get_adc_voltage
	.thumb_func
get_adc_voltage:
.Lfunc_begin10:
	.loc	1 250 0 is_stmt 1               @ ../MotorControl/low_level.cpp:250:0
	.fnstart
	.cfi_startproc
@ %bb.0:
	.save	{r7, lr}
	push	{r7, lr}
	.cfi_def_cfa_offset 8
	.cfi_offset lr, -4
	.cfi_offset r7, -8
	.pad	#16
	sub	sp, #16
	.cfi_def_cfa_offset 24
                                        @ kill: def $r2 killed $r1
                                        @ kill: def $r2 killed $r0
	str	r1, [sp, #12]
	str	r0, [sp, #8]
.Ltmp85:
	.loc	1 251 37 prologue_end           @ ../MotorControl/low_level.cpp:251:37
	ldr	r0, [sp, #8]
	ldr	r1, [sp, #12]
	str	r1, [sp, #4]
	str	r0, [sp]
	.loc	1 251 12 is_stmt 0              @ ../MotorControl/low_level.cpp:251:12
	ldr	r0, [sp]
	ldr	r1, [sp, #4]
	bl	get_adc_relative_voltage
	vldr	s2, .LCPI10_0
	.loc	1 251 43                        @ ../MotorControl/low_level.cpp:251:43
	vmul.f32	s0, s0, s2
	.loc	1 251 5 epilogue_begin          @ ../MotorControl/low_level.cpp:251:5
	add	sp, #16
	pop	{r7, pc}
.Ltmp86:
	.p2align	2
@ %bb.1:
	.loc	1 0 5                           @ ../MotorControl/low_level.cpp:0:5
.LCPI10_0:
	.long	0x40533333                      @ float 3.29999995
.Lfunc_end10:
	.size	get_adc_voltage, .Lfunc_end10-get_adc_voltage
	.cfi_endproc
	.cantunwind
	.fnend
                                        @ -- End function
	.section	.text.get_adc_relative_voltage,"ax",%progbits
	.hidden	get_adc_relative_voltage        @ -- Begin function get_adc_relative_voltage
	.globl	get_adc_relative_voltage
	.p2align	2
	.type	get_adc_relative_voltage,%function
	.code	16                              @ @get_adc_relative_voltage
	.thumb_func
get_adc_relative_voltage:
.Lfunc_begin11:
	.loc	1 254 0 is_stmt 1               @ ../MotorControl/low_level.cpp:254:0
	.fnstart
	.cfi_startproc
@ %bb.0:
	.save	{r7, lr}
	push	{r7, lr}
	.cfi_def_cfa_offset 8
	.cfi_offset lr, -4
	.cfi_offset r7, -8
	.pad	#24
	sub	sp, #24
	.cfi_def_cfa_offset 32
                                        @ kill: def $r2 killed $r1
                                        @ kill: def $r2 killed $r0
	str	r1, [sp, #20]
	str	r0, [sp, #16]
.Ltmp87:
	.loc	1 255 48 prologue_end           @ ../MotorControl/low_level.cpp:255:48
	ldr	r0, [sp, #16]
	ldr	r1, [sp, #20]
	str	r1, [sp, #8]
	str	r0, [sp, #4]
	.loc	1 255 30 is_stmt 0              @ ../MotorControl/low_level.cpp:255:30
	ldr	r0, [sp, #4]
	ldr	r1, [sp, #8]
	bl	channel_from_gpio
	.loc	1 255 20                        @ ../MotorControl/low_level.cpp:255:20
	strh.w	r0, [sp, #14]
	.loc	1 256 40 is_stmt 1              @ ../MotorControl/low_level.cpp:256:40
	ldrh.w	r0, [sp, #14]
	.loc	1 256 12 is_stmt 0              @ ../MotorControl/low_level.cpp:256:12
	bl	get_adc_relative_voltage_ch
	.loc	1 256 5 epilogue_begin          @ ../MotorControl/low_level.cpp:256:5
	add	sp, #24
	pop	{r7, pc}
.Ltmp88:
.Lfunc_end11:
	.size	get_adc_relative_voltage, .Lfunc_end11-get_adc_relative_voltage
	.cfi_endproc
	.cantunwind
	.fnend
                                        @ -- End function
	.section	.text.channel_from_gpio,"ax",%progbits
	.hidden	channel_from_gpio               @ -- Begin function channel_from_gpio
	.globl	channel_from_gpio
	.p2align	2
	.type	channel_from_gpio,%function
	.code	16                              @ @channel_from_gpio
	.thumb_func
channel_from_gpio:
.Lfunc_begin12:
	.loc	1 261 0 is_stmt 1               @ ../MotorControl/low_level.cpp:261:0
	.fnstart
	.cfi_startproc
@ %bb.0:
	.pad	#12
	sub	sp, #12
	.cfi_def_cfa_offset 12
                                        @ kill: def $r2 killed $r1
                                        @ kill: def $r2 killed $r0
	str	r1, [sp, #8]
	str	r0, [sp, #4]
	mov.w	r0, #-1
.Ltmp89:
	.loc	1 262 14 prologue_end           @ ../MotorControl/low_level.cpp:262:14
	str	r0, [sp]
.Ltmp90:
	.loc	1 263 14                        @ ../MotorControl/low_level.cpp:263:14
	ldr	r0, [sp, #4]
	movs	r1, #0
	movt	r1, #16386
.Ltmp91:
	.loc	1 263 9 is_stmt 0               @ ../MotorControl/low_level.cpp:263:9
	cmp	r0, r1
	bne	.LBB12_25
	b	.LBB12_1
.LBB12_1:
.Ltmp92:
	.loc	1 264 18 is_stmt 1              @ ../MotorControl/low_level.cpp:264:18
	ldrh.w	r0, [sp, #8]
.Ltmp93:
	.loc	1 264 13 is_stmt 0              @ ../MotorControl/low_level.cpp:264:13
	cmp	r0, #1
	bne	.LBB12_3
	b	.LBB12_2
.LBB12_2:
	.loc	1 0 13                          @ ../MotorControl/low_level.cpp:0:13
	movs	r0, #0
.Ltmp94:
	.loc	1 265 21 is_stmt 1              @ ../MotorControl/low_level.cpp:265:21
	str	r0, [sp]
	.loc	1 265 13 is_stmt 0              @ ../MotorControl/low_level.cpp:265:13
	b	.LBB12_24
.LBB12_3:
.Ltmp95:
	.loc	1 266 23 is_stmt 1              @ ../MotorControl/low_level.cpp:266:23
	ldrh.w	r0, [sp, #8]
.Ltmp96:
	.loc	1 266 18 is_stmt 0              @ ../MotorControl/low_level.cpp:266:18
	cmp	r0, #2
	bne	.LBB12_5
	b	.LBB12_4
.LBB12_4:
	.loc	1 0 18                          @ ../MotorControl/low_level.cpp:0:18
	movs	r0, #1
.Ltmp97:
	.loc	1 267 21 is_stmt 1              @ ../MotorControl/low_level.cpp:267:21
	str	r0, [sp]
	.loc	1 267 13 is_stmt 0              @ ../MotorControl/low_level.cpp:267:13
	b	.LBB12_23
.LBB12_5:
.Ltmp98:
	.loc	1 268 23 is_stmt 1              @ ../MotorControl/low_level.cpp:268:23
	ldrh.w	r0, [sp, #8]
.Ltmp99:
	.loc	1 268 18 is_stmt 0              @ ../MotorControl/low_level.cpp:268:18
	cmp	r0, #4
	bne	.LBB12_7
	b	.LBB12_6
.LBB12_6:
	.loc	1 0 18                          @ ../MotorControl/low_level.cpp:0:18
	movs	r0, #2
.Ltmp100:
	.loc	1 269 21 is_stmt 1              @ ../MotorControl/low_level.cpp:269:21
	str	r0, [sp]
	.loc	1 269 13 is_stmt 0              @ ../MotorControl/low_level.cpp:269:13
	b	.LBB12_22
.LBB12_7:
.Ltmp101:
	.loc	1 270 23 is_stmt 1              @ ../MotorControl/low_level.cpp:270:23
	ldrh.w	r0, [sp, #8]
.Ltmp102:
	.loc	1 270 18 is_stmt 0              @ ../MotorControl/low_level.cpp:270:18
	cmp	r0, #8
	bne	.LBB12_9
	b	.LBB12_8
.LBB12_8:
	.loc	1 0 18                          @ ../MotorControl/low_level.cpp:0:18
	movs	r0, #3
.Ltmp103:
	.loc	1 271 21 is_stmt 1              @ ../MotorControl/low_level.cpp:271:21
	str	r0, [sp]
	.loc	1 271 13 is_stmt 0              @ ../MotorControl/low_level.cpp:271:13
	b	.LBB12_21
.LBB12_9:
.Ltmp104:
	.loc	1 272 23 is_stmt 1              @ ../MotorControl/low_level.cpp:272:23
	ldrh.w	r0, [sp, #8]
.Ltmp105:
	.loc	1 272 18 is_stmt 0              @ ../MotorControl/low_level.cpp:272:18
	cmp	r0, #16
	bne	.LBB12_11
	b	.LBB12_10
.LBB12_10:
	.loc	1 0 18                          @ ../MotorControl/low_level.cpp:0:18
	movs	r0, #4
.Ltmp106:
	.loc	1 273 21 is_stmt 1              @ ../MotorControl/low_level.cpp:273:21
	str	r0, [sp]
	.loc	1 273 13 is_stmt 0              @ ../MotorControl/low_level.cpp:273:13
	b	.LBB12_20
.LBB12_11:
.Ltmp107:
	.loc	1 274 23 is_stmt 1              @ ../MotorControl/low_level.cpp:274:23
	ldrh.w	r0, [sp, #8]
.Ltmp108:
	.loc	1 274 18 is_stmt 0              @ ../MotorControl/low_level.cpp:274:18
	cmp	r0, #32
	bne	.LBB12_13
	b	.LBB12_12
.LBB12_12:
	.loc	1 0 18                          @ ../MotorControl/low_level.cpp:0:18
	movs	r0, #5
.Ltmp109:
	.loc	1 275 21 is_stmt 1              @ ../MotorControl/low_level.cpp:275:21
	str	r0, [sp]
	.loc	1 275 13 is_stmt 0              @ ../MotorControl/low_level.cpp:275:13
	b	.LBB12_19
.LBB12_13:
.Ltmp110:
	.loc	1 276 23 is_stmt 1              @ ../MotorControl/low_level.cpp:276:23
	ldrh.w	r0, [sp, #8]
.Ltmp111:
	.loc	1 276 18 is_stmt 0              @ ../MotorControl/low_level.cpp:276:18
	cmp	r0, #64
	bne	.LBB12_15
	b	.LBB12_14
.LBB12_14:
	.loc	1 0 18                          @ ../MotorControl/low_level.cpp:0:18
	movs	r0, #6
.Ltmp112:
	.loc	1 277 21 is_stmt 1              @ ../MotorControl/low_level.cpp:277:21
	str	r0, [sp]
	.loc	1 277 13 is_stmt 0              @ ../MotorControl/low_level.cpp:277:13
	b	.LBB12_18
.LBB12_15:
.Ltmp113:
	.loc	1 278 23 is_stmt 1              @ ../MotorControl/low_level.cpp:278:23
	ldrh.w	r0, [sp, #8]
.Ltmp114:
	.loc	1 278 18 is_stmt 0              @ ../MotorControl/low_level.cpp:278:18
	cmp	r0, #128
	bne	.LBB12_17
	b	.LBB12_16
.LBB12_16:
	.loc	1 0 18                          @ ../MotorControl/low_level.cpp:0:18
	movs	r0, #7
.Ltmp115:
	.loc	1 279 21 is_stmt 1              @ ../MotorControl/low_level.cpp:279:21
	str	r0, [sp]
	.loc	1 279 13 is_stmt 0              @ ../MotorControl/low_level.cpp:279:13
	b	.LBB12_17
.Ltmp116:
.LBB12_17:
	.loc	1 0 13                          @ ../MotorControl/low_level.cpp:0:13
	b	.LBB12_18
.LBB12_18:
	b	.LBB12_19
.LBB12_19:
	b	.LBB12_20
.LBB12_20:
	b	.LBB12_21
.LBB12_21:
	b	.LBB12_22
.LBB12_22:
	b	.LBB12_23
.LBB12_23:
	b	.LBB12_24
.LBB12_24:
	.loc	1 280 5 is_stmt 1               @ ../MotorControl/low_level.cpp:280:5
	b	.LBB12_53
.Ltmp117:
.LBB12_25:
	.loc	1 280 21 is_stmt 0              @ ../MotorControl/low_level.cpp:280:21
	ldr	r0, [sp, #4]
	movw	r1, #1024
	movt	r1, #16386
.Ltmp118:
	.loc	1 280 16                        @ ../MotorControl/low_level.cpp:280:16
	cmp	r0, r1
	bne	.LBB12_32
	b	.LBB12_26
.LBB12_26:
.Ltmp119:
	.loc	1 281 18 is_stmt 1              @ ../MotorControl/low_level.cpp:281:18
	ldrh.w	r0, [sp, #8]
.Ltmp120:
	.loc	1 281 13 is_stmt 0              @ ../MotorControl/low_level.cpp:281:13
	cmp	r0, #1
	bne	.LBB12_28
	b	.LBB12_27
.LBB12_27:
	.loc	1 0 13                          @ ../MotorControl/low_level.cpp:0:13
	movs	r0, #8
.Ltmp121:
	.loc	1 282 21 is_stmt 1              @ ../MotorControl/low_level.cpp:282:21
	str	r0, [sp]
	.loc	1 282 13 is_stmt 0              @ ../MotorControl/low_level.cpp:282:13
	b	.LBB12_31
.LBB12_28:
.Ltmp122:
	.loc	1 283 23 is_stmt 1              @ ../MotorControl/low_level.cpp:283:23
	ldrh.w	r0, [sp, #8]
.Ltmp123:
	.loc	1 283 18 is_stmt 0              @ ../MotorControl/low_level.cpp:283:18
	cmp	r0, #2
	bne	.LBB12_30
	b	.LBB12_29
.LBB12_29:
	.loc	1 0 18                          @ ../MotorControl/low_level.cpp:0:18
	movs	r0, #9
.Ltmp124:
	.loc	1 284 21 is_stmt 1              @ ../MotorControl/low_level.cpp:284:21
	str	r0, [sp]
	.loc	1 284 13 is_stmt 0              @ ../MotorControl/low_level.cpp:284:13
	b	.LBB12_30
.Ltmp125:
.LBB12_30:
	.loc	1 0 13                          @ ../MotorControl/low_level.cpp:0:13
	b	.LBB12_31
.LBB12_31:
	.loc	1 285 5 is_stmt 1               @ ../MotorControl/low_level.cpp:285:5
	b	.LBB12_52
.Ltmp126:
.LBB12_32:
	.loc	1 285 21 is_stmt 0              @ ../MotorControl/low_level.cpp:285:21
	ldr	r0, [sp, #4]
	movw	r1, #2048
	movt	r1, #16386
.Ltmp127:
	.loc	1 285 16                        @ ../MotorControl/low_level.cpp:285:16
	cmp	r0, r1
	bne	.LBB12_51
	b	.LBB12_33
.LBB12_33:
.Ltmp128:
	.loc	1 286 18 is_stmt 1              @ ../MotorControl/low_level.cpp:286:18
	ldrh.w	r0, [sp, #8]
.Ltmp129:
	.loc	1 286 13 is_stmt 0              @ ../MotorControl/low_level.cpp:286:13
	cmp	r0, #1
	bne	.LBB12_35
	b	.LBB12_34
.LBB12_34:
	.loc	1 0 13                          @ ../MotorControl/low_level.cpp:0:13
	movs	r0, #10
.Ltmp130:
	.loc	1 287 21 is_stmt 1              @ ../MotorControl/low_level.cpp:287:21
	str	r0, [sp]
	.loc	1 287 13 is_stmt 0              @ ../MotorControl/low_level.cpp:287:13
	b	.LBB12_50
.LBB12_35:
.Ltmp131:
	.loc	1 288 23 is_stmt 1              @ ../MotorControl/low_level.cpp:288:23
	ldrh.w	r0, [sp, #8]
.Ltmp132:
	.loc	1 288 18 is_stmt 0              @ ../MotorControl/low_level.cpp:288:18
	cmp	r0, #2
	bne	.LBB12_37
	b	.LBB12_36
.LBB12_36:
	.loc	1 0 18                          @ ../MotorControl/low_level.cpp:0:18
	movs	r0, #11
.Ltmp133:
	.loc	1 289 21 is_stmt 1              @ ../MotorControl/low_level.cpp:289:21
	str	r0, [sp]
	.loc	1 289 13 is_stmt 0              @ ../MotorControl/low_level.cpp:289:13
	b	.LBB12_49
.LBB12_37:
.Ltmp134:
	.loc	1 290 23 is_stmt 1              @ ../MotorControl/low_level.cpp:290:23
	ldrh.w	r0, [sp, #8]
.Ltmp135:
	.loc	1 290 18 is_stmt 0              @ ../MotorControl/low_level.cpp:290:18
	cmp	r0, #4
	bne	.LBB12_39
	b	.LBB12_38
.LBB12_38:
	.loc	1 0 18                          @ ../MotorControl/low_level.cpp:0:18
	movs	r0, #12
.Ltmp136:
	.loc	1 291 21 is_stmt 1              @ ../MotorControl/low_level.cpp:291:21
	str	r0, [sp]
	.loc	1 291 13 is_stmt 0              @ ../MotorControl/low_level.cpp:291:13
	b	.LBB12_48
.LBB12_39:
.Ltmp137:
	.loc	1 292 23 is_stmt 1              @ ../MotorControl/low_level.cpp:292:23
	ldrh.w	r0, [sp, #8]
.Ltmp138:
	.loc	1 292 18 is_stmt 0              @ ../MotorControl/low_level.cpp:292:18
	cmp	r0, #8
	bne	.LBB12_41
	b	.LBB12_40
.LBB12_40:
	.loc	1 0 18                          @ ../MotorControl/low_level.cpp:0:18
	movs	r0, #13
.Ltmp139:
	.loc	1 293 21 is_stmt 1              @ ../MotorControl/low_level.cpp:293:21
	str	r0, [sp]
	.loc	1 293 13 is_stmt 0              @ ../MotorControl/low_level.cpp:293:13
	b	.LBB12_47
.LBB12_41:
.Ltmp140:
	.loc	1 294 23 is_stmt 1              @ ../MotorControl/low_level.cpp:294:23
	ldrh.w	r0, [sp, #8]
.Ltmp141:
	.loc	1 294 18 is_stmt 0              @ ../MotorControl/low_level.cpp:294:18
	cmp	r0, #16
	bne	.LBB12_43
	b	.LBB12_42
.LBB12_42:
	.loc	1 0 18                          @ ../MotorControl/low_level.cpp:0:18
	movs	r0, #14
.Ltmp142:
	.loc	1 295 21 is_stmt 1              @ ../MotorControl/low_level.cpp:295:21
	str	r0, [sp]
	.loc	1 295 13 is_stmt 0              @ ../MotorControl/low_level.cpp:295:13
	b	.LBB12_46
.LBB12_43:
.Ltmp143:
	.loc	1 296 23 is_stmt 1              @ ../MotorControl/low_level.cpp:296:23
	ldrh.w	r0, [sp, #8]
.Ltmp144:
	.loc	1 296 18 is_stmt 0              @ ../MotorControl/low_level.cpp:296:18
	cmp	r0, #32
	bne	.LBB12_45
	b	.LBB12_44
.LBB12_44:
	.loc	1 0 18                          @ ../MotorControl/low_level.cpp:0:18
	movs	r0, #15
.Ltmp145:
	.loc	1 297 21 is_stmt 1              @ ../MotorControl/low_level.cpp:297:21
	str	r0, [sp]
	.loc	1 297 13 is_stmt 0              @ ../MotorControl/low_level.cpp:297:13
	b	.LBB12_45
.Ltmp146:
.LBB12_45:
	.loc	1 0 13                          @ ../MotorControl/low_level.cpp:0:13
	b	.LBB12_46
.LBB12_46:
	b	.LBB12_47
.LBB12_47:
	b	.LBB12_48
.LBB12_48:
	b	.LBB12_49
.LBB12_49:
	b	.LBB12_50
.LBB12_50:
	.loc	1 298 5 is_stmt 1               @ ../MotorControl/low_level.cpp:298:5
	b	.LBB12_51
.Ltmp147:
.LBB12_51:
	.loc	1 0 5 is_stmt 0                 @ ../MotorControl/low_level.cpp:0:5
	b	.LBB12_52
.LBB12_52:
	b	.LBB12_53
.LBB12_53:
	.loc	1 299 12 is_stmt 1              @ ../MotorControl/low_level.cpp:299:12
	ldrh.w	r0, [sp]
	.loc	1 299 5 epilogue_begin is_stmt 0 @ ../MotorControl/low_level.cpp:299:5
	add	sp, #12
	bx	lr
.Ltmp148:
.Lfunc_end12:
	.size	channel_from_gpio, .Lfunc_end12-channel_from_gpio
	.cfi_endproc
	.cantunwind
	.fnend
                                        @ -- End function
	.section	.text.get_adc_relative_voltage_ch,"ax",%progbits
	.hidden	get_adc_relative_voltage_ch     @ -- Begin function get_adc_relative_voltage_ch
	.globl	get_adc_relative_voltage_ch
	.p2align	2
	.type	get_adc_relative_voltage_ch,%function
	.code	16                              @ @get_adc_relative_voltage_ch
	.thumb_func
get_adc_relative_voltage_ch:
.Lfunc_begin13:
	.loc	1 304 0 is_stmt 1               @ ../MotorControl/low_level.cpp:304:0
	.fnstart
	.cfi_startproc
@ %bb.0:
	.pad	#12
	sub	sp, #12
	.cfi_def_cfa_offset 12
	add	r1, sp, #8
	str	r1, [sp]                        @ 4-byte Spill
                                        @ kill: def $r1 killed $r0
	strh.w	r0, [sp, #6]
.Ltmp149:
	.loc	1 305 9 prologue_end            @ ../MotorControl/low_level.cpp:305:9
	ldrh.w	r0, [sp, #6]
.Ltmp150:
	.loc	1 305 9 is_stmt 0               @ ../MotorControl/low_level.cpp:305:9
	cmp	r0, #15
	bgt	.LBB13_2
	b	.LBB13_1
.LBB13_1:
.Ltmp151:
	.loc	1 306 41 is_stmt 1              @ ../MotorControl/low_level.cpp:306:41
	ldr	r0, [sp]                        @ 4-byte Reload
	ldrh.w	r2, [sp, #6]
	.loc	1 306 23 is_stmt 0              @ ../MotorControl/low_level.cpp:306:23
	movw	r1, :lower16:adc_measurements_
	movt	r1, :upper16:adc_measurements_
	ldrh.w	r1, [r1, r2, lsl #1]
	vmov	s0, r1
	vcvt.f32.u32	s0, s0
	vldr	s2, .LCPI13_0
	.loc	1 306 50                        @ ../MotorControl/low_level.cpp:306:50
	vdiv.f32	s0, s0, s2
	.loc	1 306 9                         @ ../MotorControl/low_level.cpp:306:9
	vstr	s0, [r0]
	b	.LBB13_3
.LBB13_2:
	.loc	1 0 9                           @ ../MotorControl/low_level.cpp:0:9
	movs	r0, #0
	movt	r0, #49024
	.loc	1 308 9 is_stmt 1               @ ../MotorControl/low_level.cpp:308:9
	str	r0, [sp, #8]
	b	.LBB13_3
.Ltmp152:
.LBB13_3:
	.loc	1 309 1                         @ ../MotorControl/low_level.cpp:309:1
	ldr	r0, [sp]                        @ 4-byte Reload
	vldr	s0, [r0]
	.loc	1 309 1 epilogue_begin is_stmt 0 @ ../MotorControl/low_level.cpp:309:1
	add	sp, #12
	bx	lr
.Ltmp153:
	.p2align	2
@ %bb.4:
	.loc	1 0 1                           @ ../MotorControl/low_level.cpp:0:1
.LCPI13_0:
	.long	0x45800000                      @ float 4096
.Lfunc_end13:
	.size	get_adc_relative_voltage_ch, .Lfunc_end13-get_adc_relative_voltage_ch
	.cfi_endproc
	.cantunwind
	.fnend
                                        @ -- End function
	.section	.text.vbus_sense_adc_cb,"ax",%progbits
	.hidden	vbus_sense_adc_cb               @ -- Begin function vbus_sense_adc_cb
	.globl	vbus_sense_adc_cb
	.p2align	2
	.type	vbus_sense_adc_cb,%function
	.code	16                              @ @vbus_sense_adc_cb
	.thumb_func
vbus_sense_adc_cb:
.Lfunc_begin14:
	.loc	1 315 0 is_stmt 1               @ ../MotorControl/low_level.cpp:315:0
	.fnstart
	.cfi_startproc
@ %bb.0:
	.pad	#8
	sub	sp, #8
	.cfi_def_cfa_offset 8
	str	r0, [sp, #4]
	movw	r0, #52429
	movt	r0, #15482
.Ltmp154:
	.loc	1 316 21 prologue_end           @ ../MotorControl/low_level.cpp:316:21
	str	r0, [sp]
	.loc	1 317 20                        @ ../MotorControl/low_level.cpp:317:20
	vldr	s0, [sp, #4]
	vcvt.f32.u32	s0, s0
	vldr	s2, .LCPI14_0
	.loc	1 317 30 is_stmt 0              @ ../MotorControl/low_level.cpp:317:30
	vmul.f32	s0, s0, s2
	.loc	1 317 18                        @ ../MotorControl/low_level.cpp:317:18
	movw	r0, :lower16:vbus_voltage
	movt	r0, :upper16:vbus_voltage
	vstr	s0, [r0]
	.loc	1 318 1 epilogue_begin is_stmt 1 @ ../MotorControl/low_level.cpp:318:1
	add	sp, #8
	bx	lr
.Ltmp155:
	.p2align	2
@ %bb.1:
	.loc	1 0 1 is_stmt 0                 @ ../MotorControl/low_level.cpp:0:1
.LCPI14_0:
	.long	0x3c7acccd                      @ float 0.0153076174
.Lfunc_end14:
	.size	vbus_sense_adc_cb, .Lfunc_end14-vbus_sense_adc_cb
	.cfi_endproc
	.cantunwind
	.fnend
                                        @ -- End function
	.section	.text.update_brake_current,"ax",%progbits
	.hidden	update_brake_current            @ -- Begin function update_brake_current
	.globl	update_brake_current
	.p2align	2
	.type	update_brake_current,%function
	.code	16                              @ @update_brake_current
	.thumb_func
update_brake_current:
.Lfunc_begin15:
	.loc	1 322 0 is_stmt 1               @ ../MotorControl/low_level.cpp:322:0
	.fnstart
	.cfi_startproc
@ %bb.0:
	.save	{r7, lr}
	push	{r7, lr}
	.cfi_def_cfa_offset 8
	.cfi_offset lr, -4
	.cfi_offset r7, -8
	.pad	#40
	sub	sp, #40
	.cfi_def_cfa_offset 48
	movs	r0, #0
.Ltmp156:
	.loc	1 323 11 prologue_end           @ ../MotorControl/low_level.cpp:323:11
	str	r0, [sp, #36]
.Ltmp157:
	.loc	1 324 17                        @ ../MotorControl/low_level.cpp:324:17
	str	r0, [sp, #32]
	.loc	1 324 10 is_stmt 0              @ ../MotorControl/low_level.cpp:324:10
	b	.LBB15_1
.LBB15_1:                               @ =>This Inner Loop Header: Depth=1
.Ltmp158:
	.loc	1 324 24                        @ ../MotorControl/low_level.cpp:324:24
	ldr	r0, [sp, #32]
.Ltmp159:
	.loc	1 324 5                         @ ../MotorControl/low_level.cpp:324:5
	cmp	r0, #1
	bhi	.LBB15_6
	b	.LBB15_2
.LBB15_2:                               @   in Loop: Header=BB15_1 Depth=1
.Ltmp160:
	.loc	1 325 18 is_stmt 1              @ ../MotorControl/low_level.cpp:325:18
	ldr	r1, [sp, #32]
	.loc	1 325 13 is_stmt 0              @ ../MotorControl/low_level.cpp:325:13
	movw	r0, :lower16:axes
	movt	r0, :upper16:axes
	bl	_ZNSt3__25arrayI4AxisLj2EEixB7v180000Ej
	.loc	1 325 21                        @ ../MotorControl/low_level.cpp:325:21
	ldr.w	r0, [r0, #344]
	.loc	1 325 28                        @ ../MotorControl/low_level.cpp:325:28
	ldrb.w	r0, [r0, #164]
.Ltmp161:
	.loc	1 325 13                        @ ../MotorControl/low_level.cpp:325:13
	lsls	r0, r0, #31
	cbz	r0, .LBB15_4
	b	.LBB15_3
.LBB15_3:                               @   in Loop: Header=BB15_1 Depth=1
.Ltmp162:
	.loc	1 326 30 is_stmt 1              @ ../MotorControl/low_level.cpp:326:30
	ldr	r1, [sp, #32]
	.loc	1 326 25 is_stmt 0              @ ../MotorControl/low_level.cpp:326:25
	movw	r0, :lower16:axes
	movt	r0, :upper16:axes
	bl	_ZNSt3__25arrayI4AxisLj2EEixB7v180000Ej
	.loc	1 326 33                        @ ../MotorControl/low_level.cpp:326:33
	ldr.w	r0, [r0, #344]
	.loc	1 326 40                        @ ../MotorControl/low_level.cpp:326:40
	vldr	s2, [r0, #200]
	.loc	1 326 22                        @ ../MotorControl/low_level.cpp:326:22
	vldr	s0, [sp, #36]
	vadd.f32	s0, s0, s2
	vstr	s0, [sp, #36]
	.loc	1 327 9 is_stmt 1               @ ../MotorControl/low_level.cpp:327:9
	b	.LBB15_4
.Ltmp163:
.LBB15_4:                               @   in Loop: Header=BB15_1 Depth=1
	.loc	1 328 5                         @ ../MotorControl/low_level.cpp:328:5
	b	.LBB15_5
.Ltmp164:
.LBB15_5:                               @   in Loop: Header=BB15_1 Depth=1
	.loc	1 324 40                        @ ../MotorControl/low_level.cpp:324:40
	ldr	r0, [sp, #32]
	adds	r0, #1
	str	r0, [sp, #32]
	.loc	1 324 5 is_stmt 0               @ ../MotorControl/low_level.cpp:324:5
	b	.LBB15_1
.Ltmp165:
.LBB15_6:
	.loc	1 0 5                           @ ../MotorControl/low_level.cpp:0:5
	movs	r0, #0
	.loc	1 330 11 is_stmt 1              @ ../MotorControl/low_level.cpp:330:11
	str	r0, [sp, #28]
	.loc	1 331 11                        @ ../MotorControl/low_level.cpp:331:11
	str	r0, [sp, #24]
.Ltmp166:
	.loc	1 332 22                        @ ../MotorControl/low_level.cpp:332:22
	movw	r0, :lower16:odrv
	movt	r0, :upper16:odrv
	movw	r1, #16808
	ldrb	r0, [r0, r1]
.Ltmp167:
	.loc	1 332 9 is_stmt 0               @ ../MotorControl/low_level.cpp:332:9
	lsls	r0, r0, #31
	cmp	r0, #0
	beq.w	.LBB15_18
	b	.LBB15_7
.LBB15_7:
.Ltmp168:
	.loc	1 333 28 is_stmt 1              @ ../MotorControl/low_level.cpp:333:28
	movw	r0, :lower16:odrv
	movt	r0, :upper16:odrv
	movw	r1, #16804
	add	r0, r1
	vldr	s0, [r0]
.Ltmp169:
	.loc	1 333 13 is_stmt 0              @ ../MotorControl/low_level.cpp:333:13
	vcmp.f32	s0, #0
	vmrs	APSR_nzcv, fpscr
	bgt	.LBB15_9
	b	.LBB15_8
.LBB15_8:
.Ltmp170:
	.loc	1 334 18 is_stmt 1              @ ../MotorControl/low_level.cpp:334:18
	movw	r0, :lower16:odrv
	movt	r0, :upper16:odrv
	movs	r1, #128
	bl	_ZN6ODrive17disarm_with_errorEN10ODriveIntf5ErrorE
	.loc	1 335 13                        @ ../MotorControl/low_level.cpp:335:13
	b	.LBB15_26
.Ltmp171:
.LBB15_9:
	.loc	1 339 26                        @ ../MotorControl/low_level.cpp:339:26
	vldr	s0, [sp, #36]
	.loc	1 339 25 is_stmt 0              @ ../MotorControl/low_level.cpp:339:25
	vneg.f32	s0, s0
	.loc	1 339 50                        @ ../MotorControl/low_level.cpp:339:50
	movw	r0, :lower16:odrv
	movt	r0, :upper16:odrv
	movw	r1, #16760
	add	r0, r1
	vldr	s2, [r0, #40]
	.loc	1 339 35                        @ ../MotorControl/low_level.cpp:339:35
	vsub.f32	s0, s0, s2
	.loc	1 339 23                        @ ../MotorControl/low_level.cpp:339:23
	vstr	s0, [sp, #24]
	.loc	1 340 22 is_stmt 1              @ ../MotorControl/low_level.cpp:340:22
	vldr	s0, [sp, #24]
	.loc	1 340 51 is_stmt 0              @ ../MotorControl/low_level.cpp:340:51
	vldr	s2, [r0, #44]
	.loc	1 340 36                        @ ../MotorControl/low_level.cpp:340:36
	vmul.f32	s0, s0, s2
	.loc	1 340 70                        @ ../MotorControl/low_level.cpp:340:70
	movw	r1, :lower16:vbus_voltage
	movt	r1, :upper16:vbus_voltage
	vldr	s2, [r1]
	.loc	1 340 68                        @ ../MotorControl/low_level.cpp:340:68
	vdiv.f32	s0, s0, s2
	.loc	1 340 20                        @ ../MotorControl/low_level.cpp:340:20
	vstr	s0, [sp, #28]
.Ltmp172:
	.loc	1 342 26 is_stmt 1              @ ../MotorControl/low_level.cpp:342:26
	ldrb.w	r0, [r0, #60]
	.loc	1 342 57 is_stmt 0              @ ../MotorControl/low_level.cpp:342:57
	lsls	r0, r0, #31
	cmp	r0, #0
	beq	.LBB15_13
	b	.LBB15_10
.LBB15_10:
	.loc	1 342 74                        @ ../MotorControl/low_level.cpp:342:74
	movw	r0, :lower16:odrv
	movt	r0, :upper16:odrv
	movw	r1, #16804
	add	r0, r1
	vldr	s0, [r0]
	.loc	1 342 99                        @ ../MotorControl/low_level.cpp:342:99
	vcmp.f32	s0, #0
	vmrs	APSR_nzcv, fpscr
	ble	.LBB15_13
	b	.LBB15_11
.LBB15_11:
	.loc	1 342 116                       @ ../MotorControl/low_level.cpp:342:116
	movw	r0, :lower16:odrv
	movt	r0, :upper16:odrv
	movw	r1, #16760
	add	r0, r1
	vldr	s0, [r0, #64]
	.loc	1 342 161                       @ ../MotorControl/low_level.cpp:342:161
	vldr	s2, [r0, #68]
.Ltmp173:
	.loc	1 342 13                        @ ../MotorControl/low_level.cpp:342:13
	vcmp.f32	s0, s2
	vmrs	APSR_nzcv, fpscr
	bge	.LBB15_13
	b	.LBB15_12
.LBB15_12:
.Ltmp174:
	.loc	1 343 37 is_stmt 1              @ ../MotorControl/low_level.cpp:343:37
	movw	r0, :lower16:vbus_voltage
	movt	r0, :upper16:vbus_voltage
	vldr	s0, [r0]
	.loc	1 343 65 is_stmt 0              @ ../MotorControl/low_level.cpp:343:65
	movw	r0, :lower16:odrv
	movt	r0, :upper16:odrv
	movw	r1, #16760
	add	r0, r1
	vldr	s4, [r0, #64]
	.loc	1 343 112                       @ ../MotorControl/low_level.cpp:343:112
	vldr	s2, [r0, #68]
	.loc	1 343 50                        @ ../MotorControl/low_level.cpp:343:50
	vsub.f32	s0, s0, s4
	.loc	1 343 140                       @ ../MotorControl/low_level.cpp:343:140
	vsub.f32	s2, s2, s4
	.loc	1 343 96                        @ ../MotorControl/low_level.cpp:343:96
	vdiv.f32	s0, s0, s2
	.loc	1 343 36                        @ ../MotorControl/low_level.cpp:343:36
	vstr	s0, [sp, #20]
	movs	r0, #0
	.loc	1 343 187                       @ ../MotorControl/low_level.cpp:343:187
	str	r0, [sp, #16]
	add	r0, sp, #20
	add	r1, sp, #16
	.loc	1 343 27                        @ ../MotorControl/low_level.cpp:343:27
	bl	_ZNSt3__23maxB7v180000IfEERKT_S3_S3_
	vldr	s2, [r0]
	.loc	1 343 24                        @ ../MotorControl/low_level.cpp:343:24
	vldr	s0, [sp, #28]
	vadd.f32	s0, s0, s2
	vstr	s0, [sp, #28]
	.loc	1 344 9 is_stmt 1               @ ../MotorControl/low_level.cpp:344:9
	b	.LBB15_13
.Ltmp175:
.LBB15_13:
	.loc	1 346 20                        @ ../MotorControl/low_level.cpp:346:20
	vldr	s0, [sp, #28]
	.loc	1 346 13 is_stmt 0              @ ../MotorControl/low_level.cpp:346:13
	bl	_Z6is_nanf
.Ltmp176:
	.loc	1 346 13                        @ ../MotorControl/low_level.cpp:346:13
	cbz	r0, .LBB15_15
	b	.LBB15_14
.LBB15_14:
.Ltmp177:
	.loc	1 348 18 is_stmt 1              @ ../MotorControl/low_level.cpp:348:18
	movw	r0, :lower16:odrv
	movt	r0, :upper16:odrv
	movs	r1, #64
	bl	_ZN6ODrive17disarm_with_errorEN10ODriveIntf5ErrorE
	.loc	1 349 13                        @ ../MotorControl/low_level.cpp:349:13
	b	.LBB15_26
.Ltmp178:
.LBB15_15:
	.loc	1 352 13                        @ ../MotorControl/low_level.cpp:352:13
	vldr	s0, [sp, #28]
	vldr	s2, .LCPI15_0
.Ltmp179:
	.loc	1 352 13 is_stmt 0              @ ../MotorControl/low_level.cpp:352:13
	vcmp.f32	s0, s2
	vmrs	APSR_nzcv, fpscr
	blt	.LBB15_17
	b	.LBB15_16
.LBB15_16:
.Ltmp180:
	.loc	1 353 38 is_stmt 1              @ ../MotorControl/low_level.cpp:353:38
	movw	r1, :lower16:brake_resistor_saturated
	movt	r1, :upper16:brake_resistor_saturated
	movs	r0, #1
	strb	r0, [r1]
	.loc	1 354 9                         @ ../MotorControl/low_level.cpp:354:9
	b	.LBB15_17
.Ltmp181:
.LBB15_17:
	.loc	1 0 9 is_stmt 0                 @ ../MotorControl/low_level.cpp:0:9
	movs	r0, #0
	.loc	1 357 45 is_stmt 1              @ ../MotorControl/low_level.cpp:357:45
	str	r0, [sp, #12]
	movw	r0, #13107
	movt	r0, #16243
	.loc	1 357 51 is_stmt 0              @ ../MotorControl/low_level.cpp:357:51
	str	r0, [sp, #8]
	add	r0, sp, #28
	add	r1, sp, #12
	add	r2, sp, #8
	.loc	1 357 22                        @ ../MotorControl/low_level.cpp:357:22
	bl	_ZNSt3__25clampB7v180000IfEERKT_S3_S3_S3_
	ldr	r0, [r0]
	.loc	1 357 20                        @ ../MotorControl/low_level.cpp:357:20
	str	r0, [sp, #28]
	.loc	1 361 25 is_stmt 1              @ ../MotorControl/low_level.cpp:361:25
	vldr	s0, [sp, #28]
	.loc	1 361 38 is_stmt 0              @ ../MotorControl/low_level.cpp:361:38
	movw	r1, :lower16:vbus_voltage
	movt	r1, :upper16:vbus_voltage
	vldr	s2, [r1]
	.loc	1 361 36                        @ ../MotorControl/low_level.cpp:361:36
	vmul.f32	s0, s0, s2
	.loc	1 361 66                        @ ../MotorControl/low_level.cpp:361:66
	movw	r0, :lower16:odrv
	movt	r0, :upper16:odrv
	movw	r2, #16804
	add	r0, r2
	vldr	s2, [r0]
	.loc	1 361 51                        @ ../MotorControl/low_level.cpp:361:51
	vdiv.f32	s0, s0, s2
	.loc	1 361 23                        @ ../MotorControl/low_level.cpp:361:23
	vstr	s0, [sp, #24]
	.loc	1 362 21 is_stmt 1              @ ../MotorControl/low_level.cpp:362:21
	vldr	s0, [sp, #28]
	.loc	1 362 34 is_stmt 0              @ ../MotorControl/low_level.cpp:362:34
	vldr	s2, [r1]
	.loc	1 362 32                        @ ../MotorControl/low_level.cpp:362:32
	vmul.f32	s0, s0, s2
	.loc	1 362 62                        @ ../MotorControl/low_level.cpp:362:62
	vldr	s2, [r0]
	.loc	1 362 47                        @ ../MotorControl/low_level.cpp:362:47
	vdiv.f32	s2, s0, s2
	.loc	1 362 18                        @ ../MotorControl/low_level.cpp:362:18
	vldr	s0, [sp, #36]
	vadd.f32	s0, s0, s2
	vstr	s0, [sp, #36]
	.loc	1 363 5 is_stmt 1               @ ../MotorControl/low_level.cpp:363:5
	b	.LBB15_19
.Ltmp182:
.LBB15_18:
	.loc	1 0 5 is_stmt 0                 @ ../MotorControl/low_level.cpp:0:5
	movs	r0, #0
.Ltmp183:
	.loc	1 364 20 is_stmt 1              @ ../MotorControl/low_level.cpp:364:20
	str	r0, [sp, #28]
	b	.LBB15_19
.Ltmp184:
.LBB15_19:
	.loc	1 367 30                        @ ../MotorControl/low_level.cpp:367:30
	ldr	r0, [sp, #24]
	.loc	1 367 28 is_stmt 0              @ ../MotorControl/low_level.cpp:367:28
	movw	r1, :lower16:brake_resistor_current
	movt	r1, :upper16:brake_resistor_current
	str	r0, [r1]
	.loc	1 368 19 is_stmt 1              @ ../MotorControl/low_level.cpp:368:19
	movw	r0, :lower16:odrv
	movt	r0, :upper16:odrv
	vldr	s0, [r0, #68]
	.loc	1 368 44 is_stmt 0              @ ../MotorControl/low_level.cpp:368:44
	vldr	s4, [sp, #36]
	.loc	1 368 55                        @ ../MotorControl/low_level.cpp:368:55
	movw	r1, :lower16:ibus_
	movt	r1, :upper16:ibus_
	vldr	s2, [r1]
	.loc	1 368 53                        @ ../MotorControl/low_level.cpp:368:53
	vsub.f32	s4, s4, s2
	.loc	1 368 11                        @ ../MotorControl/low_level.cpp:368:11
	vmul.f32	s0, s0, s4
	vadd.f32	s0, s0, s2
	vstr	s0, [r1]
.Ltmp185:
	.loc	1 370 9 is_stmt 1               @ ../MotorControl/low_level.cpp:370:9
	vldr	s0, [sp, #36]
	movw	r1, #16832
	.loc	1 370 33 is_stmt 0              @ ../MotorControl/low_level.cpp:370:33
	add	r0, r1
	vldr	s2, [r0]
.Ltmp186:
	.loc	1 370 9                         @ ../MotorControl/low_level.cpp:370:9
	vcmp.f32	s0, s2
	vmrs	APSR_nzcv, fpscr
	ble	.LBB15_21
	b	.LBB15_20
.LBB15_20:
.Ltmp187:
	.loc	1 371 14 is_stmt 1              @ ../MotorControl/low_level.cpp:371:14
	movw	r0, :lower16:odrv
	movt	r0, :upper16:odrv
	movs	r1, #16
	bl	_ZN6ODrive17disarm_with_errorEN10ODriveIntf5ErrorE
	.loc	1 372 9                         @ ../MotorControl/low_level.cpp:372:9
	b	.LBB15_26
.Ltmp188:
.LBB15_21:
	.loc	1 374 9                         @ ../MotorControl/low_level.cpp:374:9
	vldr	s0, [sp, #36]
	.loc	1 374 33 is_stmt 0              @ ../MotorControl/low_level.cpp:374:33
	movw	r0, :lower16:odrv
	movt	r0, :upper16:odrv
	movw	r1, #16836
	add	r0, r1
	vldr	s2, [r0]
.Ltmp189:
	.loc	1 374 9                         @ ../MotorControl/low_level.cpp:374:9
	vcmp.f32	s0, s2
	vmrs	APSR_nzcv, fpscr
	bge	.LBB15_23
	b	.LBB15_22
.LBB15_22:
.Ltmp190:
	.loc	1 375 14 is_stmt 1              @ ../MotorControl/low_level.cpp:375:14
	movw	r0, :lower16:odrv
	movt	r0, :upper16:odrv
	movs	r1, #8
	bl	_ZN6ODrive17disarm_with_errorEN10ODriveIntf5ErrorE
	.loc	1 376 9                         @ ../MotorControl/low_level.cpp:376:9
	b	.LBB15_26
.Ltmp191:
.LBB15_23:
	.loc	1 379 58                        @ ../MotorControl/low_level.cpp:379:58
	vldr	s2, [sp, #28]
	vmov.f32	s0, #1.000000e+00
	.loc	1 379 56 is_stmt 0              @ ../MotorControl/low_level.cpp:379:56
	vsub.f32	s0, s0, s2
	vldr	s2, .LCPI15_1
	.loc	1 379 48                        @ ../MotorControl/low_level.cpp:379:48
	vmul.f32	s0, s0, s2
	.loc	1 379 9                         @ ../MotorControl/low_level.cpp:379:9
	vcvt.s32.f32	s0, s0
	vstr	s0, [sp, #4]
	.loc	1 380 19 is_stmt 1              @ ../MotorControl/low_level.cpp:380:19
	ldr	r0, [sp, #4]
	.loc	1 380 27 is_stmt 0              @ ../MotorControl/low_level.cpp:380:27
	subs	r0, #40
	.loc	1 380 9                         @ ../MotorControl/low_level.cpp:380:9
	str	r0, [sp]
.Ltmp192:
	.loc	1 381 9 is_stmt 1               @ ../MotorControl/low_level.cpp:381:9
	ldr	r0, [sp]
.Ltmp193:
	.loc	1 381 9 is_stmt 0               @ ../MotorControl/low_level.cpp:381:9
	cmp.w	r0, #-1
	bgt	.LBB15_25
	b	.LBB15_24
.LBB15_24:
	.loc	1 0 9                           @ ../MotorControl/low_level.cpp:0:9
	movs	r0, #0
.Ltmp194:
	.loc	1 381 30                        @ ../MotorControl/low_level.cpp:381:30
	str	r0, [sp]
	.loc	1 381 22                        @ ../MotorControl/low_level.cpp:381:22
	b	.LBB15_25
.Ltmp195:
.LBB15_25:
	.loc	1 382 50 is_stmt 1              @ ../MotorControl/low_level.cpp:382:50
	ldr	r0, [sp]
	.loc	1 382 59 is_stmt 0              @ ../MotorControl/low_level.cpp:382:59
	ldr	r1, [sp, #4]
	.loc	1 382 5                         @ ../MotorControl/low_level.cpp:382:5
	bl	safety_critical_apply_brake_resistor_timings
	.loc	1 383 1 is_stmt 1               @ ../MotorControl/low_level.cpp:383:1
	b	.LBB15_26
.LBB15_26:
	.loc	1 383 1 epilogue_begin is_stmt 0 @ ../MotorControl/low_level.cpp:383:1
	add	sp, #40
	pop	{r7, pc}
.Ltmp196:
	.p2align	2
@ %bb.27:
	.loc	1 0 1                           @ ../MotorControl/low_level.cpp:0:1
.LCPI15_0:
	.long	0x3f733333                      @ float 0.949999988
.LCPI15_1:
	.long	0x45800000                      @ float 4096
.Lfunc_end15:
	.size	update_brake_current, .Lfunc_end15-update_brake_current
	.cfi_endproc
	.cantunwind
	.fnend
                                        @ -- End function
	.section	.text._ZNSt3__23maxB7v180000IfEERKT_S3_S3_,"axG",%progbits,_ZNSt3__23maxB7v180000IfEERKT_S3_S3_,comdat
	.hidden	_ZNSt3__23maxB7v180000IfEERKT_S3_S3_ @ -- Begin function _ZNSt3__23maxB7v180000IfEERKT_S3_S3_
	.weak	_ZNSt3__23maxB7v180000IfEERKT_S3_S3_
	.p2align	2
	.type	_ZNSt3__23maxB7v180000IfEERKT_S3_S3_,%function
	.code	16                              @ @_ZNSt3__23maxB7v180000IfEERKT_S3_S3_
	.thumb_func
_ZNSt3__23maxB7v180000IfEERKT_S3_S3_:
.Lfunc_begin16:
	.file	12 "D:\\Embed\\MDK\\MDK\\ARM\\ARMCompilerV621\\Bin\\..\\include\\libcxx\\__algorithm" "max.h"
	.loc	12 41 0 is_stmt 1               @ D:\Embed\MDK\MDK\ARM\ARMCompilerV621\Bin\..\include\libcxx\__algorithm/max.h:41:0
	.fnstart
	.cfi_startproc
@ %bb.0:
	.save	{r7, lr}
	push	{r7, lr}
	.cfi_def_cfa_offset 8
	.cfi_offset lr, -4
	.cfi_offset r7, -8
	.pad	#16
	sub	sp, #16
	.cfi_def_cfa_offset 24
	str	r0, [sp, #12]
	str	r1, [sp, #8]
.Ltmp197:
	.loc	12 42 23 prologue_end           @ D:\Embed\MDK\MDK\ARM\ARMCompilerV621\Bin\..\include\libcxx\__algorithm/max.h:42:23
	ldr	r0, [sp, #12]
	.loc	12 42 28 is_stmt 0              @ D:\Embed\MDK\MDK\ARM\ARMCompilerV621\Bin\..\include\libcxx\__algorithm/max.h:42:28
	ldr	r1, [sp, #8]
	.loc	12 42 12                        @ D:\Embed\MDK\MDK\ARM\ARMCompilerV621\Bin\..\include\libcxx\__algorithm/max.h:42:12
	bl	_ZNSt3__23maxB7v180000IfNS_6__lessIvvEEEERKT_S5_S5_T0_
	.loc	12 42 5 epilogue_begin          @ D:\Embed\MDK\MDK\ARM\ARMCompilerV621\Bin\..\include\libcxx\__algorithm/max.h:42:5
	add	sp, #16
	pop	{r7, pc}
.Ltmp198:
.Lfunc_end16:
	.size	_ZNSt3__23maxB7v180000IfEERKT_S3_S3_, .Lfunc_end16-_ZNSt3__23maxB7v180000IfEERKT_S3_S3_
	.cfi_endproc
	.cantunwind
	.fnend
                                        @ -- End function
	.section	.text._Z6is_nanf,"axG",%progbits,_Z6is_nanf,comdat
	.hidden	_Z6is_nanf                      @ -- Begin function _Z6is_nanf
	.weak	_Z6is_nanf
	.p2align	2
	.type	_Z6is_nanf,%function
	.code	16                              @ @_Z6is_nanf
	.thumb_func
_Z6is_nanf:
.Lfunc_begin17:
	.file	13 "D:\\ikingtec\\Robot\\ODrive\\Firmware\\MDK-ARM" "../../Firmware\\MotorControl/utils.hpp"
	.loc	13 102 0 is_stmt 1              @ ../../Firmware\MotorControl/utils.hpp:102:0
	.fnstart
	.cfi_startproc
@ %bb.0:
	.pad	#4
	sub	sp, #4
	.cfi_def_cfa_offset 4
	vstr	s0, [sp]
.Ltmp199:
	.loc	13 103 28 prologue_end          @ ../../Firmware\MotorControl/utils.hpp:103:28
	ldr	r0, [sp]
	.loc	13 103 12 is_stmt 0             @ ../../Firmware\MotorControl/utils.hpp:103:12
	bic	r1, r0, #-2147483648
	movs	r0, #0
	cmp.w	r1, #2139095040
	it	gt
	movgt	r0, #1
	.loc	13 103 5 epilogue_begin         @ ../../Firmware\MotorControl/utils.hpp:103:5
	add	sp, #4
	bx	lr
.Ltmp200:
.Lfunc_end17:
	.size	_Z6is_nanf, .Lfunc_end17-_Z6is_nanf
	.cfi_endproc
	.cantunwind
	.fnend
                                        @ -- End function
	.section	.text._ZNSt3__25clampB7v180000IfEERKT_S3_S3_S3_,"axG",%progbits,_ZNSt3__25clampB7v180000IfEERKT_S3_S3_S3_,comdat
	.hidden	_ZNSt3__25clampB7v180000IfEERKT_S3_S3_S3_ @ -- Begin function _ZNSt3__25clampB7v180000IfEERKT_S3_S3_S3_
	.weak	_ZNSt3__25clampB7v180000IfEERKT_S3_S3_S3_
	.p2align	2
	.type	_ZNSt3__25clampB7v180000IfEERKT_S3_S3_S3_,%function
	.code	16                              @ @_ZNSt3__25clampB7v180000IfEERKT_S3_S3_S3_
	.thumb_func
_ZNSt3__25clampB7v180000IfEERKT_S3_S3_S3_:
.Lfunc_begin18:
	.file	14 "D:\\Embed\\MDK\\MDK\\ARM\\ARMCompilerV621\\Bin\\..\\include\\libcxx\\__algorithm" "clamp.h"
	.loc	14 37 0 is_stmt 1               @ D:\Embed\MDK\MDK\ARM\ARMCompilerV621\Bin\..\include\libcxx\__algorithm/clamp.h:37:0
	.fnstart
	.cfi_startproc
@ %bb.0:
	.save	{r7, lr}
	push	{r7, lr}
	.cfi_def_cfa_offset 8
	.cfi_offset lr, -4
	.cfi_offset r7, -8
	.pad	#16
	sub	sp, #16
	.cfi_def_cfa_offset 24
	str	r0, [sp, #12]
	str	r1, [sp, #8]
	str	r2, [sp, #4]
.Ltmp201:
	.loc	14 38 23 prologue_end           @ D:\Embed\MDK\MDK\ARM\ARMCompilerV621\Bin\..\include\libcxx\__algorithm/clamp.h:38:23
	ldr	r0, [sp, #12]
	.loc	14 38 28 is_stmt 0              @ D:\Embed\MDK\MDK\ARM\ARMCompilerV621\Bin\..\include\libcxx\__algorithm/clamp.h:38:28
	ldr	r1, [sp, #8]
	.loc	14 38 34                        @ D:\Embed\MDK\MDK\ARM\ARMCompilerV621\Bin\..\include\libcxx\__algorithm/clamp.h:38:34
	ldr	r2, [sp, #4]
	.loc	14 38 10                        @ D:\Embed\MDK\MDK\ARM\ARMCompilerV621\Bin\..\include\libcxx\__algorithm/clamp.h:38:10
	bl	_ZNSt3__25clampB7v180000IfNS_6__lessIvvEEEERKT_S5_S5_S5_T0_
	.loc	14 38 3 epilogue_begin          @ D:\Embed\MDK\MDK\ARM\ARMCompilerV621\Bin\..\include\libcxx\__algorithm/clamp.h:38:3
	add	sp, #16
	pop	{r7, pc}
.Ltmp202:
.Lfunc_end18:
	.size	_ZNSt3__25clampB7v180000IfEERKT_S3_S3_S3_, .Lfunc_end18-_ZNSt3__25clampB7v180000IfEERKT_S3_S3_S3_
	.cfi_endproc
	.cantunwind
	.fnend
                                        @ -- End function
	.section	.text.start_analog_thread,"ax",%progbits
	.hidden	start_analog_thread             @ -- Begin function start_analog_thread
	.globl	start_analog_thread
	.p2align	2
	.type	start_analog_thread,%function
	.code	16                              @ @start_analog_thread
	.thumb_func
start_analog_thread:
.Lfunc_begin19:
	.loc	1 408 0 is_stmt 1               @ ../MotorControl/low_level.cpp:408:0
	.fnstart
	.cfi_startproc
@ %bb.0:
	.save	{r7, lr}
	push	{r7, lr}
	.cfi_def_cfa_offset 8
	.cfi_offset lr, -4
	.cfi_offset r7, -8
	.pad	#24
	sub	sp, #24
	.cfi_def_cfa_offset 32
.Ltmp203:
	.loc	1 409 5 prologue_end            @ ../MotorControl/low_level.cpp:409:5
	movw	r12, :lower16:.L__const.start_analog_thread.os_thread_def_analog_thread_def
	movt	r12, :upper16:.L__const.start_analog_thread.os_thread_def_analog_thread_def
	ldr.w	r0, [r12]
	ldr.w	r1, [r12, #4]
	ldr.w	r2, [r12, #8]
	ldr.w	r3, [r12, #12]
	ldr.w	r12, [r12, #16]
	str.w	r12, [sp, #20]
	str	r3, [sp, #16]
	str	r2, [sp, #12]
	str	r1, [sp, #8]
	str	r0, [sp, #4]
	add	r0, sp, #4
	movs	r1, #0
	.loc	1 410 21                        @ ../MotorControl/low_level.cpp:410:21
	bl	osThreadCreate
	.loc	1 410 19 is_stmt 0              @ ../MotorControl/low_level.cpp:410:19
	movw	r1, :lower16:analog_thread
	movt	r1, :upper16:analog_thread
	str	r0, [r1]
	.loc	1 411 1 epilogue_begin is_stmt 1 @ ../MotorControl/low_level.cpp:411:1
	add	sp, #24
	pop	{r7, pc}
.Ltmp204:
.Lfunc_end19:
	.size	start_analog_thread, .Lfunc_end19-start_analog_thread
	.cfi_endproc
	.cantunwind
	.fnend
                                        @ -- End function
	.section	.text._ZL21analog_polling_threadPv,"ax",%progbits
	.p2align	2                               @ -- Begin function _ZL21analog_polling_threadPv
	.type	_ZL21analog_polling_threadPv,%function
	.code	16                              @ @_ZL21analog_polling_threadPv
	.thumb_func
_ZL21analog_polling_threadPv:
.Lfunc_begin20:
	.loc	1 396 0                         @ ../MotorControl/low_level.cpp:396:0
	.fnstart
	.cfi_startproc
@ %bb.0:
	.save	{r7, lr}
	push	{r7, lr}
	.cfi_def_cfa_offset 8
	.cfi_offset lr, -4
	.cfi_offset r7, -8
	.pad	#16
	sub	sp, #16
	.cfi_def_cfa_offset 24
	str	r0, [sp, #12]
.Ltmp205:
	.loc	1 397 5 prologue_end            @ ../MotorControl/low_level.cpp:397:5
	b	.LBB20_1
.LBB20_1:                               @ =>This Loop Header: Depth=1
                                        @     Child Loop BB20_2 Depth 2
	.loc	1 0 5 is_stmt 0                 @ ../MotorControl/low_level.cpp:0:5
	movs	r0, #0
.Ltmp206:
	.loc	1 398 18 is_stmt 1              @ ../MotorControl/low_level.cpp:398:18
	str	r0, [sp, #8]
	.loc	1 398 14 is_stmt 0              @ ../MotorControl/low_level.cpp:398:14
	b	.LBB20_2
.LBB20_2:                               @   Parent Loop BB20_1 Depth=1
                                        @ =>  This Inner Loop Header: Depth=2
.Ltmp207:
	.loc	1 398 25                        @ ../MotorControl/low_level.cpp:398:25
	ldr	r0, [sp, #8]
.Ltmp208:
	.loc	1 398 9                         @ ../MotorControl/low_level.cpp:398:9
	cmp	r0, #16
	bgt	.LBB20_7
	b	.LBB20_3
.LBB20_3:                               @   in Loop: Header=BB20_2 Depth=2
.Ltmp209:
	.loc	1 399 70 is_stmt 1              @ ../MotorControl/low_level.cpp:399:70
	ldr	r0, [sp, #8]
	.loc	1 399 41 is_stmt 0              @ ../MotorControl/low_level.cpp:399:41
	add.w	r1, r0, r0, lsl #1
	movw	r0, :lower16:odrv
	movt	r0, :upper16:odrv
	add.w	r0, r0, r1, lsl #2
	movw	r1, #16892
	add	r0, r1
	.loc	1 399 34                        @ ../MotorControl/low_level.cpp:399:34
	str	r0, [sp, #4]
.Ltmp210:
	.loc	1 401 46 is_stmt 1              @ ../MotorControl/low_level.cpp:401:46
	ldr	r0, [sp, #4]
	ldr	r0, [r0]
	str	r0, [sp]
	.loc	1 401 17 is_stmt 0              @ ../MotorControl/low_level.cpp:401:17
	ldr	r0, [sp]
	bl	_ZN5fibre21is_endpoint_ref_validE14endpoint_ref_t
.Ltmp211:
	.loc	1 401 17                        @ ../MotorControl/low_level.cpp:401:17
	cbz	r0, .LBB20_5
	b	.LBB20_4
.LBB20_4:                               @   in Loop: Header=BB20_2 Depth=2
.Ltmp212:
	.loc	1 402 40 is_stmt 1              @ ../MotorControl/low_level.cpp:402:40
	ldr	r0, [sp, #4]
	.loc	1 402 45 is_stmt 0              @ ../MotorControl/low_level.cpp:402:45
	ldr	r1, [sp, #8]
	.loc	1 402 17                        @ ../MotorControl/low_level.cpp:402:17
	bl	_ZL22update_analog_endpointPK12PWMMapping_ti
	b	.LBB20_5
.Ltmp213:
.LBB20_5:                               @   in Loop: Header=BB20_2 Depth=2
	.loc	1 403 9 is_stmt 1               @ ../MotorControl/low_level.cpp:403:9
	b	.LBB20_6
.Ltmp214:
.LBB20_6:                               @   in Loop: Header=BB20_2 Depth=2
	.loc	1 398 42                        @ ../MotorControl/low_level.cpp:398:42
	ldr	r0, [sp, #8]
	adds	r0, #1
	str	r0, [sp, #8]
	.loc	1 398 9 is_stmt 0               @ ../MotorControl/low_level.cpp:398:9
	b	.LBB20_2
.Ltmp215:
.LBB20_7:                               @   in Loop: Header=BB20_1 Depth=1
	.loc	1 0 9                           @ ../MotorControl/low_level.cpp:0:9
	movs	r0, #10
	.loc	1 404 9 is_stmt 1               @ ../MotorControl/low_level.cpp:404:9
	bl	osDelay
.Ltmp216:
	.loc	1 397 5                         @ ../MotorControl/low_level.cpp:397:5
	b	.LBB20_1
.Ltmp217:
.Lfunc_end20:
	.size	_ZL21analog_polling_threadPv, .Lfunc_end20-_ZL21analog_polling_threadPv
	.cfi_endproc
	.cantunwind
	.fnend
                                        @ -- End function
	.section	.text._ZL18cpu_enter_criticalv,"ax",%progbits
	.p2align	2                               @ -- Begin function _ZL18cpu_enter_criticalv
	.type	_ZL18cpu_enter_criticalv,%function
	.code	16                              @ @_ZL18cpu_enter_criticalv
	.thumb_func
_ZL18cpu_enter_criticalv:
.Lfunc_begin21:
	.loc	11 31 0                         @ ../../Firmware\Drivers/STM32/stm32_system.h:31:0
	.fnstart
	.cfi_startproc
@ %bb.0:
	.pad	#12
	sub	sp, #12
	.cfi_def_cfa_offset 12
.Ltmp218:
	.file	15 "D:\\ikingtec\\Robot\\ODrive\\Firmware\\MDK-ARM" "../ThirdParty/CMSIS/Include/cmsis_armclang.h"
	.loc	15 377 3 prologue_end           @ ../ThirdParty/CMSIS/Include/cmsis_armclang.h:377:3
	@APP
	mrs	r0, primask
	@NO_APP
	str	r0, [sp, #4]
	.loc	15 378 10                       @ ../ThirdParty/CMSIS/Include/cmsis_armclang.h:378:10
	ldr	r0, [sp, #4]
.Ltmp219:
	.loc	11 32 14                        @ ../../Firmware\Drivers/STM32/stm32_system.h:32:14
	str	r0, [sp]
	.loc	11 33 5                         @ ../../Firmware\Drivers/STM32/stm32_system.h:33:5
	@APP
	mrs	r0, primask
	cpsid i

	@NO_APP
	str	r0, [sp, #8]
	.loc	11 34 12                        @ ../../Firmware\Drivers/STM32/stm32_system.h:34:12
	ldr	r0, [sp]
	.loc	11 34 5 epilogue_begin is_stmt 0 @ ../../Firmware\Drivers/STM32/stm32_system.h:34:5
	add	sp, #12
	bx	lr
.Ltmp220:
.Lfunc_end21:
	.size	_ZL18cpu_enter_criticalv, .Lfunc_end21-_ZL18cpu_enter_criticalv
	.cfi_endproc
	.cantunwind
	.fnend
                                        @ -- End function
	.section	.text._ZL17cpu_exit_criticalj,"ax",%progbits
	.p2align	2                               @ -- Begin function _ZL17cpu_exit_criticalj
	.type	_ZL17cpu_exit_criticalj,%function
	.code	16                              @ @_ZL17cpu_exit_criticalj
	.thumb_func
_ZL17cpu_exit_criticalj:
.Lfunc_begin22:
	.loc	11 37 0 is_stmt 1               @ ../../Firmware\Drivers/STM32/stm32_system.h:37:0
	.fnstart
	.cfi_startproc
@ %bb.0:
	.pad	#8
	sub	sp, #8
	.cfi_def_cfa_offset 8
	str	r0, [sp]
.Ltmp221:
	.loc	11 38 19 prologue_end           @ ../../Firmware\Drivers/STM32/stm32_system.h:38:19
	ldr	r0, [sp]
	str	r0, [sp, #4]
.Ltmp222:
	.loc	15 405 46                       @ ../ThirdParty/CMSIS/Include/cmsis_armclang.h:405:46
	ldr	r0, [sp, #4]
	.loc	15 405 3 is_stmt 0              @ ../ThirdParty/CMSIS/Include/cmsis_armclang.h:405:3
	@APP
	msr	primask, r0
	@NO_APP
.Ltmp223:
	.loc	11 39 1 epilogue_begin is_stmt 1 @ ../../Firmware\Drivers/STM32/stm32_system.h:39:1
	add	sp, #8
	bx	lr
.Ltmp224:
.Lfunc_end22:
	.size	_ZL17cpu_exit_criticalj, .Lfunc_end22-_ZL17cpu_exit_criticalj
	.cfi_endproc
	.cantunwind
	.fnend
                                        @ -- End function
	.section	.text._ZNSt3__25arrayI4AxisLj2EE4dataB7v180000Ev,"axG",%progbits,_ZNSt3__25arrayI4AxisLj2EE4dataB7v180000Ev,comdat
	.hidden	_ZNSt3__25arrayI4AxisLj2EE4dataB7v180000Ev @ -- Begin function _ZNSt3__25arrayI4AxisLj2EE4dataB7v180000Ev
	.weak	_ZNSt3__25arrayI4AxisLj2EE4dataB7v180000Ev
	.p2align	2
	.type	_ZNSt3__25arrayI4AxisLj2EE4dataB7v180000Ev,%function
	.code	16                              @ @_ZNSt3__25arrayI4AxisLj2EE4dataB7v180000Ev
	.thumb_func
_ZNSt3__25arrayI4AxisLj2EE4dataB7v180000Ev:
.Lfunc_begin23:
	.loc	9 261 0                         @ D:\Embed\MDK\MDK\ARM\ARMCompilerV621\Bin\..\include\libcxx\array:261:0
	.fnstart
	.cfi_startproc
@ %bb.0:
	.pad	#4
	sub	sp, #4
	.cfi_def_cfa_offset 4
	str	r0, [sp]
	ldr	r0, [sp]
.Ltmp225:
	.loc	9 261 35 prologue_end epilogue_begin @ D:\Embed\MDK\MDK\ARM\ARMCompilerV621\Bin\..\include\libcxx\array:261:35
	add	sp, #4
	bx	lr
.Ltmp226:
.Lfunc_end23:
	.size	_ZNSt3__25arrayI4AxisLj2EE4dataB7v180000Ev, .Lfunc_end23-_ZNSt3__25arrayI4AxisLj2EE4dataB7v180000Ev
	.cfi_endproc
	.cantunwind
	.fnend
                                        @ -- End function
	.section	.text._ZNSt3__23maxB7v180000IfNS_6__lessIvvEEEERKT_S5_S5_T0_,"axG",%progbits,_ZNSt3__23maxB7v180000IfNS_6__lessIvvEEEERKT_S5_S5_T0_,comdat
	.hidden	_ZNSt3__23maxB7v180000IfNS_6__lessIvvEEEERKT_S5_S5_T0_ @ -- Begin function _ZNSt3__23maxB7v180000IfNS_6__lessIvvEEEERKT_S5_S5_T0_
	.weak	_ZNSt3__23maxB7v180000IfNS_6__lessIvvEEEERKT_S5_S5_T0_
	.p2align	2
	.type	_ZNSt3__23maxB7v180000IfNS_6__lessIvvEEEERKT_S5_S5_T0_,%function
	.code	16                              @ @_ZNSt3__23maxB7v180000IfNS_6__lessIvvEEEERKT_S5_S5_T0_
	.thumb_func
_ZNSt3__23maxB7v180000IfNS_6__lessIvvEEEERKT_S5_S5_T0_:
.Lfunc_begin24:
	.loc	12 32 0                         @ D:\Embed\MDK\MDK\ARM\ARMCompilerV621\Bin\..\include\libcxx\__algorithm/max.h:32:0
	.fnstart
	.cfi_startproc
@ %bb.0:
	.save	{r7, lr}
	push	{r7, lr}
	.cfi_def_cfa_offset 8
	.cfi_offset lr, -4
	.cfi_offset r7, -8
	.pad	#16
	sub	sp, #16
	.cfi_def_cfa_offset 24
	str	r0, [sp, #8]
	str	r1, [sp, #4]
.Ltmp227:
	.loc	12 33 19 prologue_end           @ D:\Embed\MDK\MDK\ARM\ARMCompilerV621\Bin\..\include\libcxx\__algorithm/max.h:33:19
	ldr	r1, [sp, #8]
	.loc	12 33 24 is_stmt 0              @ D:\Embed\MDK\MDK\ARM\ARMCompilerV621\Bin\..\include\libcxx\__algorithm/max.h:33:24
	ldr	r2, [sp, #4]
	add.w	r0, sp, #15
	.loc	12 33 12                        @ D:\Embed\MDK\MDK\ARM\ARMCompilerV621\Bin\..\include\libcxx\__algorithm/max.h:33:12
	bl	_ZNKSt3__26__lessIvvEclB7v180000IffEEbRKT_RKT0_
	cbz	r0, .LBB24_2
	b	.LBB24_1
.LBB24_1:
	.loc	12 33 31                        @ D:\Embed\MDK\MDK\ARM\ARMCompilerV621\Bin\..\include\libcxx\__algorithm/max.h:33:31
	ldr	r0, [sp, #4]
	.loc	12 33 12                        @ D:\Embed\MDK\MDK\ARM\ARMCompilerV621\Bin\..\include\libcxx\__algorithm/max.h:33:12
	str	r0, [sp]                        @ 4-byte Spill
	b	.LBB24_3
.LBB24_2:
	.loc	12 33 37                        @ D:\Embed\MDK\MDK\ARM\ARMCompilerV621\Bin\..\include\libcxx\__algorithm/max.h:33:37
	ldr	r0, [sp, #8]
	.loc	12 33 12                        @ D:\Embed\MDK\MDK\ARM\ARMCompilerV621\Bin\..\include\libcxx\__algorithm/max.h:33:12
	str	r0, [sp]                        @ 4-byte Spill
	b	.LBB24_3
.LBB24_3:
	ldr	r0, [sp]                        @ 4-byte Reload
	.loc	12 33 5 epilogue_begin          @ D:\Embed\MDK\MDK\ARM\ARMCompilerV621\Bin\..\include\libcxx\__algorithm/max.h:33:5
	add	sp, #16
	pop	{r7, pc}
.Ltmp228:
.Lfunc_end24:
	.size	_ZNSt3__23maxB7v180000IfNS_6__lessIvvEEEERKT_S5_S5_T0_, .Lfunc_end24-_ZNSt3__23maxB7v180000IfNS_6__lessIvvEEEERKT_S5_S5_T0_
	.cfi_endproc
	.cantunwind
	.fnend
                                        @ -- End function
	.section	.text._ZNKSt3__26__lessIvvEclB7v180000IffEEbRKT_RKT0_,"axG",%progbits,_ZNKSt3__26__lessIvvEclB7v180000IffEEbRKT_RKT0_,comdat
	.hidden	_ZNKSt3__26__lessIvvEclB7v180000IffEEbRKT_RKT0_ @ -- Begin function _ZNKSt3__26__lessIvvEclB7v180000IffEEbRKT_RKT0_
	.weak	_ZNKSt3__26__lessIvvEclB7v180000IffEEbRKT_RKT0_
	.p2align	2
	.type	_ZNKSt3__26__lessIvvEclB7v180000IffEEbRKT_RKT0_,%function
	.code	16                              @ @_ZNKSt3__26__lessIvvEclB7v180000IffEEbRKT_RKT0_
	.thumb_func
_ZNKSt3__26__lessIvvEclB7v180000IffEEbRKT_RKT0_:
.Lfunc_begin25:
	.file	16 "D:\\Embed\\MDK\\MDK\\ARM\\ARMCompilerV621\\Bin\\..\\include\\libcxx\\__algorithm" "comp.h"
	.loc	16 40 0 is_stmt 1               @ D:\Embed\MDK\MDK\ARM\ARMCompilerV621\Bin\..\include\libcxx\__algorithm/comp.h:40:0
	.fnstart
	.cfi_startproc
@ %bb.0:
	.pad	#12
	sub	sp, #12
	.cfi_def_cfa_offset 12
	str	r0, [sp, #8]
	str	r1, [sp, #4]
	str	r2, [sp]
.Ltmp229:
	.loc	16 41 12 prologue_end           @ D:\Embed\MDK\MDK\ARM\ARMCompilerV621\Bin\..\include\libcxx\__algorithm/comp.h:41:12
	ldr	r0, [sp, #4]
	vldr	s0, [r0]
	.loc	16 41 20 is_stmt 0              @ D:\Embed\MDK\MDK\ARM\ARMCompilerV621\Bin\..\include\libcxx\__algorithm/comp.h:41:20
	ldr	r0, [sp]
	vldr	s2, [r0]
	movs	r0, #0
	.loc	16 41 18                        @ D:\Embed\MDK\MDK\ARM\ARMCompilerV621\Bin\..\include\libcxx\__algorithm/comp.h:41:18
	vcmp.f32	s0, s2
	vmrs	APSR_nzcv, fpscr
	it	lt
	movlt	r0, #1
	.loc	16 41 5 epilogue_begin          @ D:\Embed\MDK\MDK\ARM\ARMCompilerV621\Bin\..\include\libcxx\__algorithm/comp.h:41:5
	add	sp, #12
	bx	lr
.Ltmp230:
.Lfunc_end25:
	.size	_ZNKSt3__26__lessIvvEclB7v180000IffEEbRKT_RKT0_, .Lfunc_end25-_ZNKSt3__26__lessIvvEclB7v180000IffEEbRKT_RKT0_
	.cfi_endproc
	.cantunwind
	.fnend
                                        @ -- End function
	.section	.text._ZNSt3__25clampB7v180000IfNS_6__lessIvvEEEERKT_S5_S5_S5_T0_,"axG",%progbits,_ZNSt3__25clampB7v180000IfNS_6__lessIvvEEEERKT_S5_S5_S5_T0_,comdat
	.hidden	_ZNSt3__25clampB7v180000IfNS_6__lessIvvEEEERKT_S5_S5_S5_T0_ @ -- Begin function _ZNSt3__25clampB7v180000IfNS_6__lessIvvEEEERKT_S5_S5_S5_T0_
	.weak	_ZNSt3__25clampB7v180000IfNS_6__lessIvvEEEERKT_S5_S5_S5_T0_
	.p2align	2
	.type	_ZNSt3__25clampB7v180000IfNS_6__lessIvvEEEERKT_S5_S5_S5_T0_,%function
	.code	16                              @ @_ZNSt3__25clampB7v180000IfNS_6__lessIvvEEEERKT_S5_S5_S5_T0_
	.thumb_func
_ZNSt3__25clampB7v180000IfNS_6__lessIvvEEEERKT_S5_S5_S5_T0_:
.Lfunc_begin26:
	.loc	14 28 0 is_stmt 1               @ D:\Embed\MDK\MDK\ARM\ARMCompilerV621\Bin\..\include\libcxx\__algorithm/clamp.h:28:0
	.fnstart
	.cfi_startproc
@ %bb.0:
	.save	{r7, lr}
	push	{r7, lr}
	.cfi_def_cfa_offset 8
	.cfi_offset lr, -4
	.cfi_offset r7, -8
	.pad	#24
	sub	sp, #24
	.cfi_def_cfa_offset 32
	str	r0, [sp, #16]
	str	r1, [sp, #12]
	str	r2, [sp, #8]
.Ltmp231:
	.loc	14 30 17 prologue_end           @ D:\Embed\MDK\MDK\ARM\ARMCompilerV621\Bin\..\include\libcxx\__algorithm/clamp.h:30:17
	ldr	r1, [sp, #16]
	.loc	14 30 22 is_stmt 0              @ D:\Embed\MDK\MDK\ARM\ARMCompilerV621\Bin\..\include\libcxx\__algorithm/clamp.h:30:22
	ldr	r2, [sp, #12]
	add.w	r0, sp, #23
	.loc	14 30 10                        @ D:\Embed\MDK\MDK\ARM\ARMCompilerV621\Bin\..\include\libcxx\__algorithm/clamp.h:30:10
	bl	_ZNKSt3__26__lessIvvEclB7v180000IffEEbRKT_RKT0_
	cbz	r0, .LBB26_2
	b	.LBB26_1
.LBB26_1:
	.loc	14 30 30                        @ D:\Embed\MDK\MDK\ARM\ARMCompilerV621\Bin\..\include\libcxx\__algorithm/clamp.h:30:30
	ldr	r0, [sp, #12]
	.loc	14 30 10                        @ D:\Embed\MDK\MDK\ARM\ARMCompilerV621\Bin\..\include\libcxx\__algorithm/clamp.h:30:10
	str	r0, [sp, #4]                    @ 4-byte Spill
	b	.LBB26_6
.LBB26_2:
	.loc	14 30 44                        @ D:\Embed\MDK\MDK\ARM\ARMCompilerV621\Bin\..\include\libcxx\__algorithm/clamp.h:30:44
	ldr	r1, [sp, #8]
	.loc	14 30 50                        @ D:\Embed\MDK\MDK\ARM\ARMCompilerV621\Bin\..\include\libcxx\__algorithm/clamp.h:30:50
	ldr	r2, [sp, #16]
	add.w	r0, sp, #23
	.loc	14 30 37                        @ D:\Embed\MDK\MDK\ARM\ARMCompilerV621\Bin\..\include\libcxx\__algorithm/clamp.h:30:37
	bl	_ZNKSt3__26__lessIvvEclB7v180000IffEEbRKT_RKT0_
	cbz	r0, .LBB26_4
	b	.LBB26_3
.LBB26_3:
	.loc	14 30 57                        @ D:\Embed\MDK\MDK\ARM\ARMCompilerV621\Bin\..\include\libcxx\__algorithm/clamp.h:30:57
	ldr	r0, [sp, #8]
	.loc	14 30 37                        @ D:\Embed\MDK\MDK\ARM\ARMCompilerV621\Bin\..\include\libcxx\__algorithm/clamp.h:30:37
	str	r0, [sp]                        @ 4-byte Spill
	b	.LBB26_5
.LBB26_4:
	.loc	14 30 64                        @ D:\Embed\MDK\MDK\ARM\ARMCompilerV621\Bin\..\include\libcxx\__algorithm/clamp.h:30:64
	ldr	r0, [sp, #16]
	.loc	14 30 37                        @ D:\Embed\MDK\MDK\ARM\ARMCompilerV621\Bin\..\include\libcxx\__algorithm/clamp.h:30:37
	str	r0, [sp]                        @ 4-byte Spill
	b	.LBB26_5
.LBB26_5:
	ldr	r0, [sp]                        @ 4-byte Reload
	.loc	14 30 10                        @ D:\Embed\MDK\MDK\ARM\ARMCompilerV621\Bin\..\include\libcxx\__algorithm/clamp.h:30:10
	str	r0, [sp, #4]                    @ 4-byte Spill
	b	.LBB26_6
.LBB26_6:
	ldr	r0, [sp, #4]                    @ 4-byte Reload
	.loc	14 30 3 epilogue_begin          @ D:\Embed\MDK\MDK\ARM\ARMCompilerV621\Bin\..\include\libcxx\__algorithm/clamp.h:30:3
	add	sp, #24
	pop	{r7, pc}
.Ltmp232:
.Lfunc_end26:
	.size	_ZNSt3__25clampB7v180000IfNS_6__lessIvvEEEERKT_S5_S5_S5_T0_, .Lfunc_end26-_ZNSt3__25clampB7v180000IfNS_6__lessIvvEEEERKT_S5_S5_S5_T0_
	.cfi_endproc
	.cantunwind
	.fnend
                                        @ -- End function
	.section	.text._ZL22update_analog_endpointPK12PWMMapping_ti,"ax",%progbits
	.p2align	2                               @ -- Begin function _ZL22update_analog_endpointPK12PWMMapping_ti
	.type	_ZL22update_analog_endpointPK12PWMMapping_ti,%function
	.code	16                              @ @_ZL22update_analog_endpointPK12PWMMapping_ti
	.thumb_func
_ZL22update_analog_endpointPK12PWMMapping_ti:
.Lfunc_begin27:
	.loc	1 389 0 is_stmt 1               @ ../MotorControl/low_level.cpp:389:0
	.fnstart
	.cfi_startproc
@ %bb.0:
	.save	{r7, lr}
	push	{r7, lr}
	.cfi_def_cfa_offset 8
	.cfi_offset lr, -4
	.cfi_offset r7, -8
	.pad	#32
	sub	sp, #32
	.cfi_def_cfa_offset 40
	str	r0, [sp, #28]
	str	r1, [sp, #24]
.Ltmp233:
	.loc	1 390 47 prologue_end           @ ../MotorControl/low_level.cpp:390:47
	ldr	r1, [sp, #24]
	add	r0, sp, #12
	.loc	1 390 38 is_stmt 0              @ ../MotorControl/low_level.cpp:390:38
	bl	_ZL8get_gpioj
	.loc	1 390 22                        @ ../MotorControl/low_level.cpp:390:22
	ldr	r0, [sp, #12]
	ldr	r1, [sp, #16]
	bl	get_adc_voltage
	vldr	s2, .LCPI27_0
	.loc	1 390 54                        @ ../MotorControl/low_level.cpp:390:54
	vdiv.f32	s0, s0, s2
	.loc	1 390 11                        @ ../MotorControl/low_level.cpp:390:11
	vstr	s0, [sp, #20]
	.loc	1 391 19 is_stmt 1              @ ../MotorControl/low_level.cpp:391:19
	ldr	r0, [sp, #28]
	.loc	1 391 31 is_stmt 0              @ ../MotorControl/low_level.cpp:391:31
	vldr	s0, [sp, #20]
	.loc	1 391 24                        @ ../MotorControl/low_level.cpp:391:24
	vldr	s2, [r0, #4]
	.loc	1 391 48                        @ ../MotorControl/low_level.cpp:391:48
	vldr	s4, [r0, #8]
	.loc	1 391 52                        @ ../MotorControl/low_level.cpp:391:52
	vsub.f32	s4, s4, s2
	.loc	1 391 28                        @ ../MotorControl/low_level.cpp:391:28
	vmul.f32	s0, s0, s4
	vadd.f32	s0, s0, s2
	.loc	1 391 11                        @ ../MotorControl/low_level.cpp:391:11
	vstr	s0, [sp, #8]
	.loc	1 392 36 is_stmt 1              @ ../MotorControl/low_level.cpp:392:36
	ldr	r0, [sp, #28]
	ldr	r0, [r0]
	str	r0, [sp, #4]
	.loc	1 392 51 is_stmt 0              @ ../MotorControl/low_level.cpp:392:51
	vldr	s0, [sp, #8]
	.loc	1 392 5                         @ ../MotorControl/low_level.cpp:392:5
	ldr	r0, [sp, #4]
	bl	_ZN5fibre23set_endpoint_from_floatE14endpoint_ref_tf
	.loc	1 393 1 epilogue_begin is_stmt 1 @ ../MotorControl/low_level.cpp:393:1
	add	sp, #32
	pop	{r7, pc}
.Ltmp234:
	.p2align	2
@ %bb.1:
	.loc	1 0 1 is_stmt 0                 @ ../MotorControl/low_level.cpp:0:1
.LCPI27_0:
	.long	0x40533333                      @ float 3.29999995
.Lfunc_end27:
	.size	_ZL22update_analog_endpointPK12PWMMapping_ti, .Lfunc_end27-_ZL22update_analog_endpointPK12PWMMapping_ti
	.cfi_endproc
	.cantunwind
	.fnend
                                        @ -- End function
	.section	.text._ZL8get_gpioj,"ax",%progbits
	.p2align	2                               @ -- Begin function _ZL8get_gpioj
	.type	_ZL8get_gpioj,%function
	.code	16                              @ @_ZL8get_gpioj
	.thumb_func
_ZL8get_gpioj:
.Lfunc_begin28:
	.file	17 "D:\\ikingtec\\Robot\\ODrive\\Firmware\\MDK-ARM" "../MotorControl/odrive_main.h"
	.loc	17 167 0 is_stmt 1              @ ../MotorControl/odrive_main.h:167:0
	.fnstart
	.cfi_startproc
@ %bb.0:
	.pad	#12
	sub	sp, #12
	.cfi_def_cfa_offset 12
	str	r0, [sp, #4]                    @ 4-byte Spill
	str	r1, [sp, #8]
.Ltmp235:
	.loc	17 168 13 prologue_end          @ ../MotorControl/odrive_main.h:168:13
	ldr	r0, [sp, #8]
	.loc	17 168 12 is_stmt 0             @ ../MotorControl/odrive_main.h:168:12
	cmp	r0, #16
	bhi	.LBB28_2
	b	.LBB28_1
.LBB28_1:
	.loc	17 168 44                       @ ../MotorControl/odrive_main.h:168:44
	ldr	r1, [sp, #8]
	.loc	17 168 38                       @ ../MotorControl/odrive_main.h:168:38
	movw	r0, :lower16:gpios
	movt	r0, :upper16:gpios
	add.w	r0, r0, r1, lsl #3
	.loc	17 168 12                       @ ../MotorControl/odrive_main.h:168:12
	str	r0, [sp]                        @ 4-byte Spill
	b	.LBB28_3
.LBB28_2:
	.loc	17 0 12                         @ ../MotorControl/odrive_main.h:0:12
	movw	r0, :lower16:gpios
	movt	r0, :upper16:gpios
	.loc	17 168 12                       @ ../MotorControl/odrive_main.h:168:12
	str	r0, [sp]                        @ 4-byte Spill
	b	.LBB28_3
.LBB28_3:
	ldr	r1, [sp, #4]                    @ 4-byte Reload
	ldr	r2, [sp]                        @ 4-byte Reload
	ldr	r0, [r2]
	ldr	r2, [r2, #4]
	str	r2, [r1, #4]
	str	r0, [r1]
	.loc	17 168 5 epilogue_begin         @ ../MotorControl/odrive_main.h:168:5
	add	sp, #12
	bx	lr
.Ltmp236:
.Lfunc_end28:
	.size	_ZL8get_gpioj, .Lfunc_end28-_ZL8get_gpioj
	.cfi_endproc
	.cantunwind
	.fnend
                                        @ -- End function
	.hidden	adc_full_scale                  @ @adc_full_scale
	.type	adc_full_scale,%object
	.section	.rodata.adc_full_scale,"a",%progbits
	.globl	adc_full_scale
	.p2align	2, 0x0
adc_full_scale:
	.long	0x45800000                      @ float 4096
	.size	adc_full_scale, 4

	.hidden	adc_ref_voltage                 @ @adc_ref_voltage
	.type	adc_ref_voltage,%object
	.section	.rodata.adc_ref_voltage,"a",%progbits
	.globl	adc_ref_voltage
	.p2align	2, 0x0
adc_ref_voltage:
	.long	0x40533333                      @ float 3.29999995
	.size	adc_ref_voltage, 4

	.hidden	stack_size_analog_thread        @ @stack_size_analog_thread
	.type	stack_size_analog_thread,%object
	.section	.rodata.stack_size_analog_thread,"a",%progbits
	.globl	stack_size_analog_thread
	.p2align	2, 0x0
stack_size_analog_thread:
	.long	1024                            @ 0x400
	.size	stack_size_analog_thread, 4

	.hidden	vbus_voltage                    @ @vbus_voltage
	.type	vbus_voltage,%object
	.section	.data.vbus_voltage,"aw",%progbits
	.globl	vbus_voltage
	.p2align	2, 0x0
vbus_voltage:
	.long	0x41400000                      @ float 12
	.size	vbus_voltage, 4

	.hidden	ibus_                           @ @ibus_
	.type	ibus_,%object
	.section	.bss.ibus_,"aw",%nobits
	.globl	ibus_
	.p2align	2, 0x0
ibus_:
	.long	0x00000000                      @ float 0
	.size	ibus_, 4

	.hidden	brake_resistor_armed            @ @brake_resistor_armed
	.type	brake_resistor_armed,%object
	.section	.bss.brake_resistor_armed,"aw",%nobits
	.globl	brake_resistor_armed
brake_resistor_armed:
	.byte	0                               @ 0x0
	.size	brake_resistor_armed, 1

	.hidden	brake_resistor_saturated        @ @brake_resistor_saturated
	.type	brake_resistor_saturated,%object
	.section	.bss.brake_resistor_saturated,"aw",%nobits
	.globl	brake_resistor_saturated
brake_resistor_saturated:
	.byte	0                               @ 0x0
	.size	brake_resistor_saturated, 1

	.hidden	brake_resistor_current          @ @brake_resistor_current
	.type	brake_resistor_current,%object
	.section	.bss.brake_resistor_current,"aw",%nobits
	.globl	brake_resistor_current
	.p2align	2, 0x0
brake_resistor_current:
	.long	0x00000000                      @ float 0
	.size	brake_resistor_current, 4

	.hidden	analog_thread                   @ @analog_thread
	.type	analog_thread,%object
	.section	.bss.analog_thread,"aw",%nobits
	.globl	analog_thread
	.p2align	2, 0x0
analog_thread:
	.long	0
	.size	analog_thread, 4

	.hidden	adc_measurements_               @ @adc_measurements_
	.type	adc_measurements_,%object
	.section	.bss.adc_measurements_,"aw",%nobits
	.globl	adc_measurements_
	.p2align	1, 0x0
adc_measurements_:
	.zero	32
	.size	adc_measurements_, 32

	.type	.L.str,%object                  @ @.str
	.section	.rodata.str1.1,"aMS",%progbits,1
.L.str:
	.asciz	"analog_thread_def"
	.size	.L.str, 18

	.type	.L__const.start_analog_thread.os_thread_def_analog_thread_def,%object @ @__const.start_analog_thread.os_thread_def_analog_thread_def
	.section	.rodata..L__const.start_analog_thread.os_thread_def_analog_thread_def,"a",%progbits
	.p2align	2, 0x0
.L__const.start_analog_thread.os_thread_def_analog_thread_def:
	.long	.L.str
	.long	_ZL21analog_polling_threadPv
	.short	65534                           @ 0xfffe
	.zero	2
	.long	0                               @ 0x0
	.long	256                             @ 0x100
	.size	.L__const.start_analog_thread.os_thread_def_analog_thread_def, 20

	.file	18 "D:\\Embed\\MDK\\MDK\\ARM\\ARMCompilerV621\\Bin\\..\\include" "stdio.h"
	.file	19 "D:\\ikingtec\\Robot\\ODrive\\Firmware\\MDK-ARM" "../MotorControl\\low_level.cpp"
	.file	20 "D:\\Embed\\MDK\\MDK\\ARM\\ARMCompilerV621\\Bin\\..\\include" "stdlib.h"
	.file	21 "D:\\Embed\\MDK\\MDK\\ARM\\ARMCompilerV621\\Bin\\..\\include" "string.h"
	.file	22 "D:\\Embed\\MDK\\MDK\\ARM\\ARMCompilerV621\\Bin\\..\\include" "math.h"
	.file	23 "D:\\Embed\\MDK\\MDK\\ARM\\ARMCompilerV621\\Bin\\..\\include\\libcxx" "stddef.h"
	.file	24 "D:\\Embed\\MDK\\MDK\\ARM\\ARMCompilerV621\\Bin\\..\\include\\libcxx" "cstddef"
	.file	25 "D:\\Embed\\MDK\\MDK\\ARM\\ARMCompilerV621\\Bin\\..\\include\\libcxx" "cstdint"
	.file	26 "D:\\Embed\\MDK\\MDK\\ARM\\ARMCompilerV621\\Bin\\..\\include\\libcxx\\__math" "traits.h"
	.file	27 "D:\\Embed\\MDK\\MDK\\ARM\\ARMCompilerV621\\Bin\\..\\include\\libcxx" "math.h"
	.file	28 "D:\\Embed\\MDK\\MDK\\ARM\\ARMCompilerV621\\Bin\\..\\include\\libcxx\\__math" "modulo.h"
	.file	29 "D:\\Embed\\MDK\\MDK\\ARM\\ARMCompilerV621\\Bin\\..\\include\\libcxx" "cstdlib"
	.file	30 "D:\\Embed\\MDK\\MDK\\ARM\\ARMCompilerV621\\Bin\\..\\include\\libcxx" "stdlib.h"
	.file	31 "D:\\Embed\\MDK\\MDK\\ARM\\ARMCompilerV621\\Bin\\..\\include" "wchar.h"
	.file	32 "D:\\Embed\\MDK\\MDK\\ARM\\ARMCompilerV621\\Bin\\..\\include" "time.h"
	.file	33 "D:\\Embed\\MDK\\MDK\\ARM\\ARMCompilerV621\\Bin\\..\\include\\libcxx" "__std_mbstate_t.h"
	.file	34 "D:\\Embed\\MDK\\MDK\\ARM\\ARMCompilerV621\\Bin\\..\\include\\libcxx" "cmath"
	.file	35 "D:\\Embed\\MDK\\MDK\\ARM\\ARMCompilerV621\\Bin\\..\\include" "ctype.h"
	.file	36 "D:\\Embed\\MDK\\MDK\\ARM\\ARMCompilerV621\\Bin\\..\\include\\libcxx" "cctype"
	.file	37 "D:\\Embed\\MDK\\MDK\\ARM\\ARMCompilerV621\\Bin\\..\\include" "wctype.h"
	.file	38 "D:\\Embed\\MDK\\MDK\\ARM\\ARMCompilerV621\\Bin\\..\\include\\libcxx" "cwctype"
	.file	39 "D:\\Embed\\MDK\\MDK\\ARM\\ARMCompilerV621\\Bin\\..\\include\\libcxx" "cwchar"
	.file	40 "D:\\Embed\\MDK\\MDK\\ARM\\ARMCompilerV621\\Bin\\..\\include\\libcxx" "wchar.h"
	.file	41 "D:\\Embed\\MDK\\MDK\\ARM\\ARMCompilerV621\\Bin\\..\\include\\libcxx" "cstring"
	.file	42 "D:\\Embed\\MDK\\MDK\\ARM\\ARMCompilerV621\\Bin\\..\\include\\libcxx" "string.h"
	.file	43 "D:\\Embed\\MDK\\MDK\\ARM\\ARMCompilerV621\\Bin\\..\\include\\libcxx\\__chrono" "duration.h"
	.file	44 "D:\\Embed\\MDK\\MDK\\ARM\\ARMCompilerV621\\Bin\\..\\include\\libcxx" "ctime"
	.file	45 "D:\\Embed\\MDK\\MDK\\ARM\\ARMCompilerV621\\Bin\\..\\include" "errno.h"
	.file	46 "D:\\Embed\\MDK\\MDK\\ARM\\ARMCompilerV621\\Bin\\..\\include\\libcxx" "cstdio"
	.file	47 "D:\\Embed\\MDK\\MDK\\ARM\\ARMCompilerV621\\Bin\\..\\include" "locale.h"
	.file	48 "D:\\Embed\\MDK\\MDK\\ARM\\ARMCompilerV621\\Bin\\..\\include\\libcxx" "clocale"
	.file	49 "D:\\Embed\\MDK\\MDK\\ARM\\ARMCompilerV621\\Bin\\..\\include" "stdarg.h"
	.file	50 "D:\\Embed\\MDK\\MDK\\ARM\\ARMCompilerV621\\Bin\\..\\include\\libcxx" "cstdarg"
	.file	51 "D:\\ikingtec\\Robot\\ODrive\\Firmware\\MDK-ARM" "../ThirdParty/STM32F4xx_HAL_Driver/Inc\\stm32f4xx_hal_adc.h"
	.file	52 "D:\\ikingtec\\Robot\\ODrive\\Firmware\\MDK-ARM" "../fibre-cpp/include\\fibre/../../protocol.hpp"
	.section	".note.GNU-stack","",%progbits
	.eabi_attribute	30, 6	@ Tag_ABI_optimization_goals
	.ARM_attribute	16, 1	@ Tag_AV_eba