	.text
	.syntax unified
	.eabi_attribute	67, "2.09"	@ Tag_conformance
	.cpu	cortex-m4
	.eabi_attribute	6, 13	@ Tag_CPU_arch
	.eabi_attribute	7, 77	@ Tag_CPU_arch_profile
	.eabi_attribute	8, 0	@ Tag_ARM_ISA_use
	.eabi_attribute	9, 2	@ Tag_THUMB_ISA_use
	.fpu	fpv4-sp-d16
	.eabi_attribute	27, 1	@ Tag_ABI_HardFP_use
	.eabi_attribute	36, 1	@ Tag_FP_HP_extension
	.eabi_attribute	34, 1	@ Tag_CPU_unaligned_access
	.eabi_attribute	17, 1	@ Tag_ABI_PCS_GOT_use
	.eabi_attribute	20, 2	@ Tag_ABI_FP_denormal
	.eabi_attribute	21, 0	@ Tag_ABI_FP_exceptions
	.eabi_attribute	23, 1	@ Tag_ABI_FP_number_model
	.eabi_attribute	24, 1	@ Tag_ABI_align_needed
	.eabi_attribute	25, 1	@ Tag_ABI_align_preserved
	.eabi_attribute	28, 1	@ Tag_ABI_VFP_args
	.eabi_attribute	38, 1	@ Tag_ABI_FP_16bit_format
	.eabi_attribute	18, 2	@ Tag_ABI_PCS_wchar_t
	.eabi_attribute	26, 1	@ Tag_ABI_enum_size
	.eabi_attribute	14, 0	@ Tag_ABI_PCS_R9_use
	.file	"main.c"
	.file	1 "D:\\ikingtec\\Robot\\ODrive\\Firmware\\MDK-ARM" "../Board/v3/Src/main.c"
	.file	2 "D:\\ikingtec\\Robot\\ODrive\\Firmware\\MDK-ARM" "../ThirdParty/STM32F4xx_HAL_Driver/Inc/stm32f4xx_hal_def.h"
	.file	3 "D:\\ikingtec\\Robot\\ODrive\\Firmware\\MDK-ARM" "../ThirdParty/CMSIS/Device/ST/STM32F4xx/Include/stm32f405xx.h"
	.file	4 "D:\\ikingtec\\Robot\\ODrive\\Firmware\\MDK-ARM" "../ThirdParty/STM32F4xx_HAL_Driver/Inc\\stm32f4xx_hal_tim.h"
	.file	5 "D:\\ikingtec\\Robot\\ODrive\\Firmware\\MDK-ARM" "../ThirdParty/STM32F4xx_HAL_Driver/Inc\\stm32f4xx_hal_dma.h"
	.file	6 "D:\\Embed\\MDK\\MDK\\ARM\\ARMCompilerV621\\Bin\\..\\include" "stdint.h"
	.section	.text.SystemClock_Config,"ax",%progbits
	.hidden	SystemClock_Config              @ -- Begin function SystemClock_Config
	.globl	SystemClock_Config
	.p2align	2
	.type	SystemClock_Config,%function
	.code	16                              @ @SystemClock_Config
	.thumb_func
SystemClock_Config:
.Lfunc_begin0:
	.loc	1 161 0                         @ ../Board/v3/Src/main.c:161:0
	.fnstart
	.cfi_sections .debug_frame
	.cfi_startproc
@ %bb.0:
	.save	{r7, lr}
	push	{r7, lr}
	.cfi_def_cfa_offset 8
	.cfi_offset lr, -4
	.cfi_offset r7, -8
	.pad	#80
	sub	sp, #80
	.cfi_def_cfa_offset 88
.Ltmp0:
	.loc	1 168 3 prologue_end            @ ../Board/v3/Src/main.c:168:3
	b	.LBB0_1
.LBB0_1:
	.loc	1 0 3 is_stmt 0                 @ ../Board/v3/Src/main.c:0:3
	movs	r0, #0
.Ltmp1:
	.loc	1 168 3                         @ ../Board/v3/Src/main.c:168:3
	str	r0, [sp, #8]
	movw	r0, #14400
	movt	r0, #16386
	ldr	r1, [r0]
	orr	r1, r1, #268435456
	str	r1, [r0]
	ldr	r0, [r0]
	and	r0, r0, #268435456
	str	r0, [sp, #8]
	ldr	r0, [sp, #8]
	b	.LBB0_2
.Ltmp2:
.LBB0_2:
	.loc	1 170 3 is_stmt 1               @ ../Board/v3/Src/main.c:170:3
	b	.LBB0_3
.LBB0_3:
	.loc	1 0 3 is_stmt 0                 @ ../Board/v3/Src/main.c:0:3
	movs	r0, #0
.Ltmp3:
	.loc	1 170 3                         @ ../Board/v3/Src/main.c:170:3
	str	r0, [sp, #4]
	movw	r0, #28672
	movt	r0, #16384
	ldr	r1, [r0]
	orr	r1, r1, #16384
	str	r1, [r0]
	ldr	r0, [r0]
	and	r0, r0, #16384
	str	r0, [sp, #4]
	ldr	r0, [sp, #4]
	b	.LBB0_4
.Ltmp4:
.LBB0_4:
	.loc	1 0 3                           @ ../Board/v3/Src/main.c:0:3
	movs	r0, #9
	.loc	1 174 36 is_stmt 1              @ ../Board/v3/Src/main.c:174:36
	str	r0, [sp, #32]
	mov.w	r0, #65536
	.loc	1 175 30                        @ ../Board/v3/Src/main.c:175:30
	str	r0, [sp, #36]
	movs	r0, #1
	.loc	1 176 30                        @ ../Board/v3/Src/main.c:176:30
	str	r0, [sp, #52]
	movs	r0, #2
	.loc	1 177 34                        @ ../Board/v3/Src/main.c:177:34
	str	r0, [sp, #56]
	mov.w	r1, #4194304
	.loc	1 178 35                        @ ../Board/v3/Src/main.c:178:35
	str	r1, [sp, #60]
	movs	r1, #4
	.loc	1 179 30                        @ ../Board/v3/Src/main.c:179:30
	str	r1, [sp, #64]
	movs	r1, #168
	.loc	1 180 30                        @ ../Board/v3/Src/main.c:180:30
	str	r1, [sp, #68]
	.loc	1 181 30                        @ ../Board/v3/Src/main.c:181:30
	str	r0, [sp, #72]
	movs	r0, #7
	.loc	1 182 30                        @ ../Board/v3/Src/main.c:182:30
	str	r0, [sp, #76]
	add	r0, sp, #32
.Ltmp5:
	.loc	1 183 7                         @ ../Board/v3/Src/main.c:183:7
	bl	HAL_RCC_OscConfig
.Ltmp6:
	.loc	1 183 7 is_stmt 0               @ ../Board/v3/Src/main.c:183:7
	cbz	r0, .LBB0_6
	b	.LBB0_5
.LBB0_5:
.Ltmp7:
	.loc	1 185 5 is_stmt 1               @ ../Board/v3/Src/main.c:185:5
	movw	r0, :lower16:.L.str
	movt	r0, :upper16:.L.str
	movs	r1, #185
	bl	_Error_Handler
	.loc	1 186 3                         @ ../Board/v3/Src/main.c:186:3
	b	.LBB0_6
.Ltmp8:
.LBB0_6:
	.loc	1 0 3 is_stmt 0                 @ ../Board/v3/Src/main.c:0:3
	movs	r0, #15
	.loc	1 190 31 is_stmt 1              @ ../Board/v3/Src/main.c:190:31
	str	r0, [sp, #12]
	movs	r0, #2
	.loc	1 192 34                        @ ../Board/v3/Src/main.c:192:34
	str	r0, [sp, #16]
	movs	r0, #0
	.loc	1 193 35                        @ ../Board/v3/Src/main.c:193:35
	str	r0, [sp, #20]
	mov.w	r0, #5120
	.loc	1 194 36                        @ ../Board/v3/Src/main.c:194:36
	str	r0, [sp, #24]
	mov.w	r0, #4096
	.loc	1 195 36                        @ ../Board/v3/Src/main.c:195:36
	str	r0, [sp, #28]
	add	r0, sp, #12
	movs	r1, #5
.Ltmp9:
	.loc	1 197 7                         @ ../Board/v3/Src/main.c:197:7
	bl	HAL_RCC_ClockConfig
.Ltmp10:
	.loc	1 197 7 is_stmt 0               @ ../Board/v3/Src/main.c:197:7
	cbz	r0, .LBB0_8
	b	.LBB0_7
.LBB0_7:
.Ltmp11:
	.loc	1 199 5 is_stmt 1               @ ../Board/v3/Src/main.c:199:5
	movw	r0, :lower16:.L.str
	movt	r0, :upper16:.L.str
	movs	r1, #199
	bl	_Error_Handler
	.loc	1 200 3                         @ ../Board/v3/Src/main.c:200:3
	b	.LBB0_8
.Ltmp12:
.LBB0_8:
	.loc	1 204 22                        @ ../Board/v3/Src/main.c:204:22
	bl	HAL_RCC_GetHCLKFreq
	movw	r1, #19923
	movt	r1, #4194
	.loc	1 204 43 is_stmt 0              @ ../Board/v3/Src/main.c:204:43
	umull	r1, r0, r0, r1
	lsrs	r0, r0, #6
	.loc	1 204 3                         @ ../Board/v3/Src/main.c:204:3
	bl	HAL_SYSTICK_Config
	movs	r0, #4
	.loc	1 208 3 is_stmt 1               @ ../Board/v3/Src/main.c:208:3
	bl	HAL_SYSTICK_CLKSourceConfig
	mov.w	r0, #-1
	movs	r1, #15
	movs	r2, #0
	.loc	1 211 3                         @ ../Board/v3/Src/main.c:211:3
	bl	HAL_NVIC_SetPriority
	.loc	1 212 1 epilogue_begin          @ ../Board/v3/Src/main.c:212:1
	add	sp, #80
	pop	{r7, pc}
.Ltmp13:
.Lfunc_end0:
	.size	SystemClock_Config, .Lfunc_end0-SystemClock_Config
	.cfi_endproc
	.cantunwind
	.fnend
                                        @ -- End function
	.section	.text._Error_Handler,"ax",%progbits
	.hidden	_Error_Handler                  @ -- Begin function _Error_Handler
	.globl	_Error_Handler
	.p2align	2
	.type	_Error_Handler,%function
	.code	16                              @ @_Error_Handler
	.thumb_func
_Error_Handler:
.Lfunc_begin1:
	.loc	1 246 0                         @ ../Board/v3/Src/main.c:246:0
	.fnstart
	.cfi_startproc
@ %bb.0:
	.pad	#8
	sub	sp, #8
	.cfi_def_cfa_offset 8
	str	r0, [sp, #4]
	str	r1, [sp]
.Ltmp14:
	.loc	1 249 3 prologue_end            @ ../Board/v3/Src/main.c:249:3
	b	.LBB1_1
.LBB1_1:                                @ =>This Inner Loop Header: Depth=1
	b	.LBB1_1
.Ltmp15:
.Lfunc_end1:
	.size	_Error_Handler, .Lfunc_end1-_Error_Handler
	.cfi_endproc
	.cantunwind
	.fnend
                                        @ -- End function
	.section	.text.HAL_TIM_PeriodElapsedCallback,"ax",%progbits
	.hidden	HAL_TIM_PeriodElapsedCallback   @ -- Begin function HAL_TIM_PeriodElapsedCallback
	.globl	HAL_TIM_PeriodElapsedCallback
	.p2align	2
	.type	HAL_TIM_PeriodElapsedCallback,%function
	.code	16                              @ @HAL_TIM_PeriodElapsedCallback
	.thumb_func
HAL_TIM_PeriodElapsedCallback:
.Lfunc_begin2:
	.loc	1 227 0                         @ ../Board/v3/Src/main.c:227:0
	.fnstart
	.cfi_startproc
@ %bb.0:
	.save	{r7, lr}
	push	{r7, lr}
	.cfi_def_cfa_offset 8
	.cfi_offset lr, -4
	.cfi_offset r7, -8
	.pad	#8
	sub	sp, #8
	.cfi_def_cfa_offset 16
	str	r0, [sp, #4]
.Ltmp16:
	.loc	1 231 7 prologue_end            @ ../Board/v3/Src/main.c:231:7
	ldr	r0, [sp, #4]
	.loc	1 231 13 is_stmt 0              @ ../Board/v3/Src/main.c:231:13
	ldr	r0, [r0]
	movw	r1, #8192
	movt	r1, #16384
.Ltmp17:
	.loc	1 231 7                         @ ../Board/v3/Src/main.c:231:7
	cmp	r0, r1
	bne	.LBB2_2
	b	.LBB2_1
.LBB2_1:
.Ltmp18:
	.loc	1 232 5 is_stmt 1               @ ../Board/v3/Src/main.c:232:5
	bl	HAL_IncTick
	.loc	1 233 3                         @ ../Board/v3/Src/main.c:233:3
	b	.LBB2_2
.Ltmp19:
.LBB2_2:
	.loc	1 237 1 epilogue_begin          @ ../Board/v3/Src/main.c:237:1
	add	sp, #8
	pop	{r7, pc}
.Ltmp20:
.Lfunc_end2:
	.size	HAL_TIM_PeriodElapsedCallback, .Lfunc_end2-HAL_TIM_PeriodElapsedCallback
	.cfi_endproc
	.cantunwind
	.fnend
                                        @ -- End function
	.type	.L.str,%object                  @ @.str
	.section	.rodata.str1.1,"aMS",%progbits,1
.L.str:
	.asciz	"../Board/v3/Src/main.c"
	.size	.L.str, 23

	.file	7 "D:\\ikingtec\\Robot\\ODrive\\Firmware\\MDK-ARM" "../ThirdParty/STM32F4xx_HAL_Driver/Inc\\stm32f4xx_hal_rcc.h"
	.file	8 "D:\\ikingtec\\Robot\\ODrive\\Firmware\\MDK-ARM" "../ThirdParty/STM32F4xx_HAL_Driver/Inc/stm32f4xx_hal_rcc_ex.h"
	.section	".note.GNU-stack","",%progbits
	.eabi_attribute	30, 6	@ Tag_ABI_optimization_goals
	.ARM_attribute	16, 1	@ Tag_AV_eba