	.text
	.syntax unified
	.eabi_attribute	67, "2.09"	@ Tag_conformance
	.cpu	cortex-m4
	.eabi_attribute	6, 13	@ Tag_CPU_arch
	.eabi_attribute	7, 77	@ Tag_CPU_arch_profile
	.eabi_attribute	8, 0	@ Tag_ARM_ISA_use
	.eabi_attribute	9, 2	@ Tag_THUMB_ISA_use
	.fpu	fpv4-sp-d16
	.eabi_attribute	27, 1	@ Tag_ABI_HardFP_use
	.eabi_attribute	36, 1	@ Tag_FP_HP_extension
	.eabi_attribute	34, 1	@ Tag_CPU_unaligned_access
	.eabi_attribute	17, 1	@ Tag_ABI_PCS_GOT_use
	.eabi_attribute	20, 2	@ Tag_ABI_FP_denormal
	.eabi_attribute	21, 0	@ Tag_ABI_FP_exceptions
	.eabi_attribute	23, 1	@ Tag_ABI_FP_number_model
	.eabi_attribute	24, 1	@ Tag_ABI_align_needed
	.eabi_attribute	25, 1	@ Tag_ABI_align_preserved
	.eabi_attribute	28, 1	@ Tag_ABI_VFP_args
	.eabi_attribute	38, 1	@ Tag_ABI_FP_16bit_format
	.eabi_attribute	18, 2	@ Tag_ABI_PCS_wchar_t
	.eabi_attribute	26, 1	@ Tag_ABI_enum_size
	.eabi_attribute	14, 0	@ Tag_ABI_PCS_R9_use
	.file	"motor.cpp"
	.file	1 "D:\\ikingtec\\Robot\\ODrive\\Firmware\\MDK-ARM" "../Board/v3/Inc\\board.h"
	.file	2 "D:\\ikingtec\\Robot\\ODrive\\Firmware\\MDK-ARM" "../../Firmware\\MotorControl/utils.hpp"
	.file	3 "D:\\Embed\\MDK\\MDK\\ARM\\ARMCompilerV621\\Bin\\..\\include" "stdint.h"
	.file	4 "D:\\ikingtec\\Robot\\ODrive\\Firmware\\MDK-ARM" "../MotorControl/motor.cpp"
	.file	5 "D:\\Embed\\MDK\\MDK\\ARM\\ARMCompilerV621\\Bin\\..\\include\\libcxx\\__utility" "in_place.h"
	.file	6 "D:\\Embed\\MDK\\MDK\\ARM\\ARMCompilerV621\\Bin\\..\\include\\libcxx" "optional"
	.file	7 "D:\\Embed\\MDK\\MDK\\ARM\\ARMCompilerV621\\Bin\\..\\include\\libcxx" "variant"
	.file	8 "D:\\Embed\\MDK\\MDK\\ARM\\ARMCompilerV621\\Bin\\..\\include" "time.h"
	.file	9 "D:\\ikingtec\\Robot\\ODrive\\Firmware\\MDK-ARM" "../../Firmware\\autogen/interfaces.hpp"
	.file	10 "D:\\ikingtec\\Robot\\ODrive\\Firmware\\MDK-ARM" "../ThirdParty/STM32F4xx_HAL_Driver/Inc\\stm32f4xx_hal_tim.h"
	.file	11 "D:\\ikingtec\\Robot\\ODrive\\Firmware\\MDK-ARM" "../ThirdParty/STM32F4xx_HAL_Driver/Inc/stm32f4xx_hal_def.h"
	.file	12 "D:\\Embed\\MDK\\MDK\\ARM\\ARMCompilerV621\\Bin\\..\\include\\libcxx" "limits"
	.file	13 "D:\\Embed\\MDK\\MDK\\ARM\\ARMCompilerV621\\Bin\\..\\include\\libcxx\\__type_traits" "underlying_type.h"
	.file	14 "D:\\Embed\\MDK\\MDK\\ARM\\ARMCompilerV621\\Bin\\..\\include\\libcxx\\__utility" "pair.h"
	.file	15 "D:\\Embed\\MDK\\MDK\\ARM\\ARMCompilerV621\\Bin\\..\\include\\libcxx\\__tuple" "sfinae_helpers.h"
	.file	16 "D:\\Embed\\MDK\\MDK\\ARM\\ARMCompilerV621\\Bin\\..\\include\\libcxx\\__type_traits" "add_pointer.h"
	.file	17 "D:\\ikingtec\\Robot\\ODrive\\Firmware\\MDK-ARM" "../ThirdParty/CMSIS/Device/ST/STM32F4xx/Include/stm32f405xx.h"
	.file	18 "D:\\Embed\\MDK\\MDK\\ARM\\ARMCompilerV621\\Bin\\..\\include\\libcxx" "array"
	.file	19 "D:\\Embed\\MDK\\MDK\\ARM\\ARMCompilerV621\\Bin\\..\\include" "stddef.h"
	.file	20 "D:\\ikingtec\\Robot\\ODrive\\Firmware\\MDK-ARM" "../ThirdParty/STM32F4xx_HAL_Driver/Inc\\stm32f4xx_hal_dma.h"
	.file	21 "D:\\ikingtec\\Robot\\ODrive\\Firmware\\MDK-ARM" "../MotorControl/motor.hpp"
	.file	22 "D:\\ikingtec\\Robot\\ODrive\\Firmware\\MDK-ARM" "../../Firmware\\MotorControl/component.hpp"
	.file	23 "D:\\ikingtec\\Robot\\ODrive\\Firmware\\MDK-ARM" "../MotorControl/phase_control_law.hpp"
	.file	24 "D:\\ikingtec\\Robot\\ODrive\\Firmware\\MDK-ARM" "../../Firmware\\Drivers/STM32/stm32_system.h"
	.file	25 "D:\\ikingtec\\Robot\\ODrive\\Firmware\\MDK-ARM" "../MotorControl/task_timer.hpp"
	.section	.text._ZN5MotorC2EP17TIM_HandleTypeDefhfR7Drv8301S3_R31OnboardThermistorCurrentLimiterR32OffboardThermistorCurrentLimiter,"ax",%progbits
	.hidden	_ZN5MotorC2EP17TIM_HandleTypeDefhfR7Drv8301S3_R31OnboardThermistorCurrentLimiterR32OffboardThermistorCurrentLimiter @ -- Begin function _ZN5MotorC2EP17TIM_HandleTypeDefhfR7Drv8301S3_R31OnboardThermistorCurrentLimiterR32OffboardThermistorCurrentLimiter
	.globl	_ZN5MotorC2EP17TIM_HandleTypeDefhfR7Drv8301S3_R31OnboardThermistorCurrentLimiterR32OffboardThermistorCurrentLimiter
	.p2align	2
	.type	_ZN5MotorC2EP17TIM_HandleTypeDefhfR7Drv8301S3_R31OnboardThermistorCurrentLimiterR32OffboardThermistorCurrentLimiter,%function
	.code	16                              @ @_ZN5MotorC2EP17TIM_HandleTypeDefhfR7Drv8301S3_R31OnboardThermistorCurrentLimiterR32OffboardThermistorCurrentLimiter
	.thumb_func
_ZN5MotorC2EP17TIM_HandleTypeDefhfR7Drv8301S3_R31OnboardThermistorCurrentLimiterR32OffboardThermistorCurrentLimiter:
.Lfunc_begin0:
	.loc	4 164 0                         @ ../MotorControl/motor.cpp:164:0
	.fnstart
	.cfi_sections .debug_frame
	.cfi_startproc
@ %bb.0:
	.save	{r7, lr}
	push	{r7, lr}
	.cfi_def_cfa_offset 8
	.cfi_offset lr, -4
	.cfi_offset r7, -8
	.pad	#72
	sub	sp, #72
	.cfi_def_cfa_offset 80
	ldr.w	r12, [sp, #88]
	ldr.w	r12, [sp, #84]
	ldr.w	r12, [sp, #80]
                                        @ kill: def $r12 killed $r2
	str	r0, [sp, #68]
	str	r1, [sp, #64]
	strb.w	r2, [sp, #63]
	vstr	s0, [sp, #56]
	str	r3, [sp, #52]
	ldr	r0, [sp, #68]
.Ltmp0:
	.loc	4 158 16 prologue_end           @ ../MotorControl/motor.cpp:158:16
	str	r0, [sp, #16]                   @ 4-byte Spill
	ldr	r1, [sp, #64]
	.loc	4 158 9 is_stmt 0               @ ../MotorControl/motor.cpp:158:9
	str	r1, [r0]
	.loc	4 159 30 is_stmt 1              @ ../MotorControl/motor.cpp:159:30
	ldrb.w	r1, [sp, #63]
	.loc	4 159 9 is_stmt 0               @ ../MotorControl/motor.cpp:159:9
	strb	r1, [r0, #4]
	.loc	4 160 28 is_stmt 1              @ ../MotorControl/motor.cpp:160:28
	ldr	r1, [sp, #56]
	.loc	4 160 9 is_stmt 0               @ ../MotorControl/motor.cpp:160:9
	str	r1, [r0, #8]
	.loc	4 161 22 is_stmt 1              @ ../MotorControl/motor.cpp:161:22
	ldr	r1, [sp, #52]
	.loc	4 161 9 is_stmt 0               @ ../MotorControl/motor.cpp:161:9
	str	r1, [r0, #12]
	.loc	4 162 16 is_stmt 1              @ ../MotorControl/motor.cpp:162:16
	ldr	r1, [sp, #80]
	.loc	4 162 9 is_stmt 0               @ ../MotorControl/motor.cpp:162:9
	str	r1, [r0, #16]
	.loc	4 163 25 is_stmt 1              @ ../MotorControl/motor.cpp:163:25
	ldr	r1, [sp, #84]
	.loc	4 163 9 is_stmt 0               @ ../MotorControl/motor.cpp:163:9
	str	r1, [r0, #20]
	.loc	4 164 27 is_stmt 1              @ ../MotorControl/motor.cpp:164:27
	ldr	r1, [sp, #88]
	.loc	4 164 9 is_stmt 0               @ ../MotorControl/motor.cpp:164:9
	str	r1, [r0, #24]
	.loc	4 151 8 is_stmt 1               @ ../MotorControl/motor.cpp:151:8
	adds	r0, #28
	bl	_ZN5Motor8Config_tC2Ev
	ldr	r0, [sp, #16]                   @ 4-byte Reload
	movs	r1, #0
	.loc	21 105 11                       @ ../MotorControl/motor.hpp:105:11
	str	r1, [sp, #8]                    @ 4-byte Spill
	str.w	r1, [r0, #136]
	.loc	21 109 14                       @ ../MotorControl/motor.hpp:109:14
	str.w	r1, [r0, #140]
	.loc	21 110 14                       @ ../MotorControl/motor.hpp:110:14
	str.w	r1, [r0, #144]
	.loc	21 113 11                       @ ../MotorControl/motor.hpp:113:11
	str.w	r1, [r0, #156]
	str.w	r1, [r0, #152]
	.loc	21 114 11                       @ ../MotorControl/motor.hpp:114:11
	str.w	r1, [r0, #160]
	.loc	21 117 10                       @ ../MotorControl/motor.hpp:117:10
	strb.w	r1, [r0, #164]
	.loc	21 118 13                       @ ../MotorControl/motor.hpp:118:13
	strb.w	r1, [r0, #165]
	.loc	21 119 10                       @ ../MotorControl/motor.hpp:119:10
	strb.w	r1, [r0, #166]
	.loc	4 151 8                         @ ../MotorControl/motor.cpp:151:8
	adds	r0, #168
	bl	_ZNSt3__28optionalI9Iph_ABC_tEC2B7v180000Ev
	ldr	r0, [sp, #16]                   @ 4-byte Reload
	ldr	r1, [sp, #8]                    @ 4-byte Reload
	.loc	21 121 27                       @ ../MotorControl/motor.hpp:121:27
	str.w	r1, [r0, #184]
	str.w	r1, [r0, #188]
	str.w	r1, [r0, #192]
	.loc	21 122 11                       @ ../MotorControl/motor.hpp:122:11
	str.w	r1, [r0, #196]
	.loc	21 123 11                       @ ../MotorControl/motor.hpp:123:11
	str.w	r1, [r0, #200]
	.loc	21 124 11                       @ ../MotorControl/motor.hpp:124:11
	str.w	r1, [r0, #204]
	.loc	4 151 8                         @ ../MotorControl/motor.cpp:151:8
	adds	r0, #208
	bl	_ZN23FieldOrientedControllerC2Ev
	ldr	r0, [sp, #16]                   @ 4-byte Reload
	ldr	r1, [sp, #8]                    @ 4-byte Reload
	movs	r2, #0
	movt	r2, #16672
	.loc	21 126 11                       @ ../MotorControl/motor.hpp:126:11
	str.w	r2, [r0, #376]
	.loc	21 127 11                       @ ../MotorControl/motor.hpp:127:11
	str.w	r1, [r0, #380]
	.loc	21 128 11                       @ ../MotorControl/motor.hpp:128:11
	str.w	r1, [r0, #384]
	.loc	4 151 8                         @ ../MotorControl/motor.cpp:151:8
	add.w	r0, r0, #388
	bl	_ZN9InputPortIfEC2Ev
	ldr	r0, [sp, #16]                   @ 4-byte Reload
	add.w	r0, r0, #396
	bl	_ZN9InputPortIfEC2Ev
	ldr	r0, [sp, #8]                    @ 4-byte Reload
	ldr	r1, [sp, #16]                   @ 4-byte Reload
	.loc	21 133 11                       @ ../MotorControl/motor.hpp:133:11
	str.w	r0, [r1, #404]
	.loc	21 134 25                       @ ../MotorControl/motor.hpp:134:25
	add.w	r1, r1, #408
	.loc	21 134 43 is_stmt 0             @ ../MotorControl/motor.hpp:134:43
	str	r1, [sp, #4]                    @ 4-byte Spill
	str	r0, [sp, #40]
	.loc	21 134 49                       @ ../MotorControl/motor.hpp:134:49
	str	r0, [sp, #36]
	add	r0, sp, #44
	add	r1, sp, #40
	add	r2, sp, #36
	.loc	21 134 42                       @ ../MotorControl/motor.hpp:134:42
	bl	_ZNSt3__24pairIffEC2B7v180000IffLi0EEEOT_OT0_
	ldr	r0, [sp, #4]                    @ 4-byte Reload
	.loc	21 134 39                       @ ../MotorControl/motor.hpp:134:39
	vldr	s0, [sp, #44]
	vldr	s1, [sp, #48]
	bl	_ZN10OutputPortINSt3__24pairIffEEEC2ES2_
	ldr	r0, [sp, #8]                    @ 4-byte Reload
	ldr	r1, [sp, #16]                   @ 4-byte Reload
	.loc	21 135 25 is_stmt 1             @ ../MotorControl/motor.hpp:135:25
	add.w	r1, r1, #420
	.loc	21 135 43 is_stmt 0             @ ../MotorControl/motor.hpp:135:43
	str	r1, [sp, #12]                   @ 4-byte Spill
	str	r0, [sp, #24]
	.loc	21 135 49                       @ ../MotorControl/motor.hpp:135:49
	str	r0, [sp, #20]
	add	r0, sp, #28
	add	r1, sp, #24
	add	r2, sp, #20
	.loc	21 135 42                       @ ../MotorControl/motor.hpp:135:42
	bl	_ZNSt3__24pairIffEC2B7v180000IffLi0EEEOT_OT0_
	ldr	r0, [sp, #12]                   @ 4-byte Reload
	.loc	21 135 39                       @ ../MotorControl/motor.hpp:135:39
	vldr	s0, [sp, #28]
	vldr	s1, [sp, #32]
	bl	_ZN10OutputPortINSt3__24pairIffEEEC2ES2_
	ldr	r0, [sp, #16]                   @ 4-byte Reload
.Ltmp1:
	.loc	4 165 5 is_stmt 1               @ ../MotorControl/motor.cpp:165:5
	bl	_ZN5Motor12apply_configEv
                                        @ kill: def $r1 killed $r0
	.loc	4 166 5                         @ ../MotorControl/motor.cpp:166:5
	ldr	r0, [sp, #16]                   @ 4-byte Reload
	ldr	r1, [r0, #20]
	.loc	4 166 28 is_stmt 0              @ ../MotorControl/motor.cpp:166:28
	str	r0, [r1, #32]
	.loc	4 167 5 is_stmt 1               @ ../MotorControl/motor.cpp:167:5
	ldr	r1, [r0, #24]
	.loc	4 167 30 is_stmt 0              @ ../MotorControl/motor.cpp:167:30
	str	r0, [r1, #32]
.Ltmp2:
	.loc	4 168 1 epilogue_begin is_stmt 1 @ ../MotorControl/motor.cpp:168:1
	add	sp, #72
	pop	{r7, pc}
.Ltmp3:
.Lfunc_end0:
	.size	_ZN5MotorC2EP17TIM_HandleTypeDefhfR7Drv8301S3_R31OnboardThermistorCurrentLimiterR32OffboardThermistorCurrentLimiter, .Lfunc_end0-_ZN5MotorC2EP17TIM_HandleTypeDefhfR7Drv8301S3_R31OnboardThermistorCurrentLimiterR32OffboardThermistorCurrentLimiter
	.cfi_endproc
	.cantunwind
	.fnend
                                        @ -- End function
	.section	.text._ZN5Motor8Config_tC2Ev,"axG",%progbits,_ZN5Motor8Config_tC2Ev,comdat
	.hidden	_ZN5Motor8Config_tC2Ev          @ -- Begin function _ZN5Motor8Config_tC2Ev
	.weak	_ZN5Motor8Config_tC2Ev
	.p2align	2
	.type	_ZN5Motor8Config_tC2Ev,%function
	.code	16                              @ @_ZN5Motor8Config_tC2Ev
	.thumb_func
_ZN5Motor8Config_tC2Ev:
.Lfunc_begin1:
	.loc	21 17 0                         @ ../MotorControl/motor.hpp:17:0
	.fnstart
	.cfi_startproc
@ %bb.0:
	.save	{r7, lr}
	push	{r7, lr}
	.cfi_def_cfa_offset 8
	.cfi_offset lr, -4
	.cfi_offset r7, -8
	.pad	#16
	sub	sp, #16
	.cfi_def_cfa_offset 24
	str	r0, [sp, #12]
	ldr	r1, [sp, #12]
	str	r1, [sp, #8]                    @ 4-byte Spill
	movs	r2, #0
.Ltmp4:
	.loc	21 18 14 prologue_end           @ ../MotorControl/motor.hpp:18:14
	str	r2, [sp, #4]                    @ 4-byte Spill
	strb	r2, [r1]
	movs	r0, #7
	.loc	21 19 17                        @ ../MotorControl/motor.hpp:19:17
	str	r0, [r1, #4]
	movs	r0, #0
	movt	r0, #16672
	.loc	21 20 15                        @ ../MotorControl/motor.hpp:20:15
	str	r0, [sp]                        @ 4-byte Spill
	str	r0, [r1, #8]
	mov.w	r3, #1073741824
	.loc	21 21 15                        @ ../MotorControl/motor.hpp:21:15
	str	r3, [r1, #12]
	.loc	21 22 15                        @ ../MotorControl/motor.hpp:22:15
	str	r2, [r1, #16]
	.loc	21 23 15                        @ ../MotorControl/motor.hpp:23:15
	str	r2, [r1, #20]
	movw	r3, #55050
	movt	r3, #15651
	.loc	21 24 15                        @ ../MotorControl/motor.hpp:24:15
	str	r3, [r1, #24]
	.loc	21 25 19                        @ ../MotorControl/motor.hpp:25:19
	strb	r2, [r1, #28]
	.loc	21 28 15                        @ ../MotorControl/motor.hpp:28:15
	str	r0, [r1, #32]
	mov.w	r0, #1090519040
	.loc	21 29 15                        @ ../MotorControl/motor.hpp:29:15
	str	r0, [r1, #36]
	.loc	21 30 28                        @ ../MotorControl/motor.hpp:30:28
	bl	_ZNSt3__214numeric_limitsIfE8infinityB7v180000Ev
	ldr	r2, [sp]                        @ 4-byte Reload
	ldr	r1, [sp, #4]                    @ 4-byte Reload
	ldr	r0, [sp, #8]                    @ 4-byte Reload
	.loc	21 30 15 is_stmt 0              @ ../MotorControl/motor.hpp:30:15
	vstr	s0, [r0, #40]
	movs	r3, #0
	movt	r3, #17008
	.loc	21 32 15 is_stmt 1              @ ../MotorControl/motor.hpp:32:15
	str	r3, [r0, #44]
	movs	r3, #0
	movt	r3, #17530
	.loc	21 33 15                        @ ../MotorControl/motor.hpp:33:15
	str	r3, [r0, #48]
	movs	r3, #0
	movt	r3, #17096
	.loc	21 34 15                        @ ../MotorControl/motor.hpp:34:15
	str	r3, [r0, #52]
	movs	r3, #0
	movt	r3, #17136
	.loc	21 35 15                        @ ../MotorControl/motor.hpp:35:15
	str	r3, [r0, #56]
	.loc	21 37 15                        @ ../MotorControl/motor.hpp:37:15
	str	r2, [r0, #60]
	.loc	21 38 15                        @ ../MotorControl/motor.hpp:38:15
	str	r2, [r0, #64]
	.loc	21 39 14                        @ ../MotorControl/motor.hpp:39:14
	strb.w	r1, [r0, #68]
	.loc	21 40 15                        @ ../MotorControl/motor.hpp:40:15
	str	r2, [r0, #72]
	mov.w	r2, #1065353216
	.loc	21 41 15                        @ ../MotorControl/motor.hpp:41:15
	str	r2, [r0, #76]
	.loc	21 43 14                        @ ../MotorControl/motor.hpp:43:14
	strb.w	r1, [r0, #80]
	.loc	21 44 14                        @ ../MotorControl/motor.hpp:44:14
	strb.w	r1, [r0, #81]
	movs	r2, #0
	movt	r2, #65408
	.loc	21 46 15                        @ ../MotorControl/motor.hpp:46:15
	str	r2, [r0, #84]
	mov.w	r2, #2139095040
	.loc	21 47 15                        @ ../MotorControl/motor.hpp:47:15
	str	r2, [r0, #88]
	movw	r2, #52429
	movt	r2, #15820
	.loc	21 48 15                        @ ../MotorControl/motor.hpp:48:15
	str	r2, [r0, #92]
	movw	r2, #52429
	movt	r2, #15948
	.loc	21 50 15                        @ ../MotorControl/motor.hpp:50:15
	str	r2, [r0, #96]
	.loc	21 55 16                        @ ../MotorControl/motor.hpp:55:16
	str	r1, [r0, #104]
	.loc	21 17 12 epilogue_begin         @ ../MotorControl/motor.hpp:17:12
	add	sp, #16
	pop	{r7, pc}
.Ltmp5:
.Lfunc_end1:
	.size	_ZN5Motor8Config_tC2Ev, .Lfunc_end1-_ZN5Motor8Config_tC2Ev
	.cfi_endproc
	.cantunwind
	.fnend
                                        @ -- End function
	.section	.text._ZNSt3__28optionalI9Iph_ABC_tEC2B7v180000Ev,"axG",%progbits,_ZNSt3__28optionalI9Iph_ABC_tEC2B7v180000Ev,comdat
	.hidden	_ZNSt3__28optionalI9Iph_ABC_tEC2B7v180000Ev @ -- Begin function _ZNSt3__28optionalI9Iph_ABC_tEC2B7v180000Ev
	.weak	_ZNSt3__28optionalI9Iph_ABC_tEC2B7v180000Ev
	.p2align	2
	.type	_ZNSt3__28optionalI9Iph_ABC_tEC2B7v180000Ev,%function
	.code	16                              @ @_ZNSt3__28optionalI9Iph_ABC_tEC2B7v180000Ev
	.thumb_func
_ZNSt3__28optionalI9Iph_ABC_tEC2B7v180000Ev:
.Lfunc_begin2:
	.loc	6 800 0                         @ D:\Embed\MDK\MDK\ARM\ARMCompilerV621\Bin\..\include\libcxx\optional:800:0
	.fnstart
	.cfi_startproc
@ %bb.0:
	.save	{r7, lr}
	push	{r7, lr}
	.cfi_def_cfa_offset 8
	.cfi_offset lr, -4
	.cfi_offset r7, -8
	.pad	#8
	sub	sp, #8
	.cfi_def_cfa_offset 16
	str	r0, [sp, #4]
	ldr	r0, [sp, #4]
.Ltmp6:
	.loc	6 800 41 prologue_end           @ D:\Embed\MDK\MDK\ARM\ARMCompilerV621\Bin\..\include\libcxx\optional:800:41
	str	r0, [sp]                        @ 4-byte Spill
	bl	_ZNSt3__227__optional_move_assign_baseI9Iph_ABC_tLb1EEC2Ev
	ldr	r0, [sp]                        @ 4-byte Reload
	.loc	6 800 62 epilogue_begin is_stmt 0 @ D:\Embed\MDK\MDK\ARM\ARMCompilerV621\Bin\..\include\libcxx\optional:800:62
	add	sp, #8
	pop	{r7, pc}
.Ltmp7:
.Lfunc_end2:
	.size	_ZNSt3__28optionalI9Iph_ABC_tEC2B7v180000Ev, .Lfunc_end2-_ZNSt3__28optionalI9Iph_ABC_tEC2B7v180000Ev
	.cfi_endproc
	.cantunwind
	.fnend
                                        @ -- End function
	.section	.text._ZN23FieldOrientedControllerC2Ev,"axG",%progbits,_ZN23FieldOrientedControllerC2Ev,comdat
	.hidden	_ZN23FieldOrientedControllerC2Ev @ -- Begin function _ZN23FieldOrientedControllerC2Ev
	.weak	_ZN23FieldOrientedControllerC2Ev
	.p2align	2
	.type	_ZN23FieldOrientedControllerC2Ev,%function
	.code	16                              @ @_ZN23FieldOrientedControllerC2Ev
	.thumb_func
_ZN23FieldOrientedControllerC2Ev:
.Lfunc_begin3:
	.file	26 "D:\\ikingtec\\Robot\\ODrive\\Firmware\\MDK-ARM" "../MotorControl/foc.hpp"
	.loc	26 13 0 is_stmt 1               @ ../MotorControl/foc.hpp:13:0
	.fnstart
	.cfi_startproc
@ %bb.0:
	.save	{r7, lr}
	push	{r7, lr}
	.cfi_def_cfa_offset 8
	.cfi_offset lr, -4
	.cfi_offset r7, -8
	.pad	#16
	sub	sp, #16
	.cfi_def_cfa_offset 24
	str	r0, [sp, #12]
	ldr	r0, [sp, #12]
.Ltmp8:
	.loc	26 13 7 prologue_end            @ ../MotorControl/foc.hpp:13:7
	str	r0, [sp, #4]                    @ 4-byte Spill
	bl	_ZN24AlphaBetaFrameControllerC2Ev
	ldr	r0, [sp, #4]                    @ 4-byte Reload
	adds	r0, #4
	bl	_ZN13ComponentBaseC2Ev
	ldr	r0, [sp, #4]                    @ 4-byte Reload
	movw	r1, :lower16:_ZTV23FieldOrientedController
	movt	r1, :upper16:_ZTV23FieldOrientedController
	add.w	r2, r1, #8
	str	r2, [r0]
	adds	r1, #40
	str	r1, [r0, #4]
	adds	r0, #8
	bl	_ZNSt3__28optionalINS_4pairIffEEEC2B7v180000Ev
	ldr	r0, [sp, #4]                    @ 4-byte Reload
	mov.w	r1, #1065353216
	.loc	26 31 11                        @ ../MotorControl/foc.hpp:31:11
	str	r1, [r0, #20]
	movs	r1, #0
	.loc	26 34 10                        @ ../MotorControl/foc.hpp:34:10
	str	r1, [sp, #8]                    @ 4-byte Spill
	strb	r1, [r0, #24]
	.loc	26 13 7                         @ ../MotorControl/foc.hpp:13:7
	adds	r0, #28
	bl	_ZN9InputPortINSt3__24pairIffEEEC2Ev
	ldr	r0, [sp, #4]                    @ 4-byte Reload
	adds	r0, #40
	bl	_ZN9InputPortINSt3__24pairIffEEEC2Ev
	ldr	r0, [sp, #4]                    @ 4-byte Reload
	adds	r0, #52
	bl	_ZN9InputPortIfEC2Ev
	ldr	r0, [sp, #4]                    @ 4-byte Reload
	adds	r0, #60
	bl	_ZN9InputPortIfEC2Ev
	ldr	r0, [sp, #4]                    @ 4-byte Reload
	ldr	r1, [sp, #8]                    @ 4-byte Reload
	.loc	26 43 10                        @ ../MotorControl/foc.hpp:43:10
	strb.w	r1, [r0, #72]
	.loc	26 13 7                         @ ../MotorControl/foc.hpp:13:7
	adds	r0, #76
	bl	_ZNSt3__28optionalINS_4pairIffEEEC2B7v180000Ev
	ldr	r0, [sp, #4]                    @ 4-byte Reload
	adds	r0, #88
	bl	_ZNSt3__28optionalINS_4pairIffEEEC2B7v180000Ev
	ldr	r0, [sp, #4]                    @ 4-byte Reload
	adds	r0, #100
	bl	_ZNSt3__28optionalIfEC2B7v180000Ev
	ldr	r0, [sp, #4]                    @ 4-byte Reload
	adds	r0, #108
	bl	_ZNSt3__28optionalIfEC2B7v180000Ev
	ldr	r0, [sp, #4]                    @ 4-byte Reload
	adds	r0, #120
	bl	_ZNSt3__28optionalIfEC2B7v180000Ev
	ldr	r0, [sp, #4]                    @ 4-byte Reload
	adds	r0, #128
	bl	_ZNSt3__28optionalINS_4pairIffEEEC2B7v180000Ev
	ldr	r0, [sp, #4]                    @ 4-byte Reload
	ldr	r1, [sp, #8]                    @ 4-byte Reload
	.loc	26 55 11                        @ ../MotorControl/foc.hpp:55:11
	str.w	r1, [r0, #148]
	.loc	26 56 11                        @ ../MotorControl/foc.hpp:56:11
	str.w	r1, [r0, #152]
	.loc	26 61 11                        @ ../MotorControl/foc.hpp:61:11
	str.w	r1, [r0, #156]
	.loc	26 62 11                        @ ../MotorControl/foc.hpp:62:11
	str.w	r1, [r0, #160]
	.loc	26 63 11                        @ ../MotorControl/foc.hpp:63:11
	str.w	r1, [r0, #164]
	.loc	26 13 7 epilogue_begin          @ ../MotorControl/foc.hpp:13:7
	add	sp, #16
	pop	{r7, pc}
.Ltmp9:
.Lfunc_end3:
	.size	_ZN23FieldOrientedControllerC2Ev, .Lfunc_end3-_ZN23FieldOrientedControllerC2Ev
	.cfi_endproc
	.cantunwind
	.fnend
                                        @ -- End function
	.section	.text._ZN9InputPortIfEC2Ev,"axG",%progbits,_ZN9InputPortIfEC2Ev,comdat
	.hidden	_ZN9InputPortIfEC2Ev            @ -- Begin function _ZN9InputPortIfEC2Ev
	.weak	_ZN9InputPortIfEC2Ev
	.p2align	2
	.type	_ZN9InputPortIfEC2Ev,%function
	.code	16                              @ @_ZN9InputPortIfEC2Ev
	.thumb_func
_ZN9InputPortIfEC2Ev:
.Lfunc_begin4:
	.loc	22 123 0                        @ ../../Firmware\MotorControl/component.hpp:123:0
	.fnstart
	.cfi_startproc
@ %bb.0:
	.save	{r7, lr}
	push	{r7, lr}
	.cfi_def_cfa_offset 8
	.cfi_offset lr, -4
	.cfi_offset r7, -8
	.pad	#8
	sub	sp, #8
	.cfi_def_cfa_offset 16
	str	r0, [sp, #4]
	ldr	r0, [sp, #4]
.Ltmp10:
	.loc	22 123 7 prologue_end           @ ../../Firmware\MotorControl/component.hpp:123:7
	str	r0, [sp]                        @ 4-byte Spill
	bl	_ZNSt3__27variantIJfPfP10OutputPortIfEEEC2B7v180000ILb1ELi0EEEv
	ldr	r0, [sp]                        @ 4-byte Reload
	.loc	22 123 7 epilogue_begin is_stmt 0 @ ../../Firmware\MotorControl/component.hpp:123:7
	add	sp, #8
	pop	{r7, pc}
.Ltmp11:
.Lfunc_end4:
	.size	_ZN9InputPortIfEC2Ev, .Lfunc_end4-_ZN9InputPortIfEC2Ev
	.cfi_endproc
	.cantunwind
	.fnend
                                        @ -- End function
	.section	.text._ZNSt3__24pairIffEC2B7v180000IffLi0EEEOT_OT0_,"axG",%progbits,_ZNSt3__24pairIffEC2B7v180000IffLi0EEEOT_OT0_,comdat
	.hidden	_ZNSt3__24pairIffEC2B7v180000IffLi0EEEOT_OT0_ @ -- Begin function _ZNSt3__24pairIffEC2B7v180000IffLi0EEEOT_OT0_
	.weak	_ZNSt3__24pairIffEC2B7v180000IffLi0EEEOT_OT0_
	.p2align	2
	.type	_ZNSt3__24pairIffEC2B7v180000IffLi0EEEOT_OT0_,%function
	.code	16                              @ @_ZNSt3__24pairIffEC2B7v180000IffLi0EEEOT_OT0_
	.thumb_func
_ZNSt3__24pairIffEC2B7v180000IffLi0EEEOT_OT0_:
.Lfunc_begin5:
	.loc	14 222 0 is_stmt 1              @ D:\Embed\MDK\MDK\ARM\ARMCompilerV621\Bin\..\include\libcxx\__utility/pair.h:222:0
	.fnstart
	.cfi_startproc
@ %bb.0:
	.pad	#12
	sub	sp, #12
	.cfi_def_cfa_offset 12
	str	r0, [sp, #8]
	str	r1, [sp, #4]
	str	r2, [sp]
	ldr	r0, [sp, #8]
.Ltmp12:
	.loc	14 222 35 prologue_end          @ D:\Embed\MDK\MDK\ARM\ARMCompilerV621\Bin\..\include\libcxx\__utility/pair.h:222:35
	ldr	r1, [sp, #4]
	.loc	14 222 17 is_stmt 0             @ D:\Embed\MDK\MDK\ARM\ARMCompilerV621\Bin\..\include\libcxx\__utility/pair.h:222:17
	ldr	r1, [r1]
	.loc	14 222 11                       @ D:\Embed\MDK\MDK\ARM\ARMCompilerV621\Bin\..\include\libcxx\__utility/pair.h:222:11
	str	r1, [r0]
	.loc	14 222 68                       @ D:\Embed\MDK\MDK\ARM\ARMCompilerV621\Bin\..\include\libcxx\__utility/pair.h:222:68
	ldr	r1, [sp]
	.loc	14 222 50                       @ D:\Embed\MDK\MDK\ARM\ARMCompilerV621\Bin\..\include\libcxx\__utility/pair.h:222:50
	ldr	r1, [r1]
	.loc	14 222 43                       @ D:\Embed\MDK\MDK\ARM\ARMCompilerV621\Bin\..\include\libcxx\__utility/pair.h:222:43
	str	r1, [r0, #4]
	.loc	14 222 76 epilogue_begin        @ D:\Embed\MDK\MDK\ARM\ARMCompilerV621\Bin\..\include\libcxx\__utility/pair.h:222:76
	add	sp, #12
	bx	lr
.Ltmp13:
.Lfunc_end5:
	.size	_ZNSt3__24pairIffEC2B7v180000IffLi0EEEOT_OT0_, .Lfunc_end5-_ZNSt3__24pairIffEC2B7v180000IffLi0EEEOT_OT0_
	.cfi_endproc
	.cantunwind
	.fnend
                                        @ -- End function
	.section	.text._ZN10OutputPortINSt3__24pairIffEEEC2ES2_,"axG",%progbits,_ZN10OutputPortINSt3__24pairIffEEEC2ES2_,comdat
	.hidden	_ZN10OutputPortINSt3__24pairIffEEEC2ES2_ @ -- Begin function _ZN10OutputPortINSt3__24pairIffEEEC2ES2_
	.weak	_ZN10OutputPortINSt3__24pairIffEEEC2ES2_
	.p2align	2
	.type	_ZN10OutputPortINSt3__24pairIffEEEC2ES2_,%function
	.code	16                              @ @_ZN10OutputPortINSt3__24pairIffEEEC2ES2_
	.thumb_func
_ZN10OutputPortINSt3__24pairIffEEEC2ES2_:
.Lfunc_begin6:
	.loc	22 47 0 is_stmt 1               @ ../../Firmware\MotorControl/component.hpp:47:0
	.fnstart
	.cfi_startproc
@ %bb.0:
	.pad	#12
	sub	sp, #12
	.cfi_def_cfa_offset 12
                                        @ kill: def $s2 killed $s1
                                        @ kill: def $s2 killed $s0
	vstr	s1, [sp, #8]
	vstr	s0, [sp, #4]
	str	r0, [sp]
	ldr	r0, [sp]
	movs	r1, #2
.Ltmp14:
	.loc	22 107 14 prologue_end          @ ../../Firmware\MotorControl/component.hpp:107:14
	str	r1, [r0]
	.loc	22 47 25                        @ ../../Firmware\MotorControl/component.hpp:47:25
	ldr	r1, [sp, #4]
	ldr	r2, [sp, #8]
	str	r2, [r0, #8]
	str	r1, [r0, #4]
	.loc	22 47 40 epilogue_begin is_stmt 0 @ ../../Firmware\MotorControl/component.hpp:47:40
	add	sp, #12
	bx	lr
.Ltmp15:
.Lfunc_end6:
	.size	_ZN10OutputPortINSt3__24pairIffEEEC2ES2_, .Lfunc_end6-_ZN10OutputPortINSt3__24pairIffEEEC2ES2_
	.cfi_endproc
	.cantunwind
	.fnend
                                        @ -- End function
	.section	.text._ZN5Motor12apply_configEv,"ax",%progbits
	.hidden	_ZN5Motor12apply_configEv       @ -- Begin function _ZN5Motor12apply_configEv
	.globl	_ZN5Motor12apply_configEv
	.p2align	2
	.type	_ZN5Motor12apply_configEv,%function
	.code	16                              @ @_ZN5Motor12apply_configEv
	.thumb_func
_ZN5Motor12apply_configEv:
.Lfunc_begin7:
	.loc	4 304 0 is_stmt 1               @ ../MotorControl/motor.cpp:304:0
	.fnstart
	.cfi_startproc
@ %bb.0:
	.save	{r7, lr}
	push	{r7, lr}
	.cfi_def_cfa_offset 8
	.cfi_offset lr, -4
	.cfi_offset r7, -8
	.pad	#8
	sub	sp, #8
	.cfi_def_cfa_offset 16
	str	r0, [sp, #4]
	ldr	r0, [sp, #4]
.Ltmp16:
	.loc	4 305 20 prologue_end           @ ../MotorControl/motor.cpp:305:20
	str.w	r0, [r0, #132]
	.loc	4 306 30                        @ ../MotorControl/motor.cpp:306:30
	ldrb	r1, [r0, #28]
	.loc	4 306 20 is_stmt 0              @ ../MotorControl/motor.cpp:306:20
	and	r1, r1, #1
	strb.w	r1, [r0, #166]
	.loc	4 307 5 is_stmt 1               @ ../MotorControl/motor.cpp:307:5
	bl	_ZN5Motor31update_current_controller_gainsEv
	movs	r0, #1
	.loc	4 308 5 epilogue_begin          @ ../MotorControl/motor.cpp:308:5
	add	sp, #8
	pop	{r7, pc}
.Ltmp17:
.Lfunc_end7:
	.size	_ZN5Motor12apply_configEv, .Lfunc_end7-_ZN5Motor12apply_configEv
	.cfi_endproc
	.cantunwind
	.fnend
                                        @ -- End function
	.section	.text._ZN5Motor3armEP15PhaseControlLawILj3EE,"ax",%progbits
	.hidden	_ZN5Motor3armEP15PhaseControlLawILj3EE @ -- Begin function _ZN5Motor3armEP15PhaseControlLawILj3EE
	.globl	_ZN5Motor3armEP15PhaseControlLawILj3EE
	.p2align	2
	.type	_ZN5Motor3armEP15PhaseControlLawILj3EE,%function
	.code	16                              @ @_ZN5Motor3armEP15PhaseControlLawILj3EE
	.thumb_func
_ZN5Motor3armEP15PhaseControlLawILj3EE:
.Lfunc_begin8:
	.loc	4 195 0                         @ ../MotorControl/motor.cpp:195:0
	.fnstart
	.cfi_startproc
@ %bb.0:
	.save	{r7, lr}
	push	{r7, lr}
	.cfi_def_cfa_offset 8
	.cfi_offset lr, -4
	.cfi_offset r7, -8
	.pad	#24
	sub	sp, #24
	.cfi_def_cfa_offset 32
	str	r0, [sp, #20]
	str	r1, [sp, #16]
	ldr	r0, [sp, #20]
.Ltmp18:
	.loc	4 196 5 prologue_end            @ ../MotorControl/motor.cpp:196:5
	str	r0, [sp, #4]                    @ 4-byte Spill
	ldr.w	r0, [r0, #136]
	.loc	4 196 12 is_stmt 0              @ ../MotorControl/motor.cpp:196:12
	ldr.w	r0, [r0, #360]
	.loc	4 196 30                        @ ../MotorControl/motor.cpp:196:30
	ldr	r1, [r0]
	ldr	r1, [r1, #4]
	blx	r1
	add	r0, sp, #8
.Ltmp19:
	.loc	4 198 5 is_stmt 1               @ ../MotorControl/motor.cpp:198:5
	bl	_ZN22CriticalSectionContextC2Ev
	b	.LBB8_1
.LBB8_1:                                @ =>This Inner Loop Header: Depth=1
.Ltmp20:
	.loc	4 198 5 is_stmt 0               @ ../MotorControl/motor.cpp:198:5
	ldrb.w	r0, [sp, #12]
.Ltmp21:
	.loc	4 198 5                         @ ../MotorControl/motor.cpp:198:5
	lsls	r0, r0, #31
	cbz	r0, .LBB8_3
	b	.LBB8_2
.LBB8_2:
	.loc	4 0 5                           @ ../MotorControl/motor.cpp:0:5
	add	r0, sp, #8
.Ltmp22:
	.loc	4 198 5                         @ ../MotorControl/motor.cpp:198:5
	bl	_ZN22CriticalSectionContextD2Ev
	b	.LBB8_11
.LBB8_3:                                @   in Loop: Header=BB8_1 Depth=1
.Ltmp23:
	.loc	4 199 24 is_stmt 1              @ ../MotorControl/motor.cpp:199:24
	ldr	r0, [sp, #4]                    @ 4-byte Reload
	ldr	r1, [sp, #16]
	.loc	4 199 22 is_stmt 0              @ ../MotorControl/motor.cpp:199:22
	str.w	r1, [r0, #432]
	.loc	4 202 9 is_stmt 1               @ ../MotorControl/motor.cpp:202:9
	ldr.w	r0, [r0, #136]
	.loc	4 202 16 is_stmt 0              @ ../MotorControl/motor.cpp:202:16
	ldr.w	r0, [r0, #256]
	.loc	4 202 28                        @ ../MotorControl/motor.cpp:202:28
	bl	_ZN10Controller5resetEv
	ldr	r0, [sp, #4]                    @ 4-byte Reload
	.loc	4 203 9 is_stmt 1               @ ../MotorControl/motor.cpp:203:9
	ldr.w	r2, [r0, #136]
	movs	r1, #0
	.loc	4 203 44 is_stmt 0              @ ../MotorControl/motor.cpp:203:44
	str.w	r1, [r2, #220]
.Ltmp24:
	.loc	4 204 13 is_stmt 1              @ ../MotorControl/motor.cpp:204:13
	ldr.w	r0, [r0, #432]
.Ltmp25:
	.loc	4 204 13 is_stmt 0              @ ../MotorControl/motor.cpp:204:13
	cbz	r0, .LBB8_5
	b	.LBB8_4
.LBB8_4:                                @   in Loop: Header=BB8_1 Depth=1
.Ltmp26:
	.loc	4 205 13 is_stmt 1              @ ../MotorControl/motor.cpp:205:13
	ldr	r0, [sp, #4]                    @ 4-byte Reload
	ldr.w	r0, [r0, #432]
	.loc	4 205 27 is_stmt 0              @ ../MotorControl/motor.cpp:205:27
	ldr	r1, [r0]
	ldr	r1, [r1]
	blx	r1
	.loc	4 206 9 is_stmt 1               @ ../MotorControl/motor.cpp:206:9
	b	.LBB8_5
.Ltmp27:
.LBB8_5:                                @   in Loop: Header=BB8_1 Depth=1
	.loc	4 208 27                        @ ../MotorControl/motor.cpp:208:27
	movw	r0, :lower16:odrv
	movt	r0, :upper16:odrv
	movw	r1, #16808
	ldrb	r0, [r0, r1]
	.loc	4 208 49 is_stmt 0              @ ../MotorControl/motor.cpp:208:49
	lsls	r0, r0, #31
	cbz	r0, .LBB8_7
	b	.LBB8_6
.LBB8_6:                                @   in Loop: Header=BB8_1 Depth=1
	.loc	4 208 52                        @ ../MotorControl/motor.cpp:208:52
	movw	r0, :lower16:brake_resistor_armed
	movt	r0, :upper16:brake_resistor_armed
	ldrb	r0, [r0]
.Ltmp28:
	.loc	4 208 13                        @ ../MotorControl/motor.cpp:208:13
	lsls	r0, r0, #31
	cbz	r0, .LBB8_8
	b	.LBB8_7
.LBB8_7:                                @   in Loop: Header=BB8_1 Depth=1
	.loc	4 0 13                          @ ../MotorControl/motor.cpp:0:13
	ldr	r1, [sp, #4]                    @ 4-byte Reload
	movs	r0, #1
.Ltmp29:
	.loc	4 209 26 is_stmt 1              @ ../MotorControl/motor.cpp:209:26
	strb.w	r0, [r1, #165]
	.loc	4 210 23                        @ ../MotorControl/motor.cpp:210:23
	strb.w	r0, [r1, #164]
	.loc	4 211 9                         @ ../MotorControl/motor.cpp:211:9
	b	.LBB8_9
.Ltmp30:
.LBB8_8:                                @   in Loop: Header=BB8_1 Depth=1
	.loc	4 212 13                        @ ../MotorControl/motor.cpp:212:13
	ldr	r0, [sp, #4]                    @ 4-byte Reload
	adds	r0, #152
	mov.w	r2, #8388608
	movs	r3, #0
	.loc	4 212 20 is_stmt 0              @ ../MotorControl/motor.cpp:212:20
	bl	_ZoRRN10ODriveIntf9MotorIntf5ErrorES1_
	b	.LBB8_9
.Ltmp31:
.LBB8_9:                                @   in Loop: Header=BB8_1 Depth=1
	.loc	4 214 5 is_stmt 1               @ ../MotorControl/motor.cpp:214:5
	b	.LBB8_10
.Ltmp32:
.LBB8_10:                               @   in Loop: Header=BB8_1 Depth=1
	.loc	4 0 5 is_stmt 0                 @ ../MotorControl/motor.cpp:0:5
	movs	r0, #1
	.loc	4 198 5 is_stmt 1               @ ../MotorControl/motor.cpp:198:5
	strb.w	r0, [sp, #12]
	b	.LBB8_1
.Ltmp33:
.LBB8_11:
	.loc	4 0 5 is_stmt 0                 @ ../MotorControl/motor.cpp:0:5
	movs	r0, #1
	.loc	4 216 5 epilogue_begin is_stmt 1 @ ../MotorControl/motor.cpp:216:5
	add	sp, #24
	pop	{r7, pc}
.Ltmp34:
.Lfunc_end8:
	.size	_ZN5Motor3armEP15PhaseControlLawILj3EE, .Lfunc_end8-_ZN5Motor3armEP15PhaseControlLawILj3EE
	.cfi_endproc
	.cantunwind
	.fnend
                                        @ -- End function
	.section	.text._ZN22CriticalSectionContextC2Ev,"axG",%progbits,_ZN22CriticalSectionContextC2Ev,comdat
	.hidden	_ZN22CriticalSectionContextC2Ev @ -- Begin function _ZN22CriticalSectionContextC2Ev
	.weak	_ZN22CriticalSectionContextC2Ev
	.p2align	2
	.type	_ZN22CriticalSectionContextC2Ev,%function
	.code	16                              @ @_ZN22CriticalSectionContextC2Ev
	.thumb_func
_ZN22CriticalSectionContextC2Ev:
.Lfunc_begin9:
	.loc	24 56 0                         @ ../../Firmware\Drivers/STM32/stm32_system.h:56:0
	.fnstart
	.cfi_startproc
@ %bb.0:
	.save	{r7, lr}
	push	{r7, lr}
	.cfi_def_cfa_offset 8
	.cfi_offset lr, -4
	.cfi_offset r7, -8
	.pad	#8
	sub	sp, #8
	.cfi_def_cfa_offset 16
	str	r0, [sp, #4]
	ldr	r0, [sp, #4]
.Ltmp35:
	.loc	24 56 38 prologue_end           @ ../../Firmware\Drivers/STM32/stm32_system.h:56:38
	str	r0, [sp]                        @ 4-byte Spill
	bl	_ZL18cpu_enter_criticalv
	mov	r1, r0
	.loc	24 56 32 is_stmt 0              @ ../../Firmware\Drivers/STM32/stm32_system.h:56:32
	ldr	r0, [sp]                        @ 4-byte Reload
	str	r1, [r0]
	movs	r1, #0
	.loc	24 59 10 is_stmt 1              @ ../../Firmware\Drivers/STM32/stm32_system.h:59:10
	strb	r1, [r0, #4]
	.loc	24 56 61 epilogue_begin         @ ../../Firmware\Drivers/STM32/stm32_system.h:56:61
	add	sp, #8
	pop	{r7, pc}
.Ltmp36:
.Lfunc_end9:
	.size	_ZN22CriticalSectionContextC2Ev, .Lfunc_end9-_ZN22CriticalSectionContextC2Ev
	.cfi_endproc
	.cantunwind
	.fnend
                                        @ -- End function
	.section	.text._ZoRRN10ODriveIntf9MotorIntf5ErrorES1_,"axG",%progbits,_ZoRRN10ODriveIntf9MotorIntf5ErrorES1_,comdat
	.hidden	_ZoRRN10ODriveIntf9MotorIntf5ErrorES1_ @ -- Begin function _ZoRRN10ODriveIntf9MotorIntf5ErrorES1_
	.weak	_ZoRRN10ODriveIntf9MotorIntf5ErrorES1_
	.p2align	2
	.type	_ZoRRN10ODriveIntf9MotorIntf5ErrorES1_,%function
	.code	16                              @ @_ZoRRN10ODriveIntf9MotorIntf5ErrorES1_
	.thumb_func
_ZoRRN10ODriveIntf9MotorIntf5ErrorES1_:
.Lfunc_begin10:
	.loc	9 1191 0                        @ ../../Firmware\autogen/interfaces.hpp:1191:0
	.fnstart
	.cfi_startproc
@ %bb.0:
	.pad	#16
	sub	sp, #16
	.cfi_def_cfa_offset 16
                                        @ kill: def $r1 killed $r3
                                        @ kill: def $r1 killed $r2
	str	r0, [sp, #12]
	str	r3, [sp, #4]
	str	r2, [sp]
.Ltmp37:
	.loc	9 1191 317 prologue_end         @ ../../Firmware\autogen/interfaces.hpp:1191:317
	ldr.w	r12, [sp]
	ldr	r3, [sp, #4]
	.loc	9 1191 245 is_stmt 0            @ ../../Firmware\autogen/interfaces.hpp:1191:245
	ldr	r0, [sp, #12]
	.loc	9 1191 248                      @ ../../Firmware\autogen/interfaces.hpp:1191:248
	ldr	r1, [r0]
	ldr	r2, [r0, #4]
	orr.w	r1, r1, r12
	orrs	r2, r3
	str	r2, [r0, #4]
	str	r1, [r0]
	.loc	9 1191 118 epilogue_begin       @ ../../Firmware\autogen/interfaces.hpp:1191:118
	add	sp, #16
	bx	lr
.Ltmp38:
.Lfunc_end10:
	.size	_ZoRRN10ODriveIntf9MotorIntf5ErrorES1_, .Lfunc_end10-_ZoRRN10ODriveIntf9MotorIntf5ErrorES1_
	.cfi_endproc
	.cantunwind
	.fnend
                                        @ -- End function
	.section	.text._ZN22CriticalSectionContextD2Ev,"axG",%progbits,_ZN22CriticalSectionContextD2Ev,comdat
	.hidden	_ZN22CriticalSectionContextD2Ev @ -- Begin function _ZN22CriticalSectionContextD2Ev
	.weak	_ZN22CriticalSectionContextD2Ev
	.p2align	2
	.type	_ZN22CriticalSectionContextD2Ev,%function
	.code	16                              @ @_ZN22CriticalSectionContextD2Ev
	.thumb_func
_ZN22CriticalSectionContextD2Ev:
.Lfunc_begin11:
	.loc	24 57 0 is_stmt 1               @ ../../Firmware\Drivers/STM32/stm32_system.h:57:0
	.fnstart
	.cfi_startproc
@ %bb.0:
	.save	{r7, lr}
	push	{r7, lr}
	.cfi_def_cfa_offset 8
	.cfi_offset lr, -4
	.cfi_offset r7, -8
	.pad	#8
	sub	sp, #8
	.cfi_def_cfa_offset 16
	str	r0, [sp, #4]
	ldr	r0, [sp, #4]
.Ltmp39:
	.loc	24 57 51 prologue_end           @ ../../Firmware\Drivers/STM32/stm32_system.h:57:51
	str	r0, [sp]                        @ 4-byte Spill
	ldr	r0, [r0]
	.loc	24 57 33 is_stmt 0              @ ../../Firmware\Drivers/STM32/stm32_system.h:57:33
	bl	_ZL17cpu_exit_criticalj
	ldr	r0, [sp]                        @ 4-byte Reload
.Ltmp40:
	.loc	24 57 59 epilogue_begin         @ ../../Firmware\Drivers/STM32/stm32_system.h:57:59
	add	sp, #8
	pop	{r7, pc}
.Ltmp41:
.Lfunc_end11:
	.size	_ZN22CriticalSectionContextD2Ev, .Lfunc_end11-_ZN22CriticalSectionContextD2Ev
	.cfi_endproc
	.cantunwind
	.fnend
                                        @ -- End function
	.section	.text._ZN5Motor17apply_pwm_timingsEPtb,"ax",%progbits
	.hidden	_ZN5Motor17apply_pwm_timingsEPtb @ -- Begin function _ZN5Motor17apply_pwm_timingsEPtb
	.globl	_ZN5Motor17apply_pwm_timingsEPtb
	.p2align	2
	.type	_ZN5Motor17apply_pwm_timingsEPtb,%function
	.code	16                              @ @_ZN5Motor17apply_pwm_timingsEPtb
	.thumb_func
_ZN5Motor17apply_pwm_timingsEPtb:
.Lfunc_begin12:
	.loc	4 228 0 is_stmt 1               @ ../MotorControl/motor.cpp:228:0
	.fnstart
	.cfi_startproc
@ %bb.0:
	.save	{r7, lr}
	push	{r7, lr}
	.cfi_def_cfa_offset 8
	.cfi_offset lr, -4
	.cfi_offset r7, -8
	.pad	#32
	sub	sp, #32
	.cfi_def_cfa_offset 40
                                        @ kill: def $r3 killed $r2
	str	r0, [sp, #28]
	str	r1, [sp, #24]
	strb.w	r2, [sp, #23]
	ldr	r0, [sp, #28]
.Ltmp42:
	.loc	4 229 5 prologue_end            @ ../MotorControl/motor.cpp:229:5
	str	r0, [sp]                        @ 4-byte Spill
	add	r0, sp, #12
	bl	_ZN22CriticalSectionContextC2Ev
	b	.LBB12_1
.LBB12_1:                               @ =>This Inner Loop Header: Depth=1
.Ltmp43:
	.loc	4 229 5 is_stmt 0               @ ../MotorControl/motor.cpp:229:5
	ldrb.w	r0, [sp, #16]
.Ltmp44:
	.loc	4 229 5                         @ ../MotorControl/motor.cpp:229:5
	lsls	r0, r0, #31
	cbz	r0, .LBB12_3
	b	.LBB12_2
.LBB12_2:
	.loc	4 0 5                           @ ../MotorControl/motor.cpp:0:5
	add	r0, sp, #12
.Ltmp45:
	.loc	4 229 5                         @ ../MotorControl/motor.cpp:229:5
	bl	_ZN22CriticalSectionContextD2Ev
	b	.LBB12_12
.LBB12_3:                               @   in Loop: Header=BB12_1 Depth=1
.Ltmp46:
	.loc	4 230 26 is_stmt 1              @ ../MotorControl/motor.cpp:230:26
	movw	r0, :lower16:odrv
	movt	r0, :upper16:odrv
	movw	r1, #16808
	ldrb	r0, [r0, r1]
	.loc	4 230 48 is_stmt 0              @ ../MotorControl/motor.cpp:230:48
	lsls	r0, r0, #31
	cbz	r0, .LBB12_6
	b	.LBB12_4
.LBB12_4:                               @   in Loop: Header=BB12_1 Depth=1
	.loc	4 230 52                        @ ../MotorControl/motor.cpp:230:52
	movw	r0, :lower16:brake_resistor_armed
	movt	r0, :upper16:brake_resistor_armed
	ldrb	r0, [r0]
.Ltmp47:
	.loc	4 230 13                        @ ../MotorControl/motor.cpp:230:13
	lsls	r0, r0, #31
	cbnz	r0, .LBB12_6
	b	.LBB12_5
.LBB12_5:                               @   in Loop: Header=BB12_1 Depth=1
.Ltmp48:
	.loc	4 231 13 is_stmt 1              @ ../MotorControl/motor.cpp:231:13
	ldr	r0, [sp]                        @ 4-byte Reload
	mov.w	r2, #8388608
	movs	r3, #0
	bl	_ZN5Motor17disarm_with_errorEN10ODriveIntf9MotorIntf5ErrorE
	.loc	4 232 9                         @ ../MotorControl/motor.cpp:232:9
	b	.LBB12_6
.Ltmp49:
.LBB12_6:                               @   in Loop: Header=BB12_1 Depth=1
	.loc	4 234 35                        @ ../MotorControl/motor.cpp:234:35
	ldr	r0, [sp]                        @ 4-byte Reload
	ldr	r0, [r0]
	.loc	4 234 28 is_stmt 0              @ ../MotorControl/motor.cpp:234:28
	str	r0, [sp, #8]
	.loc	4 235 28 is_stmt 1              @ ../MotorControl/motor.cpp:235:28
	ldr	r0, [sp, #8]
	.loc	4 235 34 is_stmt 0              @ ../MotorControl/motor.cpp:235:34
	ldr	r0, [r0]
	.loc	4 235 22                        @ ../MotorControl/motor.cpp:235:22
	str	r0, [sp, #4]
	.loc	4 236 21 is_stmt 1              @ ../MotorControl/motor.cpp:236:21
	ldr	r0, [sp, #24]
	ldrh	r0, [r0]
	.loc	4 236 9 is_stmt 0               @ ../MotorControl/motor.cpp:236:9
	ldr	r1, [sp, #4]
	.loc	4 236 19                        @ ../MotorControl/motor.cpp:236:19
	str	r0, [r1, #52]
	.loc	4 237 21 is_stmt 1              @ ../MotorControl/motor.cpp:237:21
	ldr	r0, [sp, #24]
	ldrh	r0, [r0, #2]
	.loc	4 237 9 is_stmt 0               @ ../MotorControl/motor.cpp:237:9
	ldr	r1, [sp, #4]
	.loc	4 237 19                        @ ../MotorControl/motor.cpp:237:19
	str	r0, [r1, #56]
	.loc	4 238 21 is_stmt 1              @ ../MotorControl/motor.cpp:238:21
	ldr	r0, [sp, #24]
	ldrh	r0, [r0, #4]
	.loc	4 238 9 is_stmt 0               @ ../MotorControl/motor.cpp:238:9
	ldr	r1, [sp, #4]
	.loc	4 238 19                        @ ../MotorControl/motor.cpp:238:19
	str	r0, [r1, #60]
.Ltmp50:
	.loc	4 240 14 is_stmt 1              @ ../MotorControl/motor.cpp:240:14
	ldrb.w	r0, [sp, #23]
.Ltmp51:
	.loc	4 240 13 is_stmt 0              @ ../MotorControl/motor.cpp:240:13
	lsls	r0, r0, #31
	cbnz	r0, .LBB12_10
	b	.LBB12_7
.LBB12_7:                               @   in Loop: Header=BB12_1 Depth=1
.Ltmp52:
	.loc	4 241 17 is_stmt 1              @ ../MotorControl/motor.cpp:241:17
	ldr	r0, [sp]                        @ 4-byte Reload
	ldrb.w	r0, [r0, #164]
.Ltmp53:
	.loc	4 241 17 is_stmt 0              @ ../MotorControl/motor.cpp:241:17
	lsls	r0, r0, #31
	cbz	r0, .LBB12_9
	b	.LBB12_8
.LBB12_8:                               @   in Loop: Header=BB12_1 Depth=1
.Ltmp54:
	.loc	4 244 17 is_stmt 1              @ ../MotorControl/motor.cpp:244:17
	ldr	r1, [sp, #4]
	.loc	4 244 27 is_stmt 0              @ ../MotorControl/motor.cpp:244:27
	ldr	r0, [r1, #68]
	orr	r0, r0, #16384
	str	r0, [r1, #68]
	.loc	4 245 13 is_stmt 1              @ ../MotorControl/motor.cpp:245:13
	b	.LBB12_9
.Ltmp55:
.LBB12_9:                               @   in Loop: Header=BB12_1 Depth=1
	.loc	4 246 9                         @ ../MotorControl/motor.cpp:246:9
	b	.LBB12_10
.Ltmp56:
.LBB12_10:                              @   in Loop: Header=BB12_1 Depth=1
	.loc	4 256 5                         @ ../MotorControl/motor.cpp:256:5
	b	.LBB12_11
.Ltmp57:
.LBB12_11:                              @   in Loop: Header=BB12_1 Depth=1
	.loc	4 0 5 is_stmt 0                 @ ../MotorControl/motor.cpp:0:5
	movs	r0, #1
	.loc	4 229 5 is_stmt 1               @ ../MotorControl/motor.cpp:229:5
	strb.w	r0, [sp, #16]
	b	.LBB12_1
.Ltmp58:
.LBB12_12:
	.loc	4 257 1 epilogue_begin          @ ../MotorControl/motor.cpp:257:1
	add	sp, #32
	pop	{r7, pc}
.Ltmp59:
.Lfunc_end12:
	.size	_ZN5Motor17apply_pwm_timingsEPtb, .Lfunc_end12-_ZN5Motor17apply_pwm_timingsEPtb
	.cfi_endproc
	.cantunwind
	.fnend
                                        @ -- End function
	.section	.text._ZN5Motor17disarm_with_errorEN10ODriveIntf9MotorIntf5ErrorE,"ax",%progbits
	.hidden	_ZN5Motor17disarm_with_errorEN10ODriveIntf9MotorIntf5ErrorE @ -- Begin function _ZN5Motor17disarm_with_errorEN10ODriveIntf9MotorIntf5ErrorE
	.globl	_ZN5Motor17disarm_with_errorEN10ODriveIntf9MotorIntf5ErrorE
	.p2align	2
	.type	_ZN5Motor17disarm_with_errorEN10ODriveIntf9MotorIntf5ErrorE,%function
	.code	16                              @ @_ZN5Motor17disarm_with_errorEN10ODriveIntf9MotorIntf5ErrorE
	.thumb_func
_ZN5Motor17disarm_with_errorEN10ODriveIntf9MotorIntf5ErrorE:
.Lfunc_begin13:
	.loc	4 340 0                         @ ../MotorControl/motor.cpp:340:0
	.fnstart
	.cfi_startproc
@ %bb.0:
	.save	{r7, lr}
	push	{r7, lr}
	.cfi_def_cfa_offset 8
	.cfi_offset lr, -4
	.cfi_offset r7, -8
	.pad	#24
	sub	sp, #24
	.cfi_def_cfa_offset 32
                                        @ kill: def $r1 killed $r3
                                        @ kill: def $r1 killed $r2
	str	r0, [sp, #20]
	str	r3, [sp, #12]
	str	r2, [sp, #8]
	ldr	r0, [sp, #20]
.Ltmp60:
	.loc	4 341 15 prologue_end           @ ../MotorControl/motor.cpp:341:15
	str	r0, [sp, #4]                    @ 4-byte Spill
	ldr	r2, [sp, #8]
	ldr	r3, [sp, #12]
	.loc	4 341 5 is_stmt 0               @ ../MotorControl/motor.cpp:341:5
	adds	r0, #152
	.loc	4 341 12                        @ ../MotorControl/motor.cpp:341:12
	bl	_ZoRRN10ODriveIntf9MotorIntf5ErrorES1_
                                        @ kill: def $r1 killed $r0
	.loc	4 342 5 is_stmt 1               @ ../MotorControl/motor.cpp:342:5
	ldr	r0, [sp, #4]                    @ 4-byte Reload
	ldr.w	r0, [r0, #136]
	.loc	4 342 12 is_stmt 0              @ ../MotorControl/motor.cpp:342:12
	add.w	r0, r0, #588
	movs	r1, #64
	.loc	4 342 19                        @ ../MotorControl/motor.cpp:342:19
	bl	_ZoRRN10ODriveIntf8AxisIntf5ErrorES1_
                                        @ kill: def $r1 killed $r0
	.loc	4 343 29 is_stmt 1              @ ../MotorControl/motor.cpp:343:29
	ldr	r0, [sp, #4]                    @ 4-byte Reload
	movw	r1, :lower16:odrv
	movt	r1, :upper16:odrv
	movw	r2, #17116
	add	r1, r2
	.loc	4 343 24 is_stmt 0              @ ../MotorControl/motor.cpp:343:24
	vldr	s0, [r1]
	vcvt.f32.u32	s0, s0
	vldr	s2, .LCPI13_0
	.loc	4 343 49                        @ ../MotorControl/motor.cpp:343:49
	vmul.f32	s0, s0, s2
	.loc	4 343 22                        @ ../MotorControl/motor.cpp:343:22
	vstr	s0, [r0, #160]
	movs	r1, #0
	.loc	4 344 5 is_stmt 1               @ ../MotorControl/motor.cpp:344:5
	bl	_ZN5Motor6disarmEPb
	.loc	4 345 1 epilogue_begin          @ ../MotorControl/motor.cpp:345:1
	add	sp, #24
	pop	{r7, pc}
.Ltmp61:
	.p2align	2
@ %bb.1:
	.loc	4 0 1 is_stmt 0                 @ ../MotorControl/motor.cpp:0:1
.LCPI13_0:
	.long	0x3903126f                      @ float 1.25000006E-4
.Lfunc_end13:
	.size	_ZN5Motor17disarm_with_errorEN10ODriveIntf9MotorIntf5ErrorE, .Lfunc_end13-_ZN5Motor17disarm_with_errorEN10ODriveIntf9MotorIntf5ErrorE
	.cfi_endproc
	.cantunwind
	.fnend
                                        @ -- End function
	.section	.text._ZN5Motor6disarmEPb,"ax",%progbits
	.hidden	_ZN5Motor6disarmEPb             @ -- Begin function _ZN5Motor6disarmEPb
	.globl	_ZN5Motor6disarmEPb
	.p2align	2
	.type	_ZN5Motor6disarmEPb,%function
	.code	16                              @ @_ZN5Motor6disarmEPb
	.thumb_func
_ZN5Motor6disarmEPb:
.Lfunc_begin14:
	.loc	4 266 0 is_stmt 1               @ ../MotorControl/motor.cpp:266:0
	.fnstart
	.cfi_startproc
@ %bb.0:
	.save	{r7, lr}
	push	{r7, lr}
	.cfi_def_cfa_offset 8
	.cfi_offset lr, -4
	.cfi_offset r7, -8
	.pad	#32
	sub	sp, #32
	.cfi_def_cfa_offset 40
	str	r0, [sp, #28]
	str	r1, [sp, #24]
	ldr	r0, [sp, #28]
.Ltmp62:
	.loc	4 269 5 prologue_end            @ ../MotorControl/motor.cpp:269:5
	str	r0, [sp, #4]                    @ 4-byte Spill
	add	r0, sp, #12
	bl	_ZN22CriticalSectionContextC2Ev
	b	.LBB14_1
.LBB14_1:                               @ =>This Inner Loop Header: Depth=1
.Ltmp63:
	.loc	4 269 5 is_stmt 0               @ ../MotorControl/motor.cpp:269:5
	ldrb.w	r0, [sp, #16]
.Ltmp64:
	.loc	4 269 5                         @ ../MotorControl/motor.cpp:269:5
	lsls	r0, r0, #31
	cbz	r0, .LBB14_3
	b	.LBB14_2
.LBB14_2:
	.loc	4 0 5                           @ ../MotorControl/motor.cpp:0:5
	add	r0, sp, #12
.Ltmp65:
	.loc	4 269 5                         @ ../MotorControl/motor.cpp:269:5
	bl	_ZN22CriticalSectionContextD2Ev
	b	.LBB14_7
.LBB14_3:                               @   in Loop: Header=BB14_1 Depth=1
.Ltmp66:
	.loc	4 270 21 is_stmt 1              @ ../MotorControl/motor.cpp:270:21
	ldr	r0, [sp, #4]                    @ 4-byte Reload
	ldrb.w	r1, [r0, #164]
	.loc	4 270 19 is_stmt 0              @ ../MotorControl/motor.cpp:270:19
	and	r1, r1, #1
	strb.w	r1, [sp, #23]
.Ltmp67:
	.loc	4 271 13 is_stmt 1              @ ../MotorControl/motor.cpp:271:13
	ldrb.w	r0, [r0, #164]
.Ltmp68:
	.loc	4 271 13 is_stmt 0              @ ../MotorControl/motor.cpp:271:13
	lsls	r0, r0, #31
	cbz	r0, .LBB14_5
	b	.LBB14_4
.LBB14_4:                               @   in Loop: Header=BB14_1 Depth=1
.Ltmp69:
	.loc	4 272 13 is_stmt 1              @ ../MotorControl/motor.cpp:272:13
	ldr	r0, [sp, #4]                    @ 4-byte Reload
	ldr	r0, [r0, #12]
	movs	r1, #0
	.loc	4 272 26 is_stmt 0              @ ../MotorControl/motor.cpp:272:26
	bl	_ZN7Drv830111set_enabledEb
	.loc	4 273 9 is_stmt 1               @ ../MotorControl/motor.cpp:273:9
	b	.LBB14_5
.Ltmp70:
.LBB14_5:                               @   in Loop: Header=BB14_1 Depth=1
	.loc	4 0 9 is_stmt 0                 @ ../MotorControl/motor.cpp:0:9
	ldr	r1, [sp, #4]                    @ 4-byte Reload
	movs	r0, #0
	.loc	4 274 19 is_stmt 1              @ ../MotorControl/motor.cpp:274:19
	strb.w	r0, [r1, #164]
	.loc	4 275 22                        @ ../MotorControl/motor.cpp:275:22
	strb.w	r0, [r1, #165]
	.loc	4 276 36                        @ ../MotorControl/motor.cpp:276:36
	ldr	r2, [r1]
	.loc	4 276 28 is_stmt 0              @ ../MotorControl/motor.cpp:276:28
	str	r2, [sp, #8]
	.loc	4 277 9 is_stmt 1               @ ../MotorControl/motor.cpp:277:9
	ldr	r2, [sp, #8]
	.loc	4 277 16 is_stmt 0              @ ../MotorControl/motor.cpp:277:16
	ldr	r3, [r2]
	.loc	4 277 31                        @ ../MotorControl/motor.cpp:277:31
	ldr	r2, [r3, #68]
	bic	r2, r2, #16384
	str	r2, [r3, #68]
	.loc	4 278 9 is_stmt 1               @ ../MotorControl/motor.cpp:278:9
	ldr	r2, [sp, #8]
	ldr	r3, [r2]
	ldr	r2, [r3, #68]
	bic	r2, r2, #32768
	str	r2, [r3, #68]
	.loc	4 279 22                        @ ../MotorControl/motor.cpp:279:22
	str.w	r0, [r1, #432]
	.loc	4 280 5                         @ ../MotorControl/motor.cpp:280:5
	b	.LBB14_6
.Ltmp71:
.LBB14_6:                               @   in Loop: Header=BB14_1 Depth=1
	.loc	4 0 5 is_stmt 0                 @ ../MotorControl/motor.cpp:0:5
	movs	r0, #1
	.loc	4 269 5 is_stmt 1               @ ../MotorControl/motor.cpp:269:5
	strb.w	r0, [sp, #16]
	b	.LBB14_1
.Ltmp72:
.LBB14_7:
	.loc	4 283 9                         @ ../MotorControl/motor.cpp:283:9
	ldrb.w	r0, [sp, #23]
.Ltmp73:
	.loc	4 283 9 is_stmt 0               @ ../MotorControl/motor.cpp:283:9
	lsls	r0, r0, #31
	cbz	r0, .LBB14_9
	b	.LBB14_8
.LBB14_8:
.Ltmp74:
	.loc	4 284 9 is_stmt 1               @ ../MotorControl/motor.cpp:284:9
	bl	update_brake_current
	.loc	4 285 5                         @ ../MotorControl/motor.cpp:285:5
	b	.LBB14_9
.Ltmp75:
.LBB14_9:
	.loc	4 287 9                         @ ../MotorControl/motor.cpp:287:9
	ldr	r0, [sp, #24]
.Ltmp76:
	.loc	4 287 9 is_stmt 0               @ ../MotorControl/motor.cpp:287:9
	cbz	r0, .LBB14_11
	b	.LBB14_10
.LBB14_10:
.Ltmp77:
	.loc	4 288 24 is_stmt 1              @ ../MotorControl/motor.cpp:288:24
	ldrb.w	r0, [sp, #23]
	.loc	4 288 10 is_stmt 0              @ ../MotorControl/motor.cpp:288:10
	ldr	r1, [sp, #24]
	.loc	4 288 22                        @ ../MotorControl/motor.cpp:288:22
	and	r0, r0, #1
	strb	r0, [r1]
	.loc	4 289 5 is_stmt 1               @ ../MotorControl/motor.cpp:289:5
	b	.LBB14_11
.Ltmp78:
.LBB14_11:
	.loc	4 0 5 is_stmt 0                 @ ../MotorControl/motor.cpp:0:5
	movs	r0, #1
	.loc	4 291 5 epilogue_begin is_stmt 1 @ ../MotorControl/motor.cpp:291:5
	add	sp, #32
	pop	{r7, pc}
.Ltmp79:
.Lfunc_end14:
	.size	_ZN5Motor6disarmEPb, .Lfunc_end14-_ZN5Motor6disarmEPb
	.cfi_endproc
	.cantunwind
	.fnend
                                        @ -- End function
	.section	.text._ZN7Drv830111set_enabledEb,"axG",%progbits,_ZN7Drv830111set_enabledEb,comdat
	.hidden	_ZN7Drv830111set_enabledEb      @ -- Begin function _ZN7Drv830111set_enabledEb
	.weak	_ZN7Drv830111set_enabledEb
	.p2align	2
	.type	_ZN7Drv830111set_enabledEb,%function
	.code	16                              @ @_ZN7Drv830111set_enabledEb
	.thumb_func
_ZN7Drv830111set_enabledEb:
.Lfunc_begin15:
	.file	27 "D:\\ikingtec\\Robot\\ODrive\\Firmware\\MDK-ARM" "../../Firmware\\Drivers/DRV8301/drv8301.hpp"
	.loc	27 79 0                         @ ../../Firmware\Drivers/DRV8301/drv8301.hpp:79:0
	.fnstart
	.cfi_startproc
@ %bb.0:
	.pad	#8
	sub	sp, #8
	.cfi_def_cfa_offset 8
                                        @ kill: def $r2 killed $r1
	str	r0, [sp, #4]
	strb.w	r1, [sp, #3]
	movs	r0, #1
.Ltmp80:
	.loc	27 79 44 prologue_end epilogue_begin @ ../../Firmware\Drivers/DRV8301/drv8301.hpp:79:44
	add	sp, #8
	bx	lr
.Ltmp81:
.Lfunc_end15:
	.size	_ZN7Drv830111set_enabledEb, .Lfunc_end15-_ZN7Drv830111set_enabledEb
	.cfi_endproc
	.cantunwind
	.fnend
                                        @ -- End function
	.section	.text._ZN5Motor31update_current_controller_gainsEv,"ax",%progbits
	.hidden	_ZN5Motor31update_current_controller_gainsEv @ -- Begin function _ZN5Motor31update_current_controller_gainsEv
	.globl	_ZN5Motor31update_current_controller_gainsEv
	.p2align	2
	.type	_ZN5Motor31update_current_controller_gainsEv,%function
	.code	16                              @ @_ZN5Motor31update_current_controller_gainsEv
	.thumb_func
_ZN5Motor31update_current_controller_gainsEv:
.Lfunc_begin16:
	.loc	4 297 0                         @ ../MotorControl/motor.cpp:297:0
	.fnstart
	.cfi_startproc
@ %bb.0:
	.save	{r7, lr}
	push	{r7, lr}
	.cfi_def_cfa_offset 8
	.cfi_offset lr, -4
	.cfi_offset r7, -8
	.pad	#32
	sub	sp, #32
	.cfi_def_cfa_offset 40
	str	r0, [sp, #28]
	ldr	r0, [sp, #28]
.Ltmp82:
	.loc	4 299 64 prologue_end           @ ../MotorControl/motor.cpp:299:64
	str	r0, [sp]                        @ 4-byte Spill
	vldr	s2, [r0, #44]
	.loc	4 299 28 is_stmt 0              @ ../MotorControl/motor.cpp:299:28
	vldr	s0, [r0, #76]
	.loc	4 299 54                        @ ../MotorControl/motor.cpp:299:54
	vmul.f32	s0, s0, s2
	.loc	4 299 11                        @ ../MotorControl/motor.cpp:299:11
	vstr	s0, [sp, #24]
	.loc	4 300 59 is_stmt 1              @ ../MotorControl/motor.cpp:300:59
	vldr	s2, [r0, #44]
	.loc	4 300 32 is_stmt 0              @ ../MotorControl/motor.cpp:300:32
	vldr	s0, [r0, #48]
	.loc	4 300 49                        @ ../MotorControl/motor.cpp:300:49
	vdiv.f32	s0, s0, s2
	.loc	4 300 11                        @ ../MotorControl/motor.cpp:300:11
	vstr	s0, [sp, #20]
	.loc	4 301 43 is_stmt 1              @ ../MotorControl/motor.cpp:301:43
	vldr	s0, [sp, #20]
	.loc	4 301 56 is_stmt 0              @ ../MotorControl/motor.cpp:301:56
	vldr	s2, [sp, #24]
	.loc	4 301 54                        @ ../MotorControl/motor.cpp:301:54
	vmul.f32	s0, s0, s2
	.loc	4 301 43                        @ ../MotorControl/motor.cpp:301:43
	vstr	s0, [sp, #8]
	add	r0, sp, #12
	str	r0, [sp, #4]                    @ 4-byte Spill
	add	r1, sp, #24
	add	r2, sp, #8
	.loc	4 301 34                        @ ../MotorControl/motor.cpp:301:34
	bl	_ZNSt3__24pairIffEC2B7v180000IRffLi0EEEOT_OT0_
	ldr	r0, [sp]                        @ 4-byte Reload
	ldr	r1, [sp, #4]                    @ 4-byte Reload
	.loc	4 301 22                        @ ../MotorControl/motor.cpp:301:22
	adds	r0, #216
	.loc	4 301 32                        @ ../MotorControl/motor.cpp:301:32
	bl	_ZNSt3__28optionalINS_4pairIffEEEaSB7v180000IS2_vEERS3_OT_
	.loc	4 302 1 epilogue_begin is_stmt 1 @ ../MotorControl/motor.cpp:302:1
	add	sp, #32
	pop	{r7, pc}
.Ltmp83:
.Lfunc_end16:
	.size	_ZN5Motor31update_current_controller_gainsEv, .Lfunc_end16-_ZN5Motor31update_current_controller_gainsEv
	.cfi_endproc
	.cantunwind
	.fnend
                                        @ -- End function
	.section	.text._ZNSt3__24pairIffEC2B7v180000IRffLi0EEEOT_OT0_,"axG",%progbits,_ZNSt3__24pairIffEC2B7v180000IRffLi0EEEOT_OT0_,comdat
	.hidden	_ZNSt3__24pairIffEC2B7v180000IRffLi0EEEOT_OT0_ @ -- Begin function _ZNSt3__24pairIffEC2B7v180000IRffLi0EEEOT_OT0_
	.weak	_ZNSt3__24pairIffEC2B7v180000IRffLi0EEEOT_OT0_
	.p2align	2
	.type	_ZNSt3__24pairIffEC2B7v180000IRffLi0EEEOT_OT0_,%function
	.code	16                              @ @_ZNSt3__24pairIffEC2B7v180000IRffLi0EEEOT_OT0_
	.thumb_func
_ZNSt3__24pairIffEC2B7v180000IRffLi0EEEOT_OT0_:
.Lfunc_begin17:
	.loc	14 222 0                        @ D:\Embed\MDK\MDK\ARM\ARMCompilerV621\Bin\..\include\libcxx\__utility/pair.h:222:0
	.fnstart
	.cfi_startproc
@ %bb.0:
	.pad	#12
	sub	sp, #12
	.cfi_def_cfa_offset 12
	str	r0, [sp, #8]
	str	r1, [sp, #4]
	str	r2, [sp]
	ldr	r0, [sp, #8]
.Ltmp84:
	.loc	14 222 35 prologue_end          @ D:\Embed\MDK\MDK\ARM\ARMCompilerV621\Bin\..\include\libcxx\__utility/pair.h:222:35
	ldr	r1, [sp, #4]
	.loc	14 222 17 is_stmt 0             @ D:\Embed\MDK\MDK\ARM\ARMCompilerV621\Bin\..\include\libcxx\__utility/pair.h:222:17
	ldr	r1, [r1]
	.loc	14 222 11                       @ D:\Embed\MDK\MDK\ARM\ARMCompilerV621\Bin\..\include\libcxx\__utility/pair.h:222:11
	str	r1, [r0]
	.loc	14 222 68                       @ D:\Embed\MDK\MDK\ARM\ARMCompilerV621\Bin\..\include\libcxx\__utility/pair.h:222:68
	ldr	r1, [sp]
	.loc	14 222 50                       @ D:\Embed\MDK\MDK\ARM\ARMCompilerV621\Bin\..\include\libcxx\__utility/pair.h:222:50
	ldr	r1, [r1]
	.loc	14 222 43                       @ D:\Embed\MDK\MDK\ARM\ARMCompilerV621\Bin\..\include\libcxx\__utility/pair.h:222:43
	str	r1, [r0, #4]
	.loc	14 222 76 epilogue_begin        @ D:\Embed\MDK\MDK\ARM\ARMCompilerV621\Bin\..\include\libcxx\__utility/pair.h:222:76
	add	sp, #12
	bx	lr
.Ltmp85:
.Lfunc_end17:
	.size	_ZNSt3__24pairIffEC2B7v180000IRffLi0EEEOT_OT0_, .Lfunc_end17-_ZNSt3__24pairIffEC2B7v180000IRffLi0EEEOT_OT0_
	.cfi_endproc
	.cantunwind
	.fnend
                                        @ -- End function
	.section	.text._ZNSt3__28optionalINS_4pairIffEEEaSB7v180000IS2_vEERS3_OT_,"axG",%progbits,_ZNSt3__28optionalINS_4pairIffEEEaSB7v180000IS2_vEERS3_OT_,comdat
	.hidden	_ZNSt3__28optionalINS_4pairIffEEEaSB7v180000IS2_vEERS3_OT_ @ -- Begin function _ZNSt3__28optionalINS_4pairIffEEEaSB7v180000IS2_vEERS3_OT_
	.weak	_ZNSt3__28optionalINS_4pairIffEEEaSB7v180000IS2_vEERS3_OT_
	.p2align	2
	.type	_ZNSt3__28optionalINS_4pairIffEEEaSB7v180000IS2_vEERS3_OT_,%function
	.code	16                              @ @_ZNSt3__28optionalINS_4pairIffEEEaSB7v180000IS2_vEERS3_OT_
	.thumb_func
_ZNSt3__28optionalINS_4pairIffEEEaSB7v180000IS2_vEERS3_OT_:
.Lfunc_begin18:
	.loc	6 907 0 is_stmt 1               @ D:\Embed\MDK\MDK\ARM\ARMCompilerV621\Bin\..\include\libcxx\optional:907:0
	.fnstart
	.cfi_startproc
@ %bb.0:
	.save	{r7, lr}
	push	{r7, lr}
	.cfi_def_cfa_offset 8
	.cfi_offset lr, -4
	.cfi_offset r7, -8
	.pad	#16
	sub	sp, #16
	.cfi_def_cfa_offset 24
	str	r0, [sp, #12]
	str	r1, [sp, #8]
	ldr	r0, [sp, #12]
.Ltmp86:
	.loc	6 908 19 prologue_end           @ D:\Embed\MDK\MDK\ARM\ARMCompilerV621\Bin\..\include\libcxx\optional:908:19
	str	r0, [sp, #4]                    @ 4-byte Spill
	bl	_ZNKSt3__223__optional_storage_baseINS_4pairIffEELb0EE9has_valueB7v180000Ev
.Ltmp87:
	.loc	6 908 13 is_stmt 0              @ D:\Embed\MDK\MDK\ARM\ARMCompilerV621\Bin\..\include\libcxx\optional:908:13
	cbz	r0, .LBB18_2
	b	.LBB18_1
.LBB18_1:
.Ltmp88:
	.loc	6 909 49 is_stmt 1              @ D:\Embed\MDK\MDK\ARM\ARMCompilerV621\Bin\..\include\libcxx\optional:909:49
	ldr	r0, [sp, #4]                    @ 4-byte Reload
	ldr	r1, [sp, #8]
	.loc	6 909 19 is_stmt 0              @ D:\Embed\MDK\MDK\ARM\ARMCompilerV621\Bin\..\include\libcxx\optional:909:19
	str	r1, [sp]                        @ 4-byte Spill
	bl	_ZNRSt3__223__optional_storage_baseINS_4pairIffEELb0EE5__getB7v180000Ev
	ldr	r1, [sp]                        @ 4-byte Reload
	.loc	6 909 27                        @ D:\Embed\MDK\MDK\ARM\ARMCompilerV621\Bin\..\include\libcxx\optional:909:27
	bl	_ZNSt3__24pairIffEaSB7v180000EOS1_
	.loc	6 909 13                        @ D:\Embed\MDK\MDK\ARM\ARMCompilerV621\Bin\..\include\libcxx\optional:909:13
	b	.LBB18_3
.LBB18_2:
	.loc	6 911 51 is_stmt 1              @ D:\Embed\MDK\MDK\ARM\ARMCompilerV621\Bin\..\include\libcxx\optional:911:51
	ldr	r0, [sp, #4]                    @ 4-byte Reload
	ldr	r1, [sp, #8]
	.loc	6 911 19 is_stmt 0              @ D:\Embed\MDK\MDK\ARM\ARMCompilerV621\Bin\..\include\libcxx\optional:911:19
	bl	_ZNSt3__223__optional_storage_baseINS_4pairIffEELb0EE11__constructB7v180000IJS2_EEEvDpOT_
	b	.LBB18_3
.Ltmp89:
.LBB18_3:
	.loc	6 912 9 is_stmt 1               @ D:\Embed\MDK\MDK\ARM\ARMCompilerV621\Bin\..\include\libcxx\optional:912:9
	ldr	r0, [sp, #4]                    @ 4-byte Reload
	.loc	6 912 9 epilogue_begin is_stmt 0 @ D:\Embed\MDK\MDK\ARM\ARMCompilerV621\Bin\..\include\libcxx\optional:912:9
	add	sp, #16
	pop	{r7, pc}
.Ltmp90:
.Lfunc_end18:
	.size	_ZNSt3__28optionalINS_4pairIffEEEaSB7v180000IS2_vEERS3_OT_, .Lfunc_end18-_ZNSt3__28optionalINS_4pairIffEEEaSB7v180000IS2_vEERS3_OT_
	.cfi_endproc
	.cantunwind
	.fnend
                                        @ -- End function
	.section	.text._ZN5Motor5setupEv,"ax",%progbits
	.hidden	_ZN5Motor5setupEv               @ -- Begin function _ZN5Motor5setupEv
	.globl	_ZN5Motor5setupEv
	.p2align	2
	.type	_ZN5Motor5setupEv,%function
	.code	16                              @ @_ZN5Motor5setupEv
	.thumb_func
_ZN5Motor5setupEv:
.Lfunc_begin19:
	.loc	4 312 0 is_stmt 1               @ ../MotorControl/motor.cpp:312:0
	.fnstart
	.cfi_startproc
@ %bb.0:
	.save	{r7, lr}
	push	{r7, lr}
	.cfi_def_cfa_offset 8
	.cfi_offset lr, -4
	.cfi_offset r7, -8
	.pad	#32
	sub	sp, #32
	.cfi_def_cfa_offset 40
	str	r0, [sp, #24]
	ldr	r0, [sp, #24]
.Ltmp91:
	.loc	4 313 5 prologue_end            @ ../MotorControl/motor.cpp:313:5
	str	r0, [sp]                        @ 4-byte Spill
	ldr	r0, [r0, #20]
	.loc	4 313 21 is_stmt 0              @ ../MotorControl/motor.cpp:313:21
	bl	_ZN24ThermistorCurrentLimiter6updateEv
	ldr	r0, [sp]                        @ 4-byte Reload
	.loc	4 314 5 is_stmt 1               @ ../MotorControl/motor.cpp:314:5
	ldr	r0, [r0, #24]
	.loc	4 314 23 is_stmt 0              @ ../MotorControl/motor.cpp:314:23
	bl	_ZN24ThermistorCurrentLimiter6updateEv
	ldr	r0, [sp]                        @ 4-byte Reload
	movw	r1, #26214
	movt	r1, #16230
	.loc	4 318 21 is_stmt 1              @ ../MotorControl/motor.cpp:318:21
	str	r1, [sp, #20]
	movw	r1, #52429
	movt	r1, #16300
	.loc	4 319 21                        @ ../MotorControl/motor.cpp:319:21
	str	r1, [sp, #16]
	.loc	4 320 65                        @ ../MotorControl/motor.cpp:320:65
	vldr	s0, [r0, #8]
	vldr	s2, .LCPI19_0
	.loc	4 320 63 is_stmt 0              @ ../MotorControl/motor.cpp:320:63
	vmul.f32	s0, s0, s2
	.loc	4 320 11                        @ ../MotorControl/motor.cpp:320:11
	vstr	s0, [sp, #12]
	.loc	4 321 28 is_stmt 1              @ ../MotorControl/motor.cpp:321:28
	vldr	s0, [sp, #12]
	.loc	4 321 61 is_stmt 0              @ ../MotorControl/motor.cpp:321:61
	vldr	s2, [r0, #72]
	.loc	4 321 51                        @ ../MotorControl/motor.cpp:321:51
	vdiv.f32	s0, s0, s2
	.loc	4 321 11                        @ ../MotorControl/motor.cpp:321:11
	vstr	s0, [sp, #8]
.Ltmp92:
	.loc	4 324 10 is_stmt 1              @ ../MotorControl/motor.cpp:324:10
	ldr	r0, [r0, #12]
	.loc	4 324 30 is_stmt 0              @ ../MotorControl/motor.cpp:324:30
	vldr	s0, [sp, #8]
	add	r1, sp, #4
	.loc	4 324 23                        @ ../MotorControl/motor.cpp:324:23
	bl	_ZN7Drv83016configEfPf
.Ltmp93:
	.loc	4 324 9                         @ ../MotorControl/motor.cpp:324:9
	cbnz	r0, .LBB19_2
	b	.LBB19_1
.LBB19_1:
	.loc	4 0 9                           @ ../MotorControl/motor.cpp:0:9
	movs	r0, #0
.Ltmp94:
	.loc	4 325 9 is_stmt 1               @ ../MotorControl/motor.cpp:325:9
	strb.w	r0, [sp, #31]
	b	.LBB19_5
.Ltmp95:
.LBB19_2:
	.loc	4 328 38                        @ ../MotorControl/motor.cpp:328:38
	ldr	r0, [sp]                        @ 4-byte Reload
	vldr	s2, [sp, #4]
	vmov.f32	s0, #1.000000e+00
	.loc	4 328 36 is_stmt 0              @ ../MotorControl/motor.cpp:328:36
	vdiv.f32	s0, s0, s2
	.loc	4 328 29                        @ ../MotorControl/motor.cpp:328:29
	vstr	s0, [r0, #204]
	.loc	4 330 28 is_stmt 1              @ ../MotorControl/motor.cpp:330:28
	vldr	s0, [sp, #12]
	.loc	4 330 53 is_stmt 0              @ ../MotorControl/motor.cpp:330:53
	vldr	s2, [r0, #204]
	.loc	4 330 51                        @ ../MotorControl/motor.cpp:330:51
	vmul.f32	s0, s0, s2
	.loc	4 330 26                        @ ../MotorControl/motor.cpp:330:26
	vstr	s0, [r0, #380]
	.loc	4 332 28 is_stmt 1              @ ../MotorControl/motor.cpp:332:28
	vldr	s0, [r0, #380]
	vldr	s2, .LCPI19_1
	.loc	4 332 26 is_stmt 0              @ ../MotorControl/motor.cpp:332:26
	vmul.f32	s0, s0, s2
	.loc	4 332 19                        @ ../MotorControl/motor.cpp:332:19
	vstr	s0, [r0, #384]
.Ltmp96:
	.loc	4 334 10 is_stmt 1              @ ../MotorControl/motor.cpp:334:10
	ldr	r0, [r0, #12]
	.loc	4 334 23 is_stmt 0              @ ../MotorControl/motor.cpp:334:23
	bl	_ZN7Drv83014initEv
.Ltmp97:
	.loc	4 334 9                         @ ../MotorControl/motor.cpp:334:9
	cbnz	r0, .LBB19_4
	b	.LBB19_3
.LBB19_3:
	.loc	4 0 9                           @ ../MotorControl/motor.cpp:0:9
	movs	r0, #0
.Ltmp98:
	.loc	4 335 9 is_stmt 1               @ ../MotorControl/motor.cpp:335:9
	strb.w	r0, [sp, #31]
	b	.LBB19_5
.Ltmp99:
.LBB19_4:
	.loc	4 0 9 is_stmt 0                 @ ../MotorControl/motor.cpp:0:9
	movs	r0, #1
	.loc	4 337 5 is_stmt 1               @ ../MotorControl/motor.cpp:337:5
	strb.w	r0, [sp, #31]
	b	.LBB19_5
.LBB19_5:
	.loc	4 338 1                         @ ../MotorControl/motor.cpp:338:1
	ldrb.w	r0, [sp, #31]
	.loc	4 338 1 epilogue_begin is_stmt 0 @ ../MotorControl/motor.cpp:338:1
	add	sp, #32
	pop	{r7, pc}
.Ltmp100:
	.p2align	2
@ %bb.6:
	.loc	4 0 1                           @ ../MotorControl/motor.cpp:0:1
.LCPI19_0:
	.long	0x3f9b851f                      @ float 1.21500003
.LCPI19_1:
	.long	0x3dcccccd                      @ float 0.100000001
.Lfunc_end19:
	.size	_ZN5Motor5setupEv, .Lfunc_end19-_ZN5Motor5setupEv
	.cfi_endproc
	.cantunwind
	.fnend
                                        @ -- End function
	.section	.text._ZoRRN10ODriveIntf8AxisIntf5ErrorES1_,"axG",%progbits,_ZoRRN10ODriveIntf8AxisIntf5ErrorES1_,comdat
	.hidden	_ZoRRN10ODriveIntf8AxisIntf5ErrorES1_ @ -- Begin function _ZoRRN10ODriveIntf8AxisIntf5ErrorES1_
	.weak	_ZoRRN10ODriveIntf8AxisIntf5ErrorES1_
	.p2align	2
	.type	_ZoRRN10ODriveIntf8AxisIntf5ErrorES1_,%function
	.code	16                              @ @_ZoRRN10ODriveIntf8AxisIntf5ErrorES1_
	.thumb_func
_ZoRRN10ODriveIntf8AxisIntf5ErrorES1_:
.Lfunc_begin20:
	.loc	9 1183 0 is_stmt 1              @ ../../Firmware\autogen/interfaces.hpp:1183:0
	.fnstart
	.cfi_startproc
@ %bb.0:
	.pad	#8
	sub	sp, #8
	.cfi_def_cfa_offset 8
	str	r0, [sp, #4]
	str	r1, [sp]
.Ltmp101:
	.loc	9 1183 311 prologue_end         @ ../../Firmware\autogen/interfaces.hpp:1183:311
	ldr	r2, [sp]
	.loc	9 1183 240 is_stmt 0            @ ../../Firmware\autogen/interfaces.hpp:1183:240
	ldr	r0, [sp, #4]
	.loc	9 1183 243                      @ ../../Firmware\autogen/interfaces.hpp:1183:243
	ldr	r1, [r0]
	orrs	r1, r2
	str	r1, [r0]
	.loc	9 1183 115 epilogue_begin       @ ../../Firmware\autogen/interfaces.hpp:1183:115
	add	sp, #8
	bx	lr
.Ltmp102:
.Lfunc_end20:
	.size	_ZoRRN10ODriveIntf8AxisIntf5ErrorES1_, .Lfunc_end20-_ZoRRN10ODriveIntf8AxisIntf5ErrorES1_
	.cfi_endproc
	.cantunwind
	.fnend
                                        @ -- End function
	.section	.text._ZN5Motor9do_checksEj,"ax",%progbits
	.hidden	_ZN5Motor9do_checksEj           @ -- Begin function _ZN5Motor9do_checksEj
	.globl	_ZN5Motor9do_checksEj
	.p2align	2
	.type	_ZN5Motor9do_checksEj,%function
	.code	16                              @ @_ZN5Motor9do_checksEj
	.thumb_func
_ZN5Motor9do_checksEj:
.Lfunc_begin21:
	.loc	4 347 0 is_stmt 1               @ ../MotorControl/motor.cpp:347:0
	.fnstart
	.cfi_startproc
@ %bb.0:
	.save	{r7, lr}
	push	{r7, lr}
	.cfi_def_cfa_offset 8
	.cfi_offset lr, -4
	.cfi_offset r7, -8
	.pad	#32
	sub	sp, #32
	.cfi_def_cfa_offset 40
	str	r0, [sp, #24]
	str	r1, [sp, #20]
	ldr	r0, [sp, #24]
.Ltmp103:
	.loc	4 348 5 prologue_end            @ ../MotorControl/motor.cpp:348:5
	str	r0, [sp, #16]                   @ 4-byte Spill
	ldr	r0, [r0, #12]
	.loc	4 348 18 is_stmt 0              @ ../MotorControl/motor.cpp:348:18
	bl	_ZN7Drv83019do_checksEv
	ldr	r0, [sp, #16]                   @ 4-byte Reload
.Ltmp104:
	.loc	4 350 10 is_stmt 1              @ ../MotorControl/motor.cpp:350:10
	ldr	r0, [r0, #12]
	.loc	4 350 23 is_stmt 0              @ ../MotorControl/motor.cpp:350:23
	bl	_ZN7Drv83018is_readyEv
.Ltmp105:
	.loc	4 350 9                         @ ../MotorControl/motor.cpp:350:9
	cbnz	r0, .LBB21_2
	b	.LBB21_1
.LBB21_1:
.Ltmp106:
	.loc	4 351 9 is_stmt 1               @ ../MotorControl/motor.cpp:351:9
	ldr	r0, [sp, #16]                   @ 4-byte Reload
	movs	r2, #8
	movs	r3, #0
	str	r3, [sp, #12]                   @ 4-byte Spill
	bl	_ZN5Motor17disarm_with_errorEN10ODriveIntf9MotorIntf5ErrorE
	ldr	r0, [sp, #12]                   @ 4-byte Reload
	.loc	4 352 9                         @ ../MotorControl/motor.cpp:352:9
	strb.w	r0, [sp, #31]
	b	.LBB21_7
.Ltmp107:
.LBB21_2:
	.loc	4 354 10                        @ ../MotorControl/motor.cpp:354:10
	ldr	r0, [sp, #16]                   @ 4-byte Reload
	ldr	r0, [r0, #24]
	.loc	4 354 28 is_stmt 0              @ ../MotorControl/motor.cpp:354:28
	bl	_ZN24ThermistorCurrentLimiter9do_checksEv
.Ltmp108:
	.loc	4 354 9                         @ ../MotorControl/motor.cpp:354:9
	cbnz	r0, .LBB21_4
	b	.LBB21_3
.LBB21_3:
.Ltmp109:
	.loc	4 355 9 is_stmt 1               @ ../MotorControl/motor.cpp:355:9
	ldr	r0, [sp, #16]                   @ 4-byte Reload
	mov.w	r2, #131072
	movs	r3, #0
	str	r3, [sp, #8]                    @ 4-byte Spill
	bl	_ZN5Motor17disarm_with_errorEN10ODriveIntf9MotorIntf5ErrorE
	ldr	r0, [sp, #8]                    @ 4-byte Reload
	.loc	4 356 9                         @ ../MotorControl/motor.cpp:356:9
	strb.w	r0, [sp, #31]
	b	.LBB21_7
.Ltmp110:
.LBB21_4:
	.loc	4 358 10                        @ ../MotorControl/motor.cpp:358:10
	ldr	r0, [sp, #16]                   @ 4-byte Reload
	ldr	r0, [r0, #20]
	.loc	4 358 26 is_stmt 0              @ ../MotorControl/motor.cpp:358:26
	bl	_ZN24ThermistorCurrentLimiter9do_checksEv
.Ltmp111:
	.loc	4 358 9                         @ ../MotorControl/motor.cpp:358:9
	cbnz	r0, .LBB21_6
	b	.LBB21_5
.LBB21_5:
.Ltmp112:
	.loc	4 359 9 is_stmt 1               @ ../MotorControl/motor.cpp:359:9
	ldr	r0, [sp, #16]                   @ 4-byte Reload
	mov.w	r2, #262144
	movs	r3, #0
	str	r3, [sp, #4]                    @ 4-byte Spill
	bl	_ZN5Motor17disarm_with_errorEN10ODriveIntf9MotorIntf5ErrorE
	ldr	r0, [sp, #4]                    @ 4-byte Reload
	.loc	4 360 9                         @ ../MotorControl/motor.cpp:360:9
	strb.w	r0, [sp, #31]
	b	.LBB21_7
.Ltmp113:
.LBB21_6:
	.loc	4 0 9 is_stmt 0                 @ ../MotorControl/motor.cpp:0:9
	movs	r0, #1
	.loc	4 362 5 is_stmt 1               @ ../MotorControl/motor.cpp:362:5
	strb.w	r0, [sp, #31]
	b	.LBB21_7
.LBB21_7:
	.loc	4 363 1                         @ ../MotorControl/motor.cpp:363:1
	ldrb.w	r0, [sp, #31]
	.loc	4 363 1 epilogue_begin is_stmt 0 @ ../MotorControl/motor.cpp:363:1
	add	sp, #32
	pop	{r7, pc}
.Ltmp114:
.Lfunc_end21:
	.size	_ZN5Motor9do_checksEj, .Lfunc_end21-_ZN5Motor9do_checksEj
	.cfi_endproc
	.cantunwind
	.fnend
                                        @ -- End function
	.section	.text._ZN5Motor21effective_current_limEv,"ax",%progbits
	.hidden	_ZN5Motor21effective_current_limEv @ -- Begin function _ZN5Motor21effective_current_limEv
	.globl	_ZN5Motor21effective_current_limEv
	.p2align	2
	.type	_ZN5Motor21effective_current_limEv,%function
	.code	16                              @ @_ZN5Motor21effective_current_limEv
	.thumb_func
_ZN5Motor21effective_current_limEv:
.Lfunc_begin22:
	.loc	4 365 0 is_stmt 1               @ ../MotorControl/motor.cpp:365:0
	.fnstart
	.cfi_startproc
@ %bb.0:
	.save	{r7, lr}
	push	{r7, lr}
	.cfi_def_cfa_offset 8
	.cfi_offset lr, -4
	.cfi_offset r7, -8
	.pad	#32
	sub	sp, #32
	.cfi_def_cfa_offset 40
	str	r0, [sp, #28]
	ldr	r0, [sp, #28]
.Ltmp115:
	.loc	4 367 33 prologue_end           @ ../MotorControl/motor.cpp:367:33
	str	r0, [sp, #8]                    @ 4-byte Spill
	ldr	r1, [r0, #60]
	.loc	4 367 11 is_stmt 0              @ ../MotorControl/motor.cpp:367:11
	str	r1, [sp, #24]
.Ltmp116:
	.loc	4 369 9 is_stmt 1               @ ../MotorControl/motor.cpp:369:9
	ldr.w	r0, [r0, #136]
	.loc	4 369 16 is_stmt 0              @ ../MotorControl/motor.cpp:369:16
	ldr.w	r0, [r0, #344]
	.loc	4 369 31                        @ ../MotorControl/motor.cpp:369:31
	ldrb.w	r0, [r0, #56]
.Ltmp117:
	.loc	4 369 9                         @ ../MotorControl/motor.cpp:369:9
	cmp	r0, #2
	bne	.LBB22_2
	b	.LBB22_1
.LBB22_1:
.Ltmp118:
	.loc	4 370 64 is_stmt 1              @ ../MotorControl/motor.cpp:370:64
	movw	r0, :lower16:vbus_voltage
	movt	r0, :upper16:vbus_voltage
	vldr	s0, [r0]
	vldr	s2, .LCPI22_0
	.loc	4 370 63 is_stmt 0              @ ../MotorControl/motor.cpp:370:63
	vmul.f32	s0, s0, s2
	.loc	4 370 45                        @ ../MotorControl/motor.cpp:370:45
	vstr	s0, [sp, #20]
	add	r0, sp, #24
	add	r1, sp, #20
	.loc	4 370 23                        @ ../MotorControl/motor.cpp:370:23
	bl	_ZNSt3__23minB7v180000IfEERKT_S3_S3_
	ldr	r0, [r0]
	.loc	4 370 21                        @ ../MotorControl/motor.cpp:370:21
	str	r0, [sp, #24]
	.loc	4 371 5 is_stmt 1               @ ../MotorControl/motor.cpp:371:5
	b	.LBB22_3
.Ltmp119:
.LBB22_2:
	.loc	4 372 45                        @ ../MotorControl/motor.cpp:372:45
	ldr	r0, [sp, #8]                    @ 4-byte Reload
	ldr.w	r0, [r0, #136]
	.loc	4 372 52 is_stmt 0              @ ../MotorControl/motor.cpp:372:52
	ldr.w	r0, [r0, #344]
	.loc	4 372 59                        @ ../MotorControl/motor.cpp:372:59
	add.w	r1, r0, #380
	add	r0, sp, #24
	.loc	4 372 23                        @ ../MotorControl/motor.cpp:372:23
	bl	_ZNSt3__23minB7v180000IfEERKT_S3_S3_
	ldr	r0, [r0]
	.loc	4 372 21                        @ ../MotorControl/motor.cpp:372:21
	str	r0, [sp, #24]
	b	.LBB22_3
.Ltmp120:
.LBB22_3:
	.loc	4 376 41 is_stmt 1              @ ../MotorControl/motor.cpp:376:41
	ldr	r1, [sp, #8]                    @ 4-byte Reload
	ldr	r0, [r1, #24]
	.loc	4 376 85 is_stmt 0              @ ../MotorControl/motor.cpp:376:85
	vldr	s0, [r1, #60]
	.loc	4 376 59                        @ ../MotorControl/motor.cpp:376:59
	ldr	r1, [r0]
	ldr	r1, [r1, #8]
	blx	r1
	.loc	4 376 41                        @ ../MotorControl/motor.cpp:376:41
	vstr	s0, [sp, #16]
	add	r0, sp, #24
	str	r0, [sp, #4]                    @ 4-byte Spill
	add	r1, sp, #16
	.loc	4 376 19                        @ ../MotorControl/motor.cpp:376:19
	bl	_ZNSt3__23minB7v180000IfEERKT_S3_S3_
	ldr	r1, [sp, #8]                    @ 4-byte Reload
	ldr	r0, [r0]
	.loc	4 376 17                        @ ../MotorControl/motor.cpp:376:17
	str	r0, [sp, #24]
	.loc	4 377 41 is_stmt 1              @ ../MotorControl/motor.cpp:377:41
	ldr	r0, [r1, #20]
	.loc	4 377 83 is_stmt 0              @ ../MotorControl/motor.cpp:377:83
	vldr	s0, [r1, #60]
	.loc	4 377 57                        @ ../MotorControl/motor.cpp:377:57
	ldr	r1, [r0]
	ldr	r1, [r1, #8]
	blx	r1
	ldr	r0, [sp, #4]                    @ 4-byte Reload
	.loc	4 377 41                        @ ../MotorControl/motor.cpp:377:41
	vstr	s0, [sp, #12]
	add	r1, sp, #12
	.loc	4 377 19                        @ ../MotorControl/motor.cpp:377:19
	bl	_ZNSt3__23minB7v180000IfEERKT_S3_S3_
	mov	r1, r0
	ldr	r0, [sp, #8]                    @ 4-byte Reload
	ldr	r1, [r1]
	.loc	4 377 17                        @ ../MotorControl/motor.cpp:377:17
	str	r1, [sp, #24]
	.loc	4 378 30 is_stmt 1              @ ../MotorControl/motor.cpp:378:30
	ldr	r1, [sp, #24]
	.loc	4 378 28 is_stmt 0              @ ../MotorControl/motor.cpp:378:28
	str.w	r1, [r0, #376]
	.loc	4 380 12 is_stmt 1              @ ../MotorControl/motor.cpp:380:12
	vldr	s0, [r0, #376]
	.loc	4 380 5 epilogue_begin is_stmt 0 @ ../MotorControl/motor.cpp:380:5
	add	sp, #32
	pop	{r7, pc}
.Ltmp121:
	.p2align	2
@ %bb.4:
	.loc	4 0 5                           @ ../MotorControl/motor.cpp:0:5
.LCPI22_0:
	.long	0x3f10d87c                      @ float 0.565803289
.Lfunc_end22:
	.size	_ZN5Motor21effective_current_limEv, .Lfunc_end22-_ZN5Motor21effective_current_limEv
	.cfi_endproc
	.cantunwind
	.fnend
                                        @ -- End function
	.section	.text._ZNSt3__23minB7v180000IfEERKT_S3_S3_,"axG",%progbits,_ZNSt3__23minB7v180000IfEERKT_S3_S3_,comdat
	.hidden	_ZNSt3__23minB7v180000IfEERKT_S3_S3_ @ -- Begin function _ZNSt3__23minB7v180000IfEERKT_S3_S3_
	.weak	_ZNSt3__23minB7v180000IfEERKT_S3_S3_
	.p2align	2
	.type	_ZNSt3__23minB7v180000IfEERKT_S3_S3_,%function
	.code	16                              @ @_ZNSt3__23minB7v180000IfEERKT_S3_S3_
	.thumb_func
_ZNSt3__23minB7v180000IfEERKT_S3_S3_:
.Lfunc_begin23:
	.file	28 "D:\\Embed\\MDK\\MDK\\ARM\\ARMCompilerV621\\Bin\\..\\include\\libcxx\\__algorithm" "min.h"
	.loc	28 41 0 is_stmt 1               @ D:\Embed\MDK\MDK\ARM\ARMCompilerV621\Bin\..\include\libcxx\__algorithm/min.h:41:0
	.fnstart
	.cfi_startproc
@ %bb.0:
	.save	{r7, lr}
	push	{r7, lr}
	.cfi_def_cfa_offset 8
	.cfi_offset lr, -4
	.cfi_offset r7, -8
	.pad	#16
	sub	sp, #16
	.cfi_def_cfa_offset 24
	str	r0, [sp, #12]
	str	r1, [sp, #8]
.Ltmp122:
	.loc	28 42 23 prologue_end           @ D:\Embed\MDK\MDK\ARM\ARMCompilerV621\Bin\..\include\libcxx\__algorithm/min.h:42:23
	ldr	r0, [sp, #12]
	.loc	28 42 28 is_stmt 0              @ D:\Embed\MDK\MDK\ARM\ARMCompilerV621\Bin\..\include\libcxx\__algorithm/min.h:42:28
	ldr	r1, [sp, #8]
	.loc	28 42 12                        @ D:\Embed\MDK\MDK\ARM\ARMCompilerV621\Bin\..\include\libcxx\__algorithm/min.h:42:12
	bl	_ZNSt3__23minB7v180000IfNS_6__lessIvvEEEERKT_S5_S5_T0_
	.loc	28 42 5 epilogue_begin          @ D:\Embed\MDK\MDK\ARM\ARMCompilerV621\Bin\..\include\libcxx\__algorithm/min.h:42:5
	add	sp, #16
	pop	{r7, pc}
.Ltmp123:
.Lfunc_end23:
	.size	_ZNSt3__23minB7v180000IfEERKT_S3_S3_, .Lfunc_end23-_ZNSt3__23minB7v180000IfEERKT_S3_S3_
	.cfi_endproc
	.cantunwind
	.fnend
                                        @ -- End function
	.section	.text._ZN5Motor20max_available_torqueEv,"ax",%progbits
	.hidden	_ZN5Motor20max_available_torqueEv @ -- Begin function _ZN5Motor20max_available_torqueEv
	.globl	_ZN5Motor20max_available_torqueEv
	.p2align	2
	.type	_ZN5Motor20max_available_torqueEv,%function
	.code	16                              @ @_ZN5Motor20max_available_torqueEv
	.thumb_func
_ZN5Motor20max_available_torqueEv:
.Lfunc_begin24:
	.loc	4 385 0 is_stmt 1               @ ../MotorControl/motor.cpp:385:0
	.fnstart
	.cfi_startproc
@ %bb.0:
	.save	{r7, lr}
	push	{r7, lr}
	.cfi_def_cfa_offset 8
	.cfi_offset lr, -4
	.cfi_offset r7, -8
	.pad	#32
	sub	sp, #32
	.cfi_def_cfa_offset 40
	str	r0, [sp, #24]
	ldr	r0, [sp, #24]
.Ltmp124:
	.loc	4 386 17 prologue_end           @ ../MotorControl/motor.cpp:386:17
	str	r0, [sp, #4]                    @ 4-byte Spill
	ldrb.w	r0, [r0, #56]
.Ltmp125:
	.loc	4 386 9 is_stmt 0               @ ../MotorControl/motor.cpp:386:9
	cmp	r0, #3
	bne	.LBB24_2
	b	.LBB24_1
.LBB24_1:
.Ltmp126:
	.loc	4 387 61 is_stmt 1              @ ../MotorControl/motor.cpp:387:61
	ldr	r0, [sp, #4]                    @ 4-byte Reload
	vldr	s2, [r0, #52]
	.loc	4 387 28 is_stmt 0              @ ../MotorControl/motor.cpp:387:28
	vldr	s0, [r0, #376]
	.loc	4 387 51                        @ ../MotorControl/motor.cpp:387:51
	vmul.f32	s0, s0, s2
	.loc	4 387 79                        @ ../MotorControl/motor.cpp:387:79
	ldr.w	r1, [r0, #136]
	.loc	4 387 102                       @ ../MotorControl/motor.cpp:387:102
	vldr	s2, [r1, #220]
	.loc	4 387 77                        @ ../MotorControl/motor.cpp:387:77
	vmul.f32	s0, s0, s2
	.loc	4 387 15                        @ ../MotorControl/motor.cpp:387:15
	vstr	s0, [sp, #20]
	movs	r1, #0
	.loc	4 388 45 is_stmt 1              @ ../MotorControl/motor.cpp:388:45
	str	r1, [sp, #16]
	.loc	4 388 59 is_stmt 0              @ ../MotorControl/motor.cpp:388:59
	add.w	r2, r0, #68
	add	r0, sp, #20
	add	r1, sp, #16
	.loc	4 388 22                        @ ../MotorControl/motor.cpp:388:22
	bl	_ZNSt3__25clampB7v180000IfEERKT_S3_S3_S3_
	ldr	r0, [r0]
	.loc	4 388 20                        @ ../MotorControl/motor.cpp:388:20
	str	r0, [sp, #20]
	.loc	4 389 16 is_stmt 1              @ ../MotorControl/motor.cpp:389:16
	ldr	r0, [sp, #20]
	.loc	4 389 9 is_stmt 0               @ ../MotorControl/motor.cpp:389:9
	str	r0, [sp, #28]
	b	.LBB24_3
.Ltmp127:
.LBB24_2:
	.loc	4 391 61 is_stmt 1              @ ../MotorControl/motor.cpp:391:61
	ldr	r0, [sp, #4]                    @ 4-byte Reload
	vldr	s2, [r0, #52]
	.loc	4 391 28 is_stmt 0              @ ../MotorControl/motor.cpp:391:28
	vldr	s0, [r0, #376]
	.loc	4 391 51                        @ ../MotorControl/motor.cpp:391:51
	vmul.f32	s0, s0, s2
	.loc	4 391 15                        @ ../MotorControl/motor.cpp:391:15
	vstr	s0, [sp, #12]
	movs	r1, #0
	.loc	4 392 45 is_stmt 1              @ ../MotorControl/motor.cpp:392:45
	str	r1, [sp, #8]
	.loc	4 392 59 is_stmt 0              @ ../MotorControl/motor.cpp:392:59
	add.w	r2, r0, #68
	add	r0, sp, #12
	add	r1, sp, #8
	.loc	4 392 22                        @ ../MotorControl/motor.cpp:392:22
	bl	_ZNSt3__25clampB7v180000IfEERKT_S3_S3_S3_
	ldr	r0, [r0]
	.loc	4 392 20                        @ ../MotorControl/motor.cpp:392:20
	str	r0, [sp, #12]
	.loc	4 393 16 is_stmt 1              @ ../MotorControl/motor.cpp:393:16
	ldr	r0, [sp, #12]
	.loc	4 393 9 is_stmt 0               @ ../MotorControl/motor.cpp:393:9
	str	r0, [sp, #28]
	b	.LBB24_3
.Ltmp128:
.LBB24_3:
	.loc	4 395 1 is_stmt 1               @ ../MotorControl/motor.cpp:395:1
	vldr	s0, [sp, #28]
	.loc	4 395 1 epilogue_begin is_stmt 0 @ ../MotorControl/motor.cpp:395:1
	add	sp, #32
	pop	{r7, pc}
.Ltmp129:
.Lfunc_end24:
	.size	_ZN5Motor20max_available_torqueEv, .Lfunc_end24-_ZN5Motor20max_available_torqueEv
	.cfi_endproc
	.cantunwind
	.fnend
                                        @ -- End function
	.section	.text._ZNSt3__25clampB7v180000IfEERKT_S3_S3_S3_,"axG",%progbits,_ZNSt3__25clampB7v180000IfEERKT_S3_S3_S3_,comdat
	.hidden	_ZNSt3__25clampB7v180000IfEERKT_S3_S3_S3_ @ -- Begin function _ZNSt3__25clampB7v180000IfEERKT_S3_S3_S3_
	.weak	_ZNSt3__25clampB7v180000IfEERKT_S3_S3_S3_
	.p2align	2
	.type	_ZNSt3__25clampB7v180000IfEERKT_S3_S3_S3_,%function
	.code	16                              @ @_ZNSt3__25clampB7v180000IfEERKT_S3_S3_S3_
	.thumb_func
_ZNSt3__25clampB7v180000IfEERKT_S3_S3_S3_:
.Lfunc_begin25:
	.file	29 "D:\\Embed\\MDK\\MDK\\ARM\\ARMCompilerV621\\Bin\\..\\include\\libcxx\\__algorithm" "clamp.h"
	.loc	29 37 0 is_stmt 1               @ D:\Embed\MDK\MDK\ARM\ARMCompilerV621\Bin\..\include\libcxx\__algorithm/clamp.h:37:0
	.fnstart
	.cfi_startproc
@ %bb.0:
	.save	{r7, lr}
	push	{r7, lr}
	.cfi_def_cfa_offset 8
	.cfi_offset lr, -4
	.cfi_offset r7, -8
	.pad	#16
	sub	sp, #16
	.cfi_def_cfa_offset 24
	str	r0, [sp, #12]
	str	r1, [sp, #8]
	str	r2, [sp, #4]
.Ltmp130:
	.loc	29 38 23 prologue_end           @ D:\Embed\MDK\MDK\ARM\ARMCompilerV621\Bin\..\include\libcxx\__algorithm/clamp.h:38:23
	ldr	r0, [sp, #12]
	.loc	29 38 28 is_stmt 0              @ D:\Embed\MDK\MDK\ARM\ARMCompilerV621\Bin\..\include\libcxx\__algorithm/clamp.h:38:28
	ldr	r1, [sp, #8]
	.loc	29 38 34                        @ D:\Embed\MDK\MDK\ARM\ARMCompilerV621\Bin\..\include\libcxx\__algorithm/clamp.h:38:34
	ldr	r2, [sp, #4]
	.loc	29 38 10                        @ D:\Embed\MDK\MDK\ARM\ARMCompilerV621\Bin\..\include\libcxx\__algorithm/clamp.h:38:10
	bl	_ZNSt3__25clampB7v180000IfNS_6__lessIvvEEEERKT_S5_S5_S5_T0_
	.loc	29 38 3 epilogue_begin          @ D:\Embed\MDK\MDK\ARM\ARMCompilerV621\Bin\..\include\libcxx\__algorithm/clamp.h:38:3
	add	sp, #16
	pop	{r7, pc}
.Ltmp131:
.Lfunc_end25:
	.size	_ZNSt3__25clampB7v180000IfEERKT_S3_S3_S3_, .Lfunc_end25-_ZNSt3__25clampB7v180000IfEERKT_S3_S3_S3_
	.cfi_endproc
	.cantunwind
	.fnend
                                        @ -- End function
	.section	.text._ZN5Motor25phase_current_from_adcvalEj,"ax",%progbits
	.hidden	_ZN5Motor25phase_current_from_adcvalEj @ -- Begin function _ZN5Motor25phase_current_from_adcvalEj
	.globl	_ZN5Motor25phase_current_from_adcvalEj
	.p2align	2
	.type	_ZN5Motor25phase_current_from_adcvalEj,%function
	.code	16                              @ @_ZN5Motor25phase_current_from_adcvalEj
	.thumb_func
_ZN5Motor25phase_current_from_adcvalEj:
.Lfunc_begin26:
	.loc	4 397 0 is_stmt 1               @ ../MotorControl/motor.cpp:397:0
	.fnstart
	.cfi_startproc
@ %bb.0:
	.save	{r7, lr}
	push	{r7, lr}
	.cfi_def_cfa_offset 8
	.cfi_offset lr, -4
	.cfi_offset r7, -8
	.pad	#40
	sub	sp, #40
	.cfi_def_cfa_offset 48
	str	r0, [sp, #4]                    @ 4-byte Spill
	str	r1, [sp, #36]
	str	r2, [sp, #32]
	ldr	r0, [sp, #36]
.Ltmp132:
	.loc	4 399 9 prologue_end            @ ../MotorControl/motor.cpp:399:9
	str	r0, [sp, #8]                    @ 4-byte Spill
	ldr	r0, [sp, #32]
	.loc	4 399 44 is_stmt 0              @ ../MotorControl/motor.cpp:399:44
	cmp.w	r0, #372
	blo	.LBB26_2
	b	.LBB26_1
.LBB26_1:
	.loc	4 399 47                        @ ../MotorControl/motor.cpp:399:47
	ldr	r0, [sp, #32]
	movw	r1, #3724
.Ltmp133:
	.loc	4 399 9                         @ ../MotorControl/motor.cpp:399:9
	cmp	r0, r1
	blo	.LBB26_3
	b	.LBB26_2
.LBB26_2:
.Ltmp134:
	.loc	4 400 9 is_stmt 1               @ ../MotorControl/motor.cpp:400:9
	ldr	r0, [sp, #8]                    @ 4-byte Reload
	adds	r0, #152
	mov.w	r2, #1024
	movs	r3, #0
	.loc	4 400 16 is_stmt 0              @ ../MotorControl/motor.cpp:400:16
	bl	_ZoRRN10ODriveIntf9MotorIntf5ErrorES1_
                                        @ kill: def $r1 killed $r0
	.loc	4 401 16 is_stmt 1              @ ../MotorControl/motor.cpp:401:16
	ldr	r0, [sp, #4]                    @ 4-byte Reload
	bl	_ZNSt3__28optionalIfEC2B7v180000ENS_9nullopt_tE
	.loc	4 401 9 is_stmt 0               @ ../MotorControl/motor.cpp:401:9
	b	.LBB26_4
.Ltmp135:
.LBB26_3:
	.loc	4 404 27 is_stmt 1              @ ../MotorControl/motor.cpp:404:27
	ldr	r0, [sp, #4]                    @ 4-byte Reload
	ldr	r1, [sp, #8]                    @ 4-byte Reload
	ldr	r2, [sp, #32]
	.loc	4 404 36 is_stmt 0              @ ../MotorControl/motor.cpp:404:36
	sub.w	r2, r2, #2048
	.loc	4 404 9                         @ ../MotorControl/motor.cpp:404:9
	str	r2, [sp, #24]
	.loc	4 405 61 is_stmt 1              @ ../MotorControl/motor.cpp:405:61
	vldr	s0, [sp, #24]
	vcvt.f32.s32	s0, s0
	vldr	s2, .LCPI26_0
	.loc	4 405 52 is_stmt 0              @ ../MotorControl/motor.cpp:405:52
	vmul.f32	s0, s0, s2
	.loc	4 405 11                        @ ../MotorControl/motor.cpp:405:11
	vstr	s0, [sp, #20]
	.loc	4 406 24 is_stmt 1              @ ../MotorControl/motor.cpp:406:24
	vldr	s0, [sp, #20]
	.loc	4 406 39 is_stmt 0              @ ../MotorControl/motor.cpp:406:39
	vldr	s2, [r1, #204]
	.loc	4 406 37                        @ ../MotorControl/motor.cpp:406:37
	vmul.f32	s0, s0, s2
	.loc	4 406 11                        @ ../MotorControl/motor.cpp:406:11
	vstr	s0, [sp, #16]
	.loc	4 407 21 is_stmt 1              @ ../MotorControl/motor.cpp:407:21
	vldr	s0, [sp, #16]
	.loc	4 407 34 is_stmt 0              @ ../MotorControl/motor.cpp:407:34
	vldr	s2, [r1, #8]
	.loc	4 407 32                        @ ../MotorControl/motor.cpp:407:32
	vmul.f32	s0, s0, s2
	.loc	4 407 11                        @ ../MotorControl/motor.cpp:407:11
	vstr	s0, [sp, #12]
	add	r1, sp, #12
	.loc	4 408 12 is_stmt 1              @ ../MotorControl/motor.cpp:408:12
	bl	_ZNSt3__28optionalIfEC2B7v180000IfLi0EEEOT_
	.loc	4 408 5 is_stmt 0               @ ../MotorControl/motor.cpp:408:5
	b	.LBB26_4
.LBB26_4:
	.loc	4 409 1 epilogue_begin is_stmt 1 @ ../MotorControl/motor.cpp:409:1
	add	sp, #40
	pop	{r7, pc}
.Ltmp136:
	.p2align	2
@ %bb.5:
	.loc	4 0 1 is_stmt 0                 @ ../MotorControl/motor.cpp:0:1
.LCPI26_0:
	.long	0x3a533333                      @ float 8.05664051E-4
.Lfunc_end26:
	.size	_ZN5Motor25phase_current_from_adcvalEj, .Lfunc_end26-_ZN5Motor25phase_current_from_adcvalEj
	.cfi_endproc
	.cantunwind
	.fnend
                                        @ -- End function
	.section	.text._ZNSt3__28optionalIfEC2B7v180000ENS_9nullopt_tE,"axG",%progbits,_ZNSt3__28optionalIfEC2B7v180000ENS_9nullopt_tE,comdat
	.hidden	_ZNSt3__28optionalIfEC2B7v180000ENS_9nullopt_tE @ -- Begin function _ZNSt3__28optionalIfEC2B7v180000ENS_9nullopt_tE
	.weak	_ZNSt3__28optionalIfEC2B7v180000ENS_9nullopt_tE
	.p2align	2
	.type	_ZNSt3__28optionalIfEC2B7v180000ENS_9nullopt_tE,%function
	.code	16                              @ @_ZNSt3__28optionalIfEC2B7v180000ENS_9nullopt_tE
	.thumb_func
_ZNSt3__28optionalIfEC2B7v180000ENS_9nullopt_tE:
.Lfunc_begin27:
	.loc	6 803 0 is_stmt 1               @ D:\Embed\MDK\MDK\ARM\ARMCompilerV621\Bin\..\include\libcxx\optional:803:0
	.fnstart
	.cfi_startproc
@ %bb.0:
	.save	{r7, lr}
	push	{r7, lr}
	.cfi_def_cfa_offset 8
	.cfi_offset lr, -4
	.cfi_offset r7, -8
	.pad	#16
	sub	sp, #16
	.cfi_def_cfa_offset 24
	str	r0, [sp, #8]
	ldr	r0, [sp, #8]
.Ltmp137:
	.loc	6 803 41 prologue_end           @ D:\Embed\MDK\MDK\ARM\ARMCompilerV621\Bin\..\include\libcxx\optional:803:41
	str	r0, [sp, #4]                    @ 4-byte Spill
	bl	_ZNSt3__227__optional_move_assign_baseIfLb1EEC2Ev
	ldr	r0, [sp, #4]                    @ 4-byte Reload
	.loc	6 803 71 epilogue_begin is_stmt 0 @ D:\Embed\MDK\MDK\ARM\ARMCompilerV621\Bin\..\include\libcxx\optional:803:71
	add	sp, #16
	pop	{r7, pc}
.Ltmp138:
.Lfunc_end27:
	.size	_ZNSt3__28optionalIfEC2B7v180000ENS_9nullopt_tE, .Lfunc_end27-_ZNSt3__28optionalIfEC2B7v180000ENS_9nullopt_tE
	.cfi_endproc
	.cantunwind
	.fnend
                                        @ -- End function
	.section	.text._ZNSt3__28optionalIfEC2B7v180000IfLi0EEEOT_,"axG",%progbits,_ZNSt3__28optionalIfEC2B7v180000IfLi0EEEOT_,comdat
	.hidden	_ZNSt3__28optionalIfEC2B7v180000IfLi0EEEOT_ @ -- Begin function _ZNSt3__28optionalIfEC2B7v180000IfLi0EEEOT_
	.weak	_ZNSt3__28optionalIfEC2B7v180000IfLi0EEEOT_
	.p2align	2
	.type	_ZNSt3__28optionalIfEC2B7v180000IfLi0EEEOT_,%function
	.code	16                              @ @_ZNSt3__28optionalIfEC2B7v180000IfLi0EEEOT_
	.thumb_func
_ZNSt3__28optionalIfEC2B7v180000IfLi0EEEOT_:
.Lfunc_begin28:
	.loc	6 828 0 is_stmt 1               @ D:\Embed\MDK\MDK\ARM\ARMCompilerV621\Bin\..\include\libcxx\optional:828:0
	.fnstart
	.cfi_startproc
@ %bb.0:
	.save	{r7, lr}
	push	{r7, lr}
	.cfi_def_cfa_offset 8
	.cfi_offset lr, -4
	.cfi_offset r7, -8
	.pad	#16
	sub	sp, #16
	.cfi_def_cfa_offset 24
	str	r0, [sp, #12]
	str	r1, [sp, #8]
	ldr	r0, [sp, #12]
.Ltmp139:
	.loc	6 828 48 prologue_end           @ D:\Embed\MDK\MDK\ARM\ARMCompilerV621\Bin\..\include\libcxx\optional:828:48
	str	r0, [sp]                        @ 4-byte Spill
	ldr	r1, [sp, #8]
	.loc	6 828 11 is_stmt 0              @ D:\Embed\MDK\MDK\ARM\ARMCompilerV621\Bin\..\include\libcxx\optional:828:11
	bl	_ZNSt3__227__optional_move_assign_baseIfLb1EECI2NS_24__optional_destruct_baseIfLb1EEEIJfEEENS_10in_place_tEDpOT_
	ldr	r0, [sp]                        @ 4-byte Reload
	.loc	6 828 55 epilogue_begin         @ D:\Embed\MDK\MDK\ARM\ARMCompilerV621\Bin\..\include\libcxx\optional:828:55
	add	sp, #16
	pop	{r7, pc}
.Ltmp140:
.Lfunc_end28:
	.size	_ZNSt3__28optionalIfEC2B7v180000IfLi0EEEOT_, .Lfunc_end28-_ZNSt3__28optionalIfEC2B7v180000IfLi0EEEOT_
	.cfi_endproc
	.cantunwind
	.fnend
                                        @ -- End function
	.section	.text._ZN5Motor24measure_phase_resistanceEff,"ax",%progbits
	.hidden	_ZN5Motor24measure_phase_resistanceEff @ -- Begin function _ZN5Motor24measure_phase_resistanceEff
	.globl	_ZN5Motor24measure_phase_resistanceEff
	.p2align	2
	.type	_ZN5Motor24measure_phase_resistanceEff,%function
	.code	16                              @ @_ZN5Motor24measure_phase_resistanceEff
	.thumb_func
_ZN5Motor24measure_phase_resistanceEff:
.Lfunc_begin29:
	.loc	4 416 0 is_stmt 1               @ ../MotorControl/motor.cpp:416:0
	.fnstart
	.cfi_startproc
@ %bb.0:
	.save	{r7, lr}
	push	{r7, lr}
	.cfi_def_cfa_offset 8
	.cfi_offset lr, -4
	.cfi_offset r7, -8
	.pad	#80
	sub	sp, #80
	.cfi_def_cfa_offset 88
	str	r0, [sp, #76]
	vstr	s0, [sp, #72]
	vstr	s1, [sp, #68]
	ldr	r0, [sp, #76]
.Ltmp141:
	.loc	4 417 37 prologue_end           @ ../MotorControl/motor.cpp:417:37
	str	r0, [sp, #8]                    @ 4-byte Spill
	add	r0, sp, #28
	str	r0, [sp, #12]                   @ 4-byte Spill
	bl	_ZN31ResistanceMeasurementControlLawC2Ev
	ldr	r0, [sp, #8]                    @ 4-byte Reload
	ldr	r1, [sp, #12]                   @ 4-byte Reload
	.loc	4 418 35                        @ ../MotorControl/motor.cpp:418:35
	ldr	r2, [sp, #72]
	.loc	4 418 33 is_stmt 0              @ ../MotorControl/motor.cpp:418:33
	str	r2, [sp, #48]
	.loc	4 419 32 is_stmt 1              @ ../MotorControl/motor.cpp:419:32
	ldr	r2, [sp, #68]
	.loc	4 419 30 is_stmt 0              @ ../MotorControl/motor.cpp:419:30
	str	r2, [sp, #40]
	.loc	4 421 5 is_stmt 1               @ ../MotorControl/motor.cpp:421:5
	bl	_ZN5Motor3armEP15PhaseControlLawILj3EE
	movs	r0, #0
.Ltmp142:
	.loc	4 423 17                        @ ../MotorControl/motor.cpp:423:17
	str	r0, [sp, #24]
	.loc	4 423 10 is_stmt 0              @ ../MotorControl/motor.cpp:423:10
	b	.LBB29_1
.LBB29_1:                               @ =>This Inner Loop Header: Depth=1
.Ltmp143:
	.loc	4 423 24                        @ ../MotorControl/motor.cpp:423:24
	ldr	r0, [sp, #24]
	movw	r1, #2999
.Ltmp144:
	.loc	4 423 5                         @ ../MotorControl/motor.cpp:423:5
	cmp	r0, r1
	bhi	.LBB29_7
	b	.LBB29_2
.LBB29_2:                               @   in Loop: Header=BB29_1 Depth=1
.Ltmp145:
	.loc	4 424 16 is_stmt 1              @ ../MotorControl/motor.cpp:424:16
	ldr	r0, [sp, #8]                    @ 4-byte Reload
	ldr.w	r0, [r0, #136]
	.loc	4 424 23 is_stmt 0              @ ../MotorControl/motor.cpp:424:23
	ldrb.w	r0, [r0, #628]
	.loc	4 424 71                        @ ../MotorControl/motor.cpp:424:71
	cbnz	r0, .LBB29_4
	b	.LBB29_3
.LBB29_3:                               @   in Loop: Header=BB29_1 Depth=1
	.loc	4 424 74                        @ ../MotorControl/motor.cpp:424:74
	ldr	r0, [sp, #8]                    @ 4-byte Reload
	ldr.w	r0, [r0, #136]
	.loc	4 424 81                        @ ../MotorControl/motor.cpp:424:81
	ldr.w	r0, [r0, #344]
	.loc	4 424 88                        @ ../MotorControl/motor.cpp:424:88
	ldrb.w	r0, [r0, #164]
.Ltmp146:
	.loc	4 424 13                        @ ../MotorControl/motor.cpp:424:13
	lsls	r0, r0, #31
	cbnz	r0, .LBB29_5
	b	.LBB29_4
.LBB29_4:
.Ltmp147:
	.loc	4 425 13 is_stmt 1              @ ../MotorControl/motor.cpp:425:13
	b	.LBB29_7
.Ltmp148:
.LBB29_5:                               @   in Loop: Header=BB29_1 Depth=1
	.loc	4 0 13 is_stmt 0                @ ../MotorControl/motor.cpp:0:13
	movs	r0, #1
	.loc	4 427 9 is_stmt 1               @ ../MotorControl/motor.cpp:427:9
	bl	osDelay
	.loc	4 428 5                         @ ../MotorControl/motor.cpp:428:5
	b	.LBB29_6
.Ltmp149:
.LBB29_6:                               @   in Loop: Header=BB29_1 Depth=1
	.loc	4 423 34                        @ ../MotorControl/motor.cpp:423:34
	ldr	r0, [sp, #24]
	adds	r0, #1
	str	r0, [sp, #24]
	.loc	4 423 5 is_stmt 0               @ ../MotorControl/motor.cpp:423:5
	b	.LBB29_1
.Ltmp150:
.LBB29_7:
	.loc	4 430 20 is_stmt 1              @ ../MotorControl/motor.cpp:430:20
	ldr	r0, [sp, #8]                    @ 4-byte Reload
	ldrb.w	r1, [r0, #164]
	.loc	4 430 10 is_stmt 0              @ ../MotorControl/motor.cpp:430:10
	and	r1, r1, #1
	strb.w	r1, [sp, #23]
	movs	r1, #0
	.loc	4 436 5 is_stmt 1               @ ../MotorControl/motor.cpp:436:5
	bl	_ZN5Motor6disarmEPb
	add	r0, sp, #28
	.loc	4 438 44                        @ ../MotorControl/motor.cpp:438:44
	bl	_ZN31ResistanceMeasurementControlLaw14get_resistanceEv
	ldr	r0, [sp, #8]                    @ 4-byte Reload
	.loc	4 438 30 is_stmt 0              @ ../MotorControl/motor.cpp:438:30
	vstr	s0, [r0, #48]
.Ltmp151:
	.loc	4 439 24 is_stmt 1              @ ../MotorControl/motor.cpp:439:24
	vldr	s0, [r0, #48]
	.loc	4 439 9 is_stmt 0               @ ../MotorControl/motor.cpp:439:9
	bl	_Z6is_nanf
.Ltmp152:
	.loc	4 439 9                         @ ../MotorControl/motor.cpp:439:9
	cbz	r0, .LBB29_9
	b	.LBB29_8
.LBB29_8:
.Ltmp153:
	.loc	4 443 9 is_stmt 1               @ ../MotorControl/motor.cpp:443:9
	ldr	r0, [sp, #8]                    @ 4-byte Reload
	movs	r2, #1
	movs	r3, #0
	str	r3, [sp, #4]                    @ 4-byte Spill
	bl	_ZN5Motor17disarm_with_errorEN10ODriveIntf9MotorIntf5ErrorE
	ldr	r0, [sp, #4]                    @ 4-byte Reload
	.loc	4 444 17                        @ ../MotorControl/motor.cpp:444:17
	strb.w	r0, [sp, #23]
	.loc	4 445 5                         @ ../MotorControl/motor.cpp:445:5
	b	.LBB29_9
.Ltmp154:
.LBB29_9:
	.loc	4 0 5 is_stmt 0                 @ ../MotorControl/motor.cpp:0:5
	add	r0, sp, #28
	.loc	4 447 32 is_stmt 1              @ ../MotorControl/motor.cpp:447:32
	bl	_ZN31ResistanceMeasurementControlLaw9get_IbetaEv
	.loc	4 447 11 is_stmt 0              @ ../MotorControl/motor.cpp:447:11
	vstr	s0, [sp, #16]
.Ltmp155:
	.loc	4 448 16 is_stmt 1              @ ../MotorControl/motor.cpp:448:16
	vldr	s0, [sp, #16]
	.loc	4 448 9 is_stmt 0               @ ../MotorControl/motor.cpp:448:9
	bl	_Z6is_nanf
	.loc	4 448 24                        @ ../MotorControl/motor.cpp:448:24
	cbnz	r0, .LBB29_11
	b	.LBB29_10
.LBB29_10:
	.loc	4 448 32                        @ ../MotorControl/motor.cpp:448:32
	vldr	s0, [sp, #16]
	.loc	4 448 28                        @ ../MotorControl/motor.cpp:448:28
	bl	_Z3absB7v180000f
	.loc	4 448 42                        @ ../MotorControl/motor.cpp:448:42
	vldr	s2, [sp, #72]
	.loc	4 448 40                        @ ../MotorControl/motor.cpp:448:40
	vdiv.f32	s0, s0, s2
	vldr	s2, .LCPI29_0
.Ltmp156:
	.loc	4 448 9                         @ ../MotorControl/motor.cpp:448:9
	vcmp.f32	s0, s2
	vmrs	APSR_nzcv, fpscr
	ble	.LBB29_12
	b	.LBB29_11
.LBB29_11:
.Ltmp157:
	.loc	4 449 9 is_stmt 1               @ ../MotorControl/motor.cpp:449:9
	ldr	r0, [sp, #8]                    @ 4-byte Reload
	movs	r2, #0
	str	r2, [sp]                        @ 4-byte Spill
	movs	r3, #8
	bl	_ZN5Motor17disarm_with_errorEN10ODriveIntf9MotorIntf5ErrorE
	ldr	r0, [sp]                        @ 4-byte Reload
	.loc	4 450 17                        @ ../MotorControl/motor.cpp:450:17
	strb.w	r0, [sp, #23]
	.loc	4 451 5                         @ ../MotorControl/motor.cpp:451:5
	b	.LBB29_12
.Ltmp158:
.LBB29_12:
	.loc	4 453 5                         @ ../MotorControl/motor.cpp:453:5
	ldrb.w	r0, [sp, #23]
	and	r0, r0, #1
	.loc	4 453 5 epilogue_begin is_stmt 0 @ ../MotorControl/motor.cpp:453:5
	add	sp, #80
	pop	{r7, pc}
.Ltmp159:
	.p2align	2
@ %bb.13:
	.loc	4 0 5                           @ ../MotorControl/motor.cpp:0:5
.LCPI29_0:
	.long	0x3e4ccccd                      @ float 0.200000003
.Lfunc_end29:
	.size	_ZN5Motor24measure_phase_resistanceEff, .Lfunc_end29-_ZN5Motor24measure_phase_resistanceEff
	.cfi_endproc
	.cantunwind
	.fnend
                                        @ -- End function
	.section	.text._ZN31ResistanceMeasurementControlLawC2Ev,"axG",%progbits,_ZN31ResistanceMeasurementControlLawC2Ev,comdat
	.hidden	_ZN31ResistanceMeasurementControlLawC2Ev @ -- Begin function _ZN31ResistanceMeasurementControlLawC2Ev
	.weak	_ZN31ResistanceMeasurementControlLawC2Ev
	.p2align	2
	.type	_ZN31ResistanceMeasurementControlLawC2Ev,%function
	.code	16                              @ @_ZN31ResistanceMeasurementControlLawC2Ev
	.thumb_func
_ZN31ResistanceMeasurementControlLawC2Ev:
.Lfunc_begin30:
	.loc	4 18 0 is_stmt 1                @ ../MotorControl/motor.cpp:18:0
	.fnstart
	.cfi_startproc
@ %bb.0:
	.save	{r7, lr}
	push	{r7, lr}
	.cfi_def_cfa_offset 8
	.cfi_offset lr, -4
	.cfi_offset r7, -8
	.pad	#16
	sub	sp, #16
	.cfi_def_cfa_offset 24
	str	r0, [sp, #12]
	ldr	r0, [sp, #12]
.Ltmp160:
	.loc	4 18 8 prologue_end             @ ../MotorControl/motor.cpp:18:8
	str	r0, [sp, #4]                    @ 4-byte Spill
	bl	_ZN24AlphaBetaFrameControllerC2Ev
	ldr	r0, [sp, #4]                    @ 4-byte Reload
	movw	r1, :lower16:_ZTV31ResistanceMeasurementControlLaw
	movt	r1, :upper16:_ZTV31ResistanceMeasurementControlLaw
	adds	r1, #8
	str	r1, [r0]
	mov.w	r1, #1065353216
	.loc	4 71 17                         @ ../MotorControl/motor.cpp:71:17
	str	r1, [r0, #4]
	movs	r1, #0
	movt	r1, #17056
	.loc	4 72 17                         @ ../MotorControl/motor.cpp:72:17
	str	r1, [r0, #8]
	movs	r1, #0
	.loc	4 73 11                         @ ../MotorControl/motor.cpp:73:11
	str	r1, [r0, #12]
	.loc	4 74 11                         @ ../MotorControl/motor.cpp:74:11
	str	r1, [r0, #16]
	.loc	4 75 11                         @ ../MotorControl/motor.cpp:75:11
	str	r1, [r0, #20]
	.loc	4 76 11                         @ ../MotorControl/motor.cpp:76:11
	str	r1, [r0, #24]
	.loc	4 77 11                         @ ../MotorControl/motor.cpp:77:11
	str	r1, [r0, #28]
	.loc	4 78 26                         @ ../MotorControl/motor.cpp:78:26
	adds	r0, #32
	movs	r1, #0
	movt	r1, #32704
	.loc	4 78 38 is_stmt 0               @ ../MotorControl/motor.cpp:78:38
	str	r1, [sp, #8]
	add	r1, sp, #8
	bl	_ZNSt3__28optionalIfEC2B7v180000IfLi0EEEOT_
	ldr	r0, [sp, #4]                    @ 4-byte Reload
	.loc	4 18 8 epilogue_begin is_stmt 1 @ ../MotorControl/motor.cpp:18:8
	add	sp, #16
	pop	{r7, pc}
.Ltmp161:
.Lfunc_end30:
	.size	_ZN31ResistanceMeasurementControlLawC2Ev, .Lfunc_end30-_ZN31ResistanceMeasurementControlLawC2Ev
	.cfi_endproc
	.cantunwind
	.fnend
                                        @ -- End function
	.section	.text._ZN31ResistanceMeasurementControlLaw14get_resistanceEv,"axG",%progbits,_ZN31ResistanceMeasurementControlLaw14get_resistanceEv,comdat
	.hidden	_ZN31ResistanceMeasurementControlLaw14get_resistanceEv @ -- Begin function _ZN31ResistanceMeasurementControlLaw14get_resistanceEv
	.weak	_ZN31ResistanceMeasurementControlLaw14get_resistanceEv
	.p2align	2
	.type	_ZN31ResistanceMeasurementControlLaw14get_resistanceEv,%function
	.code	16                              @ @_ZN31ResistanceMeasurementControlLaw14get_resistanceEv
	.thumb_func
_ZN31ResistanceMeasurementControlLaw14get_resistanceEv:
.Lfunc_begin31:
	.loc	4 63 0                          @ ../MotorControl/motor.cpp:63:0
	.fnstart
	.cfi_startproc
@ %bb.0:
	.pad	#4
	sub	sp, #4
	.cfi_def_cfa_offset 4
	str	r0, [sp]
	ldr	r0, [sp]
.Ltmp162:
	.loc	4 64 32 prologue_end            @ ../MotorControl/motor.cpp:64:32
	vldr	s2, [r0, #20]
	.loc	4 64 16 is_stmt 0               @ ../MotorControl/motor.cpp:64:16
	vldr	s0, [r0, #24]
	.loc	4 64 30                         @ ../MotorControl/motor.cpp:64:30
	vdiv.f32	s0, s0, s2
	.loc	4 64 9 epilogue_begin           @ ../MotorControl/motor.cpp:64:9
	add	sp, #4
	bx	lr
.Ltmp163:
.Lfunc_end31:
	.size	_ZN31ResistanceMeasurementControlLaw14get_resistanceEv, .Lfunc_end31-_ZN31ResistanceMeasurementControlLaw14get_resistanceEv
	.cfi_endproc
	.cantunwind
	.fnend
                                        @ -- End function
	.section	.text._Z6is_nanf,"axG",%progbits,_Z6is_nanf,comdat
	.hidden	_Z6is_nanf                      @ -- Begin function _Z6is_nanf
	.weak	_Z6is_nanf
	.p2align	2
	.type	_Z6is_nanf,%function
	.code	16                              @ @_Z6is_nanf
	.thumb_func
_Z6is_nanf:
.Lfunc_begin32:
	.loc	2 102 0 is_stmt 1               @ ../../Firmware\MotorControl/utils.hpp:102:0
	.fnstart
	.cfi_startproc
@ %bb.0:
	.pad	#4
	sub	sp, #4
	.cfi_def_cfa_offset 4
	vstr	s0, [sp]
.Ltmp164:
	.loc	2 103 28 prologue_end           @ ../../Firmware\MotorControl/utils.hpp:103:28
	ldr	r0, [sp]
	.loc	2 103 12 is_stmt 0              @ ../../Firmware\MotorControl/utils.hpp:103:12
	bic	r1, r0, #-2147483648
	movs	r0, #0
	cmp.w	r1, #2139095040
	it	gt
	movgt	r0, #1
	.loc	2 103 5 epilogue_begin          @ ../../Firmware\MotorControl/utils.hpp:103:5
	add	sp, #4
	bx	lr
.Ltmp165:
.Lfunc_end32:
	.size	_Z6is_nanf, .Lfunc_end32-_Z6is_nanf
	.cfi_endproc
	.cantunwind
	.fnend
                                        @ -- End function
	.section	.text._ZN31ResistanceMeasurementControlLaw9get_IbetaEv,"axG",%progbits,_ZN31ResistanceMeasurementControlLaw9get_IbetaEv,comdat
	.hidden	_ZN31ResistanceMeasurementControlLaw9get_IbetaEv @ -- Begin function _ZN31ResistanceMeasurementControlLaw9get_IbetaEv
	.weak	_ZN31ResistanceMeasurementControlLaw9get_IbetaEv
	.p2align	2
	.type	_ZN31ResistanceMeasurementControlLaw9get_IbetaEv,%function
	.code	16                              @ @_ZN31ResistanceMeasurementControlLaw9get_IbetaEv
	.thumb_func
_ZN31ResistanceMeasurementControlLaw9get_IbetaEv:
.Lfunc_begin33:
	.loc	4 67 0 is_stmt 1                @ ../MotorControl/motor.cpp:67:0
	.fnstart
	.cfi_startproc
@ %bb.0:
	.pad	#4
	sub	sp, #4
	.cfi_def_cfa_offset 4
	str	r0, [sp]
	ldr	r0, [sp]
.Ltmp166:
	.loc	4 68 16 prologue_end            @ ../MotorControl/motor.cpp:68:16
	vldr	s0, [r0, #28]
	.loc	4 68 9 epilogue_begin is_stmt 0 @ ../MotorControl/motor.cpp:68:9
	add	sp, #4
	bx	lr
.Ltmp167:
.Lfunc_end33:
	.size	_ZN31ResistanceMeasurementControlLaw9get_IbetaEv, .Lfunc_end33-_ZN31ResistanceMeasurementControlLaw9get_IbetaEv
	.cfi_endproc
	.cantunwind
	.fnend
                                        @ -- End function
	.section	.text._Z3absB7v180000f,"axG",%progbits,_Z3absB7v180000f,comdat
	.hidden	_Z3absB7v180000f                @ -- Begin function _Z3absB7v180000f
	.weak	_Z3absB7v180000f
	.p2align	2
	.type	_Z3absB7v180000f,%function
	.code	16                              @ @_Z3absB7v180000f
	.thumb_func
_Z3absB7v180000f:
.Lfunc_begin34:
	.file	30 "D:\\Embed\\MDK\\MDK\\ARM\\ARMCompilerV621\\Bin\\..\\include\\libcxx" "stdlib.h"
	.loc	30 122 0 is_stmt 1              @ D:\Embed\MDK\MDK\ARM\ARMCompilerV621\Bin\..\include\libcxx\stdlib.h:122:0
	.fnstart
	.cfi_startproc
@ %bb.0:
	.pad	#4
	sub	sp, #4
	.cfi_def_cfa_offset 4
	vstr	s0, [sp]
.Ltmp168:
	.loc	30 123 26 prologue_end          @ D:\Embed\MDK\MDK\ARM\ARMCompilerV621\Bin\..\include\libcxx\stdlib.h:123:26
	vldr	s0, [sp]
	.loc	30 123 10 is_stmt 0             @ D:\Embed\MDK\MDK\ARM\ARMCompilerV621\Bin\..\include\libcxx\stdlib.h:123:10
	vabs.f32	s0, s0
	.loc	30 123 3 epilogue_begin         @ D:\Embed\MDK\MDK\ARM\ARMCompilerV621\Bin\..\include\libcxx\stdlib.h:123:3
	add	sp, #4
	bx	lr
.Ltmp169:
.Lfunc_end34:
	.size	_Z3absB7v180000f, .Lfunc_end34-_Z3absB7v180000f
	.cfi_endproc
	.cantunwind
	.fnend
                                        @ -- End function
	.section	.text._ZN5Motor24measure_phase_inductanceEf,"ax",%progbits
	.hidden	_ZN5Motor24measure_phase_inductanceEf @ -- Begin function _ZN5Motor24measure_phase_inductanceEf
	.globl	_ZN5Motor24measure_phase_inductanceEf
	.p2align	2
	.type	_ZN5Motor24measure_phase_inductanceEf,%function
	.code	16                              @ @_ZN5Motor24measure_phase_inductanceEf
	.thumb_func
_ZN5Motor24measure_phase_inductanceEf:
.Lfunc_begin35:
	.loc	4 457 0 is_stmt 1               @ ../MotorControl/motor.cpp:457:0
	.fnstart
	.cfi_startproc
@ %bb.0:
	.save	{r7, lr}
	push	{r7, lr}
	.cfi_def_cfa_offset 8
	.cfi_offset lr, -4
	.cfi_offset r7, -8
	.pad	#64
	sub	sp, #64
	.cfi_def_cfa_offset 72
	str	r0, [sp, #60]
	vstr	s0, [sp, #56]
	ldr	r0, [sp, #60]
.Ltmp170:
	.loc	4 458 37 prologue_end           @ ../MotorControl/motor.cpp:458:37
	str	r0, [sp, #8]                    @ 4-byte Spill
	add	r0, sp, #24
	str	r0, [sp, #12]                   @ 4-byte Spill
	bl	_ZN31InductanceMeasurementControlLawC2Ev
	ldr	r0, [sp, #8]                    @ 4-byte Reload
	ldr	r1, [sp, #12]                   @ 4-byte Reload
	.loc	4 459 33                        @ ../MotorControl/motor.cpp:459:33
	ldr	r2, [sp, #56]
	.loc	4 459 31 is_stmt 0              @ ../MotorControl/motor.cpp:459:31
	str	r2, [sp, #28]
	.loc	4 461 5 is_stmt 1               @ ../MotorControl/motor.cpp:461:5
	bl	_ZN5Motor3armEP15PhaseControlLawILj3EE
	movs	r0, #0
.Ltmp171:
	.loc	4 463 17                        @ ../MotorControl/motor.cpp:463:17
	str	r0, [sp, #20]
	.loc	4 463 10 is_stmt 0              @ ../MotorControl/motor.cpp:463:10
	b	.LBB35_1
.LBB35_1:                               @ =>This Inner Loop Header: Depth=1
.Ltmp172:
	.loc	4 463 24                        @ ../MotorControl/motor.cpp:463:24
	ldr	r0, [sp, #20]
	movw	r1, #1249
.Ltmp173:
	.loc	4 463 5                         @ ../MotorControl/motor.cpp:463:5
	cmp	r0, r1
	bhi	.LBB35_7
	b	.LBB35_2
.LBB35_2:                               @   in Loop: Header=BB35_1 Depth=1
.Ltmp174:
	.loc	4 464 16 is_stmt 1              @ ../MotorControl/motor.cpp:464:16
	ldr	r0, [sp, #8]                    @ 4-byte Reload
	ldr.w	r0, [r0, #136]
	.loc	4 464 23 is_stmt 0              @ ../MotorControl/motor.cpp:464:23
	ldrb.w	r0, [r0, #628]
	.loc	4 464 71                        @ ../MotorControl/motor.cpp:464:71
	cbnz	r0, .LBB35_4
	b	.LBB35_3
.LBB35_3:                               @   in Loop: Header=BB35_1 Depth=1
	.loc	4 464 74                        @ ../MotorControl/motor.cpp:464:74
	ldr	r0, [sp, #8]                    @ 4-byte Reload
	ldr.w	r0, [r0, #136]
	.loc	4 464 81                        @ ../MotorControl/motor.cpp:464:81
	ldr.w	r0, [r0, #344]
	.loc	4 464 88                        @ ../MotorControl/motor.cpp:464:88
	ldrb.w	r0, [r0, #164]
.Ltmp175:
	.loc	4 464 13                        @ ../MotorControl/motor.cpp:464:13
	lsls	r0, r0, #31
	cbnz	r0, .LBB35_5
	b	.LBB35_4
.LBB35_4:
.Ltmp176:
	.loc	4 465 13 is_stmt 1              @ ../MotorControl/motor.cpp:465:13
	b	.LBB35_7
.Ltmp177:
.LBB35_5:                               @   in Loop: Header=BB35_1 Depth=1
	.loc	4 0 13 is_stmt 0                @ ../MotorControl/motor.cpp:0:13
	movs	r0, #1
	.loc	4 467 9 is_stmt 1               @ ../MotorControl/motor.cpp:467:9
	bl	osDelay
	.loc	4 468 5                         @ ../MotorControl/motor.cpp:468:5
	b	.LBB35_6
.Ltmp178:
.LBB35_6:                               @   in Loop: Header=BB35_1 Depth=1
	.loc	4 463 34                        @ ../MotorControl/motor.cpp:463:34
	ldr	r0, [sp, #20]
	adds	r0, #1
	str	r0, [sp, #20]
	.loc	4 463 5 is_stmt 0               @ ../MotorControl/motor.cpp:463:5
	b	.LBB35_1
.Ltmp179:
.LBB35_7:
	.loc	4 470 20 is_stmt 1              @ ../MotorControl/motor.cpp:470:20
	ldr	r0, [sp, #8]                    @ 4-byte Reload
	ldrb.w	r1, [r0, #164]
	.loc	4 470 10 is_stmt 0              @ ../MotorControl/motor.cpp:470:10
	and	r1, r1, #1
	strb.w	r1, [sp, #19]
	movs	r1, #0
	.loc	4 476 5 is_stmt 1               @ ../MotorControl/motor.cpp:476:5
	bl	_ZN5Motor6disarmEPb
	add	r0, sp, #24
	.loc	4 478 44                        @ ../MotorControl/motor.cpp:478:44
	bl	_ZN31InductanceMeasurementControlLaw14get_inductanceEv
	ldr	r0, [sp, #8]                    @ 4-byte Reload
	.loc	4 478 30 is_stmt 0              @ ../MotorControl/motor.cpp:478:30
	vstr	s0, [r0, #44]
.Ltmp180:
	.loc	4 481 19 is_stmt 1              @ ../MotorControl/motor.cpp:481:19
	vldr	s0, [r0, #44]
	vldr	s2, .LCPI35_0
	.loc	4 481 45 is_stmt 0              @ ../MotorControl/motor.cpp:481:45
	vcmp.f32	s0, s2
	vmrs	APSR_nzcv, fpscr
	blt	.LBB35_9
	b	.LBB35_8
.LBB35_8:
	.loc	4 481 56                        @ ../MotorControl/motor.cpp:481:56
	ldr	r0, [sp, #8]                    @ 4-byte Reload
	vldr	s0, [r0, #44]
	vldr	s2, .LCPI35_1
.Ltmp181:
	.loc	4 481 9                         @ ../MotorControl/motor.cpp:481:9
	vcmp.f32	s0, s2
	vmrs	APSR_nzcv, fpscr
	ble	.LBB35_10
	b	.LBB35_9
.LBB35_9:
.Ltmp182:
	.loc	4 482 9 is_stmt 1               @ ../MotorControl/motor.cpp:482:9
	ldr	r0, [sp, #8]                    @ 4-byte Reload
	adds	r0, #152
	movs	r2, #2
	movs	r3, #0
	.loc	4 482 16 is_stmt 0              @ ../MotorControl/motor.cpp:482:16
	str	r3, [sp, #4]                    @ 4-byte Spill
	bl	_ZoRRN10ODriveIntf9MotorIntf5ErrorES1_
                                        @ kill: def $r1 killed $r0
	.loc	4 483 17 is_stmt 1              @ ../MotorControl/motor.cpp:483:17
	ldr	r0, [sp, #4]                    @ 4-byte Reload
	strb.w	r0, [sp, #19]
	.loc	4 484 5                         @ ../MotorControl/motor.cpp:484:5
	b	.LBB35_10
.Ltmp183:
.LBB35_10:
	.loc	4 486 5                         @ ../MotorControl/motor.cpp:486:5
	ldrb.w	r0, [sp, #19]
	and	r0, r0, #1
	.loc	4 486 5 epilogue_begin is_stmt 0 @ ../MotorControl/motor.cpp:486:5
	add	sp, #64
	pop	{r7, pc}
.Ltmp184:
	.p2align	2
@ %bb.11:
	.loc	4 0 5                           @ ../MotorControl/motor.cpp:0:5
.LCPI35_0:
	.long	0x360637bd                      @ float 1.99999999E-6
.LCPI35_1:
	.long	0x3b83126f                      @ float 0.00400000019
.Lfunc_end35:
	.size	_ZN5Motor24measure_phase_inductanceEf, .Lfunc_end35-_ZN5Motor24measure_phase_inductanceEf
	.cfi_endproc
	.cantunwind
	.fnend
                                        @ -- End function
	.section	.text._ZN31InductanceMeasurementControlLawC2Ev,"axG",%progbits,_ZN31InductanceMeasurementControlLawC2Ev,comdat
	.hidden	_ZN31InductanceMeasurementControlLawC2Ev @ -- Begin function _ZN31InductanceMeasurementControlLawC2Ev
	.weak	_ZN31InductanceMeasurementControlLawC2Ev
	.p2align	2
	.type	_ZN31InductanceMeasurementControlLawC2Ev,%function
	.code	16                              @ @_ZN31InductanceMeasurementControlLawC2Ev
	.thumb_func
_ZN31InductanceMeasurementControlLawC2Ev:
.Lfunc_begin36:
	.loc	4 88 0 is_stmt 1                @ ../MotorControl/motor.cpp:88:0
	.fnstart
	.cfi_startproc
@ %bb.0:
	.save	{r7, lr}
	push	{r7, lr}
	.cfi_def_cfa_offset 8
	.cfi_offset lr, -4
	.cfi_offset r7, -8
	.pad	#8
	sub	sp, #8
	.cfi_def_cfa_offset 16
	str	r0, [sp, #4]
	ldr	r0, [sp, #4]
.Ltmp185:
	.loc	4 88 8 prologue_end             @ ../MotorControl/motor.cpp:88:8
	str	r0, [sp]                        @ 4-byte Spill
	bl	_ZN24AlphaBetaFrameControllerC2Ev
	ldr	r0, [sp]                        @ 4-byte Reload
	movw	r1, :lower16:_ZTV31InductanceMeasurementControlLaw
	movt	r1, :upper16:_ZTV31InductanceMeasurementControlLaw
	adds	r1, #8
	str	r1, [r0]
	movs	r1, #0
	.loc	4 137 11                        @ ../MotorControl/motor.cpp:137:11
	str	r1, [r0, #4]
	.loc	4 140 10                        @ ../MotorControl/motor.cpp:140:10
	strb	r1, [r0, #8]
	.loc	4 141 11                        @ ../MotorControl/motor.cpp:141:11
	str	r1, [r0, #12]
	.loc	4 144 14                        @ ../MotorControl/motor.cpp:144:14
	str	r1, [r0, #16]
	movs	r2, #0
	movt	r2, #32704
	.loc	4 145 11                        @ ../MotorControl/motor.cpp:145:11
	str	r2, [r0, #20]
	.loc	4 146 14                        @ ../MotorControl/motor.cpp:146:14
	str	r1, [r0, #24]
	.loc	4 147 11                        @ ../MotorControl/motor.cpp:147:11
	str	r1, [r0, #28]
	.loc	4 88 8 epilogue_begin           @ ../MotorControl/motor.cpp:88:8
	add	sp, #8
	pop	{r7, pc}
.Ltmp186:
.Lfunc_end36:
	.size	_ZN31InductanceMeasurementControlLawC2Ev, .Lfunc_end36-_ZN31InductanceMeasurementControlLawC2Ev
	.cfi_endproc
	.cantunwind
	.fnend
                                        @ -- End function
	.section	.text._ZN31InductanceMeasurementControlLaw14get_inductanceEv,"axG",%progbits,_ZN31InductanceMeasurementControlLaw14get_inductanceEv,comdat
	.hidden	_ZN31InductanceMeasurementControlLaw14get_inductanceEv @ -- Begin function _ZN31InductanceMeasurementControlLaw14get_inductanceEv
	.weak	_ZN31InductanceMeasurementControlLaw14get_inductanceEv
	.p2align	2
	.type	_ZN31InductanceMeasurementControlLaw14get_inductanceEv,%function
	.code	16                              @ @_ZN31InductanceMeasurementControlLaw14get_inductanceEv
	.thumb_func
_ZN31InductanceMeasurementControlLaw14get_inductanceEv:
.Lfunc_begin37:
	.loc	4 129 0                         @ ../MotorControl/motor.cpp:129:0
	.fnstart
	.cfi_startproc
@ %bb.0:
	.save	{r7, lr}
	push	{r7, lr}
	.cfi_def_cfa_offset 8
	.cfi_offset lr, -4
	.cfi_offset r7, -8
	.pad	#16
	sub	sp, #16
	.cfi_def_cfa_offset 24
	str	r0, [sp, #12]
	ldr	r0, [sp, #12]
.Ltmp187:
	.loc	4 132 52 prologue_end           @ ../MotorControl/motor.cpp:132:52
	str	r0, [sp, #4]                    @ 4-byte Spill
	ldr	r2, [r0, #16]
	.loc	4 132 28 is_stmt 0              @ ../MotorControl/motor.cpp:132:28
	ldr	r1, [r0, #24]
	.loc	4 132 50                        @ ../MotorControl/motor.cpp:132:50
	subs	r1, r1, r2
	.loc	4 132 27                        @ ../MotorControl/motor.cpp:132:27
	vmov	s0, r1
	vcvt.f32.u32	s0, s0
	vldr	s2, .LCPI37_0
	.loc	4 132 70                        @ ../MotorControl/motor.cpp:132:70
	vdiv.f32	s0, s0, s2
	.loc	4 132 15                        @ ../MotorControl/motor.cpp:132:15
	vstr	s0, [sp, #8]
	.loc	4 133 25 is_stmt 1              @ ../MotorControl/motor.cpp:133:25
	vldr	s0, [r0, #4]
	.loc	4 133 16 is_stmt 0              @ ../MotorControl/motor.cpp:133:16
	bl	_Z3absB7v180000f
	ldr	r0, [sp, #4]                    @ 4-byte Reload
	.loc	4 133 43                        @ ../MotorControl/motor.cpp:133:43
	vldr	s2, [r0, #28]
	.loc	4 133 53                        @ ../MotorControl/motor.cpp:133:53
	vldr	s4, [sp, #8]
	.loc	4 133 51                        @ ../MotorControl/motor.cpp:133:51
	vdiv.f32	s2, s2, s4
	.loc	4 133 40                        @ ../MotorControl/motor.cpp:133:40
	vdiv.f32	s0, s0, s2
	.loc	4 133 9 epilogue_begin          @ ../MotorControl/motor.cpp:133:9
	add	sp, #16
	pop	{r7, pc}
.Ltmp188:
	.p2align	2
@ %bb.1:
	.loc	4 0 9                           @ ../MotorControl/motor.cpp:0:9
.LCPI37_0:
	.long	0x4d2037a0                      @ float 1.68E+8
.Lfunc_end37:
	.size	_ZN31InductanceMeasurementControlLaw14get_inductanceEv, .Lfunc_end37-_ZN31InductanceMeasurementControlLaw14get_inductanceEv
	.cfi_endproc
	.cantunwind
	.fnend
                                        @ -- End function
	.section	.text._ZN5Motor15run_calibrationEv,"ax",%progbits
	.hidden	_ZN5Motor15run_calibrationEv    @ -- Begin function _ZN5Motor15run_calibrationEv
	.globl	_ZN5Motor15run_calibrationEv
	.p2align	2
	.type	_ZN5Motor15run_calibrationEv,%function
	.code	16                              @ @_ZN5Motor15run_calibrationEv
	.thumb_func
_ZN5Motor15run_calibrationEv:
.Lfunc_begin38:
	.loc	4 493 0 is_stmt 1               @ ../MotorControl/motor.cpp:493:0
	.fnstart
	.cfi_startproc
@ %bb.0:
	.save	{r7, lr}
	push	{r7, lr}
	.cfi_def_cfa_offset 8
	.cfi_offset lr, -4
	.cfi_offset r7, -8
	.pad	#16
	sub	sp, #16
	.cfi_def_cfa_offset 24
	str	r0, [sp, #8]
	ldr	r0, [sp, #8]
.Ltmp189:
	.loc	4 494 41 prologue_end           @ ../MotorControl/motor.cpp:494:41
	str	r0, [sp]                        @ 4-byte Spill
	ldr	r1, [r0, #40]
	.loc	4 494 11 is_stmt 0              @ ../MotorControl/motor.cpp:494:11
	str	r1, [sp, #4]
.Ltmp190:
	.loc	4 495 17 is_stmt 1              @ ../MotorControl/motor.cpp:495:17
	ldrb.w	r0, [r0, #56]
	.loc	4 496 9                         @ ../MotorControl/motor.cpp:496:9
	cbz	r0, .LBB38_2
	b	.LBB38_1
.LBB38_1:
	.loc	4 496 20 is_stmt 0              @ ../MotorControl/motor.cpp:496:20
	ldr	r0, [sp]                        @ 4-byte Reload
	ldrb.w	r0, [r0, #56]
.Ltmp191:
	.loc	4 495 9 is_stmt 1               @ ../MotorControl/motor.cpp:495:9
	cmp	r0, #3
	bne	.LBB38_7
	b	.LBB38_2
.LBB38_2:
.Ltmp192:
	.loc	4 497 47                        @ ../MotorControl/motor.cpp:497:47
	ldr	r0, [sp]                        @ 4-byte Reload
	vldr	s0, [r0, #36]
	.loc	4 497 68 is_stmt 0              @ ../MotorControl/motor.cpp:497:68
	vldr	s1, [sp, #4]
	.loc	4 497 14                        @ ../MotorControl/motor.cpp:497:14
	bl	_ZN5Motor24measure_phase_resistanceEff
.Ltmp193:
	.loc	4 497 13                        @ ../MotorControl/motor.cpp:497:13
	cbnz	r0, .LBB38_4
	b	.LBB38_3
.LBB38_3:
	.loc	4 0 13                          @ ../MotorControl/motor.cpp:0:13
	movs	r0, #0
.Ltmp194:
	.loc	4 498 13 is_stmt 1              @ ../MotorControl/motor.cpp:498:13
	strb.w	r0, [sp, #15]
	b	.LBB38_12
.Ltmp195:
.LBB38_4:
	.loc	4 499 39                        @ ../MotorControl/motor.cpp:499:39
	ldr	r0, [sp]                        @ 4-byte Reload
	vldr	s0, [sp, #4]
	.loc	4 499 14 is_stmt 0              @ ../MotorControl/motor.cpp:499:14
	bl	_ZN5Motor24measure_phase_inductanceEf
.Ltmp196:
	.loc	4 499 13                        @ ../MotorControl/motor.cpp:499:13
	cbnz	r0, .LBB38_6
	b	.LBB38_5
.LBB38_5:
	.loc	4 0 13                          @ ../MotorControl/motor.cpp:0:13
	movs	r0, #0
.Ltmp197:
	.loc	4 500 13 is_stmt 1              @ ../MotorControl/motor.cpp:500:13
	strb.w	r0, [sp, #15]
	b	.LBB38_12
.Ltmp198:
.LBB38_6:
	.loc	4 501 5                         @ ../MotorControl/motor.cpp:501:5
	b	.LBB38_11
.Ltmp199:
.LBB38_7:
	.loc	4 501 24 is_stmt 0              @ ../MotorControl/motor.cpp:501:24
	ldr	r0, [sp]                        @ 4-byte Reload
	ldrb.w	r0, [r0, #56]
.Ltmp200:
	.loc	4 501 16                        @ ../MotorControl/motor.cpp:501:16
	cmp	r0, #2
	bne	.LBB38_9
	b	.LBB38_8
.LBB38_8:
.Ltmp201:
	.loc	4 503 5 is_stmt 1               @ ../MotorControl/motor.cpp:503:5
	b	.LBB38_10
.Ltmp202:
.LBB38_9:
	.loc	4 0 5 is_stmt 0                 @ ../MotorControl/motor.cpp:0:5
	movs	r0, #0
.Ltmp203:
	.loc	4 504 9 is_stmt 1               @ ../MotorControl/motor.cpp:504:9
	strb.w	r0, [sp, #15]
	b	.LBB38_12
.Ltmp204:
.LBB38_10:
	.loc	4 0 9 is_stmt 0                 @ ../MotorControl/motor.cpp:0:9
	b	.LBB38_11
.LBB38_11:
	.loc	4 507 5 is_stmt 1               @ ../MotorControl/motor.cpp:507:5
	ldr	r0, [sp]                        @ 4-byte Reload
	bl	_ZN5Motor31update_current_controller_gainsEv
	ldr	r1, [sp]                        @ 4-byte Reload
	movs	r0, #1
	.loc	4 509 20                        @ ../MotorControl/motor.cpp:509:20
	strb.w	r0, [r1, #166]
	.loc	4 510 5                         @ ../MotorControl/motor.cpp:510:5
	strb.w	r0, [sp, #15]
	b	.LBB38_12
.LBB38_12:
	.loc	4 511 1                         @ ../MotorControl/motor.cpp:511:1
	ldrb.w	r0, [sp, #15]
	.loc	4 511 1 epilogue_begin is_stmt 0 @ ../MotorControl/motor.cpp:511:1
	add	sp, #16
	pop	{r7, pc}
.Ltmp205:
.Lfunc_end38:
	.size	_ZN5Motor15run_calibrationEv, .Lfunc_end38-_ZN5Motor15run_calibrationEv
	.cfi_endproc
	.cantunwind
	.fnend
                                        @ -- End function
	.section	.text._ZN5Motor6updateEj,"ax",%progbits
	.hidden	_ZN5Motor6updateEj              @ -- Begin function _ZN5Motor6updateEj
	.globl	_ZN5Motor6updateEj
	.p2align	2
	.type	_ZN5Motor6updateEj,%function
	.code	16                              @ @_ZN5Motor6updateEj
	.thumb_func
_ZN5Motor6updateEj:
.Lfunc_begin39:
	.loc	4 513 0 is_stmt 1               @ ../MotorControl/motor.cpp:513:0
	.fnstart
	.cfi_startproc
@ %bb.0:
	.save	{r7, lr}
	push	{r7, lr}
	.cfi_def_cfa_offset 8
	.cfi_offset lr, -4
	.cfi_offset r7, -8
	.pad	#208
	sub	sp, #208
	.cfi_def_cfa_offset 216
	str	r0, [sp, #204]
	str	r1, [sp, #200]
	ldr	r0, [sp, #204]
.Ltmp206:
	.loc	4 515 41 prologue_end           @ ../MotorControl/motor.cpp:515:41
	str	r0, [sp, #40]                   @ 4-byte Spill
	add.w	r1, r0, #388
	add	r0, sp, #192
	.loc	4 515 62 is_stmt 0              @ ../MotorControl/motor.cpp:515:62
	str	r0, [sp, #44]                   @ 4-byte Spill
	bl	_ZN9InputPortIfE7presentEv
	ldr	r0, [sp, #44]                   @ 4-byte Reload
.Ltmp207:
	.loc	4 516 23 is_stmt 1              @ ../MotorControl/motor.cpp:516:23
	bl	_ZNKSt3__223__optional_storage_baseIfLb0EE9has_valueB7v180000Ev
.Ltmp208:
	.loc	4 516 9 is_stmt 0               @ ../MotorControl/motor.cpp:516:9
	cbnz	r0, .LBB39_2
	b	.LBB39_1
.LBB39_1:
.Ltmp209:
	.loc	4 517 9 is_stmt 1               @ ../MotorControl/motor.cpp:517:9
	ldr	r0, [sp, #40]                   @ 4-byte Reload
	adds	r0, #152
	mov.w	r2, #268435456
	movs	r3, #0
	.loc	4 517 16 is_stmt 0              @ ../MotorControl/motor.cpp:517:16
	bl	_ZoRRN10ODriveIntf9MotorIntf5ErrorES1_
	.loc	4 518 9 is_stmt 1               @ ../MotorControl/motor.cpp:518:9
	b	.LBB39_33
.Ltmp210:
.LBB39_2:
	.loc	4 520 20                        @ ../MotorControl/motor.cpp:520:20
	ldr	r0, [sp, #40]                   @ 4-byte Reload
	vldr	s0, [r0, #404]
	vstr	s0, [sp, #24]                   @ 4-byte Spill
	add	r0, sp, #192
	.loc	4 520 33 is_stmt 0              @ ../MotorControl/motor.cpp:520:33
	bl	_ZNRSt3__28optionalIfEdeB7v180000Ev
	vldr	s0, [sp, #24]                   @ 4-byte Reload
	mov	r1, r0
	ldr	r0, [sp, #40]                   @ 4-byte Reload
	vldr	s2, [r1]
	.loc	4 520 31                        @ ../MotorControl/motor.cpp:520:31
	vmul.f32	s0, s0, s2
	.loc	4 520 11                        @ ../MotorControl/motor.cpp:520:11
	vstr	s0, [sp, #188]
	.loc	4 523 21 is_stmt 1              @ ../MotorControl/motor.cpp:523:21
	add.w	r1, r0, #420
	add	r0, sp, #168
	.loc	4 523 35 is_stmt 0              @ ../MotorControl/motor.cpp:523:35
	str	r0, [sp, #28]                   @ 4-byte Spill
	bl	_ZN10OutputPortINSt3__24pairIffEEE8previousEv
	movs	r0, #0
	.loc	4 524 40 is_stmt 1              @ ../MotorControl/motor.cpp:524:40
	str	r0, [sp, #156]
	.loc	4 524 46 is_stmt 0              @ ../MotorControl/motor.cpp:524:46
	str	r0, [sp, #152]
	add	r0, sp, #160
	str	r0, [sp, #32]                   @ 4-byte Spill
	add	r1, sp, #156
	add	r2, sp, #152
	.loc	4 524 32                        @ ../MotorControl/motor.cpp:524:32
	bl	_ZNSt3__24pairIffEC2B7v180000IffLi0EEEOT_OT0_
	ldr	r0, [sp, #28]                   @ 4-byte Reload
	ldr	r1, [sp, #32]                   @ 4-byte Reload
	.loc	4 524 23                        @ ../MotorControl/motor.cpp:524:23
	bl	_ZNOSt3__28optionalINS_4pairIffEEE8value_orB7v180000IS2_EES2_OT_
	vstr	s0, [sp, #180]
	vstr	s1, [sp, #184]
	add	r0, sp, #180
	.loc	4 523 11 is_stmt 1              @ ../MotorControl/motor.cpp:523:11
	str	r0, [sp, #36]                   @ 4-byte Spill
	bl	_ZNSt3__23getB7v180000ILj0EffEEONS_13tuple_elementIXT_ENS_4pairIT0_T1_EEE4typeEOS5_
	mov	r1, r0
	ldr	r0, [sp, #36]                   @ 4-byte Reload
	str	r1, [sp, #148]
	.loc	4 523 15 is_stmt 0              @ ../MotorControl/motor.cpp:523:15
	bl	_ZNSt3__23getB7v180000ILj1EffEEONS_13tuple_elementIXT_ENS_4pairIT0_T1_EEE4typeEOS5_
	mov	r1, r0
	ldr	r0, [sp, #40]                   @ 4-byte Reload
	str	r1, [sp, #144]
	.loc	4 526 18 is_stmt 1              @ ../MotorControl/motor.cpp:526:18
	ldr.w	r1, [r0, #136]
	.loc	4 526 25 is_stmt 0              @ ../MotorControl/motor.cpp:526:25
	ldr.w	r1, [r1, #344]
	.loc	4 526 32                        @ ../MotorControl/motor.cpp:526:32
	ldr.w	r1, [r1, #376]
	.loc	4 526 11                        @ ../MotorControl/motor.cpp:526:11
	str	r1, [sp, #140]
.Ltmp211:
	.loc	4 529 10 is_stmt 1              @ ../MotorControl/motor.cpp:529:10
	ldr.w	r0, [r0, #136]
	.loc	4 529 17 is_stmt 0              @ ../MotorControl/motor.cpp:529:17
	ldr.w	r0, [r0, #344]
	.loc	4 529 32                        @ ../MotorControl/motor.cpp:529:32
	ldrb.w	r0, [r0, #56]
	.loc	4 529 70                        @ ../MotorControl/motor.cpp:529:70
	cmp	r0, #3
	bne	.LBB39_8
	b	.LBB39_3
.LBB39_3:
	.loc	4 529 81                        @ ../MotorControl/motor.cpp:529:81
	ldr	r0, [sp, #40]                   @ 4-byte Reload
	ldrb.w	r0, [r0, #96]
.Ltmp212:
	.loc	4 529 9                         @ ../MotorControl/motor.cpp:529:9
	lsls	r0, r0, #31
	cmp	r0, #0
	beq	.LBB39_8
	b	.LBB39_4
.LBB39_4:
.Ltmp213:
	.loc	4 523 15 is_stmt 1              @ ../MotorControl/motor.cpp:523:15
	ldr	r0, [sp, #144]
	.loc	4 530 33                        @ ../MotorControl/motor.cpp:530:33
	vldr	s0, [r0]
	.loc	4 530 24 is_stmt 0              @ ../MotorControl/motor.cpp:530:24
	bl	_Z3absB7v180000f
	.loc	4 530 15                        @ ../MotorControl/motor.cpp:530:15
	vstr	s0, [sp, #136]
	.loc	4 531 22 is_stmt 1              @ ../MotorControl/motor.cpp:531:22
	vldr	s0, [sp, #136]
	.loc	4 523 11                        @ ../MotorControl/motor.cpp:523:11
	ldr	r0, [sp, #148]
	.loc	4 531 31                        @ ../MotorControl/motor.cpp:531:31
	vldr	s2, [r0]
	.loc	4 531 22 is_stmt 0              @ ../MotorControl/motor.cpp:531:22
	vcmp.f32	s0, s2
	vmrs	APSR_nzcv, fpscr
	ble	.LBB39_6
	b	.LBB39_5
.LBB39_5:
	.loc	4 531 44                        @ ../MotorControl/motor.cpp:531:44
	ldr	r0, [sp, #40]                   @ 4-byte Reload
	vldr	s0, [r0, #100]
	vstr	s0, [sp, #20]                   @ 4-byte Spill
	.loc	4 531 22                        @ ../MotorControl/motor.cpp:531:22
	b	.LBB39_7
.LBB39_6:
	.loc	4 531 80                        @ ../MotorControl/motor.cpp:531:80
	ldr	r0, [sp, #40]                   @ 4-byte Reload
	vldr	s0, [r0, #104]
	vstr	s0, [sp, #20]                   @ 4-byte Spill
	.loc	4 531 22                        @ ../MotorControl/motor.cpp:531:22
	b	.LBB39_7
.LBB39_7:
	ldr	r1, [sp, #40]                   @ 4-byte Reload
	vldr	s0, [sp, #20]                   @ 4-byte Reload
	.loc	4 531 15                        @ ../MotorControl/motor.cpp:531:15
	vstr	s0, [sp, #132]
	.loc	4 532 15 is_stmt 1              @ ../MotorControl/motor.cpp:532:15
	vldr	s0, [sp, #132]
	.loc	4 532 23 is_stmt 0              @ ../MotorControl/motor.cpp:532:23
	vldr	s4, [sp, #136]
	.loc	4 523 11 is_stmt 1              @ ../MotorControl/motor.cpp:523:11
	ldr	r0, [sp, #148]
	.loc	4 532 32                        @ ../MotorControl/motor.cpp:532:32
	vldr	s2, [r0]
	.loc	4 532 30 is_stmt 0              @ ../MotorControl/motor.cpp:532:30
	vsub.f32	s4, s4, s2
	.loc	4 532 20                        @ ../MotorControl/motor.cpp:532:20
	vmul.f32	s0, s0, s4
	vldr	s4, .LCPI39_1
	.loc	4 532 12                        @ ../MotorControl/motor.cpp:532:12
	vmul.f32	s0, s0, s4
	vadd.f32	s0, s0, s2
	vstr	s0, [r0]
	.loc	4 523 11 is_stmt 1              @ ../MotorControl/motor.cpp:523:11
	ldr	r0, [sp, #148]
	.loc	4 533 37                        @ ../MotorControl/motor.cpp:533:37
	adds	r1, #92
	.loc	4 533 66 is_stmt 0              @ ../MotorControl/motor.cpp:533:66
	vldr	s0, [sp, #140]
	vldr	s2, .LCPI39_2
	.loc	4 533 64                        @ ../MotorControl/motor.cpp:533:64
	vmul.f32	s0, s0, s2
	.loc	4 533 59                        @ ../MotorControl/motor.cpp:533:59
	vstr	s0, [sp, #128]
	add	r2, sp, #128
	.loc	4 533 14                        @ ../MotorControl/motor.cpp:533:14
	bl	_ZNSt3__25clampB7v180000IfEERKT_S3_S3_S3_
	ldr	r0, [r0]
	.loc	4 523 11 is_stmt 1              @ ../MotorControl/motor.cpp:523:11
	ldr	r1, [sp, #148]
	.loc	4 533 12                        @ ../MotorControl/motor.cpp:533:12
	str	r0, [r1]
	.loc	4 534 5                         @ ../MotorControl/motor.cpp:534:5
	b	.LBB39_9
.Ltmp214:
.LBB39_8:
	.loc	4 523 11                        @ ../MotorControl/motor.cpp:523:11
	ldr	r0, [sp, #148]
	.loc	4 535 30                        @ ../MotorControl/motor.cpp:535:30
	vldr	s0, [sp, #140]
	vldr	s2, .LCPI39_0
	.loc	4 535 34 is_stmt 0              @ ../MotorControl/motor.cpp:535:34
	vnmul.f32	s0, s0, s2
	.loc	4 535 29                        @ ../MotorControl/motor.cpp:535:29
	vstr	s0, [sp, #124]
	.loc	4 535 42                        @ ../MotorControl/motor.cpp:535:42
	vldr	s0, [sp, #140]
	.loc	4 535 46                        @ ../MotorControl/motor.cpp:535:46
	vmul.f32	s0, s0, s2
	.loc	4 535 42                        @ ../MotorControl/motor.cpp:535:42
	vstr	s0, [sp, #120]
	add	r1, sp, #124
	add	r2, sp, #120
	.loc	4 535 14                        @ ../MotorControl/motor.cpp:535:14
	bl	_ZNSt3__25clampB7v180000IfEERKT_S3_S3_S3_
	ldr	r0, [r0]
	.loc	4 523 11 is_stmt 1              @ ../MotorControl/motor.cpp:523:11
	ldr	r1, [sp, #148]
	.loc	4 535 12                        @ ../MotorControl/motor.cpp:535:12
	str	r0, [r1]
	b	.LBB39_9
.Ltmp215:
.LBB39_9:
	.loc	4 539 9                         @ ../MotorControl/motor.cpp:539:9
	ldr	r0, [sp, #40]                   @ 4-byte Reload
	ldr.w	r0, [r0, #136]
	.loc	4 539 16 is_stmt 0              @ ../MotorControl/motor.cpp:539:16
	ldr.w	r0, [r0, #344]
	.loc	4 539 31                        @ ../MotorControl/motor.cpp:539:31
	ldrb.w	r0, [r0, #56]
.Ltmp216:
	.loc	4 539 9                         @ ../MotorControl/motor.cpp:539:9
	cmp	r0, #3
	bne	.LBB39_11
	b	.LBB39_10
.LBB39_10:
.Ltmp217:
	.loc	4 540 14 is_stmt 1              @ ../MotorControl/motor.cpp:540:14
	ldr	r1, [sp, #40]                   @ 4-byte Reload
	vldr	s0, [sp, #188]
	vstr	s0, [sp, #16]                   @ 4-byte Spill
	.loc	4 540 24 is_stmt 0              @ ../MotorControl/motor.cpp:540:24
	ldr.w	r0, [r1, #136]
	.loc	4 540 31                        @ ../MotorControl/motor.cpp:540:31
	ldr.w	r2, [r0, #344]
	.loc	4 540 46                        @ ../MotorControl/motor.cpp:540:46
	vldr	s0, [r2, #52]
	vstr	s0, [sp, #12]                   @ 4-byte Spill
	.loc	4 540 96                        @ ../MotorControl/motor.cpp:540:96
	adds	r0, #220
	.loc	4 540 117                       @ ../MotorControl/motor.cpp:540:117
	adds	r1, #88
	.loc	4 540 64                        @ ../MotorControl/motor.cpp:540:64
	bl	_ZNSt3__23maxB7v180000IfEERKT_S3_S3_
	vldr	s2, [sp, #12]                   @ 4-byte Reload
	vldr	s0, [sp, #16]                   @ 4-byte Reload
	vldr	s4, [r0]
	.loc	4 540 62                        @ ../MotorControl/motor.cpp:540:62
	vmul.f32	s2, s2, s4
	.loc	4 540 21                        @ ../MotorControl/motor.cpp:540:21
	vdiv.f32	s0, s0, s2
	.loc	4 523 15 is_stmt 1              @ ../MotorControl/motor.cpp:523:15
	ldr	r0, [sp, #144]
	.loc	4 540 12                        @ ../MotorControl/motor.cpp:540:12
	vstr	s0, [r0]
	.loc	4 541 5                         @ ../MotorControl/motor.cpp:541:5
	b	.LBB39_12
.Ltmp218:
.LBB39_11:
	.loc	4 542 14                        @ ../MotorControl/motor.cpp:542:14
	ldr	r0, [sp, #40]                   @ 4-byte Reload
	vldr	s0, [sp, #188]
	.loc	4 542 23 is_stmt 0              @ ../MotorControl/motor.cpp:542:23
	ldr.w	r0, [r0, #136]
	.loc	4 542 30                        @ ../MotorControl/motor.cpp:542:30
	ldr.w	r0, [r0, #344]
	.loc	4 542 45                        @ ../MotorControl/motor.cpp:542:45
	vldr	s2, [r0, #52]
	.loc	4 542 21                        @ ../MotorControl/motor.cpp:542:21
	vdiv.f32	s0, s0, s2
	.loc	4 523 15 is_stmt 1              @ ../MotorControl/motor.cpp:523:15
	ldr	r0, [sp, #144]
	.loc	4 542 12                        @ ../MotorControl/motor.cpp:542:12
	vstr	s0, [r0]
	b	.LBB39_12
.Ltmp219:
.LBB39_12:
	.loc	4 0 12 is_stmt 0                @ ../MotorControl/motor.cpp:0:12
	add	r0, sp, #140
	.loc	4 546 24 is_stmt 1              @ ../MotorControl/motor.cpp:546:24
	bl	_Z2SQIfET_RKS0_
	vstr	s0, [sp, #8]                    @ 4-byte Spill
	.loc	4 523 11                        @ ../MotorControl/motor.cpp:523:11
	ldr	r0, [sp, #148]
	.loc	4 546 35                        @ ../MotorControl/motor.cpp:546:35
	bl	_Z2SQIfET_RKS0_
	vmov.f32	s2, s0
	.loc	4 546 33 is_stmt 0              @ ../MotorControl/motor.cpp:546:33
	vldr	s0, [sp, #8]                    @ 4-byte Reload
	vsub.f32	s0, s0, s2
	.loc	4 546 11                        @ ../MotorControl/motor.cpp:546:11
	vstr	s0, [sp, #116]
	.loc	4 547 21 is_stmt 1              @ ../MotorControl/motor.cpp:547:21
	vldr	s0, [sp, #116]
	.loc	4 547 20 is_stmt 0              @ ../MotorControl/motor.cpp:547:20
	vcmp.f32	s0, #0
	vmrs	APSR_nzcv, fpscr
	bgt	.LBB39_14
	b	.LBB39_13
.LBB39_13:
	.loc	4 0 20                          @ ../MotorControl/motor.cpp:0:20
	vldr	s0, .LCPI39_3
	vstr	s0, [sp, #4]                    @ 4-byte Spill
	.loc	4 547 20                        @ ../MotorControl/motor.cpp:547:20
	b	.LBB39_15
.LBB39_14:
	.loc	4 547 55                        @ ../MotorControl/motor.cpp:547:55
	vldr	s0, [sp, #116]
	.loc	4 547 50                        @ ../MotorControl/motor.cpp:547:50
	bl	_ZNSt3__26__math4sqrtB7v180000Ef
	vstr	s0, [sp, #4]                    @ 4-byte Spill
	.loc	4 547 20                        @ ../MotorControl/motor.cpp:547:20
	b	.LBB39_15
.LBB39_15:
	vldr	s0, [sp, #4]                    @ 4-byte Reload
	.loc	4 547 11                        @ ../MotorControl/motor.cpp:547:11
	vstr	s0, [sp, #112]
	.loc	4 523 15 is_stmt 1              @ ../MotorControl/motor.cpp:523:15
	ldr	r0, [sp, #144]
	.loc	4 548 26                        @ ../MotorControl/motor.cpp:548:26
	vldr	s0, [sp, #112]
	.loc	4 548 25 is_stmt 0              @ ../MotorControl/motor.cpp:548:25
	vneg.f32	s0, s0
	vstr	s0, [sp, #108]
	add	r1, sp, #108
	add	r2, sp, #112
	.loc	4 548 10                        @ ../MotorControl/motor.cpp:548:10
	bl	_ZNSt3__25clampB7v180000IfEERKT_S3_S3_S3_
	mov	r1, r0
	ldr	r0, [sp, #40]                   @ 4-byte Reload
	ldr	r1, [r1]
	.loc	4 523 15 is_stmt 1              @ ../MotorControl/motor.cpp:523:15
	ldr	r2, [sp, #144]
	.loc	4 548 8                         @ ../MotorControl/motor.cpp:548:8
	str	r1, [r2]
.Ltmp220:
	.loc	4 550 9                         @ ../MotorControl/motor.cpp:550:9
	ldr.w	r0, [r0, #136]
	.loc	4 550 16 is_stmt 0              @ ../MotorControl/motor.cpp:550:16
	ldr.w	r0, [r0, #344]
	.loc	4 550 31                        @ ../MotorControl/motor.cpp:550:31
	ldrb.w	r0, [r0, #56]
.Ltmp221:
	.loc	4 550 9                         @ ../MotorControl/motor.cpp:550:9
	cmp	r0, #2
	beq	.LBB39_17
	b	.LBB39_16
.LBB39_16:
.Ltmp222:
	.loc	4 523 11 is_stmt 1              @ ../MotorControl/motor.cpp:523:11
	ldr	r1, [sp, #148]
	.loc	4 523 15 is_stmt 0              @ ../MotorControl/motor.cpp:523:15
	ldr	r2, [sp, #144]
	add	r0, sp, #100
	.loc	4 551 25 is_stmt 1              @ ../MotorControl/motor.cpp:551:25
	bl	_ZNSt3__24pairIffEC2B7v180000IRfS3_Li0EEEOT_OT0_
	ldr	r0, [sp, #40]                   @ 4-byte Reload
	.loc	4 551 9 is_stmt 0               @ ../MotorControl/motor.cpp:551:9
	add.w	r0, r0, #420
	.loc	4 551 23                        @ ../MotorControl/motor.cpp:551:23
	vldr	s0, [sp, #100]
	vldr	s1, [sp, #104]
	bl	_ZN10OutputPortINSt3__24pairIffEEEaSES2_
	.loc	4 552 5 is_stmt 1               @ ../MotorControl/motor.cpp:552:5
	b	.LBB39_17
.Ltmp223:
.LBB39_17:
	.loc	4 559 5                         @ ../MotorControl/motor.cpp:559:5
	ldr	r0, [sp, #40]                   @ 4-byte Reload
	ldr.w	r0, [r0, #136]
	add.w	r1, r0, #476
	add	r0, sp, #88
	bl	_ZN16TaskTimerContextC2ER9TaskTimer
	b	.LBB39_18
.LBB39_18:                              @ =>This Inner Loop Header: Depth=1
.Ltmp224:
	.loc	4 559 5 is_stmt 0               @ ../MotorControl/motor.cpp:559:5
	ldrb.w	r0, [sp, #96]
.Ltmp225:
	.loc	4 559 5                         @ ../MotorControl/motor.cpp:559:5
	lsls	r0, r0, #31
	cbz	r0, .LBB39_20
	b	.LBB39_19
.LBB39_19:
	.loc	4 0 5                           @ ../MotorControl/motor.cpp:0:5
	add	r0, sp, #88
.Ltmp226:
	.loc	4 559 5                         @ ../MotorControl/motor.cpp:559:5
	bl	_ZN16TaskTimerContextD2Ev
	b	.LBB39_22
.LBB39_20:                              @   in Loop: Header=BB39_18 Depth=1
	.loc	4 560 9 is_stmt 1               @ ../MotorControl/motor.cpp:560:9
	ldr	r0, [sp, #40]                   @ 4-byte Reload
	ldr.w	r0, [r0, #136]
	.loc	4 560 16 is_stmt 0              @ ../MotorControl/motor.cpp:560:16
	adds	r0, #176
	.loc	4 560 39                        @ ../MotorControl/motor.cpp:560:39
	ldr	r1, [sp, #200]
	.loc	4 560 32                        @ ../MotorControl/motor.cpp:560:32
	bl	_ZN13AcimEstimator6updateEj
	.loc	4 560 9                         @ ../MotorControl/motor.cpp:560:9
	b	.LBB39_21
.LBB39_21:                              @   in Loop: Header=BB39_18 Depth=1
	.loc	4 0 9                           @ ../MotorControl/motor.cpp:0:9
	movs	r0, #1
	.loc	4 559 5 is_stmt 1               @ ../MotorControl/motor.cpp:559:5
	strb.w	r0, [sp, #96]
	b	.LBB39_18
.Ltmp227:
.LBB39_22:
	.loc	4 0 5 is_stmt 0                 @ ../MotorControl/motor.cpp:0:5
	ldr	r0, [sp, #40]                   @ 4-byte Reload
	movs	r1, #0
	.loc	4 562 11 is_stmt 1              @ ../MotorControl/motor.cpp:562:11
	str	r1, [sp, #84]
	.loc	4 563 11                        @ ../MotorControl/motor.cpp:563:11
	str	r1, [sp, #80]
	.loc	4 565 38                        @ ../MotorControl/motor.cpp:565:38
	add.w	r1, r0, #396
	add	r0, sp, #72
	.loc	4 565 53 is_stmt 0              @ ../MotorControl/motor.cpp:565:53
	bl	_ZN9InputPortIfE7presentEv
	ldr	r0, [sp, #40]                   @ 4-byte Reload
.Ltmp228:
	.loc	4 567 17 is_stmt 1              @ ../MotorControl/motor.cpp:567:17
	ldrb.w	r0, [r0, #108]
.Ltmp229:
	.loc	4 567 9 is_stmt 0               @ ../MotorControl/motor.cpp:567:9
	lsls	r0, r0, #31
	cmp	r0, #0
	beq	.LBB39_26
	b	.LBB39_23
.LBB39_23:
	.loc	4 0 9                           @ ../MotorControl/motor.cpp:0:9
	add	r0, sp, #72
.Ltmp230:
	.loc	4 568 24 is_stmt 1              @ ../MotorControl/motor.cpp:568:24
	bl	_ZNKSt3__223__optional_storage_baseIfLb0EE9has_valueB7v180000Ev
.Ltmp231:
	.loc	4 568 13 is_stmt 0              @ ../MotorControl/motor.cpp:568:13
	cbnz	r0, .LBB39_25
	b	.LBB39_24
.LBB39_24:
.Ltmp232:
	.loc	4 569 13 is_stmt 1              @ ../MotorControl/motor.cpp:569:13
	ldr	r0, [sp, #40]                   @ 4-byte Reload
	adds	r0, #152
	mov.w	r2, #134217728
	movs	r3, #0
	.loc	4 569 20 is_stmt 0              @ ../MotorControl/motor.cpp:569:20
	bl	_ZoRRN10ODriveIntf9MotorIntf5ErrorES1_
	.loc	4 570 13 is_stmt 1              @ ../MotorControl/motor.cpp:570:13
	b	.LBB39_33
.Ltmp233:
.LBB39_25:
	.loc	4 0 13 is_stmt 0                @ ../MotorControl/motor.cpp:0:13
	add	r0, sp, #72
	.loc	4 573 15 is_stmt 1              @ ../MotorControl/motor.cpp:573:15
	str	r0, [sp]                        @ 4-byte Spill
	bl	_ZNRSt3__28optionalIfEdeB7v180000Ev
	ldr	r1, [sp, #40]                   @ 4-byte Reload
	mov	r2, r0
	ldr	r0, [sp]                        @ 4-byte Reload
	vldr	s0, [r2]
	.loc	4 573 36 is_stmt 0              @ ../MotorControl/motor.cpp:573:36
	vldr	s2, [r1, #44]
	.loc	4 573 26                        @ ../MotorControl/motor.cpp:573:26
	vmul.f32	s2, s0, s2
	.loc	4 523 15 is_stmt 1              @ ../MotorControl/motor.cpp:523:15
	ldr	r1, [sp, #144]
	.loc	4 573 55                        @ ../MotorControl/motor.cpp:573:55
	vldr	s4, [r1]
	.loc	4 573 12 is_stmt 0              @ ../MotorControl/motor.cpp:573:12
	vldr	s0, [sp, #84]
	vmul.f32	s2, s2, s4
	vsub.f32	s0, s0, s2
	vstr	s0, [sp, #84]
	.loc	4 574 15 is_stmt 1              @ ../MotorControl/motor.cpp:574:15
	bl	_ZNRSt3__28optionalIfEdeB7v180000Ev
	mov	r1, r0
	ldr	r0, [sp, #40]                   @ 4-byte Reload
	vldr	s0, [r1]
	.loc	4 574 36 is_stmt 0              @ ../MotorControl/motor.cpp:574:36
	vldr	s2, [r0, #44]
	.loc	4 574 26                        @ ../MotorControl/motor.cpp:574:26
	vmul.f32	s0, s0, s2
	.loc	4 523 11 is_stmt 1              @ ../MotorControl/motor.cpp:523:11
	ldr	r1, [sp, #148]
	.loc	4 574 55                        @ ../MotorControl/motor.cpp:574:55
	vldr	s4, [r1]
	.loc	4 574 12 is_stmt 0              @ ../MotorControl/motor.cpp:574:12
	vldr	s2, [sp, #80]
	vmul.f32	s0, s0, s4
	vadd.f32	s0, s0, s2
	vstr	s0, [sp, #80]
	.loc	4 575 23 is_stmt 1              @ ../MotorControl/motor.cpp:575:23
	vldr	s0, [r0, #48]
	.loc	4 523 11                        @ ../MotorControl/motor.cpp:523:11
	ldr	r1, [sp, #148]
	.loc	4 575 42                        @ ../MotorControl/motor.cpp:575:42
	vldr	s4, [r1]
	.loc	4 575 12 is_stmt 0              @ ../MotorControl/motor.cpp:575:12
	vldr	s2, [sp, #84]
	vmul.f32	s0, s0, s4
	vadd.f32	s0, s0, s2
	vstr	s0, [sp, #84]
	.loc	4 576 23 is_stmt 1              @ ../MotorControl/motor.cpp:576:23
	vldr	s0, [r0, #48]
	.loc	4 523 15                        @ ../MotorControl/motor.cpp:523:15
	ldr	r0, [sp, #144]
	.loc	4 576 42                        @ ../MotorControl/motor.cpp:576:42
	vldr	s4, [r0]
	.loc	4 576 12 is_stmt 0              @ ../MotorControl/motor.cpp:576:12
	vldr	s2, [sp, #80]
	vmul.f32	s0, s0, s4
	vadd.f32	s0, s0, s2
	vstr	s0, [sp, #80]
	.loc	4 577 5 is_stmt 1               @ ../MotorControl/motor.cpp:577:5
	b	.LBB39_26
.Ltmp234:
.LBB39_26:
	.loc	4 579 17                        @ ../MotorControl/motor.cpp:579:17
	ldr	r0, [sp, #40]                   @ 4-byte Reload
	ldrb.w	r0, [r0, #109]
.Ltmp235:
	.loc	4 579 9 is_stmt 0               @ ../MotorControl/motor.cpp:579:9
	lsls	r0, r0, #31
	cbz	r0, .LBB39_30
	b	.LBB39_27
.LBB39_27:
	.loc	4 0 9                           @ ../MotorControl/motor.cpp:0:9
	add	r0, sp, #72
.Ltmp236:
	.loc	4 580 24 is_stmt 1              @ ../MotorControl/motor.cpp:580:24
	bl	_ZNKSt3__223__optional_storage_baseIfLb0EE9has_valueB7v180000Ev
.Ltmp237:
	.loc	4 580 13 is_stmt 0              @ ../MotorControl/motor.cpp:580:13
	cbnz	r0, .LBB39_29
	b	.LBB39_28
.LBB39_28:
.Ltmp238:
	.loc	4 581 13 is_stmt 1              @ ../MotorControl/motor.cpp:581:13
	ldr	r0, [sp, #40]                   @ 4-byte Reload
	adds	r0, #152
	mov.w	r2, #134217728
	movs	r3, #0
	.loc	4 581 20 is_stmt 0              @ ../MotorControl/motor.cpp:581:20
	bl	_ZoRRN10ODriveIntf9MotorIntf5ErrorES1_
	.loc	4 582 13 is_stmt 1              @ ../MotorControl/motor.cpp:582:13
	b	.LBB39_33
.Ltmp239:
.LBB39_29:
	.loc	4 0 13 is_stmt 0                @ ../MotorControl/motor.cpp:0:13
	add	r0, sp, #72
	.loc	4 585 15 is_stmt 1              @ ../MotorControl/motor.cpp:585:15
	bl	_ZNRSt3__28optionalIfEdeB7v180000Ev
	mov	r1, r0
	ldr	r0, [sp, #40]                   @ 4-byte Reload
	vldr	s0, [r1]
	vldr	s2, .LCPI39_4
	.loc	4 585 26 is_stmt 0              @ ../MotorControl/motor.cpp:585:26
	vmul.f32	s0, s0, s2
	.loc	4 585 69                        @ ../MotorControl/motor.cpp:585:69
	vldr	s4, [r0, #32]
	.loc	4 585 51                        @ ../MotorControl/motor.cpp:585:51
	vldr	s2, [r0, #52]
	.loc	4 585 69                        @ ../MotorControl/motor.cpp:585:69
	vcvt.f32.s32	s4, s4
	.loc	4 585 67                        @ ../MotorControl/motor.cpp:585:67
	vdiv.f32	s4, s2, s4
	.loc	4 585 12                        @ ../MotorControl/motor.cpp:585:12
	vldr	s2, [sp, #80]
	vmul.f32	s0, s0, s4
	vadd.f32	s0, s0, s2
	vstr	s0, [sp, #80]
	.loc	4 586 5 is_stmt 1               @ ../MotorControl/motor.cpp:586:5
	b	.LBB39_30
.Ltmp240:
.LBB39_30:
	.loc	4 588 9                         @ ../MotorControl/motor.cpp:588:9
	ldr	r0, [sp, #40]                   @ 4-byte Reload
	ldr.w	r0, [r0, #136]
	.loc	4 588 16 is_stmt 0              @ ../MotorControl/motor.cpp:588:16
	ldr.w	r0, [r0, #344]
	.loc	4 588 31                        @ ../MotorControl/motor.cpp:588:31
	ldrb.w	r0, [r0, #56]
.Ltmp241:
	.loc	4 588 9                         @ ../MotorControl/motor.cpp:588:9
	cmp	r0, #2
	bne	.LBB39_32
	b	.LBB39_31
.LBB39_31:
.Ltmp242:
	.loc	4 590 26 is_stmt 1              @ ../MotorControl/motor.cpp:590:26
	vldr	s0, [sp, #84]
	.loc	4 523 11                        @ ../MotorControl/motor.cpp:523:11
	ldr	r0, [sp, #148]
	.loc	4 590 31                        @ ../MotorControl/motor.cpp:590:31
	vldr	s2, [r0]
	.loc	4 590 29 is_stmt 0              @ ../MotorControl/motor.cpp:590:29
	vadd.f32	s0, s0, s2
	.loc	4 590 26                        @ ../MotorControl/motor.cpp:590:26
	vstr	s0, [sp, #60]
	.loc	4 590 35                        @ ../MotorControl/motor.cpp:590:35
	vldr	s0, [sp, #80]
	.loc	4 523 15 is_stmt 1              @ ../MotorControl/motor.cpp:523:15
	ldr	r0, [sp, #144]
	.loc	4 590 40                        @ ../MotorControl/motor.cpp:590:40
	vldr	s2, [r0]
	.loc	4 590 38 is_stmt 0              @ ../MotorControl/motor.cpp:590:38
	vadd.f32	s0, s0, s2
	.loc	4 590 35                        @ ../MotorControl/motor.cpp:590:35
	vstr	s0, [sp, #56]
	add	r0, sp, #64
	add	r1, sp, #60
	add	r2, sp, #56
	.loc	4 590 25                        @ ../MotorControl/motor.cpp:590:25
	bl	_ZNSt3__24pairIffEC2B7v180000IffLi0EEEOT_OT0_
	ldr	r0, [sp, #40]                   @ 4-byte Reload
	.loc	4 590 9                         @ ../MotorControl/motor.cpp:590:9
	add.w	r0, r0, #408
	.loc	4 590 23                        @ ../MotorControl/motor.cpp:590:23
	vldr	s0, [sp, #64]
	vldr	s1, [sp, #68]
	bl	_ZN10OutputPortINSt3__24pairIffEEEaSES2_
	.loc	4 591 5 is_stmt 1               @ ../MotorControl/motor.cpp:591:5
	b	.LBB39_33
.Ltmp243:
.LBB39_32:
	.loc	4 0 5 is_stmt 0                 @ ../MotorControl/motor.cpp:0:5
	add	r0, sp, #48
	add	r1, sp, #84
	add	r2, sp, #80
.Ltmp244:
	.loc	4 592 25 is_stmt 1              @ ../MotorControl/motor.cpp:592:25
	bl	_ZNSt3__24pairIffEC2B7v180000IRfS3_Li0EEEOT_OT0_
	ldr	r0, [sp, #40]                   @ 4-byte Reload
	.loc	4 592 9 is_stmt 0               @ ../MotorControl/motor.cpp:592:9
	add.w	r0, r0, #408
	.loc	4 592 23                        @ ../MotorControl/motor.cpp:592:23
	vldr	s0, [sp, #48]
	vldr	s1, [sp, #52]
	bl	_ZN10OutputPortINSt3__24pairIffEEEaSES2_
	b	.LBB39_33
.Ltmp245:
.LBB39_33:
	.loc	4 594 1 epilogue_begin is_stmt 1 @ ../MotorControl/motor.cpp:594:1
	add	sp, #208
	pop	{r7, pc}
.Ltmp246:
	.p2align	2
@ %bb.34:
	.loc	4 0 1 is_stmt 0                 @ ../MotorControl/motor.cpp:0:1
.LCPI39_0:
	.long	0x3f7d70a4                      @ float 0.990000009
.LCPI39_1:
	.long	0x3903126f                      @ float 1.25000006E-4
.LCPI39_2:
	.long	0x3f666666                      @ float 0.899999976
.LCPI39_3:
	.long	0x00000000                      @ float 0
.LCPI39_4:
	.long	0x3f2aaaab                      @ float 0.666666686
.Lfunc_end39:
	.size	_ZN5Motor6updateEj, .Lfunc_end39-_ZN5Motor6updateEj
	.cfi_endproc
	.cantunwind
	.fnend
                                        @ -- End function
	.section	.text._ZN9InputPortIfE7presentEv,"axG",%progbits,_ZN9InputPortIfE7presentEv,comdat
	.hidden	_ZN9InputPortIfE7presentEv      @ -- Begin function _ZN9InputPortIfE7presentEv
	.weak	_ZN9InputPortIfE7presentEv
	.p2align	2
	.type	_ZN9InputPortIfE7presentEv,%function
	.code	16                              @ @_ZN9InputPortIfE7presentEv
	.thumb_func
_ZN9InputPortIfE7presentEv:
.Lfunc_begin40:
	.loc	22 137 0 is_stmt 1              @ ../../Firmware\MotorControl/component.hpp:137:0
	.fnstart
	.cfi_startproc
@ %bb.0:
	.save	{r7, lr}
	push	{r7, lr}
	.cfi_def_cfa_offset 8
	.cfi_offset lr, -4
	.cfi_offset r7, -8
	.pad	#32
	sub	sp, #32
	.cfi_def_cfa_offset 40
	str	r0, [sp, #4]                    @ 4-byte Spill
	str	r1, [sp, #28]
	ldr	r0, [sp, #28]
.Ltmp247:
	.loc	22 138 22 prologue_end          @ ../../Firmware\MotorControl/component.hpp:138:22
	str	r0, [sp, #8]                    @ 4-byte Spill
	bl	_ZNKSt3__27variantIJfPfP10OutputPortIfEEE5indexB7v180000Ev
.Ltmp248:
	.loc	22 138 13 is_stmt 0             @ ../../Firmware\MotorControl/component.hpp:138:13
	cmp	r0, #2
	bne	.LBB40_5
	b	.LBB40_1
.LBB40_1:
.Ltmp249:
	.loc	22 139 34 is_stmt 1             @ ../../Firmware\MotorControl/component.hpp:139:34
	ldr	r0, [sp, #8]                    @ 4-byte Reload
	bl	_ZNSt3__23getB7v180000ILj2EJfPfP10OutputPortIfEEEERNS_19variant_alternativeIXT_ENS_7variantIJDpT0_EEEE4typeERS9_
	ldr	r0, [r0]
	.loc	22 139 28 is_stmt 0             @ ../../Firmware\MotorControl/component.hpp:139:28
	str	r0, [sp, #24]
	.loc	22 140 20 is_stmt 1             @ ../../Firmware\MotorControl/component.hpp:140:20
	ldr	r0, [sp, #24]
	cbz	r0, .LBB40_3
	b	.LBB40_2
.LBB40_2:
	.loc	22 140 26 is_stmt 0             @ ../../Firmware\MotorControl/component.hpp:140:26
	ldr	r0, [sp, #4]                    @ 4-byte Reload
	ldr	r1, [sp, #24]
	.loc	22 140 31                       @ ../../Firmware\MotorControl/component.hpp:140:31
	bl	_ZN10OutputPortIfE7presentEv
	.loc	22 140 20                       @ ../../Firmware\MotorControl/component.hpp:140:20
	b	.LBB40_4
.LBB40_3:
	.loc	22 140 43                       @ ../../Firmware\MotorControl/component.hpp:140:43
	ldr	r0, [sp, #4]                    @ 4-byte Reload
	bl	_ZNSt3__28optionalIfEC2B7v180000ENS_9nullopt_tE
	.loc	22 140 20                       @ ../../Firmware\MotorControl/component.hpp:140:20
	b	.LBB40_4
.LBB40_4:
	.loc	22 140 13                       @ ../../Firmware\MotorControl/component.hpp:140:13
	b	.LBB40_11
.Ltmp250:
.LBB40_5:
	.loc	22 141 29 is_stmt 1             @ ../../Firmware\MotorControl/component.hpp:141:29
	ldr	r0, [sp, #8]                    @ 4-byte Reload
	bl	_ZNKSt3__27variantIJfPfP10OutputPortIfEEE5indexB7v180000Ev
.Ltmp251:
	.loc	22 141 20 is_stmt 0             @ ../../Firmware\MotorControl/component.hpp:141:20
	cmp	r0, #1
	bne	.LBB40_10
	b	.LBB40_6
.LBB40_6:
.Ltmp252:
	.loc	22 142 22 is_stmt 1             @ ../../Firmware\MotorControl/component.hpp:142:22
	ldr	r0, [sp, #8]                    @ 4-byte Reload
	bl	_ZNSt3__23getB7v180000ILj1EJfPfP10OutputPortIfEEEERNS_19variant_alternativeIXT_ENS_7variantIJDpT0_EEEE4typeERS9_
	ldr	r0, [r0]
	.loc	22 142 16 is_stmt 0             @ ../../Firmware\MotorControl/component.hpp:142:16
	str	r0, [sp, #16]
	.loc	22 143 20 is_stmt 1             @ ../../Firmware\MotorControl/component.hpp:143:20
	ldr	r0, [sp, #16]
	cbz	r0, .LBB40_8
	b	.LBB40_7
.LBB40_7:
	.loc	22 143 46 is_stmt 0             @ ../../Firmware\MotorControl/component.hpp:143:46
	ldr	r0, [sp, #4]                    @ 4-byte Reload
	ldr	r1, [sp, #16]
	.loc	22 143 26                       @ ../../Firmware\MotorControl/component.hpp:143:26
	bl	_ZNSt3__213make_optionalB7v180000IRfEENS_8optionalIu7__decayIT_EEEOS3_
	.loc	22 143 20                       @ ../../Firmware\MotorControl/component.hpp:143:20
	b	.LBB40_9
.LBB40_8:
	.loc	22 143 53                       @ ../../Firmware\MotorControl/component.hpp:143:53
	ldr	r0, [sp, #4]                    @ 4-byte Reload
	bl	_ZNSt3__28optionalIfEC2B7v180000ENS_9nullopt_tE
	.loc	22 143 20                       @ ../../Firmware\MotorControl/component.hpp:143:20
	b	.LBB40_9
.LBB40_9:
	.loc	22 143 13                       @ ../../Firmware\MotorControl/component.hpp:143:13
	b	.LBB40_11
.Ltmp253:
.LBB40_10:
	.loc	22 145 20 is_stmt 1             @ ../../Firmware\MotorControl/component.hpp:145:20
	ldr	r0, [sp, #8]                    @ 4-byte Reload
	bl	_ZNSt3__23getB7v180000ILj0EJfPfP10OutputPortIfEEEERNS_19variant_alternativeIXT_ENS_7variantIJDpT0_EEEE4typeERS9_
	mov	r1, r0
	ldr	r0, [sp, #4]                    @ 4-byte Reload
	bl	_ZNSt3__28optionalIfEC2B7v180000IRfLi0EEEOT_
	.loc	22 145 13 is_stmt 0             @ ../../Firmware\MotorControl/component.hpp:145:13
	b	.LBB40_11
.Ltmp254:
.LBB40_11:
	.loc	22 147 5 epilogue_begin is_stmt 1 @ ../../Firmware\MotorControl/component.hpp:147:5
	add	sp, #32
	pop	{r7, pc}
.Ltmp255:
.Lfunc_end40:
	.size	_ZN9InputPortIfE7presentEv, .Lfunc_end40-_ZN9InputPortIfE7presentEv
	.cfi_endproc
	.cantunwind
	.fnend
                                        @ -- End function
	.section	.text._ZNKSt3__223__optional_storage_baseIfLb0EE9has_valueB7v180000Ev,"axG",%progbits,_ZNKSt3__223__optional_storage_baseIfLb0EE9has_valueB7v180000Ev,comdat
	.hidden	_ZNKSt3__223__optional_storage_baseIfLb0EE9has_valueB7v180000Ev @ -- Begin function _ZNKSt3__223__optional_storage_baseIfLb0EE9has_valueB7v180000Ev
	.weak	_ZNKSt3__223__optional_storage_baseIfLb0EE9has_valueB7v180000Ev
	.p2align	2
	.type	_ZNKSt3__223__optional_storage_baseIfLb0EE9has_valueB7v180000Ev,%function
	.code	16                              @ @_ZNKSt3__223__optional_storage_baseIfLb0EE9has_valueB7v180000Ev
	.thumb_func
_ZNKSt3__223__optional_storage_baseIfLb0EE9has_valueB7v180000Ev:
.Lfunc_begin41:
	.loc	6 386 0                         @ D:\Embed\MDK\MDK\ARM\ARMCompilerV621\Bin\..\include\libcxx\optional:386:0
	.fnstart
	.cfi_startproc
@ %bb.0:
	.pad	#4
	sub	sp, #4
	.cfi_def_cfa_offset 4
	str	r0, [sp]
	ldr	r0, [sp]
.Ltmp256:
	.loc	6 387 9 prologue_end            @ D:\Embed\MDK\MDK\ARM\ARMCompilerV621\Bin\..\include\libcxx\optional:387:9
	ldrb	r0, [r0, #4]
	and	r0, r0, #1
	.loc	6 387 9 epilogue_begin is_stmt 0 @ D:\Embed\MDK\MDK\ARM\ARMCompilerV621\Bin\..\include\libcxx\optional:387:9
	add	sp, #4
	bx	lr
.Ltmp257:
.Lfunc_end41:
	.size	_ZNKSt3__223__optional_storage_baseIfLb0EE9has_valueB7v180000Ev, .Lfunc_end41-_ZNKSt3__223__optional_storage_baseIfLb0EE9has_valueB7v180000Ev
	.cfi_endproc
	.cantunwind
	.fnend
                                        @ -- End function
	.section	.text._ZNRSt3__28optionalIfEdeB7v180000Ev,"axG",%progbits,_ZNRSt3__28optionalIfEdeB7v180000Ev,comdat
	.hidden	_ZNRSt3__28optionalIfEdeB7v180000Ev @ -- Begin function _ZNRSt3__28optionalIfEdeB7v180000Ev
	.weak	_ZNRSt3__28optionalIfEdeB7v180000Ev
	.p2align	2
	.type	_ZNRSt3__28optionalIfEdeB7v180000Ev,%function
	.code	16                              @ @_ZNRSt3__28optionalIfEdeB7v180000Ev
	.thumb_func
_ZNRSt3__28optionalIfEdeB7v180000Ev:
.Lfunc_begin42:
	.loc	6 1026 0 is_stmt 1              @ D:\Embed\MDK\MDK\ARM\ARMCompilerV621\Bin\..\include\libcxx\optional:1026:0
	.fnstart
	.cfi_startproc
@ %bb.0:
	.save	{r7, lr}
	push	{r7, lr}
	.cfi_def_cfa_offset 8
	.cfi_offset lr, -4
	.cfi_offset r7, -8
	.pad	#8
	sub	sp, #8
	.cfi_def_cfa_offset 16
	str	r0, [sp, #4]
	ldr	r0, [sp, #4]
.Ltmp258:
	.loc	6 1028 22 prologue_end          @ D:\Embed\MDK\MDK\ARM\ARMCompilerV621\Bin\..\include\libcxx\optional:1028:22
	bl	_ZNRSt3__223__optional_storage_baseIfLb0EE5__getB7v180000Ev
	.loc	6 1028 9 epilogue_begin is_stmt 0 @ D:\Embed\MDK\MDK\ARM\ARMCompilerV621\Bin\..\include\libcxx\optional:1028:9
	add	sp, #8
	pop	{r7, pc}
.Ltmp259:
.Lfunc_end42:
	.size	_ZNRSt3__28optionalIfEdeB7v180000Ev, .Lfunc_end42-_ZNRSt3__28optionalIfEdeB7v180000Ev
	.cfi_endproc
	.cantunwind
	.fnend
                                        @ -- End function
	.section	.text._ZN10OutputPortINSt3__24pairIffEEE8previousEv,"axG",%progbits,_ZN10OutputPortINSt3__24pairIffEEE8previousEv,comdat
	.hidden	_ZN10OutputPortINSt3__24pairIffEEE8previousEv @ -- Begin function _ZN10OutputPortINSt3__24pairIffEEE8previousEv
	.weak	_ZN10OutputPortINSt3__24pairIffEEE8previousEv
	.p2align	2
	.type	_ZN10OutputPortINSt3__24pairIffEEE8previousEv,%function
	.code	16                              @ @_ZN10OutputPortINSt3__24pairIffEEE8previousEv
	.thumb_func
_ZN10OutputPortINSt3__24pairIffEEE8previousEv:
.Lfunc_begin43:
	.loc	22 88 0 is_stmt 1               @ ../../Firmware\MotorControl/component.hpp:88:0
	.fnstart
	.cfi_startproc
@ %bb.0:
	.save	{r7, lr}
	push	{r7, lr}
	.cfi_def_cfa_offset 8
	.cfi_offset lr, -4
	.cfi_offset r7, -8
	.pad	#16
	sub	sp, #16
	.cfi_def_cfa_offset 24
	str	r0, [sp]                        @ 4-byte Spill
	str	r1, [sp, #12]
	ldr	r0, [sp, #12]
.Ltmp260:
	.loc	22 89 13 prologue_end           @ ../../Firmware\MotorControl/component.hpp:89:13
	str	r0, [sp, #4]                    @ 4-byte Spill
	ldr	r0, [r0]
.Ltmp261:
	.loc	22 89 13 is_stmt 0              @ ../../Firmware\MotorControl/component.hpp:89:13
	cmp	r0, #1
	bne	.LBB43_2
	b	.LBB43_1
.LBB43_1:
.Ltmp262:
	.loc	22 90 20 is_stmt 1              @ ../../Firmware\MotorControl/component.hpp:90:20
	ldr	r0, [sp]                        @ 4-byte Reload
	ldr	r1, [sp, #4]                    @ 4-byte Reload
	adds	r1, #4
	bl	_ZNSt3__28optionalINS_4pairIffEEEC2B7v180000IRS2_Li0EEEOT_
	.loc	22 90 13 is_stmt 0              @ ../../Firmware\MotorControl/component.hpp:90:13
	b	.LBB43_3
.Ltmp263:
.LBB43_2:
	.loc	22 92 20 is_stmt 1              @ ../../Firmware\MotorControl/component.hpp:92:20
	ldr	r0, [sp]                        @ 4-byte Reload
	bl	_ZNSt3__28optionalINS_4pairIffEEEC2B7v180000ENS_9nullopt_tE
	.loc	22 92 13 is_stmt 0              @ ../../Firmware\MotorControl/component.hpp:92:13
	b	.LBB43_3
.Ltmp264:
.LBB43_3:
	.loc	22 94 5 epilogue_begin is_stmt 1 @ ../../Firmware\MotorControl/component.hpp:94:5
	add	sp, #16
	pop	{r7, pc}
.Ltmp265:
.Lfunc_end43:
	.size	_ZN10OutputPortINSt3__24pairIffEEE8previousEv, .Lfunc_end43-_ZN10OutputPortINSt3__24pairIffEEE8previousEv
	.cfi_endproc
	.cantunwind
	.fnend
                                        @ -- End function
	.section	.text._ZNOSt3__28optionalINS_4pairIffEEE8value_orB7v180000IS2_EES2_OT_,"axG",%progbits,_ZNOSt3__28optionalINS_4pairIffEEE8value_orB7v180000IS2_EES2_OT_,comdat
	.hidden	_ZNOSt3__28optionalINS_4pairIffEEE8value_orB7v180000IS2_EES2_OT_ @ -- Begin function _ZNOSt3__28optionalINS_4pairIffEEE8value_orB7v180000IS2_EES2_OT_
	.weak	_ZNOSt3__28optionalINS_4pairIffEEE8value_orB7v180000IS2_EES2_OT_
	.p2align	2
	.type	_ZNOSt3__28optionalINS_4pairIffEEE8value_orB7v180000IS2_EES2_OT_,%function
	.code	16                              @ @_ZNOSt3__28optionalINS_4pairIffEEE8value_orB7v180000IS2_EES2_OT_
	.thumb_func
_ZNOSt3__28optionalINS_4pairIffEEE8value_orB7v180000IS2_EES2_OT_:
.Lfunc_begin44:
	.loc	6 1106 0                        @ D:\Embed\MDK\MDK\ARM\ARMCompilerV621\Bin\..\include\libcxx\optional:1106:0
	.fnstart
	.cfi_startproc
@ %bb.0:
	.save	{r7, lr}
	push	{r7, lr}
	.cfi_def_cfa_offset 8
	.cfi_offset lr, -4
	.cfi_offset r7, -8
	.pad	#24
	sub	sp, #24
	.cfi_def_cfa_offset 32
	str	r0, [sp, #12]
	str	r1, [sp, #8]
	ldr	r0, [sp, #12]
.Ltmp266:
	.loc	6 1111 22 prologue_end          @ D:\Embed\MDK\MDK\ARM\ARMCompilerV621\Bin\..\include\libcxx\optional:1111:22
	str	r0, [sp, #4]                    @ 4-byte Spill
	bl	_ZNKSt3__223__optional_storage_baseINS_4pairIffEELb0EE9has_valueB7v180000Ev
	.loc	6 1111 16 is_stmt 0             @ D:\Embed\MDK\MDK\ARM\ARMCompilerV621\Bin\..\include\libcxx\optional:1111:16
	cbz	r0, .LBB44_2
	b	.LBB44_1
.LBB44_1:
	.loc	6 1111 54                       @ D:\Embed\MDK\MDK\ARM\ARMCompilerV621\Bin\..\include\libcxx\optional:1111:54
	ldr	r0, [sp, #4]                    @ 4-byte Reload
	bl	_ZNRSt3__223__optional_storage_baseINS_4pairIffEELb0EE5__getB7v180000Ev
	mov	r1, r0
	.loc	6 1111 36                       @ D:\Embed\MDK\MDK\ARM\ARMCompilerV621\Bin\..\include\libcxx\optional:1111:36
	ldr	r0, [r1]
	ldr	r1, [r1, #4]
	str	r1, [sp, #20]
	str	r0, [sp, #16]
	.loc	6 1111 16                       @ D:\Embed\MDK\MDK\ARM\ARMCompilerV621\Bin\..\include\libcxx\optional:1111:16
	b	.LBB44_3
.LBB44_2:
	.loc	6 1112 79 is_stmt 1             @ D:\Embed\MDK\MDK\ARM\ARMCompilerV621\Bin\..\include\libcxx\optional:1112:79
	ldr	r1, [sp, #8]
	.loc	6 1112 35 is_stmt 0             @ D:\Embed\MDK\MDK\ARM\ARMCompilerV621\Bin\..\include\libcxx\optional:1112:35
	ldr	r0, [r1]
	ldr	r1, [r1, #4]
	str	r1, [sp, #20]
	str	r0, [sp, #16]
	.loc	6 1111 16 is_stmt 1             @ D:\Embed\MDK\MDK\ARM\ARMCompilerV621\Bin\..\include\libcxx\optional:1111:16
	b	.LBB44_3
.LBB44_3:
	.loc	6 1111 9 is_stmt 0              @ D:\Embed\MDK\MDK\ARM\ARMCompilerV621\Bin\..\include\libcxx\optional:1111:9
	vldr	s0, [sp, #16]
	vldr	s1, [sp, #20]
	.loc	6 1111 9 epilogue_begin         @ D:\Embed\MDK\MDK\ARM\ARMCompilerV621\Bin\..\include\libcxx\optional:1111:9
	add	sp, #24
	pop	{r7, pc}
.Ltmp267:
.Lfunc_end44:
	.size	_ZNOSt3__28optionalINS_4pairIffEEE8value_orB7v180000IS2_EES2_OT_, .Lfunc_end44-_ZNOSt3__28optionalINS_4pairIffEEE8value_orB7v180000IS2_EES2_OT_
	.cfi_endproc
	.cantunwind
	.fnend
                                        @ -- End function
	.section	.text._ZNSt3__23getB7v180000ILj0EffEEONS_13tuple_elementIXT_ENS_4pairIT0_T1_EEE4typeEOS5_,"axG",%progbits,_ZNSt3__23getB7v180000ILj0EffEEONS_13tuple_elementIXT_ENS_4pairIT0_T1_EEE4typeEOS5_,comdat
	.hidden	_ZNSt3__23getB7v180000ILj0EffEEONS_13tuple_elementIXT_ENS_4pairIT0_T1_EEE4typeEOS5_ @ -- Begin function _ZNSt3__23getB7v180000ILj0EffEEONS_13tuple_elementIXT_ENS_4pairIT0_T1_EEE4typeEOS5_
	.weak	_ZNSt3__23getB7v180000ILj0EffEEONS_13tuple_elementIXT_ENS_4pairIT0_T1_EEE4typeEOS5_
	.p2align	2
	.type	_ZNSt3__23getB7v180000ILj0EffEEONS_13tuple_elementIXT_ENS_4pairIT0_T1_EEE4typeEOS5_,%function
	.code	16                              @ @_ZNSt3__23getB7v180000ILj0EffEEONS_13tuple_elementIXT_ENS_4pairIT0_T1_EEE4typeEOS5_
	.thumb_func
_ZNSt3__23getB7v180000ILj0EffEEONS_13tuple_elementIXT_ENS_4pairIT0_T1_EEE4typeEOS5_:
.Lfunc_begin45:
	.loc	14 808 0 is_stmt 1              @ D:\Embed\MDK\MDK\ARM\ARMCompilerV621\Bin\..\include\libcxx\__utility/pair.h:808:0
	.fnstart
	.cfi_startproc
@ %bb.0:
	.save	{r7, lr}
	push	{r7, lr}
	.cfi_def_cfa_offset 8
	.cfi_offset lr, -4
	.cfi_offset r7, -8
	.pad	#8
	sub	sp, #8
	.cfi_def_cfa_offset 16
	str	r0, [sp, #4]
.Ltmp268:
	.loc	14 809 43 prologue_end          @ D:\Embed\MDK\MDK\ARM\ARMCompilerV621\Bin\..\include\libcxx\__utility/pair.h:809:43
	ldr	r0, [sp, #4]
	.loc	14 809 12 is_stmt 0             @ D:\Embed\MDK\MDK\ARM\ARMCompilerV621\Bin\..\include\libcxx\__utility/pair.h:809:12
	bl	_ZNSt3__210__get_pairILj0EE3getB7v180000IffEEOT_ONS_4pairIS3_T0_EE
	.loc	14 809 5 epilogue_begin         @ D:\Embed\MDK\MDK\ARM\ARMCompilerV621\Bin\..\include\libcxx\__utility/pair.h:809:5
	add	sp, #8
	pop	{r7, pc}
.Ltmp269:
.Lfunc_end45:
	.size	_ZNSt3__23getB7v180000ILj0EffEEONS_13tuple_elementIXT_ENS_4pairIT0_T1_EEE4typeEOS5_, .Lfunc_end45-_ZNSt3__23getB7v180000ILj0EffEEONS_13tuple_elementIXT_ENS_4pairIT0_T1_EEE4typeEOS5_
	.cfi_endproc
	.cantunwind
	.fnend
                                        @ -- End function
	.section	.text._ZNSt3__23getB7v180000ILj1EffEEONS_13tuple_elementIXT_ENS_4pairIT0_T1_EEE4typeEOS5_,"axG",%progbits,_ZNSt3__23getB7v180000ILj1EffEEONS_13tuple_elementIXT_ENS_4pairIT0_T1_EEE4typeEOS5_,comdat
	.hidden	_ZNSt3__23getB7v180000ILj1EffEEONS_13tuple_elementIXT_ENS_4pairIT0_T1_EEE4typeEOS5_ @ -- Begin function _ZNSt3__23getB7v180000ILj1EffEEONS_13tuple_elementIXT_ENS_4pairIT0_T1_EEE4typeEOS5_
	.weak	_ZNSt3__23getB7v180000ILj1EffEEONS_13tuple_elementIXT_ENS_4pairIT0_T1_EEE4typeEOS5_
	.p2align	2
	.type	_ZNSt3__23getB7v180000ILj1EffEEONS_13tuple_elementIXT_ENS_4pairIT0_T1_EEE4typeEOS5_,%function
	.code	16                              @ @_ZNSt3__23getB7v180000ILj1EffEEONS_13tuple_elementIXT_ENS_4pairIT0_T1_EEE4typeEOS5_
	.thumb_func
_ZNSt3__23getB7v180000ILj1EffEEONS_13tuple_elementIXT_ENS_4pairIT0_T1_EEE4typeEOS5_:
.Lfunc_begin46:
	.loc	14 808 0 is_stmt 1              @ D:\Embed\MDK\MDK\ARM\ARMCompilerV621\Bin\..\include\libcxx\__utility/pair.h:808:0
	.fnstart
	.cfi_startproc
@ %bb.0:
	.save	{r7, lr}
	push	{r7, lr}
	.cfi_def_cfa_offset 8
	.cfi_offset lr, -4
	.cfi_offset r7, -8
	.pad	#8
	sub	sp, #8
	.cfi_def_cfa_offset 16
	str	r0, [sp, #4]
.Ltmp270:
	.loc	14 809 43 prologue_end          @ D:\Embed\MDK\MDK\ARM\ARMCompilerV621\Bin\..\include\libcxx\__utility/pair.h:809:43
	ldr	r0, [sp, #4]
	.loc	14 809 12 is_stmt 0             @ D:\Embed\MDK\MDK\ARM\ARMCompilerV621\Bin\..\include\libcxx\__utility/pair.h:809:12
	bl	_ZNSt3__210__get_pairILj1EE3getB7v180000IffEEOT0_ONS_4pairIT_S3_EE
	.loc	14 809 5 epilogue_begin         @ D:\Embed\MDK\MDK\ARM\ARMCompilerV621\Bin\..\include\libcxx\__utility/pair.h:809:5
	add	sp, #8
	pop	{r7, pc}
.Ltmp271:
.Lfunc_end46:
	.size	_ZNSt3__23getB7v180000ILj1EffEEONS_13tuple_elementIXT_ENS_4pairIT0_T1_EEE4typeEOS5_, .Lfunc_end46-_ZNSt3__23getB7v180000ILj1EffEEONS_13tuple_elementIXT_ENS_4pairIT0_T1_EEE4typeEOS5_
	.cfi_endproc
	.cantunwind
	.fnend
                                        @ -- End function
	.section	.text._ZNSt3__23maxB7v180000IfEERKT_S3_S3_,"axG",%progbits,_ZNSt3__23maxB7v180000IfEERKT_S3_S3_,comdat
	.hidden	_ZNSt3__23maxB7v180000IfEERKT_S3_S3_ @ -- Begin function _ZNSt3__23maxB7v180000IfEERKT_S3_S3_
	.weak	_ZNSt3__23maxB7v180000IfEERKT_S3_S3_
	.p2align	2
	.type	_ZNSt3__23maxB7v180000IfEERKT_S3_S3_,%function
	.code	16                              @ @_ZNSt3__23maxB7v180000IfEERKT_S3_S3_
	.thumb_func
_ZNSt3__23maxB7v180000IfEERKT_S3_S3_:
.Lfunc_begin47:
	.file	31 "D:\\Embed\\MDK\\MDK\\ARM\\ARMCompilerV621\\Bin\\..\\include\\libcxx\\__algorithm" "max.h"
	.loc	31 41 0 is_stmt 1               @ D:\Embed\MDK\MDK\ARM\ARMCompilerV621\Bin\..\include\libcxx\__algorithm/max.h:41:0
	.fnstart
	.cfi_startproc
@ %bb.0:
	.save	{r7, lr}
	push	{r7, lr}
	.cfi_def_cfa_offset 8
	.cfi_offset lr, -4
	.cfi_offset r7, -8
	.pad	#16
	sub	sp, #16
	.cfi_def_cfa_offset 24
	str	r0, [sp, #12]
	str	r1, [sp, #8]
.Ltmp272:
	.loc	31 42 23 prologue_end           @ D:\Embed\MDK\MDK\ARM\ARMCompilerV621\Bin\..\include\libcxx\__algorithm/max.h:42:23
	ldr	r0, [sp, #12]
	.loc	31 42 28 is_stmt 0              @ D:\Embed\MDK\MDK\ARM\ARMCompilerV621\Bin\..\include\libcxx\__algorithm/max.h:42:28
	ldr	r1, [sp, #8]
	.loc	31 42 12                        @ D:\Embed\MDK\MDK\ARM\ARMCompilerV621\Bin\..\include\libcxx\__algorithm/max.h:42:12
	bl	_ZNSt3__23maxB7v180000IfNS_6__lessIvvEEEERKT_S5_S5_T0_
	.loc	31 42 5 epilogue_begin          @ D:\Embed\MDK\MDK\ARM\ARMCompilerV621\Bin\..\include\libcxx\__algorithm/max.h:42:5
	add	sp, #16
	pop	{r7, pc}
.Ltmp273:
.Lfunc_end47:
	.size	_ZNSt3__23maxB7v180000IfEERKT_S3_S3_, .Lfunc_end47-_ZNSt3__23maxB7v180000IfEERKT_S3_S3_
	.cfi_endproc
	.cantunwind
	.fnend
                                        @ -- End function
	.section	.text._Z2SQIfET_RKS0_,"axG",%progbits,_Z2SQIfET_RKS0_,comdat
	.hidden	_Z2SQIfET_RKS0_                 @ -- Begin function _Z2SQIfET_RKS0_
	.weak	_Z2SQIfET_RKS0_
	.p2align	2
	.type	_Z2SQIfET_RKS0_,%function
	.code	16                              @ @_Z2SQIfET_RKS0_
	.thumb_func
_Z2SQIfET_RKS0_:
.Lfunc_begin48:
	.loc	2 84 0 is_stmt 1                @ ../../Firmware\MotorControl/utils.hpp:84:0
	.fnstart
	.cfi_startproc
@ %bb.0:
	.pad	#4
	sub	sp, #4
	.cfi_def_cfa_offset 4
	str	r0, [sp]
.Ltmp274:
	.loc	2 85 12 prologue_end            @ ../../Firmware\MotorControl/utils.hpp:85:12
	ldr	r0, [sp]
	vldr	s0, [r0]
	.loc	2 85 14 is_stmt 0               @ ../../Firmware\MotorControl/utils.hpp:85:14
	vmul.f32	s0, s0, s0
	.loc	2 85 5 epilogue_begin           @ ../../Firmware\MotorControl/utils.hpp:85:5
	add	sp, #4
	bx	lr
.Ltmp275:
.Lfunc_end48:
	.size	_Z2SQIfET_RKS0_, .Lfunc_end48-_Z2SQIfET_RKS0_
	.cfi_endproc
	.cantunwind
	.fnend
                                        @ -- End function
	.section	.text._ZNSt3__26__math4sqrtB7v180000Ef,"axG",%progbits,_ZNSt3__26__math4sqrtB7v180000Ef,comdat
	.hidden	_ZNSt3__26__math4sqrtB7v180000Ef @ -- Begin function _ZNSt3__26__math4sqrtB7v180000Ef
	.weak	_ZNSt3__26__math4sqrtB7v180000Ef
	.p2align	2
	.type	_ZNSt3__26__math4sqrtB7v180000Ef,%function
	.code	16                              @ @_ZNSt3__26__math4sqrtB7v180000Ef
	.thumb_func
_ZNSt3__26__math4sqrtB7v180000Ef:
.Lfunc_begin49:
	.file	32 "D:\\Embed\\MDK\\MDK\\ARM\\ARMCompilerV621\\Bin\\..\\include\\libcxx\\__math" "roots.h"
	.loc	32 26 0 is_stmt 1               @ D:\Embed\MDK\MDK\ARM\ARMCompilerV621\Bin\..\include\libcxx\__math/roots.h:26:0
	.fnstart
	.cfi_startproc
@ %bb.0:
	.save	{r7, lr}
	push	{r7, lr}
	.cfi_def_cfa_offset 8
	.cfi_offset lr, -4
	.cfi_offset r7, -8
	.pad	#8
	sub	sp, #8
	.cfi_def_cfa_offset 16
	vstr	s0, [sp, #4]
.Ltmp276:
	.loc	32 26 87 prologue_end           @ D:\Embed\MDK\MDK\ARM\ARMCompilerV621\Bin\..\include\libcxx\__math/roots.h:26:87
	vldr	s0, [sp, #4]
	.loc	32 26 71 is_stmt 0              @ D:\Embed\MDK\MDK\ARM\ARMCompilerV621\Bin\..\include\libcxx\__math/roots.h:26:71
	bl	__hardfp_sqrtf
	.loc	32 26 64 epilogue_begin         @ D:\Embed\MDK\MDK\ARM\ARMCompilerV621\Bin\..\include\libcxx\__math/roots.h:26:64
	add	sp, #8
	pop	{r7, pc}
.Ltmp277:
.Lfunc_end49:
	.size	_ZNSt3__26__math4sqrtB7v180000Ef, .Lfunc_end49-_ZNSt3__26__math4sqrtB7v180000Ef
	.cfi_endproc
	.cantunwind
	.fnend
                                        @ -- End function
	.section	.text._ZNSt3__24pairIffEC2B7v180000IRfS3_Li0EEEOT_OT0_,"axG",%progbits,_ZNSt3__24pairIffEC2B7v180000IRfS3_Li0EEEOT_OT0_,comdat
	.hidden	_ZNSt3__24pairIffEC2B7v180000IRfS3_Li0EEEOT_OT0_ @ -- Begin function _ZNSt3__24pairIffEC2B7v180000IRfS3_Li0EEEOT_OT0_
	.weak	_ZNSt3__24pairIffEC2B7v180000IRfS3_Li0EEEOT_OT0_
	.p2align	2
	.type	_ZNSt3__24pairIffEC2B7v180000IRfS3_Li0EEEOT_OT0_,%function
	.code	16                              @ @_ZNSt3__24pairIffEC2B7v180000IRfS3_Li0EEEOT_OT0_
	.thumb_func
_ZNSt3__24pairIffEC2B7v180000IRfS3_Li0EEEOT_OT0_:
.Lfunc_begin50:
	.loc	14 222 0 is_stmt 1              @ D:\Embed\MDK\MDK\ARM\ARMCompilerV621\Bin\..\include\libcxx\__utility/pair.h:222:0
	.fnstart
	.cfi_startproc
@ %bb.0:
	.pad	#12
	sub	sp, #12
	.cfi_def_cfa_offset 12
	str	r0, [sp, #8]
	str	r1, [sp, #4]
	str	r2, [sp]
	ldr	r0, [sp, #8]
.Ltmp278:
	.loc	14 222 35 prologue_end          @ D:\Embed\MDK\MDK\ARM\ARMCompilerV621\Bin\..\include\libcxx\__utility/pair.h:222:35
	ldr	r1, [sp, #4]
	.loc	14 222 17 is_stmt 0             @ D:\Embed\MDK\MDK\ARM\ARMCompilerV621\Bin\..\include\libcxx\__utility/pair.h:222:17
	ldr	r1, [r1]
	.loc	14 222 11                       @ D:\Embed\MDK\MDK\ARM\ARMCompilerV621\Bin\..\include\libcxx\__utility/pair.h:222:11
	str	r1, [r0]
	.loc	14 222 68                       @ D:\Embed\MDK\MDK\ARM\ARMCompilerV621\Bin\..\include\libcxx\__utility/pair.h:222:68
	ldr	r1, [sp]
	.loc	14 222 50                       @ D:\Embed\MDK\MDK\ARM\ARMCompilerV621\Bin\..\include\libcxx\__utility/pair.h:222:50
	ldr	r1, [r1]
	.loc	14 222 43                       @ D:\Embed\MDK\MDK\ARM\ARMCompilerV621\Bin\..\include\libcxx\__utility/pair.h:222:43
	str	r1, [r0, #4]
	.loc	14 222 76 epilogue_begin        @ D:\Embed\MDK\MDK\ARM\ARMCompilerV621\Bin\..\include\libcxx\__utility/pair.h:222:76
	add	sp, #12
	bx	lr
.Ltmp279:
.Lfunc_end50:
	.size	_ZNSt3__24pairIffEC2B7v180000IRfS3_Li0EEEOT_OT0_, .Lfunc_end50-_ZNSt3__24pairIffEC2B7v180000IRfS3_Li0EEEOT_OT0_
	.cfi_endproc
	.cantunwind
	.fnend
                                        @ -- End function
	.section	.text._ZN10OutputPortINSt3__24pairIffEEEaSES2_,"axG",%progbits,_ZN10OutputPortINSt3__24pairIffEEEaSES2_,comdat
	.hidden	_ZN10OutputPortINSt3__24pairIffEEEaSES2_ @ -- Begin function _ZN10OutputPortINSt3__24pairIffEEEaSES2_
	.weak	_ZN10OutputPortINSt3__24pairIffEEEaSES2_
	.p2align	2
	.type	_ZN10OutputPortINSt3__24pairIffEEEaSES2_,%function
	.code	16                              @ @_ZN10OutputPortINSt3__24pairIffEEEaSES2_
	.thumb_func
_ZN10OutputPortINSt3__24pairIffEEEaSES2_:
.Lfunc_begin51:
	.loc	22 52 0 is_stmt 1               @ ../../Firmware\MotorControl/component.hpp:52:0
	.fnstart
	.cfi_startproc
@ %bb.0:
	.save	{r7, lr}
	push	{r7, lr}
	.cfi_def_cfa_offset 8
	.cfi_offset lr, -4
	.cfi_offset r7, -8
	.pad	#16
	sub	sp, #16
	.cfi_def_cfa_offset 24
                                        @ kill: def $s2 killed $s1
                                        @ kill: def $s2 killed $s0
	vstr	s1, [sp, #12]
	vstr	s0, [sp, #8]
	str	r0, [sp, #4]
	ldr	r0, [sp, #4]
.Ltmp280:
	.loc	22 53 9 prologue_end            @ ../../Firmware\MotorControl/component.hpp:53:9
	str	r0, [sp]                        @ 4-byte Spill
	adds	r0, #4
	add	r1, sp, #8
	.loc	22 53 18 is_stmt 0              @ ../../Firmware\MotorControl/component.hpp:53:18
	bl	_ZNSt3__24pairIffEaSB7v180000ERKS1_
	ldr	r1, [sp]                        @ 4-byte Reload
	movs	r0, #0
	.loc	22 54 14 is_stmt 1              @ ../../Firmware\MotorControl/component.hpp:54:14
	str	r0, [r1]
	.loc	22 55 5 epilogue_begin          @ ../../Firmware\MotorControl/component.hpp:55:5
	add	sp, #16
	pop	{r7, pc}
.Ltmp281:
.Lfunc_end51:
	.size	_ZN10OutputPortINSt3__24pairIffEEEaSES2_, .Lfunc_end51-_ZN10OutputPortINSt3__24pairIffEEEaSES2_
	.cfi_endproc
	.cantunwind
	.fnend
                                        @ -- End function
	.section	.text._ZN16TaskTimerContextC2ER9TaskTimer,"axG",%progbits,_ZN16TaskTimerContextC2ER9TaskTimer,comdat
	.hidden	_ZN16TaskTimerContextC2ER9TaskTimer @ -- Begin function _ZN16TaskTimerContextC2ER9TaskTimer
	.weak	_ZN16TaskTimerContextC2ER9TaskTimer
	.p2align	2
	.type	_ZN16TaskTimerContextC2ER9TaskTimer,%function
	.code	16                              @ @_ZN16TaskTimerContextC2ER9TaskTimer
	.thumb_func
_ZN16TaskTimerContextC2ER9TaskTimer:
.Lfunc_begin52:
	.loc	25 55 0                         @ ../MotorControl/task_timer.hpp:55:0
	.fnstart
	.cfi_startproc
@ %bb.0:
	.save	{r7, lr}
	push	{r7, lr}
	.cfi_def_cfa_offset 8
	.cfi_offset lr, -4
	.cfi_offset r7, -8
	.pad	#16
	sub	sp, #16
	.cfi_def_cfa_offset 24
	str	r0, [sp, #12]
	str	r1, [sp, #8]
	ldr	r1, [sp, #12]
.Ltmp282:
	.loc	25 55 49 prologue_end           @ ../MotorControl/task_timer.hpp:55:49
	str	r1, [sp, #4]                    @ 4-byte Spill
	ldr	r0, [sp, #8]
	.loc	25 55 42 is_stmt 0              @ ../MotorControl/task_timer.hpp:55:42
	str	r0, [r1]
	.loc	25 55 68                        @ ../MotorControl/task_timer.hpp:55:68
	ldr	r0, [sp, #8]
	.loc	25 55 74                        @ ../MotorControl/task_timer.hpp:55:74
	bl	_ZN9TaskTimer5startEv
	mov	r1, r0
	.loc	25 55 57                        @ ../MotorControl/task_timer.hpp:55:57
	ldr	r0, [sp, #4]                    @ 4-byte Reload
	str	r1, [r0, #4]
	movs	r1, #0
	.loc	25 60 10 is_stmt 1              @ ../MotorControl/task_timer.hpp:60:10
	strb	r1, [r0, #8]
	.loc	25 55 84 epilogue_begin         @ ../MotorControl/task_timer.hpp:55:84
	add	sp, #16
	pop	{r7, pc}
.Ltmp283:
.Lfunc_end52:
	.size	_ZN16TaskTimerContextC2ER9TaskTimer, .Lfunc_end52-_ZN16TaskTimerContextC2ER9TaskTimer
	.cfi_endproc
	.cantunwind
	.fnend
                                        @ -- End function
	.section	.text._ZN16TaskTimerContextD2Ev,"axG",%progbits,_ZN16TaskTimerContextD2Ev,comdat
	.hidden	_ZN16TaskTimerContextD2Ev       @ -- Begin function _ZN16TaskTimerContextD2Ev
	.weak	_ZN16TaskTimerContextD2Ev
	.p2align	2
	.type	_ZN16TaskTimerContextD2Ev,%function
	.code	16                              @ @_ZN16TaskTimerContextD2Ev
	.thumb_func
_ZN16TaskTimerContextD2Ev:
.Lfunc_begin53:
	.loc	25 56 0                         @ ../MotorControl/task_timer.hpp:56:0
	.fnstart
	.cfi_startproc
@ %bb.0:
	.save	{r7, lr}
	push	{r7, lr}
	.cfi_def_cfa_offset 8
	.cfi_offset lr, -4
	.cfi_offset r7, -8
	.pad	#8
	sub	sp, #8
	.cfi_def_cfa_offset 16
	str	r0, [sp, #4]
	ldr	r1, [sp, #4]
.Ltmp284:
	.loc	25 56 27 prologue_end           @ ../MotorControl/task_timer.hpp:56:27
	str	r1, [sp]                        @ 4-byte Spill
	ldr	r0, [r1]
	.loc	25 56 39 is_stmt 0              @ ../MotorControl/task_timer.hpp:56:39
	ldr	r1, [r1, #4]
	.loc	25 56 34                        @ ../MotorControl/task_timer.hpp:56:34
	bl	_ZN9TaskTimer4stopEj
	ldr	r0, [sp]                        @ 4-byte Reload
.Ltmp285:
	.loc	25 56 52 epilogue_begin         @ ../MotorControl/task_timer.hpp:56:52
	add	sp, #8
	pop	{r7, pc}
.Ltmp286:
.Lfunc_end53:
	.size	_ZN16TaskTimerContextD2Ev, .Lfunc_end53-_ZN16TaskTimerContextD2Ev
	.cfi_endproc
	.cantunwind
	.fnend
                                        @ -- End function
	.section	.text._ZN5Motor15current_meas_cbEjNSt3__28optionalI9Iph_ABC_tEE,"ax",%progbits
	.hidden	_ZN5Motor15current_meas_cbEjNSt3__28optionalI9Iph_ABC_tEE @ -- Begin function _ZN5Motor15current_meas_cbEjNSt3__28optionalI9Iph_ABC_tEE
	.globl	_ZN5Motor15current_meas_cbEjNSt3__28optionalI9Iph_ABC_tEE
	.p2align	2
	.type	_ZN5Motor15current_meas_cbEjNSt3__28optionalI9Iph_ABC_tEE,%function
	.code	16                              @ @_ZN5Motor15current_meas_cbEjNSt3__28optionalI9Iph_ABC_tEE
	.thumb_func
_ZN5Motor15current_meas_cbEjNSt3__28optionalI9Iph_ABC_tEE:
.Lfunc_begin54:
	.loc	4 600 0 is_stmt 1               @ ../MotorControl/motor.cpp:600:0
	.fnstart
	.cfi_startproc
@ %bb.0:
	.save	{r4, r5, r6, r7, lr}
	push	{r4, r5, r6, r7, lr}
	.cfi_def_cfa_offset 20
	.cfi_offset lr, -4
	.cfi_offset r7, -8
	.cfi_offset r6, -12
	.cfi_offset r5, -16
	.cfi_offset r4, -20
	.pad	#188
	sub	sp, #188
	.cfi_def_cfa_offset 208
	add.w	r12, sp, #108
	str.w	r12, [sp, #44]                  @ 4-byte Spill
	ldr.w	lr, [sp, #212]
	ldr.w	r12, [sp, #208]
                                        @ kill: def $r4 killed $r3
                                        @ kill: def $r4 killed $r2
	str.w	lr, [sp, #180]
	str.w	r12, [sp, #176]
	str	r3, [sp, #172]
	str	r2, [sp, #168]
	str	r0, [sp, #164]
	str	r1, [sp, #160]
	ldr	r0, [sp, #164]
.Ltmp287:
	.loc	4 603 26 prologue_end           @ ../MotorControl/motor.cpp:603:26
	str	r0, [sp, #48]                   @ 4-byte Spill
	ldr.w	r0, [r0, #136]
	.loc	4 603 45 is_stmt 0              @ ../MotorControl/motor.cpp:603:45
	add.w	r1, r0, #540
	add	r0, sp, #148
	.loc	4 603 22                        @ ../MotorControl/motor.cpp:603:22
	bl	_ZN16TaskTimerContextC2ER9TaskTimer
	ldr	r0, [sp, #48]                   @ 4-byte Reload
	.loc	4 605 31 is_stmt 1              @ ../MotorControl/motor.cpp:605:31
	ldr.w	r1, [r0, #140]
	adds	r1, #1
	str.w	r1, [r0, #140]
	.loc	4 607 63                        @ ../MotorControl/motor.cpp:607:63
	vldr	s2, [r0, #124]
	.loc	4 607 28 is_stmt 0              @ ../MotorControl/motor.cpp:607:28
	vldr	s0, [r0, #196]
	vmov.f32	s4, #7.500000e+00
	.loc	4 607 76                        @ ../MotorControl/motor.cpp:607:76
	vmul.f32	s2, s2, s4
	movs	r0, #0
	.loc	4 608 24 is_stmt 1              @ ../MotorControl/motor.cpp:608:24
	vcmp.f32	s0, s2
	vmrs	APSR_nzcv, fpscr
	str	r0, [sp, #52]                   @ 4-byte Spill
	blt	.LBB54_4
	b	.LBB54_1
.LBB54_1:
	.loc	4 608 42 is_stmt 0              @ ../MotorControl/motor.cpp:608:42
	ldr	r0, [sp, #48]                   @ 4-byte Reload
	vldr	s0, [r0, #184]
	.loc	4 608 28                        @ ../MotorControl/motor.cpp:608:28
	bl	_Z3absB7v180000f
	ldr	r0, [sp, #48]                   @ 4-byte Reload
	.loc	4 608 49                        @ ../MotorControl/motor.cpp:608:49
	vldr	s2, [r0, #384]
	movs	r0, #0
	.loc	4 609 24 is_stmt 1              @ ../MotorControl/motor.cpp:609:24
	vcmp.f32	s0, s2
	vmrs	APSR_nzcv, fpscr
	str	r0, [sp, #52]                   @ 4-byte Spill
	bge	.LBB54_4
	b	.LBB54_2
.LBB54_2:
	.loc	4 609 42 is_stmt 0              @ ../MotorControl/motor.cpp:609:42
	ldr	r0, [sp, #48]                   @ 4-byte Reload
	vldr	s0, [r0, #188]
	.loc	4 609 28                        @ ../MotorControl/motor.cpp:609:28
	bl	_Z3absB7v180000f
	ldr	r0, [sp, #48]                   @ 4-byte Reload
	.loc	4 609 49                        @ ../MotorControl/motor.cpp:609:49
	vldr	s2, [r0, #384]
	movs	r0, #0
	.loc	4 610 24 is_stmt 1              @ ../MotorControl/motor.cpp:610:24
	vcmp.f32	s0, s2
	vmrs	APSR_nzcv, fpscr
	str	r0, [sp, #52]                   @ 4-byte Spill
	bge	.LBB54_4
	b	.LBB54_3
.LBB54_3:
	.loc	4 610 42 is_stmt 0              @ ../MotorControl/motor.cpp:610:42
	ldr	r0, [sp, #48]                   @ 4-byte Reload
	vldr	s0, [r0, #192]
	.loc	4 610 28                        @ ../MotorControl/motor.cpp:610:28
	bl	_Z3absB7v180000f
	ldr	r0, [sp, #48]                   @ 4-byte Reload
	.loc	4 610 49                        @ ../MotorControl/motor.cpp:610:49
	vldr	s2, [r0, #384]
	movs	r0, #0
	.loc	4 610 47                        @ ../MotorControl/motor.cpp:610:47
	vcmp.f32	s0, s2
	vmrs	APSR_nzcv, fpscr
	it	lt
	movlt	r0, #1
	str	r0, [sp, #52]                   @ 4-byte Spill
	b	.LBB54_4
.LBB54_4:
	.loc	4 0 0                           @ ../MotorControl/motor.cpp:0:0
	ldr	r0, [sp, #48]                   @ 4-byte Reload
	ldr	r1, [sp, #52]                   @ 4-byte Reload
	.loc	4 607 10 is_stmt 1              @ ../MotorControl/motor.cpp:607:10
	and	r1, r1, #1
	strb.w	r1, [sp, #147]
.Ltmp288:
	.loc	4 612 9                         @ ../MotorControl/motor.cpp:612:9
	ldrb.w	r0, [r0, #165]
	.loc	4 612 27 is_stmt 0              @ ../MotorControl/motor.cpp:612:27
	cmp	r0, #1
	beq	.LBB54_6
	b	.LBB54_5
.LBB54_5:
	.loc	4 612 30                        @ ../MotorControl/motor.cpp:612:30
	ldr	r0, [sp, #48]                   @ 4-byte Reload
	ldrb.w	r0, [r0, #165]
.Ltmp289:
	.loc	4 612 9                         @ ../MotorControl/motor.cpp:612:9
	cmp	r0, #2
	bne	.LBB54_7
	b	.LBB54_6
.LBB54_6:
	.loc	4 0 9                           @ ../MotorControl/motor.cpp:0:9
	ldr	r0, [sp, #48]                   @ 4-byte Reload
	movs	r1, #0
.Ltmp290:
	.loc	4 613 25 is_stmt 1              @ ../MotorControl/motor.cpp:613:25
	str	r1, [sp, #132]
	str	r1, [sp, #136]
	str	r1, [sp, #140]
	.loc	4 613 9 is_stmt 0               @ ../MotorControl/motor.cpp:613:9
	adds	r0, #168
	add	r1, sp, #132
	.loc	4 613 23                        @ ../MotorControl/motor.cpp:613:23
	bl	_ZNSt3__28optionalI9Iph_ABC_tEaSB7v180000IS1_vEERS2_OT_
	ldr	r1, [sp, #48]                   @ 4-byte Reload
	.loc	4 614 22 is_stmt 1              @ ../MotorControl/motor.cpp:614:22
	ldrb.w	r0, [r1, #165]
	adds	r0, #1
	strb.w	r0, [r1, #165]
	.loc	4 615 5                         @ ../MotorControl/motor.cpp:615:5
	b	.LBB54_12
.Ltmp291:
.LBB54_7:
	.loc	4 0 5 is_stmt 0                 @ ../MotorControl/motor.cpp:0:5
	add	r0, sp, #168
.Ltmp292:
	.loc	4 615 24                        @ ../MotorControl/motor.cpp:615:24
	bl	_ZNKSt3__223__optional_storage_baseI9Iph_ABC_tLb0EE9has_valueB7v180000Ev
	.loc	4 615 36                        @ ../MotorControl/motor.cpp:615:36
	cbz	r0, .LBB54_10
	b	.LBB54_8
.LBB54_8:
	.loc	4 615 39                        @ ../MotorControl/motor.cpp:615:39
	ldrb.w	r0, [sp, #147]
.Ltmp293:
	.loc	4 615 16                        @ ../MotorControl/motor.cpp:615:16
	lsls	r0, r0, #31
	cbz	r0, .LBB54_10
	b	.LBB54_9
.LBB54_9:
	.loc	4 0 16                          @ ../MotorControl/motor.cpp:0:16
	add	r0, sp, #168
.Ltmp294:
	.loc	4 617 13 is_stmt 1              @ ../MotorControl/motor.cpp:617:13
	str	r0, [sp, #40]                   @ 4-byte Spill
	bl	_ZNSt3__28optionalI9Iph_ABC_tEptB7v180000Ev
	ldr	r1, [sp, #44]                   @ 4-byte Reload
	ldr	r2, [sp, #48]                   @ 4-byte Reload
	mov	r3, r0
	.loc	4 617 22 is_stmt 0              @ ../MotorControl/motor.cpp:617:22
	ldr	r0, [sp, #40]                   @ 4-byte Reload
	vldr	s0, [r3]
	.loc	4 617 38                        @ ../MotorControl/motor.cpp:617:38
	vldr	s2, [r2, #184]
	.loc	4 617 26                        @ ../MotorControl/motor.cpp:617:26
	vsub.f32	s0, s0, s2
	.loc	4 616 25 is_stmt 1              @ ../MotorControl/motor.cpp:616:25
	vstr	s0, [r1, #12]
	.loc	4 618 13                        @ ../MotorControl/motor.cpp:618:13
	bl	_ZNSt3__28optionalI9Iph_ABC_tEptB7v180000Ev
	ldr	r1, [sp, #44]                   @ 4-byte Reload
	ldr	r2, [sp, #48]                   @ 4-byte Reload
	mov	r3, r0
	.loc	4 618 22 is_stmt 0              @ ../MotorControl/motor.cpp:618:22
	ldr	r0, [sp, #40]                   @ 4-byte Reload
	vldr	s0, [r3, #4]
	.loc	4 618 38                        @ ../MotorControl/motor.cpp:618:38
	vldr	s2, [r2, #188]
	.loc	4 618 26                        @ ../MotorControl/motor.cpp:618:26
	vsub.f32	s0, s0, s2
	.loc	4 616 25 is_stmt 1              @ ../MotorControl/motor.cpp:616:25
	vstr	s0, [r1, #16]
	.loc	4 619 13                        @ ../MotorControl/motor.cpp:619:13
	bl	_ZNSt3__28optionalI9Iph_ABC_tEptB7v180000Ev
	ldr	r1, [sp, #44]                   @ 4-byte Reload
	mov	r2, r0
	.loc	4 619 22 is_stmt 0              @ ../MotorControl/motor.cpp:619:22
	ldr	r0, [sp, #48]                   @ 4-byte Reload
	vldr	s0, [r2, #8]
	.loc	4 619 38                        @ ../MotorControl/motor.cpp:619:38
	vldr	s2, [r0, #192]
	.loc	4 619 26                        @ ../MotorControl/motor.cpp:619:26
	vsub.f32	s0, s0, s2
	.loc	4 616 25 is_stmt 1              @ ../MotorControl/motor.cpp:616:25
	vstr	s0, [r1, #20]
	.loc	4 616 9 is_stmt 0               @ ../MotorControl/motor.cpp:616:9
	adds	r0, #168
	add	r1, sp, #120
	.loc	4 616 23                        @ ../MotorControl/motor.cpp:616:23
	bl	_ZNSt3__28optionalI9Iph_ABC_tEaSB7v180000IS1_vEERS2_OT_
	.loc	4 621 5 is_stmt 1               @ ../MotorControl/motor.cpp:621:5
	b	.LBB54_11
.Ltmp295:
.LBB54_10:
	.loc	4 622 9                         @ ../MotorControl/motor.cpp:622:9
	ldr	r0, [sp, #48]                   @ 4-byte Reload
	adds	r0, #168
	.loc	4 622 23 is_stmt 0              @ ../MotorControl/motor.cpp:622:23
	bl	_ZNSt3__28optionalI9Iph_ABC_tEaSB7v180000ENS_9nullopt_tE
	b	.LBB54_11
.Ltmp296:
.LBB54_11:
	.loc	4 0 23                          @ ../MotorControl/motor.cpp:0:23
	b	.LBB54_12
.LBB54_12:
	.loc	4 629 10 is_stmt 1              @ ../MotorControl/motor.cpp:629:10
	movw	r0, :lower16:odrv
	movt	r0, :upper16:odrv
	bl	_ZN6ODrive14do_fast_checksEv
	ldr	r0, [sp, #48]                   @ 4-byte Reload
.Ltmp297:
	.loc	4 631 9                         @ ../MotorControl/motor.cpp:631:9
	adds	r0, #168
	.loc	4 631 23 is_stmt 0              @ ../MotorControl/motor.cpp:631:23
	bl	_ZNKSt3__223__optional_storage_baseI9Iph_ABC_tLb0EE9has_valueB7v180000Ev
.Ltmp298:
	.loc	4 631 9                         @ ../MotorControl/motor.cpp:631:9
	cmp	r0, #0
	beq	.LBB54_16
	b	.LBB54_13
.LBB54_13:
.Ltmp299:
	.loc	4 635 56 is_stmt 1              @ ../MotorControl/motor.cpp:635:56
	ldr	r1, [sp, #44]                   @ 4-byte Reload
	ldr	r0, [sp, #48]                   @ 4-byte Reload
	vldr	s2, [r0, #64]
	.loc	4 635 23 is_stmt 0              @ ../MotorControl/motor.cpp:635:23
	vldr	s0, [r0, #376]
	.loc	4 635 46                        @ ../MotorControl/motor.cpp:635:46
	vadd.f32	s0, s0, s2
	.loc	4 635 15                        @ ../MotorControl/motor.cpp:635:15
	vstr	s0, [r1, #4]
	.loc	4 636 44 is_stmt 1              @ ../MotorControl/motor.cpp:636:44
	adds	r0, #168
	str	r0, [sp, #24]                   @ 4-byte Spill
	bl	_ZNSt3__28optionalI9Iph_ABC_tEptB7v180000Ev
	.loc	4 636 41 is_stmt 0              @ ../MotorControl/motor.cpp:636:41
	bl	_Z2SQIfET_RKS0_
	ldr	r0, [sp, #24]                   @ 4-byte Reload
	vstr	s0, [sp, #28]                   @ 4-byte Spill
	.loc	4 637 44 is_stmt 1              @ ../MotorControl/motor.cpp:637:44
	bl	_ZNSt3__28optionalI9Iph_ABC_tEptB7v180000Ev
	.loc	4 637 59 is_stmt 0              @ ../MotorControl/motor.cpp:637:59
	adds	r0, #4
	.loc	4 637 41                        @ ../MotorControl/motor.cpp:637:41
	bl	_Z2SQIfET_RKS0_
	ldr	r0, [sp, #24]                   @ 4-byte Reload
	vmov.f32	s2, s0
	.loc	4 637 39                        @ ../MotorControl/motor.cpp:637:39
	vldr	s0, [sp, #28]                   @ 4-byte Reload
	vadd.f32	s0, s0, s2
	vstr	s0, [sp, #32]                   @ 4-byte Spill
	.loc	4 638 44 is_stmt 1              @ ../MotorControl/motor.cpp:638:44
	bl	_ZNSt3__28optionalI9Iph_ABC_tEptB7v180000Ev
	.loc	4 638 59 is_stmt 0              @ ../MotorControl/motor.cpp:638:59
	adds	r0, #8
	.loc	4 638 41                        @ ../MotorControl/motor.cpp:638:41
	bl	_Z2SQIfET_RKS0_
	ldr	r0, [sp, #44]                   @ 4-byte Reload
	vmov.f32	s2, s0
	.loc	4 638 39                        @ ../MotorControl/motor.cpp:638:39
	vldr	s0, [sp, #32]                   @ 4-byte Reload
	vadd.f32	s0, s0, s2
	vldr	s2, .LCPI54_0
	.loc	4 636 38 is_stmt 1              @ ../MotorControl/motor.cpp:636:38
	vmul.f32	s0, s0, s2
	.loc	4 636 15 is_stmt 0              @ ../MotorControl/motor.cpp:636:15
	vstr	s0, [r0]
.Ltmp300:
	.loc	4 642 13 is_stmt 1              @ ../MotorControl/motor.cpp:642:13
	vldr	s0, [r0]
	vstr	s0, [sp, #36]                   @ 4-byte Spill
	add	r0, sp, #112
	.loc	4 642 24 is_stmt 0              @ ../MotorControl/motor.cpp:642:24
	bl	_Z2SQIfET_RKS0_
	vmov.f32	s2, s0
.Ltmp301:
	.loc	4 642 13                        @ ../MotorControl/motor.cpp:642:13
	vldr	s0, [sp, #36]                   @ 4-byte Reload
	vcmp.f32	s0, s2
	vmrs	APSR_nzcv, fpscr
	ble	.LBB54_15
	b	.LBB54_14
.LBB54_14:
.Ltmp302:
	.loc	4 643 13 is_stmt 1              @ ../MotorControl/motor.cpp:643:13
	ldr	r0, [sp, #48]                   @ 4-byte Reload
	mov.w	r2, #4096
	movs	r3, #0
	bl	_ZN5Motor17disarm_with_errorEN10ODriveIntf9MotorIntf5ErrorE
	.loc	4 644 9                         @ ../MotorControl/motor.cpp:644:9
	b	.LBB54_15
.Ltmp303:
.LBB54_15:
	.loc	4 645 5                         @ ../MotorControl/motor.cpp:645:5
	b	.LBB54_19
.Ltmp304:
.LBB54_16:
	.loc	4 645 16 is_stmt 0              @ ../MotorControl/motor.cpp:645:16
	ldr	r0, [sp, #48]                   @ 4-byte Reload
	ldrb.w	r0, [r0, #164]
.Ltmp305:
	.loc	4 645 16                        @ ../MotorControl/motor.cpp:645:16
	lsls	r0, r0, #31
	cbz	r0, .LBB54_18
	b	.LBB54_17
.LBB54_17:
.Ltmp306:
	.loc	4 649 9 is_stmt 1               @ ../MotorControl/motor.cpp:649:9
	ldr	r0, [sp, #48]                   @ 4-byte Reload
	mov.w	r2, #1073741824
	movs	r3, #0
	bl	_ZN5Motor17disarm_with_errorEN10ODriveIntf9MotorIntf5ErrorE
	.loc	4 650 5                         @ ../MotorControl/motor.cpp:650:5
	b	.LBB54_18
.Ltmp307:
.LBB54_18:
	.loc	4 0 5 is_stmt 0                 @ ../MotorControl/motor.cpp:0:5
	b	.LBB54_19
.LBB54_19:
.Ltmp308:
	.loc	4 652 9 is_stmt 1               @ ../MotorControl/motor.cpp:652:9
	ldr	r0, [sp, #48]                   @ 4-byte Reload
	ldr.w	r0, [r0, #432]
.Ltmp309:
	.loc	4 652 9 is_stmt 0               @ ../MotorControl/motor.cpp:652:9
	cmp	r0, #0
	beq	.LBB54_26
	b	.LBB54_20
.LBB54_20:
.Ltmp310:
	.loc	4 653 21 is_stmt 1              @ ../MotorControl/motor.cpp:653:21
	ldr	r0, [sp, #48]                   @ 4-byte Reload
	ldr.w	r0, [r0, #432]
	.loc	4 653 50 is_stmt 0              @ ../MotorControl/motor.cpp:653:50
	str	r0, [sp, #20]                   @ 4-byte Spill
	movw	r1, :lower16:vbus_voltage
	movt	r1, :upper16:vbus_voltage
	add	r0, sp, #88
	bl	_ZNSt3__28optionalIfEC2B7v180000IRfLi0EEEOT_
	ldr	r0, [sp, #48]                   @ 4-byte Reload
	.loc	4 654 29 is_stmt 1              @ ../MotorControl/motor.cpp:654:29
	adds	r0, #168
	.loc	4 654 43 is_stmt 0              @ ../MotorControl/motor.cpp:654:43
	bl	_ZNKSt3__223__optional_storage_baseI9Iph_ABC_tLb0EE9has_valueB7v180000Ev
	.loc	4 654 29                        @ ../MotorControl/motor.cpp:654:29
	cbz	r0, .LBB54_22
	b	.LBB54_21
.LBB54_21:
	.loc	4 655 73 is_stmt 1              @ ../MotorControl/motor.cpp:655:73
	ldr	r0, [sp, #48]                   @ 4-byte Reload
	adds	r0, #168
	str	r0, [sp, #16]                   @ 4-byte Spill
	bl	_ZNSt3__28optionalI9Iph_ABC_tEptB7v180000Ev
	mov	r1, r0
	.loc	4 655 88 is_stmt 0              @ ../MotorControl/motor.cpp:655:88
	ldr	r0, [sp, #16]                   @ 4-byte Reload
	ldr	r1, [r1]
	.loc	4 655 73                        @ ../MotorControl/motor.cpp:655:73
	str	r1, [sp, #60]
	.loc	4 655 93                        @ ../MotorControl/motor.cpp:655:93
	bl	_ZNSt3__28optionalI9Iph_ABC_tEptB7v180000Ev
	mov	r1, r0
	.loc	4 655 108                       @ ../MotorControl/motor.cpp:655:108
	ldr	r0, [sp, #16]                   @ 4-byte Reload
	ldr	r1, [r1, #4]
	.loc	4 655 73                        @ ../MotorControl/motor.cpp:655:73
	str	r1, [sp, #64]
	.loc	4 655 113                       @ ../MotorControl/motor.cpp:655:113
	bl	_ZNSt3__28optionalI9Iph_ABC_tEptB7v180000Ev
	.loc	4 655 128                       @ ../MotorControl/motor.cpp:655:128
	ldr	r0, [r0, #8]
	.loc	4 655 73                        @ ../MotorControl/motor.cpp:655:73
	str	r0, [sp, #68]
	add	r0, sp, #72
	add	r1, sp, #60
	.loc	4 655 33                        @ ../MotorControl/motor.cpp:655:33
	bl	_ZNSt3__213make_optionalB7v180000INS_5arrayIfLj3EEEEENS_8optionalIu7__decayIT_EEEOS4_
	.loc	4 654 29 is_stmt 1              @ ../MotorControl/motor.cpp:654:29
	b	.LBB54_23
.LBB54_22:
	.loc	4 0 29 is_stmt 0                @ ../MotorControl/motor.cpp:0:29
	add	r0, sp, #72
	.loc	4 656 35 is_stmt 1              @ ../MotorControl/motor.cpp:656:35
	bl	_ZNSt3__28optionalINS_5arrayIfLj3EEEEC2B7v180000ENS_9nullopt_tE
	.loc	4 654 29                        @ ../MotorControl/motor.cpp:654:29
	b	.LBB54_23
.LBB54_23:
	.loc	4 657 29                        @ ../MotorControl/motor.cpp:657:29
	ldr	r0, [sp, #20]                   @ 4-byte Reload
	ldr	r7, [sp, #160]
	.loc	4 653 35                        @ ../MotorControl/motor.cpp:653:35
	ldr	r1, [sp, #88]
	ldr	r2, [sp, #92]
	ldr	r3, [sp, #72]
	ldr.w	lr, [sp, #76]
	ldr	r5, [sp, #80]
	ldr	r6, [sp, #84]
	ldr.w	r12, [r0]
	ldr.w	r12, [r12, #4]
	mov	r4, sp
	str	r7, [r4, #12]
	str	r6, [r4, #8]
	str	r5, [r4, #4]
	str.w	lr, [r4]
	blx	r12
	.loc	4 653 15 is_stmt 0              @ ../MotorControl/motor.cpp:653:15
	str	r1, [sp, #100]
	str	r0, [sp, #96]
.Ltmp311:
	.loc	4 658 13 is_stmt 1              @ ../MotorControl/motor.cpp:658:13
	ldr	r0, [sp, #96]
	ldr	r1, [sp, #100]
	.loc	4 658 17 is_stmt 0              @ ../MotorControl/motor.cpp:658:17
	orrs	r0, r1
.Ltmp312:
	.loc	4 658 13                        @ ../MotorControl/motor.cpp:658:13
	cbz	r0, .LBB54_25
	b	.LBB54_24
.LBB54_24:
.Ltmp313:
	.loc	4 659 31 is_stmt 1              @ ../MotorControl/motor.cpp:659:31
	ldr	r0, [sp, #48]                   @ 4-byte Reload
	ldr	r2, [sp, #96]
	ldr	r3, [sp, #100]
	.loc	4 659 13 is_stmt 0              @ ../MotorControl/motor.cpp:659:13
	bl	_ZN5Motor17disarm_with_errorEN10ODriveIntf9MotorIntf5ErrorE
	.loc	4 660 9 is_stmt 1               @ ../MotorControl/motor.cpp:660:9
	b	.LBB54_25
.Ltmp314:
.LBB54_25:
	.loc	4 661 5                         @ ../MotorControl/motor.cpp:661:5
	b	.LBB54_26
.Ltmp315:
.LBB54_26:
	.loc	4 0 5 is_stmt 0                 @ ../MotorControl/motor.cpp:0:5
	add	r0, sp, #148
	.loc	4 662 1 is_stmt 1               @ ../MotorControl/motor.cpp:662:1
	bl	_ZN16TaskTimerContextD2Ev
	.loc	4 662 1 epilogue_begin is_stmt 0 @ ../MotorControl/motor.cpp:662:1
	add	sp, #188
	pop	{r4, r5, r6, r7, pc}
.Ltmp316:
	.p2align	2
@ %bb.27:
	.loc	4 0 1                           @ ../MotorControl/motor.cpp:0:1
.LCPI54_0:
	.long	0x3f2aaaab                      @ float 0.666666686
.Lfunc_end54:
	.size	_ZN5Motor15current_meas_cbEjNSt3__28optionalI9Iph_ABC_tEE, .Lfunc_end54-_ZN5Motor15current_meas_cbEjNSt3__28optionalI9Iph_ABC_tEE
	.cfi_endproc
	.cantunwind
	.fnend
                                        @ -- End function
	.section	.text._ZNSt3__28optionalI9Iph_ABC_tEaSB7v180000IS1_vEERS2_OT_,"axG",%progbits,_ZNSt3__28optionalI9Iph_ABC_tEaSB7v180000IS1_vEERS2_OT_,comdat
	.hidden	_ZNSt3__28optionalI9Iph_ABC_tEaSB7v180000IS1_vEERS2_OT_ @ -- Begin function _ZNSt3__28optionalI9Iph_ABC_tEaSB7v180000IS1_vEERS2_OT_
	.weak	_ZNSt3__28optionalI9Iph_ABC_tEaSB7v180000IS1_vEERS2_OT_
	.p2align	2
	.type	_ZNSt3__28optionalI9Iph_ABC_tEaSB7v180000IS1_vEERS2_OT_,%function
	.code	16                              @ @_ZNSt3__28optionalI9Iph_ABC_tEaSB7v180000IS1_vEERS2_OT_
	.thumb_func
_ZNSt3__28optionalI9Iph_ABC_tEaSB7v180000IS1_vEERS2_OT_:
.Lfunc_begin55:
	.loc	6 907 0 is_stmt 1               @ D:\Embed\MDK\MDK\ARM\ARMCompilerV621\Bin\..\include\libcxx\optional:907:0
	.fnstart
	.cfi_startproc
@ %bb.0:
	.save	{r7, lr}
	push	{r7, lr}
	.cfi_def_cfa_offset 8
	.cfi_offset lr, -4
	.cfi_offset r7, -8
	.pad	#16
	sub	sp, #16
	.cfi_def_cfa_offset 24
	str	r0, [sp, #12]
	str	r1, [sp, #8]
	ldr	r0, [sp, #12]
.Ltmp317:
	.loc	6 908 19 prologue_end           @ D:\Embed\MDK\MDK\ARM\ARMCompilerV621\Bin\..\include\libcxx\optional:908:19
	str	r0, [sp, #4]                    @ 4-byte Spill
	bl	_ZNKSt3__223__optional_storage_baseI9Iph_ABC_tLb0EE9has_valueB7v180000Ev
.Ltmp318:
	.loc	6 908 13 is_stmt 0              @ D:\Embed\MDK\MDK\ARM\ARMCompilerV621\Bin\..\include\libcxx\optional:908:13
	cbz	r0, .LBB55_2
	b	.LBB55_1
.LBB55_1:
.Ltmp319:
	.loc	6 909 49 is_stmt 1              @ D:\Embed\MDK\MDK\ARM\ARMCompilerV621\Bin\..\include\libcxx\optional:909:49
	ldr	r0, [sp, #4]                    @ 4-byte Reload
	ldr	r1, [sp, #8]
	.loc	6 909 19 is_stmt 0              @ D:\Embed\MDK\MDK\ARM\ARMCompilerV621\Bin\..\include\libcxx\optional:909:19
	str	r1, [sp]                        @ 4-byte Spill
	bl	_ZNRSt3__223__optional_storage_baseI9Iph_ABC_tLb0EE5__getB7v180000Ev
	ldr	r3, [sp]                        @ 4-byte Reload
	mov	r1, r0
	.loc	6 909 27                        @ D:\Embed\MDK\MDK\ARM\ARMCompilerV621\Bin\..\include\libcxx\optional:909:27
	ldr	r0, [r3]
	ldr	r2, [r3, #4]
	ldr	r3, [r3, #8]
	str	r3, [r1, #8]
	str	r2, [r1, #4]
	str	r0, [r1]
	.loc	6 909 13                        @ D:\Embed\MDK\MDK\ARM\ARMCompilerV621\Bin\..\include\libcxx\optional:909:13
	b	.LBB55_3
.LBB55_2:
	.loc	6 911 51 is_stmt 1              @ D:\Embed\MDK\MDK\ARM\ARMCompilerV621\Bin\..\include\libcxx\optional:911:51
	ldr	r0, [sp, #4]                    @ 4-byte Reload
	ldr	r1, [sp, #8]
	.loc	6 911 19 is_stmt 0              @ D:\Embed\MDK\MDK\ARM\ARMCompilerV621\Bin\..\include\libcxx\optional:911:19
	bl	_ZNSt3__223__optional_storage_baseI9Iph_ABC_tLb0EE11__constructB7v180000IJS1_EEEvDpOT_
	b	.LBB55_3
.Ltmp320:
.LBB55_3:
	.loc	6 912 9 is_stmt 1               @ D:\Embed\MDK\MDK\ARM\ARMCompilerV621\Bin\..\include\libcxx\optional:912:9
	ldr	r0, [sp, #4]                    @ 4-byte Reload
	.loc	6 912 9 epilogue_begin is_stmt 0 @ D:\Embed\MDK\MDK\ARM\ARMCompilerV621\Bin\..\include\libcxx\optional:912:9
	add	sp, #16
	pop	{r7, pc}
.Ltmp321:
.Lfunc_end55:
	.size	_ZNSt3__28optionalI9Iph_ABC_tEaSB7v180000IS1_vEERS2_OT_, .Lfunc_end55-_ZNSt3__28optionalI9Iph_ABC_tEaSB7v180000IS1_vEERS2_OT_
	.cfi_endproc
	.cantunwind
	.fnend
                                        @ -- End function
	.section	.text._ZNKSt3__223__optional_storage_baseI9Iph_ABC_tLb0EE9has_valueB7v180000Ev,"axG",%progbits,_ZNKSt3__223__optional_storage_baseI9Iph_ABC_tLb0EE9has_valueB7v180000Ev,comdat
	.hidden	_ZNKSt3__223__optional_storage_baseI9Iph_ABC_tLb0EE9has_valueB7v180000Ev @ -- Begin function _ZNKSt3__223__optional_storage_baseI9Iph_ABC_tLb0EE9has_valueB7v180000Ev
	.weak	_ZNKSt3__223__optional_storage_baseI9Iph_ABC_tLb0EE9has_valueB7v180000Ev
	.p2align	2
	.type	_ZNKSt3__223__optional_storage_baseI9Iph_ABC_tLb0EE9has_valueB7v180000Ev,%function
	.code	16                              @ @_ZNKSt3__223__optional_storage_baseI9Iph_ABC_tLb0EE9has_valueB7v180000Ev
	.thumb_func
_ZNKSt3__223__optional_storage_baseI9Iph_ABC_tLb0EE9has_valueB7v180000Ev:
.Lfunc_begin56:
	.loc	6 386 0 is_stmt 1               @ D:\Embed\MDK\MDK\ARM\ARMCompilerV621\Bin\..\include\libcxx\optional:386:0
	.fnstart
	.cfi_startproc
@ %bb.0:
	.pad	#4
	sub	sp, #4
	.cfi_def_cfa_offset 4
	str	r0, [sp]
	ldr	r0, [sp]
.Ltmp322:
	.loc	6 387 9 prologue_end            @ D:\Embed\MDK\MDK\ARM\ARMCompilerV621\Bin\..\include\libcxx\optional:387:9
	ldrb	r0, [r0, #12]
	and	r0, r0, #1
	.loc	6 387 9 epilogue_begin is_stmt 0 @ D:\Embed\MDK\MDK\ARM\ARMCompilerV621\Bin\..\include\libcxx\optional:387:9
	add	sp, #4
	bx	lr
.Ltmp323:
.Lfunc_end56:
	.size	_ZNKSt3__223__optional_storage_baseI9Iph_ABC_tLb0EE9has_valueB7v180000Ev, .Lfunc_end56-_ZNKSt3__223__optional_storage_baseI9Iph_ABC_tLb0EE9has_valueB7v180000Ev
	.cfi_endproc
	.cantunwind
	.fnend
                                        @ -- End function
	.section	.text._ZNSt3__28optionalI9Iph_ABC_tEptB7v180000Ev,"axG",%progbits,_ZNSt3__28optionalI9Iph_ABC_tEptB7v180000Ev,comdat
	.hidden	_ZNSt3__28optionalI9Iph_ABC_tEptB7v180000Ev @ -- Begin function _ZNSt3__28optionalI9Iph_ABC_tEptB7v180000Ev
	.weak	_ZNSt3__28optionalI9Iph_ABC_tEptB7v180000Ev
	.p2align	2
	.type	_ZNSt3__28optionalI9Iph_ABC_tEptB7v180000Ev,%function
	.code	16                              @ @_ZNSt3__28optionalI9Iph_ABC_tEptB7v180000Ev
	.thumb_func
_ZNSt3__28optionalI9Iph_ABC_tEptB7v180000Ev:
.Lfunc_begin57:
	.loc	6 1008 0 is_stmt 1              @ D:\Embed\MDK\MDK\ARM\ARMCompilerV621\Bin\..\include\libcxx\optional:1008:0
	.fnstart
	.cfi_startproc
@ %bb.0:
	.save	{r7, lr}
	push	{r7, lr}
	.cfi_def_cfa_offset 8
	.cfi_offset lr, -4
	.cfi_offset r7, -8
	.pad	#8
	sub	sp, #8
	.cfi_def_cfa_offset 16
	str	r0, [sp, #4]
	ldr	r0, [sp, #4]
.Ltmp324:
	.loc	6 1010 39 prologue_end          @ D:\Embed\MDK\MDK\ARM\ARMCompilerV621\Bin\..\include\libcxx\optional:1010:39
	bl	_ZNRSt3__223__optional_storage_baseI9Iph_ABC_tLb0EE5__getB7v180000Ev
	.loc	6 1010 9 epilogue_begin is_stmt 0 @ D:\Embed\MDK\MDK\ARM\ARMCompilerV621\Bin\..\include\libcxx\optional:1010:9
	add	sp, #8
	pop	{r7, pc}
.Ltmp325:
.Lfunc_end57:
	.size	_ZNSt3__28optionalI9Iph_ABC_tEptB7v180000Ev, .Lfunc_end57-_ZNSt3__28optionalI9Iph_ABC_tEptB7v180000Ev
	.cfi_endproc
	.cantunwind
	.fnend
                                        @ -- End function
	.section	.text._ZNSt3__28optionalI9Iph_ABC_tEaSB7v180000ENS_9nullopt_tE,"axG",%progbits,_ZNSt3__28optionalI9Iph_ABC_tEaSB7v180000ENS_9nullopt_tE,comdat
	.hidden	_ZNSt3__28optionalI9Iph_ABC_tEaSB7v180000ENS_9nullopt_tE @ -- Begin function _ZNSt3__28optionalI9Iph_ABC_tEaSB7v180000ENS_9nullopt_tE
	.weak	_ZNSt3__28optionalI9Iph_ABC_tEaSB7v180000ENS_9nullopt_tE
	.p2align	2
	.type	_ZNSt3__28optionalI9Iph_ABC_tEaSB7v180000ENS_9nullopt_tE,%function
	.code	16                              @ @_ZNSt3__28optionalI9Iph_ABC_tEaSB7v180000ENS_9nullopt_tE
	.thumb_func
_ZNSt3__28optionalI9Iph_ABC_tEaSB7v180000ENS_9nullopt_tE:
.Lfunc_begin58:
	.loc	6 883 0 is_stmt 1               @ D:\Embed\MDK\MDK\ARM\ARMCompilerV621\Bin\..\include\libcxx\optional:883:0
	.fnstart
	.cfi_startproc
@ %bb.0:
	.save	{r7, lr}
	push	{r7, lr}
	.cfi_def_cfa_offset 8
	.cfi_offset lr, -4
	.cfi_offset r7, -8
	.pad	#16
	sub	sp, #16
	.cfi_def_cfa_offset 24
	str	r0, [sp, #8]
	ldr	r0, [sp, #8]
.Ltmp326:
	.loc	6 884 9 prologue_end            @ D:\Embed\MDK\MDK\ARM\ARMCompilerV621\Bin\..\include\libcxx\optional:884:9
	str	r0, [sp, #4]                    @ 4-byte Spill
	bl	_ZNSt3__224__optional_destruct_baseI9Iph_ABC_tLb1EE5resetB7v180000Ev
	ldr	r0, [sp, #4]                    @ 4-byte Reload
	.loc	6 885 9 epilogue_begin          @ D:\Embed\MDK\MDK\ARM\ARMCompilerV621\Bin\..\include\libcxx\optional:885:9
	add	sp, #16
	pop	{r7, pc}
.Ltmp327:
.Lfunc_end58:
	.size	_ZNSt3__28optionalI9Iph_ABC_tEaSB7v180000ENS_9nullopt_tE, .Lfunc_end58-_ZNSt3__28optionalI9Iph_ABC_tEaSB7v180000ENS_9nullopt_tE
	.cfi_endproc
	.cantunwind
	.fnend
                                        @ -- End function
	.section	.text._ZNSt3__28optionalIfEC2B7v180000IRfLi0EEEOT_,"axG",%progbits,_ZNSt3__28optionalIfEC2B7v180000IRfLi0EEEOT_,comdat
	.hidden	_ZNSt3__28optionalIfEC2B7v180000IRfLi0EEEOT_ @ -- Begin function _ZNSt3__28optionalIfEC2B7v180000IRfLi0EEEOT_
	.weak	_ZNSt3__28optionalIfEC2B7v180000IRfLi0EEEOT_
	.p2align	2
	.type	_ZNSt3__28optionalIfEC2B7v180000IRfLi0EEEOT_,%function
	.code	16                              @ @_ZNSt3__28optionalIfEC2B7v180000IRfLi0EEEOT_
	.thumb_func
_ZNSt3__28optionalIfEC2B7v180000IRfLi0EEEOT_:
.Lfunc_begin59:
	.loc	6 828 0                         @ D:\Embed\MDK\MDK\ARM\ARMCompilerV621\Bin\..\include\libcxx\optional:828:0
	.fnstart
	.cfi_startproc
@ %bb.0:
	.save	{r7, lr}
	push	{r7, lr}
	.cfi_def_cfa_offset 8
	.cfi_offset lr, -4
	.cfi_offset r7, -8
	.pad	#16
	sub	sp, #16
	.cfi_def_cfa_offset 24
	str	r0, [sp, #12]
	str	r1, [sp, #8]
	ldr	r0, [sp, #12]
.Ltmp328:
	.loc	6 828 48 prologue_end           @ D:\Embed\MDK\MDK\ARM\ARMCompilerV621\Bin\..\include\libcxx\optional:828:48
	str	r0, [sp]                        @ 4-byte Spill
	ldr	r1, [sp, #8]
	.loc	6 828 11 is_stmt 0              @ D:\Embed\MDK\MDK\ARM\ARMCompilerV621\Bin\..\include\libcxx\optional:828:11
	bl	_ZNSt3__227__optional_move_assign_baseIfLb1EECI2NS_24__optional_destruct_baseIfLb1EEEIJRfEEENS_10in_place_tEDpOT_
	ldr	r0, [sp]                        @ 4-byte Reload
	.loc	6 828 55 epilogue_begin         @ D:\Embed\MDK\MDK\ARM\ARMCompilerV621\Bin\..\include\libcxx\optional:828:55
	add	sp, #16
	pop	{r7, pc}
.Ltmp329:
.Lfunc_end59:
	.size	_ZNSt3__28optionalIfEC2B7v180000IRfLi0EEEOT_, .Lfunc_end59-_ZNSt3__28optionalIfEC2B7v180000IRfLi0EEEOT_
	.cfi_endproc
	.cantunwind
	.fnend
                                        @ -- End function
	.section	.text._ZNSt3__213make_optionalB7v180000INS_5arrayIfLj3EEEEENS_8optionalIu7__decayIT_EEEOS4_,"axG",%progbits,_ZNSt3__213make_optionalB7v180000INS_5arrayIfLj3EEEEENS_8optionalIu7__decayIT_EEEOS4_,comdat
	.hidden	_ZNSt3__213make_optionalB7v180000INS_5arrayIfLj3EEEEENS_8optionalIu7__decayIT_EEEOS4_ @ -- Begin function _ZNSt3__213make_optionalB7v180000INS_5arrayIfLj3EEEEENS_8optionalIu7__decayIT_EEEOS4_
	.weak	_ZNSt3__213make_optionalB7v180000INS_5arrayIfLj3EEEEENS_8optionalIu7__decayIT_EEEOS4_
	.p2align	2
	.type	_ZNSt3__213make_optionalB7v180000INS_5arrayIfLj3EEEEENS_8optionalIu7__decayIT_EEEOS4_,%function
	.code	16                              @ @_ZNSt3__213make_optionalB7v180000INS_5arrayIfLj3EEEEENS_8optionalIu7__decayIT_EEEOS4_
	.thumb_func
_ZNSt3__213make_optionalB7v180000INS_5arrayIfLj3EEEEENS_8optionalIu7__decayIT_EEEOS4_:
.Lfunc_begin60:
	.loc	6 1637 0 is_stmt 1              @ D:\Embed\MDK\MDK\ARM\ARMCompilerV621\Bin\..\include\libcxx\optional:1637:0
	.fnstart
	.cfi_startproc
@ %bb.0:
	.save	{r7, lr}
	push	{r7, lr}
	.cfi_def_cfa_offset 8
	.cfi_offset lr, -4
	.cfi_offset r7, -8
	.pad	#8
	sub	sp, #8
	.cfi_def_cfa_offset 16
	str	r1, [sp, #4]
.Ltmp330:
	.loc	6 1638 55 prologue_end          @ D:\Embed\MDK\MDK\ARM\ARMCompilerV621\Bin\..\include\libcxx\optional:1638:55
	ldr	r1, [sp, #4]
	.loc	6 1638 12 is_stmt 0             @ D:\Embed\MDK\MDK\ARM\ARMCompilerV621\Bin\..\include\libcxx\optional:1638:12
	bl	_ZNSt3__28optionalINS_5arrayIfLj3EEEEC2B7v180000IS2_Li0EEEOT_
	.loc	6 1638 5 epilogue_begin         @ D:\Embed\MDK\MDK\ARM\ARMCompilerV621\Bin\..\include\libcxx\optional:1638:5
	add	sp, #8
	pop	{r7, pc}
.Ltmp331:
.Lfunc_end60:
	.size	_ZNSt3__213make_optionalB7v180000INS_5arrayIfLj3EEEEENS_8optionalIu7__decayIT_EEEOS4_, .Lfunc_end60-_ZNSt3__213make_optionalB7v180000INS_5arrayIfLj3EEEEENS_8optionalIu7__decayIT_EEEOS4_
	.cfi_endproc
	.cantunwind
	.fnend
                                        @ -- End function
	.section	.text._ZNSt3__28optionalINS_5arrayIfLj3EEEEC2B7v180000ENS_9nullopt_tE,"axG",%progbits,_ZNSt3__28optionalINS_5arrayIfLj3EEEEC2B7v180000ENS_9nullopt_tE,comdat
	.hidden	_ZNSt3__28optionalINS_5arrayIfLj3EEEEC2B7v180000ENS_9nullopt_tE @ -- Begin function _ZNSt3__28optionalINS_5arrayIfLj3EEEEC2B7v180000ENS_9nullopt_tE
	.weak	_ZNSt3__28optionalINS_5arrayIfLj3EEEEC2B7v180000ENS_9nullopt_tE
	.p2align	2
	.type	_ZNSt3__28optionalINS_5arrayIfLj3EEEEC2B7v180000ENS_9nullopt_tE,%function
	.code	16                              @ @_ZNSt3__28optionalINS_5arrayIfLj3EEEEC2B7v180000ENS_9nullopt_tE
	.thumb_func
_ZNSt3__28optionalINS_5arrayIfLj3EEEEC2B7v180000ENS_9nullopt_tE:
.Lfunc_begin61:
	.loc	6 803 0 is_stmt 1               @ D:\Embed\MDK\MDK\ARM\ARMCompilerV621\Bin\..\include\libcxx\optional:803:0
	.fnstart
	.cfi_startproc
@ %bb.0:
	.save	{r7, lr}
	push	{r7, lr}
	.cfi_def_cfa_offset 8
	.cfi_offset lr, -4
	.cfi_offset r7, -8
	.pad	#16
	sub	sp, #16
	.cfi_def_cfa_offset 24
	str	r0, [sp, #8]
	ldr	r0, [sp, #8]
.Ltmp332:
	.loc	6 803 41 prologue_end           @ D:\Embed\MDK\MDK\ARM\ARMCompilerV621\Bin\..\include\libcxx\optional:803:41
	str	r0, [sp, #4]                    @ 4-byte Spill
	bl	_ZNSt3__227__optional_move_assign_baseINS_5arrayIfLj3EEELb1EEC2Ev
	ldr	r0, [sp, #4]                    @ 4-byte Reload
	.loc	6 803 71 epilogue_begin is_stmt 0 @ D:\Embed\MDK\MDK\ARM\ARMCompilerV621\Bin\..\include\libcxx\optional:803:71
	add	sp, #16
	pop	{r7, pc}
.Ltmp333:
.Lfunc_end61:
	.size	_ZNSt3__28optionalINS_5arrayIfLj3EEEEC2B7v180000ENS_9nullopt_tE, .Lfunc_end61-_ZNSt3__28optionalINS_5arrayIfLj3EEEEC2B7v180000ENS_9nullopt_tE
	.cfi_endproc
	.cantunwind
	.fnend
                                        @ -- End function
	.section	.text._ZN5Motor11dc_calib_cbEjNSt3__28optionalI9Iph_ABC_tEE,"ax",%progbits
	.hidden	_ZN5Motor11dc_calib_cbEjNSt3__28optionalI9Iph_ABC_tEE @ -- Begin function _ZN5Motor11dc_calib_cbEjNSt3__28optionalI9Iph_ABC_tEE
	.globl	_ZN5Motor11dc_calib_cbEjNSt3__28optionalI9Iph_ABC_tEE
	.p2align	2
	.type	_ZN5Motor11dc_calib_cbEjNSt3__28optionalI9Iph_ABC_tEE,%function
	.code	16                              @ @_ZN5Motor11dc_calib_cbEjNSt3__28optionalI9Iph_ABC_tEE
	.thumb_func
_ZN5Motor11dc_calib_cbEjNSt3__28optionalI9Iph_ABC_tEE:
.Lfunc_begin62:
	.loc	4 667 0 is_stmt 1               @ ../MotorControl/motor.cpp:667:0
	.fnstart
	.cfi_startproc
@ %bb.0:
	.save	{r4, lr}
	push	{r4, lr}
	.cfi_def_cfa_offset 8
	.cfi_offset lr, -4
	.cfi_offset r4, -8
	.pad	#64
	sub	sp, #64
	.cfi_def_cfa_offset 72
	ldr.w	lr, [sp, #76]
	ldr.w	r12, [sp, #72]
                                        @ kill: def $r4 killed $r3
                                        @ kill: def $r4 killed $r2
	str.w	lr, [sp, #60]
	str.w	r12, [sp, #56]
	str	r3, [sp, #52]
	str	r2, [sp, #48]
	str	r0, [sp, #44]
	str	r1, [sp, #40]
	ldr	r0, [sp, #44]
	str	r0, [sp, #8]                    @ 4-byte Spill
	movw	r1, #4719
	movt	r1, #14595
.Ltmp334:
	.loc	4 668 17 prologue_end           @ ../MotorControl/motor.cpp:668:17
	str	r1, [sp, #36]
	.loc	4 669 26                        @ ../MotorControl/motor.cpp:669:26
	ldr.w	r0, [r0, #136]
	.loc	4 669 45 is_stmt 0              @ ../MotorControl/motor.cpp:669:45
	add.w	r1, r0, #524
	add	r0, sp, #24
	.loc	4 669 22                        @ ../MotorControl/motor.cpp:669:22
	bl	_ZN16TaskTimerContextC2ER9TaskTimer
	add	r0, sp, #48
.Ltmp335:
	.loc	4 671 17 is_stmt 1              @ ../MotorControl/motor.cpp:671:17
	bl	_ZNKSt3__223__optional_storage_baseI9Iph_ABC_tLb0EE9has_valueB7v180000Ev
.Ltmp336:
	.loc	4 671 9 is_stmt 0               @ ../MotorControl/motor.cpp:671:9
	cmp	r0, #0
	beq	.LBB62_2
	b	.LBB62_1
.LBB62_1:
.Ltmp337:
	.loc	4 672 73 is_stmt 1              @ ../MotorControl/motor.cpp:672:73
	ldr	r0, [sp, #8]                    @ 4-byte Reload
	vldr	s2, [r0, #124]
	vldr	s0, .LCPI62_0
	vstr	s0, [sp, #4]                    @ 4-byte Spill
	.loc	4 672 63 is_stmt 0              @ ../MotorControl/motor.cpp:672:63
	vdiv.f32	s0, s0, s2
	.loc	4 672 47                        @ ../MotorControl/motor.cpp:672:47
	vstr	s0, [sp, #16]
	mov.w	r0, #1065353216
	.loc	4 672 87                        @ ../MotorControl/motor.cpp:672:87
	str	r0, [sp, #12]
	add	r0, sp, #16
	add	r1, sp, #12
	.loc	4 672 38                        @ ../MotorControl/motor.cpp:672:38
	bl	_ZNSt3__23minB7v180000IfEERKT_S3_S3_
	ldr	r0, [r0]
	.loc	4 672 21                        @ ../MotorControl/motor.cpp:672:21
	str	r0, [sp, #20]
	add	r0, sp, #48
	.loc	4 673 27 is_stmt 1              @ ../MotorControl/motor.cpp:673:27
	str	r0, [sp]                        @ 4-byte Spill
	bl	_ZNSt3__28optionalI9Iph_ABC_tEptB7v180000Ev
	ldr	r1, [sp, #8]                    @ 4-byte Reload
	mov	r2, r0
	.loc	4 673 36 is_stmt 0              @ ../MotorControl/motor.cpp:673:36
	ldr	r0, [sp]                        @ 4-byte Reload
	vldr	s0, [r2]
	.loc	4 673 52                        @ ../MotorControl/motor.cpp:673:52
	vldr	s2, [r1, #184]
	.loc	4 673 40                        @ ../MotorControl/motor.cpp:673:40
	vsub.f32	s0, s0, s2
	.loc	4 673 59                        @ ../MotorControl/motor.cpp:673:59
	vldr	s4, [sp, #20]
	.loc	4 673 23                        @ ../MotorControl/motor.cpp:673:23
	vmul.f32	s0, s0, s4
	vadd.f32	s0, s0, s2
	vstr	s0, [r1, #184]
	.loc	4 674 27 is_stmt 1              @ ../MotorControl/motor.cpp:674:27
	bl	_ZNSt3__28optionalI9Iph_ABC_tEptB7v180000Ev
	ldr	r1, [sp, #8]                    @ 4-byte Reload
	mov	r2, r0
	.loc	4 674 36 is_stmt 0              @ ../MotorControl/motor.cpp:674:36
	ldr	r0, [sp]                        @ 4-byte Reload
	vldr	s0, [r2, #4]
	.loc	4 674 52                        @ ../MotorControl/motor.cpp:674:52
	vldr	s2, [r1, #188]
	.loc	4 674 40                        @ ../MotorControl/motor.cpp:674:40
	vsub.f32	s0, s0, s2
	.loc	4 674 59                        @ ../MotorControl/motor.cpp:674:59
	vldr	s4, [sp, #20]
	.loc	4 674 23                        @ ../MotorControl/motor.cpp:674:23
	vmul.f32	s0, s0, s4
	vadd.f32	s0, s0, s2
	vstr	s0, [r1, #188]
	.loc	4 675 27 is_stmt 1              @ ../MotorControl/motor.cpp:675:27
	bl	_ZNSt3__28optionalI9Iph_ABC_tEptB7v180000Ev
	vldr	s2, [sp, #4]                    @ 4-byte Reload
	mov	r1, r0
	.loc	4 675 36 is_stmt 0              @ ../MotorControl/motor.cpp:675:36
	ldr	r0, [sp, #8]                    @ 4-byte Reload
	vldr	s0, [r1, #8]
	.loc	4 675 52                        @ ../MotorControl/motor.cpp:675:52
	vldr	s4, [r0, #192]
	.loc	4 675 40                        @ ../MotorControl/motor.cpp:675:40
	vsub.f32	s0, s0, s4
	.loc	4 675 59                        @ ../MotorControl/motor.cpp:675:59
	vldr	s6, [sp, #20]
	.loc	4 675 23                        @ ../MotorControl/motor.cpp:675:23
	vmul.f32	s0, s0, s6
	vadd.f32	s0, s0, s4
	vstr	s0, [r0, #192]
	.loc	4 676 33 is_stmt 1              @ ../MotorControl/motor.cpp:676:33
	vldr	s0, [r0, #196]
	vadd.f32	s0, s0, s2
	vstr	s0, [r0, #196]
	.loc	4 677 5                         @ ../MotorControl/motor.cpp:677:5
	b	.LBB62_3
.Ltmp338:
.LBB62_2:
	.loc	4 0 5 is_stmt 0                 @ ../MotorControl/motor.cpp:0:5
	ldr	r1, [sp, #8]                    @ 4-byte Reload
	movs	r0, #0
.Ltmp339:
	.loc	4 678 23 is_stmt 1              @ ../MotorControl/motor.cpp:678:23
	str.w	r0, [r1, #184]
	.loc	4 679 23                        @ ../MotorControl/motor.cpp:679:23
	str.w	r0, [r1, #188]
	.loc	4 680 23                        @ ../MotorControl/motor.cpp:680:23
	str.w	r0, [r1, #192]
	.loc	4 681 33                        @ ../MotorControl/motor.cpp:681:33
	str.w	r0, [r1, #196]
	b	.LBB62_3
.Ltmp340:
.LBB62_3:
	.loc	4 0 33 is_stmt 0                @ ../MotorControl/motor.cpp:0:33
	add	r0, sp, #24
	.loc	4 683 1 is_stmt 1               @ ../MotorControl/motor.cpp:683:1
	bl	_ZN16TaskTimerContextD2Ev
	.loc	4 683 1 epilogue_begin is_stmt 0 @ ../MotorControl/motor.cpp:683:1
	add	sp, #64
	pop	{r4, pc}
.Ltmp341:
	.p2align	2
@ %bb.4:
	.loc	4 0 1                           @ ../MotorControl/motor.cpp:0:1
.LCPI62_0:
	.long	0x3903126f                      @ float 1.25000006E-4
.Lfunc_end62:
	.size	_ZN5Motor11dc_calib_cbEjNSt3__28optionalI9Iph_ABC_tEE, .Lfunc_end62-_ZN5Motor11dc_calib_cbEjNSt3__28optionalI9Iph_ABC_tEE
	.cfi_endproc
	.cantunwind
	.fnend
                                        @ -- End function
	.section	.text._ZN5Motor13pwm_update_cbEj,"ax",%progbits
	.hidden	_ZN5Motor13pwm_update_cbEj      @ -- Begin function _ZN5Motor13pwm_update_cbEj
	.globl	_ZN5Motor13pwm_update_cbEj
	.p2align	2
	.type	_ZN5Motor13pwm_update_cbEj,%function
	.code	16                              @ @_ZN5Motor13pwm_update_cbEj
	.thumb_func
_ZN5Motor13pwm_update_cbEj:
.Lfunc_begin63:
	.loc	4 686 0 is_stmt 1               @ ../MotorControl/motor.cpp:686:0
	.fnstart
	.cfi_startproc
@ %bb.0:
	.save	{r7, lr}
	push	{r7, lr}
	.cfi_def_cfa_offset 8
	.cfi_offset lr, -4
	.cfi_offset r7, -8
	.pad	#112
	sub	sp, #112
	.cfi_def_cfa_offset 120
	str	r0, [sp, #108]
	str	r1, [sp, #104]
	ldr	r0, [sp, #108]
.Ltmp342:
	.loc	4 687 26 prologue_end           @ ../MotorControl/motor.cpp:687:26
	str	r0, [sp, #12]                   @ 4-byte Spill
	ldr.w	r0, [r0, #136]
	.loc	4 687 45 is_stmt 0              @ ../MotorControl/motor.cpp:687:45
	add.w	r1, r0, #556
	add	r0, sp, #92
	.loc	4 687 22                        @ ../MotorControl/motor.cpp:687:22
	bl	_ZN16TaskTimerContextC2ER9TaskTimer
	ldr	r1, [sp, #12]                   @ 4-byte Reload
	.loc	4 688 22 is_stmt 1              @ ../MotorControl/motor.cpp:688:22
	ldr.w	r0, [r1, #144]
	adds	r0, #1
	str.w	r0, [r1, #144]
	movs	r0, #0
	.loc	4 690 11                        @ ../MotorControl/motor.cpp:690:11
	str	r0, [sp, #84]
	mov.w	r0, #2097152
	str	r0, [sp, #80]
	movs	r0, #0
	movt	r0, #32704
	.loc	4 691 11                        @ ../MotorControl/motor.cpp:691:11
	str	r0, [sp, #76]
	str	r0, [sp, #72]
	str	r0, [sp, #68]
	add	r0, sp, #60
	.loc	4 692 26                        @ ../MotorControl/motor.cpp:692:26
	bl	_ZNSt3__28optionalIfEC2B7v180000Ev
	ldr	r0, [sp, #12]                   @ 4-byte Reload
.Ltmp343:
	.loc	4 694 9                         @ ../MotorControl/motor.cpp:694:9
	ldr.w	r0, [r0, #432]
.Ltmp344:
	.loc	4 694 9 is_stmt 0               @ ../MotorControl/motor.cpp:694:9
	cbz	r0, .LBB63_2
	b	.LBB63_1
.LBB63_1:
.Ltmp345:
	.loc	4 695 30 is_stmt 1              @ ../MotorControl/motor.cpp:695:30
	ldr	r0, [sp, #12]                   @ 4-byte Reload
	ldr.w	r0, [r0, #432]
	.loc	4 696 13                        @ ../MotorControl/motor.cpp:696:13
	ldr	r1, [sp, #104]
	.loc	4 695 44                        @ ../MotorControl/motor.cpp:695:44
	ldr	r2, [r0]
	ldr.w	r12, [r2, #8]
	add	r2, sp, #68
	add	r3, sp, #60
	blx	r12
	.loc	4 695 28 is_stmt 0              @ ../MotorControl/motor.cpp:695:28
	str	r1, [sp, #84]
	str	r0, [sp, #80]
	.loc	4 697 5 is_stmt 1               @ ../MotorControl/motor.cpp:697:5
	b	.LBB63_2
.Ltmp346:
.LBB63_2:
	.loc	4 700 9                         @ ../MotorControl/motor.cpp:700:9
	ldr	r0, [sp, #12]                   @ 4-byte Reload
	ldrb.w	r0, [r0, #164]
	.loc	4 700 19 is_stmt 0              @ ../MotorControl/motor.cpp:700:19
	lsls	r0, r0, #31
	cbz	r0, .LBB63_5
	b	.LBB63_3
.LBB63_3:
	.loc	4 700 22                        @ ../MotorControl/motor.cpp:700:22
	ldr	r0, [sp, #80]
	ldr	r1, [sp, #84]
	.loc	4 700 41                        @ ../MotorControl/motor.cpp:700:41
	orrs	r0, r1
.Ltmp347:
	.loc	4 700 9                         @ ../MotorControl/motor.cpp:700:9
	cbnz	r0, .LBB63_5
	b	.LBB63_4
.LBB63_4:
.Ltmp348:
	.loc	4 702 24 is_stmt 1              @ ../MotorControl/motor.cpp:702:24
	ldr	r0, [sp, #12]                   @ 4-byte Reload
	vldr	s0, [sp, #68]
	vldr	s2, .LCPI63_0
	.loc	4 702 39 is_stmt 0              @ ../MotorControl/motor.cpp:702:39
	vmul.f32	s0, s0, s2
	.loc	4 702 23                        @ ../MotorControl/motor.cpp:702:23
	vcvt.s32.f32	s0, s0
	vmov	r1, s0
	.loc	4 701 35 is_stmt 1              @ ../MotorControl/motor.cpp:701:35
	strh.w	r1, [sp, #54]
	.loc	4 703 24                        @ ../MotorControl/motor.cpp:703:24
	vldr	s0, [sp, #72]
	.loc	4 703 39 is_stmt 0              @ ../MotorControl/motor.cpp:703:39
	vmul.f32	s0, s0, s2
	.loc	4 703 23                        @ ../MotorControl/motor.cpp:703:23
	vcvt.s32.f32	s0, s0
	vmov	r1, s0
	.loc	4 701 35 is_stmt 1              @ ../MotorControl/motor.cpp:701:35
	strh.w	r1, [sp, #56]
	.loc	4 704 24                        @ ../MotorControl/motor.cpp:704:24
	vldr	s0, [sp, #76]
	.loc	4 704 39 is_stmt 0              @ ../MotorControl/motor.cpp:704:39
	vmul.f32	s0, s0, s2
	.loc	4 704 23                        @ ../MotorControl/motor.cpp:704:23
	vcvt.s32.f32	s0, s0
	vmov	r1, s0
	.loc	4 701 35 is_stmt 1              @ ../MotorControl/motor.cpp:701:35
	strh.w	r1, [sp, #58]
	add.w	r1, sp, #54
	movs	r2, #0
	.loc	4 706 9                         @ ../MotorControl/motor.cpp:706:9
	bl	_ZN5Motor17apply_pwm_timingsEPtb
	.loc	4 707 5                         @ ../MotorControl/motor.cpp:707:5
	b	.LBB63_12
.Ltmp349:
.LBB63_5:
	.loc	4 707 16 is_stmt 0              @ ../MotorControl/motor.cpp:707:16
	ldr	r0, [sp, #12]                   @ 4-byte Reload
	ldrb.w	r0, [r0, #164]
.Ltmp350:
	.loc	4 707 16                        @ ../MotorControl/motor.cpp:707:16
	lsls	r0, r0, #31
	cbz	r0, .LBB63_11
	b	.LBB63_6
.LBB63_6:
.Ltmp351:
	.loc	4 708 15 is_stmt 1              @ ../MotorControl/motor.cpp:708:15
	ldr	r0, [sp, #12]                   @ 4-byte Reload
	ldr	r0, [r0]
	.loc	4 708 23 is_stmt 0              @ ../MotorControl/motor.cpp:708:23
	ldr	r0, [r0]
	.loc	4 708 33                        @ ../MotorControl/motor.cpp:708:33
	ldr	r0, [r0, #68]
	.loc	4 708 54                        @ ../MotorControl/motor.cpp:708:54
	lsls	r0, r0, #16
	cmp	r0, #0
	bmi	.LBB63_9
	b	.LBB63_7
.LBB63_7:
	.loc	4 708 58                        @ ../MotorControl/motor.cpp:708:58
	ldr	r0, [sp, #80]
	ldr	r1, [sp, #84]
	.loc	4 708 77                        @ ../MotorControl/motor.cpp:708:77
	eor	r1, r1, #4
	orrs	r0, r1
.Ltmp352:
	.loc	4 708 13                        @ ../MotorControl/motor.cpp:708:13
	cbnz	r0, .LBB63_9
	b	.LBB63_8
.LBB63_8:
	.loc	4 0 13                          @ ../MotorControl/motor.cpp:0:13
	movs	r0, #0
.Ltmp353:
	.loc	4 711 21 is_stmt 1              @ ../MotorControl/motor.cpp:711:21
	str	r0, [sp, #40]
	add	r0, sp, #44
	add	r1, sp, #40
	bl	_ZNSt3__28optionalIfEC2B7v180000IfLi0EEEOT_
	.loc	4 711 19 is_stmt 0              @ ../MotorControl/motor.cpp:711:19
	ldrb.w	r0, [sp, #48]
	strb.w	r0, [sp, #64]
	ldr	r0, [sp, #44]
	str	r0, [sp, #60]
	.loc	4 712 9 is_stmt 1               @ ../MotorControl/motor.cpp:712:9
	b	.LBB63_10
.Ltmp354:
.LBB63_9:
	.loc	4 713 31                        @ ../MotorControl/motor.cpp:713:31
	ldr	r0, [sp, #12]                   @ 4-byte Reload
	ldr	r2, [sp, #80]
	ldr	r3, [sp, #84]
	.loc	4 713 13 is_stmt 0              @ ../MotorControl/motor.cpp:713:13
	bl	_ZN5Motor17disarm_with_errorEN10ODriveIntf9MotorIntf5ErrorE
	b	.LBB63_10
.Ltmp355:
.LBB63_10:
	.loc	4 715 5 is_stmt 1               @ ../MotorControl/motor.cpp:715:5
	b	.LBB63_11
.Ltmp356:
.LBB63_11:
	.loc	4 0 5 is_stmt 0                 @ ../MotorControl/motor.cpp:0:5
	b	.LBB63_12
.LBB63_12:
.Ltmp357:
	.loc	4 717 10 is_stmt 1              @ ../MotorControl/motor.cpp:717:10
	ldr	r0, [sp, #12]                   @ 4-byte Reload
	ldrb.w	r0, [r0, #164]
.Ltmp358:
	.loc	4 717 9 is_stmt 0               @ ../MotorControl/motor.cpp:717:9
	lsls	r0, r0, #31
	cbnz	r0, .LBB63_14
	b	.LBB63_13
.LBB63_13:
	.loc	4 0 9                           @ ../MotorControl/motor.cpp:0:9
	movs	r0, #0
.Ltmp359:
	.loc	4 719 17 is_stmt 1              @ ../MotorControl/motor.cpp:719:17
	str	r0, [sp, #28]
	add	r0, sp, #32
	add	r1, sp, #28
	bl	_ZNSt3__28optionalIfEC2B7v180000IfLi0EEEOT_
	.loc	4 719 15 is_stmt 0              @ ../MotorControl/motor.cpp:719:15
	ldrb.w	r0, [sp, #36]
	strb.w	r0, [sp, #64]
	ldr	r0, [sp, #32]
	str	r0, [sp, #60]
	.loc	4 720 5 is_stmt 1               @ ../MotorControl/motor.cpp:720:5
	b	.LBB63_18
.Ltmp360:
.LBB63_14:
	.loc	4 720 16 is_stmt 0              @ ../MotorControl/motor.cpp:720:16
	ldr	r0, [sp, #12]                   @ 4-byte Reload
	ldrb.w	r0, [r0, #164]
	.loc	4 720 26                        @ ../MotorControl/motor.cpp:720:26
	lsls	r0, r0, #31
	cbz	r0, .LBB63_17
	b	.LBB63_15
.LBB63_15:
	.loc	4 0 26                          @ ../MotorControl/motor.cpp:0:26
	add	r0, sp, #60
	.loc	4 720 36                        @ ../MotorControl/motor.cpp:720:36
	bl	_ZNKSt3__223__optional_storage_baseIfLb0EE9has_valueB7v180000Ev
.Ltmp361:
	.loc	4 720 16                        @ ../MotorControl/motor.cpp:720:16
	cbnz	r0, .LBB63_17
	b	.LBB63_16
.LBB63_16:
.Ltmp362:
	.loc	4 722 9 is_stmt 1               @ ../MotorControl/motor.cpp:722:9
	ldr	r0, [sp, #12]                   @ 4-byte Reload
	mov.w	r2, #1073741824
	movs	r3, #0
	str	r3, [sp, #8]                    @ 4-byte Spill
	bl	_ZN5Motor17disarm_with_errorEN10ODriveIntf9MotorIntf5ErrorE
	ldr	r0, [sp, #8]                    @ 4-byte Reload
	.loc	4 723 17                        @ ../MotorControl/motor.cpp:723:17
	str	r0, [sp, #16]
	add	r0, sp, #20
	add	r1, sp, #16
	bl	_ZNSt3__28optionalIfEC2B7v180000IfLi0EEEOT_
	.loc	4 723 15 is_stmt 0              @ ../MotorControl/motor.cpp:723:15
	ldrb.w	r0, [sp, #24]
	strb.w	r0, [sp, #64]
	ldr	r0, [sp, #20]
	str	r0, [sp, #60]
	.loc	4 724 5 is_stmt 1               @ ../MotorControl/motor.cpp:724:5
	b	.LBB63_17
.Ltmp363:
.LBB63_17:
	.loc	4 0 5 is_stmt 0                 @ ../MotorControl/motor.cpp:0:5
	b	.LBB63_18
.LBB63_18:
	add	r0, sp, #60
	.loc	4 726 14 is_stmt 1              @ ../MotorControl/motor.cpp:726:14
	str	r0, [sp, #4]                    @ 4-byte Spill
	bl	_ZNRSt3__28optionalIfEdeB7v180000Ev
	ldr	r2, [sp, #12]                   @ 4-byte Reload
	mov	r1, r0
	ldr	r0, [sp, #4]                    @ 4-byte Reload
	ldr	r1, [r1]
	.loc	4 726 12 is_stmt 0              @ ../MotorControl/motor.cpp:726:12
	str.w	r1, [r2, #200]
.Ltmp364:
	.loc	4 728 9 is_stmt 1               @ ../MotorControl/motor.cpp:728:9
	bl	_ZNRSt3__28optionalIfEdeB7v180000Ev
	mov	r1, r0
	ldr	r0, [sp, #12]                   @ 4-byte Reload
	vldr	s0, [r1]
	.loc	4 728 26 is_stmt 0              @ ../MotorControl/motor.cpp:728:26
	vldr	s2, [r0, #112]
	.loc	4 728 41                        @ ../MotorControl/motor.cpp:728:41
	vcmp.f32	s0, s2
	vmrs	APSR_nzcv, fpscr
	blt	.LBB63_20
	b	.LBB63_19
.LBB63_19:
	.loc	4 0 41                          @ ../MotorControl/motor.cpp:0:41
	add	r0, sp, #60
	.loc	4 728 44                        @ ../MotorControl/motor.cpp:728:44
	bl	_ZNRSt3__28optionalIfEdeB7v180000Ev
	mov	r1, r0
	ldr	r0, [sp, #12]                   @ 4-byte Reload
	vldr	s0, [r1]
	.loc	4 728 61                        @ ../MotorControl/motor.cpp:728:61
	vldr	s2, [r0, #116]
.Ltmp365:
	.loc	4 728 9                         @ ../MotorControl/motor.cpp:728:9
	vcmp.f32	s0, s2
	vmrs	APSR_nzcv, fpscr
	ble	.LBB63_21
	b	.LBB63_20
.LBB63_20:
.Ltmp366:
	.loc	4 729 9 is_stmt 1               @ ../MotorControl/motor.cpp:729:9
	ldr	r0, [sp, #12]                   @ 4-byte Reload
	mov.w	r2, #4194304
	movs	r3, #0
	bl	_ZN5Motor17disarm_with_errorEN10ODriveIntf9MotorIntf5ErrorE
	.loc	4 730 5                         @ ../MotorControl/motor.cpp:730:5
	b	.LBB63_21
.Ltmp367:
.LBB63_21:
	.loc	4 732 5                         @ ../MotorControl/motor.cpp:732:5
	bl	update_brake_current
	add	r0, sp, #92
	.loc	4 733 1                         @ ../MotorControl/motor.cpp:733:1
	bl	_ZN16TaskTimerContextD2Ev
	.loc	4 733 1 epilogue_begin is_stmt 0 @ ../MotorControl/motor.cpp:733:1
	add	sp, #112
	pop	{r7, pc}
.Ltmp368:
	.p2align	2
@ %bb.22:
	.loc	4 0 1                           @ ../MotorControl/motor.cpp:0:1
.LCPI63_0:
	.long	0x455ac000                      @ float 3500
.Lfunc_end63:
	.size	_ZN5Motor13pwm_update_cbEj, .Lfunc_end63-_ZN5Motor13pwm_update_cbEj
	.cfi_endproc
	.cantunwind
	.fnend
                                        @ -- End function
	.section	.text._ZNSt3__28optionalIfEC2B7v180000Ev,"axG",%progbits,_ZNSt3__28optionalIfEC2B7v180000Ev,comdat
	.hidden	_ZNSt3__28optionalIfEC2B7v180000Ev @ -- Begin function _ZNSt3__28optionalIfEC2B7v180000Ev
	.weak	_ZNSt3__28optionalIfEC2B7v180000Ev
	.p2align	2
	.type	_ZNSt3__28optionalIfEC2B7v180000Ev,%function
	.code	16                              @ @_ZNSt3__28optionalIfEC2B7v180000Ev
	.thumb_func
_ZNSt3__28optionalIfEC2B7v180000Ev:
.Lfunc_begin64:
	.loc	6 800 0 is_stmt 1               @ D:\Embed\MDK\MDK\ARM\ARMCompilerV621\Bin\..\include\libcxx\optional:800:0
	.fnstart
	.cfi_startproc
@ %bb.0:
	.save	{r7, lr}
	push	{r7, lr}
	.cfi_def_cfa_offset 8
	.cfi_offset lr, -4
	.cfi_offset r7, -8
	.pad	#8
	sub	sp, #8
	.cfi_def_cfa_offset 16
	str	r0, [sp, #4]
	ldr	r0, [sp, #4]
.Ltmp369:
	.loc	6 800 41 prologue_end           @ D:\Embed\MDK\MDK\ARM\ARMCompilerV621\Bin\..\include\libcxx\optional:800:41
	str	r0, [sp]                        @ 4-byte Spill
	bl	_ZNSt3__227__optional_move_assign_baseIfLb1EEC2Ev
	ldr	r0, [sp]                        @ 4-byte Reload
	.loc	6 800 62 epilogue_begin is_stmt 0 @ D:\Embed\MDK\MDK\ARM\ARMCompilerV621\Bin\..\include\libcxx\optional:800:62
	add	sp, #8
	pop	{r7, pc}
.Ltmp370:
.Lfunc_end64:
	.size	_ZNSt3__28optionalIfEC2B7v180000Ev, .Lfunc_end64-_ZNSt3__28optionalIfEC2B7v180000Ev
	.cfi_endproc
	.cantunwind
	.fnend
                                        @ -- End function
	.section	.text._ZNSt3__214numeric_limitsIfE8infinityB7v180000Ev,"axG",%progbits,_ZNSt3__214numeric_limitsIfE8infinityB7v180000Ev,comdat
	.hidden	_ZNSt3__214numeric_limitsIfE8infinityB7v180000Ev @ -- Begin function _ZNSt3__214numeric_limitsIfE8infinityB7v180000Ev
	.weak	_ZNSt3__214numeric_limitsIfE8infinityB7v180000Ev
	.p2align	2
	.type	_ZNSt3__214numeric_limitsIfE8infinityB7v180000Ev,%function
	.code	16                              @ @_ZNSt3__214numeric_limitsIfE8infinityB7v180000Ev
	.thumb_func
_ZNSt3__214numeric_limitsIfE8infinityB7v180000Ev:
.Lfunc_begin65:
	.loc	12 482 0 is_stmt 1              @ D:\Embed\MDK\MDK\ARM\ARMCompilerV621\Bin\..\include\libcxx\limits:482:0
	.fnstart
	.cfi_startproc
@ %bb.0:
	.save	{r7, lr}
	push	{r7, lr}
	.cfi_def_cfa_offset 8
	.cfi_offset lr, -4
	.cfi_offset r7, -8
.Ltmp371:
	.loc	12 482 90 prologue_end          @ D:\Embed\MDK\MDK\ARM\ARMCompilerV621\Bin\..\include\libcxx\limits:482:90
	bl	_ZNSt3__223__libcpp_numeric_limitsIfLb1EE8infinityB7v180000Ev
	.loc	12 482 83 epilogue_begin is_stmt 0 @ D:\Embed\MDK\MDK\ARM\ARMCompilerV621\Bin\..\include\libcxx\limits:482:83
	pop	{r7, pc}
.Ltmp372:
.Lfunc_end65:
	.size	_ZNSt3__214numeric_limitsIfE8infinityB7v180000Ev, .Lfunc_end65-_ZNSt3__214numeric_limitsIfE8infinityB7v180000Ev
	.cfi_endproc
	.cantunwind
	.fnend
                                        @ -- End function
	.section	.text._ZNSt3__223__libcpp_numeric_limitsIfLb1EE8infinityB7v180000Ev,"axG",%progbits,_ZNSt3__223__libcpp_numeric_limitsIfLb1EE8infinityB7v180000Ev,comdat
	.hidden	_ZNSt3__223__libcpp_numeric_limitsIfLb1EE8infinityB7v180000Ev @ -- Begin function _ZNSt3__223__libcpp_numeric_limitsIfLb1EE8infinityB7v180000Ev
	.weak	_ZNSt3__223__libcpp_numeric_limitsIfLb1EE8infinityB7v180000Ev
	.p2align	2
	.type	_ZNSt3__223__libcpp_numeric_limitsIfLb1EE8infinityB7v180000Ev,%function
	.code	16                              @ @_ZNSt3__223__libcpp_numeric_limitsIfLb1EE8infinityB7v180000Ev
	.thumb_func
_ZNSt3__223__libcpp_numeric_limitsIfLb1EE8infinityB7v180000Ev:
.Lfunc_begin66:
	.loc	12 328 0 is_stmt 1              @ D:\Embed\MDK\MDK\ARM\ARMCompilerV621\Bin\..\include\libcxx\limits:328:0
	.fnstart
	.cfi_startproc
@ %bb.0:
	vldr	s0, .LCPI66_0
.Ltmp373:
	.loc	12 328 83 prologue_end          @ D:\Embed\MDK\MDK\ARM\ARMCompilerV621\Bin\..\include\libcxx\limits:328:83
	bx	lr
.Ltmp374:
	.p2align	2
@ %bb.1:
	.loc	12 0 83 is_stmt 0               @ D:\Embed\MDK\MDK\ARM\ARMCompilerV621\Bin\..\include\libcxx\limits:0:83
.LCPI66_0:
	.long	0x7f800000                      @ float +Inf
.Lfunc_end66:
	.size	_ZNSt3__223__libcpp_numeric_limitsIfLb1EE8infinityB7v180000Ev, .Lfunc_end66-_ZNSt3__223__libcpp_numeric_limitsIfLb1EE8infinityB7v180000Ev
	.cfi_endproc
	.cantunwind
	.fnend
                                        @ -- End function
	.section	.text._ZNSt3__227__optional_move_assign_baseI9Iph_ABC_tLb1EEC2Ev,"axG",%progbits,_ZNSt3__227__optional_move_assign_baseI9Iph_ABC_tLb1EEC2Ev,comdat
	.hidden	_ZNSt3__227__optional_move_assign_baseI9Iph_ABC_tLb1EEC2Ev @ -- Begin function _ZNSt3__227__optional_move_assign_baseI9Iph_ABC_tLb1EEC2Ev
	.weak	_ZNSt3__227__optional_move_assign_baseI9Iph_ABC_tLb1EEC2Ev
	.p2align	2
	.type	_ZNSt3__227__optional_move_assign_baseI9Iph_ABC_tLb1EEC2Ev,%function
	.code	16                              @ @_ZNSt3__227__optional_move_assign_baseI9Iph_ABC_tLb1EEC2Ev
	.thumb_func
_ZNSt3__227__optional_move_assign_baseI9Iph_ABC_tLb1EEC2Ev:
.Lfunc_begin67:
	.loc	6 638 0 is_stmt 1               @ D:\Embed\MDK\MDK\ARM\ARMCompilerV621\Bin\..\include\libcxx\optional:638:0
	.fnstart
	.cfi_startproc
@ %bb.0:
	.save	{r7, lr}
	push	{r7, lr}
	.cfi_def_cfa_offset 8
	.cfi_offset lr, -4
	.cfi_offset r7, -8
	.pad	#8
	sub	sp, #8
	.cfi_def_cfa_offset 16
	str	r0, [sp, #4]
	ldr	r0, [sp, #4]
.Ltmp375:
	.loc	6 638 8 prologue_end            @ D:\Embed\MDK\MDK\ARM\ARMCompilerV621\Bin\..\include\libcxx\optional:638:8
	str	r0, [sp]                        @ 4-byte Spill
	bl	_ZNSt3__227__optional_copy_assign_baseI9Iph_ABC_tLb1EEC2Ev
	ldr	r0, [sp]                        @ 4-byte Reload
	.loc	6 638 8 epilogue_begin is_stmt 0 @ D:\Embed\MDK\MDK\ARM\ARMCompilerV621\Bin\..\include\libcxx\optional:638:8
	add	sp, #8
	pop	{r7, pc}
.Ltmp376:
.Lfunc_end67:
	.size	_ZNSt3__227__optional_move_assign_baseI9Iph_ABC_tLb1EEC2Ev, .Lfunc_end67-_ZNSt3__227__optional_move_assign_baseI9Iph_ABC_tLb1EEC2Ev
	.cfi_endproc
	.cantunwind
	.fnend
                                        @ -- End function
	.section	.text._ZNSt3__227__optional_copy_assign_baseI9Iph_ABC_tLb1EEC2Ev,"axG",%progbits,_ZNSt3__227__optional_copy_assign_baseI9Iph_ABC_tLb1EEC2Ev,comdat
	.hidden	_ZNSt3__227__optional_copy_assign_baseI9Iph_ABC_tLb1EEC2Ev @ -- Begin function _ZNSt3__227__optional_copy_assign_baseI9Iph_ABC_tLb1EEC2Ev
	.weak	_ZNSt3__227__optional_copy_assign_baseI9Iph_ABC_tLb1EEC2Ev
	.p2align	2
	.type	_ZNSt3__227__optional_copy_assign_baseI9Iph_ABC_tLb1EEC2Ev,%function
	.code	16                              @ @_ZNSt3__227__optional_copy_assign_baseI9Iph_ABC_tLb1EEC2Ev
	.thumb_func
_ZNSt3__227__optional_copy_assign_baseI9Iph_ABC_tLb1EEC2Ev:
.Lfunc_begin68:
	.loc	6 606 0 is_stmt 1               @ D:\Embed\MDK\MDK\ARM\ARMCompilerV621\Bin\..\include\libcxx\optional:606:0
	.fnstart
	.cfi_startproc
@ %bb.0:
	.save	{r7, lr}
	push	{r7, lr}
	.cfi_def_cfa_offset 8
	.cfi_offset lr, -4
	.cfi_offset r7, -8
	.pad	#8
	sub	sp, #8
	.cfi_def_cfa_offset 16
	str	r0, [sp, #4]
	ldr	r0, [sp, #4]
.Ltmp377:
	.loc	6 606 8 prologue_end            @ D:\Embed\MDK\MDK\ARM\ARMCompilerV621\Bin\..\include\libcxx\optional:606:8
	str	r0, [sp]                        @ 4-byte Spill
	bl	_ZNSt3__220__optional_move_baseI9Iph_ABC_tLb1EEC2Ev
	ldr	r0, [sp]                        @ 4-byte Reload
	.loc	6 606 8 epilogue_begin is_stmt 0 @ D:\Embed\MDK\MDK\ARM\ARMCompilerV621\Bin\..\include\libcxx\optional:606:8
	add	sp, #8
	pop	{r7, pc}
.Ltmp378:
.Lfunc_end68:
	.size	_ZNSt3__227__optional_copy_assign_baseI9Iph_ABC_tLb1EEC2Ev, .Lfunc_end68-_ZNSt3__227__optional_copy_assign_baseI9Iph_ABC_tLb1EEC2Ev
	.cfi_endproc
	.cantunwind
	.fnend
                                        @ -- End function
	.section	.text._ZNSt3__220__optional_move_baseI9Iph_ABC_tLb1EEC2Ev,"axG",%progbits,_ZNSt3__220__optional_move_baseI9Iph_ABC_tLb1EEC2Ev,comdat
	.hidden	_ZNSt3__220__optional_move_baseI9Iph_ABC_tLb1EEC2Ev @ -- Begin function _ZNSt3__220__optional_move_baseI9Iph_ABC_tLb1EEC2Ev
	.weak	_ZNSt3__220__optional_move_baseI9Iph_ABC_tLb1EEC2Ev
	.p2align	2
	.type	_ZNSt3__220__optional_move_baseI9Iph_ABC_tLb1EEC2Ev,%function
	.code	16                              @ @_ZNSt3__220__optional_move_baseI9Iph_ABC_tLb1EEC2Ev
	.thumb_func
_ZNSt3__220__optional_move_baseI9Iph_ABC_tLb1EEC2Ev:
.Lfunc_begin69:
	.loc	6 573 0 is_stmt 1               @ D:\Embed\MDK\MDK\ARM\ARMCompilerV621\Bin\..\include\libcxx\optional:573:0
	.fnstart
	.cfi_startproc
@ %bb.0:
	.save	{r7, lr}
	push	{r7, lr}
	.cfi_def_cfa_offset 8
	.cfi_offset lr, -4
	.cfi_offset r7, -8
	.pad	#8
	sub	sp, #8
	.cfi_def_cfa_offset 16
	str	r0, [sp, #4]
	ldr	r0, [sp, #4]
.Ltmp379:
	.loc	6 573 8 prologue_end            @ D:\Embed\MDK\MDK\ARM\ARMCompilerV621\Bin\..\include\libcxx\optional:573:8
	str	r0, [sp]                        @ 4-byte Spill
	bl	_ZNSt3__220__optional_copy_baseI9Iph_ABC_tLb1EEC2Ev
	ldr	r0, [sp]                        @ 4-byte Reload
	.loc	6 573 8 epilogue_begin is_stmt 0 @ D:\Embed\MDK\MDK\ARM\ARMCompilerV621\Bin\..\include\libcxx\optional:573:8
	add	sp, #8
	pop	{r7, pc}
.Ltmp380:
.Lfunc_end69:
	.size	_ZNSt3__220__optional_move_baseI9Iph_ABC_tLb1EEC2Ev, .Lfunc_end69-_ZNSt3__220__optional_move_baseI9Iph_ABC_tLb1EEC2Ev
	.cfi_endproc
	.cantunwind
	.fnend
                                        @ -- End function
	.section	.text._ZNSt3__220__optional_copy_baseI9Iph_ABC_tLb1EEC2Ev,"axG",%progbits,_ZNSt3__220__optional_copy_baseI9Iph_ABC_tLb1EEC2Ev,comdat
	.hidden	_ZNSt3__220__optional_copy_baseI9Iph_ABC_tLb1EEC2Ev @ -- Begin function _ZNSt3__220__optional_copy_baseI9Iph_ABC_tLb1EEC2Ev
	.weak	_ZNSt3__220__optional_copy_baseI9Iph_ABC_tLb1EEC2Ev
	.p2align	2
	.type	_ZNSt3__220__optional_copy_baseI9Iph_ABC_tLb1EEC2Ev,%function
	.code	16                              @ @_ZNSt3__220__optional_copy_baseI9Iph_ABC_tLb1EEC2Ev
	.thumb_func
_ZNSt3__220__optional_copy_baseI9Iph_ABC_tLb1EEC2Ev:
.Lfunc_begin70:
	.loc	6 545 0 is_stmt 1               @ D:\Embed\MDK\MDK\ARM\ARMCompilerV621\Bin\..\include\libcxx\optional:545:0
	.fnstart
	.cfi_startproc
@ %bb.0:
	.save	{r7, lr}
	push	{r7, lr}
	.cfi_def_cfa_offset 8
	.cfi_offset lr, -4
	.cfi_offset r7, -8
	.pad	#8
	sub	sp, #8
	.cfi_def_cfa_offset 16
	str	r0, [sp, #4]
	ldr	r0, [sp, #4]
.Ltmp381:
	.loc	6 545 8 prologue_end            @ D:\Embed\MDK\MDK\ARM\ARMCompilerV621\Bin\..\include\libcxx\optional:545:8
	str	r0, [sp]                        @ 4-byte Spill
	bl	_ZNSt3__223__optional_storage_baseI9Iph_ABC_tLb0EEC2Ev
	ldr	r0, [sp]                        @ 4-byte Reload
	.loc	6 545 8 epilogue_begin is_stmt 0 @ D:\Embed\MDK\MDK\ARM\ARMCompilerV621\Bin\..\include\libcxx\optional:545:8
	add	sp, #8
	pop	{r7, pc}
.Ltmp382:
.Lfunc_end70:
	.size	_ZNSt3__220__optional_copy_baseI9Iph_ABC_tLb1EEC2Ev, .Lfunc_end70-_ZNSt3__220__optional_copy_baseI9Iph_ABC_tLb1EEC2Ev
	.cfi_endproc
	.cantunwind
	.fnend
                                        @ -- End function
	.section	.text._ZNSt3__223__optional_storage_baseI9Iph_ABC_tLb0EEC2Ev,"axG",%progbits,_ZNSt3__223__optional_storage_baseI9Iph_ABC_tLb0EEC2Ev,comdat
	.hidden	_ZNSt3__223__optional_storage_baseI9Iph_ABC_tLb0EEC2Ev @ -- Begin function _ZNSt3__223__optional_storage_baseI9Iph_ABC_tLb0EEC2Ev
	.weak	_ZNSt3__223__optional_storage_baseI9Iph_ABC_tLb0EEC2Ev
	.p2align	2
	.type	_ZNSt3__223__optional_storage_baseI9Iph_ABC_tLb0EEC2Ev,%function
	.code	16                              @ @_ZNSt3__223__optional_storage_baseI9Iph_ABC_tLb0EEC2Ev
	.thumb_func
_ZNSt3__223__optional_storage_baseI9Iph_ABC_tLb0EEC2Ev:
.Lfunc_begin71:
	.loc	6 378 0 is_stmt 1               @ D:\Embed\MDK\MDK\ARM\ARMCompilerV621\Bin\..\include\libcxx\optional:378:0
	.fnstart
	.cfi_startproc
@ %bb.0:
	.save	{r7, lr}
	push	{r7, lr}
	.cfi_def_cfa_offset 8
	.cfi_offset lr, -4
	.cfi_offset r7, -8
	.pad	#8
	sub	sp, #8
	.cfi_def_cfa_offset 16
	str	r0, [sp, #4]
	ldr	r0, [sp, #4]
.Ltmp383:
	.loc	6 378 8 prologue_end            @ D:\Embed\MDK\MDK\ARM\ARMCompilerV621\Bin\..\include\libcxx\optional:378:8
	str	r0, [sp]                        @ 4-byte Spill
	bl	_ZNSt3__224__optional_destruct_baseI9Iph_ABC_tLb1EEC2B7v180000Ev
	ldr	r0, [sp]                        @ 4-byte Reload
	.loc	6 378 8 epilogue_begin is_stmt 0 @ D:\Embed\MDK\MDK\ARM\ARMCompilerV621\Bin\..\include\libcxx\optional:378:8
	add	sp, #8
	pop	{r7, pc}
.Ltmp384:
.Lfunc_end71:
	.size	_ZNSt3__223__optional_storage_baseI9Iph_ABC_tLb0EEC2Ev, .Lfunc_end71-_ZNSt3__223__optional_storage_baseI9Iph_ABC_tLb0EEC2Ev
	.cfi_endproc
	.cantunwind
	.fnend
                                        @ -- End function
	.section	.text._ZNSt3__224__optional_destruct_baseI9Iph_ABC_tLb1EEC2B7v180000Ev,"axG",%progbits,_ZNSt3__224__optional_destruct_baseI9Iph_ABC_tLb1EEC2B7v180000Ev,comdat
	.hidden	_ZNSt3__224__optional_destruct_baseI9Iph_ABC_tLb1EEC2B7v180000Ev @ -- Begin function _ZNSt3__224__optional_destruct_baseI9Iph_ABC_tLb1EEC2B7v180000Ev
	.weak	_ZNSt3__224__optional_destruct_baseI9Iph_ABC_tLb1EEC2B7v180000Ev
	.p2align	2
	.type	_ZNSt3__224__optional_destruct_baseI9Iph_ABC_tLb1EEC2B7v180000Ev,%function
	.code	16                              @ @_ZNSt3__224__optional_destruct_baseI9Iph_ABC_tLb1EEC2B7v180000Ev
	.thumb_func
_ZNSt3__224__optional_destruct_baseI9Iph_ABC_tLb1EEC2B7v180000Ev:
.Lfunc_begin72:
	.loc	6 352 0 is_stmt 1               @ D:\Embed\MDK\MDK\ARM\ARMCompilerV621\Bin\..\include\libcxx\optional:352:0
	.fnstart
	.cfi_startproc
@ %bb.0:
	.pad	#4
	sub	sp, #4
	.cfi_def_cfa_offset 4
	str	r0, [sp]
	ldr	r0, [sp]
	movs	r1, #0
.Ltmp385:
	.loc	6 351 12 prologue_end           @ D:\Embed\MDK\MDK\ARM\ARMCompilerV621\Bin\..\include\libcxx\optional:351:12
	strb	r1, [r0]
	.loc	6 352 12                        @ D:\Embed\MDK\MDK\ARM\ARMCompilerV621\Bin\..\include\libcxx\optional:352:12
	strb	r1, [r0, #12]
	.loc	6 352 31 epilogue_begin is_stmt 0 @ D:\Embed\MDK\MDK\ARM\ARMCompilerV621\Bin\..\include\libcxx\optional:352:31
	add	sp, #4
	bx	lr
.Ltmp386:
.Lfunc_end72:
	.size	_ZNSt3__224__optional_destruct_baseI9Iph_ABC_tLb1EEC2B7v180000Ev, .Lfunc_end72-_ZNSt3__224__optional_destruct_baseI9Iph_ABC_tLb1EEC2B7v180000Ev
	.cfi_endproc
	.cantunwind
	.fnend
                                        @ -- End function
	.section	.text._ZN24AlphaBetaFrameControllerC2Ev,"axG",%progbits,_ZN24AlphaBetaFrameControllerC2Ev,comdat
	.hidden	_ZN24AlphaBetaFrameControllerC2Ev @ -- Begin function _ZN24AlphaBetaFrameControllerC2Ev
	.weak	_ZN24AlphaBetaFrameControllerC2Ev
	.p2align	2
	.type	_ZN24AlphaBetaFrameControllerC2Ev,%function
	.code	16                              @ @_ZN24AlphaBetaFrameControllerC2Ev
	.thumb_func
_ZN24AlphaBetaFrameControllerC2Ev:
.Lfunc_begin73:
	.loc	23 73 0 is_stmt 1               @ ../MotorControl/phase_control_law.hpp:73:0
	.fnstart
	.cfi_startproc
@ %bb.0:
	.save	{r7, lr}
	push	{r7, lr}
	.cfi_def_cfa_offset 8
	.cfi_offset lr, -4
	.cfi_offset r7, -8
	.pad	#8
	sub	sp, #8
	.cfi_def_cfa_offset 16
	str	r0, [sp, #4]
	ldr	r0, [sp, #4]
.Ltmp387:
	.loc	23 73 7 prologue_end            @ ../MotorControl/phase_control_law.hpp:73:7
	str	r0, [sp]                        @ 4-byte Spill
	bl	_ZN15PhaseControlLawILj3EEC2Ev
	ldr	r0, [sp]                        @ 4-byte Reload
	movw	r1, :lower16:_ZTV24AlphaBetaFrameController
	movt	r1, :upper16:_ZTV24AlphaBetaFrameController
	adds	r1, #8
	str	r1, [r0]
	.loc	23 73 7 epilogue_begin is_stmt 0 @ ../MotorControl/phase_control_law.hpp:73:7
	add	sp, #8
	pop	{r7, pc}
.Ltmp388:
.Lfunc_end73:
	.size	_ZN24AlphaBetaFrameControllerC2Ev, .Lfunc_end73-_ZN24AlphaBetaFrameControllerC2Ev
	.cfi_endproc
	.cantunwind
	.fnend
                                        @ -- End function
	.section	.text._ZN13ComponentBaseC2Ev,"axG",%progbits,_ZN13ComponentBaseC2Ev,comdat
	.hidden	_ZN13ComponentBaseC2Ev          @ -- Begin function _ZN13ComponentBaseC2Ev
	.weak	_ZN13ComponentBaseC2Ev
	.p2align	2
	.type	_ZN13ComponentBaseC2Ev,%function
	.code	16                              @ @_ZN13ComponentBaseC2Ev
	.thumb_func
_ZN13ComponentBaseC2Ev:
.Lfunc_begin74:
	.loc	22 8 0 is_stmt 1                @ ../../Firmware\MotorControl/component.hpp:8:0
	.fnstart
	.cfi_startproc
@ %bb.0:
	.pad	#4
	sub	sp, #4
	.cfi_def_cfa_offset 4
	str	r0, [sp]
	ldr	r0, [sp]
.Ltmp389:
	.loc	22 8 7 prologue_end             @ ../../Firmware\MotorControl/component.hpp:8:7
	movw	r1, :lower16:_ZTV13ComponentBase
	movt	r1, :upper16:_ZTV13ComponentBase
	adds	r1, #8
	str	r1, [r0]
	.loc	22 8 7 epilogue_begin is_stmt 0 @ ../../Firmware\MotorControl/component.hpp:8:7
	add	sp, #4
	bx	lr
.Ltmp390:
.Lfunc_end74:
	.size	_ZN13ComponentBaseC2Ev, .Lfunc_end74-_ZN13ComponentBaseC2Ev
	.cfi_endproc
	.cantunwind
	.fnend
                                        @ -- End function
	.section	.text._ZNSt3__28optionalINS_4pairIffEEEC2B7v180000Ev,"axG",%progbits,_ZNSt3__28optionalINS_4pairIffEEEC2B7v180000Ev,comdat
	.hidden	_ZNSt3__28optionalINS_4pairIffEEEC2B7v180000Ev @ -- Begin function _ZNSt3__28optionalINS_4pairIffEEEC2B7v180000Ev
	.weak	_ZNSt3__28optionalINS_4pairIffEEEC2B7v180000Ev
	.p2align	2
	.type	_ZNSt3__28optionalINS_4pairIffEEEC2B7v180000Ev,%function
	.code	16                              @ @_ZNSt3__28optionalINS_4pairIffEEEC2B7v180000Ev
	.thumb_func
_ZNSt3__28optionalINS_4pairIffEEEC2B7v180000Ev:
.Lfunc_begin75:
	.loc	6 800 0 is_stmt 1               @ D:\Embed\MDK\MDK\ARM\ARMCompilerV621\Bin\..\include\libcxx\optional:800:0
	.fnstart
	.cfi_startproc
@ %bb.0:
	.save	{r7, lr}
	push	{r7, lr}
	.cfi_def_cfa_offset 8
	.cfi_offset lr, -4
	.cfi_offset r7, -8
	.pad	#8
	sub	sp, #8
	.cfi_def_cfa_offset 16
	str	r0, [sp, #4]
	ldr	r0, [sp, #4]
.Ltmp391:
	.loc	6 800 41 prologue_end           @ D:\Embed\MDK\MDK\ARM\ARMCompilerV621\Bin\..\include\libcxx\optional:800:41
	str	r0, [sp]                        @ 4-byte Spill
	bl	_ZNSt3__227__optional_move_assign_baseINS_4pairIffEELb0EEC2B7v180000Ev
	ldr	r0, [sp]                        @ 4-byte Reload
	.loc	6 800 62 epilogue_begin is_stmt 0 @ D:\Embed\MDK\MDK\ARM\ARMCompilerV621\Bin\..\include\libcxx\optional:800:62
	add	sp, #8
	pop	{r7, pc}
.Ltmp392:
.Lfunc_end75:
	.size	_ZNSt3__28optionalINS_4pairIffEEEC2B7v180000Ev, .Lfunc_end75-_ZNSt3__28optionalINS_4pairIffEEEC2B7v180000Ev
	.cfi_endproc
	.cantunwind
	.fnend
                                        @ -- End function
	.section	.text._ZN9InputPortINSt3__24pairIffEEEC2Ev,"axG",%progbits,_ZN9InputPortINSt3__24pairIffEEEC2Ev,comdat
	.hidden	_ZN9InputPortINSt3__24pairIffEEEC2Ev @ -- Begin function _ZN9InputPortINSt3__24pairIffEEEC2Ev
	.weak	_ZN9InputPortINSt3__24pairIffEEEC2Ev
	.p2align	2
	.type	_ZN9InputPortINSt3__24pairIffEEEC2Ev,%function
	.code	16                              @ @_ZN9InputPortINSt3__24pairIffEEEC2Ev
	.thumb_func
_ZN9InputPortINSt3__24pairIffEEEC2Ev:
.Lfunc_begin76:
	.loc	22 123 0 is_stmt 1              @ ../../Firmware\MotorControl/component.hpp:123:0
	.fnstart
	.cfi_startproc
@ %bb.0:
	.save	{r7, lr}
	push	{r7, lr}
	.cfi_def_cfa_offset 8
	.cfi_offset lr, -4
	.cfi_offset r7, -8
	.pad	#8
	sub	sp, #8
	.cfi_def_cfa_offset 16
	str	r0, [sp, #4]
	ldr	r0, [sp, #4]
.Ltmp393:
	.loc	22 123 7 prologue_end           @ ../../Firmware\MotorControl/component.hpp:123:7
	str	r0, [sp]                        @ 4-byte Spill
	bl	_ZNSt3__27variantIJNS_4pairIffEEPS2_P10OutputPortIS2_EEEC2B7v180000ILb1ELi0EEEv
	ldr	r0, [sp]                        @ 4-byte Reload
	.loc	22 123 7 epilogue_begin is_stmt 0 @ ../../Firmware\MotorControl/component.hpp:123:7
	add	sp, #8
	pop	{r7, pc}
.Ltmp394:
.Lfunc_end76:
	.size	_ZN9InputPortINSt3__24pairIffEEEC2Ev, .Lfunc_end76-_ZN9InputPortINSt3__24pairIffEEEC2Ev
	.cfi_endproc
	.cantunwind
	.fnend
                                        @ -- End function
	.section	.text._ZN15PhaseControlLawILj3EEC2Ev,"axG",%progbits,_ZN15PhaseControlLawILj3EEC2Ev,comdat
	.hidden	_ZN15PhaseControlLawILj3EEC2Ev  @ -- Begin function _ZN15PhaseControlLawILj3EEC2Ev
	.weak	_ZN15PhaseControlLawILj3EEC2Ev
	.p2align	2
	.type	_ZN15PhaseControlLawILj3EEC2Ev,%function
	.code	16                              @ @_ZN15PhaseControlLawILj3EEC2Ev
	.thumb_func
_ZN15PhaseControlLawILj3EEC2Ev:
.Lfunc_begin77:
	.loc	23 8 0 is_stmt 1                @ ../MotorControl/phase_control_law.hpp:8:0
	.fnstart
	.cfi_startproc
@ %bb.0:
	.pad	#4
	sub	sp, #4
	.cfi_def_cfa_offset 4
	str	r0, [sp]
	ldr	r0, [sp]
.Ltmp395:
	.loc	23 8 7 prologue_end             @ ../MotorControl/phase_control_law.hpp:8:7
	movw	r1, :lower16:_ZTV15PhaseControlLawILj3EE
	movt	r1, :upper16:_ZTV15PhaseControlLawILj3EE
	adds	r1, #8
	str	r1, [r0]
	.loc	23 8 7 epilogue_begin is_stmt 0 @ ../MotorControl/phase_control_law.hpp:8:7
	add	sp, #4
	bx	lr
.Ltmp396:
.Lfunc_end77:
	.size	_ZN15PhaseControlLawILj3EEC2Ev, .Lfunc_end77-_ZN15PhaseControlLawILj3EEC2Ev
	.cfi_endproc
	.cantunwind
	.fnend
                                        @ -- End function
	.section	.text._ZNSt3__227__optional_move_assign_baseINS_4pairIffEELb0EEC2B7v180000Ev,"axG",%progbits,_ZNSt3__227__optional_move_assign_baseINS_4pairIffEELb0EEC2B7v180000Ev,comdat
	.hidden	_ZNSt3__227__optional_move_assign_baseINS_4pairIffEELb0EEC2B7v180000Ev @ -- Begin function _ZNSt3__227__optional_move_assign_baseINS_4pairIffEELb0EEC2B7v180000Ev
	.weak	_ZNSt3__227__optional_move_assign_baseINS_4pairIffEELb0EEC2B7v180000Ev
	.p2align	2
	.type	_ZNSt3__227__optional_move_assign_baseINS_4pairIffEELb0EEC2B7v180000Ev,%function
	.code	16                              @ @_ZNSt3__227__optional_move_assign_baseINS_4pairIffEELb0EEC2B7v180000Ev
	.thumb_func
_ZNSt3__227__optional_move_assign_baseINS_4pairIffEELb0EEC2B7v180000Ev:
.Lfunc_begin78:
	.loc	6 650 0 is_stmt 1               @ D:\Embed\MDK\MDK\ARM\ARMCompilerV621\Bin\..\include\libcxx\optional:650:0
	.fnstart
	.cfi_startproc
@ %bb.0:
	.save	{r7, lr}
	push	{r7, lr}
	.cfi_def_cfa_offset 8
	.cfi_offset lr, -4
	.cfi_offset r7, -8
	.pad	#8
	sub	sp, #8
	.cfi_def_cfa_offset 16
	str	r0, [sp, #4]
	ldr	r0, [sp, #4]
.Ltmp397:
	.loc	6 650 5 prologue_end            @ D:\Embed\MDK\MDK\ARM\ARMCompilerV621\Bin\..\include\libcxx\optional:650:5
	str	r0, [sp]                        @ 4-byte Spill
	bl	_ZNSt3__227__optional_copy_assign_baseINS_4pairIffEELb0EEC2B7v180000Ev
	ldr	r0, [sp]                        @ 4-byte Reload
	.loc	6 650 43 epilogue_begin is_stmt 0 @ D:\Embed\MDK\MDK\ARM\ARMCompilerV621\Bin\..\include\libcxx\optional:650:43
	add	sp, #8
	pop	{r7, pc}
.Ltmp398:
.Lfunc_end78:
	.size	_ZNSt3__227__optional_move_assign_baseINS_4pairIffEELb0EEC2B7v180000Ev, .Lfunc_end78-_ZNSt3__227__optional_move_assign_baseINS_4pairIffEELb0EEC2B7v180000Ev
	.cfi_endproc
	.cantunwind
	.fnend
                                        @ -- End function
	.section	.text._ZNSt3__227__optional_copy_assign_baseINS_4pairIffEELb0EEC2B7v180000Ev,"axG",%progbits,_ZNSt3__227__optional_copy_assign_baseINS_4pairIffEELb0EEC2B7v180000Ev,comdat
	.hidden	_ZNSt3__227__optional_copy_assign_baseINS_4pairIffEELb0EEC2B7v180000Ev @ -- Begin function _ZNSt3__227__optional_copy_assign_baseINS_4pairIffEELb0EEC2B7v180000Ev
	.weak	_ZNSt3__227__optional_copy_assign_baseINS_4pairIffEELb0EEC2B7v180000Ev
	.p2align	2
	.type	_ZNSt3__227__optional_copy_assign_baseINS_4pairIffEELb0EEC2B7v180000Ev,%function
	.code	16                              @ @_ZNSt3__227__optional_copy_assign_baseINS_4pairIffEELb0EEC2B7v180000Ev
	.thumb_func
_ZNSt3__227__optional_copy_assign_baseINS_4pairIffEELb0EEC2B7v180000Ev:
.Lfunc_begin79:
