	.text
	.syntax unified
	.eabi_attribute	67, "2.09"	@ Tag_conformance
	.cpu	cortex-m4
	.eabi_attribute	6, 13	@ Tag_CPU_arch
	.eabi_attribute	7, 77	@ Tag_CPU_arch_profile
	.eabi_attribute	8, 0	@ Tag_ARM_ISA_use
	.eabi_attribute	9, 2	@ Tag_THUMB_ISA_use
	.fpu	fpv4-sp-d16
	.eabi_attribute	27, 1	@ Tag_ABI_HardFP_use
	.eabi_attribute	36, 1	@ Tag_FP_HP_extension
	.eabi_attribute	34, 1	@ Tag_CPU_unaligned_access
	.eabi_attribute	17, 1	@ Tag_ABI_PCS_GOT_use
	.eabi_attribute	20, 2	@ Tag_ABI_FP_denormal
	.eabi_attribute	21, 0	@ Tag_ABI_FP_exceptions
	.eabi_attribute	23, 1	@ Tag_ABI_FP_number_model
	.eabi_attribute	24, 1	@ Tag_ABI_align_needed
	.eabi_attribute	25, 1	@ Tag_ABI_align_preserved
	.eabi_attribute	28, 1	@ Tag_ABI_VFP_args
	.eabi_attribute	38, 1	@ Tag_ABI_FP_16bit_format
	.eabi_attribute	18, 2	@ Tag_ABI_PCS_wchar_t
	.eabi_attribute	26, 1	@ Tag_ABI_enum_size
	.eabi_attribute	14, 0	@ Tag_ABI_PCS_R9_use
	.file	"odrive_can.cpp"
	.file	1 "D:\\ikingtec\\Robot\\ODrive\\Firmware\\MDK-ARM" "../communication/can/odrive_can.cpp"
	.file	2 "D:\\Embed\\MDK\\MDK\\ARM\\ARMCompilerV621\\Bin\\..\\include\\libcxx" "variant"
	.file	3 "D:\\Embed\\MDK\\MDK\\ARM\\ARMCompilerV621\\Bin\\..\\include" "time.h"
	.file	4 "D:\\Embed\\MDK\\MDK\\ARM\\ARMCompilerV621\\Bin\\..\\include\\libcxx\\__utility" "in_place.h"
	.file	5 "D:\\ikingtec\\Robot\\ODrive\\Firmware\\MDK-ARM" "../ThirdParty/STM32F4xx_HAL_Driver/Inc/stm32f4xx_hal_def.h"
	.file	6 "D:\\ikingtec\\Robot\\ODrive\\Firmware\\MDK-ARM" "../ThirdParty/CMSIS/Device/ST/STM32F4xx/Include\\stm32f4xx.h"
	.file	7 "D:\\ikingtec\\Robot\\ODrive\\Firmware\\MDK-ARM" "../ThirdParty/STM32F4xx_HAL_Driver/Inc\\stm32f4xx_hal_can.h"
	.file	8 "D:\\ikingtec\\Robot\\ODrive\\Firmware\\MDK-ARM" "../ThirdParty/FreeRTOS/Source/CMSIS_RTOS\\cmsis_os.h"
	.file	9 "D:\\ikingtec\\Robot\\ODrive\\Firmware\\MDK-ARM" "../../Firmware\\autogen/interfaces.hpp"
	.file	10 "D:\\Embed\\MDK\\MDK\\ARM\\ARMCompilerV621\\Bin\\..\\include" "stdint.h"
	.file	11 "D:\\ikingtec\\Robot\\ODrive\\Firmware\\MDK-ARM" "../communication/can/odrive_can.hpp"
	.file	12 "D:\\ikingtec\\Robot\\ODrive\\Firmware\\MDK-ARM" "../ThirdParty/FreeRTOS/Source/include\\task.h"
	.file	13 "D:\\ikingtec\\Robot\\ODrive\\Firmware\\MDK-ARM" "../communication/can/canbus.hpp"
	.file	14 "D:\\ikingtec\\Robot\\ODrive\\Firmware\\MDK-ARM" "../communication/can/can_helpers.hpp"
	.file	15 "D:\\Embed\\MDK\\MDK\\ARM\\ARMCompilerV621\\Bin\\..\\include\\libcxx" "array"
	.file	16 "D:\\ikingtec\\Robot\\ODrive\\Firmware\\MDK-ARM" "../ThirdParty/CMSIS/Device/ST/STM32F4xx/Include/stm32f405xx.h"
	.file	17 "D:\\Embed\\MDK\\MDK\\ARM\\ARMCompilerV621\\Bin\\..\\include\\libcxx\\__tuple" "sfinae_helpers.h"
	.file	18 "D:\\Embed\\MDK\\MDK\\ARM\\ARMCompilerV621\\Bin\\..\\include\\libcxx\\__type_traits" "underlying_type.h"
	.section	.text._ZN9ODriveCAN12apply_configEv,"ax",%progbits
	.hidden	_ZN9ODriveCAN12apply_configEv   @ -- Begin function _ZN9ODriveCAN12apply_configEv
	.globl	_ZN9ODriveCAN12apply_configEv
	.p2align	2
	.type	_ZN9ODriveCAN12apply_configEv,%function
	.code	16                              @ @_ZN9ODriveCAN12apply_configEv
	.thumb_func
_ZN9ODriveCAN12apply_configEv:
.Lfunc_begin0:
	.loc	1 14 0                          @ ../communication/can/odrive_can.cpp:14:0
	.fnstart
	.cfi_sections .debug_frame
	.cfi_startproc
@ %bb.0:
	.save	{r7, lr}
	push	{r7, lr}
	.cfi_def_cfa_offset 8
	.cfi_offset lr, -4
	.cfi_offset r7, -8
	.pad	#8
	sub	sp, #8
	.cfi_def_cfa_offset 16
	str	r0, [sp, #4]
	ldr	r0, [sp, #4]
.Ltmp0:
	.loc	1 15 20 prologue_end            @ ../communication/can/odrive_can.cpp:15:20
	str	r0, [r0, #16]
	.loc	1 16 27                         @ ../communication/can/odrive_can.cpp:16:27
	ldr	r1, [r0, #8]
	.loc	1 16 5 is_stmt 0                @ ../communication/can/odrive_can.cpp:16:5
	bl	_ZN9ODriveCAN13set_baud_rateEj
	movs	r0, #1
	.loc	1 17 5 epilogue_begin is_stmt 1 @ ../communication/can/odrive_can.cpp:17:5
	add	sp, #8
	pop	{r7, pc}
.Ltmp1:
.Lfunc_end0:
	.size	_ZN9ODriveCAN12apply_configEv, .Lfunc_end0-_ZN9ODriveCAN12apply_configEv
	.cfi_endproc
	.cantunwind
	.fnend
                                        @ -- End function
	.section	.text._ZN9ODriveCAN13set_baud_rateEj,"ax",%progbits
	.hidden	_ZN9ODriveCAN13set_baud_rateEj  @ -- Begin function _ZN9ODriveCAN13set_baud_rateEj
	.globl	_ZN9ODriveCAN13set_baud_rateEj
	.p2align	2
	.type	_ZN9ODriveCAN13set_baud_rateEj,%function
	.code	16                              @ @_ZN9ODriveCAN13set_baud_rateEj
	.thumb_func
_ZN9ODriveCAN13set_baud_rateEj:
.Lfunc_begin1:
	.loc	1 79 0                          @ ../communication/can/odrive_can.cpp:79:0
	.fnstart
	.cfi_startproc
@ %bb.0:
	.save	{r7, lr}
	push	{r7, lr}
	.cfi_def_cfa_offset 8
	.cfi_offset lr, -4
	.cfi_offset r7, -8
	.pad	#24
	sub	sp, #24
	.cfi_def_cfa_offset 32
	str	r0, [sp, #16]
	str	r1, [sp, #12]
	ldr	r0, [sp, #16]
.Ltmp2:
	.loc	1 80 37 prologue_end            @ ../communication/can/odrive_can.cpp:80:37
	str	r0, [sp, #4]                    @ 4-byte Spill
	ldr	r0, [sp, #12]
	movw	r1, #33920
	movt	r1, #30
	.loc	1 80 35 is_stmt 0               @ ../communication/can/odrive_can.cpp:80:35
	udiv	r0, r1, r0
	.loc	1 80 14                         @ ../communication/can/odrive_can.cpp:80:14
	str	r0, [sp, #8]
.Ltmp3:
	.loc	1 81 9 is_stmt 1                @ ../communication/can/odrive_can.cpp:81:9
	ldr	r0, [sp, #8]
	.loc	1 81 21 is_stmt 0               @ ../communication/can/odrive_can.cpp:81:21
	ldr	r2, [sp, #12]
	.loc	1 81 19                         @ ../communication/can/odrive_can.cpp:81:19
	muls	r0, r2, r0
.Ltmp4:
	.loc	1 81 9                          @ ../communication/can/odrive_can.cpp:81:9
	cmp	r0, r1
	bne	.LBB1_4
	b	.LBB1_1
.LBB1_1:
.Ltmp5:
	.loc	1 83 29 is_stmt 1               @ ../communication/can/odrive_can.cpp:83:29
	ldr	r0, [sp, #4]                    @ 4-byte Reload
	ldr	r1, [sp, #12]
	.loc	1 83 27 is_stmt 0               @ ../communication/can/odrive_can.cpp:83:27
	str	r1, [r0, #8]
.Ltmp6:
	.loc	1 84 13 is_stmt 1               @ ../communication/can/odrive_can.cpp:84:13
	ldr.w	r0, [r0, #148]
.Ltmp7:
	.loc	1 84 13 is_stmt 0               @ ../communication/can/odrive_can.cpp:84:13
	cbz	r0, .LBB1_3
	b	.LBB1_2
.LBB1_2:
.Ltmp8:
	.loc	1 85 39 is_stmt 1               @ ../communication/can/odrive_can.cpp:85:39
	ldr	r0, [sp, #4]                    @ 4-byte Reload
	ldr	r1, [sp, #8]
	.loc	1 85 13 is_stmt 0               @ ../communication/can/odrive_can.cpp:85:13
	ldr.w	r2, [r0, #148]
	.loc	1 85 37                         @ ../communication/can/odrive_can.cpp:85:37
	str	r1, [r2, #4]
	.loc	1 86 20 is_stmt 1               @ ../communication/can/odrive_can.cpp:86:20
	bl	_ZN9ODriveCAN6reinitEv
	.loc	1 86 13 is_stmt 0               @ ../communication/can/odrive_can.cpp:86:13
	strb.w	r0, [sp, #23]
	b	.LBB1_5
.Ltmp9:
.LBB1_3:
	.loc	1 0 13                          @ ../communication/can/odrive_can.cpp:0:13
	movs	r0, #1
	.loc	1 88 9 is_stmt 1                @ ../communication/can/odrive_can.cpp:88:9
	strb.w	r0, [sp, #23]
	b	.LBB1_5
.Ltmp10:
.LBB1_4:
	.loc	1 0 9 is_stmt 0                 @ ../communication/can/odrive_can.cpp:0:9
	movs	r0, #0
.Ltmp11:
	.loc	1 91 9 is_stmt 1                @ ../communication/can/odrive_can.cpp:91:9
	strb.w	r0, [sp, #23]
	b	.LBB1_5
.Ltmp12:
.LBB1_5:
	.loc	1 93 1                          @ ../communication/can/odrive_can.cpp:93:1
	ldrb.w	r0, [sp, #23]
	.loc	1 93 1 epilogue_begin is_stmt 0 @ ../communication/can/odrive_can.cpp:93:1
	add	sp, #24
	pop	{r7, pc}
.Ltmp13:
.Lfunc_end1:
	.size	_ZN9ODriveCAN13set_baud_rateEj, .Lfunc_end1-_ZN9ODriveCAN13set_baud_rateEj
	.cfi_endproc
	.cantunwind
	.fnend
                                        @ -- End function
	.section	.text._ZN9ODriveCAN6reinitEv,"ax",%progbits
	.hidden	_ZN9ODriveCAN6reinitEv          @ -- Begin function _ZN9ODriveCAN6reinitEv
	.globl	_ZN9ODriveCAN6reinitEv
	.p2align	2
	.type	_ZN9ODriveCAN6reinitEv,%function
	.code	16                              @ @_ZN9ODriveCAN6reinitEv
	.thumb_func
_ZN9ODriveCAN6reinitEv:
.Lfunc_begin2:
	.loc	1 20 0 is_stmt 1                @ ../communication/can/odrive_can.cpp:20:0
	.fnstart
	.cfi_startproc
@ %bb.0:
	.save	{r7, lr}
	push	{r7, lr}
	.cfi_def_cfa_offset 8
	.cfi_offset lr, -4
	.cfi_offset r7, -8
	.pad	#16
	sub	sp, #16
	.cfi_def_cfa_offset 24
	str	r0, [sp, #12]
	ldr	r0, [sp, #12]
.Ltmp14:
	.loc	1 21 18 prologue_end            @ ../communication/can/odrive_can.cpp:21:18
	str	r0, [sp, #4]                    @ 4-byte Spill
	ldr.w	r0, [r0, #148]
	.loc	1 21 5 is_stmt 0                @ ../communication/can/odrive_can.cpp:21:5
	bl	HAL_CAN_Stop
                                        @ kill: def $r1 killed $r0
	.loc	1 22 24 is_stmt 1               @ ../communication/can/odrive_can.cpp:22:24
	ldr	r0, [sp, #4]                    @ 4-byte Reload
	ldr.w	r0, [r0, #148]
	.loc	1 22 5 is_stmt 0                @ ../communication/can/odrive_can.cpp:22:5
	bl	HAL_CAN_ResetError
                                        @ kill: def $r1 killed $r0
	.loc	1 23 26 is_stmt 1               @ ../communication/can/odrive_can.cpp:23:26
	ldr	r0, [sp, #4]                    @ 4-byte Reload
	ldr.w	r0, [r0, #148]
	.loc	1 23 13 is_stmt 0               @ ../communication/can/odrive_can.cpp:23:13
	bl	HAL_CAN_Init
	mov	r1, r0
	movs	r0, #0
	.loc	1 24 9 is_stmt 1                @ ../communication/can/odrive_can.cpp:24:9
	str	r0, [sp, #8]                    @ 4-byte Spill
	cbnz	r1, .LBB2_3
	b	.LBB2_1
.LBB2_1:
	.loc	1 24 27 is_stmt 0               @ ../communication/can/odrive_can.cpp:24:27
	ldr	r0, [sp, #4]                    @ 4-byte Reload
	ldr.w	r0, [r0, #148]
	.loc	1 24 13                         @ ../communication/can/odrive_can.cpp:24:13
	bl	HAL_CAN_Start
	mov	r1, r0
	movs	r0, #0
	.loc	1 25 9 is_stmt 1                @ ../communication/can/odrive_can.cpp:25:9
	str	r0, [sp, #8]                    @ 4-byte Spill
	cbnz	r1, .LBB2_3
	b	.LBB2_2
.LBB2_2:
	.loc	1 25 42 is_stmt 0               @ ../communication/can/odrive_can.cpp:25:42
	ldr	r0, [sp, #4]                    @ 4-byte Reload
	ldr.w	r0, [r0, #148]
	movs	r1, #19
	.loc	1 25 13                         @ ../communication/can/odrive_can.cpp:25:13
	bl	HAL_CAN_ActivateNotification
	.loc	1 25 136                        @ ../communication/can/odrive_can.cpp:25:136
	clz	r0, r0
	lsrs	r0, r0, #5
	str	r0, [sp, #8]                    @ 4-byte Spill
	b	.LBB2_3
.LBB2_3:
	.loc	1 0 0                           @ ../communication/can/odrive_can.cpp:0:0
	ldr	r0, [sp, #8]                    @ 4-byte Reload
	.loc	1 23 5 is_stmt 1                @ ../communication/can/odrive_can.cpp:23:5
	and	r0, r0, #1
	.loc	1 23 5 epilogue_begin is_stmt 0 @ ../communication/can/odrive_can.cpp:23:5
	add	sp, #16
	pop	{r7, pc}
.Ltmp15:
.Lfunc_end2:
	.size	_ZN9ODriveCAN6reinitEv, .Lfunc_end2-_ZN9ODriveCAN6reinitEv
	.cfi_endproc
	.cantunwind
	.fnend
                                        @ -- End function
	.section	.text._ZN9ODriveCAN12start_serverEP19__CAN_HandleTypeDef,"ax",%progbits
	.hidden	_ZN9ODriveCAN12start_serverEP19__CAN_HandleTypeDef @ -- Begin function _ZN9ODriveCAN12start_serverEP19__CAN_HandleTypeDef
	.globl	_ZN9ODriveCAN12start_serverEP19__CAN_HandleTypeDef
	.p2align	2
	.type	_ZN9ODriveCAN12start_serverEP19__CAN_HandleTypeDef,%function
	.code	16                              @ @_ZN9ODriveCAN12start_serverEP19__CAN_HandleTypeDef
	.thumb_func
_ZN9ODriveCAN12start_serverEP19__CAN_HandleTypeDef:
.Lfunc_begin3:
	.loc	1 28 0 is_stmt 1                @ ../communication/can/odrive_can.cpp:28:0
	.fnstart
	.cfi_startproc
@ %bb.0:
	.save	{r7, lr}
	push	{r7, lr}
	.cfi_def_cfa_offset 8
	.cfi_offset lr, -4
	.cfi_offset r7, -8
	.pad	#40
	sub	sp, #40
	.cfi_def_cfa_offset 48
	str	r0, [sp, #32]
	str	r1, [sp, #28]
	ldr	r0, [sp, #32]
.Ltmp16:
	.loc	1 29 15 prologue_end            @ ../communication/can/odrive_can.cpp:29:15
	str	r0, [sp]                        @ 4-byte Spill
	ldr	r1, [sp, #28]
	.loc	1 29 13 is_stmt 0               @ ../communication/can/odrive_can.cpp:29:13
	str.w	r1, [r0, #148]
	.loc	1 31 50 is_stmt 1               @ ../communication/can/odrive_can.cpp:31:50
	ldr	r3, [r0, #8]
	.loc	1 31 5 is_stmt 0                @ ../communication/can/odrive_can.cpp:31:5
	ldr.w	r2, [r0, #148]
	movw	r1, #33920
	movt	r1, #30
	.loc	1 31 40                         @ ../communication/can/odrive_can.cpp:31:40
	udiv	r1, r1, r3
	.loc	1 31 29                         @ ../communication/can/odrive_can.cpp:31:29
	str	r1, [r2, #4]
.Ltmp17:
	.loc	1 32 10 is_stmt 1               @ ../communication/can/odrive_can.cpp:32:10
	bl	_ZN9ODriveCAN6reinitEv
.Ltmp18:
	.loc	1 32 9 is_stmt 0                @ ../communication/can/odrive_can.cpp:32:9
	cbnz	r0, .LBB3_2
	b	.LBB3_1
.LBB3_1:
	.loc	1 0 9                           @ ../communication/can/odrive_can.cpp:0:9
	movs	r0, #0
.Ltmp19:
	.loc	1 33 9 is_stmt 1                @ ../communication/can/odrive_can.cpp:33:9
	strb.w	r0, [sp, #39]
	b	.LBB3_3
.Ltmp20:
.LBB3_2:
	.loc	1 39 5                          @ ../communication/can/odrive_can.cpp:39:5
	movw	r0, :lower16:.L.str
	movt	r0, :upper16:.L.str
	str	r0, [sp, #4]
	add.w	r0, sp, #27
	bl	_ZZN9ODriveCAN12start_serverEP19__CAN_HandleTypeDefENK3$_0cvPFvPvEEv
	ldr	r1, [sp]                        @ 4-byte Reload
	str	r0, [sp, #8]
	movs	r0, #0
	strh.w	r0, [sp, #12]
	str	r0, [sp, #16]
	ldr	r0, [r1, #48]
	lsrs	r0, r0, #2
	str	r0, [sp, #20]
	add	r0, sp, #4
	.loc	1 40 18                         @ ../communication/can/odrive_can.cpp:40:18
	bl	osThreadCreate
	ldr	r1, [sp]                        @ 4-byte Reload
	.loc	1 40 16 is_stmt 0               @ ../communication/can/odrive_can.cpp:40:16
	str	r0, [r1, #44]
	movs	r0, #1
	.loc	1 42 5 is_stmt 1                @ ../communication/can/odrive_can.cpp:42:5
	strb.w	r0, [sp, #39]
	b	.LBB3_3
.LBB3_3:
	.loc	1 43 1                          @ ../communication/can/odrive_can.cpp:43:1
	ldrb.w	r0, [sp, #39]
	.loc	1 43 1 epilogue_begin is_stmt 0 @ ../communication/can/odrive_can.cpp:43:1
	add	sp, #40
	pop	{r7, pc}
.Ltmp21:
.Lfunc_end3:
	.size	_ZN9ODriveCAN12start_serverEP19__CAN_HandleTypeDef, .Lfunc_end3-_ZN9ODriveCAN12start_serverEP19__CAN_HandleTypeDef
	.cfi_endproc
	.cantunwind
	.fnend
                                        @ -- End function
	.section	".text._ZZN9ODriveCAN12start_serverEP19__CAN_HandleTypeDefENK3$_0cvPFvPvEEv","ax",%progbits
	.p2align	2                               @ -- Begin function _ZZN9ODriveCAN12start_serverEP19__CAN_HandleTypeDefENK3$_0cvPFvPvEEv
	.type	_ZZN9ODriveCAN12start_serverEP19__CAN_HandleTypeDefENK3$_0cvPFvPvEEv,%function
	.code	16                              @ @"_ZZN9ODriveCAN12start_serverEP19__CAN_HandleTypeDefENK3$_0cvPFvPvEEv"
	.thumb_func
_ZZN9ODriveCAN12start_serverEP19__CAN_HandleTypeDefENK3$_0cvPFvPvEEv:
.Lfunc_begin4:
	.loc	1 36 0 is_stmt 1                @ ../communication/can/odrive_can.cpp:36:0
	.fnstart
	.cfi_startproc
@ %bb.0:
	.pad	#4
	sub	sp, #4
	.cfi_def_cfa_offset 4
	str	r0, [sp]
.Ltmp22:
	.loc	1 36 20 prologue_end            @ ../communication/can/odrive_can.cpp:36:20
	movw	r0, :lower16:_ZZN9ODriveCAN12start_serverEP19__CAN_HandleTypeDefEN3$_08__invokeEPv
	movt	r0, :upper16:_ZZN9ODriveCAN12start_serverEP19__CAN_HandleTypeDefEN3$_08__invokeEPv
	.loc	1 36 20 epilogue_begin is_stmt 0 @ ../communication/can/odrive_can.cpp:36:20
	add	sp, #4
	bx	lr
.Ltmp23:
.Lfunc_end4:
	.size	_ZZN9ODriveCAN12start_serverEP19__CAN_HandleTypeDefENK3$_0cvPFvPvEEv, .Lfunc_end4-_ZZN9ODriveCAN12start_serverEP19__CAN_HandleTypeDefENK3$_0cvPFvPvEEv
	.cfi_endproc
	.cantunwind
	.fnend
                                        @ -- End function
	.section	.text._ZN9ODriveCAN17can_server_threadEv,"ax",%progbits
	.hidden	_ZN9ODriveCAN17can_server_threadEv @ -- Begin function _ZN9ODriveCAN17can_server_threadEv
	.globl	_ZN9ODriveCAN17can_server_threadEv
	.p2align	2
	.type	_ZN9ODriveCAN17can_server_threadEv,%function
	.code	16                              @ @_ZN9ODriveCAN17can_server_threadEv
	.thumb_func
_ZN9ODriveCAN17can_server_threadEv:
.Lfunc_begin5:
	.loc	1 45 0 is_stmt 1                @ ../communication/can/odrive_can.cpp:45:0
	.fnstart
	.cfi_startproc
@ %bb.0:
	.save	{r7, lr}
	push	{r7, lr}
	.cfi_def_cfa_offset 8
	.cfi_offset lr, -4
	.cfi_offset r7, -8
	.pad	#40
	sub	sp, #40
	.cfi_def_cfa_offset 48
	str	r0, [sp, #36]
	ldr	r0, [sp, #36]
.Ltmp24:
	.loc	1 46 33 prologue_end            @ ../communication/can/odrive_can.cpp:46:33
	str	r0, [sp, #12]                   @ 4-byte Spill
	ldrb	r0, [r0, #12]
	.loc	1 46 14 is_stmt 0               @ ../communication/can/odrive_can.cpp:46:14
	strb.w	r0, [sp, #35]
.Ltmp25:
	.loc	1 48 9 is_stmt 1                @ ../communication/can/odrive_can.cpp:48:9
	ldrb.w	r0, [sp, #35]
	movs	r1, #1
	.loc	1 48 18 is_stmt 0               @ ../communication/can/odrive_can.cpp:48:18
	bl	_ZanN10ODriveIntf7CanIntf8ProtocolES1_
.Ltmp26:
	.loc	1 48 9                          @ ../communication/can/odrive_can.cpp:48:9
	cbz	r0, .LBB5_2
	b	.LBB5_1
.LBB5_1:
.Ltmp27:
	.loc	1 49 9 is_stmt 1                @ ../communication/can/odrive_can.cpp:49:9
	ldr	r0, [sp, #12]                   @ 4-byte Reload
	adds	r0, #20
	.loc	1 49 21 is_stmt 0               @ ../communication/can/odrive_can.cpp:49:21
	bl	_ZN9CANSimple4initEv
	.loc	1 50 5 is_stmt 1                @ ../communication/can/odrive_can.cpp:50:5
	b	.LBB5_2
.Ltmp28:
.LBB5_2:
	.loc	1 52 5                          @ ../communication/can/odrive_can.cpp:52:5
	b	.LBB5_3
.LBB5_3:                                @ =>This Inner Loop Header: Depth=1
.Ltmp29:
	.loc	1 53 44                         @ ../communication/can/odrive_can.cpp:53:44
	ldr	r0, [sp, #12]                   @ 4-byte Reload
	ldr.w	r0, [r0, #148]
	.loc	1 53 27 is_stmt 0               @ ../communication/can/odrive_can.cpp:53:27
	bl	HAL_CAN_GetError
	.loc	1 53 18                         @ ../communication/can/odrive_can.cpp:53:18
	str	r0, [sp, #28]
.Ltmp30:
	.loc	1 54 13 is_stmt 1               @ ../communication/can/odrive_can.cpp:54:13
	ldr	r0, [sp, #28]
.Ltmp31:
	.loc	1 54 13 is_stmt 0               @ ../communication/can/odrive_can.cpp:54:13
	cbnz	r0, .LBB5_7
	b	.LBB5_4
.LBB5_4:                                @   in Loop: Header=BB5_3 Depth=1
	.loc	1 0 13                          @ ../communication/can/odrive_can.cpp:0:13
	mov.w	r0, #-1
.Ltmp32:
	.loc	1 55 22 is_stmt 1               @ ../communication/can/odrive_can.cpp:55:22
	str	r0, [sp, #24]
.Ltmp33:
	.loc	1 57 17                         @ ../communication/can/odrive_can.cpp:57:17
	ldrb.w	r0, [sp, #35]
	movs	r1, #1
	.loc	1 57 26 is_stmt 0               @ ../communication/can/odrive_can.cpp:57:26
	bl	_ZanN10ODriveIntf7CanIntf8ProtocolES1_
.Ltmp34:
	.loc	1 57 17                         @ ../communication/can/odrive_can.cpp:57:17
	cbz	r0, .LBB5_6
	b	.LBB5_5
.LBB5_5:                                @   in Loop: Header=BB5_3 Depth=1
.Ltmp35:
	.loc	1 58 46 is_stmt 1               @ ../communication/can/odrive_can.cpp:58:46
	ldr	r0, [sp, #12]                   @ 4-byte Reload
	adds	r0, #20
	.loc	1 58 58 is_stmt 0               @ ../communication/can/odrive_can.cpp:58:58
	bl	_ZN9CANSimple13service_stackEv
	.loc	1 58 46                         @ ../communication/can/odrive_can.cpp:58:46
	str	r0, [sp, #20]
	add	r0, sp, #20
	add	r1, sp, #24
	.loc	1 58 37                         @ ../communication/can/odrive_can.cpp:58:37
	bl	_ZNSt3__23minB7v180000IjEERKT_S3_S3_
	ldr	r0, [r0]
	.loc	1 58 35                         @ ../communication/can/odrive_can.cpp:58:35
	str	r0, [sp, #24]
	.loc	1 59 13 is_stmt 1               @ ../communication/can/odrive_can.cpp:59:13
	b	.LBB5_6
.Ltmp36:
.LBB5_6:                                @   in Loop: Header=BB5_3 Depth=1
	.loc	1 61 13                         @ ../communication/can/odrive_can.cpp:61:13
	ldr	r0, [sp, #12]                   @ 4-byte Reload
	movs	r1, #0
	bl	_ZN9ODriveCAN15process_rx_fifoEj
	ldr	r0, [sp, #12]                   @ 4-byte Reload
	movs	r1, #1
	.loc	1 62 13                         @ ../communication/can/odrive_can.cpp:62:13
	str	r1, [sp, #4]                    @ 4-byte Spill
	bl	_ZN9ODriveCAN15process_rx_fifoEj
	ldr	r0, [sp, #12]                   @ 4-byte Reload
	.loc	1 63 42                         @ ../communication/can/odrive_can.cpp:63:42
	ldr.w	r0, [r0, #148]
	movs	r1, #19
	.loc	1 63 13 is_stmt 0               @ ../communication/can/odrive_can.cpp:63:13
	bl	HAL_CAN_ActivateNotification
                                        @ kill: def $r1 killed $r0
	.loc	1 66 29 is_stmt 1               @ ../communication/can/odrive_can.cpp:66:29
	ldr	r0, [sp, #4]                    @ 4-byte Reload
	movw	r1, :lower16:sem_can
	movt	r1, :upper16:sem_can
	ldr	r1, [r1]
	.loc	1 66 66 is_stmt 0               @ ../communication/can/odrive_can.cpp:66:66
	str	r1, [sp, #8]                    @ 4-byte Spill
	str	r0, [sp, #16]
	add	r0, sp, #24
	add	r1, sp, #16
	.loc	1 66 38                         @ ../communication/can/odrive_can.cpp:66:38
	bl	_ZNSt3__23maxB7v180000IjEERKT_S3_S3_
	mov	r1, r0
	ldr	r0, [sp, #8]                    @ 4-byte Reload
	ldr	r1, [r1]
	.loc	1 66 13                         @ ../communication/can/odrive_can.cpp:66:13
	bl	osSemaphoreWait
	.loc	1 67 9 is_stmt 1                @ ../communication/can/odrive_can.cpp:67:9
	b	.LBB5_12
.Ltmp37:
.LBB5_7:                                @   in Loop: Header=BB5_3 Depth=1
	.loc	1 67 20 is_stmt 0               @ ../communication/can/odrive_can.cpp:67:20
	ldr	r0, [sp, #28]
.Ltmp38:
	.loc	1 67 20                         @ ../communication/can/odrive_can.cpp:67:20
	cmp.w	r0, #131072
	bne	.LBB5_11
	b	.LBB5_8
.LBB5_8:                                @   in Loop: Header=BB5_3 Depth=1
.Ltmp39:
	.loc	1 68 32 is_stmt 1               @ ../communication/can/odrive_can.cpp:68:32
	ldr	r0, [sp, #12]                   @ 4-byte Reload
	ldr.w	r0, [r0, #148]
	.loc	1 68 13 is_stmt 0               @ ../communication/can/odrive_can.cpp:68:13
	bl	HAL_CAN_ResetError
                                        @ kill: def $r1 killed $r0
	.loc	1 69 36 is_stmt 1               @ ../communication/can/odrive_can.cpp:69:36
	ldr	r0, [sp, #12]                   @ 4-byte Reload
	ldr.w	r0, [r0, #148]
	.loc	1 69 22 is_stmt 0               @ ../communication/can/odrive_can.cpp:69:22
	bl	HAL_CAN_Start
	.loc	1 69 20                         @ ../communication/can/odrive_can.cpp:69:20
	str	r0, [sp, #28]
.Ltmp40:
	.loc	1 70 17 is_stmt 1               @ ../communication/can/odrive_can.cpp:70:17
	ldr	r0, [sp, #28]
.Ltmp41:
	.loc	1 70 17 is_stmt 0               @ ../communication/can/odrive_can.cpp:70:17
	cbnz	r0, .LBB5_10
	b	.LBB5_9
.LBB5_9:                                @   in Loop: Header=BB5_3 Depth=1
.Ltmp42:
	.loc	1 71 55 is_stmt 1               @ ../communication/can/odrive_can.cpp:71:55
	ldr	r0, [sp, #12]                   @ 4-byte Reload
	ldr.w	r0, [r0, #148]
	movs	r1, #3
	.loc	1 71 26 is_stmt 0               @ ../communication/can/odrive_can.cpp:71:26
	bl	HAL_CAN_ActivateNotification
	.loc	1 71 24                         @ ../communication/can/odrive_can.cpp:71:24
	str	r0, [sp, #28]
	.loc	1 71 17                         @ ../communication/can/odrive_can.cpp:71:17
	b	.LBB5_10
.Ltmp43:
.LBB5_10:                               @   in Loop: Header=BB5_3 Depth=1
	.loc	1 72 9 is_stmt 1                @ ../communication/can/odrive_can.cpp:72:9
	b	.LBB5_11
.Ltmp44:
.LBB5_11:                               @   in Loop: Header=BB5_3 Depth=1
	.loc	1 0 9 is_stmt 0                 @ ../communication/can/odrive_can.cpp:0:9
	b	.LBB5_12
.LBB5_12:                               @   in Loop: Header=BB5_3 Depth=1
	.loc	1 52 5 is_stmt 1                @ ../communication/can/odrive_can.cpp:52:5
	b	.LBB5_3
.Ltmp45:
.Lfunc_end5:
	.size	_ZN9ODriveCAN17can_server_threadEv, .Lfunc_end5-_ZN9ODriveCAN17can_server_threadEv
	.cfi_endproc
	.cantunwind
	.fnend
                                        @ -- End function
	.section	.text._ZanN10ODriveIntf7CanIntf8ProtocolES1_,"axG",%progbits,_ZanN10ODriveIntf7CanIntf8ProtocolES1_,comdat
	.hidden	_ZanN10ODriveIntf7CanIntf8ProtocolES1_ @ -- Begin function _ZanN10ODriveIntf7CanIntf8ProtocolES1_
	.weak	_ZanN10ODriveIntf7CanIntf8ProtocolES1_
	.p2align	2
	.type	_ZanN10ODriveIntf7CanIntf8ProtocolES1_,%function
	.code	16                              @ @_ZanN10ODriveIntf7CanIntf8ProtocolES1_
	.thumb_func
_ZanN10ODriveIntf7CanIntf8ProtocolES1_:
.Lfunc_begin6:
	.loc	9 1157 0                        @ ../../Firmware\autogen/interfaces.hpp:1157:0
	.fnstart
	.cfi_startproc
@ %bb.0:
	.pad	#4
	sub	sp, #4
	.cfi_def_cfa_offset 4
                                        @ kill: def $r2 killed $r1
                                        @ kill: def $r2 killed $r0
	strb.w	r0, [sp, #3]
	strb.w	r1, [sp, #2]
.Ltmp46:
	.loc	9 1157 235 prologue_end         @ ../../Firmware\autogen/interfaces.hpp:1157:235
	ldrb.w	r0, [sp, #3]
	.loc	9 1157 307 is_stmt 0            @ ../../Firmware\autogen/interfaces.hpp:1157:307
	ldrb.w	r1, [sp, #2]
	.loc	9 1157 238                      @ ../../Firmware\autogen/interfaces.hpp:1157:238
	ands	r0, r1
	.loc	9 1157 118 epilogue_begin       @ ../../Firmware\autogen/interfaces.hpp:1157:118
	add	sp, #4
	bx	lr
.Ltmp47:
.Lfunc_end6:
	.size	_ZanN10ODriveIntf7CanIntf8ProtocolES1_, .Lfunc_end6-_ZanN10ODriveIntf7CanIntf8ProtocolES1_
	.cfi_endproc
	.cantunwind
	.fnend
                                        @ -- End function
	.section	.text._ZNSt3__23minB7v180000IjEERKT_S3_S3_,"axG",%progbits,_ZNSt3__23minB7v180000IjEERKT_S3_S3_,comdat
	.hidden	_ZNSt3__23minB7v180000IjEERKT_S3_S3_ @ -- Begin function _ZNSt3__23minB7v180000IjEERKT_S3_S3_
	.weak	_ZNSt3__23minB7v180000IjEERKT_S3_S3_
	.p2align	2
	.type	_ZNSt3__23minB7v180000IjEERKT_S3_S3_,%function
	.code	16                              @ @_ZNSt3__23minB7v180000IjEERKT_S3_S3_
	.thumb_func
_ZNSt3__23minB7v180000IjEERKT_S3_S3_:
.Lfunc_begin7:
	.file	19 "D:\\Embed\\MDK\\MDK\\ARM\\ARMCompilerV621\\Bin\\..\\include\\libcxx\\__algorithm" "min.h"
	.loc	19 41 0 is_stmt 1               @ D:\Embed\MDK\MDK\ARM\ARMCompilerV621\Bin\..\include\libcxx\__algorithm/min.h:41:0
	.fnstart
	.cfi_startproc
@ %bb.0:
	.save	{r7, lr}
	push	{r7, lr}
	.cfi_def_cfa_offset 8
	.cfi_offset lr, -4
	.cfi_offset r7, -8
	.pad	#16
	sub	sp, #16
	.cfi_def_cfa_offset 24
	str	r0, [sp, #12]
	str	r1, [sp, #8]
.Ltmp48:
	.loc	19 42 23 prologue_end           @ D:\Embed\MDK\MDK\ARM\ARMCompilerV621\Bin\..\include\libcxx\__algorithm/min.h:42:23
	ldr	r0, [sp, #12]
	.loc	19 42 28 is_stmt 0              @ D:\Embed\MDK\MDK\ARM\ARMCompilerV621\Bin\..\include\libcxx\__algorithm/min.h:42:28
	ldr	r1, [sp, #8]
	.loc	19 42 12                        @ D:\Embed\MDK\MDK\ARM\ARMCompilerV621\Bin\..\include\libcxx\__algorithm/min.h:42:12
	bl	_ZNSt3__23minB7v180000IjNS_6__lessIvvEEEERKT_S5_S5_T0_
	.loc	19 42 5 epilogue_begin          @ D:\Embed\MDK\MDK\ARM\ARMCompilerV621\Bin\..\include\libcxx\__algorithm/min.h:42:5
	add	sp, #16
	pop	{r7, pc}
.Ltmp49:
.Lfunc_end7:
	.size	_ZNSt3__23minB7v180000IjEERKT_S3_S3_, .Lfunc_end7-_ZNSt3__23minB7v180000IjEERKT_S3_S3_
	.cfi_endproc
	.cantunwind
	.fnend
                                        @ -- End function
	.section	.text._ZN9ODriveCAN15process_rx_fifoEj,"ax",%progbits
	.hidden	_ZN9ODriveCAN15process_rx_fifoEj @ -- Begin function _ZN9ODriveCAN15process_rx_fifoEj
	.globl	_ZN9ODriveCAN15process_rx_fifoEj
	.p2align	2
	.type	_ZN9ODriveCAN15process_rx_fifoEj,%function
	.code	16                              @ @_ZN9ODriveCAN15process_rx_fifoEj
	.thumb_func
_ZN9ODriveCAN15process_rx_fifoEj:
.Lfunc_begin8:
	.loc	1 95 0 is_stmt 1                @ ../communication/can/odrive_can.cpp:95:0
	.fnstart
	.cfi_startproc
@ %bb.0:
	.save	{r4, lr}
	push	{r4, lr}
	.cfi_def_cfa_offset 8
	.cfi_offset lr, -4
	.cfi_offset r4, -8
	.pad	#112
	sub	sp, #112
	.cfi_def_cfa_offset 120
	str	r0, [sp, #108]
	str	r1, [sp, #104]
	ldr	r0, [sp, #108]
.Ltmp50:
	.loc	1 96 5 prologue_end             @ ../communication/can/odrive_can.cpp:96:5
	str	r0, [sp, #28]                   @ 4-byte Spill
	b	.LBB8_1
.LBB8_1:                                @ =>This Inner Loop Header: Depth=1
	.loc	1 96 39 is_stmt 0               @ ../communication/can/odrive_can.cpp:96:39
	ldr	r0, [sp, #28]                   @ 4-byte Reload
	ldr.w	r0, [r0, #148]
	.loc	1 96 48                         @ ../communication/can/odrive_can.cpp:96:48
	ldr	r1, [sp, #104]
	.loc	1 96 12                         @ ../communication/can/odrive_can.cpp:96:12
	bl	HAL_CAN_GetRxFifoFillLevel
	.loc	1 96 5                          @ ../communication/can/odrive_can.cpp:96:5
	cmp	r0, #0
	beq	.LBB8_8
	b	.LBB8_2
.LBB8_2:                                @   in Loop: Header=BB8_1 Depth=1
	.loc	1 0 5                           @ ../communication/can/odrive_can.cpp:0:5
	add	r0, sp, #60
.Ltmp51:
	.loc	1 98 23 is_stmt 1               @ ../communication/can/odrive_can.cpp:98:23
	str	r0, [sp, #24]                   @ 4-byte Spill
	bl	_ZN13can_Message_tC2Ev
	ldr	r0, [sp, #28]                   @ 4-byte Reload
	ldr	r2, [sp, #24]                   @ 4-byte Reload
	.loc	1 99 30                         @ ../communication/can/odrive_can.cpp:99:30
	ldr.w	r0, [r0, #148]
	.loc	1 99 39 is_stmt 0               @ ../communication/can/odrive_can.cpp:99:39
	ldr	r1, [sp, #104]
	.loc	1 99 60                         @ ../communication/can/odrive_can.cpp:99:60
	adds	r3, r2, #7
	add	r2, sp, #76
	.loc	1 99 9                          @ ../communication/can/odrive_can.cpp:99:9
	bl	HAL_CAN_GetRxMessage
	.loc	1 101 30 is_stmt 1              @ ../communication/can/odrive_can.cpp:101:30
	ldr	r0, [sp, #84]
	.loc	1 101 23 is_stmt 0              @ ../communication/can/odrive_can.cpp:101:23
	cmp	r0, #0
	it	ne
	movne	r0, #1
	.loc	1 101 21                        @ ../communication/can/odrive_can.cpp:101:21
	strb.w	r0, [sp, #64]
	.loc	1 102 26 is_stmt 1              @ ../communication/can/odrive_can.cpp:102:26
	ldrb.w	r0, [sp, #64]
	.loc	1 102 20 is_stmt 0              @ ../communication/can/odrive_can.cpp:102:20
	lsls	r0, r0, #31
	cbz	r0, .LBB8_4
	b	.LBB8_3
.LBB8_3:                                @   in Loop: Header=BB8_1 Depth=1
	.loc	1 102 41                        @ ../communication/can/odrive_can.cpp:102:41
	ldr	r0, [sp, #80]
	.loc	1 102 20                        @ ../communication/can/odrive_can.cpp:102:20
	str	r0, [sp, #20]                   @ 4-byte Spill
	b	.LBB8_5
.LBB8_4:                                @   in Loop: Header=BB8_1 Depth=1
	.loc	1 102 56                        @ ../communication/can/odrive_can.cpp:102:56
	ldr	r0, [sp, #76]
	.loc	1 102 20                        @ ../communication/can/odrive_can.cpp:102:20
	str	r0, [sp, #20]                   @ 4-byte Spill
	b	.LBB8_5
.LBB8_5:                                @   in Loop: Header=BB8_1 Depth=1
	ldr	r0, [sp, #28]                   @ 4-byte Reload
	ldr	r1, [sp, #20]                   @ 4-byte Reload
	.loc	1 102 18                        @ ../communication/can/odrive_can.cpp:102:18
	str	r1, [sp, #60]
	.loc	1 103 28 is_stmt 1              @ ../communication/can/odrive_can.cpp:103:28
	ldr	r1, [sp, #92]
	.loc	1 103 19 is_stmt 0              @ ../communication/can/odrive_can.cpp:103:19
	strb.w	r1, [sp, #66]
	.loc	1 104 28 is_stmt 1              @ ../communication/can/odrive_can.cpp:104:28
	ldr	r1, [sp, #88]
	.loc	1 104 21 is_stmt 0              @ ../communication/can/odrive_can.cpp:104:21
	cmp	r1, #0
	it	ne
	movne	r1, #1
	.loc	1 104 19                        @ ../communication/can/odrive_can.cpp:104:19
	strb.w	r1, [sp, #65]
	movs	r1, #0
	.loc	1 109 16 is_stmt 1              @ ../communication/can/odrive_can.cpp:109:16
	str	r1, [sp, #56]
	.loc	1 110 16                        @ ../communication/can/odrive_can.cpp:110:16
	str	r1, [sp, #52]
	.loc	1 113 32                        @ ../communication/can/odrive_can.cpp:113:32
	adds	r0, #52
	.loc	1 113 47 is_stmt 0              @ ../communication/can/odrive_can.cpp:113:47
	str	r0, [sp, #12]                   @ 4-byte Spill
	bl	_ZNSt3__25arrayIN9ODriveCAN21ODriveCanSubscriptionELj8EE5beginB7v180000Ev
	mov	r1, r0
	.loc	1 113 71                        @ ../communication/can/odrive_can.cpp:113:71
	ldr	r0, [sp, #12]                   @ 4-byte Reload
	str	r1, [sp, #8]                    @ 4-byte Spill
	bl	_ZNSt3__25arrayIN9ODriveCAN21ODriveCanSubscriptionELj8EE3endB7v180000Ev
	mov	r1, r0
	ldr	r0, [sp, #8]                    @ 4-byte Reload
	add	r2, sp, #56
	.loc	1 113 78                        @ ../communication/can/odrive_can.cpp:113:78
	str	r2, [sp, #32]
	add	r2, sp, #52
	str	r2, [sp, #36]
	add	r2, sp, #76
	str	r2, [sp, #40]
	add	r2, sp, #104
	str	r2, [sp, #44]
	.loc	1 113 19                        @ ../communication/can/odrive_can.cpp:113:19
	ldr	r2, [sp, #32]
	ldr	r3, [sp, #36]
	ldr.w	r12, [sp, #40]
	ldr	r4, [sp, #44]
	mov	lr, sp
	str.w	r4, [lr, #4]
	str.w	r12, [lr]
	bl	_ZNSt3__27find_ifB7v180000IPN9ODriveCAN21ODriveCanSubscriptionEZNS1_15process_rx_fifoEjE3$_0EET_S5_S5_T0_
	mov	r1, r0
	.loc	1 113 14                        @ ../communication/can/odrive_can.cpp:113:14
	ldr	r0, [sp, #12]                   @ 4-byte Reload
	str	r1, [sp, #48]
.Ltmp52:
	.loc	1 118 13 is_stmt 1              @ ../communication/can/odrive_can.cpp:118:13
	ldr	r1, [sp, #48]
	.loc	1 118 34 is_stmt 0              @ ../communication/can/odrive_can.cpp:118:34
	str	r1, [sp, #16]                   @ 4-byte Spill
	bl	_ZNSt3__25arrayIN9ODriveCAN21ODriveCanSubscriptionELj8EE3endB7v180000Ev
	mov	r1, r0
.Ltmp53:
	.loc	1 118 13                        @ ../communication/can/odrive_can.cpp:118:13
	ldr	r0, [sp, #16]                   @ 4-byte Reload
	cmp	r0, r1
	bne	.LBB8_7
	b	.LBB8_6
.LBB8_6:                                @   in Loop: Header=BB8_1 Depth=1
.Ltmp54:
	.loc	1 119 13 is_stmt 1              @ ../communication/can/odrive_can.cpp:119:13
	b	.LBB8_1
.Ltmp55:
.LBB8_7:                                @   in Loop: Header=BB8_1 Depth=1
	.loc	1 122 9                         @ ../communication/can/odrive_can.cpp:122:9
	ldr	r0, [sp, #48]
	.loc	1 122 13 is_stmt 0              @ ../communication/can/odrive_can.cpp:122:13
	ldr	r2, [r0, #4]
	.loc	1 122 26                        @ ../communication/can/odrive_can.cpp:122:26
	ldr	r0, [r0, #8]
	add	r1, sp, #60
	.loc	1 122 9                         @ ../communication/can/odrive_can.cpp:122:9
	blx	r2
.Ltmp56:
	.loc	1 96 5 is_stmt 1                @ ../communication/can/odrive_can.cpp:96:5
	b	.LBB8_1
.LBB8_8:
	.loc	1 124 1 epilogue_begin          @ ../communication/can/odrive_can.cpp:124:1
	add	sp, #112
	pop	{r4, pc}
.Ltmp57:
.Lfunc_end8:
	.size	_ZN9ODriveCAN15process_rx_fifoEj, .Lfunc_end8-_ZN9ODriveCAN15process_rx_fifoEj
	.cfi_endproc
	.cantunwind
	.fnend
                                        @ -- End function
	.section	.text._ZNSt3__23maxB7v180000IjEERKT_S3_S3_,"axG",%progbits,_ZNSt3__23maxB7v180000IjEERKT_S3_S3_,comdat
	.hidden	_ZNSt3__23maxB7v180000IjEERKT_S3_S3_ @ -- Begin function _ZNSt3__23maxB7v180000IjEERKT_S3_S3_
	.weak	_ZNSt3__23maxB7v180000IjEERKT_S3_S3_
	.p2align	2
	.type	_ZNSt3__23maxB7v180000IjEERKT_S3_S3_,%function
	.code	16                              @ @_ZNSt3__23maxB7v180000IjEERKT_S3_S3_
	.thumb_func
_ZNSt3__23maxB7v180000IjEERKT_S3_S3_:
.Lfunc_begin9:
	.file	20 "D:\\Embed\\MDK\\MDK\\ARM\\ARMCompilerV621\\Bin\\..\\include\\libcxx\\__algorithm" "max.h"
	.loc	20 41 0                         @ D:\Embed\MDK\MDK\ARM\ARMCompilerV621\Bin\..\include\libcxx\__algorithm/max.h:41:0
	.fnstart
	.cfi_startproc
@ %bb.0:
	.save	{r7, lr}
	push	{r7, lr}
	.cfi_def_cfa_offset 8
	.cfi_offset lr, -4
	.cfi_offset r7, -8
	.pad	#16
	sub	sp, #16
	.cfi_def_cfa_offset 24
	str	r0, [sp, #12]
	str	r1, [sp, #8]
.Ltmp58:
	.loc	20 42 23 prologue_end           @ D:\Embed\MDK\MDK\ARM\ARMCompilerV621\Bin\..\include\libcxx\__algorithm/max.h:42:23
	ldr	r0, [sp, #12]
	.loc	20 42 28 is_stmt 0              @ D:\Embed\MDK\MDK\ARM\ARMCompilerV621\Bin\..\include\libcxx\__algorithm/max.h:42:28
	ldr	r1, [sp, #8]
	.loc	20 42 12                        @ D:\Embed\MDK\MDK\ARM\ARMCompilerV621\Bin\..\include\libcxx\__algorithm/max.h:42:12
	bl	_ZNSt3__23maxB7v180000IjNS_6__lessIvvEEEERKT_S5_S5_T0_
	.loc	20 42 5 epilogue_begin          @ D:\Embed\MDK\MDK\ARM\ARMCompilerV621\Bin\..\include\libcxx\__algorithm/max.h:42:5
	add	sp, #16
	pop	{r7, pc}
.Ltmp59:
.Lfunc_end9:
	.size	_ZNSt3__23maxB7v180000IjEERKT_S3_S3_, .Lfunc_end9-_ZNSt3__23maxB7v180000IjEERKT_S3_S3_
	.cfi_endproc
	.cantunwind
	.fnend
                                        @ -- End function
	.section	.text._ZN13can_Message_tC2Ev,"axG",%progbits,_ZN13can_Message_tC2Ev,comdat
	.hidden	_ZN13can_Message_tC2Ev          @ -- Begin function _ZN13can_Message_tC2Ev
	.weak	_ZN13can_Message_tC2Ev
	.p2align	2
	.type	_ZN13can_Message_tC2Ev,%function
	.code	16                              @ @_ZN13can_Message_tC2Ev
	.thumb_func
_ZN13can_Message_tC2Ev:
.Lfunc_begin10:
	.loc	14 8 0 is_stmt 1                @ ../communication/can/can_helpers.hpp:8:0
	.fnstart
	.cfi_startproc
@ %bb.0:
	.pad	#4
	sub	sp, #4
	.cfi_def_cfa_offset 4
	str	r0, [sp]
	ldr	r0, [sp]
	movs	r1, #0
.Ltmp60:
	.loc	14 9 14 prologue_end            @ ../communication/can/can_helpers.hpp:9:14
	str	r1, [r0]
	.loc	14 10 10                        @ ../communication/can/can_helpers.hpp:10:10
	strb	r1, [r0, #4]
	.loc	14 11 10                        @ ../communication/can/can_helpers.hpp:11:10
	strb	r1, [r0, #5]
	movs	r2, #8
	.loc	14 12 13                        @ ../communication/can/can_helpers.hpp:12:13
	strb	r2, [r0, #6]
	.loc	14 13 22                        @ ../communication/can/can_helpers.hpp:13:22
	strb	r1, [r0, #7]
	strb	r1, [r0, #8]
	strb	r1, [r0, #9]
	strb	r1, [r0, #10]
	strb	r1, [r0, #11]
	strb	r1, [r0, #12]
	strb	r1, [r0, #13]
	strb	r1, [r0, #14]
	.loc	14 8 8 epilogue_begin           @ ../communication/can/can_helpers.hpp:8:8
	add	sp, #4
	bx	lr
.Ltmp61:
.Lfunc_end10:
	.size	_ZN13can_Message_tC2Ev, .Lfunc_end10-_ZN13can_Message_tC2Ev
	.cfi_endproc
	.cantunwind
	.fnend
                                        @ -- End function
	.section	".text._ZNSt3__27find_ifB7v180000IPN9ODriveCAN21ODriveCanSubscriptionEZNS1_15process_rx_fifoEjE3$_0EET_S5_S5_T0_","ax",%progbits
	.p2align	2                               @ -- Begin function _ZNSt3__27find_ifB7v180000IPN9ODriveCAN21ODriveCanSubscriptionEZNS1_15process_rx_fifoEjE3$_0EET_S5_S5_T0_
	.type	_ZNSt3__27find_ifB7v180000IPN9ODriveCAN21ODriveCanSubscriptionEZNS1_15process_rx_fifoEjE3$_0EET_S5_S5_T0_,%function
	.code	16                              @ @"_ZNSt3__27find_ifB7v180000IPN9ODriveCAN21ODriveCanSubscriptionEZNS1_15process_rx_fifoEjE3$_0EET_S5_S5_T0_"
	.thumb_func
_ZNSt3__27find_ifB7v180000IPN9ODriveCAN21ODriveCanSubscriptionEZNS1_15process_rx_fifoEjE3$_0EET_S5_S5_T0_:
.Lfunc_begin11:
	.file	21 "D:\\Embed\\MDK\\MDK\\ARM\\ARMCompilerV621\\Bin\\..\\include\\libcxx\\__algorithm" "find_if.h"
	.loc	21 23 0                         @ D:\Embed\MDK\MDK\ARM\ARMCompilerV621\Bin\..\include\libcxx\__algorithm/find_if.h:23:0
	.fnstart
	.cfi_startproc
@ %bb.0:
	.save	{r4, lr}
	push	{r4, lr}
	.cfi_def_cfa_offset 8
	.cfi_offset lr, -4
	.cfi_offset r4, -8
	.pad	#24
	sub	sp, #24
	.cfi_def_cfa_offset 32
	ldr.w	lr, [sp, #36]
	ldr.w	r12, [sp, #32]
                                        @ kill: def $r4 killed $r3
                                        @ kill: def $r4 killed $r2
	str.w	lr, [sp, #20]
	str.w	r12, [sp, #16]
	str	r3, [sp, #12]
	str	r2, [sp, #8]
	str	r0, [sp, #4]
	str	r1, [sp]
.Ltmp62:
	.loc	21 24 3 prologue_end            @ D:\Embed\MDK\MDK\ARM\ARMCompilerV621\Bin\..\include\libcxx\__algorithm/find_if.h:24:3
	b	.LBB11_1
.LBB11_1:                               @ =>This Inner Loop Header: Depth=1
.Ltmp63:
	.loc	21 24 10 is_stmt 0              @ D:\Embed\MDK\MDK\ARM\ARMCompilerV621\Bin\..\include\libcxx\__algorithm/find_if.h:24:10
	ldr	r0, [sp, #4]
	.loc	21 24 21                        @ D:\Embed\MDK\MDK\ARM\ARMCompilerV621\Bin\..\include\libcxx\__algorithm/find_if.h:24:21
	ldr	r1, [sp]
.Ltmp64:
	.loc	21 24 3                         @ D:\Embed\MDK\MDK\ARM\ARMCompilerV621\Bin\..\include\libcxx\__algorithm/find_if.h:24:3
	cmp	r0, r1
	beq	.LBB11_6
	b	.LBB11_2
.LBB11_2:                               @   in Loop: Header=BB11_1 Depth=1
.Ltmp65:
	.loc	21 25 17 is_stmt 1              @ D:\Embed\MDK\MDK\ARM\ARMCompilerV621\Bin\..\include\libcxx\__algorithm/find_if.h:25:17
	ldr	r1, [sp, #4]
	add	r0, sp, #8
	.loc	21 25 9 is_stmt 0               @ D:\Embed\MDK\MDK\ARM\ARMCompilerV621\Bin\..\include\libcxx\__algorithm/find_if.h:25:9
	bl	_ZZN9ODriveCAN15process_rx_fifoEjENK3$_0clINS_21ODriveCanSubscriptionEEEDaRT_
.Ltmp66:
	.loc	21 25 9                         @ D:\Embed\MDK\MDK\ARM\ARMCompilerV621\Bin\..\include\libcxx\__algorithm/find_if.h:25:9
	cbz	r0, .LBB11_4
	b	.LBB11_3
.LBB11_3:
.Ltmp67:
	.loc	21 26 7 is_stmt 1               @ D:\Embed\MDK\MDK\ARM\ARMCompilerV621\Bin\..\include\libcxx\__algorithm/find_if.h:26:7
	b	.LBB11_6
.LBB11_4:                               @   in Loop: Header=BB11_1 Depth=1
	.loc	21 25 24                        @ D:\Embed\MDK\MDK\ARM\ARMCompilerV621\Bin\..\include\libcxx\__algorithm/find_if.h:25:24
	b	.LBB11_5
.Ltmp68:
.LBB11_5:                               @   in Loop: Header=BB11_1 Depth=1
	.loc	21 24 29                        @ D:\Embed\MDK\MDK\ARM\ARMCompilerV621\Bin\..\include\libcxx\__algorithm/find_if.h:24:29
	ldr	r0, [sp, #4]
	adds	r0, #12
	str	r0, [sp, #4]
	.loc	21 24 3 is_stmt 0               @ D:\Embed\MDK\MDK\ARM\ARMCompilerV621\Bin\..\include\libcxx\__algorithm/find_if.h:24:3
	b	.LBB11_1
.Ltmp69:
.LBB11_6:
	.loc	21 27 10 is_stmt 1              @ D:\Embed\MDK\MDK\ARM\ARMCompilerV621\Bin\..\include\libcxx\__algorithm/find_if.h:27:10
	ldr	r0, [sp, #4]
	.loc	21 27 3 epilogue_begin is_stmt 0 @ D:\Embed\MDK\MDK\ARM\ARMCompilerV621\Bin\..\include\libcxx\__algorithm/find_if.h:27:3
	add	sp, #24
	pop	{r4, pc}
.Ltmp70:
.Lfunc_end11:
	.size	_ZNSt3__27find_ifB7v180000IPN9ODriveCAN21ODriveCanSubscriptionEZNS1_15process_rx_fifoEjE3$_0EET_S5_S5_T0_, .Lfunc_end11-_ZNSt3__27find_ifB7v180000IPN9ODriveCAN21ODriveCanSubscriptionEZNS1_15process_rx_fifoEjE3$_0EET_S5_S5_T0_
	.cfi_endproc
	.cantunwind
	.fnend
                                        @ -- End function
	.section	.text._ZNSt3__25arrayIN9ODriveCAN21ODriveCanSubscriptionELj8EE5beginB7v180000Ev,"axG",%progbits,_ZNSt3__25arrayIN9ODriveCAN21ODriveCanSubscriptionELj8EE5beginB7v180000Ev,comdat
	.hidden	_ZNSt3__25arrayIN9ODriveCAN21ODriveCanSubscriptionELj8EE5beginB7v180000Ev @ -- Begin function _ZNSt3__25arrayIN9ODriveCAN21ODriveCanSubscriptionELj8EE5beginB7v180000Ev
	.weak	_ZNSt3__25arrayIN9ODriveCAN21ODriveCanSubscriptionELj8EE5beginB7v180000Ev
	.p2align	2
	.type	_ZNSt3__25arrayIN9ODriveCAN21ODriveCanSubscriptionELj8EE5beginB7v180000Ev,%function
	.code	16                              @ @_ZNSt3__25arrayIN9ODriveCAN21ODriveCanSubscriptionELj8EE5beginB7v180000Ev
	.thumb_func
_ZNSt3__25arrayIN9ODriveCAN21ODriveCanSubscriptionELj8EE5beginB7v180000Ev:
.Lfunc_begin12:
	.loc	15 195 0 is_stmt 1              @ D:\Embed\MDK\MDK\ARM\ARMCompilerV621\Bin\..\include\libcxx\array:195:0
	.fnstart
	.cfi_startproc
@ %bb.0:
	.save	{r7, lr}
	push	{r7, lr}
	.cfi_def_cfa_offset 8
	.cfi_offset lr, -4
	.cfi_offset r7, -8
	.pad	#8
	sub	sp, #8
	.cfi_def_cfa_offset 16
	str	r0, [sp, #4]
	ldr	r0, [sp, #4]
.Ltmp71:
	.loc	15 195 49 prologue_end          @ D:\Embed\MDK\MDK\ARM\ARMCompilerV621\Bin\..\include\libcxx\array:195:49
	bl	_ZNSt3__25arrayIN9ODriveCAN21ODriveCanSubscriptionELj8EE4dataB7v180000Ev
	.loc	15 195 33 epilogue_begin is_stmt 0 @ D:\Embed\MDK\MDK\ARM\ARMCompilerV621\Bin\..\include\libcxx\array:195:33
	add	sp, #8
	pop	{r7, pc}
.Ltmp72:
.Lfunc_end12:
	.size	_ZNSt3__25arrayIN9ODriveCAN21ODriveCanSubscriptionELj8EE5beginB7v180000Ev, .Lfunc_end12-_ZNSt3__25arrayIN9ODriveCAN21ODriveCanSubscriptionELj8EE5beginB7v180000Ev
	.cfi_endproc
	.cantunwind
	.fnend
                                        @ -- End function
	.section	.text._ZNSt3__25arrayIN9ODriveCAN21ODriveCanSubscriptionELj8EE3endB7v180000Ev,"axG",%progbits,_ZNSt3__25arrayIN9ODriveCAN21ODriveCanSubscriptionELj8EE3endB7v180000Ev,comdat
	.hidden	_ZNSt3__25arrayIN9ODriveCAN21ODriveCanSubscriptionELj8EE3endB7v180000Ev @ -- Begin function _ZNSt3__25arrayIN9ODriveCAN21ODriveCanSubscriptionELj8EE3endB7v180000Ev
	.weak	_ZNSt3__25arrayIN9ODriveCAN21ODriveCanSubscriptionELj8EE3endB7v180000Ev
	.p2align	2
	.type	_ZNSt3__25arrayIN9ODriveCAN21ODriveCanSubscriptionELj8EE3endB7v180000Ev,%function
	.code	16                              @ @_ZNSt3__25arrayIN9ODriveCAN21ODriveCanSubscriptionELj8EE3endB7v180000Ev
	.thumb_func
_ZNSt3__25arrayIN9ODriveCAN21ODriveCanSubscriptionELj8EE3endB7v180000Ev:
.Lfunc_begin13:
	.loc	15 199 0 is_stmt 1              @ D:\Embed\MDK\MDK\ARM\ARMCompilerV621\Bin\..\include\libcxx\array:199:0
	.fnstart
	.cfi_startproc
@ %bb.0:
	.save	{r7, lr}
	push	{r7, lr}
	.cfi_def_cfa_offset 8
	.cfi_offset lr, -4
	.cfi_offset r7, -8
	.pad	#8
	sub	sp, #8
	.cfi_def_cfa_offset 16
	str	r0, [sp, #4]
	ldr	r0, [sp, #4]
.Ltmp73:
	.loc	15 199 47 prologue_end          @ D:\Embed\MDK\MDK\ARM\ARMCompilerV621\Bin\..\include\libcxx\array:199:47
	bl	_ZNSt3__25arrayIN9ODriveCAN21ODriveCanSubscriptionELj8EE4dataB7v180000Ev
	.loc	15 199 54 is_stmt 0             @ D:\Embed\MDK\MDK\ARM\ARMCompilerV621\Bin\..\include\libcxx\array:199:54
	adds	r0, #96
	.loc	15 199 31 epilogue_begin        @ D:\Embed\MDK\MDK\ARM\ARMCompilerV621\Bin\..\include\libcxx\array:199:31
	add	sp, #8
	pop	{r7, pc}
.Ltmp74:
.Lfunc_end13:
	.size	_ZNSt3__25arrayIN9ODriveCAN21ODriveCanSubscriptionELj8EE3endB7v180000Ev, .Lfunc_end13-_ZNSt3__25arrayIN9ODriveCAN21ODriveCanSubscriptionELj8EE3endB7v180000Ev
	.cfi_endproc
	.cantunwind
	.fnend
                                        @ -- End function
	.section	.text._ZN9ODriveCAN12send_messageERK13can_Message_t,"ax",%progbits
	.hidden	_ZN9ODriveCAN12send_messageERK13can_Message_t @ -- Begin function _ZN9ODriveCAN12send_messageERK13can_Message_t
	.globl	_ZN9ODriveCAN12send_messageERK13can_Message_t
	.p2align	2
	.type	_ZN9ODriveCAN12send_messageERK13can_Message_t,%function
	.code	16                              @ @_ZN9ODriveCAN12send_messageERK13can_Message_t
	.thumb_func
_ZN9ODriveCAN12send_messageERK13can_Message_t:
.Lfunc_begin14:
	.loc	1 127 0 is_stmt 1               @ ../communication/can/odrive_can.cpp:127:0
	.fnstart
	.cfi_startproc
@ %bb.0:
	.save	{r7, lr}
	push	{r7, lr}
	.cfi_def_cfa_offset 8
	.cfi_offset lr, -4
	.cfi_offset r7, -8
	.pad	#48
	sub	sp, #48
	.cfi_def_cfa_offset 56
	str	r0, [sp, #40]
	str	r1, [sp, #36]
	ldr	r0, [sp, #40]
.Ltmp75:
	.loc	1 128 26 prologue_end           @ ../communication/can/odrive_can.cpp:128:26
	str	r0, [sp, #4]                    @ 4-byte Spill
	ldr.w	r0, [r0, #148]
	.loc	1 128 9 is_stmt 0               @ ../communication/can/odrive_can.cpp:128:9
	bl	HAL_CAN_GetError
.Ltmp76:
	.loc	1 128 9                         @ ../communication/can/odrive_can.cpp:128:9
	cbz	r0, .LBB14_2
	b	.LBB14_1
.LBB14_1:
	.loc	1 0 9                           @ ../communication/can/odrive_can.cpp:0:9
	movs	r0, #0
.Ltmp77:
	.loc	1 129 9 is_stmt 1               @ ../communication/can/odrive_can.cpp:129:9
	strb.w	r0, [sp, #47]
	b	.LBB14_5
.Ltmp78:
.LBB14_2:
	.loc	1 133 20                        @ ../communication/can/odrive_can.cpp:133:20
	ldr	r0, [sp, #4]                    @ 4-byte Reload
	ldr	r1, [sp, #36]
	.loc	1 133 26 is_stmt 0              @ ../communication/can/odrive_can.cpp:133:26
	ldr	r1, [r1]
	.loc	1 133 18                        @ ../communication/can/odrive_can.cpp:133:18
	str	r1, [sp, #12]
	.loc	1 134 20 is_stmt 1              @ ../communication/can/odrive_can.cpp:134:20
	ldr	r1, [sp, #36]
	.loc	1 134 26 is_stmt 0              @ ../communication/can/odrive_can.cpp:134:26
	ldr	r1, [r1]
	.loc	1 134 18                        @ ../communication/can/odrive_can.cpp:134:18
	str	r1, [sp, #16]
	.loc	1 135 18 is_stmt 1              @ ../communication/can/odrive_can.cpp:135:18
	ldr	r1, [sp, #36]
	.loc	1 135 24 is_stmt 0              @ ../communication/can/odrive_can.cpp:135:24
	ldrb	r1, [r1, #4]
	and	r1, r1, #1
	.loc	1 135 18                        @ ../communication/can/odrive_can.cpp:135:18
	cmp	r1, #0
	it	ne
	movne	r1, #4
	.loc	1 135 16                        @ ../communication/can/odrive_can.cpp:135:16
	str	r1, [sp, #20]
	movs	r1, #0
	.loc	1 136 16 is_stmt 1              @ ../communication/can/odrive_can.cpp:136:16
	str	r1, [sp, #24]
	.loc	1 137 18                        @ ../communication/can/odrive_can.cpp:137:18
	ldr	r2, [sp, #36]
	.loc	1 137 24 is_stmt 0              @ ../communication/can/odrive_can.cpp:137:24
	ldrb	r2, [r2, #6]
	.loc	1 137 16                        @ ../communication/can/odrive_can.cpp:137:16
	str	r2, [sp, #28]
	.loc	1 138 31 is_stmt 1              @ ../communication/can/odrive_can.cpp:138:31
	strb.w	r1, [sp, #32]
	.loc	1 140 14                        @ ../communication/can/odrive_can.cpp:140:14
	str	r1, [sp, #8]
.Ltmp79:
	.loc	1 141 42                        @ ../communication/can/odrive_can.cpp:141:42
	ldr.w	r0, [r0, #148]
	.loc	1 141 10 is_stmt 0              @ ../communication/can/odrive_can.cpp:141:10
	bl	HAL_CAN_GetTxMailboxesFreeLevel
.Ltmp80:
	.loc	1 141 9                         @ ../communication/can/odrive_can.cpp:141:9
	cbnz	r0, .LBB14_4
	b	.LBB14_3
.LBB14_3:
	.loc	1 0 9                           @ ../communication/can/odrive_can.cpp:0:9
	movs	r0, #0
.Ltmp81:
	.loc	1 142 9 is_stmt 1               @ ../communication/can/odrive_can.cpp:142:9
	strb.w	r0, [sp, #47]
	b	.LBB14_5
.Ltmp82:
.LBB14_4:
	.loc	1 145 33                        @ ../communication/can/odrive_can.cpp:145:33
	ldr	r0, [sp, #4]                    @ 4-byte Reload
	ldr.w	r0, [r0, #148]
	.loc	1 145 61 is_stmt 0              @ ../communication/can/odrive_can.cpp:145:61
	ldr	r1, [sp, #36]
	.loc	1 145 67                        @ ../communication/can/odrive_can.cpp:145:67
	adds	r2, r1, #7
	add	r1, sp, #12
	add	r3, sp, #8
	.loc	1 145 12                        @ ../communication/can/odrive_can.cpp:145:12
	bl	HAL_CAN_AddTxMessage
	.loc	1 145 87                        @ ../communication/can/odrive_can.cpp:145:87
	clz	r0, r0
	lsrs	r0, r0, #5
	.loc	1 145 5                         @ ../communication/can/odrive_can.cpp:145:5
	strb.w	r0, [sp, #47]
	b	.LBB14_5
.LBB14_5:
	.loc	1 146 1 is_stmt 1               @ ../communication/can/odrive_can.cpp:146:1
	ldrb.w	r0, [sp, #47]
	.loc	1 146 1 epilogue_begin is_stmt 0 @ ../communication/can/odrive_can.cpp:146:1
	add	sp, #48
	pop	{r7, pc}
.Ltmp83:
.Lfunc_end14:
	.size	_ZN9ODriveCAN12send_messageERK13can_Message_t, .Lfunc_end14-_ZN9ODriveCAN12send_messageERK13can_Message_t
	.cfi_endproc
	.cantunwind
	.fnend
                                        @ -- End function
	.section	.text._ZN9ODriveCAN9subscribeERK16MsgIdFilterSpecsPFvPvRK13can_Message_tES3_PPN10CanBusBase15CanSubscriptionE,"ax",%progbits
	.hidden	_ZN9ODriveCAN9subscribeERK16MsgIdFilterSpecsPFvPvRK13can_Message_tES3_PPN10CanBusBase15CanSubscriptionE @ -- Begin function _ZN9ODriveCAN9subscribeERK16MsgIdFilterSpecsPFvPvRK13can_Message_tES3_PPN10CanBusBase15CanSubscriptionE
	.globl	_ZN9ODriveCAN9subscribeERK16MsgIdFilterSpecsPFvPvRK13can_Message_tES3_PPN10CanBusBase15CanSubscriptionE
	.p2align	2
	.type	_ZN9ODriveCAN9subscribeERK16MsgIdFilterSpecsPFvPvRK13can_Message_tES3_PPN10CanBusBase15CanSubscriptionE,%function
	.code	16                              @ @_ZN9ODriveCAN9subscribeERK16MsgIdFilterSpecsPFvPvRK13can_Message_tES3_PPN10CanBusBase15CanSubscriptionE
	.thumb_func
_ZN9ODriveCAN9subscribeERK16MsgIdFilterSpecsPFvPvRK13can_Message_tES3_PPN10CanBusBase15CanSubscriptionE:
.Lfunc_begin15:
	.loc	1 152 0 is_stmt 1               @ ../communication/can/odrive_can.cpp:152:0
	.fnstart
	.cfi_startproc
@ %bb.0:
	.save	{r7, lr}
	push	{r7, lr}
	.cfi_def_cfa_offset 8
	.cfi_offset lr, -4
	.cfi_offset r7, -8
	.pad	#112
	sub	sp, #112
	.cfi_def_cfa_offset 120
	ldr.w	r12, [sp, #120]
	str	r0, [sp, #104]
	str	r1, [sp, #100]
	str	r2, [sp, #96]
	str	r3, [sp, #92]
	ldr	r0, [sp, #104]
.Ltmp84:
	.loc	1 153 28 prologue_end           @ ../communication/can/odrive_can.cpp:153:28
	str	r0, [sp, #20]                   @ 4-byte Spill
	adds	r0, #52
	.loc	1 153 43 is_stmt 0              @ ../communication/can/odrive_can.cpp:153:43
	str	r0, [sp, #28]                   @ 4-byte Spill
	bl	_ZNSt3__25arrayIN9ODriveCAN21ODriveCanSubscriptionELj8EE5beginB7v180000Ev
	mov	r1, r0
	.loc	1 153 67                        @ ../communication/can/odrive_can.cpp:153:67
	ldr	r0, [sp, #28]                   @ 4-byte Reload
	str	r1, [sp, #24]                   @ 4-byte Spill
	bl	_ZNSt3__25arrayIN9ODriveCAN21ODriveCanSubscriptionELj8EE3endB7v180000Ev
	mov	r1, r0
	.loc	1 153 15                        @ ../communication/can/odrive_can.cpp:153:15
	ldr	r0, [sp, #24]                   @ 4-byte Reload
	bl	_ZNSt3__27find_ifB7v180000IPN9ODriveCAN21ODriveCanSubscriptionEZNS1_9subscribeERK16MsgIdFilterSpecsPFvPvRK13can_Message_tES7_PPN10CanBusBase15CanSubscriptionEE3$_0EET_SI_SI_T0_
	mov	r1, r0
	.loc	1 153 10                        @ ../communication/can/odrive_can.cpp:153:10
	ldr	r0, [sp, #28]                   @ 4-byte Reload
	str	r1, [sp, #88]
.Ltmp85:
	.loc	1 157 9 is_stmt 1               @ ../communication/can/odrive_can.cpp:157:9
	ldr	r1, [sp, #88]
	.loc	1 157 30 is_stmt 0              @ ../communication/can/odrive_can.cpp:157:30
	str	r1, [sp, #32]                   @ 4-byte Spill
	bl	_ZNSt3__25arrayIN9ODriveCAN21ODriveCanSubscriptionELj8EE3endB7v180000Ev
	mov	r1, r0
.Ltmp86:
	.loc	1 157 9                         @ ../communication/can/odrive_can.cpp:157:9
	ldr	r0, [sp, #32]                   @ 4-byte Reload
	cmp	r0, r1
	bne	.LBB15_2
	b	.LBB15_1
.LBB15_1:
	.loc	1 0 9                           @ ../communication/can/odrive_can.cpp:0:9
	movs	r0, #0
.Ltmp87:
	.loc	1 158 9 is_stmt 1               @ ../communication/can/odrive_can.cpp:158:9
	strb.w	r0, [sp, #111]
	b	.LBB15_13
.Ltmp88:
.LBB15_2:
	.loc	1 161 20                        @ ../communication/can/odrive_can.cpp:161:20
	ldr	r0, [sp, #96]
	.loc	1 161 5 is_stmt 0               @ ../communication/can/odrive_can.cpp:161:5
	ldr	r1, [sp, #88]
	.loc	1 161 18                        @ ../communication/can/odrive_can.cpp:161:18
	str	r0, [r1, #4]
	.loc	1 162 15 is_stmt 1              @ ../communication/can/odrive_can.cpp:162:15
	ldr	r0, [sp, #92]
	.loc	1 162 5 is_stmt 0               @ ../communication/can/odrive_can.cpp:162:5
	ldr	r1, [sp, #88]
	.loc	1 162 13                        @ ../communication/can/odrive_can.cpp:162:13
	str	r0, [r1, #8]
	.loc	1 163 5 is_stmt 1               @ ../communication/can/odrive_can.cpp:163:5
	ldr	r1, [sp, #88]
	movs	r0, #0
	.loc	1 163 14 is_stmt 0              @ ../communication/can/odrive_can.cpp:163:14
	strb	r0, [r1]
.Ltmp89:
	.loc	1 164 9 is_stmt 1               @ ../communication/can/odrive_can.cpp:164:9
	ldr	r0, [sp, #120]
.Ltmp90:
	.loc	1 164 9 is_stmt 0               @ ../communication/can/odrive_can.cpp:164:9
	cbz	r0, .LBB15_4
	b	.LBB15_3
.LBB15_3:
.Ltmp91:
	.loc	1 165 21 is_stmt 1              @ ../communication/can/odrive_can.cpp:165:21
	ldr	r0, [sp, #88]
	.loc	1 165 10 is_stmt 0              @ ../communication/can/odrive_can.cpp:165:10
	ldr	r1, [sp, #120]
	.loc	1 165 17                        @ ../communication/can/odrive_can.cpp:165:17
	str	r0, [r1]
	.loc	1 166 5 is_stmt 1               @ ../communication/can/odrive_can.cpp:166:5
	b	.LBB15_4
.Ltmp92:
.LBB15_4:
	.loc	1 168 24                        @ ../communication/can/odrive_can.cpp:168:24
	ldr	r0, [sp, #100]
	.loc	1 168 34 is_stmt 0              @ ../communication/can/odrive_can.cpp:168:34
	bl	_ZNKSt3__27variantIJtjEE5indexB7v180000Ev
	.loc	1 168 42                        @ ../communication/can/odrive_can.cpp:168:42
	subs	r0, #1
	clz	r0, r0
	lsrs	r0, r0, #5
	.loc	1 168 10                        @ ../communication/can/odrive_can.cpp:168:10
	strb.w	r0, [sp, #86]
	.loc	1 169 19 is_stmt 1              @ ../communication/can/odrive_can.cpp:169:19
	ldrb.w	r0, [sp, #86]
	lsls	r0, r0, #31
	cbz	r0, .LBB15_6
	b	.LBB15_5
.LBB15_5:
	.loc	1 170 33                        @ ../communication/can/odrive_can.cpp:170:33
	ldr	r0, [sp, #100]
	.loc	1 170 21 is_stmt 0              @ ../communication/can/odrive_can.cpp:170:21
	bl	_ZNSt3__23getB7v180000ILj1EJtjEEERKNS_19variant_alternativeIXT_ENS_7variantIJDpT0_EEEE4typeERKS5_
	ldr	r0, [r0]
	.loc	1 170 44                        @ ../communication/can/odrive_can.cpp:170:44
	lsls	r0, r0, #3
	.loc	1 170 50                        @ ../communication/can/odrive_can.cpp:170:50
	adds	r0, #4
	.loc	1 169 19 is_stmt 1              @ ../communication/can/odrive_can.cpp:169:19
	str	r0, [sp, #16]                   @ 4-byte Spill
	b	.LBB15_7
.LBB15_6:
	.loc	1 171 32                        @ ../communication/can/odrive_can.cpp:171:32
	ldr	r0, [sp, #100]
	.loc	1 171 20 is_stmt 0              @ ../communication/can/odrive_can.cpp:171:20
	bl	_ZNSt3__23getB7v180000ILj0EJtjEEERKNS_19variant_alternativeIXT_ENS_7variantIJDpT0_EEEE4typeERKS5_
	ldrh	r0, [r0]
	.loc	1 171 43                        @ ../communication/can/odrive_can.cpp:171:43
	lsls	r0, r0, #21
	.loc	1 169 19 is_stmt 1              @ ../communication/can/odrive_can.cpp:169:19
	str	r0, [sp, #16]                   @ 4-byte Spill
	b	.LBB15_7
.LBB15_7:
	ldr	r0, [sp, #16]                   @ 4-byte Reload
	.loc	1 169 14 is_stmt 0              @ ../communication/can/odrive_can.cpp:169:14
	str	r0, [sp, #80]
	.loc	1 172 22 is_stmt 1              @ ../communication/can/odrive_can.cpp:172:22
	ldrb.w	r0, [sp, #86]
	lsls	r0, r0, #31
	cbz	r0, .LBB15_9
	b	.LBB15_8
.LBB15_8:
	.loc	1 172 37 is_stmt 0              @ ../communication/can/odrive_can.cpp:172:37
	ldr	r0, [sp, #100]
	.loc	1 172 44                        @ ../communication/can/odrive_can.cpp:172:44
	ldr	r0, [r0, #8]
	.loc	1 172 49                        @ ../communication/can/odrive_can.cpp:172:49
	lsls	r0, r0, #3
	.loc	1 172 22                        @ ../communication/can/odrive_can.cpp:172:22
	str	r0, [sp, #12]                   @ 4-byte Spill
	b	.LBB15_10
.LBB15_9:
	.loc	1 172 58                        @ ../communication/can/odrive_can.cpp:172:58
	ldr	r0, [sp, #100]
	.loc	1 172 65                        @ ../communication/can/odrive_can.cpp:172:65
	ldr	r0, [r0, #8]
	.loc	1 172 70                        @ ../communication/can/odrive_can.cpp:172:70
	lsls	r0, r0, #21
	.loc	1 172 22                        @ ../communication/can/odrive_can.cpp:172:22
	str	r0, [sp, #12]                   @ 4-byte Spill
	b	.LBB15_10
.LBB15_10:
	ldr	r0, [sp, #20]                   @ 4-byte Reload
	ldr	r1, [sp, #12]                   @ 4-byte Reload
	.loc	1 173 19 is_stmt 1              @ ../communication/can/odrive_can.cpp:173:19
	orr	r1, r1, #4
	.loc	1 172 14                        @ ../communication/can/odrive_can.cpp:172:14
	str	r1, [sp, #76]
	movs	r1, #1
	.loc	1 176 33                        @ ../communication/can/odrive_can.cpp:176:33
	str	r1, [sp, #8]                    @ 4-byte Spill
	str	r1, [sp, #68]
	.loc	1 177 31                        @ ../communication/can/odrive_can.cpp:177:31
	ldr	r1, [sp, #88]
	.loc	1 177 37 is_stmt 0              @ ../communication/can/odrive_can.cpp:177:37
	str	r1, [sp]                        @ 4-byte Spill
	adds	r0, #52
	movs	r1, #0
	str	r1, [sp, #4]                    @ 4-byte Spill
	bl	_ZNSt3__25arrayIN9ODriveCAN21ODriveCanSubscriptionELj8EEixB7v180000Ej
	ldr	r3, [sp]                        @ 4-byte Reload
	ldr	r2, [sp, #4]                    @ 4-byte Reload
	ldr	r1, [sp, #8]                    @ 4-byte Reload
	mov	r12, r0
	.loc	1 177 34                        @ ../communication/can/odrive_can.cpp:177:34
	ldr	r0, [sp, #20]                   @ 4-byte Reload
	sub.w	r3, r3, r12
	asrs	r3, r3, #2
	movw	r12, #43691
	movt	r12, #43690
	mul	r3, r3, r12
	.loc	1 177 27                        @ ../communication/can/odrive_can.cpp:177:27
	str	r3, [sp, #56]
	.loc	1 178 39 is_stmt 1              @ ../communication/can/odrive_can.cpp:178:39
	ldr	r3, [sp, #88]
	.loc	1 178 43 is_stmt 0              @ ../communication/can/odrive_can.cpp:178:43
	ldrb	r3, [r3]
	.loc	1 178 37                        @ ../communication/can/odrive_can.cpp:178:37
	str	r3, [sp, #52]
	.loc	1 179 32 is_stmt 1              @ ../communication/can/odrive_can.cpp:179:32
	ldrh.w	r3, [sp, #82]
	.loc	1 179 29 is_stmt 0              @ ../communication/can/odrive_can.cpp:179:29
	str	r3, [sp, #36]
	.loc	1 180 30 is_stmt 1              @ ../communication/can/odrive_can.cpp:180:30
	ldrh.w	r3, [sp, #80]
	.loc	1 180 28 is_stmt 0              @ ../communication/can/odrive_can.cpp:180:28
	str	r3, [sp, #40]
	.loc	1 181 36 is_stmt 1              @ ../communication/can/odrive_can.cpp:181:36
	ldrh.w	r3, [sp, #78]
	.loc	1 181 33 is_stmt 0              @ ../communication/can/odrive_can.cpp:181:33
	str	r3, [sp, #44]
	.loc	1 182 34 is_stmt 1              @ ../communication/can/odrive_can.cpp:182:34
	ldrh.w	r3, [sp, #76]
	.loc	1 182 32 is_stmt 0              @ ../communication/can/odrive_can.cpp:182:32
	str	r3, [sp, #48]
	.loc	1 183 27 is_stmt 1              @ ../communication/can/odrive_can.cpp:183:27
	str	r2, [sp, #60]
	.loc	1 184 28                        @ ../communication/can/odrive_can.cpp:184:28
	str	r1, [sp, #64]
.Ltmp93:
	.loc	1 186 30                        @ ../communication/can/odrive_can.cpp:186:30
	ldr.w	r0, [r0, #148]
	add	r1, sp, #36
	.loc	1 186 9 is_stmt 0               @ ../communication/can/odrive_can.cpp:186:9
	bl	HAL_CAN_ConfigFilter
.Ltmp94:
	.loc	1 186 9                         @ ../communication/can/odrive_can.cpp:186:9
	cbz	r0, .LBB15_12
	b	.LBB15_11
.LBB15_11:
	.loc	1 0 9                           @ ../communication/can/odrive_can.cpp:0:9
	movs	r0, #0
.Ltmp95:
	.loc	1 187 9 is_stmt 1               @ ../communication/can/odrive_can.cpp:187:9
	strb.w	r0, [sp, #111]
	b	.LBB15_13
.Ltmp96:
.LBB15_12:
	.loc	1 0 9 is_stmt 0                 @ ../communication/can/odrive_can.cpp:0:9
	movs	r0, #1
	.loc	1 189 5 is_stmt 1               @ ../communication/can/odrive_can.cpp:189:5
	strb.w	r0, [sp, #111]
	b	.LBB15_13
.LBB15_13:
	.loc	1 190 1                         @ ../communication/can/odrive_can.cpp:190:1
	ldrb.w	r0, [sp, #111]
	.loc	1 190 1 epilogue_begin is_stmt 0 @ ../communication/can/odrive_can.cpp:190:1
	add	sp, #112
	pop	{r7, pc}
.Ltmp97:
.Lfunc_end15:
	.size	_ZN9ODriveCAN9subscribeERK16MsgIdFilterSpecsPFvPvRK13can_Message_tES3_PPN10CanBusBase15CanSubscriptionE, .Lfunc_end15-_ZN9ODriveCAN9subscribeERK16MsgIdFilterSpecsPFvPvRK13can_Message_tES3_PPN10CanBusBase15CanSubscriptionE
	.cfi_endproc
	.cantunwind
	.fnend
                                        @ -- End function
	.section	".text._ZNSt3__27find_ifB7v180000IPN9ODriveCAN21ODriveCanSubscriptionEZNS1_9subscribeERK16MsgIdFilterSpecsPFvPvRK13can_Message_tES7_PPN10CanBusBase15CanSubscriptionEE3$_0EET_SI_SI_T0_","ax",%progbits
	.p2align	2                               @ -- Begin function _ZNSt3__27find_ifB7v180000IPN9ODriveCAN21ODriveCanSubscriptionEZNS1_9subscribeERK16MsgIdFilterSpecsPFvPvRK13can_Message_tES7_PPN10CanBusBase15CanSubscriptionEE3$_0EET_SI_SI_T0_
	.type	_ZNSt3__27find_ifB7v180000IPN9ODriveCAN21ODriveCanSubscriptionEZNS1_9subscribeERK16MsgIdFilterSpecsPFvPvRK13can_Message_tES7_PPN10CanBusBase15CanSubscriptionEE3$_0EET_SI_SI_T0_,%function
	.code	16                              @ @"_ZNSt3__27find_ifB7v180000IPN9ODriveCAN21ODriveCanSubscriptionEZNS1_9subscribeERK16MsgIdFilterSpecsPFvPvRK13can_Message_tES7_PPN10CanBusBase15CanSubscriptionEE3$_0EET_SI_SI_T0_"
	.thumb_func
_ZNSt3__27find_ifB7v180000IPN9ODriveCAN21ODriveCanSubscriptionEZNS1_9subscribeERK16MsgIdFilterSpecsPFvPvRK13can_Message_tES7_PPN10CanBusBase15CanSubscriptionEE3$_0EET_SI_SI_T0_:
.Lfunc_begin16:
	.loc	21 23 0 is_stmt 1               @ D:\Embed\MDK\MDK\ARM\ARMCompilerV621\Bin\..\include\libcxx\__algorithm/find_if.h:23:0
	.fnstart
	.cfi_startproc
@ %bb.0:
	.save	{r7, lr}
	push	{r7, lr}
	.cfi_def_cfa_offset 8
	.cfi_offset lr, -4
	.cfi_offset r7, -8
	.pad	#16
	sub	sp, #16
	.cfi_def_cfa_offset 24
	str	r0, [sp, #8]
	str	r1, [sp, #4]
.Ltmp98:
	.loc	21 24 3 prologue_end            @ D:\Embed\MDK\MDK\ARM\ARMCompilerV621\Bin\..\include\libcxx\__algorithm/find_if.h:24:3
	b	.LBB16_1
.LBB16_1:                               @ =>This Inner Loop Header: Depth=1
.Ltmp99:
	.loc	21 24 10 is_stmt 0              @ D:\Embed\MDK\MDK\ARM\ARMCompilerV621\Bin\..\include\libcxx\__algorithm/find_if.h:24:10
	ldr	r0, [sp, #8]
	.loc	21 24 21                        @ D:\Embed\MDK\MDK\ARM\ARMCompilerV621\Bin\..\include\libcxx\__algorithm/find_if.h:24:21
	ldr	r1, [sp, #4]
.Ltmp100:
	.loc	21 24 3                         @ D:\Embed\MDK\MDK\ARM\ARMCompilerV621\Bin\..\include\libcxx\__algorithm/find_if.h:24:3
	cmp	r0, r1
	beq	.LBB16_6
	b	.LBB16_2
.LBB16_2:                               @   in Loop: Header=BB16_1 Depth=1
.Ltmp101:
	.loc	21 25 17 is_stmt 1              @ D:\Embed\MDK\MDK\ARM\ARMCompilerV621\Bin\..\include\libcxx\__algorithm/find_if.h:25:17
	ldr	r1, [sp, #8]
	add.w	r0, sp, #15
	.loc	21 25 9 is_stmt 0               @ D:\Embed\MDK\MDK\ARM\ARMCompilerV621\Bin\..\include\libcxx\__algorithm/find_if.h:25:9
	bl	_ZZN9ODriveCAN9subscribeERK16MsgIdFilterSpecsPFvPvRK13can_Message_tES3_PPN10CanBusBase15CanSubscriptionEENK3$_0clINS_21ODriveCanSubscriptionEEEDaRT_
.Ltmp102:
	.loc	21 25 9                         @ D:\Embed\MDK\MDK\ARM\ARMCompilerV621\Bin\..\include\libcxx\__algorithm/find_if.h:25:9
	cbz	r0, .LBB16_4
	b	.LBB16_3
.LBB16_3:
.Ltmp103:
	.loc	21 26 7 is_stmt 1               @ D:\Embed\MDK\MDK\ARM\ARMCompilerV621\Bin\..\include\libcxx\__algorithm/find_if.h:26:7
	b	.LBB16_6
.LBB16_4:                               @   in Loop: Header=BB16_1 Depth=1
	.loc	21 25 24                        @ D:\Embed\MDK\MDK\ARM\ARMCompilerV621\Bin\..\include\libcxx\__algorithm/find_if.h:25:24
	b	.LBB16_5
.Ltmp104:
.LBB16_5:                               @   in Loop: Header=BB16_1 Depth=1
	.loc	21 24 29                        @ D:\Embed\MDK\MDK\ARM\ARMCompilerV621\Bin\..\include\libcxx\__algorithm/find_if.h:24:29
	ldr	r0, [sp, #8]
	adds	r0, #12
	str	r0, [sp, #8]
	.loc	21 24 3 is_stmt 0               @ D:\Embed\MDK\MDK\ARM\ARMCompilerV621\Bin\..\include\libcxx\__algorithm/find_if.h:24:3
	b	.LBB16_1
.Ltmp105:
.LBB16_6:
	.loc	21 27 10 is_stmt 1              @ D:\Embed\MDK\MDK\ARM\ARMCompilerV621\Bin\..\include\libcxx\__algorithm/find_if.h:27:10
	ldr	r0, [sp, #8]
	.loc	21 27 3 epilogue_begin is_stmt 0 @ D:\Embed\MDK\MDK\ARM\ARMCompilerV621\Bin\..\include\libcxx\__algorithm/find_if.h:27:3
	add	sp, #16
	pop	{r7, pc}
.Ltmp106:
.Lfunc_end16:
	.size	_ZNSt3__27find_ifB7v180000IPN9ODriveCAN21ODriveCanSubscriptionEZNS1_9subscribeERK16MsgIdFilterSpecsPFvPvRK13can_Message_tES7_PPN10CanBusBase15CanSubscriptionEE3$_0EET_SI_SI_T0_, .Lfunc_end16-_ZNSt3__27find_ifB7v180000IPN9ODriveCAN21ODriveCanSubscriptionEZNS1_9subscribeERK16MsgIdFilterSpecsPFvPvRK13can_Message_tES7_PPN10CanBusBase15CanSubscriptionEE3$_0EET_SI_SI_T0_
	.cfi_endproc
	.cantunwind
	.fnend
                                        @ -- End function
	.section	.text._ZNKSt3__27variantIJtjEE5indexB7v180000Ev,"axG",%progbits,_ZNKSt3__27variantIJtjEE5indexB7v180000Ev,comdat
	.hidden	_ZNKSt3__27variantIJtjEE5indexB7v180000Ev @ -- Begin function _ZNKSt3__27variantIJtjEE5indexB7v180000Ev
	.weak	_ZNKSt3__27variantIJtjEE5indexB7v180000Ev
	.p2align	2
	.type	_ZNKSt3__27variantIJtjEE5indexB7v180000Ev,%function
	.code	16                              @ @_ZNKSt3__27variantIJtjEE5indexB7v180000Ev
	.thumb_func
_ZNKSt3__27variantIJtjEE5indexB7v180000Ev:
.Lfunc_begin17:
	.loc	2 1474 0 is_stmt 1              @ D:\Embed\MDK\MDK\ARM\ARMCompilerV621\Bin\..\include\libcxx\variant:1474:0
	.fnstart
	.cfi_startproc
@ %bb.0:
	.save	{r7, lr}
	push	{r7, lr}
	.cfi_def_cfa_offset 8
	.cfi_offset lr, -4
	.cfi_offset r7, -8
	.pad	#8
	sub	sp, #8
	.cfi_def_cfa_offset 16
	str	r0, [sp, #4]
	ldr	r0, [sp, #4]
.Ltmp107:
	.loc	2 1474 60 prologue_end          @ D:\Embed\MDK\MDK\ARM\ARMCompilerV621\Bin\..\include\libcxx\variant:1474:60
	bl	_ZNKSt3__216__variant_detail6__baseILNS0_6_TraitE0EJtjEE5indexB7v180000Ev
	.loc	2 1474 45 epilogue_begin is_stmt 0 @ D:\Embed\MDK\MDK\ARM\ARMCompilerV621\Bin\..\include\libcxx\variant:1474:45
	add	sp, #8
	pop	{r7, pc}
.Ltmp108:
.Lfunc_end17:
	.size	_ZNKSt3__27variantIJtjEE5indexB7v180000Ev, .Lfunc_end17-_ZNKSt3__27variantIJtjEE5indexB7v180000Ev
	.cfi_endproc
	.cantunwind
	.fnend
                                        @ -- End function
	.section	.text._ZNSt3__23getB7v180000ILj1EJtjEEERKNS_19variant_alternativeIXT_ENS_7variantIJDpT0_EEEE4typeERKS5_,"axG",%progbits,_ZNSt3__23getB7v180000ILj1EJtjEEERKNS_19variant_alternativeIXT_ENS_7variantIJDpT0_EEEE4typeERKS5_,comdat
	.hidden	_ZNSt3__23getB7v180000ILj1EJtjEEERKNS_19variant_alternativeIXT_ENS_7variantIJDpT0_EEEE4typeERKS5_ @ -- Begin function _ZNSt3__23getB7v180000ILj1EJtjEEERKNS_19variant_alternativeIXT_ENS_7variantIJDpT0_EEEE4typeERKS5_
	.weak	_ZNSt3__23getB7v180000ILj1EJtjEEERKNS_19variant_alternativeIXT_ENS_7variantIJDpT0_EEEE4typeERKS5_
	.p2align	2
	.type	_ZNSt3__23getB7v180000ILj1EJtjEEERKNS_19variant_alternativeIXT_ENS_7variantIJDpT0_EEEE4typeERKS5_,%function
	.code	16                              @ @_ZNSt3__23getB7v180000ILj1EJtjEEERKNS_19variant_alternativeIXT_ENS_7variantIJDpT0_EEEE4typeERKS5_
	.thumb_func
_ZNSt3__23getB7v180000ILj1EJtjEEERKNS_19variant_alternativeIXT_ENS_7variantIJDpT0_EEEE4typeERKS5_:
.Lfunc_begin18:
	.loc	2 1544 0 is_stmt 1              @ D:\Embed\MDK\MDK\ARM\ARMCompilerV621\Bin\..\include\libcxx\variant:1544:0
	.fnstart
	.cfi_startproc
@ %bb.0:
	.save	{r7, lr}
	push	{r7, lr}
	.cfi_def_cfa_offset 8
	.cfi_offset lr, -4
	.cfi_offset r7, -8
	.pad	#8
	sub	sp, #8
	.cfi_def_cfa_offset 16
	str	r0, [sp, #4]
.Ltmp109:
	.loc	2 1547 34 prologue_end          @ D:\Embed\MDK\MDK\ARM\ARMCompilerV621\Bin\..\include\libcxx\variant:1547:34
	ldr	r0, [sp, #4]
	.loc	2 1547 10 is_stmt 0             @ D:\Embed\MDK\MDK\ARM\ARMCompilerV621\Bin\..\include\libcxx\variant:1547:10
	bl	_ZNSt3__213__generic_getB7v180000ILj1ERKNS_7variantIJtjEEEEEODaOT0_
	.loc	2 1547 3 epilogue_begin         @ D:\Embed\MDK\MDK\ARM\ARMCompilerV621\Bin\..\include\libcxx\variant:1547:3
	add	sp, #8
	pop	{r7, pc}
.Ltmp110:
.Lfunc_end18:
	.size	_ZNSt3__23getB7v180000ILj1EJtjEEERKNS_19variant_alternativeIXT_ENS_7variantIJDpT0_EEEE4typeERKS5_, .Lfunc_end18-_ZNSt3__23getB7v180000ILj1EJtjEEERKNS_19variant_alternativeIXT_ENS_7variantIJDpT0_EEEE4typeERKS5_
	.cfi_endproc
	.cantunwind
	.fnend
                                        @ -- End function
	.section	.text._ZNSt3__23getB7v180000ILj0EJtjEEERKNS_19variant_alternativeIXT_ENS_7variantIJDpT0_EEEE4typeERKS5_,"axG",%progbits,_ZNSt3__23getB7v180000ILj0EJtjEEERKNS_19variant_alternativeIXT_ENS_7variantIJDpT0_EEEE4typeERKS5_,comdat
	.hidden	_ZNSt3__23getB7v180000ILj0EJtjEEERKNS_19variant_alternativeIXT_ENS_7variantIJDpT0_EEEE4typeERKS5_ @ -- Begin function _ZNSt3__23getB7v180000ILj0EJtjEEERKNS_19variant_alternativeIXT_ENS_7variantIJDpT0_EEEE4typeERKS5_
	.weak	_ZNSt3__23getB7v180000ILj0EJtjEEERKNS_19variant_alternativeIXT_ENS_7variantIJDpT0_EEEE4typeERKS5_
	.p2align	2
	.type	_ZNSt3__23getB7v180000ILj0EJtjEEERKNS_19variant_alternativeIXT_ENS_7variantIJDpT0_EEEE4typeERKS5_,%function
	.code	16                              @ @_ZNSt3__23getB7v180000ILj0EJtjEEERKNS_19variant_alternativeIXT_ENS_7variantIJDpT0_EEEE4typeERKS5_
	.thumb_func
_ZNSt3__23getB7v180000ILj0EJtjEEERKNS_19variant_alternativeIXT_ENS_7variantIJDpT0_EEEE4typeERKS5_:
.Lfunc_begin19:
	.loc	2 1544 0 is_stmt 1              @ D:\Embed\MDK\MDK\ARM\ARMCompilerV621\Bin\..\include\libcxx\variant:1544:0
	.fnstart
	.cfi_startproc
@ %bb.0:
	.save	{r7, lr}
	push	{r7, lr}
	.cfi_def_cfa_offset 8
	.cfi_offset lr, -4
	.cfi_offset r7, -8
	.pad	#8
	sub	sp, #8
	.cfi_def_cfa_offset 16
	str	r0, [sp, #4]
.Ltmp111:
	.loc	2 1547 34 prologue_end          @ D:\Embed\MDK\MDK\ARM\ARMCompilerV621\Bin\..\include\libcxx\variant:1547:34
	ldr	r0, [sp, #4]
	.loc	2 1547 10 is_stmt 0             @ D:\Embed\MDK\MDK\ARM\ARMCompilerV621\Bin\..\include\libcxx\variant:1547:10
	bl	_ZNSt3__213__generic_getB7v180000ILj0ERKNS_7variantIJtjEEEEEODaOT0_
	.loc	2 1547 3 epilogue_begin         @ D:\Embed\MDK\MDK\ARM\ARMCompilerV621\Bin\..\include\libcxx\variant:1547:3
	add	sp, #8
	pop	{r7, pc}
.Ltmp112:
.Lfunc_end19:
	.size	_ZNSt3__23getB7v180000ILj0EJtjEEERKNS_19variant_alternativeIXT_ENS_7variantIJDpT0_EEEE4typeERKS5_, .Lfunc_end19-_ZNSt3__23getB7v180000ILj0EJtjEEERKNS_19variant_alternativeIXT_ENS_7variantIJDpT0_EEEE4typeERKS5_
	.cfi_endproc
	.cantunwind
	.fnend
                                        @ -- End function
	.section	.text._ZNSt3__25arrayIN9ODriveCAN21ODriveCanSubscriptionELj8EEixB7v180000Ej,"axG",%progbits,_ZNSt3__25arrayIN9ODriveCAN21ODriveCanSubscriptionELj8EEixB7v180000Ej,comdat
	.hidden	_ZNSt3__25arrayIN9ODriveCAN21ODriveCanSubscriptionELj8EEixB7v180000Ej @ -- Begin function _ZNSt3__25arrayIN9ODriveCAN21ODriveCanSubscriptionELj8EEixB7v180000Ej
	.weak	_ZNSt3__25arrayIN9ODriveCAN21ODriveCanSubscriptionELj8EEixB7v180000Ej
	.p2align	2
	.type	_ZNSt3__25arrayIN9ODriveCAN21ODriveCanSubscriptionELj8EEixB7v180000Ej,%function
	.code	16                              @ @_ZNSt3__25arrayIN9ODriveCAN21ODriveCanSubscriptionELj8EEixB7v180000Ej
	.thumb_func
_ZNSt3__25arrayIN9ODriveCAN21ODriveCanSubscriptionELj8EEixB7v180000Ej:
.Lfunc_begin20:
	.loc	15 231 0 is_stmt 1              @ D:\Embed\MDK\MDK\ARM\ARMCompilerV621\Bin\..\include\libcxx\array:231:0
	.fnstart
	.cfi_startproc
@ %bb.0:
	.pad	#8
	sub	sp, #8
	.cfi_def_cfa_offset 8
	str	r0, [sp, #4]
	str	r1, [sp]
	ldr	r0, [sp, #4]
.Ltmp113:
	.loc	15 233 25 prologue_end          @ D:\Embed\MDK\MDK\ARM\ARMCompilerV621\Bin\..\include\libcxx\array:233:25
	ldr	r1, [sp]
	.loc	15 233 16 is_stmt 0             @ D:\Embed\MDK\MDK\ARM\ARMCompilerV621\Bin\..\include\libcxx\array:233:16
	add.w	r1, r1, r1, lsl #1
	add.w	r0, r0, r1, lsl #2
	.loc	15 233 9 epilogue_begin         @ D:\Embed\MDK\MDK\ARM\ARMCompilerV621\Bin\..\include\libcxx\array:233:9
	add	sp, #8
	bx	lr
.Ltmp114:
.Lfunc_end20:
	.size	_ZNSt3__25arrayIN9ODriveCAN21ODriveCanSubscriptionELj8EEixB7v180000Ej, .Lfunc_end20-_ZNSt3__25arrayIN9ODriveCAN21ODriveCanSubscriptionELj8EEixB7v180000Ej
	.cfi_endproc
	.cantunwind
	.fnend
                                        @ -- End function
	.section	.text._ZN9ODriveCAN11unsubscribeEPN10CanBusBase15CanSubscriptionE,"ax",%progbits
	.hidden	_ZN9ODriveCAN11unsubscribeEPN10CanBusBase15CanSubscriptionE @ -- Begin function _ZN9ODriveCAN11unsubscribeEPN10CanBusBase15CanSubscriptionE
	.globl	_ZN9ODriveCAN11unsubscribeEPN10CanBusBase15CanSubscriptionE
	.p2align	2
	.type	_ZN9ODriveCAN11unsubscribeEPN10CanBusBase15CanSubscriptionE,%function
	.code	16                              @ @_ZN9ODriveCAN11unsubscribeEPN10CanBusBase15CanSubscriptionE
	.thumb_func
_ZN9ODriveCAN11unsubscribeEPN10CanBusBase15CanSubscriptionE:
.Lfunc_begin21:
	.loc	1 192 0 is_stmt 1               @ ../communication/can/odrive_can.cpp:192:0
	.fnstart
	.cfi_startproc
@ %bb.0:
	.save	{r7, lr}
	push	{r7, lr}
	.cfi_def_cfa_offset 8
	.cfi_offset lr, -4
	.cfi_offset r7, -8
	.pad	#72
	sub	sp, #72
	.cfi_def_cfa_offset 80
	str	r0, [sp, #64]
	str	r1, [sp, #60]
	ldr	r0, [sp, #64]
.Ltmp115:
	.loc	1 193 79 prologue_end           @ ../communication/can/odrive_can.cpp:193:79
	str	r0, [sp, #8]                    @ 4-byte Spill
	ldr	r1, [sp, #60]
	.loc	1 193 28 is_stmt 0              @ ../communication/can/odrive_can.cpp:193:28
	str	r1, [sp, #56]
.Ltmp116:
	.loc	1 194 9 is_stmt 1               @ ../communication/can/odrive_can.cpp:194:9
	ldr	r1, [sp, #56]
	.loc	1 194 24 is_stmt 0              @ ../communication/can/odrive_can.cpp:194:24
	str	r1, [sp, #12]                   @ 4-byte Spill
	adds	r0, #52
	.loc	1 194 39                        @ ../communication/can/odrive_can.cpp:194:39
	bl	_ZNSt3__25arrayIN9ODriveCAN21ODriveCanSubscriptionELj8EE5beginB7v180000Ev
	mov	r1, r0
	.loc	1 194 47                        @ ../communication/can/odrive_can.cpp:194:47
	ldr	r0, [sp, #12]                   @ 4-byte Reload
	cmp	r0, r1
	blo	.LBB21_2
	b	.LBB21_1
.LBB21_1:
	.loc	1 194 50                        @ ../communication/can/odrive_can.cpp:194:50
	ldr	r0, [sp, #8]                    @ 4-byte Reload
	ldr	r1, [sp, #56]
	.loc	1 194 66                        @ ../communication/can/odrive_can.cpp:194:66
	str	r1, [sp, #4]                    @ 4-byte Spill
	adds	r0, #52
	.loc	1 194 81                        @ ../communication/can/odrive_can.cpp:194:81
	bl	_ZNSt3__25arrayIN9ODriveCAN21ODriveCanSubscriptionELj8EE3endB7v180000Ev
	mov	r1, r0
.Ltmp117:
	.loc	1 194 9                         @ ../communication/can/odrive_can.cpp:194:9
	ldr	r0, [sp, #4]                    @ 4-byte Reload
	cmp	r0, r1
	blo	.LBB21_3
	b	.LBB21_2
.LBB21_2:
	.loc	1 0 9                           @ ../communication/can/odrive_can.cpp:0:9
	movs	r0, #0
.Ltmp118:
	.loc	1 195 9 is_stmt 1               @ ../communication/can/odrive_can.cpp:195:9
	strb.w	r0, [sp, #71]
	b	.LBB21_6
.Ltmp119:
.LBB21_3:
	.loc	1 197 9                         @ ../communication/can/odrive_can.cpp:197:9
	ldr	r0, [sp, #56]
	.loc	1 197 23 is_stmt 0              @ ../communication/can/odrive_can.cpp:197:23
	ldrb	r0, [r0]
.Ltmp120:
	.loc	1 197 9                         @ ../communication/can/odrive_can.cpp:197:9
	cmp	r0, #255
	beq	.LBB21_5
	b	.LBB21_4
.LBB21_4:
	.loc	1 0 9                           @ ../communication/can/odrive_can.cpp:0:9
	movs	r0, #0
.Ltmp121:
	.loc	1 198 9 is_stmt 1               @ ../communication/can/odrive_can.cpp:198:9
	strb.w	r0, [sp, #71]
	b	.LBB21_6
.Ltmp122:
.LBB21_5:
	.loc	1 201 5                         @ ../communication/can/odrive_can.cpp:201:5
	ldr	r1, [sp, #56]
	movs	r0, #255
	.loc	1 201 24 is_stmt 0              @ ../communication/can/odrive_can.cpp:201:24
	strb	r0, [r1]
	add	r0, sp, #16
	str	r0, [sp]                        @ 4-byte Spill
	movs	r1, #40
	.loc	1 203 23 is_stmt 1              @ ../communication/can/odrive_can.cpp:203:23
	bl	__aeabi_memclr4
	ldr	r0, [sp, #8]                    @ 4-byte Reload
	ldr	r1, [sp]                        @ 4-byte Reload
	movs	r2, #0
	.loc	1 204 33                        @ ../communication/can/odrive_can.cpp:204:33
	str	r2, [sp, #48]
	.loc	1 205 33                        @ ../communication/can/odrive_can.cpp:205:33
	ldr.w	r0, [r0, #148]
	.loc	1 205 12 is_stmt 0              @ ../communication/can/odrive_can.cpp:205:12
	bl	HAL_CAN_ConfigFilter
	.loc	1 205 55                        @ ../communication/can/odrive_can.cpp:205:55
	clz	r0, r0
	lsrs	r0, r0, #5
	.loc	1 205 5                         @ ../communication/can/odrive_can.cpp:205:5
	strb.w	r0, [sp, #71]
	b	.LBB21_6
.LBB21_6:
	.loc	1 206 1 is_stmt 1               @ ../communication/can/odrive_can.cpp:206:1
	ldrb.w	r0, [sp, #71]
	.loc	1 206 1 epilogue_begin is_stmt 0 @ ../communication/can/odrive_can.cpp:206:1
	add	sp, #72
	pop	{r7, pc}
.Ltmp123:
.Lfunc_end21:
	.size	_ZN9ODriveCAN11unsubscribeEPN10CanBusBase15CanSubscriptionE, .Lfunc_end21-_ZN9ODriveCAN11unsubscribeEPN10CanBusBase15CanSubscriptionE
	.cfi_endproc
	.cantunwind
	.fnend
                                        @ -- End function
	.section	.text.HAL_CAN_TxMailbox0CompleteCallback,"ax",%progbits
	.hidden	HAL_CAN_TxMailbox0CompleteCallback @ -- Begin function HAL_CAN_TxMailbox0CompleteCallback
	.globl	HAL_CAN_TxMailbox0CompleteCallback
	.p2align	2
	.type	HAL_CAN_TxMailbox0CompleteCallback,%function
	.code	16                              @ @HAL_CAN_TxMailbox0CompleteCallback
	.thumb_func
HAL_CAN_TxMailbox0CompleteCallback:
.Lfunc_begin22:
	.loc	1 208 0 is_stmt 1               @ ../communication/can/odrive_can.cpp:208:0
	.fnstart
	.cfi_startproc
@ %bb.0:
	.save	{r7, lr}
	push	{r7, lr}
	.cfi_def_cfa_offset 8
	.cfi_offset lr, -4
	.cfi_offset r7, -8
	.pad	#8
	sub	sp, #8
	.cfi_def_cfa_offset 16
	str	r0, [sp, #4]
.Ltmp124:
	.loc	1 209 36 prologue_end           @ ../communication/can/odrive_can.cpp:209:36
	ldr	r0, [sp, #4]
	movs	r1, #1
	.loc	1 209 5 is_stmt 0               @ ../communication/can/odrive_can.cpp:209:5
	bl	HAL_CAN_DeactivateNotification
	.loc	1 210 24 is_stmt 1              @ ../communication/can/odrive_can.cpp:210:24
	movw	r0, :lower16:sem_can
	movt	r0, :upper16:sem_can
	ldr	r0, [r0]
	.loc	1 210 5 is_stmt 0               @ ../communication/can/odrive_can.cpp:210:5
	bl	osSemaphoreRelease
	.loc	1 211 1 epilogue_begin is_stmt 1 @ ../communication/can/odrive_can.cpp:211:1
	add	sp, #8
	pop	{r7, pc}
.Ltmp125:
.Lfunc_end22:
	.size	HAL_CAN_TxMailbox0CompleteCallback, .Lfunc_end22-HAL_CAN_TxMailbox0CompleteCallback
	.cfi_endproc
	.cantunwind
	.fnend
                                        @ -- End function
	.section	.text.HAL_CAN_TxMailbox1CompleteCallback,"ax",%progbits
	.hidden	HAL_CAN_TxMailbox1CompleteCallback @ -- Begin function HAL_CAN_TxMailbox1CompleteCallback
	.globl	HAL_CAN_TxMailbox1CompleteCallback
	.p2align	2
	.type	HAL_CAN_TxMailbox1CompleteCallback,%function
	.code	16                              @ @HAL_CAN_TxMailbox1CompleteCallback
	.thumb_func
HAL_CAN_TxMailbox1CompleteCallback:
.Lfunc_begin23:
	.loc	1 212 0                         @ ../communication/can/odrive_can.cpp:212:0
	.fnstart
	.cfi_startproc
@ %bb.0:
	.save	{r7, lr}
	push	{r7, lr}
	.cfi_def_cfa_offset 8
	.cfi_offset lr, -4
	.cfi_offset r7, -8
	.pad	#8
	sub	sp, #8
	.cfi_def_cfa_offset 16
	str	r0, [sp, #4]
.Ltmp126:
	.loc	1 213 36 prologue_end           @ ../communication/can/odrive_can.cpp:213:36
	ldr	r0, [sp, #4]
	movs	r1, #1
	.loc	1 213 5 is_stmt 0               @ ../communication/can/odrive_can.cpp:213:5
	bl	HAL_CAN_DeactivateNotification
	.loc	1 214 24 is_stmt 1              @ ../communication/can/odrive_can.cpp:214:24
	movw	r0, :lower16:sem_can
	movt	r0, :upper16:sem_can
	ldr	r0, [r0]
	.loc	1 214 5 is_stmt 0               @ ../communication/can/odrive_can.cpp:214:5
	bl	osSemaphoreRelease
	.loc	1 215 1 epilogue_begin is_stmt 1 @ ../communication/can/odrive_can.cpp:215:1
	add	sp, #8
	pop	{r7, pc}
.Ltmp127:
.Lfunc_end23:
	.size	HAL_CAN_TxMailbox1CompleteCallback, .Lfunc_end23-HAL_CAN_TxMailbox1CompleteCallback
	.cfi_endproc
	.cantunwind
	.fnend
                                        @ -- End function
	.section	.text.HAL_CAN_TxMailbox2CompleteCallback,"ax",%progbits
	.hidden	HAL_CAN_TxMailbox2CompleteCallback @ -- Begin function HAL_CAN_TxMailbox2CompleteCallback
	.globl	HAL_CAN_TxMailbox2CompleteCallback
	.p2align	2
	.type	HAL_CAN_TxMailbox2CompleteCallback,%function
	.code	16                              @ @HAL_CAN_TxMailbox2CompleteCallback
	.thumb_func
HAL_CAN_TxMailbox2CompleteCallback:
.Lfunc_begin24:
	.loc	1 216 0                         @ ../communication/can/odrive_can.cpp:216:0
	.fnstart
	.cfi_startproc
@ %bb.0:
	.save	{r7, lr}
	push	{r7, lr}
	.cfi_def_cfa_offset 8
	.cfi_offset lr, -4
	.cfi_offset r7, -8
	.pad	#8
	sub	sp, #8
	.cfi_def_cfa_offset 16
	str	r0, [sp, #4]
.Ltmp128:
	.loc	1 217 36 prologue_end           @ ../communication/can/odrive_can.cpp:217:36
	ldr	r0, [sp, #4]
	movs	r1, #1
	.loc	1 217 5 is_stmt 0               @ ../communication/can/odrive_can.cpp:217:5
	bl	HAL_CAN_DeactivateNotification
	.loc	1 218 24 is_stmt 1              @ ../communication/can/odrive_can.cpp:218:24
	movw	r0, :lower16:sem_can
	movt	r0, :upper16:sem_can
	ldr	r0, [r0]
	.loc	1 218 5 is_stmt 0               @ ../communication/can/odrive_can.cpp:218:5
	bl	osSemaphoreRelease
	.loc	1 219 1 epilogue_begin is_stmt 1 @ ../communication/can/odrive_can.cpp:219:1
	add	sp, #8
	pop	{r7, pc}
.Ltmp129:
.Lfunc_end24:
	.size	HAL_CAN_TxMailbox2CompleteCallback, .Lfunc_end24-HAL_CAN_TxMailbox2CompleteCallback
	.cfi_endproc
	.cantunwind
	.fnend
                                        @ -- End function
	.section	.text.HAL_CAN_TxMailbox0AbortCallback,"ax",%progbits
	.hidden	HAL_CAN_TxMailbox0AbortCallback @ -- Begin function HAL_CAN_TxMailbox0AbortCallback
	.globl	HAL_CAN_TxMailbox0AbortCallback
	.p2align	2
	.type	HAL_CAN_TxMailbox0AbortCallback,%function
	.code	16                              @ @HAL_CAN_TxMailbox0AbortCallback
	.thumb_func
HAL_CAN_TxMailbox0AbortCallback:
.Lfunc_begin25:
	.loc	1 220 0                         @ ../communication/can/odrive_can.cpp:220:0
	.fnstart
	.cfi_startproc
@ %bb.0:
	.pad	#4
	sub	sp, #4
	.cfi_def_cfa_offset 4
	str	r0, [sp]
.Ltmp130:
	.loc	1 220 64 prologue_end epilogue_begin @ ../communication/can/odrive_can.cpp:220:64
	add	sp, #4
	bx	lr
.Ltmp131:
.Lfunc_end25:
	.size	HAL_CAN_TxMailbox0AbortCallback, .Lfunc_end25-HAL_CAN_TxMailbox0AbortCallback
	.cfi_endproc
	.cantunwind
	.fnend
                                        @ -- End function
	.section	.text.HAL_CAN_TxMailbox1AbortCallback,"ax",%progbits
	.hidden	HAL_CAN_TxMailbox1AbortCallback @ -- Begin function HAL_CAN_TxMailbox1AbortCallback
	.globl	HAL_CAN_TxMailbox1AbortCallback
	.p2align	2
	.type	HAL_CAN_TxMailbox1AbortCallback,%function
	.code	16                              @ @HAL_CAN_TxMailbox1AbortCallback
	.thumb_func
HAL_CAN_TxMailbox1AbortCallback:
.Lfunc_begin26:
	.loc	1 221 0                         @ ../communication/can/odrive_can.cpp:221:0
	.fnstart
	.cfi_startproc
@ %bb.0:
	.pad	#4
	sub	sp, #4
	.cfi_def_cfa_offset 4
	str	r0, [sp]
.Ltmp132:
	.loc	1 221 64 prologue_end epilogue_begin @ ../communication/can/odrive_can.cpp:221:64
	add	sp, #4
	bx	lr
.Ltmp133:
.Lfunc_end26:
	.size	HAL_CAN_TxMailbox1AbortCallback, .Lfunc_end26-HAL_CAN_TxMailbox1AbortCallback
	.cfi_endproc
	.cantunwind
	.fnend
                                        @ -- End function
	.section	.text.HAL_CAN_TxMailbox2AbortCallback,"ax",%progbits
	.hidden	HAL_CAN_TxMailbox2AbortCallback @ -- Begin function HAL_CAN_TxMailbox2AbortCallback
	.globl	HAL_CAN_TxMailbox2AbortCallback
	.p2align	2
	.type	HAL_CAN_TxMailbox2AbortCallback,%function
	.code	16                              @ @HAL_CAN_TxMailbox2AbortCallback
	.thumb_func
HAL_CAN_TxMailbox2AbortCallback:
.Lfunc_begin27:
	.loc	1 222 0                         @ ../communication/can/odrive_can.cpp:222:0
	.fnstart
	.cfi_startproc
@ %bb.0:
	.pad	#4
	sub	sp, #4
	.cfi_def_cfa_offset 4
	str	r0, [sp]
.Ltmp134:
	.loc	1 222 64 prologue_end epilogue_begin @ ../communication/can/odrive_can.cpp:222:64
	add	sp, #4
	bx	lr
.Ltmp135:
.Lfunc_end27:
	.size	HAL_CAN_TxMailbox2AbortCallback, .Lfunc_end27-HAL_CAN_TxMailbox2AbortCallback
	.cfi_endproc
	.cantunwind
	.fnend
                                        @ -- End function
	.section	.text.HAL_CAN_RxFifo0MsgPendingCallback,"ax",%progbits
	.hidden	HAL_CAN_RxFifo0MsgPendingCallback @ -- Begin function HAL_CAN_RxFifo0MsgPendingCallback
	.globl	HAL_CAN_RxFifo0MsgPendingCallback
	.p2align	2
	.type	HAL_CAN_RxFifo0MsgPendingCallback,%function
	.code	16                              @ @HAL_CAN_RxFifo0MsgPendingCallback
	.thumb_func
HAL_CAN_RxFifo0MsgPendingCallback:
.Lfunc_begin28:
	.loc	1 223 0                         @ ../communication/can/odrive_can.cpp:223:0
	.fnstart
	.cfi_startproc
@ %bb.0:
	.save	{r7, lr}
	push	{r7, lr}
	.cfi_def_cfa_offset 8
	.cfi_offset lr, -4
	.cfi_offset r7, -8
	.pad	#8
	sub	sp, #8
	.cfi_def_cfa_offset 16
	str	r0, [sp, #4]
.Ltmp136:
	.loc	1 224 36 prologue_end           @ ../communication/can/odrive_can.cpp:224:36
	ldr	r0, [sp, #4]
	movs	r1, #2
	.loc	1 224 5 is_stmt 0               @ ../communication/can/odrive_can.cpp:224:5
	bl	HAL_CAN_DeactivateNotification
	.loc	1 225 24 is_stmt 1              @ ../communication/can/odrive_can.cpp:225:24
	movw	r0, :lower16:sem_can
	movt	r0, :upper16:sem_can
	ldr	r0, [r0]
	.loc	1 225 5 is_stmt 0               @ ../communication/can/odrive_can.cpp:225:5
	bl	osSemaphoreRelease
	.loc	1 226 1 epilogue_begin is_stmt 1 @ ../communication/can/odrive_can.cpp:226:1
	add	sp, #8
	pop	{r7, pc}
.Ltmp137:
.Lfunc_end28:
	.size	HAL_CAN_RxFifo0MsgPendingCallback, .Lfunc_end28-HAL_CAN_RxFifo0MsgPendingCallback
	.cfi_endproc
	.cantunwind
	.fnend
                                        @ -- End function
	.section	.text.HAL_CAN_RxFifo0FullCallback,"ax",%progbits
	.hidden	HAL_CAN_RxFifo0FullCallback     @ -- Begin function HAL_CAN_RxFifo0FullCallback
	.globl	HAL_CAN_RxFifo0FullCallback
	.p2align	2
	.type	HAL_CAN_RxFifo0FullCallback,%function
	.code	16                              @ @HAL_CAN_RxFifo0FullCallback
	.thumb_func
HAL_CAN_RxFifo0FullCallback:
.Lfunc_begin29:
	.loc	1 227 0                         @ ../communication/can/odrive_can.cpp:227:0
	.fnstart
	.cfi_startproc
@ %bb.0:
	.save	{r7, lr}
	push	{r7, lr}
	.cfi_def_cfa_offset 8
	.cfi_offset lr, -4
	.cfi_offset r7, -8
	.pad	#8
	sub	sp, #8
	.cfi_def_cfa_offset 16
	str	r0, [sp, #4]
.Ltmp138:
	.loc	1 228 36 prologue_end           @ ../communication/can/odrive_can.cpp:228:36
	ldr	r0, [sp, #4]
	movs	r1, #16
	.loc	1 228 5 is_stmt 0               @ ../communication/can/odrive_can.cpp:228:5
	bl	HAL_CAN_DeactivateNotification
	.loc	1 229 24 is_stmt 1              @ ../communication/can/odrive_can.cpp:229:24
	movw	r0, :lower16:sem_can
	movt	r0, :upper16:sem_can
	ldr	r0, [r0]
	.loc	1 229 5 is_stmt 0               @ ../communication/can/odrive_can.cpp:229:5
	bl	osSemaphoreRelease
	.loc	1 230 1 epilogue_begin is_stmt 1 @ ../communication/can/odrive_can.cpp:230:1
	add	sp, #8
	pop	{r7, pc}
.Ltmp139:
.Lfunc_end29:
	.size	HAL_CAN_RxFifo0FullCallback, .Lfunc_end29-HAL_CAN_RxFifo0FullCallback
	.cfi_endproc
	.cantunwind
	.fnend
                                        @ -- End function
	.section	.text.HAL_CAN_RxFifo1MsgPendingCallback,"ax",%progbits
	.hidden	HAL_CAN_RxFifo1MsgPendingCallback @ -- Begin function HAL_CAN_RxFifo1MsgPendingCallback
	.globl	HAL_CAN_RxFifo1MsgPendingCallback
	.p2align	2
	.type	HAL_CAN_RxFifo1MsgPendingCallback,%function
	.code	16                              @ @HAL_CAN_RxFifo1MsgPendingCallback
	.thumb_func
HAL_CAN_RxFifo1MsgPendingCallback:
.Lfunc_begin30:
	.loc	1 231 0                         @ ../communication/can/odrive_can.cpp:231:0
	.fnstart
	.cfi_startproc
@ %bb.0:
	.pad	#4
	sub	sp, #4
	.cfi_def_cfa_offset 4
	str	r0, [sp]
.Ltmp140:
	.loc	1 231 66 prologue_end epilogue_begin @ ../communication/can/odrive_can.cpp:231:66
	add	sp, #4
	bx	lr
.Ltmp141:
.Lfunc_end30:
	.size	HAL_CAN_RxFifo1MsgPendingCallback, .Lfunc_end30-HAL_CAN_RxFifo1MsgPendingCallback
	.cfi_endproc
	.cantunwind
	.fnend
                                        @ -- End function
	.section	.text.HAL_CAN_RxFifo1FullCallback,"ax",%progbits
	.hidden	HAL_CAN_RxFifo1FullCallback     @ -- Begin function HAL_CAN_RxFifo1FullCallback
	.globl	HAL_CAN_RxFifo1FullCallback
	.p2align	2
	.type	HAL_CAN_RxFifo1FullCallback,%function
	.code	16                              @ @HAL_CAN_RxFifo1FullCallback
	.thumb_func
HAL_CAN_RxFifo1FullCallback:
.Lfunc_begin31:
	.loc	1 232 0                         @ ../communication/can/odrive_can.cpp:232:0
	.fnstart
	.cfi_startproc
@ %bb.0:
	.pad	#4
	sub	sp, #4
	.cfi_def_cfa_offset 4
	str	r0, [sp]
.Ltmp142:
	.loc	1 232 60 prologue_end epilogue_begin @ ../communication/can/odrive_can.cpp:232:60
	add	sp, #4
	bx	lr
.Ltmp143:
.Lfunc_end31:
	.size	HAL_CAN_RxFifo1FullCallback, .Lfunc_end31-HAL_CAN_RxFifo1FullCallback
	.cfi_endproc
	.cantunwind
	.fnend
                                        @ -- End function
	.section	.text.HAL_CAN_SleepCallback,"ax",%progbits
	.hidden	HAL_CAN_SleepCallback           @ -- Begin function HAL_CAN_SleepCallback
	.globl	HAL_CAN_SleepCallback
	.p2align	2
	.type	HAL_CAN_SleepCallback,%function
	.code	16                              @ @HAL_CAN_SleepCallback
	.thumb_func
HAL_CAN_SleepCallback:
.Lfunc_begin32:
	.loc	1 233 0                         @ ../communication/can/odrive_can.cpp:233:0
	.fnstart
	.cfi_startproc
@ %bb.0:
	.pad	#4
	sub	sp, #4
	.cfi_def_cfa_offset 4
	str	r0, [sp]
.Ltmp144:
	.loc	1 233 54 prologue_end epilogue_begin @ ../communication/can/odrive_can.cpp:233:54
	add	sp, #4
	bx	lr
.Ltmp145:
.Lfunc_end32:
	.size	HAL_CAN_SleepCallback, .Lfunc_end32-HAL_CAN_SleepCallback
	.cfi_endproc
	.cantunwind
	.fnend
                                        @ -- End function
	.section	.text.HAL_CAN_WakeUpFromRxMsgCallback,"ax",%progbits
	.hidden	HAL_CAN_WakeUpFromRxMsgCallback @ -- Begin function HAL_CAN_WakeUpFromRxMsgCallback
	.globl	HAL_CAN_WakeUpFromRxMsgCallback
	.p2align	2
	.type	HAL_CAN_WakeUpFromRxMsgCallback,%function
	.code	16                              @ @HAL_CAN_WakeUpFromRxMsgCallback
	.thumb_func
HAL_CAN_WakeUpFromRxMsgCallback:
.Lfunc_begin33:
	.loc	1 234 0                         @ ../communication/can/odrive_can.cpp:234:0
	.fnstart
	.cfi_startproc
@ %bb.0:
	.pad	#4
	sub	sp, #4
	.cfi_def_cfa_offset 4
	str	r0, [sp]
.Ltmp146:
	.loc	1 234 64 prologue_end epilogue_begin @ ../communication/can/odrive_can.cpp:234:64
	add	sp, #4
	bx	lr
.Ltmp147:
.Lfunc_end33:
	.size	HAL_CAN_WakeUpFromRxMsgCallback, .Lfunc_end33-HAL_CAN_WakeUpFromRxMsgCallback
	.cfi_endproc
	.cantunwind
	.fnend
                                        @ -- End function
	.section	.text.HAL_CAN_ErrorCallback,"ax",%progbits
	.hidden	HAL_CAN_ErrorCallback           @ -- Begin function HAL_CAN_ErrorCallback
	.globl	HAL_CAN_ErrorCallback
	.p2align	2
	.type	HAL_CAN_ErrorCallback,%function
	.code	16                              @ @HAL_CAN_ErrorCallback
	.thumb_func
HAL_CAN_ErrorCallback:
.Lfunc_begin34:
	.loc	1 236 0                         @ ../communication/can/odrive_can.cpp:236:0
	.fnstart
	.cfi_startproc
@ %bb.0:
	.pad	#4
	sub	sp, #4
	.cfi_def_cfa_offset 4
	str	r0, [sp]
.Ltmp148:
	.loc	1 238 1 prologue_end epilogue_begin @ ../communication/can/odrive_can.cpp:238:1
	add	sp, #4
	bx	lr
.Ltmp149:
.Lfunc_end34:
	.size	HAL_CAN_ErrorCallback, .Lfunc_end34-HAL_CAN_ErrorCallback
	.cfi_endproc
	.cantunwind
	.fnend
                                        @ -- End function
	.section	".text._ZZN9ODriveCAN12start_serverEP19__CAN_HandleTypeDefEN3$_08__invokeEPv","ax",%progbits
	.p2align	2                               @ -- Begin function _ZZN9ODriveCAN12start_serverEP19__CAN_HandleTypeDefEN3$_08__invokeEPv
	.type	_ZZN9ODriveCAN12start_serverEP19__CAN_HandleTypeDefEN3$_08__invokeEPv,%function
	.code	16                              @ @"_ZZN9ODriveCAN12start_serverEP19__CAN_HandleTypeDefEN3$_08__invokeEPv"
	.thumb_func
_ZZN9ODriveCAN12start_serverEP19__CAN_HandleTypeDefEN3$_08__invokeEPv:
.Lfunc_begin35:
	.loc	1 36 0                          @ ../communication/can/odrive_can.cpp:36:0
	.fnstart
	.cfi_startproc
@ %bb.0:
	.save	{r7, lr}
	push	{r7, lr}
	.cfi_def_cfa_offset 8
	.cfi_offset lr, -4
	.cfi_offset r7, -8
	.pad	#8
	sub	sp, #8
	.cfi_def_cfa_offset 16
	str	r0, [sp, #4]
.Ltmp150:
	.loc	1 36 20 prologue_end            @ ../communication/can/odrive_can.cpp:36:20
	ldr	r1, [sp, #4]
	add.w	r0, sp, #3
	bl	_ZZN9ODriveCAN12start_serverEP19__CAN_HandleTypeDefENK3$_0clEPv
	.loc	1 36 20 epilogue_begin is_stmt 0 @ ../communication/can/odrive_can.cpp:36:20
	add	sp, #8
	pop	{r7, pc}
.Ltmp151:
.Lfunc_end35:
	.size	_ZZN9ODriveCAN12start_serverEP19__CAN_HandleTypeDefEN3$_08__invokeEPv, .Lfunc_end35-_ZZN9ODriveCAN12start_serverEP19__CAN_HandleTypeDefEN3$_08__invokeEPv
	.cfi_endproc
	.cantunwind
	.fnend
                                        @ -- End function
	.section	".text._ZZN9ODriveCAN12start_serverEP19__CAN_HandleTypeDefENK3$_0clEPv","ax",%progbits
	.p2align	2                               @ -- Begin function _ZZN9ODriveCAN12start_serverEP19__CAN_HandleTypeDefENK3$_0clEPv
	.type	_ZZN9ODriveCAN12start_serverEP19__CAN_HandleTypeDefENK3$_0clEPv,%function
	.code	16                              @ @"_ZZN9ODriveCAN12start_serverEP19__CAN_HandleTypeDefENK3$_0clEPv"
	.thumb_func
_ZZN9ODriveCAN12start_serverEP19__CAN_HandleTypeDefENK3$_0clEPv:
.Lfunc_begin36:
	.loc	1 36 0 is_stmt 1                @ ../communication/can/odrive_can.cpp:36:0
	.fnstart
	.cfi_startproc
@ %bb.0:
	.save	{r7, lr}
	push	{r7, lr}
	.cfi_def_cfa_offset 8
	.cfi_offset lr, -4
	.cfi_offset r7, -8
	.pad	#8
	sub	sp, #8
	.cfi_def_cfa_offset 16
	str	r0, [sp, #4]
	str	r1, [sp]
.Ltmp152:
	.loc	1 37 22 prologue_end            @ ../communication/can/odrive_can.cpp:37:22
	ldr	r0, [sp]
	.loc	1 37 28 is_stmt 0               @ ../communication/can/odrive_can.cpp:37:28
	bl	_ZN9ODriveCAN17can_server_threadEv
	.loc	1 38 5 epilogue_begin is_stmt 1 @ ../communication/can/odrive_can.cpp:38:5
	add	sp, #8
	pop	{r7, pc}
.Ltmp153:
.Lfunc_end36:
	.size	_ZZN9ODriveCAN12start_serverEP19__CAN_HandleTypeDefENK3$_0clEPv, .Lfunc_end36-_ZZN9ODriveCAN12start_serverEP19__CAN_HandleTypeDefENK3$_0clEPv
	.cfi_endproc
	.cantunwind
	.fnend
                                        @ -- End function
	.section	.text._ZNSt3__23minB7v180000IjNS_6__lessIvvEEEERKT_S5_S5_T0_,"axG",%progbits,_ZNSt3__23minB7v180000IjNS_6__lessIvvEEEERKT_S5_S5_T0_,comdat
	.hidden	_ZNSt3__23minB7v180000IjNS_6__lessIvvEEEERKT_S5_S5_T0_ @ -- Begin function _ZNSt3__23minB7v180000IjNS_6__lessIvvEEEERKT_S5_S5_T0_
	.weak	_ZNSt3__23minB7v180000IjNS_6__lessIvvEEEERKT_S5_S5_T0_
	.p2align	2
	.type	_ZNSt3__23minB7v180000IjNS_6__lessIvvEEEERKT_S5_S5_T0_,%function
	.code	16                              @ @_ZNSt3__23minB7v180000IjNS_6__lessIvvEEEERKT_S5_S5_T0_
	.thumb_func
_ZNSt3__23minB7v180000IjNS_6__lessIvvEEEERKT_S5_S5_T0_:
.Lfunc_begin37:
	.loc	19 32 0                         @ D:\Embed\MDK\MDK\ARM\ARMCompilerV621\Bin\..\include\libcxx\__algorithm/min.h:32:0
	.fnstart
	.cfi_startproc
@ %bb.0:
	.save	{r7, lr}
	push	{r7, lr}
	.cfi_def_cfa_offset 8
	.cfi_offset lr, -4
	.cfi_offset r7, -8
	.pad	#16
	sub	sp, #16
	.cfi_def_cfa_offset 24
	str	r0, [sp, #8]
	str	r1, [sp, #4]
.Ltmp154:
	.loc	19 33 19 prologue_end           @ D:\Embed\MDK\MDK\ARM\ARMCompilerV621\Bin\..\include\libcxx\__algorithm/min.h:33:19
	ldr	r1, [sp, #4]
	.loc	19 33 24 is_stmt 0              @ D:\Embed\MDK\MDK\ARM\ARMCompilerV621\Bin\..\include\libcxx\__algorithm/min.h:33:24
	ldr	r2, [sp, #8]
	add.w	r0, sp, #15
	.loc	19 33 12                        @ D:\Embed\MDK\MDK\ARM\ARMCompilerV621\Bin\..\include\libcxx\__algorithm/min.h:33:12
	bl	_ZNKSt3__26__lessIvvEclB7v180000IjjEEbRKT_RKT0_
	cbz	r0, .LBB37_2
	b	.LBB37_1
.LBB37_1:
	.loc	19 33 31                        @ D:\Embed\MDK\MDK\ARM\ARMCompilerV621\Bin\..\include\libcxx\__algorithm/min.h:33:31
	ldr	r0, [sp, #4]
	.loc	19 33 12                        @ D:\Embed\MDK\MDK\ARM\ARMCompilerV621\Bin\..\include\libcxx\__algorithm/min.h:33:12
	str	r0, [sp]                        @ 4-byte Spill
	b	.LBB37_3
.LBB37_2:
	.loc	19 33 37                        @ D:\Embed\MDK\MDK\ARM\ARMCompilerV621\Bin\..\include\libcxx\__algorithm/min.h:33:37
	ldr	r0, [sp, #8]
	.loc	19 33 12                        @ D:\Embed\MDK\MDK\ARM\ARMCompilerV621\Bin\..\include\libcxx\__algorithm/min.h:33:12
	str	r0, [sp]                        @ 4-byte Spill
	b	.LBB37_3
.LBB37_3:
	ldr	r0, [sp]                        @ 4-byte Reload
	.loc	19 33 5 epilogue_begin          @ D:\Embed\MDK\MDK\ARM\ARMCompilerV621\Bin\..\include\libcxx\__algorithm/min.h:33:5
	add	sp, #16
	pop	{r7, pc}
.Ltmp155:
.Lfunc_end37:
	.size	_ZNSt3__23minB7v180000IjNS_6__lessIvvEEEERKT_S5_S5_T0_, .Lfunc_end37-_ZNSt3__23minB7v180000IjNS_6__lessIvvEEEERKT_S5_S5_T0_
	.cfi_endproc
	.cantunwind
	.fnend
                                        @ -- End function
	.section	.text._ZNKSt3__26__lessIvvEclB7v180000IjjEEbRKT_RKT0_,"axG",%progbits,_ZNKSt3__26__lessIvvEclB7v180000IjjEEbRKT_RKT0_,comdat
	.hidden	_ZNKSt3__26__lessIvvEclB7v180000IjjEEbRKT_RKT0_ @ -- Begin function _ZNKSt3__26__lessIvvEclB7v180000IjjEEbRKT_RKT0_
	.weak	_ZNKSt3__26__lessIvvEclB7v180000IjjEEbRKT_RKT0_
	.p2align	2
	.type	_ZNKSt3__26__lessIvvEclB7v180000IjjEEbRKT_RKT0_,%function
	.code	16                              @ @_ZNKSt3__26__lessIvvEclB7v180000IjjEEbRKT_RKT0_
	.thumb_func
_ZNKSt3__26__lessIvvEclB7v180000IjjEEbRKT_RKT0_:
.Lfunc_begin38:
	.file	22 "D:\\Embed\\MDK\\MDK\\ARM\\ARMCompilerV621\\Bin\\..\\include\\libcxx\\__algorithm" "comp.h"
	.loc	22 40 0 is_stmt 1               @ D:\Embed\MDK\MDK\ARM\ARMCompilerV621\Bin\..\include\libcxx\__algorithm/comp.h:40:0
	.fnstart
	.cfi_startproc
@ %bb.0:
	.pad	#12
	sub	sp, #12
	.cfi_def_cfa_offset 12
	str	r0, [sp, #8]
	str	r1, [sp, #4]
	str	r2, [sp]
.Ltmp156:
	.loc	22 41 12 prologue_end           @ D:\Embed\MDK\MDK\ARM\ARMCompilerV621\Bin\..\include\libcxx\__algorithm/comp.h:41:12
	ldr	r0, [sp, #4]
	ldr	r1, [r0]
	.loc	22 41 20 is_stmt 0              @ D:\Embed\MDK\MDK\ARM\ARMCompilerV621\Bin\..\include\libcxx\__algorithm/comp.h:41:20
	ldr	r0, [sp]
	ldr	r2, [r0]
	movs	r0, #0
	.loc	22 41 18                        @ D:\Embed\MDK\MDK\ARM\ARMCompilerV621\Bin\..\include\libcxx\__algorithm/comp.h:41:18
	cmp	r1, r2
	it	lo
	movlo	r0, #1
	.loc	22 41 5 epilogue_begin          @ D:\Embed\MDK\MDK\ARM\ARMCompilerV621\Bin\..\include\libcxx\__algorithm/comp.h:41:5
	add	sp, #12
	bx	lr
.Ltmp157:
.Lfunc_end38:
	.size	_ZNKSt3__26__lessIvvEclB7v180000IjjEEbRKT_RKT0_, .Lfunc_end38-_ZNKSt3__26__lessIvvEclB7v180000IjjEEbRKT_RKT0_
	.cfi_endproc
	.cantunwind
	.fnend
                                        @ -- End function
	.section	.text._ZNSt3__23maxB7v180000IjNS_6__lessIvvEEEERKT_S5_S5_T0_,"axG",%progbits,_ZNSt3__23maxB7v180000IjNS_6__lessIvvEEEERKT_S5_S5_T0_,comdat
	.hidden	_ZNSt3__23maxB7v180000IjNS_6__lessIvvEEEERKT_S5_S5_T0_ @ -- Begin function _ZNSt3__23maxB7v180000IjNS_6__lessIvvEEEERKT_S5_S5_T0_
	.weak	_ZNSt3__23maxB7v180000IjNS_6__lessIvvEEEERKT_S5_S5_T0_
	.p2align	2
	.type	_ZNSt3__23maxB7v180000IjNS_6__lessIvvEEEERKT_S5_S5_T0_,%function
	.code	16                              @ @_ZNSt3__23maxB7v180000IjNS_6__lessIvvEEEERKT_S5_S5_T0_
	.thumb_func
_ZNSt3__23maxB7v180000IjNS_6__lessIvvEEEERKT_S5_S5_T0_:
.Lfunc_begin39:
	.loc	20 32 0 is_stmt 1               @ D:\Embed\MDK\MDK\ARM\ARMCompilerV621\Bin\..\include\libcxx\__algorithm/max.h:32:0
	.fnstart
	.cfi_startproc
@ %bb.0:
	.save	{r7, lr}
	push	{r7, lr}
	.cfi_def_cfa_offset 8
	.cfi_offset lr, -4
	.cfi_offset r7, -8
	.pad	#16
	sub	sp, #16
	.cfi_def_cfa_offset 24
	str	r0, [sp, #8]
	str	r1, [sp, #4]
.Ltmp158:
	.loc	20 33 19 prologue_end           @ D:\Embed\MDK\MDK\ARM\ARMCompilerV621\Bin\..\include\libcxx\__algorithm/max.h:33:19
	ldr	r1, [sp, #8]
	.loc	20 33 24 is_stmt 0              @ D:\Embed\MDK\MDK\ARM\ARMCompilerV621\Bin\..\include\libcxx\__algorithm/max.h:33:24
	ldr	r2, [sp, #4]
	add.w	r0, sp, #15
	.loc	20 33 12                        @ D:\Embed\MDK\MDK\ARM\ARMCompilerV621\Bin\..\include\libcxx\__algorithm/max.h:33:12
	bl	_ZNKSt3__26__lessIvvEclB7v180000IjjEEbRKT_RKT0_
	cbz	r0, .LBB39_2
	b	.LBB39_1
.LBB39_1:
	.loc	20 33 31                        @ D:\Embed\MDK\MDK\ARM\ARMCompilerV621\Bin\..\include\libcxx\__algorithm/max.h:33:31
	ldr	r0, [sp, #4]
	.loc	20 33 12                        @ D:\Embed\MDK\MDK\ARM\ARMCompilerV621\Bin\..\include\libcxx\__algorithm/max.h:33:12
	str	r0, [sp]                        @ 4-byte Spill
	b	.LBB39_3
.LBB39_2:
	.loc	20 33 37                        @ D:\Embed\MDK\MDK\ARM\ARMCompilerV621\Bin\..\include\libcxx\__algorithm/max.h:33:37
	ldr	r0, [sp, #8]
	.loc	20 33 12                        @ D:\Embed\MDK\MDK\ARM\ARMCompilerV621\Bin\..\include\libcxx\__algorithm/max.h:33:12
	str	r0, [sp]                        @ 4-byte Spill
	b	.LBB39_3
.LBB39_3:
	ldr	r0, [sp]                        @ 4-byte Reload
	.loc	20 33 5 epilogue_begin          @ D:\Embed\MDK\MDK\ARM\ARMCompilerV621\Bin\..\include\libcxx\__algorithm/max.h:33:5
	add	sp, #16
	pop	{r7, pc}
.Ltmp159:
.Lfunc_end39:
	.size	_ZNSt3__23maxB7v180000IjNS_6__lessIvvEEEERKT_S5_S5_T0_, .Lfunc_end39-_ZNSt3__23maxB7v180000IjNS_6__lessIvvEEEERKT_S5_S5_T0_
	.cfi_endproc
	.cantunwind
	.fnend
                                        @ -- End function
	.section	.text._ZNSt3__25arrayIN9ODriveCAN21ODriveCanSubscriptionELj8EE4dataB7v180000Ev,"axG",%progbits,_ZNSt3__25arrayIN9ODriveCAN21ODriveCanSubscriptionELj8EE4dataB7v180000Ev,comdat
	.hidden	_ZNSt3__25arrayIN9ODriveCAN21ODriveCanSubscriptionELj8EE4dataB7v180000Ev @ -- Begin function _ZNSt3__25arrayIN9ODriveCAN21ODriveCanSubscriptionELj8EE4dataB7v180000Ev
	.weak	_ZNSt3__25arrayIN9ODriveCAN21ODriveCanSubscriptionELj8EE4dataB7v180000Ev
	.p2align	2
	.type	_ZNSt3__25arrayIN9ODriveCAN21ODriveCanSubscriptionELj8EE4dataB7v180000Ev,%function
	.code	16                              @ @_ZNSt3__25arrayIN9ODriveCAN21ODriveCanSubscriptionELj8EE4dataB7v180000Ev
	.thumb_func
_ZNSt3__25arrayIN9ODriveCAN21ODriveCanSubscriptionELj8EE4dataB7v180000Ev:
.Lfunc_begin40:
	.loc	15 261 0 is_stmt 1              @ D:\Embed\MDK\MDK\ARM\ARMCompilerV621\Bin\..\include\libcxx\array:261:0
	.fnstart
	.cfi_startproc
@ %bb.0:
	.pad	#4
	sub	sp, #4
	.cfi_def_cfa_offset 4
	str	r0, [sp]
	ldr	r0, [sp]
.Ltmp160:
	.loc	15 261 35 prologue_end epilogue_begin @ D:\Embed\MDK\MDK\ARM\ARMCompilerV621\Bin\..\include\libcxx\array:261:35
	add	sp, #4
	bx	lr
.Ltmp161:
.Lfunc_end40:
	.size	_ZNSt3__25arrayIN9ODriveCAN21ODriveCanSubscriptionELj8EE4dataB7v180000Ev, .Lfunc_end40-_ZNSt3__25arrayIN9ODriveCAN21ODriveCanSubscriptionELj8EE4dataB7v180000Ev
	.cfi_endproc
	.cantunwind
	.fnend
                                        @ -- End function
	.section	.text._ZNKSt3__216__variant_detail6__baseILNS0_6_TraitE0EJtjEE5indexB7v180000Ev,"axG",%progbits,_ZNKSt3__216__variant_detail6__baseILNS0_6_TraitE0EJtjEE5indexB7v180000Ev,comdat
	.hidden	_ZNKSt3__216__variant_detail6__baseILNS0_6_TraitE0EJtjEE5indexB7v180000Ev @ -- Begin function _ZNKSt3__216__variant_detail6__baseILNS0_6_TraitE0EJtjEE5indexB7v180000Ev
	.weak	_ZNKSt3__216__variant_detail6__baseILNS0_6_TraitE0EJtjEE5indexB7v180000Ev
	.p2align	2
	.type	_ZNKSt3__216__variant_detail6__baseILNS0_6_TraitE0EJtjEE5indexB7v180000Ev,%function
	.code	16                              @ @_ZNKSt3__216__variant_detail6__baseILNS0_6_TraitE0EJtjEE5indexB7v180000Ev
	.thumb_func
_ZNKSt3__216__variant_detail6__baseILNS0_6_TraitE0EJtjEE5indexB7v180000Ev:
.Lfunc_begin41:
	.loc	2 820 0                         @ D:\Embed\MDK\MDK\ARM\ARMCompilerV621\Bin\..\include\libcxx\variant:820:0
	.fnstart
	.cfi_startproc
@ %bb.0:
	.pad	#12
	sub	sp, #12
	.cfi_def_cfa_offset 12
	str	r0, [sp, #8]
	ldr	r0, [sp, #8]
.Ltmp162:
	.loc	2 821 12 prologue_end           @ D:\Embed\MDK\MDK\ARM\ARMCompilerV621\Bin\..\include\libcxx\variant:821:12
	str	r0, [sp, #4]                    @ 4-byte Spill
	ldrb	r0, [r0, #4]
	cmp	r0, #255
	bne	.LBB41_2
	b	.LBB41_1
.LBB41_1:
	.loc	2 0 12 is_stmt 0                @ D:\Embed\MDK\MDK\ARM\ARMCompilerV621\Bin\..\include\libcxx\variant:0:12
	mov.w	r0, #-1
	.loc	2 821 12                        @ D:\Embed\MDK\MDK\ARM\ARMCompilerV621\Bin\..\include\libcxx\variant:821:12
	str	r0, [sp]                        @ 4-byte Spill
	b	.LBB41_3
.LBB41_2:
	.loc	2 821 66                        @ D:\Embed\MDK\MDK\ARM\ARMCompilerV621\Bin\..\include\libcxx\variant:821:66
	ldr	r0, [sp, #4]                    @ 4-byte Reload
	ldrb	r0, [r0, #4]
	.loc	2 821 12                        @ D:\Embed\MDK\MDK\ARM\ARMCompilerV621\Bin\..\include\libcxx\variant:821:12
	str	r0, [sp]                        @ 4-byte Spill
	b	.LBB41_3
.LBB41_3:
	ldr	r0, [sp]                        @ 4-byte Reload
	.loc	2 821 5 epilogue_begin          @ D:\Embed\MDK\MDK\ARM\ARMCompilerV621\Bin\..\include\libcxx\variant:821:5
	add	sp, #12
	bx	lr
.Ltmp163:
.Lfunc_end41:
	.size	_ZNKSt3__216__variant_detail6__baseILNS0_6_TraitE0EJtjEE5indexB7v180000Ev, .Lfunc_end41-_ZNKSt3__216__variant_detail6__baseILNS0_6_TraitE0EJtjEE5indexB7v180000Ev
	.cfi_endproc
	.cantunwind
	.fnend
                                        @ -- End function
	.section	.text._ZNSt3__213__generic_getB7v180000ILj1ERKNS_7variantIJtjEEEEEODaOT0_,"axG",%progbits,_ZNSt3__213__generic_getB7v180000ILj1ERKNS_7variantIJtjEEEEEODaOT0_,comdat
	.hidden	_ZNSt3__213__generic_getB7v180000ILj1ERKNS_7variantIJtjEEEEEODaOT0_ @ -- Begin function _ZNSt3__213__generic_getB7v180000ILj1ERKNS_7variantIJtjEEEEEODaOT0_
	.weak	_ZNSt3__213__generic_getB7v180000ILj1ERKNS_7variantIJtjEEEEEODaOT0_
	.p2align	2
	.type	_ZNSt3__213__generic_getB7v180000ILj1ERKNS_7variantIJtjEEEEEODaOT0_,%function
	.code	16                              @ @_ZNSt3__213__generic_getB7v180000ILj1ERKNS_7variantIJtjEEEEEODaOT0_
	.thumb_func
_ZNSt3__213__generic_getB7v180000ILj1ERKNS_7variantIJtjEEEEEODaOT0_:
.Lfunc_begin42:
	.loc	2 1512 0 is_stmt 1              @ D:\Embed\MDK\MDK\ARM\ARMCompilerV621\Bin\..\include\libcxx\variant:1512:0
	.fnstart
	.cfi_startproc
@ %bb.0:
	.save	{r7, lr}
	push	{r7, lr}
	.cfi_def_cfa_offset 8
	.cfi_offset lr, -4
	.cfi_offset r7, -8
	.pad	#8
	sub	sp, #8
	.cfi_def_cfa_offset 16
	str	r0, [sp, #4]
.Ltmp164:
	.loc	2 1514 38 prologue_end          @ D:\Embed\MDK\MDK\ARM\ARMCompilerV621\Bin\..\include\libcxx\variant:1514:38
	ldr	r0, [sp, #4]
	.loc	2 1514 8 is_stmt 0              @ D:\Embed\MDK\MDK\ARM\ARMCompilerV621\Bin\..\include\libcxx\variant:1514:8
	bl	_ZNSt3__219__holds_alternativeB7v180000ILj1EJtjEEEbRKNS_7variantIJDpT0_EEE
.Ltmp165:
	.loc	2 1514 7                        @ D:\Embed\MDK\MDK\ARM\ARMCompilerV621\Bin\..\include\libcxx\variant:1514:7
	cbnz	r0, .LBB42_2
	b	.LBB42_1
.LBB42_1:
.Ltmp166:
	.loc	2 1515 5 is_stmt 1              @ D:\Embed\MDK\MDK\ARM\ARMCompilerV621\Bin\..\include\libcxx\variant:1515:5
	bl	_ZNSt3__226__throw_bad_variant_accessB7v180000Ev
.Ltmp167:
.LBB42_2:
	.loc	2 1517 56                       @ D:\Embed\MDK\MDK\ARM\ARMCompilerV621\Bin\..\include\libcxx\variant:1517:56
	ldr	r0, [sp, #4]
	.loc	2 1517 10 is_stmt 0             @ D:\Embed\MDK\MDK\ARM\ARMCompilerV621\Bin\..\include\libcxx\variant:1517:10
	bl	_ZNSt3__216__variant_detail8__access9__variant9__get_altB7v180000ILj1ERKNS_7variantIJtjEEEEEODaOT0_
	.loc	2 1517 3 epilogue_begin         @ D:\Embed\MDK\MDK\ARM\ARMCompilerV621\Bin\..\include\libcxx\variant:1517:3
	add	sp, #8
	pop	{r7, pc}
.Ltmp168:
.Lfunc_end42:
	.size	_ZNSt3__213__generic_getB7v180000ILj1ERKNS_7variantIJtjEEEEEODaOT0_, .Lfunc_end42-_ZNSt3__213__generic_getB7v180000ILj1ERKNS_7variantIJtjEEEEEODaOT0_
	.cfi_endproc
	.cantunwind
	.fnend
                                        @ -- End function
	.section	.text._ZNSt3__219__holds_alternativeB7v180000ILj1EJtjEEEbRKNS_7variantIJDpT0_EEE,"axG",%progbits,_ZNSt3__219__holds_alternativeB7v180000ILj1EJtjEEEbRKNS_7variantIJDpT0_EEE,comdat
	.hidden	_ZNSt3__219__holds_alternativeB7v180000ILj1EJtjEEEbRKNS_7variantIJDpT0_EEE @ -- Begin function _ZNSt3__219__holds_alternativeB7v180000ILj1EJtjEEEbRKNS_7variantIJDpT0_EEE
	.weak	_ZNSt3__219__holds_alternativeB7v180000ILj1EJtjEEEbRKNS_7variantIJDpT0_EEE
	.p2align	2
	.type	_ZNSt3__219__holds_alternativeB7v180000ILj1EJtjEEEbRKNS_7variantIJDpT0_EEE,%function
	.code	16                              @ @_ZNSt3__219__holds_alternativeB7v180000ILj1EJtjEEEbRKNS_7variantIJDpT0_EEE
	.thumb_func
_ZNSt3__219__holds_alternativeB7v180000ILj1EJtjEEEbRKNS_7variantIJDpT0_EEE:
.Lfunc_begin43:
	.loc	2 1499 0 is_stmt 1              @ D:\Embed\MDK\MDK\ARM\ARMCompilerV621\Bin\..\include\libcxx\variant:1499:0
	.fnstart
	.cfi_startproc
@ %bb.0:
	.save	{r7, lr}
	push	{r7, lr}
	.cfi_def_cfa_offset 8
	.cfi_offset lr, -4
	.cfi_offset r7, -8
	.pad	#8
	sub	sp, #8
	.cfi_def_cfa_offset 16
	str	r0, [sp, #4]
.Ltmp169:
	.loc	2 1500 10 prologue_end          @ D:\Embed\MDK\MDK\ARM\ARMCompilerV621\Bin\..\include\libcxx\variant:1500:10
	ldr	r0, [sp, #4]
	.loc	2 1500 14 is_stmt 0             @ D:\Embed\MDK\MDK\ARM\ARMCompilerV621\Bin\..\include\libcxx\variant:1500:14
	bl	_ZNKSt3__27variantIJtjEE5indexB7v180000Ev
	.loc	2 1500 22                       @ D:\Embed\MDK\MDK\ARM\ARMCompilerV621\Bin\..\include\libcxx\variant:1500:22
	subs	r0, #1
	clz	r0, r0
	lsrs	r0, r0, #5
	.loc	2 1500 3 epilogue_begin         @ D:\Embed\MDK\MDK\ARM\ARMCompilerV621\Bin\..\include\libcxx\variant:1500:3
	add	sp, #8
	pop	{r7, pc}
.Ltmp170:
.Lfunc_end43:
	.size	_ZNSt3__219__holds_alternativeB7v180000ILj1EJtjEEEbRKNS_7variantIJDpT0_EEE, .Lfunc_end43-_ZNSt3__219__holds_alternativeB7v180000ILj1EJtjEEEbRKNS_7variantIJDpT0_EEE
	.cfi_endproc
	.cantunwind
	.fnend
                                        @ -- End function
	.section	.text._ZNSt3__226__throw_bad_variant_accessB7v180000Ev,"axG",%progbits,_ZNSt3__226__throw_bad_variant_accessB7v180000Ev,comdat
	.hidden	_ZNSt3__226__throw_bad_variant_accessB7v180000Ev @ -- Begin function _ZNSt3__226__throw_bad_variant_accessB7v180000Ev
	.weak	_ZNSt3__226__throw_bad_variant_accessB7v180000Ev
	.p2align	2
	.type	_ZNSt3__226__throw_bad_variant_accessB7v180000Ev,%function
	.code	16                              @ @_ZNSt3__226__throw_bad_variant_accessB7v180000Ev
	.thumb_func
_ZNSt3__226__throw_bad_variant_accessB7v180000Ev:
.Lfunc_begin44:
	.fnstart
	.cfi_startproc
@ %bb.0:
	.loc	2 294 5 prologue_end is_stmt 1  @ D:\Embed\MDK\MDK\ARM\ARMCompilerV621\Bin\..\include\libcxx\variant:294:5
	movw	r0, :lower16:.L.str.1
	movt	r0, :upper16:.L.str.1
	bl	_ZNSt3__222__libcpp_verbose_abortEPKcz
.Ltmp171:
.Lfunc_end44:
	.size	_ZNSt3__226__throw_bad_variant_accessB7v180000Ev, .Lfunc_end44-_ZNSt3__226__throw_bad_variant_accessB7v180000Ev
	.cfi_endproc
	.cantunwind
	.fnend
                                        @ -- End function
	.section	.text._ZNSt3__216__variant_detail8__access9__variant9__get_altB7v180000ILj1ERKNS_7variantIJtjEEEEEODaOT0_,"axG",%progbits,_ZNSt3__216__variant_detail8__access9__variant9__get_altB7v180000ILj1ERKNS_7variantIJtjEEEEEODaOT0_,comdat
	.hidden	_ZNSt3__216__variant_detail8__access9__variant9__get_altB7v180000ILj1ERKNS_7variantIJtjEEEEEODaOT0_ @ -- Begin function _ZNSt3__216__variant_detail8__access9__variant9__get_altB7v180000ILj1ERKNS_7variantIJtjEEEEEODaOT0_
	.weak	_ZNSt3__216__variant_detail8__access9__variant9__get_altB7v180000ILj1ERKNS_7variantIJtjEEEEEODaOT0_
	.p2align	2
	.type	_ZNSt3__216__variant_detail8__access9__variant9__get_altB7v180000ILj1ERKNS_7variantIJtjEEEEEODaOT0_,%function
	.code	16                              @ @_ZNSt3__216__variant_detail8__access9__variant9__get_altB7v180000ILj1ERKNS_7variantIJtjEEEEEODaOT0_
	.thumb_func
_ZNSt3__216__variant_detail8__access9__variant9__get_altB7v180000ILj1ERKNS_7variantIJtjEEEEEODaOT0_:
.Lfunc_begin45:
	.loc	2 507 0                         @ D:\Embed\MDK\MDK\ARM\ARMCompilerV621\Bin\..\include\libcxx\variant:507:0
	.fnstart
	.cfi_startproc
@ %bb.0:
	.save	{r7, lr}
	push	{r7, lr}
	.cfi_def_cfa_offset 8
	.cfi_offset lr, -4
	.cfi_offset r7, -8
	.pad	#8
	sub	sp, #8
	.cfi_def_cfa_offset 16
	str	r0, [sp, #4]
.Ltmp172:
	.loc	2 508 55 prologue_end           @ D:\Embed\MDK\MDK\ARM\ARMCompilerV621\Bin\..\include\libcxx\variant:508:55
	ldr	r0, [sp, #4]
	.loc	2 508 12 is_stmt 0              @ D:\Embed\MDK\MDK\ARM\ARMCompilerV621\Bin\..\include\libcxx\variant:508:12
	bl	_ZNSt3__216__variant_detail8__access6__base9__get_altB7v180000ILj1ERKNS0_6__implIJtjEEEEEODaOT0_
	.loc	2 508 5 epilogue_begin          @ D:\Embed\MDK\MDK\ARM\ARMCompilerV621\Bin\..\include\libcxx\variant:508:5
	add	sp, #8
	pop	{r7, pc}
.Ltmp173:
.Lfunc_end45:
	.size	_ZNSt3__216__variant_detail8__access9__variant9__get_altB7v180000ILj1ERKNS_7variantIJtjEEEEEODaOT0_, .Lfunc_end45-_ZNSt3__216__variant_detail8__access9__variant9__get_altB7v180000ILj1ERKNS_7variantIJtjEEEEEODaOT0_
	.cfi_endproc
	.cantunwind
	.fnend
                                        @ -- End function
	.section	.text._ZNSt3__216__variant_detail8__access6__base9__get_altB7v180000ILj1ERKNS0_6__implIJtjEEEEEODaOT0_,"axG",%progbits,_ZNSt3__216__variant_detail8__access6__base9__get_altB7v180000ILj1ERKNS0_6__implIJtjEEEEEODaOT0_,comdat
	.hidden	_ZNSt3__216__variant_detail8__access6__base9__get_altB7v180000ILj1ERKNS0_6__implIJtjEEEEEODaOT0_ @ -- Begin function _ZNSt3__216__variant_detail8__access6__base9__get_altB7v180000ILj1ERKNS0_6__implIJtjEEEEEODaOT0_
	.weak	_ZNSt3__216__variant_detail8__access6__base9__get_altB7v180000ILj1ERKNS0_6__implIJtjEEEEEODaOT0_
	.p2align	2
	.type	_ZNSt3__216__variant_detail8__access6__base9__get_altB7v180000ILj1ERKNS0_6__implIJtjEEEEEODaOT0_,%function
	.code	16                              @ @_ZNSt3__216__variant_detail8__access6__base9__get_altB7v180000ILj1ERKNS0_6__implIJtjEEEEEODaOT0_
	.thumb_func
_ZNSt3__216__variant_detail8__access6__base9__get_altB7v180000ILj1ERKNS0_6__implIJtjEEEEEODaOT0_:
.Lfunc_begin46:
	.loc	2 498 0 is_stmt 1               @ D:\Embed\MDK\MDK\ARM\ARMCompilerV621\Bin\..\include\libcxx\variant:498:0
	.fnstart
	.cfi_startproc
@ %bb.0:
	.save	{r7, lr}
	push	{r7, lr}
	.cfi_def_cfa_offset 8
	.cfi_offset lr, -4
	.cfi_offset r7, -8
	.pad	#8
	sub	sp, #8
	.cfi_def_cfa_offset 16
	str	r0, [sp, #4]
.Ltmp174:
	.loc	2 499 51 prologue_end           @ D:\Embed\MDK\MDK\ARM\ARMCompilerV621\Bin\..\include\libcxx\variant:499:51
	ldr	r0, [sp, #4]
	.loc	2 499 12 is_stmt 0              @ D:\Embed\MDK\MDK\ARM\ARMCompilerV621\Bin\..\include\libcxx\variant:499:12
	bl	_ZNSt3__216__variant_detail8__access7__union9__get_altB7v180000IRKNS0_7__unionILNS0_6_TraitE0ELj0EJtjEEELj1EEEODaOT_NS_16in_place_index_tIXT0_EEE
	.loc	2 499 5 epilogue_begin          @ D:\Embed\MDK\MDK\ARM\ARMCompilerV621\Bin\..\include\libcxx\variant:499:5
	add	sp, #8
	pop	{r7, pc}
.Ltmp175:
.Lfunc_end46:
	.size	_ZNSt3__216__variant_detail8__access6__base9__get_altB7v180000ILj1ERKNS0_6__implIJtjEEEEEODaOT0_, .Lfunc_end46-_ZNSt3__216__variant_detail8__access6__base9__get_altB7v180000ILj1ERKNS0_6__implIJtjEEEEEODaOT0_
	.cfi_endproc
	.cantunwind
	.fnend
                                        @ -- End function
	.section	.text._ZNSt3__216__variant_detail8__access7__union9__get_altB7v180000IRKNS0_7__unionILNS0_6_TraitE0ELj0EJtjEEELj1EEEODaOT_NS_16in_place_index_tIXT0_EEE,"axG",%progbits,_ZNSt3__216__variant_detail8__access7__union9__get_altB7v180000IRKNS0_7__unionILNS0_6_TraitE0ELj0EJtjEEELj1EEEODaOT_NS_16in_place_index_tIXT0_EEE,comdat
	.hidden	_ZNSt3__216__variant_detail8__access7__union9__get_altB7v180000IRKNS0_7__unionILNS0_6_TraitE0ELj0EJtjEEELj1EEEODaOT_NS_16in_place_index_tIXT0_EEE @ -- Begin function _ZNSt3__216__variant_detail8__access7__union9__get_altB7v180000IRKNS0_7__unionILNS0_6_TraitE0ELj0EJtjEEELj1EEEODaOT_NS_16in_place_index_tIXT0_EEE
	.weak	_ZNSt3__216__variant_detail8__access7__union9__get_altB7v180000IRKNS0_7__unionILNS0_6_TraitE0ELj0EJtjEEELj1EEEODaOT_NS_16in_place_index_tIXT0_EEE
	.p2align	2
	.type	_ZNSt3__216__variant_detail8__access7__union9__get_altB7v180000IRKNS0_7__unionILNS0_6_TraitE0ELj0EJtjEEELj1EEEODaOT_NS_16in_place_index_tIXT0_EEE,%function
	.code	16                              @ @_ZNSt3__216__variant_detail8__access7__union9__get_altB7v180000IRKNS0_7__unionILNS0_6_TraitE0ELj0EJtjEEELj1EEEODaOT_NS_16in_place_index_tIXT0_EEE
	.thumb_func
_ZNSt3__216__variant_detail8__access7__union9__get_altB7v180000IRKNS0_7__unionILNS0_6_TraitE0ELj0EJtjEEELj1EEEODaOT_NS_16in_place_index_tIXT0_EEE:
.Lfunc_begin47:
	.loc	2 490 0 is_stmt 1               @ D:\Embed\MDK\MDK\ARM\ARMCompilerV621\Bin\..\include\libcxx\variant:490:0
	.fnstart
	.cfi_startproc
@ %bb.0:
	.save	{r7, lr}
	push	{r7, lr}
	.cfi_def_cfa_offset 8
	.cfi_offset lr, -4
	.cfi_offset r7, -8
	.pad	#16
	sub	sp, #16
	.cfi_def_cfa_offset 24
	str	r0, [sp, #8]
.Ltmp176:
	.loc	2 491 42 prologue_end           @ D:\Embed\MDK\MDK\ARM\ARMCompilerV621\Bin\..\include\libcxx\variant:491:42
	ldr	r0, [sp, #8]
	.loc	2 491 12 is_stmt 0              @ D:\Embed\MDK\MDK\ARM\ARMCompilerV621\Bin\..\include\libcxx\variant:491:12
	bl	_ZNSt3__216__variant_detail8__access7__union9__get_altB7v180000IRKNS0_7__unionILNS0_6_TraitE0ELj1EJjEEEEEODaOT_NS_16in_place_index_tILj0EEE
	.loc	2 491 5 epilogue_begin          @ D:\Embed\MDK\MDK\ARM\ARMCompilerV621\Bin\..\include\libcxx\variant:491:5
	add	sp, #16
	pop	{r7, pc}
.Ltmp177:
.Lfunc_end47:
	.size	_ZNSt3__216__variant_detail8__access7__union9__get_altB7v180000IRKNS0_7__unionILNS0_6_TraitE0ELj0EJtjEEELj1EEEODaOT_NS_16in_place_index_tIXT0_EEE, .Lfunc_end47-_ZNSt3__216__variant_detail8__access7__union9__get_altB7v180000IRKNS0_7__unionILNS0_6_TraitE0ELj0EJtjEEELj1EEEODaOT_NS_16in_place_index_tIXT0_EEE
	.cfi_endproc
	.cantunwind
	.fnend
                                        @ -- End function
	.section	.text._ZNSt3__216__variant_detail8__access7__union9__get_altB7v180000IRKNS0_7__unionILNS0_6_TraitE0ELj1EJjEEEEEODaOT_NS_16in_place_index_tILj0EEE,"axG",%progbits,_ZNSt3__216__variant_detail8__access7__union9__get_altB7v180000IRKNS0_7__unionILNS0_6_TraitE0ELj1EJjEEEEEODaOT_NS_16in_place_index_tILj0EEE,comdat
	.hidden	_ZNSt3__216__variant_detail8__access7__union9__get_altB7v180000IRKNS0_7__unionILNS0_6_TraitE0ELj1EJjEEEEEODaOT_NS_16in_place_index_tILj0EEE @ -- Begin function _ZNSt3__216__variant_detail8__access7__union9__get_altB7v180000IRKNS0_7__unionILNS0_6_TraitE0ELj1EJjEEEEEODaOT_NS_16in_place_index_tILj0EEE
	.weak	_ZNSt3__216__variant_detail8__access7__union9__get_altB7v180000IRKNS0_7__unionILNS0_6_TraitE0ELj1EJjEEEEEODaOT_NS_16in_place_index_tILj0EEE
	.p2align	2
	.type	_ZNSt3__216__variant_detail8__access7__union9__get_altB7v180000IRKNS0_7__unionILNS0_6_TraitE0ELj1EJjEEEEEODaOT_NS_16in_place_index_tILj0EEE,%function
	.code	16                              @ @_ZNSt3__216__variant_detail8__access7__union9__get_altB7v180000IRKNS0_7__unionILNS0_6_TraitE0ELj1EJjEEEEEODaOT_NS_16in_place_index_tILj0EEE
	.thumb_func
_ZNSt3__216__variant_detail8__access7__union9__get_altB7v180000IRKNS0_7__unionILNS0_6_TraitE0ELj1EJjEEEEEODaOT_NS_16in_place_index_tILj0EEE:
.Lfunc_begin48:
	.loc	2 484 0 is_stmt 1               @ D:\Embed\MDK\MDK\ARM\ARMCompilerV621\Bin\..\include\libcxx\variant:484:0
	.fnstart
	.cfi_startproc
@ %bb.0:
	.pad	#8
	sub	sp, #8
	.cfi_def_cfa_offset 8
	str	r0, [sp]
.Ltmp178:
	.loc	2 485 32 prologue_end           @ D:\Embed\MDK\MDK\ARM\ARMCompilerV621\Bin\..\include\libcxx\variant:485:32
	ldr	r0, [sp]
	.loc	2 485 5 epilogue_begin is_stmt 0 @ D:\Embed\MDK\MDK\ARM\ARMCompilerV621\Bin\..\include\libcxx\variant:485:5
	add	sp, #8
	bx	lr
.Ltmp179:
.Lfunc_end48:
	.size	_ZNSt3__216__variant_detail8__access7__union9__get_altB7v180000IRKNS0_7__unionILNS0_6_TraitE0ELj1EJjEEEEEODaOT_NS_16in_place_index_tILj0EEE, .Lfunc_end48-_ZNSt3__216__variant_detail8__access7__union9__get_altB7v180000IRKNS0_7__unionILNS0_6_TraitE0ELj1EJjEEEEEODaOT_NS_16in_place_index_tILj0EEE
	.cfi_endproc
	.cantunwind
	.fnend
                                        @ -- End function
	.section	.text._ZNSt3__213__generic_getB7v180000ILj0ERKNS_7variantIJtjEEEEEODaOT0_,"axG",%progbits,_ZNSt3__213__generic_getB7v180000ILj0ERKNS_7variantIJtjEEEEEODaOT0_,comdat
	.hidden	_ZNSt3__213__generic_getB7v180000ILj0ERKNS_7variantIJtjEEEEEODaOT0_ @ -- Begin function _ZNSt3__213__generic_getB7v180000ILj0ERKNS_7variantIJtjEEEEEODaOT0_
	.weak	_ZNSt3__213__generic_getB7v180000ILj0ERKNS_7variantIJtjEEEEEODaOT0_
	.p2align	2
	.type	_ZNSt3__213__generic_getB7v180000ILj0ERKNS_7variantIJtjEEEEEODaOT0_,%function
	.code	16                              @ @_ZNSt3__213__generic_getB7v180000ILj0ERKNS_7variantIJtjEEEEEODaOT0_
	.thumb_func
_ZNSt3__213__generic_getB7v180000ILj0ERKNS_7variantIJtjEEEEEODaOT0_:
.Lfunc_begin49:
	.loc	2 1512 0 is_stmt 1              @ D:\Embed\MDK\MDK\ARM\ARMCompilerV621\Bin\..\include\libcxx\variant:1512:0
	.fnstart
	.cfi_startproc
@ %bb.0:
	.save	{r7, lr}
	push	{r7, lr}
	.cfi_def_cfa_offset 8
	.cfi_offset lr, -4
	.cfi_offset r7, -8
	.pad	#8
	sub	sp, #8
	.cfi_def_cfa_offset 16
	str	r0, [sp, #4]
.Ltmp180:
	.loc	2 1514 38 prologue_end          @ D:\Embed\MDK\MDK\ARM\ARMCompilerV621\Bin\..\include\libcxx\variant:1514:38
	ldr	r0, [sp, #4]
	.loc	2 1514 8 is_stmt 0              @ D:\Embed\MDK\MDK\ARM\ARMCompilerV621\Bin\..\include\libcxx\variant:1514:8
	bl	_ZNSt3__219__holds_alternativeB7v180000ILj0EJtjEEEbRKNS_7variantIJDpT0_EEE
.Ltmp181:
	.loc	2 1514 7                        @ D:\Embed\MDK\MDK\ARM\ARMCompilerV621\Bin\..\include\libcxx\variant:1514:7
	cbnz	r0, .LBB49_2
	b	.LBB49_1
.LBB49_1:
.Ltmp182:
	.loc	2 1515 5 is_stmt 1              @ D:\Embed\MDK\MDK\ARM\ARMCompilerV621\Bin\..\include\libcxx\variant:1515:5
	bl	_ZNSt3__226__throw_bad_variant_accessB7v180000Ev
.Ltmp183:
.LBB49_2:
	.loc	2 1517 56                       @ D:\Embed\MDK\MDK\ARM\ARMCompilerV621\Bin\..\include\libcxx\variant:1517:56
	ldr	r0, [sp, #4]
	.loc	2 1517 10 is_stmt 0             @ D:\Embed\MDK\MDK\ARM\ARMCompilerV621\Bin\..\include\libcxx\variant:1517:10
	bl	_ZNSt3__216__variant_detail8__access9__variant9__get_altB7v180000ILj0ERKNS_7variantIJtjEEEEEODaOT0_
	.loc	2 1517 3 epilogue_begin         @ D:\Embed\MDK\MDK\ARM\ARMCompilerV621\Bin\..\include\libcxx\variant:1517:3
	add	sp, #8
	pop	{r7, pc}
.Ltmp184:
.Lfunc_end49:
	.size	_ZNSt3__213__generic_getB7v180000ILj0ERKNS_7variantIJtjEEEEEODaOT0_, .Lfunc_end49-_ZNSt3__213__generic_getB7v180000ILj0ERKNS_7variantIJtjEEEEEODaOT0_
	.cfi_endproc
	.cantunwind
	.fnend
                                        @ -- End function
	.section	.text._ZNSt3__219__holds_alternativeB7v180000ILj0EJtjEEEbRKNS_7variantIJDpT0_EEE,"axG",%progbits,_ZNSt3__219__holds_alternativeB7v180000ILj0EJtjEEEbRKNS_7variantIJDpT0_EEE,comdat
	.hidden	_ZNSt3__219__holds_alternativeB7v180000ILj0EJtjEEEbRKNS_7variantIJDpT0_EEE @ -- Begin function _ZNSt3__219__holds_alternativeB7v180000ILj0EJtjEEEbRKNS_7variantIJDpT0_EEE
	.weak	_ZNSt3__219__holds_alternativeB7v180000ILj0EJtjEEEbRKNS_7variantIJDpT0_EEE
	.p2align	2
	.type	_ZNSt3__219__holds_alternativeB7v180000ILj0EJtjEEEbRKNS_7variantIJDpT0_EEE,%function
	.code	16                              @ @_ZNSt3__219__holds_alternativeB7v180000ILj0EJtjEEEbRKNS_7variantIJDpT0_EEE
	.thumb_func
_ZNSt3__219__holds_alternativeB7v180000ILj0EJtjEEEbRKNS_7variantIJDpT0_EEE:
.Lfunc_begin50:
	.loc	2 1499 0 is_stmt 1              @ D:\Embed\MDK\MDK\ARM\ARMCompilerV621\Bin\..\include\libcxx\variant:1499:0
	.fnstart
	.cfi_startproc
@ %bb.0:
	.save	{r7, lr}
	push	{r7, lr}
	.cfi_def_cfa_offset 8
	.cfi_offset lr, -4
	.cfi_offset r7, -8
	.pad	#8
	sub	sp, #8
	.cfi_def_cfa_offset 16
	str	r0, [sp, #4]
.Ltmp185:
	.loc	2 1500 10 prologue_end          @ D:\Embed\MDK\MDK\ARM\ARMCompilerV621\Bin\..\include\libcxx\variant:1500:10
	ldr	r0, [sp, #4]
	.loc	2 1500 14 is_stmt 0             @ D:\Embed\MDK\MDK\ARM\ARMCompilerV621\Bin\..\include\libcxx\variant:1500:14
	bl	_ZNKSt3__27variantIJtjEE5indexB7v180000Ev
	.loc	2 1500 22                       @ D:\Embed\MDK\MDK\ARM\ARMCompilerV621\Bin\..\include\libcxx\variant:1500:22
	clz	r0, r0
	lsrs	r0, r0, #5
	.loc	2 1500 3 epilogue_begin         @ D:\Embed\MDK\MDK\ARM\ARMCompilerV621\Bin\..\include\libcxx\variant:1500:3
	add	sp, #8
	pop	{r7, pc}
.Ltmp186:
.Lfunc_end50:
	.size	_ZNSt3__219__holds_alternativeB7v180000ILj0EJtjEEEbRKNS_7variantIJDpT0_EEE, .Lfunc_end50-_ZNSt3__219__holds_alternativeB7v180000ILj0EJtjEEEbRKNS_7variantIJDpT0_EEE
	.cfi_endproc
	.cantunwind
	.fnend
                                        @ -- End function
	.section	.text._ZNSt3__216__variant_detail8__access9__variant9__get_altB7v180000ILj0ERKNS_7variantIJtjEEEEEODaOT0_,"axG",%progbits,_ZNSt3__216__variant_detail8__access9__variant9__get_altB7v180000ILj0ERKNS_7variantIJtjEEEEEODaOT0_,comdat
	.hidden	_ZNSt3__216__variant_detail8__access9__variant9__get_altB7v180000ILj0ERKNS_7variantIJtjEEEEEODaOT0_ @ -- Begin function _ZNSt3__216__variant_detail8__access9__variant9__get_altB7v180000ILj0ERKNS_7variantIJtjEEEEEODaOT0_
	.weak	_ZNSt3__216__variant_detail8__access9__variant9__get_altB7v180000ILj0ERKNS_7variantIJtjEEEEEODaOT0_
	.p2align	2
	.type	_ZNSt3__216__variant_detail8__access9__variant9__get_altB7v180000ILj0ERKNS_7variantIJtjEEEEEODaOT0_,%function
	.code	16                              @ @_ZNSt3__216__variant_detail8__access9__variant9__get_altB7v180000ILj0ERKNS_7variantIJtjEEEEEODaOT0_
	.thumb_func
_ZNSt3__216__variant_detail8__access9__variant9__get_altB7v180000ILj0ERKNS_7variantIJtjEEEEEODaOT0_:
.Lfunc_begin51:
	.loc	2 507 0 is_stmt 1               @ D:\Embed\MDK\MDK\ARM\ARMCompilerV621\Bin\..\include\libcxx\variant:507:0
	.fnstart
	.cfi_startproc
@ %bb.0:
	.save	{r7, lr}
	push	{r7, lr}
	.cfi_def_cfa_offset 8
	.cfi_offset lr, -4
	.cfi_offset r7, -8
	.pad	#8
	sub	sp, #8
	.cfi_def_cfa_offset 16
	str	r0, [sp, #4]
.Ltmp187:
	.loc	2 508 55 prologue_end           @ D:\Embed\MDK\MDK\ARM\ARMCompilerV621\Bin\..\include\libcxx\variant:508:55
	ldr	r0, [sp, #4]
	.loc	2 508 12 is_stmt 0              @ D:\Embed\MDK\MDK\ARM\ARMCompilerV621\Bin\..\include\libcxx\variant:508:12
	bl	_ZNSt3__216__variant_detail8__access6__base9__get_altB7v180000ILj0ERKNS0_6__implIJtjEEEEEODaOT0_
	.loc	2 508 5 epilogue_begin          @ D:\Embed\MDK\MDK\ARM\ARMCompilerV621\Bin\..\include\libcxx\variant:508:5
	add	sp, #8
	pop	{r7, pc}
.Ltmp188:
.Lfunc_end51:
	.size	_ZNSt3__216__variant_detail8__access9__variant9__get_altB7v180000ILj0ERKNS_7variantIJtjEEEEEODaOT0_, .Lfunc_end51-_ZNSt3__216__variant_detail8__access9__variant9__get_altB7v180000ILj0ERKNS_7variantIJtjEEEEEODaOT0_
	.cfi_endproc
	.cantunwind
	.fnend
                                        @ -- End function
	.section	.text._ZNSt3__216__variant_detail8__access6__base9__get_altB7v180000ILj0ERKNS0_6__implIJtjEEEEEODaOT0_,"axG",%progbits,_ZNSt3__216__variant_detail8__access6__base9__get_altB7v180000ILj0ERKNS0_6__implIJtjEEEEEODaOT0_,comdat
	.hidden	_ZNSt3__216__variant_detail8__access6__base9__get_altB7v180000ILj0ERKNS0_6__implIJtjEEEEEODaOT0_ @ -- Begin function _ZNSt3__216__variant_detail8__access6__base9__get_altB7v180000ILj0ERKNS0_6__implIJtjEEEEEODaOT0_
	.weak	_ZNSt3__216__variant_detail8__access6__base9__get_altB7v180000ILj0ERKNS0_6__implIJtjEEEEEODaOT0_
	.p2align	2
	.type	_ZNSt3__216__variant_detail8__access6__base9__get_altB7v180000ILj0ERKNS0_6__implIJtjEEEEEODaOT0_,%function
	.code	16                              @ @_ZNSt3__216__variant_detail8__access6__base9__get_altB7v180000ILj0ERKNS0_6__implIJtjEEEEEODaOT0_
	.thumb_func
_ZNSt3__216__variant_detail8__access6__base9__get_altB7v180000ILj0ERKNS0_6__implIJtjEEEEEODaOT0_:
.Lfunc_begin52:
	.loc	2 498 0 is_stmt 1               @ D:\Embed\MDK\MDK\ARM\ARMCompilerV621\Bin\..\include\libcxx\variant:498:0
	.fnstart
	.cfi_startproc
@ %bb.0:
	.save	{r7, lr}
	push	{r7, lr}
	.cfi_def_cfa_offset 8
	.cfi_offset lr, -4
	.cfi_offset r7, -8
	.pad	#8
	sub	sp, #8
	.cfi_def_cfa_offset 16
	str	r0, [sp, #4]
.Ltmp189:
	.loc	2 499 51 prologue_end           @ D:\Embed\MDK\MDK\ARM\ARMCompilerV621\Bin\..\include\libcxx\variant:499:51
	ldr	r0, [sp, #4]
	.loc	2 499 12 is_stmt 0              @ D:\Embed\MDK\MDK\ARM\ARMCompilerV621\Bin\..\include\libcxx\variant:499:12
	bl	_ZNSt3__216__variant_detail8__access7__union9__get_altB7v180000IRKNS0_7__unionILNS0_6_TraitE0ELj0EJtjEEEEEODaOT_NS_16in_place_index_tILj0EEE
	.loc	2 499 5 epilogue_begin          @ D:\Embed\MDK\MDK\ARM\ARMCompilerV621\Bin\..\include\libcxx\variant:499:5
	add	sp, #8
	pop	{r7, pc}
.Ltmp190:
.Lfunc_end52:
	.size	_ZNSt3__216__variant_detail8__access6__base9__get_altB7v180000ILj0ERKNS0_6__implIJtjEEEEEODaOT0_, .Lfunc_end52-_ZNSt3__216__variant_detail8__access6__base9__get_altB7v180000ILj0ERKNS0_6__implIJtjEEEEEODaOT0_
	.cfi_endproc
	.cantunwind
	.fnend
                                        @ -- End function
	.section	.text._ZNSt3__216__variant_detail8__access7__union9__get_altB7v180000IRKNS0_7__unionILNS0_6_TraitE0ELj0EJtjEEEEEODaOT_NS_16in_place_index_tILj0EEE,"axG",%progbits,_ZNSt3__216__variant_detail8__access7__union9__get_altB7v180000IRKNS0_7__unionILNS0_6_TraitE0ELj0EJtjEEEEEODaOT_NS_16in_place_index_tILj0EEE,comdat
	.hidden	_ZNSt3__216__variant_detail8__access7__union9__get_altB7v180000IRKNS0_7__unionILNS0_6_TraitE0ELj0EJtjEEEEEODaOT_NS_16in_place_index_tILj0EEE @ -- Begin function _ZNSt3__216__variant_detail8__access7__union9__get_altB7v180000IRKNS0_7__unionILNS0_6_TraitE0ELj0EJtjEEEEEODaOT_NS_16in_place_index_tILj0EEE
	.weak	_ZNSt3__216__variant_detail8__access7__union9__get_altB7v180000IRKNS0_7__unionILNS0_6_TraitE0ELj0EJtjEEEEEODaOT_NS_16in_place_index_tILj0EEE
	.p2align	2
	.type	_ZNSt3__216__variant_detail8__access7__union9__get_altB7v180000IRKNS0_7__unionILNS0_6_TraitE0ELj0EJtjEEEEEODaOT_NS_16in_place_index_tILj0EEE,%function
	.code	16                              @ @_ZNSt3__216__variant_detail8__access7__union9__get_altB7v180000IRKNS0_7__unionILNS0_6_TraitE0ELj0EJtjEEEEEODaOT_NS_16in_place_index_tILj0EEE
	.thumb_func
_ZNSt3__216__variant_detail8__access7__union9__get_altB7v180000IRKNS0_7__unionILNS0_6_TraitE0ELj0EJtjEEEEEODaOT_NS_16in_place_index_tILj0EEE:
.Lfunc_begin53:
	.loc	2 484 0 is_stmt 1               @ D:\Embed\MDK\MDK\ARM\ARMCompilerV621\Bin\..\include\libcxx\variant:484:0
	.fnstart
	.cfi_startproc
@ %bb.0:
	.pad	#8
	sub	sp, #8
	.cfi_def_cfa_offset 8
	str	r0, [sp]
.Ltmp191:
	.loc	2 485 32 prologue_end           @ D:\Embed\MDK\MDK\ARM\ARMCompilerV621\Bin\..\include\libcxx\variant:485:32
	ldr	r0, [sp]
	.loc	2 485 5 epilogue_begin is_stmt 0 @ D:\Embed\MDK\MDK\ARM\ARMCompilerV621\Bin\..\include\libcxx\variant:485:5
	add	sp, #8
	bx	lr
.Ltmp192:
.Lfunc_end53:
	.size	_ZNSt3__216__variant_detail8__access7__union9__get_altB7v180000IRKNS0_7__unionILNS0_6_TraitE0ELj0EJtjEEEEEODaOT_NS_16in_place_index_tILj0EEE, .Lfunc_end53-_ZNSt3__216__variant_detail8__access7__union9__get_altB7v180000IRKNS0_7__unionILNS0_6_TraitE0ELj0EJtjEEEEEODaOT_NS_16in_place_index_tILj0EEE
	.cfi_endproc
	.cantunwind
	.fnend
                                        @ -- End function
	.section	".text._ZZN9ODriveCAN15process_rx_fifoEjENK3$_0clINS_21ODriveCanSubscriptionEEEDaRT_","ax",%progbits
	.p2align	2                               @ -- Begin function _ZZN9ODriveCAN15process_rx_fifoEjENK3$_0clINS_21ODriveCanSubscriptionEEEDaRT_
	.type	_ZZN9ODriveCAN15process_rx_fifoEjENK3$_0clINS_21ODriveCanSubscriptionEEEDaRT_,%function
	.code	16                              @ @"_ZZN9ODriveCAN15process_rx_fifoEjENK3$_0clINS_21ODriveCanSubscriptionEEEDaRT_"
	.thumb_func
_ZZN9ODriveCAN15process_rx_fifoEjENK3$_0clINS_21ODriveCanSubscriptionEEEDaRT_:
.Lfunc_begin54:
	.loc	1 113 0 is_stmt 1               @ ../communication/can/odrive_can.cpp:113:0
	.fnstart
	.cfi_startproc
@ %bb.0:
	.pad	#24
	sub	sp, #24
	.cfi_def_cfa_offset 24
	str	r0, [sp, #20]
	str	r1, [sp, #16]
	ldr	r0, [sp, #20]
.Ltmp193:
	.loc	1 114 35 prologue_end           @ ../communication/can/odrive_can.cpp:114:35
	str	r0, [sp, #8]                    @ 4-byte Spill
	ldr	r0, [sp, #16]
	.loc	1 114 37 is_stmt 0              @ ../communication/can/odrive_can.cpp:114:37
	ldrb	r0, [r0]
	.loc	1 114 35                        @ ../communication/can/odrive_can.cpp:114:35
	cbnz	r0, .LBB54_2
	b	.LBB54_1
.LBB54_1:
	.loc	1 114 49                        @ ../communication/can/odrive_can.cpp:114:49
	ldr	r0, [sp, #8]                    @ 4-byte Reload
	ldr	r0, [r0]
	.loc	1 114 35                        @ ../communication/can/odrive_can.cpp:114:35
	str	r0, [sp, #4]                    @ 4-byte Spill
	b	.LBB54_3
.LBB54_2:
	.loc	1 114 61                        @ ../communication/can/odrive_can.cpp:114:61
	ldr	r0, [sp, #8]                    @ 4-byte Reload
	ldr	r0, [r0, #4]
	.loc	1 114 35                        @ ../communication/can/odrive_can.cpp:114:35
	str	r0, [sp, #4]                    @ 4-byte Spill
	b	.LBB54_3
.LBB54_3:
	ldr	r0, [sp, #8]                    @ 4-byte Reload
	ldr	r3, [sp, #4]                    @ 4-byte Reload
	.loc	1 114 71                        @ ../communication/can/odrive_can.cpp:114:71
	ldr	r1, [r3]
	adds	r2, r1, #1
	str	r2, [r3]
	.loc	1 114 20                        @ ../communication/can/odrive_can.cpp:114:20
	str	r1, [sp, #12]
	.loc	1 115 21 is_stmt 1              @ ../communication/can/odrive_can.cpp:115:21
	ldr	r0, [r0, #8]
	.loc	1 115 28 is_stmt 0              @ ../communication/can/odrive_can.cpp:115:28
	ldr	r1, [r0, #24]
	.loc	1 115 48                        @ ../communication/can/odrive_can.cpp:115:48
	ldr	r2, [sp, #12]
	movs	r0, #0
	.loc	1 115 61                        @ ../communication/can/odrive_can.cpp:115:61
	cmp	r1, r2
	str	r0, [sp]                        @ 4-byte Spill
	bne	.LBB54_5
	b	.LBB54_4
.LBB54_4:
	.loc	1 115 65                        @ ../communication/can/odrive_can.cpp:115:65
	ldr	r1, [sp, #8]                    @ 4-byte Reload
	ldr	r0, [sp, #16]
	.loc	1 115 67                        @ ../communication/can/odrive_can.cpp:115:67
	ldrb	r0, [r0]
	.loc	1 115 75                        @ ../communication/can/odrive_can.cpp:115:75
	ldr	r1, [r1, #12]
	ldr	r1, [r1]
	.loc	1 115 72                        @ ../communication/can/odrive_can.cpp:115:72
	subs	r0, r0, r1
	clz	r0, r0
	lsrs	r0, r0, #5
	str	r0, [sp]                        @ 4-byte Spill
	b	.LBB54_5
.LBB54_5:
	.loc	1 0 0                           @ ../communication/can/odrive_can.cpp:0:0
	ldr	r0, [sp]                        @ 4-byte Reload
	.loc	1 115 13                        @ ../communication/can/odrive_can.cpp:115:13
	and	r0, r0, #1
	.loc	1 115 13 epilogue_begin         @ ../communication/can/odrive_can.cpp:115:13
	add	sp, #24
	bx	lr
.Ltmp194:
.Lfunc_end54:
	.size	_ZZN9ODriveCAN15process_rx_fifoEjENK3$_0clINS_21ODriveCanSubscriptionEEEDaRT_, .Lfunc_end54-_ZZN9ODriveCAN15process_rx_fifoEjENK3$_0clINS_21ODriveCanSubscriptionEEEDaRT_
	.cfi_endproc
	.file	23 "D:\\Embed\\MDK\\MDK\\ARM\\ARMCompilerV621\\Bin\\..\\include" "stdio.h"
	.cantunwind
	.fnend
                                        @ -- End function
	.section	".text._ZZN9ODriveCAN9subscribeERK16MsgIdFilterSpecsPFvPvRK13can_Message_tES3_PPN10CanBusBase15CanSubscriptionEENK3$_0clINS_21ODriveCanSubscriptionEEEDaRT_","ax",%progbits
	.p2align	2                               @ -- Begin function _ZZN9ODriveCAN9subscribeERK16MsgIdFilterSpecsPFvPvRK13can_Message_tES3_PPN10CanBusBase15CanSubscriptionEENK3$_0clINS_21ODriveCanSubscriptionEEEDaRT_
	.type	_ZZN9ODriveCAN9subscribeERK16MsgIdFilterSpecsPFvPvRK13can_Message_tES3_PPN10CanBusBase15CanSubscriptionEENK3$_0clINS_21ODriveCanSubscriptionEEEDaRT_,%function
	.code	16                              @ @"_ZZN9ODriveCAN9subscribeERK16MsgIdFilterSpecsPFvPvRK13can_Message_tES3_PPN10CanBusBase15CanSubscriptionEENK3$_0clINS_21ODriveCanSubscriptionEEEDaRT_"
	.thumb_func
_ZZN9ODriveCAN9subscribeERK16MsgIdFilterSpecsPFvPvRK13can_Message_tES3_PPN10CanBusBase15CanSubscriptionEENK3$_0clINS_21ODriveCanSubscriptionEEEDaRT_:
.Lfunc_begin55:
	.loc	1 153 0 is_stmt 1               @ ../communication/can/odrive_can.cpp:153:0
	.fnstart
	.cfi_startproc
@ %bb.0:
	.pad	#8
	sub	sp, #8
	.cfi_def_cfa_offset 8
	str	r0, [sp, #4]
	str	r1, [sp]
.Ltmp195:
	.loc	1 154 16 prologue_end           @ ../communication/can/odrive_can.cpp:154:16
	ldr	r0, [sp]
	.loc	1 154 29 is_stmt 0              @ ../communication/can/odrive_can.cpp:154:29
	ldrb	r0, [r0]
	.loc	1 154 34                        @ ../communication/can/odrive_can.cpp:154:34
	subs	r0, #255
	clz	r0, r0
	lsrs	r0, r0, #5
	.loc	1 154 9 epilogue_begin          @ ../communication/can/odrive_can.cpp:154:9
	add	sp, #8
	bx	lr
.Ltmp196:
.Lfunc_end55:
	.size	_ZZN9ODriveCAN9subscribeERK16MsgIdFilterSpecsPFvPvRK13can_Message_tES3_PPN10CanBusBase15CanSubscriptionEENK3$_0clINS_21ODriveCanSubscriptionEEEDaRT_, .Lfunc_end55-_ZZN9ODriveCAN9subscribeERK16MsgIdFilterSpecsPFvPvRK13can_Message_tES3_PPN10CanBusBase15CanSubscriptionEENK3$_0clINS_21ODriveCanSubscriptionEEEDaRT_
	.cfi_endproc
	.cantunwind
	.fnend
                                        @ -- End function
	.type	.L.str,%object                  @ @.str
	.section	.rodata.str1.1,"aMS",%progbits,1
.L.str:
	.asciz	"can_server_thread_def"
	.size	.L.str, 22

	.hidden	_ZTV9ODriveCAN                  @ @_ZTV9ODriveCAN
	.type	_ZTV9ODriveCAN,%object
	.section	.rodata._ZTV9ODriveCAN,"a",%progbits
	.globl	_ZTV9ODriveCAN
	.p2align	2, 0x0
_ZTV9ODriveCAN:
	.long	0
	.long	_ZTI9ODriveCAN
	.long	_ZN9ODriveCAN12send_messageERK13can_Message_t
	.long	_ZN9ODriveCAN9subscribeERK16MsgIdFilterSpecsPFvPvRK13can_Message_tES3_PPN10CanBusBase15CanSubscriptionE
	.long	_ZN9ODriveCAN11unsubscribeEPN10CanBusBase15CanSubscriptionE
	.size	_ZTV9ODriveCAN, 20

	.hidden	_ZTS9ODriveCAN                  @ @_ZTS9ODriveCAN
	.type	_ZTS9ODriveCAN,%object
	.section	.rodata._ZTS9ODriveCAN,"a",%progbits
	.globl	_ZTS9ODriveCAN
_ZTS9ODriveCAN:
	.asciz	"9ODriveCAN"
	.size	_ZTS9ODriveCAN, 11

	.hidden	_ZTS10CanBusBase                @ @_ZTS10CanBusBase
	.type	_ZTS10CanBusBase,%object
	.section	.rodata._ZTS10CanBusBase,"aG",%progbits,_ZTS10CanBusBase,comdat
	.weak	_ZTS10CanBusBase
_ZTS10CanBusBase:
	.asciz	"10CanBusBase"
	.size	_ZTS10CanBusBase, 13

	.hidden	_ZTI10CanBusBase                @ @_ZTI10CanBusBase
	.type	_ZTI10CanBusBase,%object
	.section	.rodata._ZTI10CanBusBase,"aG",%progbits,_ZTI10CanBusBase,comdat
	.weak	_ZTI10CanBusBase
	.p2align	2, 0x0
_ZTI10CanBusBase:
	.long	_ZTVN10__cxxabiv117__class_type_infoE+8
	.long	_ZTS10CanBusBase
	.size	_ZTI10CanBusBase, 8

	.hidden	_ZTSN10ODriveIntf7CanIntfE      @ @_ZTSN10ODriveIntf7CanIntfE
	.type	_ZTSN10ODriveIntf7CanIntfE,%object
	.section	.rodata._ZTSN10ODriveIntf7CanIntfE,"aG",%progbits,_ZTSN10ODriveIntf7CanIntfE,comdat
	.weak	_ZTSN10ODriveIntf7CanIntfE
_ZTSN10ODriveIntf7CanIntfE:
	.asciz	"N10ODriveIntf7CanIntfE"
	.size	_ZTSN10ODriveIntf7CanIntfE, 23

	.hidden	_ZTIN10ODriveIntf7CanIntfE      @ @_ZTIN10ODriveIntf7CanIntfE
	.type	_ZTIN10ODriveIntf7CanIntfE,%object
	.section	.rodata._ZTIN10ODriveIntf7CanIntfE,"aG",%progbits,_ZTIN10ODriveIntf7CanIntfE,comdat
	.weak	_ZTIN10ODriveIntf7CanIntfE
	.p2align	2, 0x0
_ZTIN10ODriveIntf7CanIntfE:
	.long	_ZTVN10__cxxabiv117__class_type_infoE+8
	.long	_ZTSN10ODriveIntf7CanIntfE
	.size	_ZTIN10ODriveIntf7CanIntfE, 8

	.hidden	_ZTI9ODriveCAN                  @ @_ZTI9ODriveCAN
	.type	_ZTI9ODriveCAN,%object
	.section	.rodata._ZTI9ODriveCAN,"a",%progbits
	.globl	_ZTI9ODriveCAN
	.p2align	2, 0x0
_ZTI9ODriveCAN:
	.long	_ZTVN10__cxxabiv121__vmi_class_type_infoE+8
	.long	_ZTS9ODriveCAN
	.long	0                               @ 0x0
	.long	2                               @ 0x2
	.long	_ZTI10CanBusBase
	.long	2                               @ 0x2
	.long	_ZTIN10ODriveIntf7CanIntfE
	.long	2                               @ 0x2
	.size	_ZTI9ODriveCAN, 32

	.type	.L.str.1,%object                @ @.str.1
	.section	.rodata.str1.1,"aMS",%progbits,1
.L.str.1:
	.asciz	"bad_variant_access was thrown in -fno-exceptions mode"
	.size	.L.str.1, 54

	.hidden	_ZNSt3__214in_place_indexILj1EEE @ @_ZNSt3__214in_place_indexILj1EEE
	.type	_ZNSt3__214in_place_indexILj1EEE,%object
	.section	.rodata._ZNSt3__214in_place_indexILj1EEE,"aG",%progbits,_ZNSt3__214in_place_indexILj1EEE,comdat
	.weak	_ZNSt3__214in_place_indexILj1EEE
_ZNSt3__214in_place_indexILj1EEE:
	.zero	1
	.size	_ZNSt3__214in_place_indexILj1EEE, 1

	.hidden	_ZNSt3__214in_place_indexILj0EEE @ @_ZNSt3__214in_place_indexILj0EEE
	.type	_ZNSt3__214in_place_indexILj0EEE,%object
	.section	.rodata._ZNSt3__214in_place_indexILj0EEE,"aG",%progbits,_ZNSt3__214in_place_indexILj0EEE,comdat
	.weak	_ZNSt3__214in_place_indexILj0EEE
_ZNSt3__214in_place_indexILj0EEE:
	.zero	1
	.size	_ZNSt3__214in_place_indexILj0EEE, 1

	.file	24 "D:\\Embed\\MDK\\MDK\\ARM\\ARMCompilerV621\\Bin\\..\\include" "stddef.h"
	.file	25 "D:\\Embed\\MDK\\MDK\\ARM\\ARMCompilerV621\\Bin\\..\\include\\libcxx" "stddef.h"
	.file	26 "D:\\Embed\\MDK\\MDK\\ARM\\ARMCompilerV621\\Bin\\..\\include\\libcxx" "cstddef"
	.file	27 "D:\\Embed\\MDK\\MDK\\ARM\\ARMCompilerV621\\Bin\\..\\include\\libcxx" "cstdint"
	.file	28 "D:\\Embed\\MDK\\MDK\\ARM\\ARMCompilerV621\\Bin\\..\\include" "stdlib.h"
	.file	29 "D:\\Embed\\MDK\\MDK\\ARM\\ARMCompilerV621\\Bin\\..\\include\\libcxx" "cstdlib"
	.file	30 "D:\\Embed\\MDK\\MDK\\ARM\\ARMCompilerV621\\Bin\\..\\include\\libcxx" "stdlib.h"
	.file	31 "D:\\Embed\\MDK\\MDK\\ARM\\ARMCompilerV621\\Bin\\..\\include" "ctype.h"
	.file	32 "D:\\Embed\\MDK\\MDK\\ARM\\ARMCompilerV621\\Bin\\..\\include\\libcxx" "cctype"
	.file	33 "D:\\Embed\\MDK\\MDK\\ARM\\ARMCompilerV621\\Bin\\..\\include" "wctype.h"
	.file	34 "D:\\Embed\\MDK\\MDK\\ARM\\ARMCompilerV621\\Bin\\..\\include\\libcxx" "cwctype"
	.file	35 "D:\\Embed\\MDK\\MDK\\ARM\\ARMCompilerV621\\Bin\\..\\include" "wchar.h"
	.file	36 "D:\\ikingtec\\Robot\\ODrive\\Firmware\\MDK-ARM" "../communication/can\\odrive_can.cpp"
	.file	37 "D:\\Embed\\MDK\\MDK\\ARM\\ARMCompilerV621\\Bin\\..\\include\\libcxx" "cwchar"
	.file	38 "D:\\Embed\\MDK\\MDK\\ARM\\ARMCompilerV621\\Bin\\..\\include\\libcxx" "wchar.h"
	.file	39 "D:\\Embed\\MDK\\MDK\\ARM\\ARMCompilerV621\\Bin\\..\\include" "string.h"
	.file	40 "D:\\Embed\\MDK\\MDK\\ARM\\ARMCompilerV621\\Bin\\..\\include\\libcxx" "cstring"
	.file	41 "D:\\Embed\\MDK\\MDK\\ARM\\ARMCompilerV621\\Bin\\..\\include\\libcxx" "string.h"
	.file	42 "D:\\Embed\\MDK\\MDK\\ARM\\ARMCompilerV621\\Bin\\..\\include\\libcxx\\__chrono" "duration.h"
	.file	43 "D:\\Embed\\MDK\\MDK\\ARM\\ARMCompilerV621\\Bin\\..\\include\\libcxx" "ctime"
	.file	44 "D:\\Embed\\MDK\\MDK\\ARM\\ARMCompilerV621\\Bin\\..\\include" "errno.h"
	.file	45 "D:\\Embed\\MDK\\MDK\\ARM\\ARMCompilerV621\\Bin\\..\\include\\libcxx" "__std_mbstate_t.h"
	.file	46 "D:\\Embed\\MDK\\MDK\\ARM\\ARMCompilerV621\\Bin\\..\\include" "math.h"
	.file	47 "D:\\Embed\\MDK\\MDK\\ARM\\ARMCompilerV621\\Bin\\..\\include\\libcxx\\__math" "traits.h"
	.file	48 "D:\\Embed\\MDK\\MDK\\ARM\\ARMCompilerV621\\Bin\\..\\include\\libcxx" "math.h"
	.file	49 "D:\\Embed\\MDK\\MDK\\ARM\\ARMCompilerV621\\Bin\\..\\include\\libcxx\\__math" "modulo.h"
	.file	50 "D:\\Embed\\MDK\\MDK\\ARM\\ARMCompilerV621\\Bin\\..\\include\\libcxx" "cmath"
	.file	51 "D:\\Embed\\MDK\\MDK\\ARM\\ARMCompilerV621\\Bin\\..\\include\\libcxx" "cstdio"
	.file	52 "D:\\Embed\\MDK\\MDK\\ARM\\ARMCompilerV621\\Bin\\..\\include" "locale.h"
	.file	53 "D:\\Embed\\MDK\\MDK\\ARM\\ARMCompilerV621\\Bin\\..\\include\\libcxx" "clocale"
	.file	54 "D:\\Embed\\MDK\\MDK\\ARM\\ARMCompilerV621\\Bin\\..\\include" "stdarg.h"
	.file	55 "D:\\Embed\\MDK\\MDK\\ARM\\ARMCompilerV621\\Bin\\..\\include\\libcxx" "cstdarg"
	.file	56 "<stdin>"