	.text
	.syntax unified
	.eabi_attribute	67, "2.09"	@ Tag_conformance
	.cpu	cortex-m4
	.eabi_attribute	6, 13	@ Tag_CPU_arch
	.eabi_attribute	7, 77	@ Tag_CPU_arch_profile
	.eabi_attribute	8, 0	@ Tag_ARM_ISA_use
	.eabi_attribute	9, 2	@ Tag_THUMB_ISA_use
	.fpu	fpv4-sp-d16
	.eabi_attribute	27, 1	@ Tag_ABI_HardFP_use
	.eabi_attribute	36, 1	@ Tag_FP_HP_extension
	.eabi_attribute	34, 1	@ Tag_CPU_unaligned_access
	.eabi_attribute	17, 1	@ Tag_ABI_PCS_GOT_use
	.eabi_attribute	20, 2	@ Tag_ABI_FP_denormal
	.eabi_attribute	21, 0	@ Tag_ABI_FP_exceptions
	.eabi_attribute	23, 1	@ Tag_ABI_FP_number_model
	.eabi_attribute	24, 1	@ Tag_ABI_align_needed
	.eabi_attribute	25, 1	@ Tag_ABI_align_preserved
	.eabi_attribute	28, 1	@ Tag_ABI_VFP_args
	.eabi_attribute	38, 1	@ Tag_ABI_FP_16bit_format
	.eabi_attribute	18, 2	@ Tag_ABI_PCS_wchar_t
	.eabi_attribute	26, 1	@ Tag_ABI_enum_size
	.eabi_attribute	14, 0	@ Tag_ABI_PCS_R9_use
	.file	"open_loop_controller.cpp"
	.file	1 "D:\\ikingtec\\Robot\\ODrive\\Firmware\\MDK-ARM" "../../Firmware\\MotorControl/utils.hpp"
	.file	2 "D:\\Embed\\MDK\\MDK\\ARM\\ARMCompilerV621\\Bin\\..\\include\\libcxx\\__utility" "in_place.h"
	.file	3 "D:\\Embed\\MDK\\MDK\\ARM\\ARMCompilerV621\\Bin\\..\\include\\libcxx" "optional"
	.file	4 "D:\\Embed\\MDK\\MDK\\ARM\\ARMCompilerV621\\Bin\\..\\include\\libcxx\\__utility" "pair.h"
	.file	5 "D:\\Embed\\MDK\\MDK\\ARM\\ARMCompilerV621\\Bin\\..\\include\\libcxx\\__tuple" "sfinae_helpers.h"
	.file	6 "D:\\Embed\\MDK\\MDK\\ARM\\ARMCompilerV621\\Bin\\..\\include\\libcxx\\__type_traits" "add_pointer.h"
	.section	.text._ZN18OpenLoopController6updateEj,"ax",%progbits
	.hidden	_ZN18OpenLoopController6updateEj @ -- Begin function _ZN18OpenLoopController6updateEj
	.globl	_ZN18OpenLoopController6updateEj
	.p2align	2
	.type	_ZN18OpenLoopController6updateEj,%function
	.code	16                              @ @_ZN18OpenLoopController6updateEj
	.thumb_func
_ZN18OpenLoopController6updateEj:
.Lfunc_begin0:
	.file	7 "D:\\ikingtec\\Robot\\ODrive\\Firmware\\MDK-ARM" "../MotorControl/open_loop_controller.cpp"
	.loc	7 5 0                           @ ../MotorControl/open_loop_controller.cpp:5:0
	.fnstart
	.cfi_sections .debug_frame
	.cfi_startproc
@ %bb.0:
	.save	{r7, lr}
	push	{r7, lr}
	.cfi_def_cfa_offset 8
	.cfi_offset lr, -4
	.cfi_offset r7, -8
	.pad	#256
	sub	sp, #256
	.cfi_def_cfa_offset 264
	str	r0, [sp, #252]
	str	r1, [sp, #248]
	ldr	r0, [sp, #252]
.Ltmp0:
	.loc	7 6 31 prologue_end             @ ../MotorControl/open_loop_controller.cpp:6:31
	str	r0, [sp, #64]                   @ 4-byte Spill
	add.w	r1, r0, #36
	.loc	7 6 45 is_stmt 0                @ ../MotorControl/open_loop_controller.cpp:6:45
	str	r1, [sp, #36]                   @ 4-byte Spill
	add	r0, sp, #228
	str	r0, [sp, #4]                    @ 4-byte Spill
	bl	_ZN10OutputPortINSt3__24pairIffEEE8previousEv
	movs	r0, #0
	.loc	7 6 73                          @ ../MotorControl/open_loop_controller.cpp:6:73
	str	r0, [sp, #52]                   @ 4-byte Spill
	str	r0, [sp, #216]
	.loc	7 6 79                          @ ../MotorControl/open_loop_controller.cpp:6:79
	str	r0, [sp, #212]
	add	r0, sp, #220
	str	r0, [sp, #8]                    @ 4-byte Spill
	add	r1, sp, #216
	add	r2, sp, #212
	.loc	7 6 65                          @ ../MotorControl/open_loop_controller.cpp:6:65
	bl	_ZNSt3__24pairIffEC2B7v180000IffLi0EEEOT_OT0_
	ldr	r0, [sp, #4]                    @ 4-byte Reload
	ldr	r1, [sp, #8]                    @ 4-byte Reload
	.loc	7 6 56                          @ ../MotorControl/open_loop_controller.cpp:6:56
	bl	_ZNOSt3__28optionalINS_4pairIffEEE8value_orB7v180000IS2_EES2_OT_
	vstr	s0, [sp, #240]
	vstr	s1, [sp, #244]
	add	r0, sp, #240
	.loc	7 6 11                          @ ../MotorControl/open_loop_controller.cpp:6:11
	str	r0, [sp, #12]                   @ 4-byte Spill
	bl	_ZNSt3__23getB7v180000ILj0EffEEONS_13tuple_elementIXT_ENS_4pairIT0_T1_EEE4typeEOS5_
	mov	r1, r0
	ldr	r0, [sp, #12]                   @ 4-byte Reload
	str	r1, [sp, #208]
	.loc	7 6 20                          @ ../MotorControl/open_loop_controller.cpp:6:20
	bl	_ZNSt3__23getB7v180000ILj1EffEEONS_13tuple_elementIXT_ENS_4pairIT0_T1_EEE4typeEOS5_
	mov	r1, r0
	ldr	r0, [sp, #64]                   @ 4-byte Reload
	str	r1, [sp, #204]
	.loc	7 7 31 is_stmt 1                @ ../MotorControl/open_loop_controller.cpp:7:31
	add.w	r1, r0, #48
	.loc	7 7 45 is_stmt 0                @ ../MotorControl/open_loop_controller.cpp:7:45
	str	r1, [sp, #40]                   @ 4-byte Spill
	add	r0, sp, #184
	str	r0, [sp, #16]                   @ 4-byte Spill
	bl	_ZN10OutputPortINSt3__24pairIffEEE8previousEv
	ldr	r0, [sp, #52]                   @ 4-byte Reload
	.loc	7 7 73                          @ ../MotorControl/open_loop_controller.cpp:7:73
	str	r0, [sp, #172]
	.loc	7 7 79                          @ ../MotorControl/open_loop_controller.cpp:7:79
	str	r0, [sp, #168]
	add	r0, sp, #176
	str	r0, [sp, #20]                   @ 4-byte Spill
	add	r1, sp, #172
	add	r2, sp, #168
	.loc	7 7 65                          @ ../MotorControl/open_loop_controller.cpp:7:65
	bl	_ZNSt3__24pairIffEC2B7v180000IffLi0EEEOT_OT0_
	ldr	r0, [sp, #16]                   @ 4-byte Reload
	ldr	r1, [sp, #20]                   @ 4-byte Reload
	.loc	7 7 56                          @ ../MotorControl/open_loop_controller.cpp:7:56
	bl	_ZNOSt3__28optionalINS_4pairIffEEE8value_orB7v180000IS2_EES2_OT_
	vstr	s0, [sp, #196]
	vstr	s1, [sp, #200]
	add	r0, sp, #196
	.loc	7 7 11                          @ ../MotorControl/open_loop_controller.cpp:7:11
	str	r0, [sp, #24]                   @ 4-byte Spill
	bl	_ZNSt3__23getB7v180000ILj0EffEEONS_13tuple_elementIXT_ENS_4pairIT0_T1_EEE4typeEOS5_
	mov	r1, r0
	ldr	r0, [sp, #24]                   @ 4-byte Reload
	str	r1, [sp, #164]
	.loc	7 7 20                          @ ../MotorControl/open_loop_controller.cpp:7:20
	bl	_ZNSt3__23getB7v180000ILj1EffEEONS_13tuple_elementIXT_ENS_4pairIT0_T1_EEE4typeEOS5_
	mov	r1, r0
	ldr	r0, [sp, #64]                   @ 4-byte Reload
	str	r1, [sp, #160]
	.loc	7 8 19 is_stmt 1                @ ../MotorControl/open_loop_controller.cpp:8:19
	add.w	r1, r0, #60
	.loc	7 8 26 is_stmt 0                @ ../MotorControl/open_loop_controller.cpp:8:26
	str	r1, [sp, #48]                   @ 4-byte Spill
	add	r0, sp, #148
	str	r0, [sp, #28]                   @ 4-byte Spill
	bl	_ZN10OutputPortIfE8previousEv
	ldr	r0, [sp, #28]                   @ 4-byte Reload
	ldr	r1, [sp, #64]                   @ 4-byte Reload
	.loc	7 8 46                          @ ../MotorControl/open_loop_controller.cpp:8:46
	adds	r1, #28
	.loc	7 8 37                          @ ../MotorControl/open_loop_controller.cpp:8:37
	bl	_ZNOSt3__28optionalIfE8value_orB7v180000IRfEEfOT_
	ldr	r0, [sp, #64]                   @ 4-byte Reload
	.loc	7 8 11                          @ ../MotorControl/open_loop_controller.cpp:8:11
	vstr	s0, [sp, #156]
	.loc	7 9 23 is_stmt 1                @ ../MotorControl/open_loop_controller.cpp:9:23
	add.w	r1, r0, #68
	.loc	7 9 34 is_stmt 0                @ ../MotorControl/open_loop_controller.cpp:9:34
	str	r1, [sp, #44]                   @ 4-byte Spill
	add	r0, sp, #136
	str	r0, [sp, #32]                   @ 4-byte Spill
	bl	_ZN10OutputPortIfE8previousEv
	ldr	r0, [sp, #32]                   @ 4-byte Reload
	ldr	r1, [sp, #52]                   @ 4-byte Reload
	.loc	7 9 54                          @ ../MotorControl/open_loop_controller.cpp:9:54
	str	r1, [sp, #132]
	add	r1, sp, #132
	.loc	7 9 45                          @ ../MotorControl/open_loop_controller.cpp:9:45
	bl	_ZNOSt3__28optionalIfE8value_orB7v180000IfEEfOT_
	ldr	r1, [sp, #64]                   @ 4-byte Reload
	.loc	7 9 11                          @ ../MotorControl/open_loop_controller.cpp:9:11
	vstr	s0, [sp, #144]
	.loc	7 14 24 is_stmt 1               @ ../MotorControl/open_loop_controller.cpp:14:24
	ldr	r0, [sp, #248]
	.loc	7 14 36 is_stmt 0               @ ../MotorControl/open_loop_controller.cpp:14:36
	ldr	r2, [r1, #32]
	.loc	7 14 34                         @ ../MotorControl/open_loop_controller.cpp:14:34
	subs	r0, r0, r2
	.loc	7 14 23                         @ ../MotorControl/open_loop_controller.cpp:14:23
	vmov	s0, r0
	vcvt.f32.u32	s0, s0
	vldr	s2, .LCPI0_0
	.loc	7 14 48                         @ ../MotorControl/open_loop_controller.cpp:14:48
	vdiv.f32	s0, s0, s2
	.loc	7 14 11                         @ ../MotorControl/open_loop_controller.cpp:14:11
	vstr	s0, [sp, #128]
	.loc	7 17 20 is_stmt 1               @ ../MotorControl/open_loop_controller.cpp:17:20
	add.w	r0, r1, #20
	.loc	7 6 11                          @ ../MotorControl/open_loop_controller.cpp:6:11
	ldr	r2, [sp, #208]
	.loc	7 17 37                         @ ../MotorControl/open_loop_controller.cpp:17:37
	vldr	s0, [r2]
	.loc	7 17 47 is_stmt 0               @ ../MotorControl/open_loop_controller.cpp:17:47
	vldr	s2, [r1, #4]
	.loc	7 17 67                         @ ../MotorControl/open_loop_controller.cpp:17:67
	vldr	s4, [sp, #128]
	.loc	7 17 45                         @ ../MotorControl/open_loop_controller.cpp:17:45
	vmul.f32	s2, s2, s4
	vsub.f32	s0, s0, s2
	.loc	7 17 37                         @ ../MotorControl/open_loop_controller.cpp:17:37
	vstr	s0, [sp, #116]
	.loc	7 6 11 is_stmt 1                @ ../MotorControl/open_loop_controller.cpp:6:11
	ldr	r2, [sp, #208]
	.loc	7 17 71                         @ ../MotorControl/open_loop_controller.cpp:17:71
	vldr	s2, [r2]
	.loc	7 17 81 is_stmt 0               @ ../MotorControl/open_loop_controller.cpp:17:81
	vldr	s0, [r1, #4]
	.loc	7 17 101                        @ ../MotorControl/open_loop_controller.cpp:17:101
	vldr	s4, [sp, #128]
	.loc	7 17 79                         @ ../MotorControl/open_loop_controller.cpp:17:79
	vmul.f32	s0, s0, s4
	vadd.f32	s0, s0, s2
	.loc	7 17 71                         @ ../MotorControl/open_loop_controller.cpp:17:71
	vstr	s0, [sp, #112]
	add	r1, sp, #116
	add	r2, sp, #112
	.loc	7 17 9                          @ ../MotorControl/open_loop_controller.cpp:17:9
	bl	_ZNSt3__25clampB7v180000IfEERKT_S3_S3_S3_
	mov	r1, r0
	.loc	7 18 9 is_stmt 1                @ ../MotorControl/open_loop_controller.cpp:18:9
	ldr	r0, [sp, #52]                   @ 4-byte Reload
	str	r0, [sp, #108]
	add	r0, sp, #120
	add	r2, sp, #108
	.loc	7 16 21                         @ ../MotorControl/open_loop_controller.cpp:16:21
	bl	_ZNSt3__24pairIffEC2B7v180000IRKffLi0EEEOT_OT0_
	ldr	r0, [sp, #36]                   @ 4-byte Reload
	.loc	7 16 19 is_stmt 0               @ ../MotorControl/open_loop_controller.cpp:16:19
	vldr	s0, [sp, #120]
	vldr	s1, [sp, #124]
	bl	_ZN10OutputPortINSt3__24pairIffEEEaSES2_
	ldr	r1, [sp, #64]                   @ 4-byte Reload
	.loc	7 21 20 is_stmt 1               @ ../MotorControl/open_loop_controller.cpp:21:20
	add.w	r0, r1, #24
	.loc	7 7 11                          @ ../MotorControl/open_loop_controller.cpp:7:11
	ldr	r2, [sp, #164]
	.loc	7 21 37                         @ ../MotorControl/open_loop_controller.cpp:21:37
	vldr	s0, [r2]
	.loc	7 21 47 is_stmt 0               @ ../MotorControl/open_loop_controller.cpp:21:47
	vldr	s2, [r1, #8]
	.loc	7 21 67                         @ ../MotorControl/open_loop_controller.cpp:21:67
	vldr	s4, [sp, #128]
	.loc	7 21 45                         @ ../MotorControl/open_loop_controller.cpp:21:45
	vmul.f32	s2, s2, s4
	vsub.f32	s0, s0, s2
	.loc	7 21 37                         @ ../MotorControl/open_loop_controller.cpp:21:37
	vstr	s0, [sp, #96]
	.loc	7 7 11 is_stmt 1                @ ../MotorControl/open_loop_controller.cpp:7:11
	ldr	r2, [sp, #164]
	.loc	7 21 71                         @ ../MotorControl/open_loop_controller.cpp:21:71
	vldr	s2, [r2]
	.loc	7 21 81 is_stmt 0               @ ../MotorControl/open_loop_controller.cpp:21:81
	vldr	s0, [r1, #8]
	.loc	7 21 101                        @ ../MotorControl/open_loop_controller.cpp:21:101
	vldr	s4, [sp, #128]
	.loc	7 21 79                         @ ../MotorControl/open_loop_controller.cpp:21:79
	vmul.f32	s0, s0, s4
	vadd.f32	s0, s0, s2
	.loc	7 21 71                         @ ../MotorControl/open_loop_controller.cpp:21:71
	vstr	s0, [sp, #92]
	add	r1, sp, #96
	add	r2, sp, #92
	.loc	7 21 9                          @ ../MotorControl/open_loop_controller.cpp:21:9
	bl	_ZNSt3__25clampB7v180000IfEERKT_S3_S3_S3_
	mov	r1, r0
	.loc	7 22 9 is_stmt 1                @ ../MotorControl/open_loop_controller.cpp:22:9
	ldr	r0, [sp, #52]                   @ 4-byte Reload
	str	r0, [sp, #88]
	add	r0, sp, #100
	add	r2, sp, #88
	.loc	7 20 21                         @ ../MotorControl/open_loop_controller.cpp:20:21
	bl	_ZNSt3__24pairIffEC2B7v180000IRKffLi0EEEOT_OT0_
	ldr	r0, [sp, #40]                   @ 4-byte Reload
	.loc	7 20 19 is_stmt 0               @ ../MotorControl/open_loop_controller.cpp:20:19
	vldr	s0, [sp, #100]
	vldr	s1, [sp, #104]
	bl	_ZN10OutputPortINSt3__24pairIffEEEaSES2_
	ldr	r1, [sp, #64]                   @ 4-byte Reload
	.loc	7 25 28 is_stmt 1               @ ../MotorControl/open_loop_controller.cpp:25:28
	add.w	r0, r1, #16
	.loc	7 25 41 is_stmt 0               @ ../MotorControl/open_loop_controller.cpp:25:41
	vldr	s0, [sp, #144]
	.loc	7 25 53                         @ ../MotorControl/open_loop_controller.cpp:25:53
	vldr	s2, [r1, #12]
	.loc	7 25 75                         @ ../MotorControl/open_loop_controller.cpp:25:75
	vldr	s4, [sp, #128]
	.loc	7 25 51                         @ ../MotorControl/open_loop_controller.cpp:25:51
	vmul.f32	s2, s2, s4
	vsub.f32	s0, s0, s2
	.loc	7 25 41                         @ ../MotorControl/open_loop_controller.cpp:25:41
	vstr	s0, [sp, #84]
	.loc	7 25 79                         @ ../MotorControl/open_loop_controller.cpp:25:79
	vldr	s2, [sp, #144]
	.loc	7 25 91                         @ ../MotorControl/open_loop_controller.cpp:25:91
	vldr	s0, [r1, #12]
	.loc	7 25 113                        @ ../MotorControl/open_loop_controller.cpp:25:113
	vldr	s4, [sp, #128]
	.loc	7 25 89                         @ ../MotorControl/open_loop_controller.cpp:25:89
	vmul.f32	s0, s0, s4
	vadd.f32	s0, s0, s2
	.loc	7 25 79                         @ ../MotorControl/open_loop_controller.cpp:25:79
	vstr	s0, [sp, #80]
	add	r1, sp, #84
	add	r2, sp, #80
	.loc	7 25 17                         @ ../MotorControl/open_loop_controller.cpp:25:17
	bl	_ZNSt3__25clampB7v180000IfEERKT_S3_S3_S3_
	mov	r1, r0
	ldr	r0, [sp, #44]                   @ 4-byte Reload
	ldr	r1, [r1]
	.loc	7 25 15                         @ ../MotorControl/open_loop_controller.cpp:25:15
	str	r1, [sp, #144]
	.loc	7 26 18 is_stmt 1               @ ../MotorControl/open_loop_controller.cpp:26:18
	vldr	s0, [sp, #144]
	.loc	7 26 16 is_stmt 0               @ ../MotorControl/open_loop_controller.cpp:26:16
	bl	_ZN10OutputPortIfEaSEf
	.loc	7 27 25 is_stmt 1               @ ../MotorControl/open_loop_controller.cpp:27:25
	vldr	s2, [sp, #156]
	.loc	7 27 33 is_stmt 0               @ ../MotorControl/open_loop_controller.cpp:27:33
	vldr	s0, [sp, #144]
	.loc	7 27 45                         @ ../MotorControl/open_loop_controller.cpp:27:45
	vldr	s4, [sp, #128]
	.loc	7 27 31                         @ ../MotorControl/open_loop_controller.cpp:27:31
	vmul.f32	s0, s0, s4
	vadd.f32	s0, s0, s2
	.loc	7 27 14                         @ ../MotorControl/open_loop_controller.cpp:27:14
	bl	_Z10wrap_pm_pif
	ldr	r0, [sp, #48]                   @ 4-byte Reload
	.loc	7 27 12                         @ ../MotorControl/open_loop_controller.cpp:27:12
	bl	_ZN10OutputPortIfEaSEf
	ldr	r0, [sp, #64]                   @ 4-byte Reload
	.loc	7 28 23 is_stmt 1               @ ../MotorControl/open_loop_controller.cpp:28:23
	add.w	r1, r0, #76
	.loc	7 28 39 is_stmt 0               @ ../MotorControl/open_loop_controller.cpp:28:39
	str	r1, [sp, #60]                   @ 4-byte Spill
	add	r0, sp, #72
	str	r0, [sp, #56]                   @ 4-byte Spill
	bl	_ZN10OutputPortIfE8previousEv
	ldr	r1, [sp, #52]                   @ 4-byte Reload
	ldr	r0, [sp, #56]                   @ 4-byte Reload
	.loc	7 28 59                         @ ../MotorControl/open_loop_controller.cpp:28:59
	str	r1, [sp, #68]
	add	r1, sp, #68
	.loc	7 28 50                         @ ../MotorControl/open_loop_controller.cpp:28:50
	bl	_ZNOSt3__28optionalIfE8value_orB7v180000IfEEfOT_
	ldr	r0, [sp, #60]                   @ 4-byte Reload
	vmov.f32	s2, s0
	.loc	7 28 67                         @ ../MotorControl/open_loop_controller.cpp:28:67
	vldr	s0, [sp, #144]
	.loc	7 28 79                         @ ../MotorControl/open_loop_controller.cpp:28:79
	vldr	s4, [sp, #128]
	.loc	7 28 65                         @ ../MotorControl/open_loop_controller.cpp:28:65
	vmul.f32	s0, s0, s4
	vadd.f32	s0, s0, s2
	.loc	7 28 21                         @ ../MotorControl/open_loop_controller.cpp:28:21
	bl	_ZN10OutputPortIfEaSEf
	ldr	r1, [sp, #64]                   @ 4-byte Reload
	.loc	7 29 18 is_stmt 1               @ ../MotorControl/open_loop_controller.cpp:29:18
	ldr	r0, [sp, #248]
	.loc	7 29 16 is_stmt 0               @ ../MotorControl/open_loop_controller.cpp:29:16
	str	r0, [r1, #32]
	.loc	7 30 1 epilogue_begin is_stmt 1 @ ../MotorControl/open_loop_controller.cpp:30:1
	add	sp, #256
	pop	{r7, pc}
.Ltmp1:
	.p2align	2
@ %bb.1:
	.loc	7 0 1 is_stmt 0                 @ ../MotorControl/open_loop_controller.cpp:0:1
.LCPI0_0:
	.long	0x4d2037a0                      @ float 1.68E+8
.Lfunc_end0:
	.size	_ZN18OpenLoopController6updateEj, .Lfunc_end0-_ZN18OpenLoopController6updateEj
	.cfi_endproc
	.file	8 "D:\\ikingtec\\Robot\\ODrive\\Firmware\\MDK-ARM" "../MotorControl/open_loop_controller.hpp"
	.file	9 "D:\\Embed\\MDK\\MDK\\ARM\\ARMCompilerV621\\Bin\\..\\include" "stdint.h"
	.cantunwind
	.fnend
                                        @ -- End function
	.section	.text._ZN10OutputPortINSt3__24pairIffEEE8previousEv,"axG",%progbits,_ZN10OutputPortINSt3__24pairIffEEE8previousEv,comdat
	.hidden	_ZN10OutputPortINSt3__24pairIffEEE8previousEv @ -- Begin function _ZN10OutputPortINSt3__24pairIffEEE8previousEv
	.weak	_ZN10OutputPortINSt3__24pairIffEEE8previousEv
	.p2align	2
	.type	_ZN10OutputPortINSt3__24pairIffEEE8previousEv,%function
	.code	16                              @ @_ZN10OutputPortINSt3__24pairIffEEE8previousEv
	.thumb_func
_ZN10OutputPortINSt3__24pairIffEEE8previousEv:
.Lfunc_begin1:
	.file	10 "D:\\ikingtec\\Robot\\ODrive\\Firmware\\MDK-ARM" "../MotorControl/component.hpp"
	.loc	10 88 0 is_stmt 1               @ ../MotorControl/component.hpp:88:0
	.fnstart
	.cfi_startproc
@ %bb.0:
	.save	{r7, lr}
	push	{r7, lr}
	.cfi_def_cfa_offset 8
	.cfi_offset lr, -4
	.cfi_offset r7, -8
	.pad	#16
	sub	sp, #16
	.cfi_def_cfa_offset 24
	str	r0, [sp]                        @ 4-byte Spill
	str	r1, [sp, #12]
	ldr	r0, [sp, #12]
.Ltmp2:
	.loc	10 89 13 prologue_end           @ ../MotorControl/component.hpp:89:13
	str	r0, [sp, #4]                    @ 4-byte Spill
	ldr	r0, [r0]
.Ltmp3:
	.loc	10 89 13 is_stmt 0              @ ../MotorControl/component.hpp:89:13
	cmp	r0, #1
	bne	.LBB1_2
	b	.LBB1_1
.LBB1_1:
.Ltmp4:
	.loc	10 90 20 is_stmt 1              @ ../MotorControl/component.hpp:90:20
	ldr	r0, [sp]                        @ 4-byte Reload
	ldr	r1, [sp, #4]                    @ 4-byte Reload
	adds	r1, #4
	bl	_ZNSt3__28optionalINS_4pairIffEEEC2B7v180000IRS2_Li0EEEOT_
	.loc	10 90 13 is_stmt 0              @ ../MotorControl/component.hpp:90:13
	b	.LBB1_3
.Ltmp5:
.LBB1_2:
	.loc	10 92 20 is_stmt 1              @ ../MotorControl/component.hpp:92:20
	ldr	r0, [sp]                        @ 4-byte Reload
	bl	_ZNSt3__28optionalINS_4pairIffEEEC2B7v180000ENS_9nullopt_tE
	.loc	10 92 13 is_stmt 0              @ ../MotorControl/component.hpp:92:13
	b	.LBB1_3
.Ltmp6:
.LBB1_3:
	.loc	10 94 5 epilogue_begin is_stmt 1 @ ../MotorControl/component.hpp:94:5
	add	sp, #16
	pop	{r7, pc}
.Ltmp7:
.Lfunc_end1:
	.size	_ZN10OutputPortINSt3__24pairIffEEE8previousEv, .Lfunc_end1-_ZN10OutputPortINSt3__24pairIffEEE8previousEv
	.cfi_endproc
	.cantunwind
	.fnend
                                        @ -- End function
	.section	.text._ZNOSt3__28optionalINS_4pairIffEEE8value_orB7v180000IS2_EES2_OT_,"axG",%progbits,_ZNOSt3__28optionalINS_4pairIffEEE8value_orB7v180000IS2_EES2_OT_,comdat
	.hidden	_ZNOSt3__28optionalINS_4pairIffEEE8value_orB7v180000IS2_EES2_OT_ @ -- Begin function _ZNOSt3__28optionalINS_4pairIffEEE8value_orB7v180000IS2_EES2_OT_
	.weak	_ZNOSt3__28optionalINS_4pairIffEEE8value_orB7v180000IS2_EES2_OT_
	.p2align	2
	.type	_ZNOSt3__28optionalINS_4pairIffEEE8value_orB7v180000IS2_EES2_OT_,%function
	.code	16                              @ @_ZNOSt3__28optionalINS_4pairIffEEE8value_orB7v180000IS2_EES2_OT_
	.thumb_func
_ZNOSt3__28optionalINS_4pairIffEEE8value_orB7v180000IS2_EES2_OT_:
.Lfunc_begin2:
	.loc	3 1106 0                        @ D:\Embed\MDK\MDK\ARM\ARMCompilerV621\Bin\..\include\libcxx\optional:1106:0
	.fnstart
	.cfi_startproc
@ %bb.0:
	.save	{r7, lr}
	push	{r7, lr}
	.cfi_def_cfa_offset 8
	.cfi_offset lr, -4
	.cfi_offset r7, -8
	.pad	#24
	sub	sp, #24
	.cfi_def_cfa_offset 32
	str	r0, [sp, #12]
	str	r1, [sp, #8]
	ldr	r0, [sp, #12]
.Ltmp8:
	.loc	3 1111 22 prologue_end          @ D:\Embed\MDK\MDK\ARM\ARMCompilerV621\Bin\..\include\libcxx\optional:1111:22
	str	r0, [sp, #4]                    @ 4-byte Spill
	bl	_ZNKSt3__223__optional_storage_baseINS_4pairIffEELb0EE9has_valueB7v180000Ev
	.loc	3 1111 16 is_stmt 0             @ D:\Embed\MDK\MDK\ARM\ARMCompilerV621\Bin\..\include\libcxx\optional:1111:16
	cbz	r0, .LBB2_2
	b	.LBB2_1
.LBB2_1:
	.loc	3 1111 54                       @ D:\Embed\MDK\MDK\ARM\ARMCompilerV621\Bin\..\include\libcxx\optional:1111:54
	ldr	r0, [sp, #4]                    @ 4-byte Reload
	bl	_ZNRSt3__223__optional_storage_baseINS_4pairIffEELb0EE5__getB7v180000Ev
	mov	r1, r0
	.loc	3 1111 36                       @ D:\Embed\MDK\MDK\ARM\ARMCompilerV621\Bin\..\include\libcxx\optional:1111:36
	ldr	r0, [r1]
	ldr	r1, [r1, #4]
	str	r1, [sp, #20]
	str	r0, [sp, #16]
	.loc	3 1111 16                       @ D:\Embed\MDK\MDK\ARM\ARMCompilerV621\Bin\..\include\libcxx\optional:1111:16
	b	.LBB2_3
.LBB2_2:
	.loc	3 1112 79 is_stmt 1             @ D:\Embed\MDK\MDK\ARM\ARMCompilerV621\Bin\..\include\libcxx\optional:1112:79
	ldr	r1, [sp, #8]
	.loc	3 1112 35 is_stmt 0             @ D:\Embed\MDK\MDK\ARM\ARMCompilerV621\Bin\..\include\libcxx\optional:1112:35
	ldr	r0, [r1]
	ldr	r1, [r1, #4]
	str	r1, [sp, #20]
	str	r0, [sp, #16]
	.loc	3 1111 16 is_stmt 1             @ D:\Embed\MDK\MDK\ARM\ARMCompilerV621\Bin\..\include\libcxx\optional:1111:16
	b	.LBB2_3
.LBB2_3:
	.loc	3 1111 9 is_stmt 0              @ D:\Embed\MDK\MDK\ARM\ARMCompilerV621\Bin\..\include\libcxx\optional:1111:9
	vldr	s0, [sp, #16]
	vldr	s1, [sp, #20]
	.loc	3 1111 9 epilogue_begin         @ D:\Embed\MDK\MDK\ARM\ARMCompilerV621\Bin\..\include\libcxx\optional:1111:9
	add	sp, #24
	pop	{r7, pc}
.Ltmp9:
.Lfunc_end2:
	.size	_ZNOSt3__28optionalINS_4pairIffEEE8value_orB7v180000IS2_EES2_OT_, .Lfunc_end2-_ZNOSt3__28optionalINS_4pairIffEEE8value_orB7v180000IS2_EES2_OT_
	.cfi_endproc
	.cantunwind
	.fnend
                                        @ -- End function
	.section	.text._ZNSt3__24pairIffEC2B7v180000IffLi0EEEOT_OT0_,"axG",%progbits,_ZNSt3__24pairIffEC2B7v180000IffLi0EEEOT_OT0_,comdat
	.hidden	_ZNSt3__24pairIffEC2B7v180000IffLi0EEEOT_OT0_ @ -- Begin function _ZNSt3__24pairIffEC2B7v180000IffLi0EEEOT_OT0_
	.weak	_ZNSt3__24pairIffEC2B7v180000IffLi0EEEOT_OT0_
	.p2align	2
	.type	_ZNSt3__24pairIffEC2B7v180000IffLi0EEEOT_OT0_,%function
	.code	16                              @ @_ZNSt3__24pairIffEC2B7v180000IffLi0EEEOT_OT0_
	.thumb_func
_ZNSt3__24pairIffEC2B7v180000IffLi0EEEOT_OT0_:
.Lfunc_begin3:
	.loc	4 222 0 is_stmt 1               @ D:\Embed\MDK\MDK\ARM\ARMCompilerV621\Bin\..\include\libcxx\__utility/pair.h:222:0
	.fnstart
	.cfi_startproc
@ %bb.0:
	.pad	#12
	sub	sp, #12
	.cfi_def_cfa_offset 12
	str	r0, [sp, #8]
	str	r1, [sp, #4]
	str	r2, [sp]
	ldr	r0, [sp, #8]
.Ltmp10:
	.loc	4 222 35 prologue_end           @ D:\Embed\MDK\MDK\ARM\ARMCompilerV621\Bin\..\include\libcxx\__utility/pair.h:222:35
	ldr	r1, [sp, #4]
	.loc	4 222 17 is_stmt 0              @ D:\Embed\MDK\MDK\ARM\ARMCompilerV621\Bin\..\include\libcxx\__utility/pair.h:222:17
	ldr	r1, [r1]
	.loc	4 222 11                        @ D:\Embed\MDK\MDK\ARM\ARMCompilerV621\Bin\..\include\libcxx\__utility/pair.h:222:11
	str	r1, [r0]
	.loc	4 222 68                        @ D:\Embed\MDK\MDK\ARM\ARMCompilerV621\Bin\..\include\libcxx\__utility/pair.h:222:68
	ldr	r1, [sp]
	.loc	4 222 50                        @ D:\Embed\MDK\MDK\ARM\ARMCompilerV621\Bin\..\include\libcxx\__utility/pair.h:222:50
	ldr	r1, [r1]
	.loc	4 222 43                        @ D:\Embed\MDK\MDK\ARM\ARMCompilerV621\Bin\..\include\libcxx\__utility/pair.h:222:43
	str	r1, [r0, #4]
	.loc	4 222 76 epilogue_begin         @ D:\Embed\MDK\MDK\ARM\ARMCompilerV621\Bin\..\include\libcxx\__utility/pair.h:222:76
	add	sp, #12
	bx	lr
.Ltmp11:
.Lfunc_end3:
	.size	_ZNSt3__24pairIffEC2B7v180000IffLi0EEEOT_OT0_, .Lfunc_end3-_ZNSt3__24pairIffEC2B7v180000IffLi0EEEOT_OT0_
	.cfi_endproc
	.cantunwind
	.fnend
                                        @ -- End function
	.section	.text._ZNSt3__23getB7v180000ILj0EffEEONS_13tuple_elementIXT_ENS_4pairIT0_T1_EEE4typeEOS5_,"axG",%progbits,_ZNSt3__23getB7v180000ILj0EffEEONS_13tuple_elementIXT_ENS_4pairIT0_T1_EEE4typeEOS5_,comdat
	.hidden	_ZNSt3__23getB7v180000ILj0EffEEONS_13tuple_elementIXT_ENS_4pairIT0_T1_EEE4typeEOS5_ @ -- Begin function _ZNSt3__23getB7v180000ILj0EffEEONS_13tuple_elementIXT_ENS_4pairIT0_T1_EEE4typeEOS5_
	.weak	_ZNSt3__23getB7v180000ILj0EffEEONS_13tuple_elementIXT_ENS_4pairIT0_T1_EEE4typeEOS5_
	.p2align	2
	.type	_ZNSt3__23getB7v180000ILj0EffEEONS_13tuple_elementIXT_ENS_4pairIT0_T1_EEE4typeEOS5_,%function
	.code	16                              @ @_ZNSt3__23getB7v180000ILj0EffEEONS_13tuple_elementIXT_ENS_4pairIT0_T1_EEE4typeEOS5_
	.thumb_func
_ZNSt3__23getB7v180000ILj0EffEEONS_13tuple_elementIXT_ENS_4pairIT0_T1_EEE4typeEOS5_:
.Lfunc_begin4:
	.loc	4 808 0 is_stmt 1               @ D:\Embed\MDK\MDK\ARM\ARMCompilerV621\Bin\..\include\libcxx\__utility/pair.h:808:0
	.fnstart
	.cfi_startproc
@ %bb.0:
	.save	{r7, lr}
	push	{r7, lr}
	.cfi_def_cfa_offset 8
	.cfi_offset lr, -4
	.cfi_offset r7, -8
	.pad	#8
	sub	sp, #8
	.cfi_def_cfa_offset 16
	str	r0, [sp, #4]
.Ltmp12:
	.loc	4 809 43 prologue_end           @ D:\Embed\MDK\MDK\ARM\ARMCompilerV621\Bin\..\include\libcxx\__utility/pair.h:809:43
	ldr	r0, [sp, #4]
	.loc	4 809 12 is_stmt 0              @ D:\Embed\MDK\MDK\ARM\ARMCompilerV621\Bin\..\include\libcxx\__utility/pair.h:809:12
	bl	_ZNSt3__210__get_pairILj0EE3getB7v180000IffEEOT_ONS_4pairIS3_T0_EE
	.loc	4 809 5 epilogue_begin          @ D:\Embed\MDK\MDK\ARM\ARMCompilerV621\Bin\..\include\libcxx\__utility/pair.h:809:5
	add	sp, #8
	pop	{r7, pc}
.Ltmp13:
.Lfunc_end4:
	.size	_ZNSt3__23getB7v180000ILj0EffEEONS_13tuple_elementIXT_ENS_4pairIT0_T1_EEE4typeEOS5_, .Lfunc_end4-_ZNSt3__23getB7v180000ILj0EffEEONS_13tuple_elementIXT_ENS_4pairIT0_T1_EEE4typeEOS5_
	.cfi_endproc
	.cantunwind
	.fnend
                                        @ -- End function
	.section	.text._ZNSt3__23getB7v180000ILj1EffEEONS_13tuple_elementIXT_ENS_4pairIT0_T1_EEE4typeEOS5_,"axG",%progbits,_ZNSt3__23getB7v180000ILj1EffEEONS_13tuple_elementIXT_ENS_4pairIT0_T1_EEE4typeEOS5_,comdat
	.hidden	_ZNSt3__23getB7v180000ILj1EffEEONS_13tuple_elementIXT_ENS_4pairIT0_T1_EEE4typeEOS5_ @ -- Begin function _ZNSt3__23getB7v180000ILj1EffEEONS_13tuple_elementIXT_ENS_4pairIT0_T1_EEE4typeEOS5_
	.weak	_ZNSt3__23getB7v180000ILj1EffEEONS_13tuple_elementIXT_ENS_4pairIT0_T1_EEE4typeEOS5_
	.p2align	2
	.type	_ZNSt3__23getB7v180000ILj1EffEEONS_13tuple_elementIXT_ENS_4pairIT0_T1_EEE4typeEOS5_,%function
	.code	16                              @ @_ZNSt3__23getB7v180000ILj1EffEEONS_13tuple_elementIXT_ENS_4pairIT0_T1_EEE4typeEOS5_
	.thumb_func
_ZNSt3__23getB7v180000ILj1EffEEONS_13tuple_elementIXT_ENS_4pairIT0_T1_EEE4typeEOS5_:
.Lfunc_begin5:
	.loc	4 808 0 is_stmt 1               @ D:\Embed\MDK\MDK\ARM\ARMCompilerV621\Bin\..\include\libcxx\__utility/pair.h:808:0
	.fnstart
	.cfi_startproc
@ %bb.0:
	.save	{r7, lr}
	push	{r7, lr}
	.cfi_def_cfa_offset 8
	.cfi_offset lr, -4
	.cfi_offset r7, -8
	.pad	#8
	sub	sp, #8
	.cfi_def_cfa_offset 16
	str	r0, [sp, #4]
.Ltmp14:
	.loc	4 809 43 prologue_end           @ D:\Embed\MDK\MDK\ARM\ARMCompilerV621\Bin\..\include\libcxx\__utility/pair.h:809:43
	ldr	r0, [sp, #4]
	.loc	4 809 12 is_stmt 0              @ D:\Embed\MDK\MDK\ARM\ARMCompilerV621\Bin\..\include\libcxx\__utility/pair.h:809:12
	bl	_ZNSt3__210__get_pairILj1EE3getB7v180000IffEEOT0_ONS_4pairIT_S3_EE
	.loc	4 809 5 epilogue_begin          @ D:\Embed\MDK\MDK\ARM\ARMCompilerV621\Bin\..\include\libcxx\__utility/pair.h:809:5
	add	sp, #8
	pop	{r7, pc}
.Ltmp15:
.Lfunc_end5:
	.size	_ZNSt3__23getB7v180000ILj1EffEEONS_13tuple_elementIXT_ENS_4pairIT0_T1_EEE4typeEOS5_, .Lfunc_end5-_ZNSt3__23getB7v180000ILj1EffEEONS_13tuple_elementIXT_ENS_4pairIT0_T1_EEE4typeEOS5_
	.cfi_endproc
	.cantunwind
	.fnend
                                        @ -- End function
	.section	.text._ZN10OutputPortIfE8previousEv,"axG",%progbits,_ZN10OutputPortIfE8previousEv,comdat
	.hidden	_ZN10OutputPortIfE8previousEv   @ -- Begin function _ZN10OutputPortIfE8previousEv
	.weak	_ZN10OutputPortIfE8previousEv
	.p2align	2
	.type	_ZN10OutputPortIfE8previousEv,%function
	.code	16                              @ @_ZN10OutputPortIfE8previousEv
	.thumb_func
_ZN10OutputPortIfE8previousEv:
.Lfunc_begin6:
	.loc	10 88 0 is_stmt 1               @ ../MotorControl/component.hpp:88:0
	.fnstart
	.cfi_startproc
@ %bb.0:
	.save	{r7, lr}
	push	{r7, lr}
	.cfi_def_cfa_offset 8
	.cfi_offset lr, -4
	.cfi_offset r7, -8
	.pad	#16
	sub	sp, #16
	.cfi_def_cfa_offset 24
	str	r0, [sp]                        @ 4-byte Spill
	str	r1, [sp, #12]
	ldr	r0, [sp, #12]
.Ltmp16:
	.loc	10 89 13 prologue_end           @ ../MotorControl/component.hpp:89:13
	str	r0, [sp, #4]                    @ 4-byte Spill
	ldr	r0, [r0]
.Ltmp17:
	.loc	10 89 13 is_stmt 0              @ ../MotorControl/component.hpp:89:13
	cmp	r0, #1
	bne	.LBB6_2
	b	.LBB6_1
.LBB6_1:
.Ltmp18:
	.loc	10 90 20 is_stmt 1              @ ../MotorControl/component.hpp:90:20
	ldr	r0, [sp]                        @ 4-byte Reload
	ldr	r1, [sp, #4]                    @ 4-byte Reload
	adds	r1, #4
	bl	_ZNSt3__28optionalIfEC2B7v180000IRfLi0EEEOT_
	.loc	10 90 13 is_stmt 0              @ ../MotorControl/component.hpp:90:13
	b	.LBB6_3
.Ltmp19:
.LBB6_2:
	.loc	10 92 20 is_stmt 1              @ ../MotorControl/component.hpp:92:20
	ldr	r0, [sp]                        @ 4-byte Reload
	bl	_ZNSt3__28optionalIfEC2B7v180000ENS_9nullopt_tE
	.loc	10 92 13 is_stmt 0              @ ../MotorControl/component.hpp:92:13
	b	.LBB6_3
.Ltmp20:
.LBB6_3:
	.loc	10 94 5 epilogue_begin is_stmt 1 @ ../MotorControl/component.hpp:94:5
	add	sp, #16
	pop	{r7, pc}
.Ltmp21:
.Lfunc_end6:
	.size	_ZN10OutputPortIfE8previousEv, .Lfunc_end6-_ZN10OutputPortIfE8previousEv
	.cfi_endproc
	.cantunwind
	.fnend
                                        @ -- End function
	.section	.text._ZNOSt3__28optionalIfE8value_orB7v180000IRfEEfOT_,"axG",%progbits,_ZNOSt3__28optionalIfE8value_orB7v180000IRfEEfOT_,comdat
	.hidden	_ZNOSt3__28optionalIfE8value_orB7v180000IRfEEfOT_ @ -- Begin function _ZNOSt3__28optionalIfE8value_orB7v180000IRfEEfOT_
	.weak	_ZNOSt3__28optionalIfE8value_orB7v180000IRfEEfOT_
	.p2align	2
	.type	_ZNOSt3__28optionalIfE8value_orB7v180000IRfEEfOT_,%function
	.code	16                              @ @_ZNOSt3__28optionalIfE8value_orB7v180000IRfEEfOT_
	.thumb_func
_ZNOSt3__28optionalIfE8value_orB7v180000IRfEEfOT_:
.Lfunc_begin7:
	.loc	3 1106 0                        @ D:\Embed\MDK\MDK\ARM\ARMCompilerV621\Bin\..\include\libcxx\optional:1106:0
	.fnstart
	.cfi_startproc
@ %bb.0:
	.save	{r7, lr}
	push	{r7, lr}
	.cfi_def_cfa_offset 8
	.cfi_offset lr, -4
	.cfi_offset r7, -8
	.pad	#16
	sub	sp, #16
	.cfi_def_cfa_offset 24
	str	r0, [sp, #12]
	str	r1, [sp, #8]
	ldr	r0, [sp, #12]
.Ltmp22:
	.loc	3 1111 22 prologue_end          @ D:\Embed\MDK\MDK\ARM\ARMCompilerV621\Bin\..\include\libcxx\optional:1111:22
	str	r0, [sp, #4]                    @ 4-byte Spill
	bl	_ZNKSt3__223__optional_storage_baseIfLb0EE9has_valueB7v180000Ev
	.loc	3 1111 16 is_stmt 0             @ D:\Embed\MDK\MDK\ARM\ARMCompilerV621\Bin\..\include\libcxx\optional:1111:16
	cbz	r0, .LBB7_2
	b	.LBB7_1
.LBB7_1:
	.loc	3 1111 54                       @ D:\Embed\MDK\MDK\ARM\ARMCompilerV621\Bin\..\include\libcxx\optional:1111:54
	ldr	r0, [sp, #4]                    @ 4-byte Reload
	bl	_ZNRSt3__223__optional_storage_baseIfLb0EE5__getB7v180000Ev
	.loc	3 1111 36                       @ D:\Embed\MDK\MDK\ARM\ARMCompilerV621\Bin\..\include\libcxx\optional:1111:36
	vldr	s0, [r0]
	vstr	s0, [sp]                        @ 4-byte Spill
	.loc	3 1111 16                       @ D:\Embed\MDK\MDK\ARM\ARMCompilerV621\Bin\..\include\libcxx\optional:1111:16
	b	.LBB7_3
.LBB7_2:
	.loc	3 1112 79 is_stmt 1             @ D:\Embed\MDK\MDK\ARM\ARMCompilerV621\Bin\..\include\libcxx\optional:1112:79
	ldr	r0, [sp, #8]
	.loc	3 1112 59 is_stmt 0             @ D:\Embed\MDK\MDK\ARM\ARMCompilerV621\Bin\..\include\libcxx\optional:1112:59
	vldr	s0, [r0]
	vstr	s0, [sp]                        @ 4-byte Spill
	.loc	3 1111 16 is_stmt 1             @ D:\Embed\MDK\MDK\ARM\ARMCompilerV621\Bin\..\include\libcxx\optional:1111:16
	b	.LBB7_3
.LBB7_3:
	vldr	s0, [sp]                        @ 4-byte Reload
	.loc	3 1111 9 epilogue_begin is_stmt 0 @ D:\Embed\MDK\MDK\ARM\ARMCompilerV621\Bin\..\include\libcxx\optional:1111:9
	add	sp, #16
	pop	{r7, pc}
.Ltmp23:
.Lfunc_end7:
	.size	_ZNOSt3__28optionalIfE8value_orB7v180000IRfEEfOT_, .Lfunc_end7-_ZNOSt3__28optionalIfE8value_orB7v180000IRfEEfOT_
	.cfi_endproc
	.cantunwind
	.fnend
                                        @ -- End function
	.section	.text._ZNOSt3__28optionalIfE8value_orB7v180000IfEEfOT_,"axG",%progbits,_ZNOSt3__28optionalIfE8value_orB7v180000IfEEfOT_,comdat
	.hidden	_ZNOSt3__28optionalIfE8value_orB7v180000IfEEfOT_ @ -- Begin function _ZNOSt3__28optionalIfE8value_orB7v180000IfEEfOT_
	.weak	_ZNOSt3__28optionalIfE8value_orB7v180000IfEEfOT_
	.p2align	2
	.type	_ZNOSt3__28optionalIfE8value_orB7v180000IfEEfOT_,%function
	.code	16                              @ @_ZNOSt3__28optionalIfE8value_orB7v180000IfEEfOT_
	.thumb_func
_ZNOSt3__28optionalIfE8value_orB7v180000IfEEfOT_:
.Lfunc_begin8:
	.loc	3 1106 0 is_stmt 1              @ D:\Embed\MDK\MDK\ARM\ARMCompilerV621\Bin\..\include\libcxx\optional:1106:0
	.fnstart
	.cfi_startproc
@ %bb.0:
	.save	{r7, lr}
	push	{r7, lr}
	.cfi_def_cfa_offset 8
	.cfi_offset lr, -4
	.cfi_offset r7, -8
	.pad	#16
	sub	sp, #16
	.cfi_def_cfa_offset 24
	str	r0, [sp, #12]
	str	r1, [sp, #8]
	ldr	r0, [sp, #12]
.Ltmp24:
	.loc	3 1111 22 prologue_end          @ D:\Embed\MDK\MDK\ARM\ARMCompilerV621\Bin\..\include\libcxx\optional:1111:22
	str	r0, [sp, #4]                    @ 4-byte Spill
	bl	_ZNKSt3__223__optional_storage_baseIfLb0EE9has_valueB7v180000Ev
	.loc	3 1111 16 is_stmt 0             @ D:\Embed\MDK\MDK\ARM\ARMCompilerV621\Bin\..\include\libcxx\optional:1111:16
	cbz	r0, .LBB8_2
	b	.LBB8_1
.LBB8_1:
	.loc	3 1111 54                       @ D:\Embed\MDK\MDK\ARM\ARMCompilerV621\Bin\..\include\libcxx\optional:1111:54
	ldr	r0, [sp, #4]                    @ 4-byte Reload
	bl	_ZNRSt3__223__optional_storage_baseIfLb0EE5__getB7v180000Ev
	.loc	3 1111 36                       @ D:\Embed\MDK\MDK\ARM\ARMCompilerV621\Bin\..\include\libcxx\optional:1111:36
	vldr	s0, [r0]
	vstr	s0, [sp]                        @ 4-byte Spill
	.loc	3 1111 16                       @ D:\Embed\MDK\MDK\ARM\ARMCompilerV621\Bin\..\include\libcxx\optional:1111:16
	b	.LBB8_3
.LBB8_2:
	.loc	3 1112 79 is_stmt 1             @ D:\Embed\MDK\MDK\ARM\ARMCompilerV621\Bin\..\include\libcxx\optional:1112:79
	ldr	r0, [sp, #8]
	.loc	3 1112 59 is_stmt 0             @ D:\Embed\MDK\MDK\ARM\ARMCompilerV621\Bin\..\include\libcxx\optional:1112:59
	vldr	s0, [r0]
	vstr	s0, [sp]                        @ 4-byte Spill
	.loc	3 1111 16 is_stmt 1             @ D:\Embed\MDK\MDK\ARM\ARMCompilerV621\Bin\..\include\libcxx\optional:1111:16
	b	.LBB8_3
.LBB8_3:
	vldr	s0, [sp]                        @ 4-byte Reload
	.loc	3 1111 9 epilogue_begin is_stmt 0 @ D:\Embed\MDK\MDK\ARM\ARMCompilerV621\Bin\..\include\libcxx\optional:1111:9
	add	sp, #16
	pop	{r7, pc}
.Ltmp25:
.Lfunc_end8:
	.size	_ZNOSt3__28optionalIfE8value_orB7v180000IfEEfOT_, .Lfunc_end8-_ZNOSt3__28optionalIfE8value_orB7v180000IfEEfOT_
	.cfi_endproc
	.cantunwind
	.fnend
                                        @ -- End function
	.section	.text._ZNSt3__25clampB7v180000IfEERKT_S3_S3_S3_,"axG",%progbits,_ZNSt3__25clampB7v180000IfEERKT_S3_S3_S3_,comdat
	.hidden	_ZNSt3__25clampB7v180000IfEERKT_S3_S3_S3_ @ -- Begin function _ZNSt3__25clampB7v180000IfEERKT_S3_S3_S3_
	.weak	_ZNSt3__25clampB7v180000IfEERKT_S3_S3_S3_
	.p2align	2
	.type	_ZNSt3__25clampB7v180000IfEERKT_S3_S3_S3_,%function
	.code	16                              @ @_ZNSt3__25clampB7v180000IfEERKT_S3_S3_S3_
	.thumb_func
_ZNSt3__25clampB7v180000IfEERKT_S3_S3_S3_:
.Lfunc_begin9:
	.file	11 "D:\\Embed\\MDK\\MDK\\ARM\\ARMCompilerV621\\Bin\\..\\include\\libcxx\\__algorithm" "clamp.h"
	.loc	11 37 0 is_stmt 1               @ D:\Embed\MDK\MDK\ARM\ARMCompilerV621\Bin\..\include\libcxx\__algorithm/clamp.h:37:0
	.fnstart
	.cfi_startproc
@ %bb.0:
	.save	{r7, lr}
	push	{r7, lr}
	.cfi_def_cfa_offset 8
	.cfi_offset lr, -4
	.cfi_offset r7, -8
	.pad	#16
	sub	sp, #16
	.cfi_def_cfa_offset 24
	str	r0, [sp, #12]
	str	r1, [sp, #8]
	str	r2, [sp, #4]
.Ltmp26:
	.loc	11 38 23 prologue_end           @ D:\Embed\MDK\MDK\ARM\ARMCompilerV621\Bin\..\include\libcxx\__algorithm/clamp.h:38:23
	ldr	r0, [sp, #12]
	.loc	11 38 28 is_stmt 0              @ D:\Embed\MDK\MDK\ARM\ARMCompilerV621\Bin\..\include\libcxx\__algorithm/clamp.h:38:28
	ldr	r1, [sp, #8]
	.loc	11 38 34                        @ D:\Embed\MDK\MDK\ARM\ARMCompilerV621\Bin\..\include\libcxx\__algorithm/clamp.h:38:34
	ldr	r2, [sp, #4]
	.loc	11 38 10                        @ D:\Embed\MDK\MDK\ARM\ARMCompilerV621\Bin\..\include\libcxx\__algorithm/clamp.h:38:10
	bl	_ZNSt3__25clampB7v180000IfNS_6__lessIvvEEEERKT_S5_S5_S5_T0_
	.loc	11 38 3 epilogue_begin          @ D:\Embed\MDK\MDK\ARM\ARMCompilerV621\Bin\..\include\libcxx\__algorithm/clamp.h:38:3
	add	sp, #16
	pop	{r7, pc}
.Ltmp27:
.Lfunc_end9:
	.size	_ZNSt3__25clampB7v180000IfEERKT_S3_S3_S3_, .Lfunc_end9-_ZNSt3__25clampB7v180000IfEERKT_S3_S3_S3_
	.cfi_endproc
	.cantunwind
	.fnend
                                        @ -- End function
	.section	.text._ZNSt3__24pairIffEC2B7v180000IRKffLi0EEEOT_OT0_,"axG",%progbits,_ZNSt3__24pairIffEC2B7v180000IRKffLi0EEEOT_OT0_,comdat
	.hidden	_ZNSt3__24pairIffEC2B7v180000IRKffLi0EEEOT_OT0_ @ -- Begin function _ZNSt3__24pairIffEC2B7v180000IRKffLi0EEEOT_OT0_
	.weak	_ZNSt3__24pairIffEC2B7v180000IRKffLi0EEEOT_OT0_
	.p2align	2
	.type	_ZNSt3__24pairIffEC2B7v180000IRKffLi0EEEOT_OT0_,%function
	.code	16                              @ @_ZNSt3__24pairIffEC2B7v180000IRKffLi0EEEOT_OT0_
	.thumb_func
_ZNSt3__24pairIffEC2B7v180000IRKffLi0EEEOT_OT0_:
.Lfunc_begin10:
	.loc	4 222 0 is_stmt 1               @ D:\Embed\MDK\MDK\ARM\ARMCompilerV621\Bin\..\include\libcxx\__utility/pair.h:222:0
	.fnstart
	.cfi_startproc
@ %bb.0:
	.pad	#12
	sub	sp, #12
	.cfi_def_cfa_offset 12
	str	r0, [sp, #8]
	str	r1, [sp, #4]
	str	r2, [sp]
	ldr	r0, [sp, #8]
.Ltmp28:
	.loc	4 222 35 prologue_end           @ D:\Embed\MDK\MDK\ARM\ARMCompilerV621\Bin\..\include\libcxx\__utility/pair.h:222:35
	ldr	r1, [sp, #4]
	.loc	4 222 17 is_stmt 0              @ D:\Embed\MDK\MDK\ARM\ARMCompilerV621\Bin\..\include\libcxx\__utility/pair.h:222:17
	ldr	r1, [r1]
	.loc	4 222 11                        @ D:\Embed\MDK\MDK\ARM\ARMCompilerV621\Bin\..\include\libcxx\__utility/pair.h:222:11
	str	r1, [r0]
	.loc	4 222 68                        @ D:\Embed\MDK\MDK\ARM\ARMCompilerV621\Bin\..\include\libcxx\__utility/pair.h:222:68
	ldr	r1, [sp]
	.loc	4 222 50                        @ D:\Embed\MDK\MDK\ARM\ARMCompilerV621\Bin\..\include\libcxx\__utility/pair.h:222:50
	ldr	r1, [r1]
	.loc	4 222 43                        @ D:\Embed\MDK\MDK\ARM\ARMCompilerV621\Bin\..\include\libcxx\__utility/pair.h:222:43
	str	r1, [r0, #4]
	.loc	4 222 76 epilogue_begin         @ D:\Embed\MDK\MDK\ARM\ARMCompilerV621\Bin\..\include\libcxx\__utility/pair.h:222:76
	add	sp, #12
	bx	lr
.Ltmp29:
.Lfunc_end10:
	.size	_ZNSt3__24pairIffEC2B7v180000IRKffLi0EEEOT_OT0_, .Lfunc_end10-_ZNSt3__24pairIffEC2B7v180000IRKffLi0EEEOT_OT0_
	.cfi_endproc
	.cantunwind
	.fnend
                                        @ -- End function
	.section	.text._ZN10OutputPortINSt3__24pairIffEEEaSES2_,"axG",%progbits,_ZN10OutputPortINSt3__24pairIffEEEaSES2_,comdat
	.hidden	_ZN10OutputPortINSt3__24pairIffEEEaSES2_ @ -- Begin function _ZN10OutputPortINSt3__24pairIffEEEaSES2_
	.weak	_ZN10OutputPortINSt3__24pairIffEEEaSES2_
	.p2align	2
	.type	_ZN10OutputPortINSt3__24pairIffEEEaSES2_,%function
	.code	16                              @ @_ZN10OutputPortINSt3__24pairIffEEEaSES2_
	.thumb_func
_ZN10OutputPortINSt3__24pairIffEEEaSES2_:
.Lfunc_begin11:
	.loc	10 52 0 is_stmt 1               @ ../MotorControl/component.hpp:52:0
	.fnstart
	.cfi_startproc
@ %bb.0:
	.save	{r7, lr}
	push	{r7, lr}
	.cfi_def_cfa_offset 8
	.cfi_offset lr, -4
	.cfi_offset r7, -8
	.pad	#16
	sub	sp, #16
	.cfi_def_cfa_offset 24
                                        @ kill: def $s2 killed $s1
                                        @ kill: def $s2 killed $s0
	vstr	s1, [sp, #12]
	vstr	s0, [sp, #8]
	str	r0, [sp, #4]
	ldr	r0, [sp, #4]
.Ltmp30:
	.loc	10 53 9 prologue_end            @ ../MotorControl/component.hpp:53:9
	str	r0, [sp]                        @ 4-byte Spill
	adds	r0, #4
	add	r1, sp, #8
	.loc	10 53 18 is_stmt 0              @ ../MotorControl/component.hpp:53:18
	bl	_ZNSt3__24pairIffEaSB7v180000ERKS1_
	ldr	r1, [sp]                        @ 4-byte Reload
	movs	r0, #0
	.loc	10 54 14 is_stmt 1              @ ../MotorControl/component.hpp:54:14
	str	r0, [r1]
	.loc	10 55 5 epilogue_begin          @ ../MotorControl/component.hpp:55:5
	add	sp, #16
	pop	{r7, pc}
.Ltmp31:
.Lfunc_end11:
	.size	_ZN10OutputPortINSt3__24pairIffEEEaSES2_, .Lfunc_end11-_ZN10OutputPortINSt3__24pairIffEEEaSES2_
	.cfi_endproc
	.cantunwind
	.fnend
                                        @ -- End function
	.section	.text._ZN10OutputPortIfEaSEf,"axG",%progbits,_ZN10OutputPortIfEaSEf,comdat
	.hidden	_ZN10OutputPortIfEaSEf          @ -- Begin function _ZN10OutputPortIfEaSEf
	.weak	_ZN10OutputPortIfEaSEf
	.p2align	2
	.type	_ZN10OutputPortIfEaSEf,%function
	.code	16                              @ @_ZN10OutputPortIfEaSEf
	.thumb_func
_ZN10OutputPortIfEaSEf:
.Lfunc_begin12:
	.loc	10 52 0                         @ ../MotorControl/component.hpp:52:0
	.fnstart
	.cfi_startproc
@ %bb.0:
	.pad	#8
	sub	sp, #8
	.cfi_def_cfa_offset 8
	str	r0, [sp, #4]
	vstr	s0, [sp]
	ldr	r1, [sp, #4]
.Ltmp32:
	.loc	10 53 20 prologue_end           @ ../MotorControl/component.hpp:53:20
	ldr	r0, [sp]
	.loc	10 53 18 is_stmt 0              @ ../MotorControl/component.hpp:53:18
	str	r0, [r1, #4]
	movs	r0, #0
	.loc	10 54 14 is_stmt 1              @ ../MotorControl/component.hpp:54:14
	str	r0, [r1]
	.loc	10 55 5 epilogue_begin          @ ../MotorControl/component.hpp:55:5
	add	sp, #8
	bx	lr
.Ltmp33:
.Lfunc_end12:
	.size	_ZN10OutputPortIfEaSEf, .Lfunc_end12-_ZN10OutputPortIfEaSEf
	.cfi_endproc
	.cantunwind
	.fnend
                                        @ -- End function
	.section	.text._Z10wrap_pm_pif,"axG",%progbits,_Z10wrap_pm_pif,comdat
	.hidden	_Z10wrap_pm_pif                 @ -- Begin function _Z10wrap_pm_pif
	.weak	_Z10wrap_pm_pif
	.p2align	2
	.type	_Z10wrap_pm_pif,%function
	.code	16                              @ @_Z10wrap_pm_pif
	.thumb_func
_Z10wrap_pm_pif:
.Lfunc_begin13:
	.loc	1 139 0                         @ ../../Firmware\MotorControl/utils.hpp:139:0
	.fnstart
	.cfi_startproc
@ %bb.0:
	.save	{r7, lr}
	push	{r7, lr}
	.cfi_def_cfa_offset 8
	.cfi_offset lr, -4
	.cfi_offset r7, -8
	.pad	#8
	sub	sp, #8
	.cfi_def_cfa_offset 16
	vstr	s0, [sp, #4]
.Ltmp34:
	.loc	1 140 20 prologue_end           @ ../../Firmware\MotorControl/utils.hpp:140:20
	vldr	s0, [sp, #4]
	vldr	s1, .LCPI13_0
	.loc	1 140 12 is_stmt 0              @ ../../Firmware\MotorControl/utils.hpp:140:12
	bl	_Z7wrap_pmff
	.loc	1 140 5 epilogue_begin          @ ../../Firmware\MotorControl/utils.hpp:140:5
	add	sp, #8
	pop	{r7, pc}
.Ltmp35:
	.p2align	2
@ %bb.1:
	.loc	1 0 5                           @ ../../Firmware\MotorControl/utils.hpp:0:5
.LCPI13_0:
	.long	0x40c90fdb                      @ float 6.28318548
.Lfunc_end13:
	.size	_Z10wrap_pm_pif, .Lfunc_end13-_Z10wrap_pm_pif
	.cfi_endproc
	.cantunwind
	.fnend
                                        @ -- End function
	.section	.text._ZNKSt3__223__optional_storage_baseINS_4pairIffEELb0EE9has_valueB7v180000Ev,"axG",%progbits,_ZNKSt3__223__optional_storage_baseINS_4pairIffEELb0EE9has_valueB7v180000Ev,comdat
	.hidden	_ZNKSt3__223__optional_storage_baseINS_4pairIffEELb0EE9has_valueB7v180000Ev @ -- Begin function _ZNKSt3__223__optional_storage_baseINS_4pairIffEELb0EE9has_valueB7v180000Ev
	.weak	_ZNKSt3__223__optional_storage_baseINS_4pairIffEELb0EE9has_valueB7v180000Ev
	.p2align	2
	.type	_ZNKSt3__223__optional_storage_baseINS_4pairIffEELb0EE9has_valueB7v180000Ev,%function
	.code	16                              @ @_ZNKSt3__223__optional_storage_baseINS_4pairIffEELb0EE9has_valueB7v180000Ev
	.thumb_func
_ZNKSt3__223__optional_storage_baseINS_4pairIffEELb0EE9has_valueB7v180000Ev:
.Lfunc_begin14:
	.loc	3 386 0 is_stmt 1               @ D:\Embed\MDK\MDK\ARM\ARMCompilerV621\Bin\..\include\libcxx\optional:386:0
	.fnstart
	.cfi_startproc
@ %bb.0:
	.pad	#4
	sub	sp, #4
	.cfi_def_cfa_offset 4
	str	r0, [sp]
	ldr	r0, [sp]
.Ltmp36:
	.loc	3 387 9 prologue_end            @ D:\Embed\MDK\MDK\ARM\ARMCompilerV621\Bin\..\include\libcxx\optional:387:9
	ldrb	r0, [r0, #8]
	and	r0, r0, #1
	.loc	3 387 9 epilogue_begin is_stmt 0 @ D:\Embed\MDK\MDK\ARM\ARMCompilerV621\Bin\..\include\libcxx\optional:387:9
	add	sp, #4
	bx	lr
.Ltmp37:
.Lfunc_end14:
	.size	_ZNKSt3__223__optional_storage_baseINS_4pairIffEELb0EE9has_valueB7v180000Ev, .Lfunc_end14-_ZNKSt3__223__optional_storage_baseINS_4pairIffEELb0EE9has_valueB7v180000Ev
	.cfi_endproc
	.cantunwind
	.fnend
                                        @ -- End function
	.section	.text._ZNRSt3__223__optional_storage_baseINS_4pairIffEELb0EE5__getB7v180000Ev,"axG",%progbits,_ZNRSt3__223__optional_storage_baseINS_4pairIffEELb0EE5__getB7v180000Ev,comdat
	.hidden	_ZNRSt3__223__optional_storage_baseINS_4pairIffEELb0EE5__getB7v180000Ev @ -- Begin function _ZNRSt3__223__optional_storage_baseINS_4pairIffEELb0EE5__getB7v180000Ev
	.weak	_ZNRSt3__223__optional_storage_baseINS_4pairIffEELb0EE5__getB7v180000Ev
	.p2align	2
	.type	_ZNRSt3__223__optional_storage_baseINS_4pairIffEELb0EE5__getB7v180000Ev,%function
	.code	16                              @ @_ZNRSt3__223__optional_storage_baseINS_4pairIffEELb0EE5__getB7v180000Ev
	.thumb_func
_ZNRSt3__223__optional_storage_baseINS_4pairIffEELb0EE5__getB7v180000Ev:
.Lfunc_begin15:
	.loc	3 392 0 is_stmt 1               @ D:\Embed\MDK\MDK\ARM\ARMCompilerV621\Bin\..\include\libcxx\optional:392:0
	.fnstart
	.cfi_startproc
@ %bb.0:
	.pad	#4
	sub	sp, #4
	.cfi_def_cfa_offset 4
	str	r0, [sp]
	ldr	r0, [sp]
.Ltmp38:
	.loc	3 393 9 prologue_end epilogue_begin @ D:\Embed\MDK\MDK\ARM\ARMCompilerV621\Bin\..\include\libcxx\optional:393:9
	add	sp, #4
	bx	lr
.Ltmp39:
.Lfunc_end15:
	.size	_ZNRSt3__223__optional_storage_baseINS_4pairIffEELb0EE5__getB7v180000Ev, .Lfunc_end15-_ZNRSt3__223__optional_storage_baseINS_4pairIffEELb0EE5__getB7v180000Ev
	.cfi_endproc
	.cantunwind
	.fnend
                                        @ -- End function
	.section	.text._ZNSt3__210__get_pairILj0EE3getB7v180000IffEEOT_ONS_4pairIS3_T0_EE,"axG",%progbits,_ZNSt3__210__get_pairILj0EE3getB7v180000IffEEOT_ONS_4pairIS3_T0_EE,comdat
	.hidden	_ZNSt3__210__get_pairILj0EE3getB7v180000IffEEOT_ONS_4pairIS3_T0_EE @ -- Begin function _ZNSt3__210__get_pairILj0EE3getB7v180000IffEEOT_ONS_4pairIS3_T0_EE
	.weak	_ZNSt3__210__get_pairILj0EE3getB7v180000IffEEOT_ONS_4pairIS3_T0_EE
	.p2align	2
	.type	_ZNSt3__210__get_pairILj0EE3getB7v180000IffEEOT_ONS_4pairIS3_T0_EE,%function
	.code	16                              @ @_ZNSt3__210__get_pairILj0EE3getB7v180000IffEEOT_ONS_4pairIS3_T0_EE
	.thumb_func
_ZNSt3__210__get_pairILj0EE3getB7v180000IffEEOT_ONS_4pairIS3_T0_EE:
.Lfunc_begin16:
	.loc	4 751 0                         @ D:\Embed\MDK\MDK\ARM\ARMCompilerV621\Bin\..\include\libcxx\__utility/pair.h:751:0
	.fnstart
	.cfi_startproc
@ %bb.0:
	.pad	#4
	sub	sp, #4
	.cfi_def_cfa_offset 4
	str	r0, [sp]
.Ltmp40:
	.loc	4 751 67 prologue_end           @ D:\Embed\MDK\MDK\ARM\ARMCompilerV621\Bin\..\include\libcxx\__utility/pair.h:751:67
	ldr	r0, [sp]
	.loc	4 751 42 epilogue_begin is_stmt 0 @ D:\Embed\MDK\MDK\ARM\ARMCompilerV621\Bin\..\include\libcxx\__utility/pair.h:751:42
	add	sp, #4
	bx	lr
.Ltmp41:
.Lfunc_end16:
	.size	_ZNSt3__210__get_pairILj0EE3getB7v180000IffEEOT_ONS_4pairIS3_T0_EE, .Lfunc_end16-_ZNSt3__210__get_pairILj0EE3getB7v180000IffEEOT_ONS_4pairIS3_T0_EE
	.cfi_endproc
	.cantunwind
	.fnend
                                        @ -- End function
	.section	.text._ZNSt3__210__get_pairILj1EE3getB7v180000IffEEOT0_ONS_4pairIT_S3_EE,"axG",%progbits,_ZNSt3__210__get_pairILj1EE3getB7v180000IffEEOT0_ONS_4pairIT_S3_EE,comdat
	.hidden	_ZNSt3__210__get_pairILj1EE3getB7v180000IffEEOT0_ONS_4pairIT_S3_EE @ -- Begin function _ZNSt3__210__get_pairILj1EE3getB7v180000IffEEOT0_ONS_4pairIT_S3_EE
	.weak	_ZNSt3__210__get_pairILj1EE3getB7v180000IffEEOT0_ONS_4pairIT_S3_EE
	.p2align	2
	.type	_ZNSt3__210__get_pairILj1EE3getB7v180000IffEEOT0_ONS_4pairIT_S3_EE,%function
	.code	16                              @ @_ZNSt3__210__get_pairILj1EE3getB7v180000IffEEOT0_ONS_4pairIT_S3_EE
	.thumb_func
_ZNSt3__210__get_pairILj1EE3getB7v180000IffEEOT0_ONS_4pairIT_S3_EE:
.Lfunc_begin17:
	.loc	4 779 0 is_stmt 1               @ D:\Embed\MDK\MDK\ARM\ARMCompilerV621\Bin\..\include\libcxx\__utility/pair.h:779:0
	.fnstart
	.cfi_startproc
@ %bb.0:
	.pad	#4
	sub	sp, #4
	.cfi_def_cfa_offset 4
	str	r0, [sp]
.Ltmp42:
	.loc	4 779 67 prologue_end           @ D:\Embed\MDK\MDK\ARM\ARMCompilerV621\Bin\..\include\libcxx\__utility/pair.h:779:67
	ldr	r0, [sp]
	.loc	4 779 71 is_stmt 0              @ D:\Embed\MDK\MDK\ARM\ARMCompilerV621\Bin\..\include\libcxx\__utility/pair.h:779:71
	adds	r0, #4
	.loc	4 779 42 epilogue_begin         @ D:\Embed\MDK\MDK\ARM\ARMCompilerV621\Bin\..\include\libcxx\__utility/pair.h:779:42
	add	sp, #4
	bx	lr
.Ltmp43:
.Lfunc_end17:
	.size	_ZNSt3__210__get_pairILj1EE3getB7v180000IffEEOT0_ONS_4pairIT_S3_EE, .Lfunc_end17-_ZNSt3__210__get_pairILj1EE3getB7v180000IffEEOT0_ONS_4pairIT_S3_EE
	.cfi_endproc
	.cantunwind
	.fnend
                                        @ -- End function
	.section	.text._ZNKSt3__223__optional_storage_baseIfLb0EE9has_valueB7v180000Ev,"axG",%progbits,_ZNKSt3__223__optional_storage_baseIfLb0EE9has_valueB7v180000Ev,comdat
	.hidden	_ZNKSt3__223__optional_storage_baseIfLb0EE9has_valueB7v180000Ev @ -- Begin function _ZNKSt3__223__optional_storage_baseIfLb0EE9has_valueB7v180000Ev
	.weak	_ZNKSt3__223__optional_storage_baseIfLb0EE9has_valueB7v180000Ev
	.p2align	2
	.type	_ZNKSt3__223__optional_storage_baseIfLb0EE9has_valueB7v180000Ev,%function
	.code	16                              @ @_ZNKSt3__223__optional_storage_baseIfLb0EE9has_valueB7v180000Ev
	.thumb_func
_ZNKSt3__223__optional_storage_baseIfLb0EE9has_valueB7v180000Ev:
.Lfunc_begin18:
	.loc	3 386 0 is_stmt 1               @ D:\Embed\MDK\MDK\ARM\ARMCompilerV621\Bin\..\include\libcxx\optional:386:0
	.fnstart
	.cfi_startproc
@ %bb.0:
	.pad	#4
	sub	sp, #4
	.cfi_def_cfa_offset 4
	str	r0, [sp]
	ldr	r0, [sp]
.Ltmp44:
	.loc	3 387 9 prologue_end            @ D:\Embed\MDK\MDK\ARM\ARMCompilerV621\Bin\..\include\libcxx\optional:387:9
	ldrb	r0, [r0, #4]
	and	r0, r0, #1
	.loc	3 387 9 epilogue_begin is_stmt 0 @ D:\Embed\MDK\MDK\ARM\ARMCompilerV621\Bin\..\include\libcxx\optional:387:9
	add	sp, #4
	bx	lr
.Ltmp45:
.Lfunc_end18:
	.size	_ZNKSt3__223__optional_storage_baseIfLb0EE9has_valueB7v180000Ev, .Lfunc_end18-_ZNKSt3__223__optional_storage_baseIfLb0EE9has_valueB7v180000Ev
	.cfi_endproc
	.cantunwind
	.fnend
                                        @ -- End function
	.section	.text._ZNRSt3__223__optional_storage_baseIfLb0EE5__getB7v180000Ev,"axG",%progbits,_ZNRSt3__223__optional_storage_baseIfLb0EE5__getB7v180000Ev,comdat
	.hidden	_ZNRSt3__223__optional_storage_baseIfLb0EE5__getB7v180000Ev @ -- Begin function _ZNRSt3__223__optional_storage_baseIfLb0EE5__getB7v180000Ev
	.weak	_ZNRSt3__223__optional_storage_baseIfLb0EE5__getB7v180000Ev
	.p2align	2
	.type	_ZNRSt3__223__optional_storage_baseIfLb0EE5__getB7v180000Ev,%function
	.code	16                              @ @_ZNRSt3__223__optional_storage_baseIfLb0EE5__getB7v180000Ev
	.thumb_func
_ZNRSt3__223__optional_storage_baseIfLb0EE5__getB7v180000Ev:
.Lfunc_begin19:
	.loc	3 392 0 is_stmt 1               @ D:\Embed\MDK\MDK\ARM\ARMCompilerV621\Bin\..\include\libcxx\optional:392:0
	.fnstart
	.cfi_startproc
@ %bb.0:
	.pad	#4
	sub	sp, #4
	.cfi_def_cfa_offset 4
	str	r0, [sp]
	ldr	r0, [sp]
.Ltmp46:
	.loc	3 393 9 prologue_end epilogue_begin @ D:\Embed\MDK\MDK\ARM\ARMCompilerV621\Bin\..\include\libcxx\optional:393:9
	add	sp, #4
	bx	lr
.Ltmp47:
.Lfunc_end19:
	.size	_ZNRSt3__223__optional_storage_baseIfLb0EE5__getB7v180000Ev, .Lfunc_end19-_ZNRSt3__223__optional_storage_baseIfLb0EE5__getB7v180000Ev
	.cfi_endproc
	.cantunwind
	.fnend
                                        @ -- End function
	.section	.text._ZNSt3__25clampB7v180000IfNS_6__lessIvvEEEERKT_S5_S5_S5_T0_,"axG",%progbits,_ZNSt3__25clampB7v180000IfNS_6__lessIvvEEEERKT_S5_S5_S5_T0_,comdat
	.hidden	_ZNSt3__25clampB7v180000IfNS_6__lessIvvEEEERKT_S5_S5_S5_T0_ @ -- Begin function _ZNSt3__25clampB7v180000IfNS_6__lessIvvEEEERKT_S5_S5_S5_T0_
	.weak	_ZNSt3__25clampB7v180000IfNS_6__lessIvvEEEERKT_S5_S5_S5_T0_
	.p2align	2
	.type	_ZNSt3__25clampB7v180000IfNS_6__lessIvvEEEERKT_S5_S5_S5_T0_,%function
	.code	16                              @ @_ZNSt3__25clampB7v180000IfNS_6__lessIvvEEEERKT_S5_S5_S5_T0_
	.thumb_func
_ZNSt3__25clampB7v180000IfNS_6__lessIvvEEEERKT_S5_S5_S5_T0_:
.Lfunc_begin20:
	.loc	11 28 0                         @ D:\Embed\MDK\MDK\ARM\ARMCompilerV621\Bin\..\include\libcxx\__algorithm/clamp.h:28:0
	.fnstart
	.cfi_startproc
@ %bb.0:
	.save	{r7, lr}
	push	{r7, lr}
	.cfi_def_cfa_offset 8
	.cfi_offset lr, -4
	.cfi_offset r7, -8
	.pad	#24
	sub	sp, #24
	.cfi_def_cfa_offset 32
	str	r0, [sp, #16]
	str	r1, [sp, #12]
	str	r2, [sp, #8]
.Ltmp48:
	.loc	11 30 17 prologue_end           @ D:\Embed\MDK\MDK\ARM\ARMCompilerV621\Bin\..\include\libcxx\__algorithm/clamp.h:30:17
	ldr	r1, [sp, #16]
	.loc	11 30 22 is_stmt 0              @ D:\Embed\MDK\MDK\ARM\ARMCompilerV621\Bin\..\include\libcxx\__algorithm/clamp.h:30:22
	ldr	r2, [sp, #12]
	add.w	r0, sp, #23
	.loc	11 30 10                        @ D:\Embed\MDK\MDK\ARM\ARMCompilerV621\Bin\..\include\libcxx\__algorithm/clamp.h:30:10
	bl	_ZNKSt3__26__lessIvvEclB7v180000IffEEbRKT_RKT0_
	cbz	r0, .LBB20_2
	b	.LBB20_1
.LBB20_1:
	.loc	11 30 30                        @ D:\Embed\MDK\MDK\ARM\ARMCompilerV621\Bin\..\include\libcxx\__algorithm/clamp.h:30:30
	ldr	r0, [sp, #12]
	.loc	11 30 10                        @ D:\Embed\MDK\MDK\ARM\ARMCompilerV621\Bin\..\include\libcxx\__algorithm/clamp.h:30:10
	str	r0, [sp, #4]                    @ 4-byte Spill
	b	.LBB20_6
.LBB20_2:
	.loc	11 30 44                        @ D:\Embed\MDK\MDK\ARM\ARMCompilerV621\Bin\..\include\libcxx\__algorithm/clamp.h:30:44
	ldr	r1, [sp, #8]
	.loc	11 30 50                        @ D:\Embed\MDK\MDK\ARM\ARMCompilerV621\Bin\..\include\libcxx\__algorithm/clamp.h:30:50
	ldr	r2, [sp, #16]
	add.w	r0, sp, #23
	.loc	11 30 37                        @ D:\Embed\MDK\MDK\ARM\ARMCompilerV621\Bin\..\include\libcxx\__algorithm/clamp.h:30:37
	bl	_ZNKSt3__26__lessIvvEclB7v180000IffEEbRKT_RKT0_
	cbz	r0, .LBB20_4
	b	.LBB20_3
.LBB20_3:
	.loc	11 30 57                        @ D:\Embed\MDK\MDK\ARM\ARMCompilerV621\Bin\..\include\libcxx\__algorithm/clamp.h:30:57
	ldr	r0, [sp, #8]
	.loc	11 30 37                        @ D:\Embed\MDK\MDK\ARM\ARMCompilerV621\Bin\..\include\libcxx\__algorithm/clamp.h:30:37
	str	r0, [sp]                        @ 4-byte Spill
	b	.LBB20_5
.LBB20_4:
	.loc	11 30 64                        @ D:\Embed\MDK\MDK\ARM\ARMCompilerV621\Bin\..\include\libcxx\__algorithm/clamp.h:30:64
	ldr	r0, [sp, #16]
	.loc	11 30 37                        @ D:\Embed\MDK\MDK\ARM\ARMCompilerV621\Bin\..\include\libcxx\__algorithm/clamp.h:30:37
	str	r0, [sp]                        @ 4-byte Spill
	b	.LBB20_5
.LBB20_5:
	ldr	r0, [sp]                        @ 4-byte Reload
	.loc	11 30 10                        @ D:\Embed\MDK\MDK\ARM\ARMCompilerV621\Bin\..\include\libcxx\__algorithm/clamp.h:30:10
	str	r0, [sp, #4]                    @ 4-byte Spill
	b	.LBB20_6
.LBB20_6:
	ldr	r0, [sp, #4]                    @ 4-byte Reload
	.loc	11 30 3 epilogue_begin          @ D:\Embed\MDK\MDK\ARM\ARMCompilerV621\Bin\..\include\libcxx\__algorithm/clamp.h:30:3
	add	sp, #24
	pop	{r7, pc}
.Ltmp49:
.Lfunc_end20:
	.size	_ZNSt3__25clampB7v180000IfNS_6__lessIvvEEEERKT_S5_S5_S5_T0_, .Lfunc_end20-_ZNSt3__25clampB7v180000IfNS_6__lessIvvEEEERKT_S5_S5_S5_T0_
	.cfi_endproc
	.cantunwind
	.fnend
                                        @ -- End function
	.section	.text._ZNKSt3__26__lessIvvEclB7v180000IffEEbRKT_RKT0_,"axG",%progbits,_ZNKSt3__26__lessIvvEclB7v180000IffEEbRKT_RKT0_,comdat
	.hidden	_ZNKSt3__26__lessIvvEclB7v180000IffEEbRKT_RKT0_ @ -- Begin function _ZNKSt3__26__lessIvvEclB7v180000IffEEbRKT_RKT0_
	.weak	_ZNKSt3__26__lessIvvEclB7v180000IffEEbRKT_RKT0_
	.p2align	2
	.type	_ZNKSt3__26__lessIvvEclB7v180000IffEEbRKT_RKT0_,%function
	.code	16                              @ @_ZNKSt3__26__lessIvvEclB7v180000IffEEbRKT_RKT0_
	.thumb_func
_ZNKSt3__26__lessIvvEclB7v180000IffEEbRKT_RKT0_:
.Lfunc_begin21:
	.file	12 "D:\\Embed\\MDK\\MDK\\ARM\\ARMCompilerV621\\Bin\\..\\include\\libcxx\\__algorithm" "comp.h"
	.loc	12 40 0 is_stmt 1               @ D:\Embed\MDK\MDK\ARM\ARMCompilerV621\Bin\..\include\libcxx\__algorithm/comp.h:40:0
	.fnstart
	.cfi_startproc
@ %bb.0:
	.pad	#12
	sub	sp, #12
	.cfi_def_cfa_offset 12
	str	r0, [sp, #8]
	str	r1, [sp, #4]
	str	r2, [sp]
.Ltmp50:
	.loc	12 41 12 prologue_end           @ D:\Embed\MDK\MDK\ARM\ARMCompilerV621\Bin\..\include\libcxx\__algorithm/comp.h:41:12
	ldr	r0, [sp, #4]
	vldr	s0, [r0]
	.loc	12 41 20 is_stmt 0              @ D:\Embed\MDK\MDK\ARM\ARMCompilerV621\Bin\..\include\libcxx\__algorithm/comp.h:41:20
	ldr	r0, [sp]
	vldr	s2, [r0]
	movs	r0, #0
	.loc	12 41 18                        @ D:\Embed\MDK\MDK\ARM\ARMCompilerV621\Bin\..\include\libcxx\__algorithm/comp.h:41:18
	vcmp.f32	s0, s2
	vmrs	APSR_nzcv, fpscr
	it	lt
	movlt	r0, #1
	.loc	12 41 5 epilogue_begin          @ D:\Embed\MDK\MDK\ARM\ARMCompilerV621\Bin\..\include\libcxx\__algorithm/comp.h:41:5
	add	sp, #12
	bx	lr
.Ltmp51:
.Lfunc_end21:
	.size	_ZNKSt3__26__lessIvvEclB7v180000IffEEbRKT_RKT0_, .Lfunc_end21-_ZNKSt3__26__lessIvvEclB7v180000IffEEbRKT_RKT0_
	.cfi_endproc
	.cantunwind
	.fnend
                                        @ -- End function
	.section	.text._Z7wrap_pmff,"axG",%progbits,_Z7wrap_pmff,comdat
	.hidden	_Z7wrap_pmff                    @ -- Begin function _Z7wrap_pmff
	.weak	_Z7wrap_pmff
	.p2align	2
	.type	_Z7wrap_pmff,%function
	.code	16                              @ @_Z7wrap_pmff
	.thumb_func
_Z7wrap_pmff:
.Lfunc_begin22:
	.loc	1 123 0 is_stmt 1               @ ../../Firmware\MotorControl/utils.hpp:123:0
	.fnstart
	.cfi_startproc
@ %bb.0:
	.save	{r7, lr}
	push	{r7, lr}
	.cfi_def_cfa_offset 8
	.cfi_offset lr, -4
	.cfi_offset r7, -8
	.pad	#16
	sub	sp, #16
	.cfi_def_cfa_offset 24
	vstr	s0, [sp, #12]
	vstr	s1, [sp, #8]
.Ltmp52:
	.loc	1 125 37 prologue_end           @ ../../Firmware\MotorControl/utils.hpp:125:37
	vldr	s0, [sp, #12]
	.loc	1 125 41 is_stmt 0              @ ../../Firmware\MotorControl/utils.hpp:125:41
	vldr	s2, [sp, #8]
	.loc	1 125 39                        @ ../../Firmware\MotorControl/utils.hpp:125:39
	vdiv.f32	s0, s0, s2
	.loc	1 125 27                        @ ../../Firmware\MotorControl/utils.hpp:125:27
	bl	_Z9round_intf
	vmov	s0, r0
	vcvt.f32.s32	s0, s0
	.loc	1 125 11                        @ ../../Firmware\MotorControl/utils.hpp:125:11
	vstr	s0, [sp, #4]
	.loc	1 129 12 is_stmt 1              @ ../../Firmware\MotorControl/utils.hpp:129:12
	vldr	s0, [sp, #12]
	.loc	1 129 16 is_stmt 0              @ ../../Firmware\MotorControl/utils.hpp:129:16
	vldr	s2, [sp, #4]
	.loc	1 129 25                        @ ../../Firmware\MotorControl/utils.hpp:129:25
	vldr	s4, [sp, #8]
	.loc	1 129 14                        @ ../../Firmware\MotorControl/utils.hpp:129:14
	vmul.f32	s2, s2, s4
	vsub.f32	s0, s0, s2
	.loc	1 129 5 epilogue_begin          @ ../../Firmware\MotorControl/utils.hpp:129:5
	add	sp, #16
	pop	{r7, pc}
.Ltmp53:
.Lfunc_end22:
	.size	_Z7wrap_pmff, .Lfunc_end22-_Z7wrap_pmff
	.cfi_endproc
	.cantunwind
	.fnend
                                        @ -- End function
	.section	.text._Z9round_intf,"axG",%progbits,_Z9round_intf,comdat
	.hidden	_Z9round_intf                   @ -- Begin function _Z9round_intf
	.weak	_Z9round_intf
	.p2align	2
	.type	_Z9round_intf,%function
	.code	16                              @ @_Z9round_intf
	.thumb_func
_Z9round_intf:
.Lfunc_begin23:
	.loc	1 108 0 is_stmt 1               @ ../../Firmware\MotorControl/utils.hpp:108:0
	.fnstart
	.cfi_startproc
@ %bb.0:
	.save	{r7, lr}
	push	{r7, lr}
	.cfi_def_cfa_offset 8
	.cfi_offset lr, -4
	.cfi_offset r7, -8
	.pad	#8
	sub	sp, #8
	.cfi_def_cfa_offset 16
	vstr	s0, [sp, #4]
.Ltmp54:
	.loc	1 116 27 prologue_end           @ ../../Firmware\MotorControl/utils.hpp:116:27
	vldr	s0, [sp, #4]
	.loc	1 116 17 is_stmt 0              @ ../../Firmware\MotorControl/utils.hpp:116:17
	bl	_ZNSt3__26__math9nearbyintB7v180000Ef
	vcvt.s32.f32	s0, s0
	vmov	r0, s0
	.loc	1 116 5 epilogue_begin          @ ../../Firmware\MotorControl/utils.hpp:116:5
	add	sp, #8
	pop	{r7, pc}
.Ltmp55:
.Lfunc_end23:
	.size	_Z9round_intf, .Lfunc_end23-_Z9round_intf
	.cfi_endproc
	.cantunwind
	.fnend
                                        @ -- End function
	.section	.text._ZNSt3__26__math9nearbyintB7v180000Ef,"axG",%progbits,_ZNSt3__26__math9nearbyintB7v180000Ef,comdat
	.hidden	_ZNSt3__26__math9nearbyintB7v180000Ef @ -- Begin function _ZNSt3__26__math9nearbyintB7v180000Ef
	.weak	_ZNSt3__26__math9nearbyintB7v180000Ef
	.p2align	2
	.type	_ZNSt3__26__math9nearbyintB7v180000Ef,%function
	.code	16                              @ @_ZNSt3__26__math9nearbyintB7v180000Ef
	.thumb_func
_ZNSt3__26__math9nearbyintB7v180000Ef:
.Lfunc_begin24:
	.file	13 "D:\\Embed\\MDK\\MDK\\ARM\\ARMCompilerV621\\Bin\\..\\include\\libcxx\\__math" "rounding_functions.h"
	.loc	13 150 0 is_stmt 1              @ D:\Embed\MDK\MDK\ARM\ARMCompilerV621\Bin\..\include\libcxx\__math/rounding_functions.h:150:0
	.fnstart
	.cfi_startproc
@ %bb.0:
	.save	{r7, lr}
	push	{r7, lr}
	.cfi_def_cfa_offset 8
	.cfi_offset lr, -4
	.cfi_offset r7, -8
	.pad	#8
	sub	sp, #8
	.cfi_def_cfa_offset 16
	vstr	s0, [sp, #4]
.Ltmp56:
	.loc	13 151 31 prologue_end          @ D:\Embed\MDK\MDK\ARM\ARMCompilerV621\Bin\..\include\libcxx\__math/rounding_functions.h:151:31
	vldr	s0, [sp, #4]
	.loc	13 151 10 is_stmt 0             @ D:\Embed\MDK\MDK\ARM\ARMCompilerV621\Bin\..\include\libcxx\__math/rounding_functions.h:151:10
	bl	__hardfp_nearbyintf
	.loc	13 151 3 epilogue_begin         @ D:\Embed\MDK\MDK\ARM\ARMCompilerV621\Bin\..\include\libcxx\__math/rounding_functions.h:151:3
	add	sp, #8
	pop	{r7, pc}
.Ltmp57:
.Lfunc_end24:
	.size	_ZNSt3__26__math9nearbyintB7v180000Ef, .Lfunc_end24-_ZNSt3__26__math9nearbyintB7v180000Ef
	.cfi_endproc
	.cantunwind
	.fnend
                                        @ -- End function
	.section	.text._ZNSt3__28optionalINS_4pairIffEEEC2B7v180000IRS2_Li0EEEOT_,"axG",%progbits,_ZNSt3__28optionalINS_4pairIffEEEC2B7v180000IRS2_Li0EEEOT_,comdat
	.hidden	_ZNSt3__28optionalINS_4pairIffEEEC2B7v180000IRS2_Li0EEEOT_ @ -- Begin function _ZNSt3__28optionalINS_4pairIffEEEC2B7v180000IRS2_Li0EEEOT_
	.weak	_ZNSt3__28optionalINS_4pairIffEEEC2B7v180000IRS2_Li0EEEOT_
	.p2align	2
	.type	_ZNSt3__28optionalINS_4pairIffEEEC2B7v180000IRS2_Li0EEEOT_,%function
	.code	16                              @ @_ZNSt3__28optionalINS_4pairIffEEEC2B7v180000IRS2_Li0EEEOT_
	.thumb_func
_ZNSt3__28optionalINS_4pairIffEEEC2B7v180000IRS2_Li0EEEOT_:
.Lfunc_begin25:
	.loc	3 828 0 is_stmt 1               @ D:\Embed\MDK\MDK\ARM\ARMCompilerV621\Bin\..\include\libcxx\optional:828:0
	.fnstart
	.cfi_startproc
@ %bb.0:
	.save	{r7, lr}
	push	{r7, lr}
	.cfi_def_cfa_offset 8
	.cfi_offset lr, -4
	.cfi_offset r7, -8
	.pad	#16
	sub	sp, #16
	.cfi_def_cfa_offset 24
	str	r0, [sp, #12]
	str	r1, [sp, #8]
	ldr	r0, [sp, #12]
.Ltmp58:
	.loc	3 828 48 prologue_end           @ D:\Embed\MDK\MDK\ARM\ARMCompilerV621\Bin\..\include\libcxx\optional:828:48
	str	r0, [sp]                        @ 4-byte Spill
	ldr	r1, [sp, #8]
	.loc	3 828 11 is_stmt 0              @ D:\Embed\MDK\MDK\ARM\ARMCompilerV621\Bin\..\include\libcxx\optional:828:11
	bl	_ZNSt3__227__optional_move_assign_baseINS_4pairIffEELb0EECI2NS_24__optional_destruct_baseIS2_Lb1EEEIJRS2_EEENS_10in_place_tEDpOT_
	ldr	r0, [sp]                        @ 4-byte Reload
	.loc	3 828 55 epilogue_begin         @ D:\Embed\MDK\MDK\ARM\ARMCompilerV621\Bin\..\include\libcxx\optional:828:55
	add	sp, #16
	pop	{r7, pc}
.Ltmp59:
.Lfunc_end25:
	.size	_ZNSt3__28optionalINS_4pairIffEEEC2B7v180000IRS2_Li0EEEOT_, .Lfunc_end25-_ZNSt3__28optionalINS_4pairIffEEEC2B7v180000IRS2_Li0EEEOT_
	.cfi_endproc
	.cantunwind
	.fnend
                                        @ -- End function
	.section	.text._ZNSt3__28optionalINS_4pairIffEEEC2B7v180000ENS_9nullopt_tE,"axG",%progbits,_ZNSt3__28optionalINS_4pairIffEEEC2B7v180000ENS_9nullopt_tE,comdat
	.hidden	_ZNSt3__28optionalINS_4pairIffEEEC2B7v180000ENS_9nullopt_tE @ -- Begin function _ZNSt3__28optionalINS_4pairIffEEEC2B7v180000ENS_9nullopt_tE
	.weak	_ZNSt3__28optionalINS_4pairIffEEEC2B7v180000ENS_9nullopt_tE
	.p2align	2
	.type	_ZNSt3__28optionalINS_4pairIffEEEC2B7v180000ENS_9nullopt_tE,%function
	.code	16                              @ @_ZNSt3__28optionalINS_4pairIffEEEC2B7v180000ENS_9nullopt_tE
	.thumb_func
_ZNSt3__28optionalINS_4pairIffEEEC2B7v180000ENS_9nullopt_tE:
.Lfunc_begin26:
	.loc	3 803 0 is_stmt 1               @ D:\Embed\MDK\MDK\ARM\ARMCompilerV621\Bin\..\include\libcxx\optional:803:0
	.fnstart
	.cfi_startproc
@ %bb.0:
	.save	{r7, lr}
	push	{r7, lr}
	.cfi_def_cfa_offset 8
	.cfi_offset lr, -4
	.cfi_offset r7, -8
	.pad	#16
	sub	sp, #16
	.cfi_def_cfa_offset 24
	str	r0, [sp, #8]
	ldr	r0, [sp, #8]
.Ltmp60:
	.loc	3 803 41 prologue_end           @ D:\Embed\MDK\MDK\ARM\ARMCompilerV621\Bin\..\include\libcxx\optional:803:41
	str	r0, [sp, #4]                    @ 4-byte Spill
	bl	_ZNSt3__227__optional_move_assign_baseINS_4pairIffEELb0EEC2B7v180000Ev
	ldr	r0, [sp, #4]                    @ 4-byte Reload
	.loc	3 803 71 epilogue_begin is_stmt 0 @ D:\Embed\MDK\MDK\ARM\ARMCompilerV621\Bin\..\include\libcxx\optional:803:71
	add	sp, #16
	pop	{r7, pc}
.Ltmp61:
.Lfunc_end26:
	.size	_ZNSt3__28optionalINS_4pairIffEEEC2B7v180000ENS_9nullopt_tE, .Lfunc_end26-_ZNSt3__28optionalINS_4pairIffEEEC2B7v180000ENS_9nullopt_tE
	.cfi_endproc
	.cantunwind
	.fnend
                                        @ -- End function
	.section	.text._ZNSt3__227__optional_move_assign_baseINS_4pairIffEELb0EECI2NS_24__optional_destruct_baseIS2_Lb1EEEIJRS2_EEENS_10in_place_tEDpOT_,"axG",%progbits,_ZNSt3__227__optional_move_assign_baseINS_4pairIffEELb0EECI2NS_24__optional_destruct_baseIS2_Lb1EEEIJRS2_EEENS_10in_place_tEDpOT_,comdat
	.hidden	_ZNSt3__227__optional_move_assign_baseINS_4pairIffEELb0EECI2NS_24__optional_destruct_baseIS2_Lb1EEEIJRS2_EEENS_10in_place_tEDpOT_ @ -- Begin function _ZNSt3__227__optional_move_assign_baseINS_4pairIffEELb0EECI2NS_24__optional_destruct_baseIS2_Lb1EEEIJRS2_EEENS_10in_place_tEDpOT_
	.weak	_ZNSt3__227__optional_move_assign_baseINS_4pairIffEELb0EECI2NS_24__optional_destruct_baseIS2_Lb1EEEIJRS2_EEENS_10in_place_tEDpOT_
	.p2align	2
	.type	_ZNSt3__227__optional_move_assign_baseINS_4pairIffEELb0EECI2NS_24__optional_destruct_baseIS2_Lb1EEEIJRS2_EEENS_10in_place_tEDpOT_,%function
	.code	16                              @ @_ZNSt3__227__optional_move_assign_baseINS_4pairIffEELb0EECI2NS_24__optional_destruct_baseIS2_Lb1EEEIJRS2_EEENS_10in_place_tEDpOT_
	.thumb_func
_ZNSt3__227__optional_move_assign_baseINS_4pairIffEELb0EECI2NS_24__optional_destruct_baseIS2_Lb1EEEIJRS2_EEENS_10in_place_tEDpOT_:
.Lfunc_begin27:
	.loc	3 647 0 is_stmt 1               @ D:\Embed\MDK\MDK\ARM\ARMCompilerV621\Bin\..\include\libcxx\optional:647:0
	.fnstart
	.cfi_startproc
@ %bb.0:
	.save	{r7, lr}
	push	{r7, lr}
	.cfi_def_cfa_offset 8
	.cfi_offset lr, -4
	.cfi_offset r7, -8
	.pad	#16
	sub	sp, #16
	.cfi_def_cfa_offset 24
	str	r0, [sp, #8]
	str	r1, [sp, #4]
	ldr	r0, [sp, #8]
.Ltmp62:
	.loc	3 647 45 prologue_end           @ D:\Embed\MDK\MDK\ARM\ARMCompilerV621\Bin\..\include\libcxx\optional:647:45
	str	r0, [sp]                        @ 4-byte Spill
	ldr	r1, [sp, #4]
	bl	_ZNSt3__227__optional_copy_assign_baseINS_4pairIffEELb0EECI2NS_24__optional_destruct_baseIS2_Lb1EEEIJRS2_EEENS_10in_place_tEDpOT_
	ldr	r0, [sp]                        @ 4-byte Reload
	.loc	3 647 45 epilogue_begin is_stmt 0 @ D:\Embed\MDK\MDK\ARM\ARMCompilerV621\Bin\..\include\libcxx\optional:647:45
	add	sp, #16
	pop	{r7, pc}
.Ltmp63:
.Lfunc_end27:
	.size	_ZNSt3__227__optional_move_assign_baseINS_4pairIffEELb0EECI2NS_24__optional_destruct_baseIS2_Lb1EEEIJRS2_EEENS_10in_place_tEDpOT_, .Lfunc_end27-_ZNSt3__227__optional_move_assign_baseINS_4pairIffEELb0EECI2NS_24__optional_destruct_baseIS2_Lb1EEEIJRS2_EEENS_10in_place_tEDpOT_
	.cfi_endproc
	.cantunwind
	.fnend
                                        @ -- End function
	.section	.text._ZNSt3__227__optional_copy_assign_baseINS_4pairIffEELb0EECI2NS_24__optional_destruct_baseIS2_Lb1EEEIJRS2_EEENS_10in_place_tEDpOT_,"axG",%progbits,_ZNSt3__227__optional_copy_assign_baseINS_4pairIffEELb0EECI2NS_24__optional_destruct_baseIS2_Lb1EEEIJRS2_EEENS_10in_place_tEDpOT_,comdat
	.hidden	_ZNSt3__227__optional_copy_assign_baseINS_4pairIffEELb0EECI2NS_24__optional_destruct_baseIS2_Lb1EEEIJRS2_EEENS_10in_place_tEDpOT_ @ -- Begin function _ZNSt3__227__optional_copy_assign_baseINS_4pairIffEELb0EECI2NS_24__optional_destruct_baseIS2_Lb1EEEIJRS2_EEENS_10in_place_tEDpOT_
	.weak	_ZNSt3__227__optional_copy_assign_baseINS_4pairIffEELb0EECI2NS_24__optional_destruct_baseIS2_Lb1EEEIJRS2_EEENS_10in_place_tEDpOT_
	.p2align	2
	.type	_ZNSt3__227__optional_copy_assign_baseINS_4pairIffEELb0EECI2NS_24__optional_destruct_baseIS2_Lb1EEEIJRS2_EEENS_10in_place_tEDpOT_,%function
	.code	16                              @ @_ZNSt3__227__optional_copy_assign_baseINS_4pairIffEELb0EECI2NS_24__optional_destruct_baseIS2_Lb1EEEIJRS2_EEENS_10in_place_tEDpOT_
	.thumb_func
_ZNSt3__227__optional_copy_assign_baseINS_4pairIffEELb0EECI2NS_24__optional_destruct_baseIS2_Lb1EEEIJRS2_EEENS_10in_place_tEDpOT_:
.Lfunc_begin28:
	.loc	3 614 0 is_stmt 1               @ D:\Embed\MDK\MDK\ARM\ARMCompilerV621\Bin\..\include\libcxx\optional:614:0
	.fnstart
	.cfi_startproc
@ %bb.0:
	.save	{r7, lr}
	push	{r7, lr}
	.cfi_def_cfa_offset 8
	.cfi_offset lr, -4
	.cfi_offset r7, -8
	.pad	#16
	sub	sp, #16
	.cfi_def_cfa_offset 24
	str	r0, [sp, #8]
	str	r1, [sp, #4]
	ldr	r0, [sp, #8]
.Ltmp64:
	.loc	3 614 38 prologue_end           @ D:\Embed\MDK\MDK\ARM\ARMCompilerV621\Bin\..\include\libcxx\optional:614:38
	str	r0, [sp]                        @ 4-byte Spill
	ldr	r1, [sp, #4]
	bl	_ZNSt3__220__optional_move_baseINS_4pairIffEELb1EECI2NS_24__optional_destruct_baseIS2_Lb1EEEIJRS2_EEENS_10in_place_tEDpOT_
	ldr	r0, [sp]                        @ 4-byte Reload
	.loc	3 614 38 epilogue_begin is_stmt 0 @ D:\Embed\MDK\MDK\ARM\ARMCompilerV621\Bin\..\include\libcxx\optional:614:38
	add	sp, #16
	pop	{r7, pc}
.Ltmp65:
.Lfunc_end28:
	.size	_ZNSt3__227__optional_copy_assign_baseINS_4pairIffEELb0EECI2NS_24__optional_destruct_baseIS2_Lb1EEEIJRS2_EEENS_10in_place_tEDpOT_, .Lfunc_end28-_ZNSt3__227__optional_copy_assign_baseINS_4pairIffEELb0EECI2NS_24__optional_destruct_baseIS2_Lb1EEEIJRS2_EEENS_10in_place_tEDpOT_
	.cfi_endproc
	.cantunwind
	.fnend
                                        @ -- End function
	.section	.text._ZNSt3__220__optional_move_baseINS_4pairIffEELb1EECI2NS_24__optional_destruct_baseIS2_Lb1EEEIJRS2_EEENS_10in_place_tEDpOT_,"axG",%progbits,_ZNSt3__220__optional_move_baseINS_4pairIffEELb1EECI2NS_24__optional_destruct_baseIS2_Lb1EEEIJRS2_EEENS_10in_place_tEDpOT_,comdat
	.hidden	_ZNSt3__220__optional_move_baseINS_4pairIffEELb1EECI2NS_24__optional_destruct_baseIS2_Lb1EEEIJRS2_EEENS_10in_place_tEDpOT_ @ -- Begin function _ZNSt3__220__optional_move_baseINS_4pairIffEELb1EECI2NS_24__optional_destruct_baseIS2_Lb1EEEIJRS2_EEENS_10in_place_tEDpOT_
	.weak	_ZNSt3__220__optional_move_baseINS_4pairIffEELb1EECI2NS_24__optional_destruct_baseIS2_Lb1EEEIJRS2_EEENS_10in_place_tEDpOT_
	.p2align	2
	.type	_ZNSt3__220__optional_move_baseINS_4pairIffEELb1EECI2NS_24__optional_destruct_baseIS2_Lb1EEEIJRS2_EEENS_10in_place_tEDpOT_,%function
	.code	16                              @ @_ZNSt3__220__optional_move_baseINS_4pairIffEELb1EECI2NS_24__optional_destruct_baseIS2_Lb1EEEIJRS2_EEENS_10in_place_tEDpOT_
	.thumb_func
_ZNSt3__220__optional_move_baseINS_4pairIffEELb1EECI2NS_24__optional_destruct_baseIS2_Lb1EEEIJRS2_EEENS_10in_place_tEDpOT_:
.Lfunc_begin29:
	.loc	3 575 0 is_stmt 1               @ D:\Embed\MDK\MDK\ARM\ARMCompilerV621\Bin\..\include\libcxx\optional:575:0
	.fnstart
	.cfi_startproc
@ %bb.0:
	.save	{r7, lr}
	push	{r7, lr}
	.cfi_def_cfa_offset 8
	.cfi_offset lr, -4
	.cfi_offset r7, -8
	.pad	#16
	sub	sp, #16
	.cfi_def_cfa_offset 24
	str	r0, [sp, #8]
	str	r1, [sp, #4]
	ldr	r0, [sp, #8]
.Ltmp66:
	.loc	3 575 38 prologue_end           @ D:\Embed\MDK\MDK\ARM\ARMCompilerV621\Bin\..\include\libcxx\optional:575:38
	str	r0, [sp]                        @ 4-byte Spill
	ldr	r1, [sp, #4]
	bl	_ZNSt3__220__optional_copy_baseINS_4pairIffEELb1EECI2NS_24__optional_destruct_baseIS2_Lb1EEEIJRS2_EEENS_10in_place_tEDpOT_
	ldr	r0, [sp]                        @ 4-byte Reload
	.loc	3 575 38 epilogue_begin is_stmt 0 @ D:\Embed\MDK\MDK\ARM\ARMCompilerV621\Bin\..\include\libcxx\optional:575:38
	add	sp, #16
	pop	{r7, pc}
.Ltmp67:
.Lfunc_end29:
	.size	_ZNSt3__220__optional_move_baseINS_4pairIffEELb1EECI2NS_24__optional_destruct_baseIS2_Lb1EEEIJRS2_EEENS_10in_place_tEDpOT_, .Lfunc_end29-_ZNSt3__220__optional_move_baseINS_4pairIffEELb1EECI2NS_24__optional_destruct_baseIS2_Lb1EEEIJRS2_EEENS_10in_place_tEDpOT_
	.cfi_endproc
	.cantunwind
	.fnend
                                        @ -- End function
	.section	.text._ZNSt3__220__optional_copy_baseINS_4pairIffEELb1EECI2NS_24__optional_destruct_baseIS2_Lb1EEEIJRS2_EEENS_10in_place_tEDpOT_,"axG",%progbits,_ZNSt3__220__optional_copy_baseINS_4pairIffEELb1EECI2NS_24__optional_destruct_baseIS2_Lb1EEEIJRS2_EEENS_10in_place_tEDpOT_,comdat
	.hidden	_ZNSt3__220__optional_copy_baseINS_4pairIffEELb1EECI2NS_24__optional_destruct_baseIS2_Lb1EEEIJRS2_EEENS_10in_place_tEDpOT_ @ -- Begin function _ZNSt3__220__optional_copy_baseINS_4pairIffEELb1EECI2NS_24__optional_destruct_baseIS2_Lb1EEEIJRS2_EEENS_10in_place_tEDpOT_
	.weak	_ZNSt3__220__optional_copy_baseINS_4pairIffEELb1EECI2NS_24__optional_destruct_baseIS2_Lb1EEEIJRS2_EEENS_10in_place_tEDpOT_
	.p2align	2
	.type	_ZNSt3__220__optional_copy_baseINS_4pairIffEELb1EECI2NS_24__optional_destruct_baseIS2_Lb1EEEIJRS2_EEENS_10in_place_tEDpOT_,%function
	.code	16                              @ @_ZNSt3__220__optional_copy_baseINS_4pairIffEELb1EECI2NS_24__optional_destruct_baseIS2_Lb1EEEIJRS2_EEENS_10in_place_tEDpOT_
	.thumb_func
_ZNSt3__220__optional_copy_baseINS_4pairIffEELb1EECI2NS_24__optional_destruct_baseIS2_Lb1EEEIJRS2_EEENS_10in_place_tEDpOT_:
.Lfunc_begin30:
	.loc	3 547 0 is_stmt 1               @ D:\Embed\MDK\MDK\ARM\ARMCompilerV621\Bin\..\include\libcxx\optional:547:0
	.fnstart
	.cfi_startproc
@ %bb.0:
	.save	{r7, lr}
	push	{r7, lr}
	.cfi_def_cfa_offset 8
	.cfi_offset lr, -4
	.cfi_offset r7, -8
	.pad	#16
	sub	sp, #16
	.cfi_def_cfa_offset 24
	str	r0, [sp, #8]
	str	r1, [sp, #4]
	ldr	r0, [sp, #8]
.Ltmp68:
	.loc	3 547 41 prologue_end           @ D:\Embed\MDK\MDK\ARM\ARMCompilerV621\Bin\..\include\libcxx\optional:547:41
	str	r0, [sp]                        @ 4-byte Spill
	ldr	r1, [sp, #4]
	bl	_ZNSt3__223__optional_storage_baseINS_4pairIffEELb0EECI2NS_24__optional_destruct_baseIS2_Lb1EEEIJRS2_EEENS_10in_place_tEDpOT_
	ldr	r0, [sp]                        @ 4-byte Reload
	.loc	3 547 41 epilogue_begin is_stmt 0 @ D:\Embed\MDK\MDK\ARM\ARMCompilerV621\Bin\..\include\libcxx\optional:547:41
	add	sp, #16
	pop	{r7, pc}
.Ltmp69:
.Lfunc_end30:
	.size	_ZNSt3__220__optional_copy_baseINS_4pairIffEELb1EECI2NS_24__optional_destruct_baseIS2_Lb1EEEIJRS2_EEENS_10in_place_tEDpOT_, .Lfunc_end30-_ZNSt3__220__optional_copy_baseINS_4pairIffEELb1EECI2NS_24__optional_destruct_baseIS2_Lb1EEEIJRS2_EEENS_10in_place_tEDpOT_
	.cfi_endproc
	.cantunwind
	.fnend
                                        @ -- End function
	.section	.text._ZNSt3__223__optional_storage_baseINS_4pairIffEELb0EECI2NS_24__optional_destruct_baseIS2_Lb1EEEIJRS2_EEENS_10in_place_tEDpOT_,"axG",%progbits,_ZNSt3__223__optional_storage_baseINS_4pairIffEELb0EECI2NS_24__optional_destruct_baseIS2_Lb1EEEIJRS2_EEENS_10in_place_tEDpOT_,comdat
	.hidden	_ZNSt3__223__optional_storage_baseINS_4pairIffEELb0EECI2NS_24__optional_destruct_baseIS2_Lb1EEEIJRS2_EEENS_10in_place_tEDpOT_ @ -- Begin function _ZNSt3__223__optional_storage_baseINS_4pairIffEELb0EECI2NS_24__optional_destruct_baseIS2_Lb1EEEIJRS2_EEENS_10in_place_tEDpOT_
	.weak	_ZNSt3__223__optional_storage_baseINS_4pairIffEELb0EECI2NS_24__optional_destruct_baseIS2_Lb1EEEIJRS2_EEENS_10in_place_tEDpOT_
	.p2align	2
	.type	_ZNSt3__223__optional_storage_baseINS_4pairIffEELb0EECI2NS_24__optional_destruct_baseIS2_Lb1EEEIJRS2_EEENS_10in_place_tEDpOT_,%function
	.code	16                              @ @_ZNSt3__223__optional_storage_baseINS_4pairIffEELb0EECI2NS_24__optional_destruct_baseIS2_Lb1EEEIJRS2_EEENS_10in_place_tEDpOT_
	.thumb_func
_ZNSt3__223__optional_storage_baseINS_4pairIffEELb0EECI2NS_24__optional_destruct_baseIS2_Lb1EEEIJRS2_EEENS_10in_place_tEDpOT_:
.Lfunc_begin31:
	.loc	3 382 0 is_stmt 1               @ D:\Embed\MDK\MDK\ARM\ARMCompilerV621\Bin\..\include\libcxx\optional:382:0
	.fnstart
	.cfi_startproc
@ %bb.0:
	.save	{r7, lr}
	push	{r7, lr}
	.cfi_def_cfa_offset 8
	.cfi_offset lr, -4
	.cfi_offset r7, -8
	.pad	#16
	sub	sp, #16
	.cfi_def_cfa_offset 24
	str	r0, [sp, #8]
	str	r1, [sp, #4]
	ldr	r0, [sp, #8]
.Ltmp70:
	.loc	3 382 19 prologue_end           @ D:\Embed\MDK\MDK\ARM\ARMCompilerV621\Bin\..\include\libcxx\optional:382:19
	str	r0, [sp]                        @ 4-byte Spill
	ldr	r1, [sp, #4]
	bl	_ZNSt3__224__optional_destruct_baseINS_4pairIffEELb1EEC2B7v180000IJRS2_EEENS_10in_place_tEDpOT_
	ldr	r0, [sp]                        @ 4-byte Reload
	.loc	3 382 19 epilogue_begin is_stmt 0 @ D:\Embed\MDK\MDK\ARM\ARMCompilerV621\Bin\..\include\libcxx\optional:382:19
	add	sp, #16
	pop	{r7, pc}
.Ltmp71:
.Lfunc_end31:
	.size	_ZNSt3__223__optional_storage_baseINS_4pairIffEELb0EECI2NS_24__optional_destruct_baseIS2_Lb1EEEIJRS2_EEENS_10in_place_tEDpOT_, .Lfunc_end31-_ZNSt3__223__optional_storage_baseINS_4pairIffEELb0EECI2NS_24__optional_destruct_baseIS2_Lb1EEEIJRS2_EEENS_10in_place_tEDpOT_
	.cfi_endproc
	.cantunwind
	.fnend
                                        @ -- End function
	.section	.text._ZNSt3__224__optional_destruct_baseINS_4pairIffEELb1EEC2B7v180000IJRS2_EEENS_10in_place_tEDpOT_,"axG",%progbits,_ZNSt3__224__optional_destruct_baseINS_4pairIffEELb1EEC2B7v180000IJRS2_EEENS_10in_place_tEDpOT_,comdat
	.hidden	_ZNSt3__224__optional_destruct_baseINS_4pairIffEELb1EEC2B7v180000IJRS2_EEENS_10in_place_tEDpOT_ @ -- Begin function _ZNSt3__224__optional_destruct_baseINS_4pairIffEELb1EEC2B7v180000IJRS2_EEENS_10in_place_tEDpOT_
	.weak	_ZNSt3__224__optional_destruct_baseINS_4pairIffEELb1EEC2B7v180000IJRS2_EEENS_10in_place_tEDpOT_
	.p2align	2
	.type	_ZNSt3__224__optional_destruct_baseINS_4pairIffEELb1EEC2B7v180000IJRS2_EEENS_10in_place_tEDpOT_,%function
	.code	16                              @ @_ZNSt3__224__optional_destruct_baseINS_4pairIffEELb1EEC2B7v180000IJRS2_EEENS_10in_place_tEDpOT_
	.thumb_func
_ZNSt3__224__optional_destruct_baseINS_4pairIffEELb1EEC2B7v180000IJRS2_EEENS_10in_place_tEDpOT_:
.Lfunc_begin32:
	.loc	3 358 0 is_stmt 1               @ D:\Embed\MDK\MDK\ARM\ARMCompilerV621\Bin\..\include\libcxx\optional:358:0
	.fnstart
	.cfi_startproc
@ %bb.0:
	.pad	#12
	sub	sp, #12
	.cfi_def_cfa_offset 12
	str	r0, [sp, #4]
	str	r1, [sp]
	ldr	r0, [sp, #4]
.Ltmp72:
	.loc	3 357 41 prologue_end           @ D:\Embed\MDK\MDK\ARM\ARMCompilerV621\Bin\..\include\libcxx\optional:357:41
	ldr	r2, [sp]
	.loc	3 357 12 is_stmt 0              @ D:\Embed\MDK\MDK\ARM\ARMCompilerV621\Bin\..\include\libcxx\optional:357:12
	ldr	r1, [r2]
	ldr	r2, [r2, #4]
	str	r2, [r0, #4]
	str	r1, [r0]
	movs	r1, #1
	.loc	3 358 12 is_stmt 1              @ D:\Embed\MDK\MDK\ARM\ARMCompilerV621\Bin\..\include\libcxx\optional:358:12
	strb	r1, [r0, #8]
	.loc	3 358 30 epilogue_begin is_stmt 0 @ D:\Embed\MDK\MDK\ARM\ARMCompilerV621\Bin\..\include\libcxx\optional:358:30
	add	sp, #12
	bx	lr
.Ltmp73:
.Lfunc_end32:
	.size	_ZNSt3__224__optional_destruct_baseINS_4pairIffEELb1EEC2B7v180000IJRS2_EEENS_10in_place_tEDpOT_, .Lfunc_end32-_ZNSt3__224__optional_destruct_baseINS_4pairIffEELb1EEC2B7v180000IJRS2_EEENS_10in_place_tEDpOT_
	.cfi_endproc
	.cantunwind
	.fnend
                                        @ -- End function
	.section	.text._ZNSt3__227__optional_move_assign_baseINS_4pairIffEELb0EEC2B7v180000Ev,"axG",%progbits,_ZNSt3__227__optional_move_assign_baseINS_4pairIffEELb0EEC2B7v180000Ev,comdat
	.hidden	_ZNSt3__227__optional_move_assign_baseINS_4pairIffEELb0EEC2B7v180000Ev @ -- Begin function _ZNSt3__227__optional_move_assign_baseINS_4pairIffEELb0EEC2B7v180000Ev
	.weak	_ZNSt3__227__optional_move_assign_baseINS_4pairIffEELb0EEC2B7v180000Ev
	.p2align	2
	.type	_ZNSt3__227__optional_move_assign_baseINS_4pairIffEELb0EEC2B7v180000Ev,%function
	.code	16                              @ @_ZNSt3__227__optional_move_assign_baseINS_4pairIffEELb0EEC2B7v180000Ev
	.thumb_func
_ZNSt3__227__optional_move_assign_baseINS_4pairIffEELb0EEC2B7v180000Ev:
.Lfunc_begin33:
	.loc	3 650 0 is_stmt 1               @ D:\Embed\MDK\MDK\ARM\ARMCompilerV621\Bin\..\include\libcxx\optional:650:0
	.fnstart
	.cfi_startproc
@ %bb.0:
	.save	{r7, lr}
	push	{r7, lr}
	.cfi_def_cfa_offset 8
	.cfi_offset lr, -4
	.cfi_offset r7, -8
	.pad	#8
	sub	sp, #8
	.cfi_def_cfa_offset 16
	str	r0, [sp, #4]
	ldr	r0, [sp, #4]
.Ltmp74:
	.loc	3 650 5 prologue_end            @ D:\Embed\MDK\MDK\ARM\ARMCompilerV621\Bin\..\include\libcxx\optional:650:5
	str	r0, [sp]                        @ 4-byte Spill
	bl	_ZNSt3__227__optional_copy_assign_baseINS_4pairIffEELb0EEC2B7v180000Ev
	ldr	r0, [sp]                        @ 4-byte Reload
	.loc	3 650 43 epilogue_begin is_stmt 0 @ D:\Embed\MDK\MDK\ARM\ARMCompilerV621\Bin\..\include\libcxx\optional:650:43
	add	sp, #8
	pop	{r7, pc}
.Ltmp75:
.Lfunc_end33:
	.size	_ZNSt3__227__optional_move_assign_baseINS_4pairIffEELb0EEC2B7v180000Ev, .Lfunc_end33-_ZNSt3__227__optional_move_assign_baseINS_4pairIffEELb0EEC2B7v180000Ev
	.cfi_endproc
	.cantunwind
	.fnend
                                        @ -- End function
	.section	.text._ZNSt3__227__optional_copy_assign_baseINS_4pairIffEELb0EEC2B7v180000Ev,"axG",%progbits,_ZNSt3__227__optional_copy_assign_baseINS_4pairIffEELb0EEC2B7v180000Ev,comdat
	.hidden	_ZNSt3__227__optional_copy_assign_baseINS_4pairIffEELb0EEC2B7v180000Ev @ -- Begin function _ZNSt3__227__optional_copy_assign_baseINS_4pairIffEELb0EEC2B7v180000Ev
	.weak	_ZNSt3__227__optional_copy_assign_baseINS_4pairIffEELb0EEC2B7v180000Ev
	.p2align	2
	.type	_ZNSt3__227__optional_copy_assign_baseINS_4pairIffEELb0EEC2B7v180000Ev,%function
	.code	16                              @ @_ZNSt3__227__optional_copy_assign_baseINS_4pairIffEELb0EEC2B7v180000Ev
	.thumb_func
_ZNSt3__227__optional_copy_assign_baseINS_4pairIffEELb0EEC2B7v180000Ev:
.Lfunc_begin34:
	.loc	3 617 0 is_stmt 1               @ D:\Embed\MDK\MDK\ARM\ARMCompilerV621\Bin\..\include\libcxx\optional:617:0
	.fnstart
	.cfi_startproc
@ %bb.0:
	.save	{r7, lr}
	push	{r7, lr}
	.cfi_def_cfa_offset 8
	.cfi_offset lr, -4
	.cfi_offset r7, -8
	.pad	#8
	sub	sp, #8
	.cfi_def_cfa_offset 16
	str	r0, [sp, #4]
	ldr	r0, [sp, #4]
.Ltmp76:
	.loc	3 617 5 prologue_end            @ D:\Embed\MDK\MDK\ARM\ARMCompilerV621\Bin\..\include\libcxx\optional:617:5
	str	r0, [sp]                        @ 4-byte Spill
	bl	_ZNSt3__220__optional_move_baseINS_4pairIffEELb1EEC2Ev
	ldr	r0, [sp]                        @ 4-byte Reload
	.loc	3 617 43 epilogue_begin is_stmt 0 @ D:\Embed\MDK\MDK\ARM\ARMCompilerV621\Bin\..\include\libcxx\optional:617:43
	add	sp, #8
	pop	{r7, pc}
.Ltmp77:
.Lfunc_end34:
	.size	_ZNSt3__227__optional_copy_assign_baseINS_4pairIffEELb0EEC2B7v180000Ev, .Lfunc_end34-_ZNSt3__227__optional_copy_assign_baseINS_4pairIffEELb0EEC2B7v180000Ev
	.cfi_endproc
	.cantunwind
	.fnend
                                        @ -- End function
	.section	.text._ZNSt3__220__optional_move_baseINS_4pairIffEELb1EEC2Ev,"axG",%progbits,_ZNSt3__220__optional_move_baseINS_4pairIffEELb1EEC2Ev,comdat
	.hidden	_ZNSt3__220__optional_move_baseINS_4pairIffEELb1EEC2Ev @ -- Begin function _ZNSt3__220__optional_move_baseINS_4pairIffEELb1EEC2Ev
	.weak	_ZNSt3__220__optional_move_baseINS_4pairIffEELb1EEC2Ev
	.p2align	2
	.type	_ZNSt3__220__optional_move_baseINS_4pairIffEELb1EEC2Ev,%function
	.code	16                              @ @_ZNSt3__220__optional_move_baseINS_4pairIffEELb1EEC2Ev
	.thumb_func
_ZNSt3__220__optional_move_baseINS_4pairIffEELb1EEC2Ev:
.Lfunc_begin35:
	.loc	3 573 0 is_stmt 1               @ D:\Embed\MDK\MDK\ARM\ARMCompilerV621\Bin\..\include\libcxx\optional:573:0
	.fnstart
	.cfi_startproc
@ %bb.0:
	.save	{r7, lr}
	push	{r7, lr}
	.cfi_def_cfa_offset 8
	.cfi_offset lr, -4
	.cfi_offset r7, -8
	.pad	#8
	sub	sp, #8
	.cfi_def_cfa_offset 16
	str	r0, [sp, #4]
	ldr	r0, [sp, #4]
.Ltmp78:
	.loc	3 573 8 prologue_end            @ D:\Embed\MDK\MDK\ARM\ARMCompilerV621\Bin\..\include\libcxx\optional:573:8
	str	r0, [sp]                        @ 4-byte Spill
	bl	_ZNSt3__220__optional_copy_baseINS_4pairIffEELb1EEC2Ev
	ldr	r0, [sp]                        @ 4-byte Reload
	.loc	3 573 8 epilogue_begin is_stmt 0 @ D:\Embed\MDK\MDK\ARM\ARMCompilerV621\Bin\..\include\libcxx\optional:573:8
	add	sp, #8
	pop	{r7, pc}
.Ltmp79:
.Lfunc_end35:
	.size	_ZNSt3__220__optional_move_baseINS_4pairIffEELb1EEC2Ev, .Lfunc_end35-_ZNSt3__220__optional_move_baseINS_4pairIffEELb1EEC2Ev
	.cfi_endproc
	.cantunwind
	.fnend
                                        @ -- End function
	.section	.text._ZNSt3__220__optional_copy_baseINS_4pairIffEELb1EEC2Ev,"axG",%progbits,_ZNSt3__220__optional_copy_baseINS_4pairIffEELb1EEC2Ev,comdat
	.hidden	_ZNSt3__220__optional_copy_baseINS_4pairIffEELb1EEC2Ev @ -- Begin function _ZNSt3__220__optional_copy_baseINS_4pairIffEELb1EEC2Ev
	.weak	_ZNSt3__220__optional_copy_baseINS_4pairIffEELb1EEC2Ev
	.p2align	2
	.type	_ZNSt3__220__optional_copy_baseINS_4pairIffEELb1EEC2Ev,%function
	.code	16                              @ @_ZNSt3__220__optional_copy_baseINS_4pairIffEELb1EEC2Ev
	.thumb_func
_ZNSt3__220__optional_copy_baseINS_4pairIffEELb1EEC2Ev:
.Lfunc_begin36:
	.loc	3 545 0 is_stmt 1               @ D:\Embed\MDK\MDK\ARM\ARMCompilerV621\Bin\..\include\libcxx\optional:545:0
	.fnstart
	.cfi_startproc
@ %bb.0:
	.save	{r7, lr}
	push	{r7, lr}
	.cfi_def_cfa_offset 8
	.cfi_offset lr, -4
	.cfi_offset r7, -8
	.pad	#8
	sub	sp, #8
	.cfi_def_cfa_offset 16
	str	r0, [sp, #4]
	ldr	r0, [sp, #4]
.Ltmp80:
	.loc	3 545 8 prologue_end            @ D:\Embed\MDK\MDK\ARM\ARMCompilerV621\Bin\..\include\libcxx\optional:545:8
	str	r0, [sp]                        @ 4-byte Spill
	bl	_ZNSt3__223__optional_storage_baseINS_4pairIffEELb0EEC2Ev
	ldr	r0, [sp]                        @ 4-byte Reload
	.loc	3 545 8 epilogue_begin is_stmt 0 @ D:\Embed\MDK\MDK\ARM\ARMCompilerV621\Bin\..\include\libcxx\optional:545:8
	add	sp, #8
	pop	{r7, pc}
.Ltmp81:
.Lfunc_end36:
	.size	_ZNSt3__220__optional_copy_baseINS_4pairIffEELb1EEC2Ev, .Lfunc_end36-_ZNSt3__220__optional_copy_baseINS_4pairIffEELb1EEC2Ev
	.cfi_endproc
	.cantunwind
	.fnend
                                        @ -- End function
	.section	.text._ZNSt3__223__optional_storage_baseINS_4pairIffEELb0EEC2Ev,"axG",%progbits,_ZNSt3__223__optional_storage_baseINS_4pairIffEELb0EEC2Ev,comdat
	.hidden	_ZNSt3__223__optional_storage_baseINS_4pairIffEELb0EEC2Ev @ -- Begin function _ZNSt3__223__optional_storage_baseINS_4pairIffEELb0EEC2Ev
	.weak	_ZNSt3__223__optional_storage_baseINS_4pairIffEELb0EEC2Ev
	.p2align	2
	.type	_ZNSt3__223__optional_storage_baseINS_4pairIffEELb0EEC2Ev,%function
	.code	16                              @ @_ZNSt3__223__optional_storage_baseINS_4pairIffEELb0EEC2Ev
	.thumb_func
_ZNSt3__223__optional_storage_baseINS_4pairIffEELb0EEC2Ev:
.Lfunc_begin37:
	.loc	3 378 0 is_stmt 1               @ D:\Embed\MDK\MDK\ARM\ARMCompilerV621\Bin\..\include\libcxx\optional:378:0
	.fnstart
	.cfi_startproc
@ %bb.0:
	.save	{r7, lr}
	push	{r7, lr}
	.cfi_def_cfa_offset 8
	.cfi_offset lr, -4
	.cfi_offset r7, -8
	.pad	#8
	sub	sp, #8
	.cfi_def_cfa_offset 16
	str	r0, [sp, #4]
	ldr	r0, [sp, #4]
.Ltmp82:
	.loc	3 378 8 prologue_end            @ D:\Embed\MDK\MDK\ARM\ARMCompilerV621\Bin\..\include\libcxx\optional:378:8
	str	r0, [sp]                        @ 4-byte Spill
	bl	_ZNSt3__224__optional_destruct_baseINS_4pairIffEELb1EEC2B7v180000Ev
	ldr	r0, [sp]                        @ 4-byte Reload
	.loc	3 378 8 epilogue_begin is_stmt 0 @ D:\Embed\MDK\MDK\ARM\ARMCompilerV621\Bin\..\include\libcxx\optional:378:8
	add	sp, #8
	pop	{r7, pc}
.Ltmp83:
.Lfunc_end37:
	.size	_ZNSt3__223__optional_storage_baseINS_4pairIffEELb0EEC2Ev, .Lfunc_end37-_ZNSt3__223__optional_storage_baseINS_4pairIffEELb0EEC2Ev
	.cfi_endproc
	.cantunwind
	.fnend
                                        @ -- End function
	.section	.text._ZNSt3__224__optional_destruct_baseINS_4pairIffEELb1EEC2B7v180000Ev,"axG",%progbits,_ZNSt3__224__optional_destruct_baseINS_4pairIffEELb1EEC2B7v180000Ev,comdat
	.hidden	_ZNSt3__224__optional_destruct_baseINS_4pairIffEELb1EEC2B7v180000Ev @ -- Begin function _ZNSt3__224__optional_destruct_baseINS_4pairIffEELb1EEC2B7v180000Ev
	.weak	_ZNSt3__224__optional_destruct_baseINS_4pairIffEELb1EEC2B7v180000Ev
	.p2align	2
	.type	_ZNSt3__224__optional_destruct_baseINS_4pairIffEELb1EEC2B7v180000Ev,%function
	.code	16                              @ @_ZNSt3__224__optional_destruct_baseINS_4pairIffEELb1EEC2B7v180000Ev
	.thumb_func
_ZNSt3__224__optional_destruct_baseINS_4pairIffEELb1EEC2B7v180000Ev:
.Lfunc_begin38:
	.loc	3 352 0 is_stmt 1               @ D:\Embed\MDK\MDK\ARM\ARMCompilerV621\Bin\..\include\libcxx\optional:352:0
	.fnstart
	.cfi_startproc
@ %bb.0:
	.pad	#4
	sub	sp, #4
	.cfi_def_cfa_offset 4
	str	r0, [sp]
	ldr	r0, [sp]
	movs	r1, #0
.Ltmp84:
	.loc	3 351 12 prologue_end           @ D:\Embed\MDK\MDK\ARM\ARMCompilerV621\Bin\..\include\libcxx\optional:351:12
	strb	r1, [r0]
	.loc	3 352 12                        @ D:\Embed\MDK\MDK\ARM\ARMCompilerV621\Bin\..\include\libcxx\optional:352:12
	strb	r1, [r0, #8]
	.loc	3 352 31 epilogue_begin is_stmt 0 @ D:\Embed\MDK\MDK\ARM\ARMCompilerV621\Bin\..\include\libcxx\optional:352:31
	add	sp, #4
	bx	lr
.Ltmp85:
.Lfunc_end38:
	.size	_ZNSt3__224__optional_destruct_baseINS_4pairIffEELb1EEC2B7v180000Ev, .Lfunc_end38-_ZNSt3__224__optional_destruct_baseINS_4pairIffEELb1EEC2B7v180000Ev
	.cfi_endproc
	.cantunwind
	.fnend
                                        @ -- End function
	.section	.text._ZNSt3__28optionalIfEC2B7v180000IRfLi0EEEOT_,"axG",%progbits,_ZNSt3__28optionalIfEC2B7v180000IRfLi0EEEOT_,comdat
	.hidden	_ZNSt3__28optionalIfEC2B7v180000IRfLi0EEEOT_ @ -- Begin function _ZNSt3__28optionalIfEC2B7v180000IRfLi0EEEOT_
	.weak	_ZNSt3__28optionalIfEC2B7v180000IRfLi0EEEOT_
	.p2align	2
	.type	_ZNSt3__28optionalIfEC2B7v180000IRfLi0EEEOT_,%function
	.code	16                              @ @_ZNSt3__28optionalIfEC2B7v180000IRfLi0EEEOT_
	.thumb_func
_ZNSt3__28optionalIfEC2B7v180000IRfLi0EEEOT_:
.Lfunc_begin39:
	.loc	3 828 0 is_stmt 1               @ D:\Embed\MDK\MDK\ARM\ARMCompilerV621\Bin\..\include\libcxx\optional:828:0
	.fnstart
	.cfi_startproc
@ %bb.0:
	.save	{r7, lr}
	push	{r7, lr}
	.cfi_def_cfa_offset 8
	.cfi_offset lr, -4
	.cfi_offset r7, -8
	.pad	#16
	sub	sp, #16
	.cfi_def_cfa_offset 24
	str	r0, [sp, #12]
	str	r1, [sp, #8]
	ldr	r0, [sp, #12]
.Ltmp86:
	.loc	3 828 48 prologue_end           @ D:\Embed\MDK\MDK\ARM\ARMCompilerV621\Bin\..\include\libcxx\optional:828:48
	str	r0, [sp]                        @ 4-byte Spill
	ldr	r1, [sp, #8]
	.loc	3 828 11 is_stmt 0              @ D:\Embed\MDK\MDK\ARM\ARMCompilerV621\Bin\..\include\libcxx\optional:828:11
	bl	_ZNSt3__227__optional_move_assign_baseIfLb1EECI2NS_24__optional_destruct_baseIfLb1EEEIJRfEEENS_10in_place_tEDpOT_
	ldr	r0, [sp]                        @ 4-byte Reload
	.loc	3 828 55 epilogue_begin         @ D:\Embed\MDK\MDK\ARM\ARMCompilerV621\Bin\..\include\libcxx\optional:828:55
	add	sp, #16
	pop	{r7, pc}
.Ltmp87:
.Lfunc_end39:
	.size	_ZNSt3__28optionalIfEC2B7v180000IRfLi0EEEOT_, .Lfunc_end39-_ZNSt3__28optionalIfEC2B7v180000IRfLi0EEEOT_
	.cfi_endproc
	.cantunwind
	.fnend
                                        @ -- End function
	.section	.text._ZNSt3__28optionalIfEC2B7v180000ENS_9nullopt_tE,"axG",%progbits,_ZNSt3__28optionalIfEC2B7v180000ENS_9nullopt_tE,comdat
	.hidden	_ZNSt3__28optionalIfEC2B7v180000ENS_9nullopt_tE @ -- Begin function _ZNSt3__28optionalIfEC2B7v180000ENS_9nullopt_tE
	.weak	_ZNSt3__28optionalIfEC2B7v180000ENS_9nullopt_tE
	.p2align	2
	.type	_ZNSt3__28optionalIfEC2B7v180000ENS_9nullopt_tE,%function
	.code	16                              @ @_ZNSt3__28optionalIfEC2B7v180000ENS_9nullopt_tE
	.thumb_func
_ZNSt3__28optionalIfEC2B7v180000ENS_9nullopt_tE:
.Lfunc_begin40:
	.loc	3 803 0 is_stmt 1               @ D:\Embed\MDK\MDK\ARM\ARMCompilerV621\Bin\..\include\libcxx\optional:803:0
	.fnstart
	.cfi_startproc
@ %bb.0:
	.save	{r7, lr}
	push	{r7, lr}
	.cfi_def_cfa_offset 8
	.cfi_offset lr, -4
	.cfi_offset r7, -8
	.pad	#16
	sub	sp, #16
	.cfi_def_cfa_offset 24
	str	r0, [sp, #8]
	ldr	r0, [sp, #8]
.Ltmp88:
	.loc	3 803 41 prologue_end           @ D:\Embed\MDK\MDK\ARM\ARMCompilerV621\Bin\..\include\libcxx\optional:803:41
	str	r0, [sp, #4]                    @ 4-byte Spill
	bl	_ZNSt3__227__optional_move_assign_baseIfLb1EEC2Ev
	ldr	r0, [sp, #4]                    @ 4-byte Reload
	.loc	3 803 71 epilogue_begin is_stmt 0 @ D:\Embed\MDK\MDK\ARM\ARMCompilerV621\Bin\..\include\libcxx\optional:803:71
	add	sp, #16
	pop	{r7, pc}
.Ltmp89:
.Lfunc_end40:
	.size	_ZNSt3__28optionalIfEC2B7v180000ENS_9nullopt_tE, .Lfunc_end40-_ZNSt3__28optionalIfEC2B7v180000ENS_9nullopt_tE
	.cfi_endproc
	.cantunwind
	.fnend
                                        @ -- End function
	.section	.text._ZNSt3__227__optional_move_assign_baseIfLb1EECI2NS_24__optional_destruct_baseIfLb1EEEIJRfEEENS_10in_place_tEDpOT_,"axG",%progbits,_ZNSt3__227__optional_move_assign_baseIfLb1EECI2NS_24__optional_destruct_baseIfLb1EEEIJRfEEENS_10in_place_tEDpOT_,comdat
	.hidden	_ZNSt3__227__optional_move_assign_baseIfLb1EECI2NS_24__optional_destruct_baseIfLb1EEEIJRfEEENS_10in_place_tEDpOT_ @ -- Begin function _ZNSt3__227__optional_move_assign_baseIfLb1EECI2NS_24__optional_destruct_baseIfLb1EEEIJRfEEENS_10in_place_tEDpOT_
	.weak	_ZNSt3__227__optional_move_assign_baseIfLb1EECI2NS_24__optional_destruct_baseIfLb1EEEIJRfEEENS_10in_place_tEDpOT_
	.p2align	2
	.type	_ZNSt3__227__optional_move_assign_baseIfLb1EECI2NS_24__optional_destruct_baseIfLb1EEEIJRfEEENS_10in_place_tEDpOT_,%function
	.code	16                              @ @_ZNSt3__227__optional_move_assign_baseIfLb1EECI2NS_24__optional_destruct_baseIfLb1EEEIJRfEEENS_10in_place_tEDpOT_
	.thumb_func
_ZNSt3__227__optional_move_assign_baseIfLb1EECI2NS_24__optional_destruct_baseIfLb1EEEIJRfEEENS_10in_place_tEDpOT_:
.Lfunc_begin41:
	.loc	3 640 0 is_stmt 1               @ D:\Embed\MDK\MDK\ARM\ARMCompilerV621\Bin\..\include\libcxx\optional:640:0
	.fnstart
	.cfi_startproc
@ %bb.0:
	.save	{r7, lr}
	push	{r7, lr}
	.cfi_def_cfa_offset 8
	.cfi_offset lr, -4
	.cfi_offset r7, -8
	.pad	#16
	sub	sp, #16
	.cfi_def_cfa_offset 24
	str	r0, [sp, #8]
	str	r1, [sp, #4]
	ldr	r0, [sp, #8]
.Ltmp90:
	.loc	3 640 45 prologue_end           @ D:\Embed\MDK\MDK\ARM\ARMCompilerV621\Bin\..\include\libcxx\optional:640:45
	str	r0, [sp]                        @ 4-byte Spill
	ldr	r1, [sp, #4]
	bl	_ZNSt3__227__optional_copy_assign_baseIfLb1EECI2NS_24__optional_destruct_baseIfLb1EEEIJRfEEENS_10in_place_tEDpOT_
	ldr	r0, [sp]                        @ 4-byte Reload
	.loc	3 640 45 epilogue_begin is_stmt 0 @ D:\Embed\MDK\MDK\ARM\ARMCompilerV621\Bin\..\include\libcxx\optional:640:45
	add	sp, #16
	pop	{r7, pc}
.Ltmp91:
.Lfunc_end41:
	.size	_ZNSt3__227__optional_move_assign_baseIfLb1EECI2NS_24__optional_destruct_baseIfLb1EEEIJRfEEENS_10in_place_tEDpOT_, .Lfunc_end41-_ZNSt3__227__optional_move_assign_baseIfLb1EECI2NS_24__optional_destruct_baseIfLb1EEEIJRfEEENS_10in_place_tEDpOT_
	.cfi_endproc
	.cantunwind
	.fnend
                                        @ -- End function
	.section	.text._ZNSt3__227__optional_copy_assign_baseIfLb1EECI2NS_24__optional_destruct_baseIfLb1EEEIJRfEEENS_10in_place_tEDpOT_,"axG",%progbits,_ZNSt3__227__optional_copy_assign_baseIfLb1EECI2NS_24__optional_destruct_baseIfLb1EEEIJRfEEENS_10in_place_tEDpOT_,comdat
	.hidden	_ZNSt3__227__optional_copy_assign_baseIfLb1EECI2NS_24__optional_destruct_baseIfLb1EEEIJRfEEENS_10in_place_tEDpOT_ @ -- Begin function _ZNSt3__227__optional_copy_assign_baseIfLb1EECI2NS_24__optional_destruct_baseIfLb1EEEIJRfEEENS_10in_place_tEDpOT_
	.weak	_ZNSt3__227__optional_copy_assign_baseIfLb1EECI2NS_24__optional_destruct_baseIfLb1EEEIJRfEEENS_10in_place_tEDpOT_
	.p2align	2
	.type	_ZNSt3__227__optional_copy_assign_baseIfLb1EECI2NS_24__optional_destruct_baseIfLb1EEEIJRfEEENS_10in_place_tEDpOT_,%function
	.code	16                              @ @_ZNSt3__227__optional_copy_assign_baseIfLb1EECI2NS_24__optional_destruct_baseIfLb1EEEIJRfEEENS_10in_place_tEDpOT_
	.thumb_func
_ZNSt3__227__optional_copy_assign_baseIfLb1EECI2NS_24__optional_destruct_baseIfLb1EEEIJRfEEENS_10in_place_tEDpOT_:
.Lfunc_begin42:
	.loc	3 608 0 is_stmt 1               @ D:\Embed\MDK\MDK\ARM\ARMCompilerV621\Bin\..\include\libcxx\optional:608:0
	.fnstart
	.cfi_startproc
@ %bb.0:
	.save	{r7, lr}
	push	{r7, lr}
	.cfi_def_cfa_offset 8
	.cfi_offset lr, -4
	.cfi_offset r7, -8
	.pad	#16
	sub	sp, #16
	.cfi_def_cfa_offset 24
	str	r0, [sp, #8]
	str	r1, [sp, #4]
	ldr	r0, [sp, #8]
.Ltmp92:
	.loc	3 608 38 prologue_end           @ D:\Embed\MDK\MDK\ARM\ARMCompilerV621\Bin\..\include\libcxx\optional:608:38
	str	r0, [sp]                        @ 4-byte Spill
	ldr	r1, [sp, #4]
	bl	_ZNSt3__220__optional_move_baseIfLb1EECI2NS_24__optional_destruct_baseIfLb1EEEIJRfEEENS_10in_place_tEDpOT_
	ldr	r0, [sp]                        @ 4-byte Reload
	.loc	3 608 38 epilogue_begin is_stmt 0 @ D:\Embed\MDK\MDK\ARM\ARMCompilerV621\Bin\..\include\libcxx\optional:608:38
	add	sp, #16
	pop	{r7, pc}
.Ltmp93:
.Lfunc_end42:
	.size	_ZNSt3__227__optional_copy_assign_baseIfLb1EECI2NS_24__optional_destruct_baseIfLb1EEEIJRfEEENS_10in_place_tEDpOT_, .Lfunc_end42-_ZNSt3__227__optional_copy_assign_baseIfLb1EECI2NS_24__optional_destruct_baseIfLb1EEEIJRfEEENS_10in_place_tEDpOT_
	.cfi_endproc
	.cantunwind
	.fnend
                                        @ -- End function
	.section	.text._ZNSt3__220__optional_move_baseIfLb1EECI2NS_24__optional_destruct_baseIfLb1EEEIJRfEEENS_10in_place_tEDpOT_,"axG",%progbits,_ZNSt3__220__optional_move_baseIfLb1EECI2NS_24__optional_destruct_baseIfLb1EEEIJRfEEENS_10in_place_tEDpOT_,comdat
	.hidden	_ZNSt3__220__optional_move_baseIfLb1EECI2NS_24__optional_destruct_baseIfLb1EEEIJRfEEENS_10in_place_tEDpOT_ @ -- Begin function _ZNSt3__220__optional_move_baseIfLb1EECI2NS_24__optional_destruct_baseIfLb1EEEIJRfEEENS_10in_place_tEDpOT_
	.weak	_ZNSt3__220__optional_move_baseIfLb1EECI2NS_24__optional_destruct_baseIfLb1EEEIJRfEEENS_10in_place_tEDpOT_
	.p2align	2
	.type	_ZNSt3__220__optional_move_baseIfLb1EECI2NS_24__optional_destruct_baseIfLb1EEEIJRfEEENS_10in_place_tEDpOT_,%function
	.code	16                              @ @_ZNSt3__220__optional_move_baseIfLb1EECI2NS_24__optional_destruct_baseIfLb1EEEIJRfEEENS_10in_place_tEDpOT_
	.thumb_func
_ZNSt3__220__optional_move_baseIfLb1EECI2NS_24__optional_destruct_baseIfLb1EEEIJRfEEENS_10in_place_tEDpOT_:
.Lfunc_begin43:
	.loc	3 575 0 is_stmt 1               @ D:\Embed\MDK\MDK\ARM\ARMCompilerV621\Bin\..\include\libcxx\optional:575:0
	.fnstart
	.cfi_startproc
@ %bb.0:
	.save	{r7, lr}
	push	{r7, lr}
	.cfi_def_cfa_offset 8
	.cfi_offset lr, -4
	.cfi_offset r7, -8
	.pad	#16
	sub	sp, #16
	.cfi_def_cfa_offset 24
	str	r0, [sp, #8]
	str	r1, [sp, #4]
	ldr	r0, [sp, #8]
.Ltmp94:
	.loc	3 575 38 prologue_end           @ D:\Embed\MDK\MDK\ARM\ARMCompilerV621\Bin\..\include\libcxx\optional:575:38
	str	r0, [sp]                        @ 4-byte Spill
	ldr	r1, [sp, #4]
	bl	_ZNSt3__220__optional_copy_baseIfLb1EECI2NS_24__optional_destruct_baseIfLb1EEEIJRfEEENS_10in_place_tEDpOT_
	ldr	r0, [sp]                        @ 4-byte Reload
	.loc	3 575 38 epilogue_begin is_stmt 0 @ D:\Embed\MDK\MDK\ARM\ARMCompilerV621\Bin\..\include\libcxx\optional:575:38
	add	sp, #16
	pop	{r7, pc}
.Ltmp95:
.Lfunc_end43:
	.size	_ZNSt3__220__optional_move_baseIfLb1EECI2NS_24__optional_destruct_baseIfLb1EEEIJRfEEENS_10in_place_tEDpOT_, .Lfunc_end43-_ZNSt3__220__optional_move_baseIfLb1EECI2NS_24__optional_destruct_baseIfLb1EEEIJRfEEENS_10in_place_tEDpOT_
	.cfi_endproc
	.cantunwind
	.fnend
                                        @ -- End function
	.section	.text._ZNSt3__220__optional_copy_baseIfLb1EECI2NS_24__optional_destruct_baseIfLb1EEEIJRfEEENS_10in_place_tEDpOT_,"axG",%progbits,_ZNSt3__220__optional_copy_baseIfLb1EECI2NS_24__optional_destruct_baseIfLb1EEEIJRfEEENS_10in_place_tEDpOT_,comdat
	.hidden	_ZNSt3__220__optional_copy_baseIfLb1EECI2NS_24__optional_destruct_baseIfLb1EEEIJRfEEENS_10in_place_tEDpOT_ @ -- Begin function _ZNSt3__220__optional_copy_baseIfLb1EECI2NS_24__optional_destruct_baseIfLb1EEEIJRfEEENS_10in_place_tEDpOT_
	.weak	_ZNSt3__220__optional_copy_baseIfLb1EECI2NS_24__optional_destruct_baseIfLb1EEEIJRfEEENS_10in_place_tEDpOT_
	.p2align	2
	.type	_ZNSt3__220__optional_copy_baseIfLb1EECI2NS_24__optional_destruct_baseIfLb1EEEIJRfEEENS_10in_place_tEDpOT_,%function
	.code	16                              @ @_ZNSt3__220__optional_copy_baseIfLb1EECI2NS_24__optional_destruct_baseIfLb1EEEIJRfEEENS_10in_place_tEDpOT_
	.thumb_func
_ZNSt3__220__optional_copy_baseIfLb1EECI2NS_24__optional_destruct_baseIfLb1EEEIJRfEEENS_10in_place_tEDpOT_:
.Lfunc_begin44:
	.loc	3 547 0 is_stmt 1               @ D:\Embed\MDK\MDK\ARM\ARMCompilerV621\Bin\..\include\libcxx\optional:547:0
	.fnstart
	.cfi_startproc
@ %bb.0:
	.save	{r7, lr}
	push	{r7, lr}
	.cfi_def_cfa_offset 8
	.cfi_offset lr, -4
	.cfi_offset r7, -8
	.pad	#16
	sub	sp, #16
	.cfi_def_cfa_offset 24
	str	r0, [sp, #8]
	str	r1, [sp, #4]
	ldr	r0, [sp, #8]
.Ltmp96:
	.loc	3 547 41 prologue_end           @ D:\Embed\MDK\MDK\ARM\ARMCompilerV621\Bin\..\include\libcxx\optional:547:41
	str	r0, [sp]                        @ 4-byte Spill
	ldr	r1, [sp, #4]
	bl	_ZNSt3__223__optional_storage_baseIfLb0EECI2NS_24__optional_destruct_baseIfLb1EEEIJRfEEENS_10in_place_tEDpOT_
	ldr	r0, [sp]                        @ 4-byte Reload
	.loc	3 547 41 epilogue_begin is_stmt 0 @ D:\Embed\MDK\MDK\ARM\ARMCompilerV621\Bin\..\include\libcxx\optional:547:41
	add	sp, #16
	pop	{r7, pc}
.Ltmp97:
.Lfunc_end44:
	.size	_ZNSt3__220__optional_copy_baseIfLb1EECI2NS_24__optional_destruct_baseIfLb1EEEIJRfEEENS_10in_place_tEDpOT_, .Lfunc_end44-_ZNSt3__220__optional_copy_baseIfLb1EECI2NS_24__optional_destruct_baseIfLb1EEEIJRfEEENS_10in_place_tEDpOT_
	.cfi_endproc
	.cantunwind
	.fnend
                                        @ -- End function
	.section	.text._ZNSt3__223__optional_storage_baseIfLb0EECI2NS_24__optional_destruct_baseIfLb1EEEIJRfEEENS_10in_place_tEDpOT_,"axG",%progbits,_ZNSt3__223__optional_storage_baseIfLb0EECI2NS_24__optional_destruct_baseIfLb1EEEIJRfEEENS_10in_place_tEDpOT_,comdat
	.hidden	_ZNSt3__223__optional_storage_baseIfLb0EECI2NS_24__optional_destruct_baseIfLb1EEEIJRfEEENS_10in_place_tEDpOT_ @ -- Begin function _ZNSt3__223__optional_storage_baseIfLb0EECI2NS_24__optional_destruct_baseIfLb1EEEIJRfEEENS_10in_place_tEDpOT_
	.weak	_ZNSt3__223__optional_storage_baseIfLb0EECI2NS_24__optional_destruct_baseIfLb1EEEIJRfEEENS_10in_place_tEDpOT_
	.p2align	2
	.type	_ZNSt3__223__optional_storage_baseIfLb0EECI2NS_24__optional_destruct_baseIfLb1EEEIJRfEEENS_10in_place_tEDpOT_,%function
	.code	16                              @ @_ZNSt3__223__optional_storage_baseIfLb0EECI2NS_24__optional_destruct_baseIfLb1EEEIJRfEEENS_10in_place_tEDpOT_
	.thumb_func
_ZNSt3__223__optional_storage_baseIfLb0EECI2NS_24__optional_destruct_baseIfLb1EEEIJRfEEENS_10in_place_tEDpOT_:
.Lfunc_begin45:
	.loc	3 382 0 is_stmt 1               @ D:\Embed\MDK\MDK\ARM\ARMCompilerV621\Bin\..\include\libcxx\optional:382:0
	.fnstart
	.cfi_startproc
@ %bb.0:
	.save	{r7, lr}
	push	{r7, lr}
	.cfi_def_cfa_offset 8
	.cfi_offset lr, -4
	.cfi_offset r7, -8
	.pad	#16
	sub	sp, #16
	.cfi_def_cfa_offset 24
	str	r0, [sp, #8]
	str	r1, [sp, #4]
	ldr	r0, [sp, #8]
.Ltmp98:
	.loc	3 382 19 prologue_end           @ D:\Embed\MDK\MDK\ARM\ARMCompilerV621\Bin\..\include\libcxx\optional:382:19
	str	r0, [sp]                        @ 4-byte Spill
	ldr	r1, [sp, #4]
	bl	_ZNSt3__224__optional_destruct_baseIfLb1EEC2B7v180000IJRfEEENS_10in_place_tEDpOT_
	ldr	r0, [sp]                        @ 4-byte Reload
	.loc	3 382 19 epilogue_begin is_stmt 0 @ D:\Embed\MDK\MDK\ARM\ARMCompilerV621\Bin\..\include\libcxx\optional:382:19
	add	sp, #16
	pop	{r7, pc}
.Ltmp99:
.Lfunc_end45:
	.size	_ZNSt3__223__optional_storage_baseIfLb0EECI2NS_24__optional_destruct_baseIfLb1EEEIJRfEEENS_10in_place_tEDpOT_, .Lfunc_end45-_ZNSt3__223__optional_storage_baseIfLb0EECI2NS_24__optional_destruct_baseIfLb1EEEIJRfEEENS_10in_place_tEDpOT_
	.cfi_endproc
	.cantunwind
	.fnend
                                        @ -- End function
	.section	.text._ZNSt3__224__optional_destruct_baseIfLb1EEC2B7v180000IJRfEEENS_10in_place_tEDpOT_,"axG",%progbits,_ZNSt3__224__optional_destruct_baseIfLb1EEC2B7v180000IJRfEEENS_10in_place_tEDpOT_,comdat
	.hidden	_ZNSt3__224__optional_destruct_baseIfLb1EEC2B7v180000IJRfEEENS_10in_place_tEDpOT_ @ -- Begin function _ZNSt3__224__optional_destruct_baseIfLb1EEC2B7v180000IJRfEEENS_10in_place_tEDpOT_
	.weak	_ZNSt3__224__optional_destruct_baseIfLb1EEC2B7v180000IJRfEEENS_10in_place_tEDpOT_
	.p2align	2
	.type	_ZNSt3__224__optional_destruct_baseIfLb1EEC2B7v180000IJRfEEENS_10in_place_tEDpOT_,%function
	.code	16                              @ @_ZNSt3__224__optional_destruct_baseIfLb1EEC2B7v180000IJRfEEENS_10in_place_tEDpOT_
	.thumb_func
_ZNSt3__224__optional_destruct_baseIfLb1EEC2B7v180000IJRfEEENS_10in_place_tEDpOT_:
.Lfunc_begin46:
	.loc	3 358 0 is_stmt 1               @ D:\Embed\MDK\MDK\ARM\ARMCompilerV621\Bin\..\include\libcxx\optional:358:0
	.fnstart
	.cfi_startproc
@ %bb.0:
	.pad	#12
	sub	sp, #12
	.cfi_def_cfa_offset 12
	str	r0, [sp, #4]
	str	r1, [sp]
	ldr	r0, [sp, #4]
.Ltmp100:
	.loc	3 357 41 prologue_end           @ D:\Embed\MDK\MDK\ARM\ARMCompilerV621\Bin\..\include\libcxx\optional:357:41
	ldr	r1, [sp]
	.loc	3 357 19 is_stmt 0              @ D:\Embed\MDK\MDK\ARM\ARMCompilerV621\Bin\..\include\libcxx\optional:357:19
	ldr	r1, [r1]
	.loc	3 357 12                        @ D:\Embed\MDK\MDK\ARM\ARMCompilerV621\Bin\..\include\libcxx\optional:357:12
	str	r1, [r0]
	movs	r1, #1
	.loc	3 358 12 is_stmt 1              @ D:\Embed\MDK\MDK\ARM\ARMCompilerV621\Bin\..\include\libcxx\optional:358:12
	strb	r1, [r0, #4]
	.loc	3 358 30 epilogue_begin is_stmt 0 @ D:\Embed\MDK\MDK\ARM\ARMCompilerV621\Bin\..\include\libcxx\optional:358:30
	add	sp, #12
	bx	lr
.Ltmp101:
.Lfunc_end46:
	.size	_ZNSt3__224__optional_destruct_baseIfLb1EEC2B7v180000IJRfEEENS_10in_place_tEDpOT_, .Lfunc_end46-_ZNSt3__224__optional_destruct_baseIfLb1EEC2B7v180000IJRfEEENS_10in_place_tEDpOT_
	.cfi_endproc
	.cantunwind
	.fnend
                                        @ -- End function
	.section	.text._ZNSt3__227__optional_move_assign_baseIfLb1EEC2Ev,"axG",%progbits,_ZNSt3__227__optional_move_assign_baseIfLb1EEC2Ev,comdat
	.hidden	_ZNSt3__227__optional_move_assign_baseIfLb1EEC2Ev @ -- Begin function _ZNSt3__227__optional_move_assign_baseIfLb1EEC2Ev
	.weak	_ZNSt3__227__optional_move_assign_baseIfLb1EEC2Ev
	.p2align	2
	.type	_ZNSt3__227__optional_move_assign_baseIfLb1EEC2Ev,%function
	.code	16                              @ @_ZNSt3__227__optional_move_assign_baseIfLb1EEC2Ev
	.thumb_func
_ZNSt3__227__optional_move_assign_baseIfLb1EEC2Ev:
.Lfunc_begin47:
	.loc	3 638 0 is_stmt 1               @ D:\Embed\MDK\MDK\ARM\ARMCompilerV621\Bin\..\include\libcxx\optional:638:0
	.fnstart
	.cfi_startproc
@ %bb.0:
	.save	{r7, lr}
	push	{r7, lr}
	.cfi_def_cfa_offset 8
	.cfi_offset lr, -4
	.cfi_offset r7, -8
	.pad	#8
	sub	sp, #8
	.cfi_def_cfa_offset 16
	str	r0, [sp, #4]
	ldr	r0, [sp, #4]
.Ltmp102:
	.loc	3 638 8 prologue_end            @ D:\Embed\MDK\MDK\ARM\ARMCompilerV621\Bin\..\include\libcxx\optional:638:8
	str	r0, [sp]                        @ 4-byte Spill
	bl	_ZNSt3__227__optional_copy_assign_baseIfLb1EEC2Ev
	ldr	r0, [sp]                        @ 4-byte Reload
	.loc	3 638 8 epilogue_begin is_stmt 0 @ D:\Embed\MDK\MDK\ARM\ARMCompilerV621\Bin\..\include\libcxx\optional:638:8
	add	sp, #8
	pop	{r7, pc}
.Ltmp103:
.Lfunc_end47:
	.size	_ZNSt3__227__optional_move_assign_baseIfLb1EEC2Ev, .Lfunc_end47-_ZNSt3__227__optional_move_assign_baseIfLb1EEC2Ev
	.cfi_endproc
	.cantunwind
	.fnend
                                        @ -- End function
	.section	.text._ZNSt3__227__optional_copy_assign_baseIfLb1EEC2Ev,"axG",%progbits,_ZNSt3__227__optional_copy_assign_baseIfLb1EEC2Ev,comdat
	.hidden	_ZNSt3__227__optional_copy_assign_baseIfLb1EEC2Ev @ -- Begin function _ZNSt3__227__optional_copy_assign_baseIfLb1EEC2Ev
	.weak	_ZNSt3__227__optional_copy_assign_baseIfLb1EEC2Ev
	.p2align	2
	.type	_ZNSt3__227__optional_copy_assign_baseIfLb1EEC2Ev,%function
	.code	16                              @ @_ZNSt3__227__optional_copy_assign_baseIfLb1EEC2Ev
	.thumb_func
_ZNSt3__227__optional_copy_assign_baseIfLb1EEC2Ev:
.Lfunc_begin48:
	.loc	3 606 0 is_stmt 1               @ D:\Embed\MDK\MDK\ARM\ARMCompilerV621\Bin\..\include\libcxx\optional:606:0
	.fnstart
	.cfi_startproc
@ %bb.0:
	.save	{r7, lr}
	push	{r7, lr}
	.cfi_def_cfa_offset 8
	.cfi_offset lr, -4
	.cfi_offset r7, -8
	.pad	#8
	sub	sp, #8
	.cfi_def_cfa_offset 16
	str	r0, [sp, #4]
	ldr	r0, [sp, #4]
.Ltmp104:
	.loc	3 606 8 prologue_end            @ D:\Embed\MDK\MDK\ARM\ARMCompilerV621\Bin\..\include\libcxx\optional:606:8
	str	r0, [sp]                        @ 4-byte Spill
	bl	_ZNSt3__220__optional_move_baseIfLb1EEC2Ev
	ldr	r0, [sp]                        @ 4-byte Reload
	.loc	3 606 8 epilogue_begin is_stmt 0 @ D:\Embed\MDK\MDK\ARM\ARMCompilerV621\Bin\..\include\libcxx\optional:606:8
	add	sp, #8
	pop	{r7, pc}
.Ltmp105:
.Lfunc_end48:
	.size	_ZNSt3__227__optional_copy_assign_baseIfLb1EEC2Ev, .Lfunc_end48-_ZNSt3__227__optional_copy_assign_baseIfLb1EEC2Ev
	.cfi_endproc
	.cantunwind
	.fnend
                                        @ -- End function
	.section	.text._ZNSt3__220__optional_move_baseIfLb1EEC2Ev,"axG",%progbits,_ZNSt3__220__optional_move_baseIfLb1EEC2Ev,comdat
	.hidden	_ZNSt3__220__optional_move_baseIfLb1EEC2Ev @ -- Begin function _ZNSt3__220__optional_move_baseIfLb1EEC2Ev
	.weak	_ZNSt3__220__optional_move_baseIfLb1EEC2Ev
	.p2align	2
	.type	_ZNSt3__220__optional_move_baseIfLb1EEC2Ev,%function
	.code	16                              @ @_ZNSt3__220__optional_move_baseIfLb1EEC2Ev
	.thumb_func
_ZNSt3__220__optional_move_baseIfLb1EEC2Ev:
.Lfunc_begin49:
	.loc	3 573 0 is_stmt 1               @ D:\Embed\MDK\MDK\ARM\ARMCompilerV621\Bin\..\include\libcxx\optional:573:0
	.fnstart
	.cfi_startproc
@ %bb.0:
	.save	{r7, lr}
	push	{r7, lr}
	.cfi_def_cfa_offset 8
	.cfi_offset lr, -4
	.cfi_offset r7, -8
	.pad	#8
	sub	sp, #8
	.cfi_def_cfa_offset 16
	str	r0, [sp, #4]
	ldr	r0, [sp, #4]
.Ltmp106:
	.loc	3 573 8 prologue_end            @ D:\Embed\MDK\MDK\ARM\ARMCompilerV621\Bin\..\include\libcxx\optional:573:8
	str	r0, [sp]                        @ 4-byte Spill
	bl	_ZNSt3__220__optional_copy_baseIfLb1EEC2Ev
	ldr	r0, [sp]                        @ 4-byte Reload
	.loc	3 573 8 epilogue_begin is_stmt 0 @ D:\Embed\MDK\MDK\ARM\ARMCompilerV621\Bin\..\include\libcxx\optional:573:8
	add	sp, #8
	pop	{r7, pc}
.Ltmp107:
.Lfunc_end49:
	.size	_ZNSt3__220__optional_move_baseIfLb1EEC2Ev, .Lfunc_end49-_ZNSt3__220__optional_move_baseIfLb1EEC2Ev
	.cfi_endproc
	.cantunwind
	.fnend
                                        @ -- End function
	.section	.text._ZNSt3__220__optional_copy_baseIfLb1EEC2Ev,"axG",%progbits,_ZNSt3__220__optional_copy_baseIfLb1EEC2Ev,comdat
	.hidden	_ZNSt3__220__optional_copy_baseIfLb1EEC2Ev @ -- Begin function _ZNSt3__220__optional_copy_baseIfLb1EEC2Ev
	.weak	_ZNSt3__220__optional_copy_baseIfLb1EEC2Ev
	.p2align	2
	.type	_ZNSt3__220__optional_copy_baseIfLb1EEC2Ev,%function
	.code	16                              @ @_ZNSt3__220__optional_copy_baseIfLb1EEC2Ev
	.thumb_func
_ZNSt3__220__optional_copy_baseIfLb1EEC2Ev:
.Lfunc_begin50:
	.loc	3 545 0 is_stmt 1               @ D:\Embed\MDK\MDK\ARM\ARMCompilerV621\Bin\..\include\libcxx\optional:545:0
	.fnstart
	.cfi_startproc
@ %bb.0:
	.save	{r7, lr}
	push	{r7, lr}
	.cfi_def_cfa_offset 8
	.cfi_offset lr, -4
	.cfi_offset r7, -8
	.pad	#8
	sub	sp, #8
	.cfi_def_cfa_offset 16
	str	r0, [sp, #4]
	ldr	r0, [sp, #4]
.Ltmp108:
	.loc	3 545 8 prologue_end            @ D:\Embed\MDK\MDK\ARM\ARMCompilerV621\Bin\..\include\libcxx\optional:545:8
	str	r0, [sp]                        @ 4-byte Spill
	bl	_ZNSt3__223__optional_storage_baseIfLb0EEC2Ev
	ldr	r0, [sp]                        @ 4-byte Reload
	.loc	3 545 8 epilogue_begin is_stmt 0 @ D:\Embed\MDK\MDK\ARM\ARMCompilerV621\Bin\..\include\libcxx\optional:545:8
	add	sp, #8
	pop	{r7, pc}
.Ltmp109:
.Lfunc_end50:
	.size	_ZNSt3__220__optional_copy_baseIfLb1EEC2Ev, .Lfunc_end50-_ZNSt3__220__optional_copy_baseIfLb1EEC2Ev
	.cfi_endproc
	.cantunwind
	.fnend
                                        @ -- End function
	.section	.text._ZNSt3__223__optional_storage_baseIfLb0EEC2Ev,"axG",%progbits,_ZNSt3__223__optional_storage_baseIfLb0EEC2Ev,comdat
	.hidden	_ZNSt3__223__optional_storage_baseIfLb0EEC2Ev @ -- Begin function _ZNSt3__223__optional_storage_baseIfLb0EEC2Ev
	.weak	_ZNSt3__223__optional_storage_baseIfLb0EEC2Ev
	.p2align	2
	.type	_ZNSt3__223__optional_storage_baseIfLb0EEC2Ev,%function
	.code	16                              @ @_ZNSt3__223__optional_storage_baseIfLb0EEC2Ev
	.thumb_func
_ZNSt3__223__optional_storage_baseIfLb0EEC2Ev:
.Lfunc_begin51:
	.loc	3 378 0 is_stmt 1               @ D:\Embed\MDK\MDK\ARM\ARMCompilerV621\Bin\..\include\libcxx\optional:378:0
	.fnstart
	.cfi_startproc
@ %bb.0:
	.save	{r7, lr}
	push	{r7, lr}
	.cfi_def_cfa_offset 8
	.cfi_offset lr, -4
	.cfi_offset r7, -8
	.pad	#8
	sub	sp, #8
	.cfi_def_cfa_offset 16
	str	r0, [sp, #4]
	ldr	r0, [sp, #4]
.Ltmp110:
	.loc	3 378 8 prologue_end            @ D:\Embed\MDK\MDK\ARM\ARMCompilerV621\Bin\..\include\libcxx\optional:378:8
	str	r0, [sp]                        @ 4-byte Spill
	bl	_ZNSt3__224__optional_destruct_baseIfLb1EEC2B7v180000Ev
	ldr	r0, [sp]                        @ 4-byte Reload
	.loc	3 378 8 epilogue_begin is_stmt 0 @ D:\Embed\MDK\MDK\ARM\ARMCompilerV621\Bin\..\include\libcxx\optional:378:8
	add	sp, #8
	pop	{r7, pc}
.Ltmp111:
.Lfunc_end51:
	.size	_ZNSt3__223__optional_storage_baseIfLb0EEC2Ev, .Lfunc_end51-_ZNSt3__223__optional_storage_baseIfLb0EEC2Ev
	.cfi_endproc
	.cantunwind
	.fnend
                                        @ -- End function
	.section	.text._ZNSt3__224__optional_destruct_baseIfLb1EEC2B7v180000Ev,"axG",%progbits,_ZNSt3__224__optional_destruct_baseIfLb1EEC2B7v180000Ev,comdat
	.hidden	_ZNSt3__224__optional_destruct_baseIfLb1EEC2B7v180000Ev @ -- Begin function _ZNSt3__224__optional_destruct_baseIfLb1EEC2B7v180000Ev
	.weak	_ZNSt3__224__optional_destruct_baseIfLb1EEC2B7v180000Ev
	.p2align	2
	.type	_ZNSt3__224__optional_destruct_baseIfLb1EEC2B7v180000Ev,%function
	.code	16                              @ @_ZNSt3__224__optional_destruct_baseIfLb1EEC2B7v180000Ev
	.thumb_func
_ZNSt3__224__optional_destruct_baseIfLb1EEC2B7v180000Ev:
.Lfunc_begin52:
	.loc	3 352 0 is_stmt 1               @ D:\Embed\MDK\MDK\ARM\ARMCompilerV621\Bin\..\include\libcxx\optional:352:0
	.fnstart
	.cfi_startproc
@ %bb.0:
	.pad	#4
	sub	sp, #4
	.cfi_def_cfa_offset 4
	str	r0, [sp]
	ldr	r0, [sp]
	movs	r1, #0
.Ltmp112:
	.loc	3 351 12 prologue_end           @ D:\Embed\MDK\MDK\ARM\ARMCompilerV621\Bin\..\include\libcxx\optional:351:12
	strb	r1, [r0]
	.loc	3 352 12                        @ D:\Embed\MDK\MDK\ARM\ARMCompilerV621\Bin\..\include\libcxx\optional:352:12
	strb	r1, [r0, #4]
	.loc	3 352 31 epilogue_begin is_stmt 0 @ D:\Embed\MDK\MDK\ARM\ARMCompilerV621\Bin\..\include\libcxx\optional:352:31
	add	sp, #4
	bx	lr
.Ltmp113:
.Lfunc_end52:
	.size	_ZNSt3__224__optional_destruct_baseIfLb1EEC2B7v180000Ev, .Lfunc_end52-_ZNSt3__224__optional_destruct_baseIfLb1EEC2B7v180000Ev
	.cfi_endproc
	.cantunwind
	.fnend
                                        @ -- End function
	.section	.text._ZNSt3__24pairIffEaSB7v180000ERKS1_,"axG",%progbits,_ZNSt3__24pairIffEaSB7v180000ERKS1_,comdat
	.hidden	_ZNSt3__24pairIffEaSB7v180000ERKS1_ @ -- Begin function _ZNSt3__24pairIffEaSB7v180000ERKS1_
	.weak	_ZNSt3__24pairIffEaSB7v180000ERKS1_
	.p2align	2
	.type	_ZNSt3__24pairIffEaSB7v180000ERKS1_,%function
	.code	16                              @ @_ZNSt3__24pairIffEaSB7v180000ERKS1_
	.thumb_func
_ZNSt3__24pairIffEaSB7v180000ERKS1_:
.Lfunc_begin53:
	.loc	4 311 0 is_stmt 1               @ D:\Embed\MDK\MDK\ARM\ARMCompilerV621\Bin\..\include\libcxx\__utility/pair.h:311:0
	.fnstart
	.cfi_startproc
@ %bb.0:
	.pad	#8
	sub	sp, #8
	.cfi_def_cfa_offset 8
	str	r0, [sp, #4]
	str	r1, [sp]
	ldr	r0, [sp, #4]
.Ltmp114:
	.loc	4 312 17 prologue_end           @ D:\Embed\MDK\MDK\ARM\ARMCompilerV621\Bin\..\include\libcxx\__utility/pair.h:312:17
	ldr	r1, [sp]
	.loc	4 312 21 is_stmt 0              @ D:\Embed\MDK\MDK\ARM\ARMCompilerV621\Bin\..\include\libcxx\__utility/pair.h:312:21
	ldr	r1, [r1]
	.loc	4 312 15                        @ D:\Embed\MDK\MDK\ARM\ARMCompilerV621\Bin\..\include\libcxx\__utility/pair.h:312:15
	str	r1, [r0]
	.loc	4 313 18 is_stmt 1              @ D:\Embed\MDK\MDK\ARM\ARMCompilerV621\Bin\..\include\libcxx\__utility/pair.h:313:18
	ldr	r1, [sp]
	.loc	4 313 22 is_stmt 0              @ D:\Embed\MDK\MDK\ARM\ARMCompilerV621\Bin\..\include\libcxx\__utility/pair.h:313:22
	ldr	r1, [r1, #4]
	.loc	4 313 16                        @ D:\Embed\MDK\MDK\ARM\ARMCompilerV621\Bin\..\include\libcxx\__utility/pair.h:313:16
	str	r1, [r0, #4]
	.loc	4 314 9 epilogue_begin is_stmt 1 @ D:\Embed\MDK\MDK\ARM\ARMCompilerV621\Bin\..\include\libcxx\__utility/pair.h:314:9
	add	sp, #8
	bx	lr
.Ltmp115:
.Lfunc_end53:
	.size	_ZNSt3__24pairIffEaSB7v180000ERKS1_, .Lfunc_end53-_ZNSt3__24pairIffEaSB7v180000ERKS1_
	.cfi_endproc
	.cantunwind
	.fnend
                                        @ -- End function
	.hidden	_ZTV18OpenLoopController        @ @_ZTV18OpenLoopController
	.type	_ZTV18OpenLoopController,%object
	.section	.rodata._ZTV18OpenLoopController,"a",%progbits
	.globl	_ZTV18OpenLoopController
	.p2align	2, 0x0
_ZTV18OpenLoopController:
	.long	0
	.long	_ZTI18OpenLoopController
	.long	_ZN18OpenLoopController6updateEj
	.size	_ZTV18OpenLoopController, 12

	.hidden	_ZTS18OpenLoopController        @ @_ZTS18OpenLoopController
	.type	_ZTS18OpenLoopController,%object
	.section	.rodata._ZTS18OpenLoopController,"a",%progbits
	.globl	_ZTS18OpenLoopController
_ZTS18OpenLoopController:
	.asciz	"18OpenLoopController"
	.size	_ZTS18OpenLoopController, 21

	.hidden	_ZTS13ComponentBase             @ @_ZTS13ComponentBase
	.type	_ZTS13ComponentBase,%object
	.section	.rodata._ZTS13ComponentBase,"aG",%progbits,_ZTS13ComponentBase,comdat
	.weak	_ZTS13ComponentBase
_ZTS13ComponentBase:
	.asciz	"13ComponentBase"
	.size	_ZTS13ComponentBase, 16

	.hidden	_ZTI13ComponentBase             @ @_ZTI13ComponentBase
	.type	_ZTI13ComponentBase,%object
	.section	.rodata._ZTI13ComponentBase,"aG",%progbits,_ZTI13ComponentBase,comdat
	.weak	_ZTI13ComponentBase
	.p2align	2, 0x0
_ZTI13ComponentBase:
	.long	_ZTVN10__cxxabiv117__class_type_infoE+8
	.long	_ZTS13ComponentBase
	.size	_ZTI13ComponentBase, 8

	.hidden	_ZTI18OpenLoopController        @ @_ZTI18OpenLoopController
	.type	_ZTI18OpenLoopController,%object
	.section	.rodata._ZTI18OpenLoopController,"a",%progbits
	.globl	_ZTI18OpenLoopController
	.p2align	2, 0x0
_ZTI18OpenLoopController:
	.long	_ZTVN10__cxxabiv120__si_class_type_infoE+8
	.long	_ZTS18OpenLoopController
	.long	_ZTI13ComponentBase
	.size	_ZTI18OpenLoopController, 12

	.hidden	_ZNSt3__27nulloptE              @ @_ZNSt3__27nulloptE
	.type	_ZNSt3__27nulloptE,%object
	.section	.rodata._ZNSt3__27nulloptE,"aG",%progbits,_ZNSt3__27nulloptE,comdat
	.weak	_ZNSt3__27nulloptE
_ZNSt3__27nulloptE:
	.zero	1
	.size	_ZNSt3__27nulloptE, 1

	.hidden	_ZNSt3__28in_placeE             @ @_ZNSt3__28in_placeE
	.type	_ZNSt3__28in_placeE,%object
	.section	.rodata._ZNSt3__28in_placeE,"aG",%progbits,_ZNSt3__28in_placeE,comdat
	.weak	_ZNSt3__28in_placeE
_ZNSt3__28in_placeE:
	.zero	1
	.size	_ZNSt3__28in_placeE, 1

	.file	14 "D:\\Embed\\MDK\\MDK\\ARM\\ARMCompilerV621\\Bin\\..\\include" "stddef.h"
	.file	15 "D:\\Embed\\MDK\\MDK\\ARM\\ARMCompilerV621\\Bin\\..\\include\\libcxx" "stddef.h"
	.file	16 "D:\\Embed\\MDK\\MDK\\ARM\\ARMCompilerV621\\Bin\\..\\include\\libcxx" "cstddef"
	.file	17 "D:\\Embed\\MDK\\MDK\\ARM\\ARMCompilerV621\\Bin\\..\\include\\libcxx" "cstdint"
	.file	18 "D:\\Embed\\MDK\\MDK\\ARM\\ARMCompilerV621\\Bin\\..\\include" "string.h"
	.file	19 "D:\\Embed\\MDK\\MDK\\ARM\\ARMCompilerV621\\Bin\\..\\include\\libcxx" "cstring"
	.file	20 "D:\\Embed\\MDK\\MDK\\ARM\\ARMCompilerV621\\Bin\\..\\include\\libcxx" "string.h"
	.file	21 "D:\\Embed\\MDK\\MDK\\ARM\\ARMCompilerV621\\Bin\\..\\include" "stdlib.h"
	.file	22 "D:\\Embed\\MDK\\MDK\\ARM\\ARMCompilerV621\\Bin\\..\\include\\libcxx" "cstdlib"
	.file	23 "D:\\Embed\\MDK\\MDK\\ARM\\ARMCompilerV621\\Bin\\..\\include\\libcxx" "stdlib.h"
	.file	24 "D:\\Embed\\MDK\\MDK\\ARM\\ARMCompilerV621\\Bin\\..\\include" "wchar.h"
	.file	25 "D:\\Embed\\MDK\\MDK\\ARM\\ARMCompilerV621\\Bin\\..\\include" "time.h"
	.file	26 "D:\\ikingtec\\Robot\\ODrive\\Firmware\\MDK-ARM" "../MotorControl\\open_loop_controller.cpp"
	.file	27 "D:\\Embed\\MDK\\MDK\\ARM\\ARMCompilerV621\\Bin\\..\\include\\libcxx" "__std_mbstate_t.h"
	.file	28 "D:\\Embed\\MDK\\MDK\\ARM\\ARMCompilerV621\\Bin\\..\\include" "math.h"
	.file	29 "D:\\Embed\\MDK\\MDK\\ARM\\ARMCompilerV621\\Bin\\..\\include\\libcxx\\__math" "traits.h"
	.file	30 "D:\\Embed\\MDK\\MDK\\ARM\\ARMCompilerV621\\Bin\\..\\include\\libcxx" "math.h"
	.file	31 "D:\\Embed\\MDK\\MDK\\ARM\\ARMCompilerV621\\Bin\\..\\include\\libcxx\\__math" "modulo.h"
	.file	32 "D:\\Embed\\MDK\\MDK\\ARM\\ARMCompilerV621\\Bin\\..\\include\\libcxx" "cmath"
	.file	33 "D:\\Embed\\MDK\\MDK\\ARM\\ARMCompilerV621\\Bin\\..\\include\\libcxx\\__chrono" "duration.h"
	.file	34 "D:\\Embed\\MDK\\MDK\\ARM\\ARMCompilerV621\\Bin\\..\\include\\libcxx" "ctime"
	.file	35 "D:\\Embed\\MDK\\MDK\\ARM\\ARMCompilerV621\\Bin\\..\\include" "errno.h"
	.file	36 "D:\\Embed\\MDK\\MDK\\ARM\\ARMCompilerV621\\Bin\\..\\include" "ctype.h"
	.file	37 "D:\\Embed\\MDK\\MDK\\ARM\\ARMCompilerV621\\Bin\\..\\include\\libcxx" "cctype"
	.file	38 "D:\\Embed\\MDK\\MDK\\ARM\\ARMCompilerV621\\Bin\\..\\include" "wctype.h"
	.file	39 "D:\\Embed\\MDK\\MDK\\ARM\\ARMCompilerV621\\Bin\\..\\include\\libcxx" "cwctype"
	.file	40 "D:\\Embed\\MDK\\MDK\\ARM\\ARMCompilerV621\\Bin\\..\\include\\libcxx" "cwchar"
	.file	41 "D:\\Embed\\MDK\\MDK\\ARM\\ARMCompilerV621\\Bin\\..\\include\\libcxx" "wchar.h"
	.file	42 "D:\\Embed\\MDK\\MDK\\ARM\\ARMCompilerV621\\Bin\\..\\include" "stdio.h"
	.file	43 "D:\\Embed\\MDK\\MDK\\ARM\\ARMCompilerV621\\Bin\\..\\include\\libcxx" "cstdio"
	.file	44 "D:\\Embed\\MDK\\MDK\\ARM\\ARMCompilerV621\\Bin\\..\\include" "locale.h"
	.file	45 "D:\\Embed\\MDK\\MDK\\ARM\\ARMCompilerV621\\Bin\\..\\include\\libcxx" "clocale"
	.file	46 "D:\\Embed\\MDK\\MDK\\ARM\\ARMCompilerV621\\Bin\\..\\include" "stdarg.h"
	.file	47 "D:\\Embed\\MDK\\MDK\\ARM\\ARMCompilerV621\\Bin\\..\\include\\libcxx" "cstdarg"
	.file	48 "<stdin>"