	.text
	.syntax unified
	.eabi_attribute	67, "2.09"	@ Tag_conformance
	.cpu	cortex-m4
	.eabi_attribute	6, 13	@ Tag_CPU_arch
	.eabi_attribute	7, 77	@ Tag_CPU_arch_profile
	.eabi_attribute	8, 0	@ Tag_ARM_ISA_use
	.eabi_attribute	9, 2	@ Tag_THUMB_ISA_use
	.fpu	fpv4-sp-d16
	.eabi_attribute	27, 1	@ Tag_ABI_HardFP_use
	.eabi_attribute	36, 1	@ Tag_FP_HP_extension
	.eabi_attribute	34, 1	@ Tag_CPU_unaligned_access
	.eabi_attribute	17, 1	@ Tag_ABI_PCS_GOT_use
	.eabi_attribute	20, 2	@ Tag_ABI_FP_denormal
	.eabi_attribute	21, 0	@ Tag_ABI_FP_exceptions
	.eabi_attribute	23, 1	@ Tag_ABI_FP_number_model
	.eabi_attribute	24, 1	@ Tag_ABI_align_needed
	.eabi_attribute	25, 1	@ Tag_ABI_align_preserved
	.eabi_attribute	28, 1	@ Tag_ABI_VFP_args
	.eabi_attribute	38, 1	@ Tag_ABI_FP_16bit_format
	.eabi_attribute	18, 2	@ Tag_ABI_PCS_wchar_t
	.eabi_attribute	26, 1	@ Tag_ABI_enum_size
	.eabi_attribute	14, 0	@ Tag_ABI_PCS_R9_use
	.file	"sensorless_estimator.cpp"
	.file	1 "D:\\ikingtec\\Robot\\ODrive\\Firmware\\MDK-ARM" "../Board/v3/Inc\\board.h"
	.file	2 "D:\\ikingtec\\Robot\\ODrive\\Firmware\\MDK-ARM" "../../Firmware\\MotorControl/utils.hpp"
	.file	3 "D:\\Embed\\MDK\\MDK\\ARM\\ARMCompilerV621\\Bin\\..\\include\\libcxx\\__utility" "in_place.h"
	.file	4 "D:\\Embed\\MDK\\MDK\\ARM\\ARMCompilerV621\\Bin\\..\\include\\libcxx" "optional"
	.file	5 "D:\\ikingtec\\Robot\\ODrive\\Firmware\\MDK-ARM" "../../Firmware\\autogen/interfaces.hpp"
	.file	6 "D:\\Embed\\MDK\\MDK\\ARM\\ARMCompilerV621\\Bin\\..\\include\\libcxx\\__type_traits" "underlying_type.h"
	.file	7 "D:\\Embed\\MDK\\MDK\\ARM\\ARMCompilerV621\\Bin\\..\\include\\libcxx\\__tuple" "sfinae_helpers.h"
	.file	8 "D:\\Embed\\MDK\\MDK\\ARM\\ARMCompilerV621\\Bin\\..\\include\\libcxx\\__type_traits" "add_pointer.h"
	.section	.text._ZN19SensorlessEstimator5resetEv,"ax",%progbits
	.hidden	_ZN19SensorlessEstimator5resetEv @ -- Begin function _ZN19SensorlessEstimator5resetEv
	.globl	_ZN19SensorlessEstimator5resetEv
	.p2align	2
	.type	_ZN19SensorlessEstimator5resetEv,%function
	.code	16                              @ @_ZN19SensorlessEstimator5resetEv
	.thumb_func
_ZN19SensorlessEstimator5resetEv:
.Lfunc_begin0:
	.file	9 "D:\\ikingtec\\Robot\\ODrive\\Firmware\\MDK-ARM" "../MotorControl/sensorless_estimator.cpp"
	.loc	9 4 0                           @ ../MotorControl/sensorless_estimator.cpp:4:0
	.fnstart
	.cfi_sections .debug_frame
	.cfi_startproc
@ %bb.0:
	.save	{r7, lr}
	push	{r7, lr}
	.cfi_def_cfa_offset 8
	.cfi_offset lr, -4
	.cfi_offset r7, -8
	.pad	#16
	sub	sp, #16
	.cfi_def_cfa_offset 24
	str	r0, [sp, #12]
	ldr	r0, [sp, #12]
	str	r0, [sp, #4]                    @ 4-byte Spill
	movs	r1, #0
.Ltmp0:
	.loc	9 5 14 prologue_end             @ ../MotorControl/sensorless_estimator.cpp:5:14
	str	r1, [sp, #8]                    @ 4-byte Spill
	str	r1, [r0, #20]
	.loc	9 6 5                           @ ../MotorControl/sensorless_estimator.cpp:6:5
	adds	r0, #56
	vldr	s0, .LCPI0_0
	.loc	9 6 19 is_stmt 0                @ ../MotorControl/sensorless_estimator.cpp:6:19
	bl	_ZN10OutputPortIfEaSEf
	ldr	r1, [sp, #4]                    @ 4-byte Reload
	ldr	r0, [sp, #8]                    @ 4-byte Reload
	.loc	9 7 29 is_stmt 1                @ ../MotorControl/sensorless_estimator.cpp:7:29
	str	r0, [r1, #32]
	.loc	9 8 29                          @ ../MotorControl/sensorless_estimator.cpp:8:29
	str	r0, [r1, #36]
	.loc	9 9 20                          @ ../MotorControl/sensorless_estimator.cpp:9:20
	str	r0, [r1, #24]
	.loc	9 10 20                         @ ../MotorControl/sensorless_estimator.cpp:10:20
	str	r0, [r1, #28]
	.loc	9 11 1 epilogue_begin           @ ../MotorControl/sensorless_estimator.cpp:11:1
	add	sp, #16
	pop	{r7, pc}
.Ltmp1:
	.p2align	2
@ %bb.1:
	.loc	9 0 1 is_stmt 0                 @ ../MotorControl/sensorless_estimator.cpp:0:1
.LCPI0_0:
	.long	0x00000000                      @ float 0
.Lfunc_end0:
	.size	_ZN19SensorlessEstimator5resetEv, .Lfunc_end0-_ZN19SensorlessEstimator5resetEv
	.cfi_endproc
	.file	10 "D:\\ikingtec\\Robot\\ODrive\\Firmware\\MDK-ARM" "../MotorControl\\sensorless_estimator.hpp"
	.cantunwind
	.fnend
                                        @ -- End function
	.section	.text._ZN10OutputPortIfEaSEf,"axG",%progbits,_ZN10OutputPortIfEaSEf,comdat
	.hidden	_ZN10OutputPortIfEaSEf          @ -- Begin function _ZN10OutputPortIfEaSEf
	.weak	_ZN10OutputPortIfEaSEf
	.p2align	2
	.type	_ZN10OutputPortIfEaSEf,%function
	.code	16                              @ @_ZN10OutputPortIfEaSEf
	.thumb_func
_ZN10OutputPortIfEaSEf:
.Lfunc_begin1:
	.file	11 "D:\\ikingtec\\Robot\\ODrive\\Firmware\\MDK-ARM" "../../Firmware\\MotorControl/component.hpp"
	.loc	11 52 0 is_stmt 1               @ ../../Firmware\MotorControl/component.hpp:52:0
	.fnstart
	.cfi_startproc
@ %bb.0:
	.pad	#8
	sub	sp, #8
	.cfi_def_cfa_offset 8
	str	r0, [sp, #4]
	vstr	s0, [sp]
	ldr	r1, [sp, #4]
.Ltmp2:
	.loc	11 53 20 prologue_end           @ ../../Firmware\MotorControl/component.hpp:53:20
	ldr	r0, [sp]
	.loc	11 53 18 is_stmt 0              @ ../../Firmware\MotorControl/component.hpp:53:18
	str	r0, [r1, #4]
	movs	r0, #0
	.loc	11 54 14 is_stmt 1              @ ../../Firmware\MotorControl/component.hpp:54:14
	str	r0, [r1]
	.loc	11 55 5 epilogue_begin          @ ../../Firmware\MotorControl/component.hpp:55:5
	add	sp, #8
	bx	lr
.Ltmp3:
.Lfunc_end1:
	.size	_ZN10OutputPortIfEaSEf, .Lfunc_end1-_ZN10OutputPortIfEaSEf
	.cfi_endproc
	.cantunwind
	.fnend
                                        @ -- End function
	.section	.text._ZN19SensorlessEstimator6updateEv,"ax",%progbits
	.hidden	_ZN19SensorlessEstimator6updateEv @ -- Begin function _ZN19SensorlessEstimator6updateEv
	.globl	_ZN19SensorlessEstimator6updateEv
	.p2align	2
	.type	_ZN19SensorlessEstimator6updateEv,%function
	.code	16                              @ @_ZN19SensorlessEstimator6updateEv
	.thumb_func
_ZN19SensorlessEstimator6updateEv:
.Lfunc_begin2:
	.loc	9 13 0                          @ ../MotorControl/sensorless_estimator.cpp:13:0
	.fnstart
	.cfi_startproc
@ %bb.0:
	.save	{r7, lr}
	push	{r7, lr}
	.cfi_def_cfa_offset 8
	.cfi_offset lr, -4
	.cfi_offset r7, -8
	.pad	#160
	sub	sp, #160
	.cfi_def_cfa_offset 168
	str	r0, [sp, #152]
	ldr	r0, [sp, #152]
.Ltmp4:
	.loc	9 25 35 prologue_end            @ ../MotorControl/sensorless_estimator.cpp:25:35
	str	r0, [sp, #28]                   @ 4-byte Spill
	vldr	s0, [r0, #8]
	.loc	9 25 25 is_stmt 0               @ ../MotorControl/sensorless_estimator.cpp:25:25
	vadd.f32	s0, s0, s0
	.loc	9 25 11                         @ ../MotorControl/sensorless_estimator.cpp:25:11
	vstr	s0, [sp, #148]
	.loc	9 27 29 is_stmt 1               @ ../MotorControl/sensorless_estimator.cpp:27:29
	vldr	s0, [sp, #148]
	.loc	9 27 36 is_stmt 0               @ ../MotorControl/sensorless_estimator.cpp:27:36
	vmul.f32	s0, s0, s0
	vmov.f32	s2, #2.500000e-01
	.loc	9 27 26                         @ ../MotorControl/sensorless_estimator.cpp:27:26
	vmul.f32	s0, s0, s2
	.loc	9 27 11                         @ ../MotorControl/sensorless_estimator.cpp:27:11
	vstr	s0, [sp, #144]
.Ltmp5:
	.loc	9 30 33 is_stmt 1               @ ../MotorControl/sensorless_estimator.cpp:30:33
	vldr	s0, [sp, #148]
	vldr	s2, .LCPI2_0
	.loc	9 30 31 is_stmt 0               @ ../MotorControl/sensorless_estimator.cpp:30:31
	vmul.f32	s0, s0, s2
	vmov.f32	s2, #1.000000e+00
.Ltmp6:
	.loc	9 30 9                          @ ../MotorControl/sensorless_estimator.cpp:30:9
	vcmp.f32	s0, s2
	vmrs	APSR_nzcv, fpscr
	blt	.LBB2_2
	b	.LBB2_1
.LBB2_1:
.Ltmp7:
	.loc	9 31 9 is_stmt 1                @ ../MotorControl/sensorless_estimator.cpp:31:9
	ldr	r0, [sp, #28]                   @ 4-byte Reload
	adds	r0, #16
	movs	r1, #1
	.loc	9 31 16 is_stmt 0               @ ../MotorControl/sensorless_estimator.cpp:31:16
	bl	_ZoRRN10ODriveIntf23SensorlessEstimatorIntf5ErrorES1_
                                        @ kill: def $r1 killed $r0
	.loc	9 32 9 is_stmt 1                @ ../MotorControl/sensorless_estimator.cpp:32:9
	ldr	r0, [sp, #28]                   @ 4-byte Reload
	ldr	r0, [r0]
	.loc	9 32 16 is_stmt 0               @ ../MotorControl/sensorless_estimator.cpp:32:16
	add.w	r0, r0, #588
	movs	r1, #128
	.loc	9 32 23                         @ ../MotorControl/sensorless_estimator.cpp:32:23
	bl	_ZoRRN10ODriveIntf8AxisIntf5ErrorES1_
                                        @ kill: def $r1 killed $r0
	.loc	9 33 9 is_stmt 1                @ ../MotorControl/sensorless_estimator.cpp:33:9
	ldr	r0, [sp, #28]                   @ 4-byte Reload
	bl	_ZN19SensorlessEstimator5resetEv
	movs	r0, #0
	.loc	9 34 9                          @ ../MotorControl/sensorless_estimator.cpp:34:9
	strb.w	r0, [sp, #159]
	b	.LBB2_15
.Ltmp8:
.LBB2_2:
	.loc	9 39 25                         @ ../MotorControl/sensorless_estimator.cpp:39:25
	ldr	r0, [sp, #28]                   @ 4-byte Reload
	ldr	r1, [r0]
	.loc	9 39 32 is_stmt 0               @ ../MotorControl/sensorless_estimator.cpp:39:32
	ldr.w	r12, [r1, #344]
	.loc	9 39 25                         @ ../MotorControl/sensorless_estimator.cpp:39:25
	ldr.w	r1, [r12, #168]
	ldr.w	r2, [r12, #172]
	ldr.w	r3, [r12, #176]
	ldr.w	r12, [r12, #180]
	str.w	r12, [sp, #140]
	str	r3, [sp, #136]
	str	r2, [sp, #132]
	str	r1, [sp, #128]
.Ltmp9:
	.loc	9 40 10 is_stmt 1               @ ../MotorControl/sensorless_estimator.cpp:40:10
	ldr	r0, [r0]
	.loc	9 40 17 is_stmt 0               @ ../MotorControl/sensorless_estimator.cpp:40:17
	ldr.w	r0, [r0, #344]
	.loc	9 40 24                         @ ../MotorControl/sensorless_estimator.cpp:40:24
	ldrb.w	r0, [r0, #164]
.Ltmp10:
	.loc	9 40 9                          @ ../MotorControl/sensorless_estimator.cpp:40:9
	lsls	r0, r0, #31
	cbnz	r0, .LBB2_4
	b	.LBB2_3
.LBB2_3:
	.loc	9 0 9                           @ ../MotorControl/sensorless_estimator.cpp:0:9
	movs	r0, #0
.Ltmp11:
	.loc	9 43 24 is_stmt 1               @ ../MotorControl/sensorless_estimator.cpp:43:24
	str	r0, [sp, #116]
	str	r0, [sp, #120]
	str	r0, [sp, #124]
	add	r0, sp, #128
	add	r1, sp, #116
	.loc	9 43 22 is_stmt 0               @ ../MotorControl/sensorless_estimator.cpp:43:22
	bl	_ZNSt3__28optionalI9Iph_ABC_tEaSB7v180000IS1_vEERS2_OT_
	.loc	9 44 5 is_stmt 1                @ ../MotorControl/sensorless_estimator.cpp:44:5
	b	.LBB2_4
.Ltmp12:
.LBB2_4:
	.loc	9 0 5 is_stmt 0                 @ ../MotorControl/sensorless_estimator.cpp:0:5
	add	r0, sp, #128
.Ltmp13:
	.loc	9 45 23 is_stmt 1               @ ../MotorControl/sensorless_estimator.cpp:45:23
	bl	_ZNKSt3__223__optional_storage_baseI9Iph_ABC_tLb0EE9has_valueB7v180000Ev
.Ltmp14:
	.loc	9 45 9 is_stmt 0                @ ../MotorControl/sensorless_estimator.cpp:45:9
	cbnz	r0, .LBB2_6
	b	.LBB2_5
.LBB2_5:
.Ltmp15:
	.loc	9 46 9 is_stmt 1                @ ../MotorControl/sensorless_estimator.cpp:46:9
	ldr	r0, [sp, #28]                   @ 4-byte Reload
	adds	r0, #16
	movs	r1, #2
	.loc	9 46 16 is_stmt 0               @ ../MotorControl/sensorless_estimator.cpp:46:16
	bl	_ZoRRN10ODriveIntf23SensorlessEstimatorIntf5ErrorES1_
                                        @ kill: def $r1 killed $r0
	.loc	9 47 9 is_stmt 1                @ ../MotorControl/sensorless_estimator.cpp:47:9
	ldr	r0, [sp, #28]                   @ 4-byte Reload
	ldr	r0, [r0]
	.loc	9 47 16 is_stmt 0               @ ../MotorControl/sensorless_estimator.cpp:47:16
	add.w	r0, r0, #588
	movs	r1, #128
	.loc	9 47 23                         @ ../MotorControl/sensorless_estimator.cpp:47:23
	bl	_ZoRRN10ODriveIntf8AxisIntf5ErrorES1_
                                        @ kill: def $r1 killed $r0
	.loc	9 48 9 is_stmt 1                @ ../MotorControl/sensorless_estimator.cpp:48:9
	ldr	r0, [sp, #28]                   @ 4-byte Reload
	bl	_ZN19SensorlessEstimator5resetEv
	movs	r0, #0
	.loc	9 49 9                          @ ../MotorControl/sensorless_estimator.cpp:49:9
	strb.w	r0, [sp, #159]
	b	.LBB2_15
.Ltmp16:
.LBB2_6:
	.loc	9 0 9 is_stmt 0                 @ ../MotorControl/sensorless_estimator.cpp:0:9
	add	r0, sp, #128
	.loc	9 54 9 is_stmt 1                @ ../MotorControl/sensorless_estimator.cpp:54:9
	str	r0, [sp, #20]                   @ 4-byte Spill
	bl	_ZNSt3__28optionalI9Iph_ABC_tEptB7v180000Ev
	mov	r1, r0
	.loc	9 54 23 is_stmt 0               @ ../MotorControl/sensorless_estimator.cpp:54:23
	ldr	r0, [sp, #20]                   @ 4-byte Reload
	ldr	r1, [r1]
	.loc	9 53 29 is_stmt 1               @ ../MotorControl/sensorless_estimator.cpp:53:29
	str	r1, [sp, #108]
	.loc	9 55 25                         @ ../MotorControl/sensorless_estimator.cpp:55:25
	bl	_ZNSt3__28optionalI9Iph_ABC_tEptB7v180000Ev
	mov	r1, r0
	.loc	9 55 39 is_stmt 0               @ ../MotorControl/sensorless_estimator.cpp:55:39
	ldr	r0, [sp, #20]                   @ 4-byte Reload
	vldr	s0, [r1, #4]
	vstr	s0, [sp, #24]                   @ 4-byte Spill
	.loc	9 55 45                         @ ../MotorControl/sensorless_estimator.cpp:55:45
	bl	_ZNSt3__28optionalI9Iph_ABC_tEptB7v180000Ev
	vldr	s0, [sp, #24]                   @ 4-byte Reload
	.loc	9 55 59                         @ ../MotorControl/sensorless_estimator.cpp:55:59
	vldr	s2, [r0, #8]
	.loc	9 55 43                         @ ../MotorControl/sensorless_estimator.cpp:55:43
	vsub.f32	s0, s0, s2
	vldr	s2, .LCPI2_1
	.loc	9 55 22                         @ ../MotorControl/sensorless_estimator.cpp:55:22
	vmul.f32	s0, s0, s2
	.loc	9 53 29 is_stmt 1               @ ../MotorControl/sensorless_estimator.cpp:53:29
	vstr	s0, [sp, #112]
	movs	r0, #0
.Ltmp17:
	.loc	9 59 14                         @ ../MotorControl/sensorless_estimator.cpp:59:14
	str	r0, [sp, #96]
	.loc	9 59 10 is_stmt 0               @ ../MotorControl/sensorless_estimator.cpp:59:10
	b	.LBB2_7
.LBB2_7:                                @ =>This Inner Loop Header: Depth=1
.Ltmp18:
	.loc	9 59 21                         @ ../MotorControl/sensorless_estimator.cpp:59:21
	ldr	r0, [sp, #96]
.Ltmp19:
	.loc	9 59 5                          @ ../MotorControl/sensorless_estimator.cpp:59:5
	cmp	r0, #1
	bgt	.LBB2_10
	b	.LBB2_8
.LBB2_8:                                @   in Loop: Header=BB2_7 Depth=1
.Ltmp20:
	.loc	9 61 20 is_stmt 1               @ ../MotorControl/sensorless_estimator.cpp:61:20
	ldr	r2, [sp, #28]                   @ 4-byte Reload
	ldr	r0, [r2]
	.loc	9 61 27 is_stmt 0               @ ../MotorControl/sensorless_estimator.cpp:61:27
	ldr.w	r0, [r0, #344]
	.loc	9 61 42                         @ ../MotorControl/sensorless_estimator.cpp:61:42
	vldr	s2, [r0, #48]
	.loc	9 61 74                         @ ../MotorControl/sensorless_estimator.cpp:61:74
	ldr	r1, [sp, #96]
	add	r0, sp, #108
	.loc	9 61 61                         @ ../MotorControl/sensorless_estimator.cpp:61:61
	add.w	r3, r0, r1, lsl #2
	vldr	s4, [r3]
	.loc	9 61 79                         @ ../MotorControl/sensorless_estimator.cpp:61:79
	add.w	r1, r2, r1, lsl #2
	vldr	s0, [r1, #32]
	.loc	9 61 77                         @ ../MotorControl/sensorless_estimator.cpp:61:77
	vmul.f32	s2, s2, s4
	vsub.f32	s0, s0, s2
	.loc	9 61 15                         @ ../MotorControl/sensorless_estimator.cpp:61:15
	vstr	s0, [sp, #92]
	.loc	9 63 23 is_stmt 1               @ ../MotorControl/sensorless_estimator.cpp:63:23
	ldr	r1, [sp, #92]
	.loc	9 63 15 is_stmt 0               @ ../MotorControl/sensorless_estimator.cpp:63:15
	str	r1, [sp, #88]
	.loc	9 65 27 is_stmt 1               @ ../MotorControl/sensorless_estimator.cpp:65:27
	vldr	s0, [sp, #88]
	.loc	9 65 9 is_stmt 0                @ ../MotorControl/sensorless_estimator.cpp:65:9
	add.w	r3, r2, #24
	.loc	9 65 21                         @ ../MotorControl/sensorless_estimator.cpp:65:21
	ldr	r1, [sp, #96]
	.loc	9 65 9                          @ ../MotorControl/sensorless_estimator.cpp:65:9
	add.w	r1, r3, r1, lsl #2
	.loc	9 65 24                         @ ../MotorControl/sensorless_estimator.cpp:65:24
	vldr	s2, [r1]
	vldr	s4, .LCPI2_0
	vmul.f32	s0, s0, s4
	vadd.f32	s0, s0, s2
	vstr	s0, [r1]
	.loc	9 68 30 is_stmt 1               @ ../MotorControl/sensorless_estimator.cpp:68:30
	ldr	r1, [sp, #96]
	.loc	9 68 18 is_stmt 0               @ ../MotorControl/sensorless_estimator.cpp:68:18
	add.w	r3, r3, r1, lsl #2
	vldr	s0, [r3]
	.loc	9 68 35                         @ ../MotorControl/sensorless_estimator.cpp:68:35
	ldr	r2, [r2]
	.loc	9 68 42                         @ ../MotorControl/sensorless_estimator.cpp:68:42
	ldr.w	r2, [r2, #344]
	.loc	9 68 57                         @ ../MotorControl/sensorless_estimator.cpp:68:57
	vldr	s2, [r2, #44]
	.loc	9 68 76                         @ ../MotorControl/sensorless_estimator.cpp:68:76
	add.w	r0, r0, r1, lsl #2
	vldr	s4, [r0]
	.loc	9 68 33                         @ ../MotorControl/sensorless_estimator.cpp:68:33
	vmul.f32	s2, s2, s4
	vsub.f32	s0, s0, s2
	add	r0, sp, #100
	.loc	9 68 9                          @ ../MotorControl/sensorless_estimator.cpp:68:9
	add.w	r0, r0, r1, lsl #2
	.loc	9 68 16                         @ ../MotorControl/sensorless_estimator.cpp:68:16
	vstr	s0, [r0]
	.loc	9 69 5 is_stmt 1                @ ../MotorControl/sensorless_estimator.cpp:69:5
	b	.LBB2_9
.Ltmp21:
.LBB2_9:                                @   in Loop: Header=BB2_7 Depth=1
	.loc	9 59 29                         @ ../MotorControl/sensorless_estimator.cpp:59:29
	ldr	r0, [sp, #96]
	adds	r0, #1
	str	r0, [sp, #96]
	.loc	9 59 5 is_stmt 0                @ ../MotorControl/sensorless_estimator.cpp:59:5
	b	.LBB2_7
.Ltmp22:
.LBB2_10:
	.loc	9 72 33 is_stmt 1               @ ../MotorControl/sensorless_estimator.cpp:72:33
	ldr	r0, [sp, #28]                   @ 4-byte Reload
	vldr	s0, [r0, #12]
	.loc	9 72 49 is_stmt 0               @ ../MotorControl/sensorless_estimator.cpp:72:49
	vmul.f32	s0, s0, s0
	.loc	9 72 11                         @ ../MotorControl/sensorless_estimator.cpp:72:11
	vstr	s0, [sp, #84]
	.loc	9 73 29 is_stmt 1               @ ../MotorControl/sensorless_estimator.cpp:73:29
	vldr	s0, [sp, #100]
	.loc	9 73 47 is_stmt 0               @ ../MotorControl/sensorless_estimator.cpp:73:47
	vldr	s2, [sp, #104]
	.loc	9 73 54                         @ ../MotorControl/sensorless_estimator.cpp:73:54
	vmul.f32	s2, s2, s2
	.loc	9 73 45                         @ ../MotorControl/sensorless_estimator.cpp:73:45
	vmul.f32	s0, s0, s0
	vadd.f32	s0, s0, s2
	.loc	9 73 11                         @ ../MotorControl/sensorless_estimator.cpp:73:11
	vstr	s0, [sp, #80]
	.loc	9 74 37 is_stmt 1               @ ../MotorControl/sensorless_estimator.cpp:74:37
	vldr	s2, [sp, #84]
	vmov.f32	s0, #1.000000e+00
	.loc	9 74 35 is_stmt 0               @ ../MotorControl/sensorless_estimator.cpp:74:35
	vdiv.f32	s0, s0, s2
	.loc	9 74 11                         @ ../MotorControl/sensorless_estimator.cpp:74:11
	vstr	s0, [sp, #76]
	.loc	9 75 40 is_stmt 1               @ ../MotorControl/sensorless_estimator.cpp:75:40
	vldr	s0, [r0, #4]
	.loc	9 75 56 is_stmt 0               @ ../MotorControl/sensorless_estimator.cpp:75:56
	vldr	s2, [sp, #76]
	.loc	9 75 54                         @ ../MotorControl/sensorless_estimator.cpp:75:54
	vmul.f32	s0, s0, s2
	vmov.f32	s2, #5.000000e-01
	.loc	9 75 29                         @ ../MotorControl/sensorless_estimator.cpp:75:29
	vmul.f32	s0, s0, s2
	.loc	9 75 77                         @ ../MotorControl/sensorless_estimator.cpp:75:77
	vldr	s2, [sp, #84]
	.loc	9 75 91                         @ ../MotorControl/sensorless_estimator.cpp:75:91
	vldr	s4, [sp, #80]
	.loc	9 75 89                         @ ../MotorControl/sensorless_estimator.cpp:75:89
	vsub.f32	s2, s2, s4
	.loc	9 75 74                         @ ../MotorControl/sensorless_estimator.cpp:75:74
	vmul.f32	s0, s0, s2
	.loc	9 75 11                         @ ../MotorControl/sensorless_estimator.cpp:75:11
	vstr	s0, [sp, #72]
	movs	r0, #0
.Ltmp23:
	.loc	9 78 14 is_stmt 1               @ ../MotorControl/sensorless_estimator.cpp:78:14
	str	r0, [sp, #68]
	.loc	9 78 10 is_stmt 0               @ ../MotorControl/sensorless_estimator.cpp:78:10
	b	.LBB2_11
.LBB2_11:                               @ =>This Inner Loop Header: Depth=1
.Ltmp24:
	.loc	9 78 21                         @ ../MotorControl/sensorless_estimator.cpp:78:21
	ldr	r0, [sp, #68]
.Ltmp25:
	.loc	9 78 5                          @ ../MotorControl/sensorless_estimator.cpp:78:5
	cmp	r0, #1
	bgt	.LBB2_14
	b	.LBB2_12
.LBB2_12:                               @   in Loop: Header=BB2_11 Depth=1
.Ltmp26:
	.loc	9 80 23 is_stmt 1               @ ../MotorControl/sensorless_estimator.cpp:80:23
	ldr	r2, [sp, #28]                   @ 4-byte Reload
	vldr	s0, [sp, #72]
	.loc	9 80 40 is_stmt 0               @ ../MotorControl/sensorless_estimator.cpp:80:40
	ldr	r1, [sp, #68]
	add	r0, sp, #100
	.loc	9 80 36                         @ ../MotorControl/sensorless_estimator.cpp:80:36
	add.w	r1, r0, r1, lsl #2
	vldr	s2, [r1]
	.loc	9 80 34                         @ ../MotorControl/sensorless_estimator.cpp:80:34
	vmul.f32	s0, s0, s2
	.loc	9 80 15                         @ ../MotorControl/sensorless_estimator.cpp:80:15
	vstr	s0, [sp, #64]
	.loc	9 82 27 is_stmt 1               @ ../MotorControl/sensorless_estimator.cpp:82:27
	vldr	s0, [sp, #64]
	.loc	9 82 9 is_stmt 0                @ ../MotorControl/sensorless_estimator.cpp:82:9
	add.w	r3, r2, #24
	.loc	9 82 21                         @ ../MotorControl/sensorless_estimator.cpp:82:21
	ldr	r1, [sp, #68]
	.loc	9 82 9                          @ ../MotorControl/sensorless_estimator.cpp:82:9
	add.w	r1, r3, r1, lsl #2
	.loc	9 82 24                         @ ../MotorControl/sensorless_estimator.cpp:82:24
	vldr	s2, [r1]
	vldr	s4, .LCPI2_0
	vmul.f32	s0, s0, s4
	vadd.f32	s0, s0, s2
	vstr	s0, [r1]
	.loc	9 84 30 is_stmt 1               @ ../MotorControl/sensorless_estimator.cpp:84:30
	ldr	r1, [sp, #68]
	.loc	9 84 18 is_stmt 0               @ ../MotorControl/sensorless_estimator.cpp:84:18
	add.w	r3, r3, r1, lsl #2
	vldr	s0, [r3]
	.loc	9 84 35                         @ ../MotorControl/sensorless_estimator.cpp:84:35
	ldr	r2, [r2]
	.loc	9 84 42                         @ ../MotorControl/sensorless_estimator.cpp:84:42
	ldr.w	r2, [r2, #344]
	.loc	9 84 57                         @ ../MotorControl/sensorless_estimator.cpp:84:57
	vldr	s2, [r2, #44]
	add	r2, sp, #108
	.loc	9 84 76                         @ ../MotorControl/sensorless_estimator.cpp:84:76
	add.w	r2, r2, r1, lsl #2
	vldr	s4, [r2]
	.loc	9 84 33                         @ ../MotorControl/sensorless_estimator.cpp:84:33
	vmul.f32	s2, s2, s4
	vsub.f32	s0, s0, s2
	.loc	9 84 9                          @ ../MotorControl/sensorless_estimator.cpp:84:9
	add.w	r0, r0, r1, lsl #2
	.loc	9 84 16                         @ ../MotorControl/sensorless_estimator.cpp:84:16
	vstr	s0, [r0]
	.loc	9 85 5 is_stmt 1                @ ../MotorControl/sensorless_estimator.cpp:85:5
	b	.LBB2_13
.Ltmp27:
.LBB2_13:                               @   in Loop: Header=BB2_11 Depth=1
	.loc	9 78 29                         @ ../MotorControl/sensorless_estimator.cpp:78:29
	ldr	r0, [sp, #68]
	adds	r0, #1
	str	r0, [sp, #68]
	.loc	9 78 5 is_stmt 0                @ ../MotorControl/sensorless_estimator.cpp:78:5
	b	.LBB2_11
.Ltmp28:
.LBB2_14:
	.loc	9 88 31 is_stmt 1               @ ../MotorControl/sensorless_estimator.cpp:88:31
	ldr	r0, [sp, #28]                   @ 4-byte Reload
	ldr	r1, [r0]
	.loc	9 88 38 is_stmt 0               @ ../MotorControl/sensorless_estimator.cpp:88:38
	ldr.w	r1, [r1, #344]
	.loc	9 88 62                         @ ../MotorControl/sensorless_estimator.cpp:88:62
	ldr.w	r1, [r1, #364]
	.loc	9 88 29                         @ ../MotorControl/sensorless_estimator.cpp:88:29
	str	r1, [r0, #32]
	.loc	9 89 31 is_stmt 1               @ ../MotorControl/sensorless_estimator.cpp:89:31
	ldr	r1, [r0]
	.loc	9 89 38 is_stmt 0               @ ../MotorControl/sensorless_estimator.cpp:89:38
	ldr.w	r1, [r1, #344]
	.loc	9 89 62                         @ ../MotorControl/sensorless_estimator.cpp:89:62
	ldr.w	r1, [r1, #368]
	.loc	9 89 29                         @ ../MotorControl/sensorless_estimator.cpp:89:29
	str	r1, [r0, #36]
	.loc	9 91 23 is_stmt 1               @ ../MotorControl/sensorless_estimator.cpp:91:23
	add.w	r1, r0, #48
	.loc	9 91 34 is_stmt 0               @ ../MotorControl/sensorless_estimator.cpp:91:34
	str	r1, [sp, #12]                   @ 4-byte Spill
	add	r0, sp, #52
	str	r0, [sp, #4]                    @ 4-byte Spill
	bl	_ZN10OutputPortIfE8previousEv
	ldr	r0, [sp, #4]                    @ 4-byte Reload
	movs	r1, #0
	.loc	9 91 54                         @ ../MotorControl/sensorless_estimator.cpp:91:54
	str	r1, [sp, #48]
	add	r1, sp, #48
	.loc	9 91 45                         @ ../MotorControl/sensorless_estimator.cpp:91:45
	bl	_ZNOSt3__28optionalIfE8value_orB7v180000IfEEfOT_
	ldr	r0, [sp, #28]                   @ 4-byte Reload
	.loc	9 91 11                         @ ../MotorControl/sensorless_estimator.cpp:91:11
	vstr	s0, [sp, #60]
	.loc	9 94 27 is_stmt 1               @ ../MotorControl/sensorless_estimator.cpp:94:27
	vldr	s2, [r0, #20]
	.loc	9 94 60 is_stmt 0               @ ../MotorControl/sensorless_estimator.cpp:94:60
	vldr	s0, [sp, #60]
	vldr	s4, .LCPI2_0
	vstr	s4, [sp, #8]                    @ 4-byte Spill
	.loc	9 94 36                         @ ../MotorControl/sensorless_estimator.cpp:94:36
	vmul.f32	s0, s0, s4
	vadd.f32	s0, s0, s2
	.loc	9 94 16                         @ ../MotorControl/sensorless_estimator.cpp:94:16
	bl	_Z10wrap_pm_pif
	ldr	r0, [sp, #28]                   @ 4-byte Reload
	.loc	9 94 14                         @ ../MotorControl/sensorless_estimator.cpp:94:14
	vstr	s0, [r0, #20]
	.loc	9 96 38 is_stmt 1               @ ../MotorControl/sensorless_estimator.cpp:96:38
	vldr	s1, [sp, #100]
	.loc	9 96 30 is_stmt 0               @ ../MotorControl/sensorless_estimator.cpp:96:30
	vldr	s0, [sp, #104]
	.loc	9 96 19                         @ ../MotorControl/sensorless_estimator.cpp:96:19
	bl	_Z10fast_atan2ff
	ldr	r0, [sp, #28]                   @ 4-byte Reload
	.loc	9 96 11                         @ ../MotorControl/sensorless_estimator.cpp:96:11
	vstr	s0, [sp, #44]
	.loc	9 97 36 is_stmt 1               @ ../MotorControl/sensorless_estimator.cpp:97:36
	vldr	s0, [sp, #44]
	.loc	9 97 44 is_stmt 0               @ ../MotorControl/sensorless_estimator.cpp:97:44
	vldr	s2, [r0, #20]
	.loc	9 97 42                         @ ../MotorControl/sensorless_estimator.cpp:97:42
	vsub.f32	s0, s0, s2
	.loc	9 97 25                         @ ../MotorControl/sensorless_estimator.cpp:97:25
	bl	_Z10wrap_pm_pif
	vldr	s4, [sp, #8]                    @ 4-byte Reload
	ldr	r0, [sp, #28]                   @ 4-byte Reload
	.loc	9 97 11                         @ ../MotorControl/sensorless_estimator.cpp:97:11
	vstr	s0, [sp, #40]
	.loc	9 98 27 is_stmt 1               @ ../MotorControl/sensorless_estimator.cpp:98:27
	vldr	s2, [r0, #20]
	.loc	9 98 60 is_stmt 0               @ ../MotorControl/sensorless_estimator.cpp:98:60
	vldr	s0, [sp, #148]
	.loc	9 98 58                         @ ../MotorControl/sensorless_estimator.cpp:98:58
	vmul.f32	s0, s0, s4
	.loc	9 98 69                         @ ../MotorControl/sensorless_estimator.cpp:98:69
	vldr	s4, [sp, #40]
	.loc	9 98 36                         @ ../MotorControl/sensorless_estimator.cpp:98:36
	vmul.f32	s0, s0, s4
	vadd.f32	s0, s0, s2
	.loc	9 98 16                         @ ../MotorControl/sensorless_estimator.cpp:98:16
	bl	_Z10wrap_pm_pif
	vldr	s2, [sp, #8]                    @ 4-byte Reload
	ldr	r0, [sp, #28]                   @ 4-byte Reload
	.loc	9 98 14                         @ ../MotorControl/sensorless_estimator.cpp:98:14
	vstr	s0, [r0, #20]
	.loc	9 100 40 is_stmt 1              @ ../MotorControl/sensorless_estimator.cpp:100:40
	vldr	s0, [sp, #144]
	.loc	9 100 38 is_stmt 0              @ ../MotorControl/sensorless_estimator.cpp:100:38
	vmul.f32	s0, s0, s2
	.loc	9 100 49                        @ ../MotorControl/sensorless_estimator.cpp:100:49
	vldr	s4, [sp, #40]
	.loc	9 100 15                        @ ../MotorControl/sensorless_estimator.cpp:100:15
	vldr	s2, [sp, #60]
	vmul.f32	s0, s0, s4
	vadd.f32	s0, s0, s2
	vstr	s0, [sp, #60]
	.loc	9 103 14 is_stmt 1              @ ../MotorControl/sensorless_estimator.cpp:103:14
	vldr	s0, [sp, #44]
	.loc	9 103 5 is_stmt 0               @ ../MotorControl/sensorless_estimator.cpp:103:5
	adds	r0, #40
	.loc	9 103 12                        @ ../MotorControl/sensorless_estimator.cpp:103:12
	bl	_ZN10OutputPortIfEaSEf
	ldr	r0, [sp, #12]                   @ 4-byte Reload
	.loc	9 104 18 is_stmt 1              @ ../MotorControl/sensorless_estimator.cpp:104:18
	vldr	s0, [sp, #60]
	.loc	9 104 16 is_stmt 0              @ ../MotorControl/sensorless_estimator.cpp:104:16
	bl	_ZN10OutputPortIfEaSEf
	ldr	r0, [sp, #28]                   @ 4-byte Reload
	.loc	9 105 21 is_stmt 1              @ ../MotorControl/sensorless_estimator.cpp:105:21
	vldr	s0, [sp, #60]
	vstr	s0, [sp, #16]                   @ 4-byte Spill
	.loc	9 105 50 is_stmt 0              @ ../MotorControl/sensorless_estimator.cpp:105:50
	ldr	r0, [r0]
	.loc	9 105 57                        @ ../MotorControl/sensorless_estimator.cpp:105:57
	ldr.w	r0, [r0, #344]
	.loc	9 105 50                        @ ../MotorControl/sensorless_estimator.cpp:105:50
	vldr	s0, [r0, #32]
	vcvt.f32.s32	s0, s0
	.loc	9 105 43                        @ ../MotorControl/sensorless_estimator.cpp:105:43
	vstr	s0, [sp, #36]
	mov.w	r0, #1065353216
	.loc	9 105 84                        @ ../MotorControl/sensorless_estimator.cpp:105:84
	str	r0, [sp, #32]
	add	r0, sp, #36
	add	r1, sp, #32
	.loc	9 105 34                        @ ../MotorControl/sensorless_estimator.cpp:105:34
	bl	_ZNSt3__23maxB7v180000IfEERKT_S3_S3_
	vldr	s0, [sp, #16]                   @ 4-byte Reload
	mov	r1, r0
	ldr	r0, [sp, #28]                   @ 4-byte Reload
	vldr	s2, [r1]
	.loc	9 105 90                        @ ../MotorControl/sensorless_estimator.cpp:105:90
	vadd.f32	s2, s2, s2
	vldr	s4, .LCPI2_2
	.loc	9 105 97                        @ ../MotorControl/sensorless_estimator.cpp:105:97
	vmul.f32	s2, s2, s4
	.loc	9 105 31                        @ ../MotorControl/sensorless_estimator.cpp:105:31
	vdiv.f32	s0, s0, s2
	.loc	9 105 5                         @ ../MotorControl/sensorless_estimator.cpp:105:5
	adds	r0, #56
	.loc	9 105 19                        @ ../MotorControl/sensorless_estimator.cpp:105:19
	bl	_ZN10OutputPortIfEaSEf
	movs	r0, #1
	.loc	9 107 5 is_stmt 1               @ ../MotorControl/sensorless_estimator.cpp:107:5
	strb.w	r0, [sp, #159]
	b	.LBB2_15
.LBB2_15:
	.loc	9 108 1                         @ ../MotorControl/sensorless_estimator.cpp:108:1
	ldrb.w	r0, [sp, #159]
	.loc	9 108 1 epilogue_begin is_stmt 0 @ ../MotorControl/sensorless_estimator.cpp:108:1
	add	sp, #160
	pop	{r7, pc}
.Ltmp29:
	.p2align	2
@ %bb.16:
	.loc	9 0 1                           @ ../MotorControl/sensorless_estimator.cpp:0:1
.LCPI2_0:
	.long	0x3903126f                      @ float 1.25000006E-4
.LCPI2_1:
	.long	0x3f13cd3a                      @ float 0.577350259
.LCPI2_2:
	.long	0x40490fdb                      @ float 3.14159274
.Lfunc_end2:
	.size	_ZN19SensorlessEstimator6updateEv, .Lfunc_end2-_ZN19SensorlessEstimator6updateEv
	.cfi_endproc
	.cantunwind
	.fnend
                                        @ -- End function
	.section	.text._ZoRRN10ODriveIntf23SensorlessEstimatorIntf5ErrorES1_,"axG",%progbits,_ZoRRN10ODriveIntf23SensorlessEstimatorIntf5ErrorES1_,comdat
	.hidden	_ZoRRN10ODriveIntf23SensorlessEstimatorIntf5ErrorES1_ @ -- Begin function _ZoRRN10ODriveIntf23SensorlessEstimatorIntf5ErrorES1_
	.weak	_ZoRRN10ODriveIntf23SensorlessEstimatorIntf5ErrorES1_
	.p2align	2
	.type	_ZoRRN10ODriveIntf23SensorlessEstimatorIntf5ErrorES1_,%function
	.code	16                              @ @_ZoRRN10ODriveIntf23SensorlessEstimatorIntf5ErrorES1_
	.thumb_func
_ZoRRN10ODriveIntf23SensorlessEstimatorIntf5ErrorES1_:
.Lfunc_begin3:
	.loc	5 1215 0 is_stmt 1              @ ../../Firmware\autogen/interfaces.hpp:1215:0
	.fnstart
	.cfi_startproc
@ %bb.0:
	.pad	#8
	sub	sp, #8
	.cfi_def_cfa_offset 8
                                        @ kill: def $r2 killed $r1
	str	r0, [sp, #4]
	strb.w	r1, [sp, #3]
.Ltmp30:
	.loc	5 1215 321 prologue_end         @ ../../Firmware\autogen/interfaces.hpp:1215:321
	ldrb.w	r2, [sp, #3]
	.loc	5 1215 315 is_stmt 0            @ ../../Firmware\autogen/interfaces.hpp:1215:315
	ldr	r0, [sp, #4]
	.loc	5 1215 318                      @ ../../Firmware\autogen/interfaces.hpp:1215:318
	ldrb	r1, [r0]
	orrs	r1, r2
	strb	r1, [r0]
	.loc	5 1215 160 epilogue_begin       @ ../../Firmware\autogen/interfaces.hpp:1215:160
	add	sp, #8
	bx	lr
.Ltmp31:
.Lfunc_end3:
	.size	_ZoRRN10ODriveIntf23SensorlessEstimatorIntf5ErrorES1_, .Lfunc_end3-_ZoRRN10ODriveIntf23SensorlessEstimatorIntf5ErrorES1_
	.cfi_endproc
	.cantunwind
	.fnend
                                        @ -- End function
	.section	.text._ZoRRN10ODriveIntf8AxisIntf5ErrorES1_,"axG",%progbits,_ZoRRN10ODriveIntf8AxisIntf5ErrorES1_,comdat
	.hidden	_ZoRRN10ODriveIntf8AxisIntf5ErrorES1_ @ -- Begin function _ZoRRN10ODriveIntf8AxisIntf5ErrorES1_
	.weak	_ZoRRN10ODriveIntf8AxisIntf5ErrorES1_
	.p2align	2
	.type	_ZoRRN10ODriveIntf8AxisIntf5ErrorES1_,%function
	.code	16                              @ @_ZoRRN10ODriveIntf8AxisIntf5ErrorES1_
	.thumb_func
_ZoRRN10ODriveIntf8AxisIntf5ErrorES1_:
.Lfunc_begin4:
	.loc	5 1183 0 is_stmt 1              @ ../../Firmware\autogen/interfaces.hpp:1183:0
	.fnstart
	.cfi_startproc
@ %bb.0:
	.pad	#8
	sub	sp, #8
	.cfi_def_cfa_offset 8
	str	r0, [sp, #4]
	str	r1, [sp]
.Ltmp32:
	.loc	5 1183 311 prologue_end         @ ../../Firmware\autogen/interfaces.hpp:1183:311
	ldr	r2, [sp]
	.loc	5 1183 240 is_stmt 0            @ ../../Firmware\autogen/interfaces.hpp:1183:240
	ldr	r0, [sp, #4]
	.loc	5 1183 243                      @ ../../Firmware\autogen/interfaces.hpp:1183:243
	ldr	r1, [r0]
	orrs	r1, r2
	str	r1, [r0]
	.loc	5 1183 115 epilogue_begin       @ ../../Firmware\autogen/interfaces.hpp:1183:115
	add	sp, #8
	bx	lr
.Ltmp33:
.Lfunc_end4:
	.size	_ZoRRN10ODriveIntf8AxisIntf5ErrorES1_, .Lfunc_end4-_ZoRRN10ODriveIntf8AxisIntf5ErrorES1_
	.cfi_endproc
	.cantunwind
	.fnend
                                        @ -- End function
	.section	.text._ZNSt3__28optionalI9Iph_ABC_tEaSB7v180000IS1_vEERS2_OT_,"axG",%progbits,_ZNSt3__28optionalI9Iph_ABC_tEaSB7v180000IS1_vEERS2_OT_,comdat
	.hidden	_ZNSt3__28optionalI9Iph_ABC_tEaSB7v180000IS1_vEERS2_OT_ @ -- Begin function _ZNSt3__28optionalI9Iph_ABC_tEaSB7v180000IS1_vEERS2_OT_
	.weak	_ZNSt3__28optionalI9Iph_ABC_tEaSB7v180000IS1_vEERS2_OT_
	.p2align	2
	.type	_ZNSt3__28optionalI9Iph_ABC_tEaSB7v180000IS1_vEERS2_OT_,%function
	.code	16                              @ @_ZNSt3__28optionalI9Iph_ABC_tEaSB7v180000IS1_vEERS2_OT_
	.thumb_func
_ZNSt3__28optionalI9Iph_ABC_tEaSB7v180000IS1_vEERS2_OT_:
.Lfunc_begin5:
	.loc	4 907 0 is_stmt 1               @ D:\Embed\MDK\MDK\ARM\ARMCompilerV621\Bin\..\include\libcxx\optional:907:0
	.fnstart
	.cfi_startproc
@ %bb.0:
	.save	{r7, lr}
	push	{r7, lr}
	.cfi_def_cfa_offset 8
	.cfi_offset lr, -4
	.cfi_offset r7, -8
	.pad	#16
	sub	sp, #16
	.cfi_def_cfa_offset 24
	str	r0, [sp, #12]
	str	r1, [sp, #8]
	ldr	r0, [sp, #12]
.Ltmp34:
	.loc	4 908 19 prologue_end           @ D:\Embed\MDK\MDK\ARM\ARMCompilerV621\Bin\..\include\libcxx\optional:908:19
	str	r0, [sp, #4]                    @ 4-byte Spill
	bl	_ZNKSt3__223__optional_storage_baseI9Iph_ABC_tLb0EE9has_valueB7v180000Ev
.Ltmp35:
	.loc	4 908 13 is_stmt 0              @ D:\Embed\MDK\MDK\ARM\ARMCompilerV621\Bin\..\include\libcxx\optional:908:13
	cbz	r0, .LBB5_2
	b	.LBB5_1
.LBB5_1:
.Ltmp36:
	.loc	4 909 49 is_stmt 1              @ D:\Embed\MDK\MDK\ARM\ARMCompilerV621\Bin\..\include\libcxx\optional:909:49
	ldr	r0, [sp, #4]                    @ 4-byte Reload
	ldr	r1, [sp, #8]
	.loc	4 909 19 is_stmt 0              @ D:\Embed\MDK\MDK\ARM\ARMCompilerV621\Bin\..\include\libcxx\optional:909:19
	str	r1, [sp]                        @ 4-byte Spill
	bl	_ZNRSt3__223__optional_storage_baseI9Iph_ABC_tLb0EE5__getB7v180000Ev
	ldr	r3, [sp]                        @ 4-byte Reload
	mov	r1, r0
	.loc	4 909 27                        @ D:\Embed\MDK\MDK\ARM\ARMCompilerV621\Bin\..\include\libcxx\optional:909:27
	ldr	r0, [r3]
	ldr	r2, [r3, #4]
	ldr	r3, [r3, #8]
	str	r3, [r1, #8]
	str	r2, [r1, #4]
	str	r0, [r1]
	.loc	4 909 13                        @ D:\Embed\MDK\MDK\ARM\ARMCompilerV621\Bin\..\include\libcxx\optional:909:13
	b	.LBB5_3
.LBB5_2:
	.loc	4 911 51 is_stmt 1              @ D:\Embed\MDK\MDK\ARM\ARMCompilerV621\Bin\..\include\libcxx\optional:911:51
	ldr	r0, [sp, #4]                    @ 4-byte Reload
	ldr	r1, [sp, #8]
	.loc	4 911 19 is_stmt 0              @ D:\Embed\MDK\MDK\ARM\ARMCompilerV621\Bin\..\include\libcxx\optional:911:19
	bl	_ZNSt3__223__optional_storage_baseI9Iph_ABC_tLb0EE11__constructB7v180000IJS1_EEEvDpOT_
	b	.LBB5_3
.Ltmp37:
.LBB5_3:
	.loc	4 912 9 is_stmt 1               @ D:\Embed\MDK\MDK\ARM\ARMCompilerV621\Bin\..\include\libcxx\optional:912:9
	ldr	r0, [sp, #4]                    @ 4-byte Reload
	.loc	4 912 9 epilogue_begin is_stmt 0 @ D:\Embed\MDK\MDK\ARM\ARMCompilerV621\Bin\..\include\libcxx\optional:912:9
	add	sp, #16
	pop	{r7, pc}
.Ltmp38:
.Lfunc_end5:
	.size	_ZNSt3__28optionalI9Iph_ABC_tEaSB7v180000IS1_vEERS2_OT_, .Lfunc_end5-_ZNSt3__28optionalI9Iph_ABC_tEaSB7v180000IS1_vEERS2_OT_
	.cfi_endproc
	.cantunwind
	.fnend
                                        @ -- End function
	.section	.text._ZNKSt3__223__optional_storage_baseI9Iph_ABC_tLb0EE9has_valueB7v180000Ev,"axG",%progbits,_ZNKSt3__223__optional_storage_baseI9Iph_ABC_tLb0EE9has_valueB7v180000Ev,comdat
	.hidden	_ZNKSt3__223__optional_storage_baseI9Iph_ABC_tLb0EE9has_valueB7v180000Ev @ -- Begin function _ZNKSt3__223__optional_storage_baseI9Iph_ABC_tLb0EE9has_valueB7v180000Ev
	.weak	_ZNKSt3__223__optional_storage_baseI9Iph_ABC_tLb0EE9has_valueB7v180000Ev
	.p2align	2
	.type	_ZNKSt3__223__optional_storage_baseI9Iph_ABC_tLb0EE9has_valueB7v180000Ev,%function
	.code	16                              @ @_ZNKSt3__223__optional_storage_baseI9Iph_ABC_tLb0EE9has_valueB7v180000Ev
	.thumb_func
_ZNKSt3__223__optional_storage_baseI9Iph_ABC_tLb0EE9has_valueB7v180000Ev:
.Lfunc_begin6:
	.loc	4 386 0 is_stmt 1               @ D:\Embed\MDK\MDK\ARM\ARMCompilerV621\Bin\..\include\libcxx\optional:386:0
	.fnstart
	.cfi_startproc
@ %bb.0:
	.pad	#4
	sub	sp, #4
	.cfi_def_cfa_offset 4
	str	r0, [sp]
	ldr	r0, [sp]
.Ltmp39:
	.loc	4 387 9 prologue_end            @ D:\Embed\MDK\MDK\ARM\ARMCompilerV621\Bin\..\include\libcxx\optional:387:9
	ldrb	r0, [r0, #12]
	and	r0, r0, #1
	.loc	4 387 9 epilogue_begin is_stmt 0 @ D:\Embed\MDK\MDK\ARM\ARMCompilerV621\Bin\..\include\libcxx\optional:387:9
	add	sp, #4
	bx	lr
.Ltmp40:
.Lfunc_end6:
	.size	_ZNKSt3__223__optional_storage_baseI9Iph_ABC_tLb0EE9has_valueB7v180000Ev, .Lfunc_end6-_ZNKSt3__223__optional_storage_baseI9Iph_ABC_tLb0EE9has_valueB7v180000Ev
	.cfi_endproc
	.cantunwind
	.fnend
                                        @ -- End function
	.section	.text._ZNSt3__28optionalI9Iph_ABC_tEptB7v180000Ev,"axG",%progbits,_ZNSt3__28optionalI9Iph_ABC_tEptB7v180000Ev,comdat
	.hidden	_ZNSt3__28optionalI9Iph_ABC_tEptB7v180000Ev @ -- Begin function _ZNSt3__28optionalI9Iph_ABC_tEptB7v180000Ev
	.weak	_ZNSt3__28optionalI9Iph_ABC_tEptB7v180000Ev
	.p2align	2
	.type	_ZNSt3__28optionalI9Iph_ABC_tEptB7v180000Ev,%function
	.code	16                              @ @_ZNSt3__28optionalI9Iph_ABC_tEptB7v180000Ev
	.thumb_func
_ZNSt3__28optionalI9Iph_ABC_tEptB7v180000Ev:
.Lfunc_begin7:
	.loc	4 1008 0 is_stmt 1              @ D:\Embed\MDK\MDK\ARM\ARMCompilerV621\Bin\..\include\libcxx\optional:1008:0
	.fnstart
	.cfi_startproc
@ %bb.0:
	.save	{r7, lr}
	push	{r7, lr}
	.cfi_def_cfa_offset 8
	.cfi_offset lr, -4
	.cfi_offset r7, -8
	.pad	#8
	sub	sp, #8
	.cfi_def_cfa_offset 16
	str	r0, [sp, #4]
	ldr	r0, [sp, #4]
.Ltmp41:
	.loc	4 1010 39 prologue_end          @ D:\Embed\MDK\MDK\ARM\ARMCompilerV621\Bin\..\include\libcxx\optional:1010:39
	bl	_ZNRSt3__223__optional_storage_baseI9Iph_ABC_tLb0EE5__getB7v180000Ev
	.loc	4 1010 9 epilogue_begin is_stmt 0 @ D:\Embed\MDK\MDK\ARM\ARMCompilerV621\Bin\..\include\libcxx\optional:1010:9
	add	sp, #8
	pop	{r7, pc}
.Ltmp42:
.Lfunc_end7:
	.size	_ZNSt3__28optionalI9Iph_ABC_tEptB7v180000Ev, .Lfunc_end7-_ZNSt3__28optionalI9Iph_ABC_tEptB7v180000Ev
	.cfi_endproc
	.cantunwind
	.fnend
                                        @ -- End function
	.section	.text._ZN10OutputPortIfE8previousEv,"axG",%progbits,_ZN10OutputPortIfE8previousEv,comdat
	.hidden	_ZN10OutputPortIfE8previousEv   @ -- Begin function _ZN10OutputPortIfE8previousEv
	.weak	_ZN10OutputPortIfE8previousEv
	.p2align	2
	.type	_ZN10OutputPortIfE8previousEv,%function
	.code	16                              @ @_ZN10OutputPortIfE8previousEv
	.thumb_func
_ZN10OutputPortIfE8previousEv:
.Lfunc_begin8:
	.loc	11 88 0 is_stmt 1               @ ../../Firmware\MotorControl/component.hpp:88:0
	.fnstart
	.cfi_startproc
@ %bb.0:
	.save	{r7, lr}
	push	{r7, lr}
	.cfi_def_cfa_offset 8
	.cfi_offset lr, -4
	.cfi_offset r7, -8
	.pad	#16
	sub	sp, #16
	.cfi_def_cfa_offset 24
	str	r0, [sp]                        @ 4-byte Spill
	str	r1, [sp, #12]
	ldr	r0, [sp, #12]
.Ltmp43:
	.loc	11 89 13 prologue_end           @ ../../Firmware\MotorControl/component.hpp:89:13
	str	r0, [sp, #4]                    @ 4-byte Spill
	ldr	r0, [r0]
.Ltmp44:
	.loc	11 89 13 is_stmt 0              @ ../../Firmware\MotorControl/component.hpp:89:13
	cmp	r0, #1
	bne	.LBB8_2
	b	.LBB8_1
.LBB8_1:
.Ltmp45:
	.loc	11 90 20 is_stmt 1              @ ../../Firmware\MotorControl/component.hpp:90:20
	ldr	r0, [sp]                        @ 4-byte Reload
	ldr	r1, [sp, #4]                    @ 4-byte Reload
	adds	r1, #4
	bl	_ZNSt3__28optionalIfEC2B7v180000IRfLi0EEEOT_
	.loc	11 90 13 is_stmt 0              @ ../../Firmware\MotorControl/component.hpp:90:13
	b	.LBB8_3
.Ltmp46:
.LBB8_2:
	.loc	11 92 20 is_stmt 1              @ ../../Firmware\MotorControl/component.hpp:92:20
	ldr	r0, [sp]                        @ 4-byte Reload
	bl	_ZNSt3__28optionalIfEC2B7v180000ENS_9nullopt_tE
	.loc	11 92 13 is_stmt 0              @ ../../Firmware\MotorControl/component.hpp:92:13
	b	.LBB8_3
.Ltmp47:
.LBB8_3:
	.loc	11 94 5 epilogue_begin is_stmt 1 @ ../../Firmware\MotorControl/component.hpp:94:5
	add	sp, #16
	pop	{r7, pc}
.Ltmp48:
.Lfunc_end8:
	.size	_ZN10OutputPortIfE8previousEv, .Lfunc_end8-_ZN10OutputPortIfE8previousEv
	.cfi_endproc
	.cantunwind
	.fnend
                                        @ -- End function
	.section	.text._ZNOSt3__28optionalIfE8value_orB7v180000IfEEfOT_,"axG",%progbits,_ZNOSt3__28optionalIfE8value_orB7v180000IfEEfOT_,comdat
	.hidden	_ZNOSt3__28optionalIfE8value_orB7v180000IfEEfOT_ @ -- Begin function _ZNOSt3__28optionalIfE8value_orB7v180000IfEEfOT_
	.weak	_ZNOSt3__28optionalIfE8value_orB7v180000IfEEfOT_
	.p2align	2
	.type	_ZNOSt3__28optionalIfE8value_orB7v180000IfEEfOT_,%function
	.code	16                              @ @_ZNOSt3__28optionalIfE8value_orB7v180000IfEEfOT_
	.thumb_func
_ZNOSt3__28optionalIfE8value_orB7v180000IfEEfOT_:
.Lfunc_begin9:
	.loc	4 1106 0                        @ D:\Embed\MDK\MDK\ARM\ARMCompilerV621\Bin\..\include\libcxx\optional:1106:0
	.fnstart
	.cfi_startproc
@ %bb.0:
	.save	{r7, lr}
	push	{r7, lr}
	.cfi_def_cfa_offset 8
	.cfi_offset lr, -4
	.cfi_offset r7, -8
	.pad	#16
	sub	sp, #16
	.cfi_def_cfa_offset 24
	str	r0, [sp, #12]
	str	r1, [sp, #8]
	ldr	r0, [sp, #12]
.Ltmp49:
	.loc	4 1111 22 prologue_end          @ D:\Embed\MDK\MDK\ARM\ARMCompilerV621\Bin\..\include\libcxx\optional:1111:22
	str	r0, [sp, #4]                    @ 4-byte Spill
	bl	_ZNKSt3__223__optional_storage_baseIfLb0EE9has_valueB7v180000Ev
	.loc	4 1111 16 is_stmt 0             @ D:\Embed\MDK\MDK\ARM\ARMCompilerV621\Bin\..\include\libcxx\optional:1111:16
	cbz	r0, .LBB9_2
	b	.LBB9_1
.LBB9_1:
	.loc	4 1111 54                       @ D:\Embed\MDK\MDK\ARM\ARMCompilerV621\Bin\..\include\libcxx\optional:1111:54
	ldr	r0, [sp, #4]                    @ 4-byte Reload
	bl	_ZNRSt3__223__optional_storage_baseIfLb0EE5__getB7v180000Ev
	.loc	4 1111 36                       @ D:\Embed\MDK\MDK\ARM\ARMCompilerV621\Bin\..\include\libcxx\optional:1111:36
	vldr	s0, [r0]
	vstr	s0, [sp]                        @ 4-byte Spill
	.loc	4 1111 16                       @ D:\Embed\MDK\MDK\ARM\ARMCompilerV621\Bin\..\include\libcxx\optional:1111:16
	b	.LBB9_3
.LBB9_2:
	.loc	4 1112 79 is_stmt 1             @ D:\Embed\MDK\MDK\ARM\ARMCompilerV621\Bin\..\include\libcxx\optional:1112:79
	ldr	r0, [sp, #8]
	.loc	4 1112 59 is_stmt 0             @ D:\Embed\MDK\MDK\ARM\ARMCompilerV621\Bin\..\include\libcxx\optional:1112:59
	vldr	s0, [r0]
	vstr	s0, [sp]                        @ 4-byte Spill
	.loc	4 1111 16 is_stmt 1             @ D:\Embed\MDK\MDK\ARM\ARMCompilerV621\Bin\..\include\libcxx\optional:1111:16
	b	.LBB9_3
.LBB9_3:
	vldr	s0, [sp]                        @ 4-byte Reload
	.loc	4 1111 9 epilogue_begin is_stmt 0 @ D:\Embed\MDK\MDK\ARM\ARMCompilerV621\Bin\..\include\libcxx\optional:1111:9
	add	sp, #16
	pop	{r7, pc}
.Ltmp50:
.Lfunc_end9:
	.size	_ZNOSt3__28optionalIfE8value_orB7v180000IfEEfOT_, .Lfunc_end9-_ZNOSt3__28optionalIfE8value_orB7v180000IfEEfOT_
	.cfi_endproc
	.cantunwind
	.fnend
                                        @ -- End function
	.section	.text._Z10wrap_pm_pif,"axG",%progbits,_Z10wrap_pm_pif,comdat
	.hidden	_Z10wrap_pm_pif                 @ -- Begin function _Z10wrap_pm_pif
	.weak	_Z10wrap_pm_pif
	.p2align	2
	.type	_Z10wrap_pm_pif,%function
	.code	16                              @ @_Z10wrap_pm_pif
	.thumb_func
_Z10wrap_pm_pif:
.Lfunc_begin10:
	.loc	2 139 0 is_stmt 1               @ ../../Firmware\MotorControl/utils.hpp:139:0
	.fnstart
	.cfi_startproc
@ %bb.0:
	.save	{r7, lr}
	push	{r7, lr}
	.cfi_def_cfa_offset 8
	.cfi_offset lr, -4
	.cfi_offset r7, -8
	.pad	#8
	sub	sp, #8
	.cfi_def_cfa_offset 16
	vstr	s0, [sp, #4]
.Ltmp51:
	.loc	2 140 20 prologue_end           @ ../../Firmware\MotorControl/utils.hpp:140:20
	vldr	s0, [sp, #4]
	vldr	s1, .LCPI10_0
	.loc	2 140 12 is_stmt 0              @ ../../Firmware\MotorControl/utils.hpp:140:12
	bl	_Z7wrap_pmff
	.loc	2 140 5 epilogue_begin          @ ../../Firmware\MotorControl/utils.hpp:140:5
	add	sp, #8
	pop	{r7, pc}
.Ltmp52:
	.p2align	2
@ %bb.1:
	.loc	2 0 5                           @ ../../Firmware\MotorControl/utils.hpp:0:5
.LCPI10_0:
	.long	0x40c90fdb                      @ float 6.28318548
.Lfunc_end10:
	.size	_Z10wrap_pm_pif, .Lfunc_end10-_Z10wrap_pm_pif
	.cfi_endproc
	.cantunwind
	.fnend
                                        @ -- End function
	.section	.text._ZNSt3__23maxB7v180000IfEERKT_S3_S3_,"axG",%progbits,_ZNSt3__23maxB7v180000IfEERKT_S3_S3_,comdat
	.hidden	_ZNSt3__23maxB7v180000IfEERKT_S3_S3_ @ -- Begin function _ZNSt3__23maxB7v180000IfEERKT_S3_S3_
	.weak	_ZNSt3__23maxB7v180000IfEERKT_S3_S3_
	.p2align	2
	.type	_ZNSt3__23maxB7v180000IfEERKT_S3_S3_,%function
	.code	16                              @ @_ZNSt3__23maxB7v180000IfEERKT_S3_S3_
	.thumb_func
_ZNSt3__23maxB7v180000IfEERKT_S3_S3_:
.Lfunc_begin11:
	.file	12 "D:\\Embed\\MDK\\MDK\\ARM\\ARMCompilerV621\\Bin\\..\\include\\libcxx\\__algorithm" "max.h"
	.loc	12 41 0 is_stmt 1               @ D:\Embed\MDK\MDK\ARM\ARMCompilerV621\Bin\..\include\libcxx\__algorithm/max.h:41:0
	.fnstart
	.cfi_startproc
@ %bb.0:
	.save	{r7, lr}
	push	{r7, lr}
	.cfi_def_cfa_offset 8
	.cfi_offset lr, -4
	.cfi_offset r7, -8
	.pad	#16
	sub	sp, #16
	.cfi_def_cfa_offset 24
	str	r0, [sp, #12]
	str	r1, [sp, #8]
.Ltmp53:
	.loc	12 42 23 prologue_end           @ D:\Embed\MDK\MDK\ARM\ARMCompilerV621\Bin\..\include\libcxx\__algorithm/max.h:42:23
	ldr	r0, [sp, #12]
	.loc	12 42 28 is_stmt 0              @ D:\Embed\MDK\MDK\ARM\ARMCompilerV621\Bin\..\include\libcxx\__algorithm/max.h:42:28
	ldr	r1, [sp, #8]
	.loc	12 42 12                        @ D:\Embed\MDK\MDK\ARM\ARMCompilerV621\Bin\..\include\libcxx\__algorithm/max.h:42:12
	bl	_ZNSt3__23maxB7v180000IfNS_6__lessIvvEEEERKT_S5_S5_T0_
	.loc	12 42 5 epilogue_begin          @ D:\Embed\MDK\MDK\ARM\ARMCompilerV621\Bin\..\include\libcxx\__algorithm/max.h:42:5
	add	sp, #16
	pop	{r7, pc}
.Ltmp54:
.Lfunc_end11:
	.size	_ZNSt3__23maxB7v180000IfEERKT_S3_S3_, .Lfunc_end11-_ZNSt3__23maxB7v180000IfEERKT_S3_S3_
	.cfi_endproc
	.cantunwind
	.fnend
                                        @ -- End function
	.section	.text._ZNRSt3__223__optional_storage_baseI9Iph_ABC_tLb0EE5__getB7v180000Ev,"axG",%progbits,_ZNRSt3__223__optional_storage_baseI9Iph_ABC_tLb0EE5__getB7v180000Ev,comdat
	.hidden	_ZNRSt3__223__optional_storage_baseI9Iph_ABC_tLb0EE5__getB7v180000Ev @ -- Begin function _ZNRSt3__223__optional_storage_baseI9Iph_ABC_tLb0EE5__getB7v180000Ev
	.weak	_ZNRSt3__223__optional_storage_baseI9Iph_ABC_tLb0EE5__getB7v180000Ev
	.p2align	2
	.type	_ZNRSt3__223__optional_storage_baseI9Iph_ABC_tLb0EE5__getB7v180000Ev,%function
	.code	16                              @ @_ZNRSt3__223__optional_storage_baseI9Iph_ABC_tLb0EE5__getB7v180000Ev
	.thumb_func
_ZNRSt3__223__optional_storage_baseI9Iph_ABC_tLb0EE5__getB7v180000Ev:
.Lfunc_begin12:
	.loc	4 392 0 is_stmt 1               @ D:\Embed\MDK\MDK\ARM\ARMCompilerV621\Bin\..\include\libcxx\optional:392:0
	.fnstart
	.cfi_startproc
@ %bb.0:
	.pad	#4
	sub	sp, #4
	.cfi_def_cfa_offset 4
	str	r0, [sp]
	ldr	r0, [sp]
.Ltmp55:
	.loc	4 393 9 prologue_end epilogue_begin @ D:\Embed\MDK\MDK\ARM\ARMCompilerV621\Bin\..\include\libcxx\optional:393:9
	add	sp, #4
	bx	lr
.Ltmp56:
.Lfunc_end12:
	.size	_ZNRSt3__223__optional_storage_baseI9Iph_ABC_tLb0EE5__getB7v180000Ev, .Lfunc_end12-_ZNRSt3__223__optional_storage_baseI9Iph_ABC_tLb0EE5__getB7v180000Ev
	.cfi_endproc
	.cantunwind
	.fnend
                                        @ -- End function
	.section	.text._ZNKSt3__223__optional_storage_baseIfLb0EE9has_valueB7v180000Ev,"axG",%progbits,_ZNKSt3__223__optional_storage_baseIfLb0EE9has_valueB7v180000Ev,comdat
	.hidden	_ZNKSt3__223__optional_storage_baseIfLb0EE9has_valueB7v180000Ev @ -- Begin function _ZNKSt3__223__optional_storage_baseIfLb0EE9has_valueB7v180000Ev
	.weak	_ZNKSt3__223__optional_storage_baseIfLb0EE9has_valueB7v180000Ev
	.p2align	2
	.type	_ZNKSt3__223__optional_storage_baseIfLb0EE9has_valueB7v180000Ev,%function
	.code	16                              @ @_ZNKSt3__223__optional_storage_baseIfLb0EE9has_valueB7v180000Ev
	.thumb_func
_ZNKSt3__223__optional_storage_baseIfLb0EE9has_valueB7v180000Ev:
.Lfunc_begin13:
	.loc	4 386 0                         @ D:\Embed\MDK\MDK\ARM\ARMCompilerV621\Bin\..\include\libcxx\optional:386:0
	.fnstart
	.cfi_startproc
@ %bb.0:
	.pad	#4
	sub	sp, #4
	.cfi_def_cfa_offset 4
	str	r0, [sp]
	ldr	r0, [sp]
.Ltmp57:
	.loc	4 387 9 prologue_end            @ D:\Embed\MDK\MDK\ARM\ARMCompilerV621\Bin\..\include\libcxx\optional:387:9
	ldrb	r0, [r0, #4]
	and	r0, r0, #1
	.loc	4 387 9 epilogue_begin is_stmt 0 @ D:\Embed\MDK\MDK\ARM\ARMCompilerV621\Bin\..\include\libcxx\optional:387:9
	add	sp, #4
	bx	lr
.Ltmp58:
.Lfunc_end13:
	.size	_ZNKSt3__223__optional_storage_baseIfLb0EE9has_valueB7v180000Ev, .Lfunc_end13-_ZNKSt3__223__optional_storage_baseIfLb0EE9has_valueB7v180000Ev
	.cfi_endproc
	.cantunwind
	.fnend
                                        @ -- End function
	.section	.text._ZNRSt3__223__optional_storage_baseIfLb0EE5__getB7v180000Ev,"axG",%progbits,_ZNRSt3__223__optional_storage_baseIfLb0EE5__getB7v180000Ev,comdat
	.hidden	_ZNRSt3__223__optional_storage_baseIfLb0EE5__getB7v180000Ev @ -- Begin function _ZNRSt3__223__optional_storage_baseIfLb0EE5__getB7v180000Ev
	.weak	_ZNRSt3__223__optional_storage_baseIfLb0EE5__getB7v180000Ev
	.p2align	2
	.type	_ZNRSt3__223__optional_storage_baseIfLb0EE5__getB7v180000Ev,%function
	.code	16                              @ @_ZNRSt3__223__optional_storage_baseIfLb0EE5__getB7v180000Ev
	.thumb_func
_ZNRSt3__223__optional_storage_baseIfLb0EE5__getB7v180000Ev:
.Lfunc_begin14:
	.loc	4 392 0 is_stmt 1               @ D:\Embed\MDK\MDK\ARM\ARMCompilerV621\Bin\..\include\libcxx\optional:392:0
	.fnstart
	.cfi_startproc
@ %bb.0:
	.pad	#4
	sub	sp, #4
	.cfi_def_cfa_offset 4
	str	r0, [sp]
	ldr	r0, [sp]
.Ltmp59:
	.loc	4 393 9 prologue_end epilogue_begin @ D:\Embed\MDK\MDK\ARM\ARMCompilerV621\Bin\..\include\libcxx\optional:393:9
	add	sp, #4
	bx	lr
.Ltmp60:
.Lfunc_end14:
	.size	_ZNRSt3__223__optional_storage_baseIfLb0EE5__getB7v180000Ev, .Lfunc_end14-_ZNRSt3__223__optional_storage_baseIfLb0EE5__getB7v180000Ev
	.cfi_endproc
	.cantunwind
	.fnend
                                        @ -- End function
	.section	.text._Z7wrap_pmff,"axG",%progbits,_Z7wrap_pmff,comdat
	.hidden	_Z7wrap_pmff                    @ -- Begin function _Z7wrap_pmff
	.weak	_Z7wrap_pmff
	.p2align	2
	.type	_Z7wrap_pmff,%function
	.code	16                              @ @_Z7wrap_pmff
	.thumb_func
_Z7wrap_pmff:
.Lfunc_begin15:
	.loc	2 123 0                         @ ../../Firmware\MotorControl/utils.hpp:123:0
	.fnstart
	.cfi_startproc
@ %bb.0:
	.save	{r7, lr}
	push	{r7, lr}
	.cfi_def_cfa_offset 8
	.cfi_offset lr, -4
	.cfi_offset r7, -8
	.pad	#16
	sub	sp, #16
	.cfi_def_cfa_offset 24
	vstr	s0, [sp, #12]
	vstr	s1, [sp, #8]
.Ltmp61:
	.loc	2 125 37 prologue_end           @ ../../Firmware\MotorControl/utils.hpp:125:37
	vldr	s0, [sp, #12]
	.loc	2 125 41 is_stmt 0              @ ../../Firmware\MotorControl/utils.hpp:125:41
	vldr	s2, [sp, #8]
	.loc	2 125 39                        @ ../../Firmware\MotorControl/utils.hpp:125:39
	vdiv.f32	s0, s0, s2
	.loc	2 125 27                        @ ../../Firmware\MotorControl/utils.hpp:125:27
	bl	_Z9round_intf
	vmov	s0, r0
	vcvt.f32.s32	s0, s0
	.loc	2 125 11                        @ ../../Firmware\MotorControl/utils.hpp:125:11
	vstr	s0, [sp, #4]
	.loc	2 129 12 is_stmt 1              @ ../../Firmware\MotorControl/utils.hpp:129:12
	vldr	s0, [sp, #12]
	.loc	2 129 16 is_stmt 0              @ ../../Firmware\MotorControl/utils.hpp:129:16
	vldr	s2, [sp, #4]
	.loc	2 129 25                        @ ../../Firmware\MotorControl/utils.hpp:129:25
	vldr	s4, [sp, #8]
	.loc	2 129 14                        @ ../../Firmware\MotorControl/utils.hpp:129:14
	vmul.f32	s2, s2, s4
	vsub.f32	s0, s0, s2
	.loc	2 129 5 epilogue_begin          @ ../../Firmware\MotorControl/utils.hpp:129:5
	add	sp, #16
	pop	{r7, pc}
.Ltmp62:
.Lfunc_end15:
	.size	_Z7wrap_pmff, .Lfunc_end15-_Z7wrap_pmff
	.cfi_endproc
	.cantunwind
	.fnend
                                        @ -- End function
	.section	.text._Z9round_intf,"axG",%progbits,_Z9round_intf,comdat
	.hidden	_Z9round_intf                   @ -- Begin function _Z9round_intf
	.weak	_Z9round_intf
	.p2align	2
	.type	_Z9round_intf,%function
	.code	16                              @ @_Z9round_intf
	.thumb_func
_Z9round_intf:
.Lfunc_begin16:
	.loc	2 108 0 is_stmt 1               @ ../../Firmware\MotorControl/utils.hpp:108:0
	.fnstart
	.cfi_startproc
@ %bb.0:
	.save	{r7, lr}
	push	{r7, lr}
	.cfi_def_cfa_offset 8
	.cfi_offset lr, -4
	.cfi_offset r7, -8
	.pad	#8
	sub	sp, #8
	.cfi_def_cfa_offset 16
	vstr	s0, [sp, #4]
.Ltmp63:
	.loc	2 116 27 prologue_end           @ ../../Firmware\MotorControl/utils.hpp:116:27
	vldr	s0, [sp, #4]
	.loc	2 116 17 is_stmt 0              @ ../../Firmware\MotorControl/utils.hpp:116:17
	bl	_ZNSt3__26__math9nearbyintB7v180000Ef
	vcvt.s32.f32	s0, s0
	vmov	r0, s0
	.loc	2 116 5 epilogue_begin          @ ../../Firmware\MotorControl/utils.hpp:116:5
	add	sp, #8
	pop	{r7, pc}
.Ltmp64:
.Lfunc_end16:
	.size	_Z9round_intf, .Lfunc_end16-_Z9round_intf
	.cfi_endproc
	.cantunwind
	.fnend
                                        @ -- End function
	.section	.text._ZNSt3__26__math9nearbyintB7v180000Ef,"axG",%progbits,_ZNSt3__26__math9nearbyintB7v180000Ef,comdat
	.hidden	_ZNSt3__26__math9nearbyintB7v180000Ef @ -- Begin function _ZNSt3__26__math9nearbyintB7v180000Ef
	.weak	_ZNSt3__26__math9nearbyintB7v180000Ef
	.p2align	2
	.type	_ZNSt3__26__math9nearbyintB7v180000Ef,%function
	.code	16                              @ @_ZNSt3__26__math9nearbyintB7v180000Ef
	.thumb_func
_ZNSt3__26__math9nearbyintB7v180000Ef:
.Lfunc_begin17:
	.file	13 "D:\\Embed\\MDK\\MDK\\ARM\\ARMCompilerV621\\Bin\\..\\include\\libcxx\\__math" "rounding_functions.h"
	.loc	13 150 0 is_stmt 1              @ D:\Embed\MDK\MDK\ARM\ARMCompilerV621\Bin\..\include\libcxx\__math/rounding_functions.h:150:0
	.fnstart
	.cfi_startproc
@ %bb.0:
	.save	{r7, lr}
	push	{r7, lr}
	.cfi_def_cfa_offset 8
	.cfi_offset lr, -4
	.cfi_offset r7, -8
	.pad	#8
	sub	sp, #8
	.cfi_def_cfa_offset 16
	vstr	s0, [sp, #4]
.Ltmp65:
	.loc	13 151 31 prologue_end          @ D:\Embed\MDK\MDK\ARM\ARMCompilerV621\Bin\..\include\libcxx\__math/rounding_functions.h:151:31
	vldr	s0, [sp, #4]
	.loc	13 151 10 is_stmt 0             @ D:\Embed\MDK\MDK\ARM\ARMCompilerV621\Bin\..\include\libcxx\__math/rounding_functions.h:151:10
	bl	__hardfp_nearbyintf
	.loc	13 151 3 epilogue_begin         @ D:\Embed\MDK\MDK\ARM\ARMCompilerV621\Bin\..\include\libcxx\__math/rounding_functions.h:151:3
	add	sp, #8
	pop	{r7, pc}
.Ltmp66:
.Lfunc_end17:
	.size	_ZNSt3__26__math9nearbyintB7v180000Ef, .Lfunc_end17-_ZNSt3__26__math9nearbyintB7v180000Ef
	.cfi_endproc
	.cantunwind
	.fnend
                                        @ -- End function
	.section	.text._ZNSt3__23maxB7v180000IfNS_6__lessIvvEEEERKT_S5_S5_T0_,"axG",%progbits,_ZNSt3__23maxB7v180000IfNS_6__lessIvvEEEERKT_S5_S5_T0_,comdat
	.hidden	_ZNSt3__23maxB7v180000IfNS_6__lessIvvEEEERKT_S5_S5_T0_ @ -- Begin function _ZNSt3__23maxB7v180000IfNS_6__lessIvvEEEERKT_S5_S5_T0_
	.weak	_ZNSt3__23maxB7v180000IfNS_6__lessIvvEEEERKT_S5_S5_T0_
	.p2align	2
	.type	_ZNSt3__23maxB7v180000IfNS_6__lessIvvEEEERKT_S5_S5_T0_,%function
	.code	16                              @ @_ZNSt3__23maxB7v180000IfNS_6__lessIvvEEEERKT_S5_S5_T0_
	.thumb_func
_ZNSt3__23maxB7v180000IfNS_6__lessIvvEEEERKT_S5_S5_T0_:
.Lfunc_begin18:
	.loc	12 32 0 is_stmt 1               @ D:\Embed\MDK\MDK\ARM\ARMCompilerV621\Bin\..\include\libcxx\__algorithm/max.h:32:0
	.fnstart
	.cfi_startproc
@ %bb.0:
	.save	{r7, lr}
	push	{r7, lr}
	.cfi_def_cfa_offset 8
	.cfi_offset lr, -4
	.cfi_offset r7, -8
	.pad	#16
	sub	sp, #16
	.cfi_def_cfa_offset 24
	str	r0, [sp, #8]
	str	r1, [sp, #4]
.Ltmp67:
	.loc	12 33 19 prologue_end           @ D:\Embed\MDK\MDK\ARM\ARMCompilerV621\Bin\..\include\libcxx\__algorithm/max.h:33:19
	ldr	r1, [sp, #8]
	.loc	12 33 24 is_stmt 0              @ D:\Embed\MDK\MDK\ARM\ARMCompilerV621\Bin\..\include\libcxx\__algorithm/max.h:33:24
	ldr	r2, [sp, #4]
	add.w	r0, sp, #15
	.loc	12 33 12                        @ D:\Embed\MDK\MDK\ARM\ARMCompilerV621\Bin\..\include\libcxx\__algorithm/max.h:33:12
	bl	_ZNKSt3__26__lessIvvEclB7v180000IffEEbRKT_RKT0_
	cbz	r0, .LBB18_2
	b	.LBB18_1
.LBB18_1:
	.loc	12 33 31                        @ D:\Embed\MDK\MDK\ARM\ARMCompilerV621\Bin\..\include\libcxx\__algorithm/max.h:33:31
	ldr	r0, [sp, #4]
	.loc	12 33 12                        @ D:\Embed\MDK\MDK\ARM\ARMCompilerV621\Bin\..\include\libcxx\__algorithm/max.h:33:12
	str	r0, [sp]                        @ 4-byte Spill
	b	.LBB18_3
.LBB18_2:
	.loc	12 33 37                        @ D:\Embed\MDK\MDK\ARM\ARMCompilerV621\Bin\..\include\libcxx\__algorithm/max.h:33:37
	ldr	r0, [sp, #8]
	.loc	12 33 12                        @ D:\Embed\MDK\MDK\ARM\ARMCompilerV621\Bin\..\include\libcxx\__algorithm/max.h:33:12
	str	r0, [sp]                        @ 4-byte Spill
	b	.LBB18_3
.LBB18_3:
	ldr	r0, [sp]                        @ 4-byte Reload
	.loc	12 33 5 epilogue_begin          @ D:\Embed\MDK\MDK\ARM\ARMCompilerV621\Bin\..\include\libcxx\__algorithm/max.h:33:5
	add	sp, #16
	pop	{r7, pc}
.Ltmp68:
.Lfunc_end18:
	.size	_ZNSt3__23maxB7v180000IfNS_6__lessIvvEEEERKT_S5_S5_T0_, .Lfunc_end18-_ZNSt3__23maxB7v180000IfNS_6__lessIvvEEEERKT_S5_S5_T0_
	.cfi_endproc
	.cantunwind
	.fnend
                                        @ -- End function
	.section	.text._ZNKSt3__26__lessIvvEclB7v180000IffEEbRKT_RKT0_,"axG",%progbits,_ZNKSt3__26__lessIvvEclB7v180000IffEEbRKT_RKT0_,comdat
	.hidden	_ZNKSt3__26__lessIvvEclB7v180000IffEEbRKT_RKT0_ @ -- Begin function _ZNKSt3__26__lessIvvEclB7v180000IffEEbRKT_RKT0_
	.weak	_ZNKSt3__26__lessIvvEclB7v180000IffEEbRKT_RKT0_
	.p2align	2
	.type	_ZNKSt3__26__lessIvvEclB7v180000IffEEbRKT_RKT0_,%function
	.code	16                              @ @_ZNKSt3__26__lessIvvEclB7v180000IffEEbRKT_RKT0_
	.thumb_func
_ZNKSt3__26__lessIvvEclB7v180000IffEEbRKT_RKT0_:
.Lfunc_begin19:
	.file	14 "D:\\Embed\\MDK\\MDK\\ARM\\ARMCompilerV621\\Bin\\..\\include\\libcxx\\__algorithm" "comp.h"
	.loc	14 40 0 is_stmt 1               @ D:\Embed\MDK\MDK\ARM\ARMCompilerV621\Bin\..\include\libcxx\__algorithm/comp.h:40:0
	.fnstart
	.cfi_startproc
@ %bb.0:
	.pad	#12
	sub	sp, #12
	.cfi_def_cfa_offset 12
	str	r0, [sp, #8]
	str	r1, [sp, #4]
	str	r2, [sp]
.Ltmp69:
	.loc	14 41 12 prologue_end           @ D:\Embed\MDK\MDK\ARM\ARMCompilerV621\Bin\..\include\libcxx\__algorithm/comp.h:41:12
	ldr	r0, [sp, #4]
	vldr	s0, [r0]
	.loc	14 41 20 is_stmt 0              @ D:\Embed\MDK\MDK\ARM\ARMCompilerV621\Bin\..\include\libcxx\__algorithm/comp.h:41:20
	ldr	r0, [sp]
	vldr	s2, [r0]
	movs	r0, #0
	.loc	14 41 18                        @ D:\Embed\MDK\MDK\ARM\ARMCompilerV621\Bin\..\include\libcxx\__algorithm/comp.h:41:18
	vcmp.f32	s0, s2
	vmrs	APSR_nzcv, fpscr
	it	lt
	movlt	r0, #1
	.loc	14 41 5 epilogue_begin          @ D:\Embed\MDK\MDK\ARM\ARMCompilerV621\Bin\..\include\libcxx\__algorithm/comp.h:41:5
	add	sp, #12
	bx	lr
.Ltmp70:
.Lfunc_end19:
	.size	_ZNKSt3__26__lessIvvEclB7v180000IffEEbRKT_RKT0_, .Lfunc_end19-_ZNKSt3__26__lessIvvEclB7v180000IffEEbRKT_RKT0_
	.cfi_endproc
	.cantunwind
	.fnend
                                        @ -- End function
	.section	.text._ZNSt3__223__optional_storage_baseI9Iph_ABC_tLb0EE11__constructB7v180000IJS1_EEEvDpOT_,"axG",%progbits,_ZNSt3__223__optional_storage_baseI9Iph_ABC_tLb0EE11__constructB7v180000IJS1_EEEvDpOT_,comdat
	.hidden	_ZNSt3__223__optional_storage_baseI9Iph_ABC_tLb0EE11__constructB7v180000IJS1_EEEvDpOT_ @ -- Begin function _ZNSt3__223__optional_storage_baseI9Iph_ABC_tLb0EE11__constructB7v180000IJS1_EEEvDpOT_
	.weak	_ZNSt3__223__optional_storage_baseI9Iph_ABC_tLb0EE11__constructB7v180000IJS1_EEEvDpOT_
	.p2align	2
	.type	_ZNSt3__223__optional_storage_baseI9Iph_ABC_tLb0EE11__constructB7v180000IJS1_EEEvDpOT_,%function
	.code	16                              @ @_ZNSt3__223__optional_storage_baseI9Iph_ABC_tLb0EE11__constructB7v180000IJS1_EEEvDpOT_
	.thumb_func
_ZNSt3__223__optional_storage_baseI9Iph_ABC_tLb0EE11__constructB7v180000IJS1_EEEvDpOT_:
.Lfunc_begin20:
	.loc	4 414 0 is_stmt 1               @ D:\Embed\MDK\MDK\ARM\ARMCompilerV621\Bin\..\include\libcxx\optional:414:0
	.fnstart
	.cfi_startproc
@ %bb.0:
	.pad	#8
	sub	sp, #8
	.cfi_def_cfa_offset 8
	str	r0, [sp, #4]
	str	r1, [sp]
	ldr	r1, [sp, #4]
.Ltmp71:
	.loc	4 419 88 prologue_end           @ D:\Embed\MDK\MDK\ARM\ARMCompilerV621\Bin\..\include\libcxx\optional:419:88
	ldr	r3, [sp]
	.loc	4 419 55 is_stmt 0              @ D:\Embed\MDK\MDK\ARM\ARMCompilerV621\Bin\..\include\libcxx\optional:419:55
	ldr	r0, [r3]
	ldr	r2, [r3, #4]
	ldr	r3, [r3, #8]
	str	r3, [r1, #8]
	str	r2, [r1, #4]
	str	r0, [r1]
	movs	r0, #1
	.loc	4 421 26 is_stmt 1              @ D:\Embed\MDK\MDK\ARM\ARMCompilerV621\Bin\..\include\libcxx\optional:421:26
	strb	r0, [r1, #12]
	.loc	4 422 5 epilogue_begin          @ D:\Embed\MDK\MDK\ARM\ARMCompilerV621\Bin\..\include\libcxx\optional:422:5
	add	sp, #8
	bx	lr
.Ltmp72:
.Lfunc_end20:
	.size	_ZNSt3__223__optional_storage_baseI9Iph_ABC_tLb0EE11__constructB7v180000IJS1_EEEvDpOT_, .Lfunc_end20-_ZNSt3__223__optional_storage_baseI9Iph_ABC_tLb0EE11__constructB7v180000IJS1_EEEvDpOT_
	.cfi_endproc
	.cantunwind
	.fnend
                                        @ -- End function
	.section	.text._ZNSt3__28optionalIfEC2B7v180000IRfLi0EEEOT_,"axG",%progbits,_ZNSt3__28optionalIfEC2B7v180000IRfLi0EEEOT_,comdat
	.hidden	_ZNSt3__28optionalIfEC2B7v180000IRfLi0EEEOT_ @ -- Begin function _ZNSt3__28optionalIfEC2B7v180000IRfLi0EEEOT_
	.weak	_ZNSt3__28optionalIfEC2B7v180000IRfLi0EEEOT_
	.p2align	2
	.type	_ZNSt3__28optionalIfEC2B7v180000IRfLi0EEEOT_,%function
	.code	16                              @ @_ZNSt3__28optionalIfEC2B7v180000IRfLi0EEEOT_
	.thumb_func
_ZNSt3__28optionalIfEC2B7v180000IRfLi0EEEOT_:
.Lfunc_begin21:
	.loc	4 828 0                         @ D:\Embed\MDK\MDK\ARM\ARMCompilerV621\Bin\..\include\libcxx\optional:828:0
	.fnstart
	.cfi_startproc
@ %bb.0:
	.save	{r7, lr}
	push	{r7, lr}
	.cfi_def_cfa_offset 8
	.cfi_offset lr, -4
	.cfi_offset r7, -8
	.pad	#16
	sub	sp, #16
	.cfi_def_cfa_offset 24
	str	r0, [sp, #12]
	str	r1, [sp, #8]
	ldr	r0, [sp, #12]
.Ltmp73:
	.loc	4 828 48 prologue_end           @ D:\Embed\MDK\MDK\ARM\ARMCompilerV621\Bin\..\include\libcxx\optional:828:48
	str	r0, [sp]                        @ 4-byte Spill
	ldr	r1, [sp, #8]
	.loc	4 828 11 is_stmt 0              @ D:\Embed\MDK\MDK\ARM\ARMCompilerV621\Bin\..\include\libcxx\optional:828:11
	bl	_ZNSt3__227__optional_move_assign_baseIfLb1EECI2NS_24__optional_destruct_baseIfLb1EEEIJRfEEENS_10in_place_tEDpOT_
	ldr	r0, [sp]                        @ 4-byte Reload
	.loc	4 828 55 epilogue_begin         @ D:\Embed\MDK\MDK\ARM\ARMCompilerV621\Bin\..\include\libcxx\optional:828:55
	add	sp, #16
	pop	{r7, pc}
.Ltmp74:
.Lfunc_end21:
	.size	_ZNSt3__28optionalIfEC2B7v180000IRfLi0EEEOT_, .Lfunc_end21-_ZNSt3__28optionalIfEC2B7v180000IRfLi0EEEOT_
	.cfi_endproc
	.cantunwind
	.fnend
                                        @ -- End function
	.section	.text._ZNSt3__28optionalIfEC2B7v180000ENS_9nullopt_tE,"axG",%progbits,_ZNSt3__28optionalIfEC2B7v180000ENS_9nullopt_tE,comdat
	.hidden	_ZNSt3__28optionalIfEC2B7v180000ENS_9nullopt_tE @ -- Begin function _ZNSt3__28optionalIfEC2B7v180000ENS_9nullopt_tE
	.weak	_ZNSt3__28optionalIfEC2B7v180000ENS_9nullopt_tE
	.p2align	2
	.type	_ZNSt3__28optionalIfEC2B7v180000ENS_9nullopt_tE,%function
	.code	16                              @ @_ZNSt3__28optionalIfEC2B7v180000ENS_9nullopt_tE
	.thumb_func
_ZNSt3__28optionalIfEC2B7v180000ENS_9nullopt_tE:
.Lfunc_begin22:
	.loc	4 803 0 is_stmt 1               @ D:\Embed\MDK\MDK\ARM\ARMCompilerV621\Bin\..\include\libcxx\optional:803:0
	.fnstart
	.cfi_startproc
@ %bb.0:
	.save	{r7, lr}
	push	{r7, lr}
	.cfi_def_cfa_offset 8
	.cfi_offset lr, -4
	.cfi_offset r7, -8
	.pad	#16
	sub	sp, #16
	.cfi_def_cfa_offset 24
	str	r0, [sp, #8]
	ldr	r0, [sp, #8]
.Ltmp75:
	.loc	4 803 41 prologue_end           @ D:\Embed\MDK\MDK\ARM\ARMCompilerV621\Bin\..\include\libcxx\optional:803:41
	str	r0, [sp, #4]                    @ 4-byte Spill
	bl	_ZNSt3__227__optional_move_assign_baseIfLb1EEC2Ev
	ldr	r0, [sp, #4]                    @ 4-byte Reload
	.loc	4 803 71 epilogue_begin is_stmt 0 @ D:\Embed\MDK\MDK\ARM\ARMCompilerV621\Bin\..\include\libcxx\optional:803:71
	add	sp, #16
	pop	{r7, pc}
.Ltmp76:
.Lfunc_end22:
	.size	_ZNSt3__28optionalIfEC2B7v180000ENS_9nullopt_tE, .Lfunc_end22-_ZNSt3__28optionalIfEC2B7v180000ENS_9nullopt_tE
	.cfi_endproc
	.cantunwind
	.fnend
                                        @ -- End function
	.section	.text._ZNSt3__227__optional_move_assign_baseIfLb1EECI2NS_24__optional_destruct_baseIfLb1EEEIJRfEEENS_10in_place_tEDpOT_,"axG",%progbits,_ZNSt3__227__optional_move_assign_baseIfLb1EECI2NS_24__optional_destruct_baseIfLb1EEEIJRfEEENS_10in_place_tEDpOT_,comdat
	.hidden	_ZNSt3__227__optional_move_assign_baseIfLb1EECI2NS_24__optional_destruct_baseIfLb1EEEIJRfEEENS_10in_place_tEDpOT_ @ -- Begin function _ZNSt3__227__optional_move_assign_baseIfLb1EECI2NS_24__optional_destruct_baseIfLb1EEEIJRfEEENS_10in_place_tEDpOT_
	.weak	_ZNSt3__227__optional_move_assign_baseIfLb1EECI2NS_24__optional_destruct_baseIfLb1EEEIJRfEEENS_10in_place_tEDpOT_
	.p2align	2
	.type	_ZNSt3__227__optional_move_assign_baseIfLb1EECI2NS_24__optional_destruct_baseIfLb1EEEIJRfEEENS_10in_place_tEDpOT_,%function
	.code	16                              @ @_ZNSt3__227__optional_move_assign_baseIfLb1EECI2NS_24__optional_destruct_baseIfLb1EEEIJRfEEENS_10in_place_tEDpOT_
	.thumb_func
_ZNSt3__227__optional_move_assign_baseIfLb1EECI2NS_24__optional_destruct_baseIfLb1EEEIJRfEEENS_10in_place_tEDpOT_:
.Lfunc_begin23:
	.loc	4 640 0 is_stmt 1               @ D:\Embed\MDK\MDK\ARM\ARMCompilerV621\Bin\..\include\libcxx\optional:640:0
	.fnstart
	.cfi_startproc
@ %bb.0:
	.save	{r7, lr}
	push	{r7, lr}
	.cfi_def_cfa_offset 8
	.cfi_offset lr, -4
	.cfi_offset r7, -8
	.pad	#16
	sub	sp, #16
	.cfi_def_cfa_offset 24
	str	r0, [sp, #8]
	str	r1, [sp, #4]
	ldr	r0, [sp, #8]
.Ltmp77:
	.loc	4 640 45 prologue_end           @ D:\Embed\MDK\MDK\ARM\ARMCompilerV621\Bin\..\include\libcxx\optional:640:45
	str	r0, [sp]                        @ 4-byte Spill
	ldr	r1, [sp, #4]
	bl	_ZNSt3__227__optional_copy_assign_baseIfLb1EECI2NS_24__optional_destruct_baseIfLb1EEEIJRfEEENS_10in_place_tEDpOT_
	ldr	r0, [sp]                        @ 4-byte Reload
	.loc	4 640 45 epilogue_begin is_stmt 0 @ D:\Embed\MDK\MDK\ARM\ARMCompilerV621\Bin\..\include\libcxx\optional:640:45
	add	sp, #16
	pop	{r7, pc}
.Ltmp78:
.Lfunc_end23:
	.size	_ZNSt3__227__optional_move_assign_baseIfLb1EECI2NS_24__optional_destruct_baseIfLb1EEEIJRfEEENS_10in_place_tEDpOT_, .Lfunc_end23-_ZNSt3__227__optional_move_assign_baseIfLb1EECI2NS_24__optional_destruct_baseIfLb1EEEIJRfEEENS_10in_place_tEDpOT_
	.cfi_endproc
	.cantunwind
	.fnend
                                        @ -- End function
	.section	.text._ZNSt3__227__optional_copy_assign_baseIfLb1EECI2NS_24__optional_destruct_baseIfLb1EEEIJRfEEENS_10in_place_tEDpOT_,"axG",%progbits,_ZNSt3__227__optional_copy_assign_baseIfLb1EECI2NS_24__optional_destruct_baseIfLb1EEEIJRfEEENS_10in_place_tEDpOT_,comdat
	.hidden	_ZNSt3__227__optional_copy_assign_baseIfLb1EECI2NS_24__optional_destruct_baseIfLb1EEEIJRfEEENS_10in_place_tEDpOT_ @ -- Begin function _ZNSt3__227__optional_copy_assign_baseIfLb1EECI2NS_24__optional_destruct_baseIfLb1EEEIJRfEEENS_10in_place_tEDpOT_
	.weak	_ZNSt3__227__optional_copy_assign_baseIfLb1EECI2NS_24__optional_destruct_baseIfLb1EEEIJRfEEENS_10in_place_tEDpOT_
	.p2align	2
	.type	_ZNSt3__227__optional_copy_assign_baseIfLb1EECI2NS_24__optional_destruct_baseIfLb1EEEIJRfEEENS_10in_place_tEDpOT_,%function
	.code	16                              @ @_ZNSt3__227__optional_copy_assign_baseIfLb1EECI2NS_24__optional_destruct_baseIfLb1EEEIJRfEEENS_10in_place_tEDpOT_
	.thumb_func
_ZNSt3__227__optional_copy_assign_baseIfLb1EECI2NS_24__optional_destruct_baseIfLb1EEEIJRfEEENS_10in_place_tEDpOT_:
.Lfunc_begin24:
	.loc	4 608 0 is_stmt 1               @ D:\Embed\MDK\MDK\ARM\ARMCompilerV621\Bin\..\include\libcxx\optional:608:0
	.fnstart
	.cfi_startproc
@ %bb.0:
	.save	{r7, lr}
	push	{r7, lr}
	.cfi_def_cfa_offset 8
	.cfi_offset lr, -4
	.cfi_offset r7, -8
	.pad	#16
	sub	sp, #16
	.cfi_def_cfa_offset 24
	str	r0, [sp, #8]
	str	r1, [sp, #4]
	ldr	r0, [sp, #8]
.Ltmp79:
	.loc	4 608 38 prologue_end           @ D:\Embed\MDK\MDK\ARM\ARMCompilerV621\Bin\..\include\libcxx\optional:608:38
	str	r0, [sp]                        @ 4-byte Spill
	ldr	r1, [sp, #4]
	bl	_ZNSt3__220__optional_move_baseIfLb1EECI2NS_24__optional_destruct_baseIfLb1EEEIJRfEEENS_10in_place_tEDpOT_
	ldr	r0, [sp]                        @ 4-byte Reload
	.loc	4 608 38 epilogue_begin is_stmt 0 @ D:\Embed\MDK\MDK\ARM\ARMCompilerV621\Bin\..\include\libcxx\optional:608:38
	add	sp, #16
	pop	{r7, pc}
.Ltmp80:
.Lfunc_end24:
	.size	_ZNSt3__227__optional_copy_assign_baseIfLb1EECI2NS_24__optional_destruct_baseIfLb1EEEIJRfEEENS_10in_place_tEDpOT_, .Lfunc_end24-_ZNSt3__227__optional_copy_assign_baseIfLb1EECI2NS_24__optional_destruct_baseIfLb1EEEIJRfEEENS_10in_place_tEDpOT_
	.cfi_endproc
	.cantunwind
	.fnend
                                        @ -- End function
	.section	.text._ZNSt3__220__optional_move_baseIfLb1EECI2NS_24__optional_destruct_baseIfLb1EEEIJRfEEENS_10in_place_tEDpOT_,"axG",%progbits,_ZNSt3__220__optional_move_baseIfLb1EECI2NS_24__optional_destruct_baseIfLb1EEEIJRfEEENS_10in_place_tEDpOT_,comdat
	.hidden	_ZNSt3__220__optional_move_baseIfLb1EECI2NS_24__optional_destruct_baseIfLb1EEEIJRfEEENS_10in_place_tEDpOT_ @ -- Begin function _ZNSt3__220__optional_move_baseIfLb1EECI2NS_24__optional_destruct_baseIfLb1EEEIJRfEEENS_10in_place_tEDpOT_
	.weak	_ZNSt3__220__optional_move_baseIfLb1EECI2NS_24__optional_destruct_baseIfLb1EEEIJRfEEENS_10in_place_tEDpOT_
	.p2align	2
	.type	_ZNSt3__220__optional_move_baseIfLb1EECI2NS_24__optional_destruct_baseIfLb1EEEIJRfEEENS_10in_place_tEDpOT_,%function
	.code	16                              @ @_ZNSt3__220__optional_move_baseIfLb1EECI2NS_24__optional_destruct_baseIfLb1EEEIJRfEEENS_10in_place_tEDpOT_
	.thumb_func
_ZNSt3__220__optional_move_baseIfLb1EECI2NS_24__optional_destruct_baseIfLb1EEEIJRfEEENS_10in_place_tEDpOT_:
.Lfunc_begin25:
	.loc	4 575 0 is_stmt 1               @ D:\Embed\MDK\MDK\ARM\ARMCompilerV621\Bin\..\include\libcxx\optional:575:0
	.fnstart
	.cfi_startproc
@ %bb.0:
	.save	{r7, lr}
	push	{r7, lr}
	.cfi_def_cfa_offset 8
	.cfi_offset lr, -4
	.cfi_offset r7, -8
	.pad	#16
	sub	sp, #16
	.cfi_def_cfa_offset 24
	str	r0, [sp, #8]
	str	r1, [sp, #4]
	ldr	r0, [sp, #8]
.Ltmp81:
	.loc	4 575 38 prologue_end           @ D:\Embed\MDK\MDK\ARM\ARMCompilerV621\Bin\..\include\libcxx\optional:575:38
	str	r0, [sp]                        @ 4-byte Spill
	ldr	r1, [sp, #4]
	bl	_ZNSt3__220__optional_copy_baseIfLb1EECI2NS_24__optional_destruct_baseIfLb1EEEIJRfEEENS_10in_place_tEDpOT_
	ldr	r0, [sp]                        @ 4-byte Reload
	.loc	4 575 38 epilogue_begin is_stmt 0 @ D:\Embed\MDK\MDK\ARM\ARMCompilerV621\Bin\..\include\libcxx\optional:575:38
	add	sp, #16
	pop	{r7, pc}
.Ltmp82:
.Lfunc_end25:
	.size	_ZNSt3__220__optional_move_baseIfLb1EECI2NS_24__optional_destruct_baseIfLb1EEEIJRfEEENS_10in_place_tEDpOT_, .Lfunc_end25-_ZNSt3__220__optional_move_baseIfLb1EECI2NS_24__optional_destruct_baseIfLb1EEEIJRfEEENS_10in_place_tEDpOT_
	.cfi_endproc
	.cantunwind
	.fnend
                                        @ -- End function
	.section	.text._ZNSt3__220__optional_copy_baseIfLb1EECI2NS_24__optional_destruct_baseIfLb1EEEIJRfEEENS_10in_place_tEDpOT_,"axG",%progbits,_ZNSt3__220__optional_copy_baseIfLb1EECI2NS_24__optional_destruct_baseIfLb1EEEIJRfEEENS_10in_place_tEDpOT_,comdat
	.hidden	_ZNSt3__220__optional_copy_baseIfLb1EECI2NS_24__optional_destruct_baseIfLb1EEEIJRfEEENS_10in_place_tEDpOT_ @ -- Begin function _ZNSt3__220__optional_copy_baseIfLb1EECI2NS_24__optional_destruct_baseIfLb1EEEIJRfEEENS_10in_place_tEDpOT_
	.weak	_ZNSt3__220__optional_copy_baseIfLb1EECI2NS_24__optional_destruct_baseIfLb1EEEIJRfEEENS_10in_place_tEDpOT_
	.p2align	2
	.type	_ZNSt3__220__optional_copy_baseIfLb1EECI2NS_24__optional_destruct_baseIfLb1EEEIJRfEEENS_10in_place_tEDpOT_,%function
	.code	16                              @ @_ZNSt3__220__optional_copy_baseIfLb1EECI2NS_24__optional_destruct_baseIfLb1EEEIJRfEEENS_10in_place_tEDpOT_
	.thumb_func
_ZNSt3__220__optional_copy_baseIfLb1EECI2NS_24__optional_destruct_baseIfLb1EEEIJRfEEENS_10in_place_tEDpOT_:
.Lfunc_begin26:
	.loc	4 547 0 is_stmt 1               @ D:\Embed\MDK\MDK\ARM\ARMCompilerV621\Bin\..\include\libcxx\optional:547:0
	.fnstart
	.cfi_startproc
@ %bb.0:
	.save	{r7, lr}
	push	{r7, lr}
	.cfi_def_cfa_offset 8
	.cfi_offset lr, -4
	.cfi_offset r7, -8
	.pad	#16
	sub	sp, #16
	.cfi_def_cfa_offset 24
	str	r0, [sp, #8]
	str	r1, [sp, #4]
	ldr	r0, [sp, #8]
.Ltmp83:
	.loc	4 547 41 prologue_end           @ D:\Embed\MDK\MDK\ARM\ARMCompilerV621\Bin\..\include\libcxx\optional:547:41
	str	r0, [sp]                        @ 4-byte Spill
	ldr	r1, [sp, #4]
	bl	_ZNSt3__223__optional_storage_baseIfLb0EECI2NS_24__optional_destruct_baseIfLb1EEEIJRfEEENS_10in_place_tEDpOT_
	ldr	r0, [sp]                        @ 4-byte Reload
	.loc	4 547 41 epilogue_begin is_stmt 0 @ D:\Embed\MDK\MDK\ARM\ARMCompilerV621\Bin\..\include\libcxx\optional:547:41
	add	sp, #16
	pop	{r7, pc}
.Ltmp84:
.Lfunc_end26:
	.size	_ZNSt3__220__optional_copy_baseIfLb1EECI2NS_24__optional_destruct_baseIfLb1EEEIJRfEEENS_10in_place_tEDpOT_, .Lfunc_end26-_ZNSt3__220__optional_copy_baseIfLb1EECI2NS_24__optional_destruct_baseIfLb1EEEIJRfEEENS_10in_place_tEDpOT_
	.cfi_endproc
	.cantunwind
	.fnend
                                        @ -- End function
	.section	.text._ZNSt3__223__optional_storage_baseIfLb0EECI2NS_24__optional_destruct_baseIfLb1EEEIJRfEEENS_10in_place_tEDpOT_,"axG",%progbits,_ZNSt3__223__optional_storage_baseIfLb0EECI2NS_24__optional_destruct_baseIfLb1EEEIJRfEEENS_10in_place_tEDpOT_,comdat
	.hidden	_ZNSt3__223__optional_storage_baseIfLb0EECI2NS_24__optional_destruct_baseIfLb1EEEIJRfEEENS_10in_place_tEDpOT_ @ -- Begin function _ZNSt3__223__optional_storage_baseIfLb0EECI2NS_24__optional_destruct_baseIfLb1EEEIJRfEEENS_10in_place_tEDpOT_
	.weak	_ZNSt3__223__optional_storage_baseIfLb0EECI2NS_24__optional_destruct_baseIfLb1EEEIJRfEEENS_10in_place_tEDpOT_
	.p2align	2
	.type	_ZNSt3__223__optional_storage_baseIfLb0EECI2NS_24__optional_destruct_baseIfLb1EEEIJRfEEENS_10in_place_tEDpOT_,%function
	.code	16                              @ @_ZNSt3__223__optional_storage_baseIfLb0EECI2NS_24__optional_destruct_baseIfLb1EEEIJRfEEENS_10in_place_tEDpOT_
	.thumb_func
_ZNSt3__223__optional_storage_baseIfLb0EECI2NS_24__optional_destruct_baseIfLb1EEEIJRfEEENS_10in_place_tEDpOT_:
.Lfunc_begin27:
	.loc	4 382 0 is_stmt 1               @ D:\Embed\MDK\MDK\ARM\ARMCompilerV621\Bin\..\include\libcxx\optional:382:0
	.fnstart
	.cfi_startproc
@ %bb.0:
	.save	{r7, lr}
	push	{r7, lr}
	.cfi_def_cfa_offset 8
	.cfi_offset lr, -4
	.cfi_offset r7, -8
	.pad	#16
	sub	sp, #16
	.cfi_def_cfa_offset 24
	str	r0, [sp, #8]
	str	r1, [sp, #4]
	ldr	r0, [sp, #8]
.Ltmp85:
	.loc	4 382 19 prologue_end           @ D:\Embed\MDK\MDK\ARM\ARMCompilerV621\Bin\..\include\libcxx\optional:382:19
	str	r0, [sp]                        @ 4-byte Spill
	ldr	r1, [sp, #4]
	bl	_ZNSt3__224__optional_destruct_baseIfLb1EEC2B7v180000IJRfEEENS_10in_place_tEDpOT_
	ldr	r0, [sp]                        @ 4-byte Reload
	.loc	4 382 19 epilogue_begin is_stmt 0 @ D:\Embed\MDK\MDK\ARM\ARMCompilerV621\Bin\..\include\libcxx\optional:382:19
	add	sp, #16
	pop	{r7, pc}
.Ltmp86:
.Lfunc_end27:
	.size	_ZNSt3__223__optional_storage_baseIfLb0EECI2NS_24__optional_destruct_baseIfLb1EEEIJRfEEENS_10in_place_tEDpOT_, .Lfunc_end27-_ZNSt3__223__optional_storage_baseIfLb0EECI2NS_24__optional_destruct_baseIfLb1EEEIJRfEEENS_10in_place_tEDpOT_
	.cfi_endproc
	.cantunwind
	.fnend
                                        @ -- End function
	.section	.text._ZNSt3__224__optional_destruct_baseIfLb1EEC2B7v180000IJRfEEENS_10in_place_tEDpOT_,"axG",%progbits,_ZNSt3__224__optional_destruct_baseIfLb1EEC2B7v180000IJRfEEENS_10in_place_tEDpOT_,comdat
	.hidden	_ZNSt3__224__optional_destruct_baseIfLb1EEC2B7v180000IJRfEEENS_10in_place_tEDpOT_ @ -- Begin function _ZNSt3__224__optional_destruct_baseIfLb1EEC2B7v180000IJRfEEENS_10in_place_tEDpOT_
	.weak	_ZNSt3__224__optional_destruct_baseIfLb1EEC2B7v180000IJRfEEENS_10in_place_tEDpOT_
	.p2align	2
	.type	_ZNSt3__224__optional_destruct_baseIfLb1EEC2B7v180000IJRfEEENS_10in_place_tEDpOT_,%function
	.code	16                              @ @_ZNSt3__224__optional_destruct_baseIfLb1EEC2B7v180000IJRfEEENS_10in_place_tEDpOT_
	.thumb_func
_ZNSt3__224__optional_destruct_baseIfLb1EEC2B7v180000IJRfEEENS_10in_place_tEDpOT_:
.Lfunc_begin28:
	.loc	4 358 0 is_stmt 1               @ D:\Embed\MDK\MDK\ARM\ARMCompilerV621\Bin\..\include\libcxx\optional:358:0
	.fnstart
	.cfi_startproc
@ %bb.0:
	.pad	#12
	sub	sp, #12
	.cfi_def_cfa_offset 12
	str	r0, [sp, #4]
	str	r1, [sp]
	ldr	r0, [sp, #4]
.Ltmp87:
	.loc	4 357 41 prologue_end           @ D:\Embed\MDK\MDK\ARM\ARMCompilerV621\Bin\..\include\libcxx\optional:357:41
	ldr	r1, [sp]
	.loc	4 357 19 is_stmt 0              @ D:\Embed\MDK\MDK\ARM\ARMCompilerV621\Bin\..\include\libcxx\optional:357:19
	ldr	r1, [r1]
	.loc	4 357 12                        @ D:\Embed\MDK\MDK\ARM\ARMCompilerV621\Bin\..\include\libcxx\optional:357:12
	str	r1, [r0]
	movs	r1, #1
	.loc	4 358 12 is_stmt 1              @ D:\Embed\MDK\MDK\ARM\ARMCompilerV621\Bin\..\include\libcxx\optional:358:12
	strb	r1, [r0, #4]
	.loc	4 358 30 epilogue_begin is_stmt 0 @ D:\Embed\MDK\MDK\ARM\ARMCompilerV621\Bin\..\include\libcxx\optional:358:30
	add	sp, #12
	bx	lr
.Ltmp88:
.Lfunc_end28:
	.size	_ZNSt3__224__optional_destruct_baseIfLb1EEC2B7v180000IJRfEEENS_10in_place_tEDpOT_, .Lfunc_end28-_ZNSt3__224__optional_destruct_baseIfLb1EEC2B7v180000IJRfEEENS_10in_place_tEDpOT_
	.cfi_endproc
	.cantunwind
	.fnend
                                        @ -- End function
	.section	.text._ZNSt3__227__optional_move_assign_baseIfLb1EEC2Ev,"axG",%progbits,_ZNSt3__227__optional_move_assign_baseIfLb1EEC2Ev,comdat
	.hidden	_ZNSt3__227__optional_move_assign_baseIfLb1EEC2Ev @ -- Begin function _ZNSt3__227__optional_move_assign_baseIfLb1EEC2Ev
	.weak	_ZNSt3__227__optional_move_assign_baseIfLb1EEC2Ev
	.p2align	2
	.type	_ZNSt3__227__optional_move_assign_baseIfLb1EEC2Ev,%function
	.code	16                              @ @_ZNSt3__227__optional_move_assign_baseIfLb1EEC2Ev
	.thumb_func
_ZNSt3__227__optional_move_assign_baseIfLb1EEC2Ev:
.Lfunc_begin29:
	.loc	4 638 0 is_stmt 1               @ D:\Embed\MDK\MDK\ARM\ARMCompilerV621\Bin\..\include\libcxx\optional:638:0
	.fnstart
	.cfi_startproc
@ %bb.0:
	.save	{r7, lr}
	push	{r7, lr}
	.cfi_def_cfa_offset 8
	.cfi_offset lr, -4
	.cfi_offset r7, -8
	.pad	#8
	sub	sp, #8
	.cfi_def_cfa_offset 16
	str	r0, [sp, #4]
	ldr	r0, [sp, #4]
.Ltmp89:
	.loc	4 638 8 prologue_end            @ D:\Embed\MDK\MDK\ARM\ARMCompilerV621\Bin\..\include\libcxx\optional:638:8
	str	r0, [sp]                        @ 4-byte Spill
	bl	_ZNSt3__227__optional_copy_assign_baseIfLb1EEC2Ev
	ldr	r0, [sp]                        @ 4-byte Reload
	.loc	4 638 8 epilogue_begin is_stmt 0 @ D:\Embed\MDK\MDK\ARM\ARMCompilerV621\Bin\..\include\libcxx\optional:638:8
	add	sp, #8
	pop	{r7, pc}
.Ltmp90:
.Lfunc_end29:
	.size	_ZNSt3__227__optional_move_assign_baseIfLb1EEC2Ev, .Lfunc_end29-_ZNSt3__227__optional_move_assign_baseIfLb1EEC2Ev
	.cfi_endproc
	.cantunwind
	.fnend
                                        @ -- End function
	.section	.text._ZNSt3__227__optional_copy_assign_baseIfLb1EEC2Ev,"axG",%progbits,_ZNSt3__227__optional_copy_assign_baseIfLb1EEC2Ev,comdat
	.hidden	_ZNSt3__227__optional_copy_assign_baseIfLb1EEC2Ev @ -- Begin function _ZNSt3__227__optional_copy_assign_baseIfLb1EEC2Ev
	.weak	_ZNSt3__227__optional_copy_assign_baseIfLb1EEC2Ev
	.p2align	2
	.type	_ZNSt3__227__optional_copy_assign_baseIfLb1EEC2Ev,%function
	.code	16                              @ @_ZNSt3__227__optional_copy_assign_baseIfLb1EEC2Ev
	.thumb_func
_ZNSt3__227__optional_copy_assign_baseIfLb1EEC2Ev:
.Lfunc_begin30:
	.loc	4 606 0 is_stmt 1               @ D:\Embed\MDK\MDK\ARM\ARMCompilerV621\Bin\..\include\libcxx\optional:606:0
	.fnstart
	.cfi_startproc
@ %bb.0:
	.save	{r7, lr}
	push	{r7, lr}
	.cfi_def_cfa_offset 8
	.cfi_offset lr, -4
	.cfi_offset r7, -8
	.pad	#8
	sub	sp, #8
	.cfi_def_cfa_offset 16
	str	r0, [sp, #4]
	ldr	r0, [sp, #4]
.Ltmp91:
	.loc	4 606 8 prologue_end            @ D:\Embed\MDK\MDK\ARM\ARMCompilerV621\Bin\..\include\libcxx\optional:606:8
	str	r0, [sp]                        @ 4-byte Spill
	bl	_ZNSt3__220__optional_move_baseIfLb1EEC2Ev
	ldr	r0, [sp]                        @ 4-byte Reload
	.loc	4 606 8 epilogue_begin is_stmt 0 @ D:\Embed\MDK\MDK\ARM\ARMCompilerV621\Bin\..\include\libcxx\optional:606:8
	add	sp, #8
	pop	{r7, pc}
.Ltmp92:
.Lfunc_end30:
	.size	_ZNSt3__227__optional_copy_assign_baseIfLb1EEC2Ev, .Lfunc_end30-_ZNSt3__227__optional_copy_assign_baseIfLb1EEC2Ev
	.cfi_endproc
	.cantunwind
	.fnend
                                        @ -- End function
	.section	.text._ZNSt3__220__optional_move_baseIfLb1EEC2Ev,"axG",%progbits,_ZNSt3__220__optional_move_baseIfLb1EEC2Ev,comdat
	.hidden	_ZNSt3__220__optional_move_baseIfLb1EEC2Ev @ -- Begin function _ZNSt3__220__optional_move_baseIfLb1EEC2Ev
	.weak	_ZNSt3__220__optional_move_baseIfLb1EEC2Ev
	.p2align	2
	.type	_ZNSt3__220__optional_move_baseIfLb1EEC2Ev,%function
	.code	16                              @ @_ZNSt3__220__optional_move_baseIfLb1EEC2Ev
	.thumb_func
_ZNSt3__220__optional_move_baseIfLb1EEC2Ev:
.Lfunc_begin31:
	.loc	4 573 0 is_stmt 1               @ D:\Embed\MDK\MDK\ARM\ARMCompilerV621\Bin\..\include\libcxx\optional:573:0
	.fnstart
	.cfi_startproc
@ %bb.0:
	.save	{r7, lr}
	push	{r7, lr}
	.cfi_def_cfa_offset 8
	.cfi_offset lr, -4
	.cfi_offset r7, -8
	.pad	#8
	sub	sp, #8
	.cfi_def_cfa_offset 16
	str	r0, [sp, #4]
	ldr	r0, [sp, #4]
.Ltmp93:
	.loc	4 573 8 prologue_end            @ D:\Embed\MDK\MDK\ARM\ARMCompilerV621\Bin\..\include\libcxx\optional:573:8
	str	r0, [sp]                        @ 4-byte Spill
	bl	_ZNSt3__220__optional_copy_baseIfLb1EEC2Ev
	ldr	r0, [sp]                        @ 4-byte Reload
	.loc	4 573 8 epilogue_begin is_stmt 0 @ D:\Embed\MDK\MDK\ARM\ARMCompilerV621\Bin\..\include\libcxx\optional:573:8
	add	sp, #8
	pop	{r7, pc}
.Ltmp94:
.Lfunc_end31:
	.size	_ZNSt3__220__optional_move_baseIfLb1EEC2Ev, .Lfunc_end31-_ZNSt3__220__optional_move_baseIfLb1EEC2Ev
	.cfi_endproc
	.cantunwind
	.fnend
                                        @ -- End function
	.section	.text._ZNSt3__220__optional_copy_baseIfLb1EEC2Ev,"axG",%progbits,_ZNSt3__220__optional_copy_baseIfLb1EEC2Ev,comdat
	.hidden	_ZNSt3__220__optional_copy_baseIfLb1EEC2Ev @ -- Begin function _ZNSt3__220__optional_copy_baseIfLb1EEC2Ev
	.weak	_ZNSt3__220__optional_copy_baseIfLb1EEC2Ev
	.p2align	2
	.type	_ZNSt3__220__optional_copy_baseIfLb1EEC2Ev,%function
	.code	16                              @ @_ZNSt3__220__optional_copy_baseIfLb1EEC2Ev
	.thumb_func
_ZNSt3__220__optional_copy_baseIfLb1EEC2Ev:
.Lfunc_begin32:
	.loc	4 545 0 is_stmt 1               @ D:\Embed\MDK\MDK\ARM\ARMCompilerV621\Bin\..\include\libcxx\optional:545:0
	.fnstart
	.cfi_startproc
@ %bb.0:
	.save	{r7, lr}
	push	{r7, lr}
	.cfi_def_cfa_offset 8
	.cfi_offset lr, -4
	.cfi_offset r7, -8
	.pad	#8
	sub	sp, #8
	.cfi_def_cfa_offset 16
	str	r0, [sp, #4]
	ldr	r0, [sp, #4]
.Ltmp95:
	.loc	4 545 8 prologue_end            @ D:\Embed\MDK\MDK\ARM\ARMCompilerV621\Bin\..\include\libcxx\optional:545:8
	str	r0, [sp]                        @ 4-byte Spill
	bl	_ZNSt3__223__optional_storage_baseIfLb0EEC2Ev
	ldr	r0, [sp]                        @ 4-byte Reload
	.loc	4 545 8 epilogue_begin is_stmt 0 @ D:\Embed\MDK\MDK\ARM\ARMCompilerV621\Bin\..\include\libcxx\optional:545:8
	add	sp, #8
	pop	{r7, pc}
.Ltmp96:
.Lfunc_end32:
	.size	_ZNSt3__220__optional_copy_baseIfLb1EEC2Ev, .Lfunc_end32-_ZNSt3__220__optional_copy_baseIfLb1EEC2Ev
	.cfi_endproc
	.cantunwind
	.fnend
                                        @ -- End function
	.section	.text._ZNSt3__223__optional_storage_baseIfLb0EEC2Ev,"axG",%progbits,_ZNSt3__223__optional_storage_baseIfLb0EEC2Ev,comdat
	.hidden	_ZNSt3__223__optional_storage_baseIfLb0EEC2Ev @ -- Begin function _ZNSt3__223__optional_storage_baseIfLb0EEC2Ev
	.weak	_ZNSt3__223__optional_storage_baseIfLb0EEC2Ev
	.p2align	2
	.type	_ZNSt3__223__optional_storage_baseIfLb0EEC2Ev,%function
	.code	16                              @ @_ZNSt3__223__optional_storage_baseIfLb0EEC2Ev
	.thumb_func
_ZNSt3__223__optional_storage_baseIfLb0EEC2Ev:
.Lfunc_begin33:
	.loc	4 378 0 is_stmt 1               @ D:\Embed\MDK\MDK\ARM\ARMCompilerV621\Bin\..\include\libcxx\optional:378:0
	.fnstart
	.cfi_startproc
@ %bb.0:
	.save	{r7, lr}
	push	{r7, lr}
	.cfi_def_cfa_offset 8
	.cfi_offset lr, -4
	.cfi_offset r7, -8
	.pad	#8
	sub	sp, #8
	.cfi_def_cfa_offset 16
	str	r0, [sp, #4]
	ldr	r0, [sp, #4]
.Ltmp97:
	.loc	4 378 8 prologue_end            @ D:\Embed\MDK\MDK\ARM\ARMCompilerV621\Bin\..\include\libcxx\optional:378:8
	str	r0, [sp]                        @ 4-byte Spill
	bl	_ZNSt3__224__optional_destruct_baseIfLb1EEC2B7v180000Ev
	ldr	r0, [sp]                        @ 4-byte Reload
	.loc	4 378 8 epilogue_begin is_stmt 0 @ D:\Embed\MDK\MDK\ARM\ARMCompilerV621\Bin\..\include\libcxx\optional:378:8
	add	sp, #8
	pop	{r7, pc}
.Ltmp98:
.Lfunc_end33:
	.size	_ZNSt3__223__optional_storage_baseIfLb0EEC2Ev, .Lfunc_end33-_ZNSt3__223__optional_storage_baseIfLb0EEC2Ev
	.cfi_endproc
	.cantunwind
	.fnend
                                        @ -- End function
	.section	.text._ZNSt3__224__optional_destruct_baseIfLb1EEC2B7v180000Ev,"axG",%progbits,_ZNSt3__224__optional_destruct_baseIfLb1EEC2B7v180000Ev,comdat
	.hidden	_ZNSt3__224__optional_destruct_baseIfLb1EEC2B7v180000Ev @ -- Begin function _ZNSt3__224__optional_destruct_baseIfLb1EEC2B7v180000Ev
	.weak	_ZNSt3__224__optional_destruct_baseIfLb1EEC2B7v180000Ev
	.p2align	2
	.type	_ZNSt3__224__optional_destruct_baseIfLb1EEC2B7v180000Ev,%function
	.code	16                              @ @_ZNSt3__224__optional_destruct_baseIfLb1EEC2B7v180000Ev
	.thumb_func
_ZNSt3__224__optional_destruct_baseIfLb1EEC2B7v180000Ev:
.Lfunc_begin34:
	.loc	4 352 0 is_stmt 1               @ D:\Embed\MDK\MDK\ARM\ARMCompilerV621\Bin\..\include\libcxx\optional:352:0
	.fnstart
	.cfi_startproc
@ %bb.0:
	.pad	#4
	sub	sp, #4
	.cfi_def_cfa_offset 4
	str	r0, [sp]
	ldr	r0, [sp]
	movs	r1, #0
.Ltmp99:
	.loc	4 351 12 prologue_end           @ D:\Embed\MDK\MDK\ARM\ARMCompilerV621\Bin\..\include\libcxx\optional:351:12
	strb	r1, [r0]
	.loc	4 352 12                        @ D:\Embed\MDK\MDK\ARM\ARMCompilerV621\Bin\..\include\libcxx\optional:352:12
	strb	r1, [r0, #4]
	.loc	4 352 31 epilogue_begin is_stmt 0 @ D:\Embed\MDK\MDK\ARM\ARMCompilerV621\Bin\..\include\libcxx\optional:352:31
	add	sp, #4
	bx	lr
.Ltmp100:
.Lfunc_end34:
	.size	_ZNSt3__224__optional_destruct_baseIfLb1EEC2B7v180000Ev, .Lfunc_end34-_ZNSt3__224__optional_destruct_baseIfLb1EEC2B7v180000Ev
	.cfi_endproc
	.cantunwind
	.fnend
                                        @ -- End function
	.hidden	_ZNSt3__27nulloptE              @ @_ZNSt3__27nulloptE
	.type	_ZNSt3__27nulloptE,%object
	.section	.rodata._ZNSt3__27nulloptE,"aG",%progbits,_ZNSt3__27nulloptE,comdat
	.weak	_ZNSt3__27nulloptE
_ZNSt3__27nulloptE:
	.zero	1
	.size	_ZNSt3__27nulloptE, 1

	.hidden	_ZNSt3__28in_placeE             @ @_ZNSt3__28in_placeE
	.type	_ZNSt3__28in_placeE,%object
	.section	.rodata._ZNSt3__28in_placeE,"aG",%progbits,_ZNSt3__28in_placeE,comdat
	.weak	_ZNSt3__28in_placeE
_ZNSt3__28in_placeE:
	.zero	1
	.size	_ZNSt3__28in_placeE, 1

	.file	15 "D:\\Embed\\MDK\\MDK\\ARM\\ARMCompilerV621\\Bin\\..\\include" "stdint.h"
	.file	16 "D:\\Embed\\MDK\\MDK\\ARM\\ARMCompilerV621\\Bin\\..\\include" "stdio.h"
	.file	17 "D:\\ikingtec\\Robot\\ODrive\\Firmware\\MDK-ARM" "../MotorControl\\sensorless_estimator.cpp"
	.file	18 "D:\\Embed\\MDK\\MDK\\ARM\\ARMCompilerV621\\Bin\\..\\include" "stdlib.h"
	.file	19 "D:\\Embed\\MDK\\MDK\\ARM\\ARMCompilerV621\\Bin\\..\\include" "string.h"
	.file	20 "D:\\Embed\\MDK\\MDK\\ARM\\ARMCompilerV621\\Bin\\..\\include" "stddef.h"
	.file	21 "D:\\Embed\\MDK\\MDK\\ARM\\ARMCompilerV621\\Bin\\..\\include" "math.h"
	.file	22 "D:\\Embed\\MDK\\MDK\\ARM\\ARMCompilerV621\\Bin\\..\\include\\libcxx" "stddef.h"
	.file	23 "D:\\Embed\\MDK\\MDK\\ARM\\ARMCompilerV621\\Bin\\..\\include\\libcxx" "cstddef"
	.file	24 "D:\\Embed\\MDK\\MDK\\ARM\\ARMCompilerV621\\Bin\\..\\include\\libcxx" "cstdint"
	.file	25 "D:\\Embed\\MDK\\MDK\\ARM\\ARMCompilerV621\\Bin\\..\\include\\libcxx\\__math" "traits.h"
	.file	26 "D:\\Embed\\MDK\\MDK\\ARM\\ARMCompilerV621\\Bin\\..\\include\\libcxx" "math.h"
	.file	27 "D:\\Embed\\MDK\\MDK\\ARM\\ARMCompilerV621\\Bin\\..\\include\\libcxx\\__math" "modulo.h"
	.file	28 "D:\\Embed\\MDK\\MDK\\ARM\\ARMCompilerV621\\Bin\\..\\include\\libcxx" "cstdlib"
	.file	29 "D:\\Embed\\MDK\\MDK\\ARM\\ARMCompilerV621\\Bin\\..\\include\\libcxx" "stdlib.h"
	.file	30 "D:\\Embed\\MDK\\MDK\\ARM\\ARMCompilerV621\\Bin\\..\\include" "wchar.h"
	.file	31 "D:\\Embed\\MDK\\MDK\\ARM\\ARMCompilerV621\\Bin\\..\\include" "time.h"
	.file	32 "D:\\Embed\\MDK\\MDK\\ARM\\ARMCompilerV621\\Bin\\..\\include\\libcxx" "__std_mbstate_t.h"
	.file	33 "D:\\Embed\\MDK\\MDK\\ARM\\ARMCompilerV621\\Bin\\..\\include\\libcxx" "cmath"
	.file	34 "D:\\Embed\\MDK\\MDK\\ARM\\ARMCompilerV621\\Bin\\..\\include" "ctype.h"
	.file	35 "D:\\Embed\\MDK\\MDK\\ARM\\ARMCompilerV621\\Bin\\..\\include\\libcxx" "cctype"
	.file	36 "D:\\Embed\\MDK\\MDK\\ARM\\ARMCompilerV621\\Bin\\..\\include" "wctype.h"
	.file	37 "D:\\Embed\\MDK\\MDK\\ARM\\ARMCompilerV621\\Bin\\..\\include\\libcxx" "cwctype"
	.file	38 "D:\\Embed\\MDK\\MDK\\ARM\\ARMCompilerV621\\Bin\\..\\include\\libcxx" "cwchar"
	.file	39 "D:\\Embed\\MDK\\MDK\\ARM\\ARMCompilerV621\\Bin\\..\\include\\libcxx" "wchar.h"
	.file	40 "D:\\Embed\\MDK\\MDK\\ARM\\ARMCompilerV621\\Bin\\..\\include\\libcxx" "cstring"
	.file	41 "D:\\Embed\\MDK\\MDK\\ARM\\ARMCompilerV621\\Bin\\..\\include\\libcxx" "string.h"
	.file	42 "D:\\Embed\\MDK\\MDK\\ARM\\ARMCompilerV621\\Bin\\..\\include\\libcxx\\__chrono" "duration.h"
	.file	43 "D:\\Embed\\MDK\\MDK\\ARM\\ARMCompilerV621\\Bin\\..\\include\\libcxx" "ctime"
	.file	44 "D:\\Embed\\MDK\\MDK\\ARM\\ARMCompilerV621\\Bin\\..\\include" "errno.h"
	.file	45 "D:\\Embed\\MDK\\MDK\\ARM\\ARMCompilerV621\\Bin\\..\\include\\libcxx" "cstdio"
	.file	46 "D:\\Embed\\MDK\\MDK\\ARM\\ARMCompilerV621\\Bin\\..\\include" "locale.h"
	.file	47 "D:\\Embed\\MDK\\MDK\\ARM\\ARMCompilerV621\\Bin\\..\\include\\libcxx" "clocale"
	.file	48 "D:\\Embed\\MDK\\MDK\\ARM\\ARMCompilerV621\\Bin\\..\\include" "stdarg.h"
	.file	49 "D:\\Embed\\MDK\\MDK\\ARM\\ARMCompilerV621\\Bin\\..\\include\\libcxx" "cstdarg"
	.file	50 "<stdin>"