	.text
	.syntax unified
	.eabi_attribute	67, "2.09"	@ Tag_conformance
	.cpu	cortex-m4
	.eabi_attribute	6, 13	@ Tag_CPU_arch
	.eabi_attribute	7, 77	@ Tag_CPU_arch_profile
	.eabi_attribute	8, 0	@ Tag_ARM_ISA_use
	.eabi_attribute	9, 2	@ Tag_THUMB_ISA_use
	.fpu	fpv4-sp-d16
	.eabi_attribute	27, 1	@ Tag_ABI_HardFP_use
	.eabi_attribute	36, 1	@ Tag_FP_HP_extension
	.eabi_attribute	34, 1	@ Tag_CPU_unaligned_access
	.eabi_attribute	17, 1	@ Tag_ABI_PCS_GOT_use
	.eabi_attribute	20, 2	@ Tag_ABI_FP_denormal
	.eabi_attribute	21, 0	@ Tag_ABI_FP_exceptions
	.eabi_attribute	23, 1	@ Tag_ABI_FP_number_model
	.eabi_attribute	24, 1	@ Tag_ABI_align_needed
	.eabi_attribute	25, 1	@ Tag_ABI_align_preserved
	.eabi_attribute	28, 1	@ Tag_ABI_VFP_args
	.eabi_attribute	38, 1	@ Tag_ABI_FP_16bit_format
	.eabi_attribute	18, 2	@ Tag_ABI_PCS_wchar_t
	.eabi_attribute	26, 1	@ Tag_ABI_enum_size
	.eabi_attribute	14, 0	@ Tag_ABI_PCS_R9_use
	.file	"spi.c"
	.file	1 "D:\\ikingtec\\Robot\\ODrive\\Firmware\\MDK-ARM" "../Board/v3/Src/spi.c"
	.file	2 "D:\\Embed\\MDK\\MDK\\ARM\\ARMCompilerV621\\Bin\\..\\include" "stdint.h"
	.file	3 "D:\\ikingtec\\Robot\\ODrive\\Firmware\\MDK-ARM" "../ThirdParty/CMSIS/Device/ST/STM32F4xx/Include/stm32f405xx.h"
	.file	4 "D:\\ikingtec\\Robot\\ODrive\\Firmware\\MDK-ARM" "../ThirdParty/STM32F4xx_HAL_Driver/Inc\\stm32f4xx_hal_spi.h"
	.file	5 "D:\\ikingtec\\Robot\\ODrive\\Firmware\\MDK-ARM" "../ThirdParty/STM32F4xx_HAL_Driver/Inc\\stm32f4xx_hal_dma.h"
	.file	6 "D:\\ikingtec\\Robot\\ODrive\\Firmware\\MDK-ARM" "../ThirdParty/STM32F4xx_HAL_Driver/Inc/stm32f4xx_hal_def.h"
	.section	.text.MX_SPI3_Init,"ax",%progbits
	.hidden	MX_SPI3_Init                    @ -- Begin function MX_SPI3_Init
	.globl	MX_SPI3_Init
	.p2align	2
	.type	MX_SPI3_Init,%function
	.code	16                              @ @MX_SPI3_Init
	.thumb_func
MX_SPI3_Init:
.Lfunc_begin0:
	.loc	1 66 0                          @ ../Board/v3/Src/spi.c:66:0
	.fnstart
	.cfi_sections .debug_frame
	.cfi_startproc
@ %bb.0:
	.save	{r7, lr}
	push	{r7, lr}
	.cfi_def_cfa_offset 8
	.cfi_offset lr, -4
	.cfi_offset r7, -8
	.pad	#8
	sub	sp, #8
	.cfi_def_cfa_offset 16
.Ltmp0:
	.loc	1 68 18 prologue_end            @ ../Board/v3/Src/spi.c:68:18
	movw	r0, :lower16:hspi3
	movt	r0, :upper16:hspi3
	str	r0, [sp, #4]                    @ 4-byte Spill
	movw	r1, #15360
	movt	r1, #16384
	str	r1, [r0]
	mov.w	r1, #260
	.loc	1 69 19                         @ ../Board/v3/Src/spi.c:69:19
	str	r1, [r0, #4]
	movs	r1, #0
	.loc	1 70 24                         @ ../Board/v3/Src/spi.c:70:24
	str	r1, [r0, #8]
	mov.w	r2, #2048
	.loc	1 71 23                         @ ../Board/v3/Src/spi.c:71:23
	str	r2, [r0, #12]
	.loc	1 72 26                         @ ../Board/v3/Src/spi.c:72:26
	str	r1, [r0, #16]
	movs	r2, #1
	.loc	1 73 23                         @ ../Board/v3/Src/spi.c:73:23
	str	r2, [r0, #20]
	mov.w	r2, #512
	.loc	1 74 18                         @ ../Board/v3/Src/spi.c:74:18
	str	r2, [r0, #24]
	movs	r2, #24
	.loc	1 75 32                         @ ../Board/v3/Src/spi.c:75:32
	str	r2, [r0, #28]
	.loc	1 76 23                         @ ../Board/v3/Src/spi.c:76:23
	str	r1, [r0, #32]
	.loc	1 77 21                         @ ../Board/v3/Src/spi.c:77:21
	str	r1, [r0, #36]
	.loc	1 78 29                         @ ../Board/v3/Src/spi.c:78:29
	str	r1, [r0, #40]
	movs	r1, #10
	.loc	1 79 28                         @ ../Board/v3/Src/spi.c:79:28
	str	r1, [r0, #44]
.Ltmp1:
	.loc	1 80 7                          @ ../Board/v3/Src/spi.c:80:7
	bl	HAL_SPI_Init
.Ltmp2:
	.loc	1 80 7 is_stmt 0                @ ../Board/v3/Src/spi.c:80:7
	cbz	r0, .LBB0_2
	b	.LBB0_1
.LBB0_1:
.Ltmp3:
	.loc	1 82 5 is_stmt 1                @ ../Board/v3/Src/spi.c:82:5
	movw	r0, :lower16:.L.str
	movt	r0, :upper16:.L.str
	movs	r1, #82
	bl	_Error_Handler
	.loc	1 83 3                          @ ../Board/v3/Src/spi.c:83:3
	b	.LBB0_2
.Ltmp4:
.LBB0_2:
	.loc	1 85 1 epilogue_begin           @ ../Board/v3/Src/spi.c:85:1
	add	sp, #8
	pop	{r7, pc}
.Ltmp5:
.Lfunc_end0:
	.size	MX_SPI3_Init, .Lfunc_end0-MX_SPI3_Init
	.cfi_endproc
	.cantunwind
	.fnend
                                        @ -- End function
	.section	.text.HAL_SPI_MspInit,"ax",%progbits
	.hidden	HAL_SPI_MspInit                 @ -- Begin function HAL_SPI_MspInit
	.globl	HAL_SPI_MspInit
	.p2align	2
	.type	HAL_SPI_MspInit,%function
	.code	16                              @ @HAL_SPI_MspInit
	.thumb_func
HAL_SPI_MspInit:
.Lfunc_begin1:
	.loc	1 88 0                          @ ../Board/v3/Src/spi.c:88:0
	.fnstart
	.cfi_startproc
@ %bb.0:
	.save	{r7, lr}
	push	{r7, lr}
	.cfi_def_cfa_offset 8
	.cfi_offset lr, -4
	.cfi_offset r7, -8
	.pad	#40
	sub	sp, #40
	.cfi_def_cfa_offset 48
	str	r0, [sp, #36]
.Ltmp6:
	.loc	1 91 6 prologue_end             @ ../Board/v3/Src/spi.c:91:6
	ldr	r0, [sp, #36]
	.loc	1 91 17 is_stmt 0               @ ../Board/v3/Src/spi.c:91:17
	ldr	r0, [r0]
	movw	r1, #15360
	movt	r1, #16384
.Ltmp7:
	.loc	1 91 6                          @ ../Board/v3/Src/spi.c:91:6
	cmp	r0, r1
	bne.w	.LBB1_18
	b	.LBB1_1
.LBB1_1:
.Ltmp8:
	.loc	1 97 5 is_stmt 1                @ ../Board/v3/Src/spi.c:97:5
	b	.LBB1_2
.LBB1_2:
	.loc	1 0 5 is_stmt 0                 @ ../Board/v3/Src/spi.c:0:5
	movs	r0, #0
.Ltmp9:
	.loc	1 97 5                          @ ../Board/v3/Src/spi.c:97:5
	str	r0, [sp, #12]
	movw	r0, #14400
	movt	r0, #16386
	ldr	r1, [r0]
	orr	r1, r1, #32768
	str	r1, [r0]
	ldr	r0, [r0]
	and	r0, r0, #32768
	str	r0, [sp, #12]
	ldr	r0, [sp, #12]
	b	.LBB1_3
.Ltmp10:
.LBB1_3:
	.loc	1 0 5                           @ ../Board/v3/Src/spi.c:0:5
	mov.w	r0, #5120
	.loc	1 104 25 is_stmt 1              @ ../Board/v3/Src/spi.c:104:25
	str	r0, [sp, #16]
	movs	r0, #2
	.loc	1 105 26                        @ ../Board/v3/Src/spi.c:105:26
	str	r0, [sp, #20]
	.loc	1 106 26                        @ ../Board/v3/Src/spi.c:106:26
	str	r0, [sp, #24]
	movs	r0, #1
	.loc	1 107 27                        @ ../Board/v3/Src/spi.c:107:27
	str	r0, [sp]                        @ 4-byte Spill
	str	r0, [sp, #28]
	movs	r0, #6
	.loc	1 108 31                        @ ../Board/v3/Src/spi.c:108:31
	str	r0, [sp, #32]
	movw	r0, #2048
	movt	r0, #16386
	str	r0, [sp, #4]                    @ 4-byte Spill
	add	r1, sp, #16
	.loc	1 109 5                         @ ../Board/v3/Src/spi.c:109:5
	str	r1, [sp, #8]                    @ 4-byte Spill
	bl	HAL_GPIO_Init
	ldr	r2, [sp]                        @ 4-byte Reload
	ldr	r0, [sp, #4]                    @ 4-byte Reload
	ldr	r1, [sp, #8]                    @ 4-byte Reload
	mov.w	r3, #2048
	.loc	1 112 25                        @ ../Board/v3/Src/spi.c:112:25
	str	r3, [sp, #16]
	.loc	1 113 26                        @ ../Board/v3/Src/spi.c:113:26
	str	r2, [sp, #24]
	.loc	1 114 5                         @ ../Board/v3/Src/spi.c:114:5
	bl	HAL_GPIO_Init
	.loc	1 118 27                        @ ../Board/v3/Src/spi.c:118:27
	movw	r1, :lower16:hdma_spi3_tx
	movt	r1, :upper16:hdma_spi3_tx
	movw	r0, #24760
	movt	r0, #16386
	str	r0, [r1]
	movs	r0, #0
	.loc	1 119 31                        @ ../Board/v3/Src/spi.c:119:31
	str	r0, [r1, #4]
	movs	r2, #64
	.loc	1 120 33                        @ ../Board/v3/Src/spi.c:120:33
	str	r2, [r1, #8]
	.loc	1 121 33                        @ ../Board/v3/Src/spi.c:121:33
	str	r0, [r1, #12]
	mov.w	r0, #1024
	.loc	1 122 30                        @ ../Board/v3/Src/spi.c:122:30
	str	r0, [r1, #16]
.Ltmp11:
	.loc	1 124 8                         @ ../Board/v3/Src/spi.c:124:8
	ldr	r0, [sp, #36]
	.loc	1 124 24 is_stmt 0              @ ../Board/v3/Src/spi.c:124:24
	ldr	r0, [r0, #12]
.Ltmp12:
	.loc	1 124 8                         @ ../Board/v3/Src/spi.c:124:8
	cbnz	r0, .LBB1_5
	b	.LBB1_4
.LBB1_4:
.Ltmp13:
	.loc	1 125 45 is_stmt 1              @ ../Board/v3/Src/spi.c:125:45
	movw	r1, :lower16:hdma_spi3_tx
	movt	r1, :upper16:hdma_spi3_tx
	movs	r0, #0
	str	r0, [r1, #20]
	.loc	1 126 42                        @ ../Board/v3/Src/spi.c:126:42
	str	r0, [r1, #24]
	.loc	1 127 5                         @ ../Board/v3/Src/spi.c:127:5
	b	.LBB1_6
.Ltmp14:
.LBB1_5:
	.loc	1 128 45                        @ ../Board/v3/Src/spi.c:128:45
	movw	r1, :lower16:hdma_spi3_tx
	movt	r1, :upper16:hdma_spi3_tx
	mov.w	r0, #2048
	str	r0, [r1, #20]
	mov.w	r0, #8192
	.loc	1 129 42                        @ ../Board/v3/Src/spi.c:129:42
	str	r0, [r1, #24]
	b	.LBB1_6
.Ltmp15:
.LBB1_6:
	.loc	1 132 28                        @ ../Board/v3/Src/spi.c:132:28
	movw	r0, :lower16:hdma_spi3_tx
	movt	r0, :upper16:hdma_spi3_tx
	movs	r1, #0
	str	r1, [r0, #28]
	mov.w	r2, #131072
	.loc	1 133 32                        @ ../Board/v3/Src/spi.c:133:32
	str	r2, [r0, #32]
	.loc	1 134 32                        @ ../Board/v3/Src/spi.c:134:32
	str	r1, [r0, #36]
.Ltmp16:
	.loc	1 135 9                         @ ../Board/v3/Src/spi.c:135:9
	bl	HAL_DMA_Init
.Ltmp17:
	.loc	1 135 9 is_stmt 0               @ ../Board/v3/Src/spi.c:135:9
	cbz	r0, .LBB1_8
	b	.LBB1_7
.LBB1_7:
.Ltmp18:
	.loc	1 137 7 is_stmt 1               @ ../Board/v3/Src/spi.c:137:7
	movw	r0, :lower16:.L.str
	movt	r0, :upper16:.L.str
	movs	r1, #137
	bl	_Error_Handler
	.loc	1 138 5                         @ ../Board/v3/Src/spi.c:138:5
	b	.LBB1_8
.Ltmp19:
.LBB1_8:
	.loc	1 140 5                         @ ../Board/v3/Src/spi.c:140:5
	b	.LBB1_9
.LBB1_9:
.Ltmp20:
	.loc	1 140 5 is_stmt 0               @ ../Board/v3/Src/spi.c:140:5
	ldr	r0, [sp, #36]
	movw	r1, :lower16:hdma_spi3_tx
	movt	r1, :upper16:hdma_spi3_tx
	str	r1, [r0, #72]
	ldr	r0, [sp, #36]
	str	r0, [r1, #56]
	b	.LBB1_10
.Ltmp21:
.LBB1_10:
	.loc	1 143 27 is_stmt 1              @ ../Board/v3/Src/spi.c:143:27
	movw	r1, :lower16:hdma_spi3_rx
	movt	r1, :upper16:hdma_spi3_rx
	movw	r0, #24592
	movt	r0, #16386
	str	r0, [r1]
	movs	r0, #0
	.loc	1 144 31                        @ ../Board/v3/Src/spi.c:144:31
	str	r0, [r1, #4]
	.loc	1 145 33                        @ ../Board/v3/Src/spi.c:145:33
	str	r0, [r1, #8]
	.loc	1 146 33                        @ ../Board/v3/Src/spi.c:146:33
	str	r0, [r1, #12]
	mov.w	r0, #1024
	.loc	1 147 30                        @ ../Board/v3/Src/spi.c:147:30
	str	r0, [r1, #16]
.Ltmp22:
	.loc	1 148 9                         @ ../Board/v3/Src/spi.c:148:9
	ldr	r0, [sp, #36]
	.loc	1 148 25 is_stmt 0              @ ../Board/v3/Src/spi.c:148:25
	ldr	r0, [r0, #12]
.Ltmp23:
	.loc	1 148 9                         @ ../Board/v3/Src/spi.c:148:9
	cbnz	r0, .LBB1_12
	b	.LBB1_11
.LBB1_11:
.Ltmp24:
	.loc	1 149 47 is_stmt 1              @ ../Board/v3/Src/spi.c:149:47
	movw	r1, :lower16:hdma_spi3_rx
	movt	r1, :upper16:hdma_spi3_rx
	movs	r0, #0
	str	r0, [r1, #20]
	.loc	1 150 44                        @ ../Board/v3/Src/spi.c:150:44
	str	r0, [r1, #24]
	.loc	1 151 5                         @ ../Board/v3/Src/spi.c:151:5
	b	.LBB1_13
.Ltmp25:
.LBB1_12:
	.loc	1 152 47                        @ ../Board/v3/Src/spi.c:152:47
	movw	r1, :lower16:hdma_spi3_rx
	movt	r1, :upper16:hdma_spi3_rx
	mov.w	r0, #2048
	str	r0, [r1, #20]
	mov.w	r0, #8192
	.loc	1 153 44                        @ ../Board/v3/Src/spi.c:153:44
	str	r0, [r1, #24]
	b	.LBB1_13
.Ltmp26:
.LBB1_13:
	.loc	1 155 28                        @ ../Board/v3/Src/spi.c:155:28
	movw	r0, :lower16:hdma_spi3_rx
	movt	r0, :upper16:hdma_spi3_rx
	movs	r1, #0
	str	r1, [r0, #28]
	mov.w	r2, #65536
	.loc	1 156 32                        @ ../Board/v3/Src/spi.c:156:32
	str	r2, [r0, #32]
	.loc	1 157 32                        @ ../Board/v3/Src/spi.c:157:32
	str	r1, [r0, #36]
.Ltmp27:
	.loc	1 158 9                         @ ../Board/v3/Src/spi.c:158:9
	bl	HAL_DMA_Init
.Ltmp28:
	.loc	1 158 9 is_stmt 0               @ ../Board/v3/Src/spi.c:158:9
	cbz	r0, .LBB1_15
	b	.LBB1_14
.LBB1_14:
.Ltmp29:
	.loc	1 160 7 is_stmt 1               @ ../Board/v3/Src/spi.c:160:7
	movw	r0, :lower16:.L.str
	movt	r0, :upper16:.L.str
	movs	r1, #160
	bl	_Error_Handler
	.loc	1 161 5                         @ ../Board/v3/Src/spi.c:161:5
	b	.LBB1_15
.Ltmp30:
.LBB1_15:
	.loc	1 163 5                         @ ../Board/v3/Src/spi.c:163:5
	b	.LBB1_16
.LBB1_16:
.Ltmp31:
	.loc	1 163 5 is_stmt 0               @ ../Board/v3/Src/spi.c:163:5
	ldr	r0, [sp, #36]
	movw	r1, :lower16:hdma_spi3_rx
	movt	r1, :upper16:hdma_spi3_rx
	str	r1, [r0, #76]
	ldr	r0, [sp, #36]
	str	r0, [r1, #56]
	b	.LBB1_17
.Ltmp32:
.LBB1_17:
	.loc	1 171 3 is_stmt 1               @ ../Board/v3/Src/spi.c:171:3
	b	.LBB1_18
.Ltmp33:
.LBB1_18:
	.loc	1 172 1 epilogue_begin          @ ../Board/v3/Src/spi.c:172:1
	add	sp, #40
	pop	{r7, pc}
.Ltmp34:
.Lfunc_end1:
	.size	HAL_SPI_MspInit, .Lfunc_end1-HAL_SPI_MspInit
	.cfi_endproc
	.cantunwind
	.fnend
                                        @ -- End function
	.section	.text.HAL_SPI_MspDeInit,"ax",%progbits
	.hidden	HAL_SPI_MspDeInit               @ -- Begin function HAL_SPI_MspDeInit
	.globl	HAL_SPI_MspDeInit
	.p2align	2
	.type	HAL_SPI_MspDeInit,%function
	.code	16                              @ @HAL_SPI_MspDeInit
	.thumb_func
HAL_SPI_MspDeInit:
.Lfunc_begin2:
	.loc	1 175 0                         @ ../Board/v3/Src/spi.c:175:0
	.fnstart
	.cfi_startproc
@ %bb.0:
	.save	{r7, lr}
	push	{r7, lr}
	.cfi_def_cfa_offset 8
	.cfi_offset lr, -4
	.cfi_offset r7, -8
	.pad	#8
	sub	sp, #8
	.cfi_def_cfa_offset 16
	str	r0, [sp, #4]
.Ltmp35:
	.loc	1 177 6 prologue_end            @ ../Board/v3/Src/spi.c:177:6
	ldr	r0, [sp, #4]
	.loc	1 177 17 is_stmt 0              @ ../Board/v3/Src/spi.c:177:17
	ldr	r0, [r0]
	movw	r1, #15360
	movt	r1, #16384
.Ltmp36:
	.loc	1 177 6                         @ ../Board/v3/Src/spi.c:177:6
	cmp	r0, r1
	bne	.LBB2_2
	b	.LBB2_1
.LBB2_1:
	.loc	1 0 6                           @ ../Board/v3/Src/spi.c:0:6
	movw	r1, #14400
	movt	r1, #16386
.Ltmp37:
	.loc	1 183 5 is_stmt 1               @ ../Board/v3/Src/spi.c:183:5
	ldr	r0, [r1]
	bic	r0, r0, #32768
	str	r0, [r1]
	movw	r0, #2048
	movt	r0, #16386
	mov.w	r1, #7168
	.loc	1 190 5                         @ ../Board/v3/Src/spi.c:190:5
	bl	HAL_GPIO_DeInit
	.loc	1 193 20                        @ ../Board/v3/Src/spi.c:193:20
	ldr	r0, [sp, #4]
	.loc	1 193 31 is_stmt 0              @ ../Board/v3/Src/spi.c:193:31
	ldr	r0, [r0, #72]
	.loc	1 193 5                         @ ../Board/v3/Src/spi.c:193:5
	bl	HAL_DMA_DeInit
	.loc	1 194 20 is_stmt 1              @ ../Board/v3/Src/spi.c:194:20
	ldr	r0, [sp, #4]
	.loc	1 194 31 is_stmt 0              @ ../Board/v3/Src/spi.c:194:31
	ldr	r0, [r0, #76]
	.loc	1 194 5                         @ ../Board/v3/Src/spi.c:194:5
	bl	HAL_DMA_DeInit
	movs	r0, #51
	.loc	1 197 5 is_stmt 1               @ ../Board/v3/Src/spi.c:197:5
	bl	HAL_NVIC_DisableIRQ
	.loc	1 201 3                         @ ../Board/v3/Src/spi.c:201:3
	b	.LBB2_2
.Ltmp38:
.LBB2_2:
	.loc	1 202 1 epilogue_begin          @ ../Board/v3/Src/spi.c:202:1
	add	sp, #8
	pop	{r7, pc}
.Ltmp39:
.Lfunc_end2:
	.size	HAL_SPI_MspDeInit, .Lfunc_end2-HAL_SPI_MspDeInit
	.cfi_endproc
	.cantunwind
	.fnend
                                        @ -- End function
	.hidden	hspi3                           @ @hspi3
	.type	hspi3,%object
	.section	.bss.hspi3,"aw",%nobits
	.globl	hspi3
	.p2align	2, 0x0
hspi3:
	.zero	88
	.size	hspi3, 88

	.type	.L.str,%object                  @ @.str
	.section	.rodata.str1.1,"aMS",%progbits,1
.L.str:
	.asciz	"../Board/v3/Src/spi.c"
	.size	.L.str, 22

	.hidden	hdma_spi3_tx                    @ @hdma_spi3_tx
	.type	hdma_spi3_tx,%object
	.section	.bss.hdma_spi3_tx,"aw",%nobits
	.globl	hdma_spi3_tx
	.p2align	2, 0x0
hdma_spi3_tx:
	.zero	96
	.size	hdma_spi3_tx, 96

	.hidden	hdma_spi3_rx                    @ @hdma_spi3_rx
	.type	hdma_spi3_rx,%object
	.section	.bss.hdma_spi3_rx,"aw",%nobits
	.globl	hdma_spi3_rx
	.p2align	2, 0x0
hdma_spi3_rx:
	.zero	96
	.size	hdma_spi3_rx, 96

	.file	7 "D:\\ikingtec\\Robot\\ODrive\\Firmware\\MDK-ARM" "../ThirdParty/STM32F4xx_HAL_Driver/Inc\\stm32f4xx_hal_gpio.h"
	.section	".note.GNU-stack","",%progbits
	.eabi_attribute	30, 6	@ Tag_ABI_optimization_goals
	.ARM_attribute	16, 1	@ Tag_AV_eba