	.text
	.syntax unified
	.eabi_attribute	67, "2.09"	@ Tag_conformance
	.cpu	cortex-m4
	.eabi_attribute	6, 13	@ Tag_CPU_arch
	.eabi_attribute	7, 77	@ Tag_CPU_arch_profile
	.eabi_attribute	8, 0	@ Tag_ARM_ISA_use
	.eabi_attribute	9, 2	@ Tag_THUMB_ISA_use
	.fpu	fpv4-sp-d16
	.eabi_attribute	27, 1	@ Tag_ABI_HardFP_use
	.eabi_attribute	36, 1	@ Tag_FP_HP_extension
	.eabi_attribute	34, 1	@ Tag_CPU_unaligned_access
	.eabi_attribute	17, 1	@ Tag_ABI_PCS_GOT_use
	.eabi_attribute	20, 2	@ Tag_ABI_FP_denormal
	.eabi_attribute	21, 0	@ Tag_ABI_FP_exceptions
	.eabi_attribute	23, 1	@ Tag_ABI_FP_number_model
	.eabi_attribute	24, 1	@ Tag_ABI_align_needed
	.eabi_attribute	25, 1	@ Tag_ABI_align_preserved
	.eabi_attribute	28, 1	@ Tag_ABI_VFP_args
	.eabi_attribute	38, 1	@ Tag_ABI_FP_16bit_format
	.eabi_attribute	18, 2	@ Tag_ABI_PCS_wchar_t
	.eabi_attribute	26, 1	@ Tag_ABI_enum_size
	.eabi_attribute	14, 0	@ Tag_ABI_PCS_R9_use
	.file	"stm32f4xx_hal_timebase_TIM.c"
	.file	1 "D:\\Embed\\MDK\\MDK\\ARM\\ARMCompilerV621\\Bin\\..\\include" "stdint.h"
	.file	2 "D:\\ikingtec\\Robot\\ODrive\\Firmware\\MDK-ARM" "../Board/v3/Src/stm32f4xx_hal_timebase_TIM.c"
	.file	3 "D:\\ikingtec\\Robot\\ODrive\\Firmware\\MDK-ARM" "../ThirdParty/CMSIS/Device/ST/STM32F4xx/Include/stm32f405xx.h"
	.file	4 "D:\\ikingtec\\Robot\\ODrive\\Firmware\\MDK-ARM" "../ThirdParty/STM32F4xx_HAL_Driver/Inc\\stm32f4xx_hal_tim.h"
	.file	5 "D:\\ikingtec\\Robot\\ODrive\\Firmware\\MDK-ARM" "../ThirdParty/STM32F4xx_HAL_Driver/Inc\\stm32f4xx_hal_dma.h"
	.file	6 "D:\\ikingtec\\Robot\\ODrive\\Firmware\\MDK-ARM" "../ThirdParty/STM32F4xx_HAL_Driver/Inc/stm32f4xx_hal_def.h"
	.section	.text.HAL_InitTick,"ax",%progbits
	.hidden	HAL_InitTick                    @ -- Begin function HAL_InitTick
	.globl	HAL_InitTick
	.p2align	2
	.type	HAL_InitTick,%function
	.code	16                              @ @HAL_InitTick
	.thumb_func
HAL_InitTick:
.Lfunc_begin0:
	.loc	2 79 0                          @ ../Board/v3/Src/stm32f4xx_hal_timebase_TIM.c:79:0
	.fnstart
	.cfi_sections .debug_frame
	.cfi_startproc
@ %bb.0:
	.save	{r7, lr}
	push	{r7, lr}
	.cfi_def_cfa_offset 8
	.cfi_offset lr, -4
	.cfi_offset r7, -8
	.pad	#48
	sub	sp, #48
	.cfi_def_cfa_offset 56
	str	r0, [sp, #40]
	movs	r2, #0
.Ltmp0:
	.loc	2 81 25 prologue_end            @ ../Board/v3/Src/stm32f4xx_hal_timebase_TIM.c:81:25
	str	r2, [sp, #16]
	.loc	2 82 25                         @ ../Board/v3/Src/stm32f4xx_hal_timebase_TIM.c:82:25
	str	r2, [sp, #12]
	.loc	2 86 49                         @ ../Board/v3/Src/stm32f4xx_hal_timebase_TIM.c:86:49
	ldr	r1, [sp, #40]
	movs	r0, #45
	.loc	2 86 3 is_stmt 0                @ ../Board/v3/Src/stm32f4xx_hal_timebase_TIM.c:86:3
	str	r0, [sp]                        @ 4-byte Spill
	bl	HAL_NVIC_SetPriority
	ldr	r0, [sp]                        @ 4-byte Reload
	.loc	2 89 3 is_stmt 1                @ ../Board/v3/Src/stm32f4xx_hal_timebase_TIM.c:89:3
	bl	HAL_NVIC_EnableIRQ
	.loc	2 92 3                          @ ../Board/v3/Src/stm32f4xx_hal_timebase_TIM.c:92:3
	b	.LBB0_1
.LBB0_1:
	.loc	2 0 3 is_stmt 0                 @ ../Board/v3/Src/stm32f4xx_hal_timebase_TIM.c:0:3
	movs	r0, #0
.Ltmp1:
	.loc	2 92 3                          @ ../Board/v3/Src/stm32f4xx_hal_timebase_TIM.c:92:3
	str	r0, [sp, #4]
	movw	r0, #14400
	movt	r0, #16386
	ldr	r1, [r0]
	orr	r1, r1, #256
	str	r1, [r0]
	ldr	r0, [r0]
	and	r0, r0, #256
	str	r0, [sp, #4]
	ldr	r0, [sp, #4]
	b	.LBB0_2
.Ltmp2:
.LBB0_2:
	.loc	2 0 3                           @ ../Board/v3/Src/stm32f4xx_hal_timebase_TIM.c:0:3
	add	r0, sp, #20
	add	r1, sp, #8
	.loc	2 95 3 is_stmt 1                @ ../Board/v3/Src/stm32f4xx_hal_timebase_TIM.c:95:3
	bl	HAL_RCC_GetClockConfig
	.loc	2 98 18                         @ ../Board/v3/Src/stm32f4xx_hal_timebase_TIM.c:98:18
	bl	HAL_RCC_GetPCLK1Freq
	.loc	2 98 17 is_stmt 0               @ ../Board/v3/Src/stm32f4xx_hal_timebase_TIM.c:98:17
	lsls	r0, r0, #1
	.loc	2 98 14                         @ ../Board/v3/Src/stm32f4xx_hal_timebase_TIM.c:98:14
	str	r0, [sp, #16]
	.loc	2 101 35 is_stmt 1              @ ../Board/v3/Src/stm32f4xx_hal_timebase_TIM.c:101:35
	ldr	r0, [sp, #16]
	movw	r1, #56963
	movt	r1, #17179
	.loc	2 101 46 is_stmt 0              @ ../Board/v3/Src/stm32f4xx_hal_timebase_TIM.c:101:46
	umull	r0, r1, r0, r1
	mov.w	r0, #-1
	.loc	2 101 57                        @ ../Board/v3/Src/stm32f4xx_hal_timebase_TIM.c:101:57
	add.w	r0, r0, r1, lsr #18
	.loc	2 101 20                        @ ../Board/v3/Src/stm32f4xx_hal_timebase_TIM.c:101:20
	str	r0, [sp, #12]
	.loc	2 104 19 is_stmt 1              @ ../Board/v3/Src/stm32f4xx_hal_timebase_TIM.c:104:19
	movw	r0, :lower16:htim14
	movt	r0, :upper16:htim14
	movw	r1, #8192
	movt	r1, #16384
	str	r1, [r0]
	movw	r1, #999
	.loc	2 112 22                        @ ../Board/v3/Src/stm32f4xx_hal_timebase_TIM.c:112:22
	str	r1, [r0, #12]
	.loc	2 113 27                        @ ../Board/v3/Src/stm32f4xx_hal_timebase_TIM.c:113:27
	ldr	r1, [sp, #12]
	.loc	2 113 25 is_stmt 0              @ ../Board/v3/Src/stm32f4xx_hal_timebase_TIM.c:113:25
	str	r1, [r0, #4]
	movs	r1, #0
	.loc	2 114 29 is_stmt 1              @ ../Board/v3/Src/stm32f4xx_hal_timebase_TIM.c:114:29
	str	r1, [r0, #16]
	.loc	2 115 27                        @ ../Board/v3/Src/stm32f4xx_hal_timebase_TIM.c:115:27
	str	r1, [r0, #8]
.Ltmp3:
	.loc	2 116 6                         @ ../Board/v3/Src/stm32f4xx_hal_timebase_TIM.c:116:6
	bl	HAL_TIM_Base_Init
.Ltmp4:
	.loc	2 116 6 is_stmt 0               @ ../Board/v3/Src/stm32f4xx_hal_timebase_TIM.c:116:6
	cbnz	r0, .LBB0_4
	b	.LBB0_3
.LBB0_3:
.Ltmp5:
	.loc	2 119 12 is_stmt 1              @ ../Board/v3/Src/stm32f4xx_hal_timebase_TIM.c:119:12
	movw	r0, :lower16:htim14
	movt	r0, :upper16:htim14
	bl	HAL_TIM_Base_Start_IT
	.loc	2 119 5 is_stmt 0               @ ../Board/v3/Src/stm32f4xx_hal_timebase_TIM.c:119:5
	strb.w	r0, [sp, #47]
	b	.LBB0_5
.Ltmp6:
.LBB0_4:
	.loc	2 0 5                           @ ../Board/v3/Src/stm32f4xx_hal_timebase_TIM.c:0:5
	movs	r0, #1
	.loc	2 123 3 is_stmt 1               @ ../Board/v3/Src/stm32f4xx_hal_timebase_TIM.c:123:3
	strb.w	r0, [sp, #47]
	b	.LBB0_5
.LBB0_5:
	.loc	2 124 1                         @ ../Board/v3/Src/stm32f4xx_hal_timebase_TIM.c:124:1
	ldrb.w	r0, [sp, #47]
	.loc	2 124 1 epilogue_begin is_stmt 0 @ ../Board/v3/Src/stm32f4xx_hal_timebase_TIM.c:124:1
	add	sp, #48
	pop	{r7, pc}
.Ltmp7:
.Lfunc_end0:
	.size	HAL_InitTick, .Lfunc_end0-HAL_InitTick
	.cfi_endproc
	.cantunwind
	.fnend
                                        @ -- End function
	.section	.text.HAL_SuspendTick,"ax",%progbits
	.hidden	HAL_SuspendTick                 @ -- Begin function HAL_SuspendTick
	.globl	HAL_SuspendTick
	.p2align	2
	.type	HAL_SuspendTick,%function
	.code	16                              @ @HAL_SuspendTick
	.thumb_func
HAL_SuspendTick:
.Lfunc_begin1:
	.fnstart
	.cfi_startproc
@ %bb.0:
	.loc	2 135 3 prologue_end is_stmt 1  @ ../Board/v3/Src/stm32f4xx_hal_timebase_TIM.c:135:3
	movw	r0, :lower16:htim14
	movt	r0, :upper16:htim14
	ldr	r1, [r0]
	ldr	r0, [r1, #12]
	bic	r0, r0, #1
	str	r0, [r1, #12]
	.loc	2 136 1                         @ ../Board/v3/Src/stm32f4xx_hal_timebase_TIM.c:136:1
	bx	lr
.Ltmp8:
.Lfunc_end1:
	.size	HAL_SuspendTick, .Lfunc_end1-HAL_SuspendTick
	.cfi_endproc
	.cantunwind
	.fnend
                                        @ -- End function
	.section	.text.HAL_ResumeTick,"ax",%progbits
	.hidden	HAL_ResumeTick                  @ -- Begin function HAL_ResumeTick
	.globl	HAL_ResumeTick
	.p2align	2
	.type	HAL_ResumeTick,%function
	.code	16                              @ @HAL_ResumeTick
	.thumb_func
HAL_ResumeTick:
.Lfunc_begin2:
	.fnstart
	.cfi_startproc
@ %bb.0:
	.loc	2 147 3 prologue_end            @ ../Board/v3/Src/stm32f4xx_hal_timebase_TIM.c:147:3
	movw	r0, :lower16:htim14
	movt	r0, :upper16:htim14
	ldr	r1, [r0]
	ldr	r0, [r1, #12]
	orr	r0, r0, #1
	str	r0, [r1, #12]
	.loc	2 148 1                         @ ../Board/v3/Src/stm32f4xx_hal_timebase_TIM.c:148:1
	bx	lr
.Ltmp9:
.Lfunc_end2:
	.size	HAL_ResumeTick, .Lfunc_end2-HAL_ResumeTick
	.cfi_endproc
	.cantunwind
	.fnend
                                        @ -- End function
	.hidden	uwIncrementState                @ @uwIncrementState
	.type	uwIncrementState,%object
	.section	.bss.uwIncrementState,"aw",%nobits
	.globl	uwIncrementState
	.p2align	2, 0x0
uwIncrementState:
	.long	0                               @ 0x0
	.size	uwIncrementState, 4

	.hidden	htim14                          @ @htim14
	.type	htim14,%object
	.section	.bss.htim14,"aw",%nobits
	.globl	htim14
	.p2align	2, 0x0
htim14:
	.zero	60
	.size	htim14, 60

	.file	7 "D:\\ikingtec\\Robot\\ODrive\\Firmware\\MDK-ARM" "../ThirdParty/STM32F4xx_HAL_Driver/Inc\\stm32f4xx_hal_rcc.h"
	.section	".note.GNU-stack","",%progbits
	.eabi_attribute	30, 6	@ Tag_ABI_optimization_goals
	.ARM_attribute	16, 1	@ Tag_AV_eba