	.text
	.syntax unified
	.eabi_attribute	67, "2.09"	@ Tag_conformance
	.cpu	cortex-m4
	.eabi_attribute	6, 13	@ Tag_CPU_arch
	.eabi_attribute	7, 77	@ Tag_CPU_arch_profile
	.eabi_attribute	8, 0	@ Tag_ARM_ISA_use
	.eabi_attribute	9, 2	@ Tag_THUMB_ISA_use
	.fpu	fpv4-sp-d16
	.eabi_attribute	27, 1	@ Tag_ABI_HardFP_use
	.eabi_attribute	36, 1	@ Tag_FP_HP_extension
	.eabi_attribute	34, 1	@ Tag_CPU_unaligned_access
	.eabi_attribute	17, 1	@ Tag_ABI_PCS_GOT_use
	.eabi_attribute	20, 2	@ Tag_ABI_FP_denormal
	.eabi_attribute	21, 0	@ Tag_ABI_FP_exceptions
	.eabi_attribute	23, 1	@ Tag_ABI_FP_number_model
	.eabi_attribute	24, 1	@ Tag_ABI_align_needed
	.eabi_attribute	25, 1	@ Tag_ABI_align_preserved
	.eabi_attribute	28, 1	@ Tag_ABI_VFP_args
	.eabi_attribute	38, 1	@ Tag_ABI_FP_16bit_format
	.eabi_attribute	18, 2	@ Tag_ABI_PCS_wchar_t
	.eabi_attribute	26, 1	@ Tag_ABI_enum_size
	.eabi_attribute	14, 0	@ Tag_ABI_PCS_R9_use
	.file	"stm32f4xx_hal_pcd.c"
	.file	1 "D:\\ikingtec\\Robot\\ODrive\\Firmware\\MDK-ARM" "../ThirdParty/STM32F4xx_HAL_Driver/Inc/stm32f4xx_hal_def.h"
	.file	2 "D:\\ikingtec\\Robot\\ODrive\\Firmware\\MDK-ARM" "../ThirdParty/STM32F4xx_HAL_Driver/Inc\\stm32f4xx_hal_pcd.h"
	.file	3 "D:\\ikingtec\\Robot\\ODrive\\Firmware\\MDK-ARM" "../ThirdParty/STM32F4xx_HAL_Driver/Inc/stm32f4xx_ll_usb.h"
	.file	4 "D:\\Embed\\MDK\\MDK\\ARM\\ARMCompilerV621\\Bin\\..\\include" "stdint.h"
	.file	5 "D:\\ikingtec\\Robot\\ODrive\\Firmware\\MDK-ARM" "../ThirdParty/CMSIS/Device/ST/STM32F4xx/Include/stm32f405xx.h"
	.section	.text.HAL_PCD_Init,"ax",%progbits
	.hidden	HAL_PCD_Init                    @ -- Begin function HAL_PCD_Init
	.globl	HAL_PCD_Init
	.p2align	2
	.type	HAL_PCD_Init,%function
	.code	16                              @ @HAL_PCD_Init
	.thumb_func
HAL_PCD_Init:
.Lfunc_begin0:
	.file	6 "D:\\ikingtec\\Robot\\ODrive\\Firmware\\MDK-ARM" "../ThirdParty/STM32F4xx_HAL_Driver/Src/stm32f4xx_hal_pcd.c"
	.loc	6 138 0                         @ ../ThirdParty/STM32F4xx_HAL_Driver/Src/stm32f4xx_hal_pcd.c:138:0
	.fnstart
	.cfi_sections .debug_frame
	.cfi_startproc
@ %bb.0:
	.save	{r4, r5, r6, r7, r8, r9, r10, r11, lr}
	push.w	{r4, r5, r6, r7, r8, r9, r10, r11, lr}
	.cfi_def_cfa_offset 36
	.cfi_offset lr, -4
	.cfi_offset r11, -8
	.cfi_offset r10, -12
	.cfi_offset r9, -16
	.cfi_offset r8, -20
	.cfi_offset r7, -24
	.cfi_offset r6, -28
	.cfi_offset r5, -32
	.cfi_offset r4, -36
	.pad	#84
	sub	sp, #84
	.cfi_def_cfa_offset 120
	str	r0, [sp, #76]
	movs	r0, #0
.Ltmp0:
	.loc	6 139 12 prologue_end           @ ../ThirdParty/STM32F4xx_HAL_Driver/Src/stm32f4xx_hal_pcd.c:139:12
	str	r0, [sp, #72]
.Ltmp1:
	.loc	6 142 6                         @ ../ThirdParty/STM32F4xx_HAL_Driver/Src/stm32f4xx_hal_pcd.c:142:6
	ldr	r0, [sp, #76]
.Ltmp2:
	.loc	6 142 6 is_stmt 0               @ ../ThirdParty/STM32F4xx_HAL_Driver/Src/stm32f4xx_hal_pcd.c:142:6
	cbnz	r0, .LBB0_2
	b	.LBB0_1
.LBB0_1:
	.loc	6 0 6                           @ ../ThirdParty/STM32F4xx_HAL_Driver/Src/stm32f4xx_hal_pcd.c:0:6
	movs	r0, #1
.Ltmp3:
	.loc	6 144 5 is_stmt 1               @ ../ThirdParty/STM32F4xx_HAL_Driver/Src/stm32f4xx_hal_pcd.c:144:5
	strb.w	r0, [sp, #83]
	b	.LBB0_11
.Ltmp4:
.LBB0_2:
	.loc	6 150 3                         @ ../ThirdParty/STM32F4xx_HAL_Driver/Src/stm32f4xx_hal_pcd.c:150:3
	ldr	r1, [sp, #76]
	movs	r0, #3
	.loc	6 150 15 is_stmt 0              @ ../ThirdParty/STM32F4xx_HAL_Driver/Src/stm32f4xx_hal_pcd.c:150:15
	strb.w	r0, [r1, #953]
	.loc	6 153 19 is_stmt 1              @ ../ThirdParty/STM32F4xx_HAL_Driver/Src/stm32f4xx_hal_pcd.c:153:19
	ldr	r0, [sp, #76]
	.loc	6 153 3 is_stmt 0               @ ../ThirdParty/STM32F4xx_HAL_Driver/Src/stm32f4xx_hal_pcd.c:153:3
	bl	HAL_PCD_MspInit
	.loc	6 156 2 is_stmt 1               @ ../ThirdParty/STM32F4xx_HAL_Driver/Src/stm32f4xx_hal_pcd.c:156:2
	ldr	r0, [sp, #76]
	ldr	r0, [r0]
	bl	USB_DisableGlobalInt
	.loc	6 159 15                        @ ../ThirdParty/STM32F4xx_HAL_Driver/Src/stm32f4xx_hal_pcd.c:159:15
	ldr	r0, [sp, #76]
	.loc	6 159 21 is_stmt 0              @ ../ThirdParty/STM32F4xx_HAL_Driver/Src/stm32f4xx_hal_pcd.c:159:21
	str	r0, [sp, #56]                   @ 4-byte Spill
	ldr	r1, [r0]
	.loc	6 159 2                         @ ../ThirdParty/STM32F4xx_HAL_Driver/Src/stm32f4xx_hal_pcd.c:159:2
	str	r1, [sp, #60]                   @ 4-byte Spill
	ldr	r1, [r0, #4]
	ldr	r2, [r0, #8]
	ldr	r3, [r0, #12]
	ldr.w	r12, [r0, #16]
	ldr	r4, [r0, #20]
	ldr	r5, [r0, #24]
	ldr	r6, [r0, #28]
	ldr	r7, [r0, #32]
	ldr.w	r8, [r0, #36]
	ldr.w	r9, [r0, #40]
	ldr.w	r10, [r0, #44]
	ldr.w	r11, [r0, #48]
	ldr.w	lr, [r0, #52]
	mov	r0, sp
	str	r0, [sp, #64]                   @ 4-byte Spill
	str.w	lr, [r0, #36]
	ldr	r0, [sp, #60]                   @ 4-byte Reload
	ldr.w	lr, [sp, #64]                   @ 4-byte Reload
	str.w	r11, [lr, #32]
	str.w	r10, [lr, #28]
	str.w	r9, [lr, #24]
	str.w	r8, [lr, #20]
	str.w	r7, [lr, #16]
	str.w	r6, [lr, #12]
	str.w	r5, [lr, #8]
	str.w	r4, [lr, #4]
	str.w	r12, [lr]
	bl	USB_CoreInit
	.loc	6 162 21 is_stmt 1              @ ../ThirdParty/STM32F4xx_HAL_Driver/Src/stm32f4xx_hal_pcd.c:162:21
	ldr	r0, [sp, #76]
	.loc	6 162 27 is_stmt 0              @ ../ThirdParty/STM32F4xx_HAL_Driver/Src/stm32f4xx_hal_pcd.c:162:27
	ldr	r0, [r0]
	movs	r1, #0
	.loc	6 162 2                         @ ../ThirdParty/STM32F4xx_HAL_Driver/Src/stm32f4xx_hal_pcd.c:162:2
	str	r1, [sp, #68]                   @ 4-byte Spill
	bl	USB_SetCurrentMode
                                        @ kill: def $r1 killed $r0
.Ltmp5:
	.loc	6 165 9 is_stmt 1               @ ../ThirdParty/STM32F4xx_HAL_Driver/Src/stm32f4xx_hal_pcd.c:165:9
	ldr	r0, [sp, #68]                   @ 4-byte Reload
	str	r0, [sp, #72]
	.loc	6 165 7 is_stmt 0               @ ../ThirdParty/STM32F4xx_HAL_Driver/Src/stm32f4xx_hal_pcd.c:165:7
	b	.LBB0_3
.LBB0_3:                                @ =>This Inner Loop Header: Depth=1
.Ltmp6:
	.loc	6 165 15                        @ ../ThirdParty/STM32F4xx_HAL_Driver/Src/stm32f4xx_hal_pcd.c:165:15
	ldr	r0, [sp, #72]
.Ltmp7:
	.loc	6 165 2                         @ ../ThirdParty/STM32F4xx_HAL_Driver/Src/stm32f4xx_hal_pcd.c:165:2
	cmp	r0, #14
	bhi	.LBB0_6
	b	.LBB0_4
.LBB0_4:                                @   in Loop: Header=BB0_3 Depth=1
.Ltmp8:
	.loc	6 168 4 is_stmt 1               @ ../ThirdParty/STM32F4xx_HAL_Driver/Src/stm32f4xx_hal_pcd.c:168:4
	ldr	r0, [sp, #76]
	.loc	6 168 16 is_stmt 0              @ ../ThirdParty/STM32F4xx_HAL_Driver/Src/stm32f4xx_hal_pcd.c:168:16
	ldr	r1, [sp, #72]
	.loc	6 168 4                         @ ../ThirdParty/STM32F4xx_HAL_Driver/Src/stm32f4xx_hal_pcd.c:168:4
	rsb	r1, r1, r1, lsl #3
	.loc	6 168 10                        @ ../ThirdParty/STM32F4xx_HAL_Driver/Src/stm32f4xx_hal_pcd.c:168:10
	add.w	r1, r0, r1, lsl #2
	movs	r0, #1
	.loc	6 168 25                        @ ../ThirdParty/STM32F4xx_HAL_Driver/Src/stm32f4xx_hal_pcd.c:168:25
	strb.w	r0, [r1, #57]
	.loc	6 169 25 is_stmt 1              @ ../ThirdParty/STM32F4xx_HAL_Driver/Src/stm32f4xx_hal_pcd.c:169:25
	ldr	r0, [sp, #72]
	.loc	6 169 4 is_stmt 0               @ ../ThirdParty/STM32F4xx_HAL_Driver/Src/stm32f4xx_hal_pcd.c:169:4
	ldr	r1, [sp, #76]
	rsb	r2, r0, r0, lsl #3
	.loc	6 169 10                        @ ../ThirdParty/STM32F4xx_HAL_Driver/Src/stm32f4xx_hal_pcd.c:169:10
	add.w	r1, r1, r2, lsl #2
	.loc	6 169 23                        @ ../ThirdParty/STM32F4xx_HAL_Driver/Src/stm32f4xx_hal_pcd.c:169:23
	strb.w	r0, [r1, #56]
	.loc	6 170 33 is_stmt 1              @ ../ThirdParty/STM32F4xx_HAL_Driver/Src/stm32f4xx_hal_pcd.c:170:33
	ldr	r0, [sp, #72]
	.loc	6 170 4 is_stmt 0               @ ../ThirdParty/STM32F4xx_HAL_Driver/Src/stm32f4xx_hal_pcd.c:170:4
	ldr	r1, [sp, #76]
	rsb	r2, r0, r0, lsl #3
	.loc	6 170 10                        @ ../ThirdParty/STM32F4xx_HAL_Driver/Src/stm32f4xx_hal_pcd.c:170:10
	add.w	r1, r1, r2, lsl #2
	.loc	6 170 31                        @ ../ThirdParty/STM32F4xx_HAL_Driver/Src/stm32f4xx_hal_pcd.c:170:31
	strh	r0, [r1, #62]
	.loc	6 172 4 is_stmt 1               @ ../ThirdParty/STM32F4xx_HAL_Driver/Src/stm32f4xx_hal_pcd.c:172:4
	ldr	r0, [sp, #76]
	.loc	6 172 16 is_stmt 0              @ ../ThirdParty/STM32F4xx_HAL_Driver/Src/stm32f4xx_hal_pcd.c:172:16
	ldr	r1, [sp, #72]
	.loc	6 172 4                         @ ../ThirdParty/STM32F4xx_HAL_Driver/Src/stm32f4xx_hal_pcd.c:172:4
	rsb	r1, r1, r1, lsl #3
	.loc	6 172 10                        @ ../ThirdParty/STM32F4xx_HAL_Driver/Src/stm32f4xx_hal_pcd.c:172:10
	add.w	r1, r0, r1, lsl #2
	movs	r0, #0
	.loc	6 172 24                        @ ../ThirdParty/STM32F4xx_HAL_Driver/Src/stm32f4xx_hal_pcd.c:172:24
	strb.w	r0, [r1, #59]
	.loc	6 173 4 is_stmt 1               @ ../ThirdParty/STM32F4xx_HAL_Driver/Src/stm32f4xx_hal_pcd.c:173:4
	ldr	r1, [sp, #76]
	.loc	6 173 16 is_stmt 0              @ ../ThirdParty/STM32F4xx_HAL_Driver/Src/stm32f4xx_hal_pcd.c:173:16
	ldr	r2, [sp, #72]
	.loc	6 173 4                         @ ../ThirdParty/STM32F4xx_HAL_Driver/Src/stm32f4xx_hal_pcd.c:173:4
	rsb	r2, r2, r2, lsl #3
	.loc	6 173 10                        @ ../ThirdParty/STM32F4xx_HAL_Driver/Src/stm32f4xx_hal_pcd.c:173:10
	add.w	r1, r1, r2, lsl #2
	.loc	6 173 29                        @ ../ThirdParty/STM32F4xx_HAL_Driver/Src/stm32f4xx_hal_pcd.c:173:29
	str	r0, [r1, #64]
	.loc	6 174 4 is_stmt 1               @ ../ThirdParty/STM32F4xx_HAL_Driver/Src/stm32f4xx_hal_pcd.c:174:4
	ldr	r1, [sp, #76]
	.loc	6 174 16 is_stmt 0              @ ../ThirdParty/STM32F4xx_HAL_Driver/Src/stm32f4xx_hal_pcd.c:174:16
	ldr	r2, [sp, #72]
	.loc	6 174 4                         @ ../ThirdParty/STM32F4xx_HAL_Driver/Src/stm32f4xx_hal_pcd.c:174:4
	rsb	r2, r2, r2, lsl #3
	.loc	6 174 10                        @ ../ThirdParty/STM32F4xx_HAL_Driver/Src/stm32f4xx_hal_pcd.c:174:10
	add.w	r1, r1, r2, lsl #2
	.loc	6 174 29                        @ ../ThirdParty/STM32F4xx_HAL_Driver/Src/stm32f4xx_hal_pcd.c:174:29
	str	r0, [r1, #68]
	.loc	6 175 4 is_stmt 1               @ ../ThirdParty/STM32F4xx_HAL_Driver/Src/stm32f4xx_hal_pcd.c:175:4
	ldr	r1, [sp, #76]
	.loc	6 175 16 is_stmt 0              @ ../ThirdParty/STM32F4xx_HAL_Driver/Src/stm32f4xx_hal_pcd.c:175:16
	ldr	r2, [sp, #72]
	.loc	6 175 4                         @ ../ThirdParty/STM32F4xx_HAL_Driver/Src/stm32f4xx_hal_pcd.c:175:4
	rsb	r2, r2, r2, lsl #3
	.loc	6 175 10                        @ ../ThirdParty/STM32F4xx_HAL_Driver/Src/stm32f4xx_hal_pcd.c:175:10
	add.w	r1, r1, r2, lsl #2
	.loc	6 175 28                        @ ../ThirdParty/STM32F4xx_HAL_Driver/Src/stm32f4xx_hal_pcd.c:175:28
	str	r0, [r1, #76]
	.loc	6 176 2 is_stmt 1               @ ../ThirdParty/STM32F4xx_HAL_Driver/Src/stm32f4xx_hal_pcd.c:176:2
	b	.LBB0_5
.Ltmp9:
.LBB0_5:                                @   in Loop: Header=BB0_3 Depth=1
	.loc	6 165 25                        @ ../ThirdParty/STM32F4xx_HAL_Driver/Src/stm32f4xx_hal_pcd.c:165:25
	ldr	r0, [sp, #72]
	adds	r0, #1
	str	r0, [sp, #72]
	.loc	6 165 2 is_stmt 0               @ ../ThirdParty/STM32F4xx_HAL_Driver/Src/stm32f4xx_hal_pcd.c:165:2
	b	.LBB0_3
.Ltmp10:
.LBB0_6:
	.loc	6 0 2                           @ ../ThirdParty/STM32F4xx_HAL_Driver/Src/stm32f4xx_hal_pcd.c:0:2
	movs	r0, #0
.Ltmp11:
	.loc	6 178 9 is_stmt 1               @ ../ThirdParty/STM32F4xx_HAL_Driver/Src/stm32f4xx_hal_pcd.c:178:9
	str	r0, [sp, #72]
	.loc	6 178 7 is_stmt 0               @ ../ThirdParty/STM32F4xx_HAL_Driver/Src/stm32f4xx_hal_pcd.c:178:7
	b	.LBB0_7
.LBB0_7:                                @ =>This Inner Loop Header: Depth=1
.Ltmp12:
	.loc	6 178 15                        @ ../ThirdParty/STM32F4xx_HAL_Driver/Src/stm32f4xx_hal_pcd.c:178:15
	ldr	r0, [sp, #72]
.Ltmp13:
	.loc	6 178 2                         @ ../ThirdParty/STM32F4xx_HAL_Driver/Src/stm32f4xx_hal_pcd.c:178:2
	cmp	r0, #14
	bhi	.LBB0_10
	b	.LBB0_8
.LBB0_8:                                @   in Loop: Header=BB0_7 Depth=1
.Ltmp14:
	.loc	6 180 4 is_stmt 1               @ ../ThirdParty/STM32F4xx_HAL_Driver/Src/stm32f4xx_hal_pcd.c:180:4
	ldr	r0, [sp, #76]
	.loc	6 180 17 is_stmt 0              @ ../ThirdParty/STM32F4xx_HAL_Driver/Src/stm32f4xx_hal_pcd.c:180:17
	ldr	r1, [sp, #72]
	.loc	6 180 4                         @ ../ThirdParty/STM32F4xx_HAL_Driver/Src/stm32f4xx_hal_pcd.c:180:4
	rsb	r1, r1, r1, lsl #3
	.loc	6 180 10                        @ ../ThirdParty/STM32F4xx_HAL_Driver/Src/stm32f4xx_hal_pcd.c:180:10
	add.w	r1, r0, r1, lsl #2
	movs	r0, #0
	.loc	6 180 26                        @ ../ThirdParty/STM32F4xx_HAL_Driver/Src/stm32f4xx_hal_pcd.c:180:26
	strb.w	r0, [r1, #505]
	.loc	6 181 26 is_stmt 1              @ ../ThirdParty/STM32F4xx_HAL_Driver/Src/stm32f4xx_hal_pcd.c:181:26
	ldr	r1, [sp, #72]
	.loc	6 181 4 is_stmt 0               @ ../ThirdParty/STM32F4xx_HAL_Driver/Src/stm32f4xx_hal_pcd.c:181:4
	ldr	r2, [sp, #76]
	rsb	r3, r1, r1, lsl #3
	.loc	6 181 10                        @ ../ThirdParty/STM32F4xx_HAL_Driver/Src/stm32f4xx_hal_pcd.c:181:10
	add.w	r2, r2, r3, lsl #2
	.loc	6 181 24                        @ ../ThirdParty/STM32F4xx_HAL_Driver/Src/stm32f4xx_hal_pcd.c:181:24
	strb.w	r1, [r2, #504]
	.loc	6 182 33 is_stmt 1              @ ../ThirdParty/STM32F4xx_HAL_Driver/Src/stm32f4xx_hal_pcd.c:182:33
	ldr	r1, [sp, #72]
	.loc	6 182 4 is_stmt 0               @ ../ThirdParty/STM32F4xx_HAL_Driver/Src/stm32f4xx_hal_pcd.c:182:4
	ldr	r2, [sp, #76]
	rsb	r3, r1, r1, lsl #3
	.loc	6 182 10                        @ ../ThirdParty/STM32F4xx_HAL_Driver/Src/stm32f4xx_hal_pcd.c:182:10
	add.w	r2, r2, r3, lsl #2
	.loc	6 182 31                        @ ../ThirdParty/STM32F4xx_HAL_Driver/Src/stm32f4xx_hal_pcd.c:182:31
	strh	r1, [r2, #62]
	.loc	6 184 4 is_stmt 1               @ ../ThirdParty/STM32F4xx_HAL_Driver/Src/stm32f4xx_hal_pcd.c:184:4
	ldr	r1, [sp, #76]
	.loc	6 184 17 is_stmt 0              @ ../ThirdParty/STM32F4xx_HAL_Driver/Src/stm32f4xx_hal_pcd.c:184:17
	ldr	r2, [sp, #72]
	.loc	6 184 4                         @ ../ThirdParty/STM32F4xx_HAL_Driver/Src/stm32f4xx_hal_pcd.c:184:4
	rsb	r2, r2, r2, lsl #3
	.loc	6 184 10                        @ ../ThirdParty/STM32F4xx_HAL_Driver/Src/stm32f4xx_hal_pcd.c:184:10
	add.w	r1, r1, r2, lsl #2
	.loc	6 184 25                        @ ../ThirdParty/STM32F4xx_HAL_Driver/Src/stm32f4xx_hal_pcd.c:184:25
	strb.w	r0, [r1, #507]
	.loc	6 185 4 is_stmt 1               @ ../ThirdParty/STM32F4xx_HAL_Driver/Src/stm32f4xx_hal_pcd.c:185:4
	ldr	r1, [sp, #76]
	.loc	6 185 17 is_stmt 0              @ ../ThirdParty/STM32F4xx_HAL_Driver/Src/stm32f4xx_hal_pcd.c:185:17
	ldr	r2, [sp, #72]
	.loc	6 185 4                         @ ../ThirdParty/STM32F4xx_HAL_Driver/Src/stm32f4xx_hal_pcd.c:185:4
	rsb	r2, r2, r2, lsl #3
	.loc	6 185 10                        @ ../ThirdParty/STM32F4xx_HAL_Driver/Src/stm32f4xx_hal_pcd.c:185:10
	add.w	r1, r1, r2, lsl #2
	.loc	6 185 30                        @ ../ThirdParty/STM32F4xx_HAL_Driver/Src/stm32f4xx_hal_pcd.c:185:30
	str.w	r0, [r1, #512]
	.loc	6 186 4 is_stmt 1               @ ../ThirdParty/STM32F4xx_HAL_Driver/Src/stm32f4xx_hal_pcd.c:186:4
	ldr	r1, [sp, #76]
	.loc	6 186 17 is_stmt 0              @ ../ThirdParty/STM32F4xx_HAL_Driver/Src/stm32f4xx_hal_pcd.c:186:17
	ldr	r2, [sp, #72]
	.loc	6 186 4                         @ ../ThirdParty/STM32F4xx_HAL_Driver/Src/stm32f4xx_hal_pcd.c:186:4
	rsb	r2, r2, r2, lsl #3
	.loc	6 186 10                        @ ../ThirdParty/STM32F4xx_HAL_Driver/Src/stm32f4xx_hal_pcd.c:186:10
	add.w	r1, r1, r2, lsl #2
	.loc	6 186 30                        @ ../ThirdParty/STM32F4xx_HAL_Driver/Src/stm32f4xx_hal_pcd.c:186:30
	str.w	r0, [r1, #516]
	.loc	6 187 4 is_stmt 1               @ ../ThirdParty/STM32F4xx_HAL_Driver/Src/stm32f4xx_hal_pcd.c:187:4
	ldr	r1, [sp, #76]
	.loc	6 187 17 is_stmt 0              @ ../ThirdParty/STM32F4xx_HAL_Driver/Src/stm32f4xx_hal_pcd.c:187:17
	ldr	r2, [sp, #72]
	.loc	6 187 4                         @ ../ThirdParty/STM32F4xx_HAL_Driver/Src/stm32f4xx_hal_pcd.c:187:4
	rsb	r2, r2, r2, lsl #3
	.loc	6 187 10                        @ ../ThirdParty/STM32F4xx_HAL_Driver/Src/stm32f4xx_hal_pcd.c:187:10
	add.w	r1, r1, r2, lsl #2
	.loc	6 187 29                        @ ../ThirdParty/STM32F4xx_HAL_Driver/Src/stm32f4xx_hal_pcd.c:187:29
	str.w	r0, [r1, #524]
	.loc	6 189 4 is_stmt 1               @ ../ThirdParty/STM32F4xx_HAL_Driver/Src/stm32f4xx_hal_pcd.c:189:4
	ldr	r1, [sp, #76]
	.loc	6 189 10 is_stmt 0              @ ../ThirdParty/STM32F4xx_HAL_Driver/Src/stm32f4xx_hal_pcd.c:189:10
	ldr	r1, [r1]
	.loc	6 189 28                        @ ../ThirdParty/STM32F4xx_HAL_Driver/Src/stm32f4xx_hal_pcd.c:189:28
	ldr	r2, [sp, #72]
	.loc	6 189 20                        @ ../ThirdParty/STM32F4xx_HAL_Driver/Src/stm32f4xx_hal_pcd.c:189:20
	add.w	r1, r1, r2, lsl #2
	.loc	6 189 31                        @ ../ThirdParty/STM32F4xx_HAL_Driver/Src/stm32f4xx_hal_pcd.c:189:31
	str.w	r0, [r1, #260]
	.loc	6 190 2 is_stmt 1               @ ../ThirdParty/STM32F4xx_HAL_Driver/Src/stm32f4xx_hal_pcd.c:190:2
	b	.LBB0_9
.Ltmp15:
.LBB0_9:                                @   in Loop: Header=BB0_7 Depth=1
	.loc	6 178 25                        @ ../ThirdParty/STM32F4xx_HAL_Driver/Src/stm32f4xx_hal_pcd.c:178:25
	ldr	r0, [sp, #72]
	adds	r0, #1
	str	r0, [sp, #72]
	.loc	6 178 2 is_stmt 0               @ ../ThirdParty/STM32F4xx_HAL_Driver/Src/stm32f4xx_hal_pcd.c:178:2
	b	.LBB0_7
.Ltmp16:
.LBB0_10:
	.loc	6 193 14 is_stmt 1              @ ../ThirdParty/STM32F4xx_HAL_Driver/Src/stm32f4xx_hal_pcd.c:193:14
	ldr	r0, [sp, #76]
	.loc	6 193 20 is_stmt 0              @ ../ThirdParty/STM32F4xx_HAL_Driver/Src/stm32f4xx_hal_pcd.c:193:20
	str	r0, [sp, #44]                   @ 4-byte Spill
	ldr	r1, [r0]
	.loc	6 193 2                         @ ../ThirdParty/STM32F4xx_HAL_Driver/Src/stm32f4xx_hal_pcd.c:193:2
	str	r1, [sp, #48]                   @ 4-byte Spill
	ldr	r1, [r0, #4]
	ldr	r2, [r0, #8]
	ldr	r3, [r0, #12]
	ldr.w	r12, [r0, #16]
	ldr	r4, [r0, #20]
	ldr	r5, [r0, #24]
	ldr	r6, [r0, #28]
	ldr	r7, [r0, #32]
	ldr.w	r8, [r0, #36]
	ldr.w	r9, [r0, #40]
	ldr.w	r10, [r0, #44]
	ldr.w	r11, [r0, #48]
	ldr.w	lr, [r0, #52]
	mov	r0, sp
	str	r0, [sp, #52]                   @ 4-byte Spill
	str.w	lr, [r0, #36]
	ldr	r0, [sp, #48]                   @ 4-byte Reload
	ldr.w	lr, [sp, #52]                   @ 4-byte Reload
	str.w	r11, [lr, #32]
	str.w	r10, [lr, #28]
	str.w	r9, [lr, #24]
	str.w	r8, [lr, #20]
	str.w	r7, [lr, #16]
	str.w	r6, [lr, #12]
	str.w	r5, [lr, #8]
	str.w	r4, [lr, #4]
	str.w	r12, [lr]
	bl	USB_DevInit
	.loc	6 195 2 is_stmt 1               @ ../ThirdParty/STM32F4xx_HAL_Driver/Src/stm32f4xx_hal_pcd.c:195:2
	ldr	r1, [sp, #76]
	movs	r0, #1
	.loc	6 195 13 is_stmt 0              @ ../ThirdParty/STM32F4xx_HAL_Driver/Src/stm32f4xx_hal_pcd.c:195:13
	strb.w	r0, [r1, #953]
	.loc	6 213 21 is_stmt 1              @ ../ThirdParty/STM32F4xx_HAL_Driver/Src/stm32f4xx_hal_pcd.c:213:21
	ldr	r0, [sp, #76]
	.loc	6 213 27 is_stmt 0              @ ../ThirdParty/STM32F4xx_HAL_Driver/Src/stm32f4xx_hal_pcd.c:213:27
	ldr	r0, [r0]
	.loc	6 213 2                         @ ../ThirdParty/STM32F4xx_HAL_Driver/Src/stm32f4xx_hal_pcd.c:213:2
	bl	USB_DevDisconnect
	movs	r0, #0
	.loc	6 214 2 is_stmt 1               @ ../ThirdParty/STM32F4xx_HAL_Driver/Src/stm32f4xx_hal_pcd.c:214:2
	strb.w	r0, [sp, #83]
	b	.LBB0_11
.LBB0_11:
	.loc	6 215 1                         @ ../ThirdParty/STM32F4xx_HAL_Driver/Src/stm32f4xx_hal_pcd.c:215:1
	ldrb.w	r0, [sp, #83]
	.loc	6 215 1 epilogue_begin is_stmt 0 @ ../ThirdParty/STM32F4xx_HAL_Driver/Src/stm32f4xx_hal_pcd.c:215:1
	add	sp, #84
	pop.w	{r4, r5, r6, r7, r8, r9, r10, r11, pc}
.Ltmp17:
.Lfunc_end0:
	.size	HAL_PCD_Init, .Lfunc_end0-HAL_PCD_Init
	.cfi_endproc
	.cantunwind
	.fnend
                                        @ -- End function
	.section	.text.HAL_PCD_MspInit,"ax",%progbits
	.hidden	HAL_PCD_MspInit                 @ -- Begin function HAL_PCD_MspInit
	.weak	HAL_PCD_MspInit
	.p2align	2
	.type	HAL_PCD_MspInit,%function
	.code	16                              @ @HAL_PCD_MspInit
	.thumb_func
HAL_PCD_MspInit:
.Lfunc_begin1:
	.loc	6 249 0 is_stmt 1               @ ../ThirdParty/STM32F4xx_HAL_Driver/Src/stm32f4xx_hal_pcd.c:249:0
	.fnstart
	.cfi_startproc
@ %bb.0:
	.pad	#4
	sub	sp, #4
	.cfi_def_cfa_offset 4
	str	r0, [sp]
.Ltmp18:
	.loc	6 255 1 prologue_end epilogue_begin @ ../ThirdParty/STM32F4xx_HAL_Driver/Src/stm32f4xx_hal_pcd.c:255:1
	add	sp, #4
	bx	lr
.Ltmp19:
.Lfunc_end1:
	.size	HAL_PCD_MspInit, .Lfunc_end1-HAL_PCD_MspInit
	.cfi_endproc
	.cantunwind
	.fnend
                                        @ -- End function
	.section	.text.HAL_PCD_DeInit,"ax",%progbits
	.hidden	HAL_PCD_DeInit                  @ -- Begin function HAL_PCD_DeInit
	.globl	HAL_PCD_DeInit
	.p2align	2
	.type	HAL_PCD_DeInit,%function
	.code	16                              @ @HAL_PCD_DeInit
	.thumb_func
HAL_PCD_DeInit:
.Lfunc_begin2:
	.loc	6 223 0                         @ ../ThirdParty/STM32F4xx_HAL_Driver/Src/stm32f4xx_hal_pcd.c:223:0
	.fnstart
	.cfi_startproc
@ %bb.0:
	.save	{r7, lr}
	push	{r7, lr}
	.cfi_def_cfa_offset 8
	.cfi_offset lr, -4
	.cfi_offset r7, -8
	.pad	#8
	sub	sp, #8
	.cfi_def_cfa_offset 16
	str	r0, [sp]
.Ltmp20:
	.loc	6 225 6 prologue_end            @ ../ThirdParty/STM32F4xx_HAL_Driver/Src/stm32f4xx_hal_pcd.c:225:6
	ldr	r0, [sp]
.Ltmp21:
	.loc	6 225 6 is_stmt 0               @ ../ThirdParty/STM32F4xx_HAL_Driver/Src/stm32f4xx_hal_pcd.c:225:6
	cbnz	r0, .LBB2_2
	b	.LBB2_1
.LBB2_1:
	.loc	6 0 6                           @ ../ThirdParty/STM32F4xx_HAL_Driver/Src/stm32f4xx_hal_pcd.c:0:6
	movs	r0, #1
.Ltmp22:
	.loc	6 227 5 is_stmt 1               @ ../ThirdParty/STM32F4xx_HAL_Driver/Src/stm32f4xx_hal_pcd.c:227:5
	strb.w	r0, [sp, #7]
	b	.LBB2_3
.Ltmp23:
.LBB2_2:
	.loc	6 230 3                         @ ../ThirdParty/STM32F4xx_HAL_Driver/Src/stm32f4xx_hal_pcd.c:230:3
	ldr	r1, [sp]
	movs	r0, #3
	.loc	6 230 15 is_stmt 0              @ ../ThirdParty/STM32F4xx_HAL_Driver/Src/stm32f4xx_hal_pcd.c:230:15
	strb.w	r0, [r1, #953]
	.loc	6 233 16 is_stmt 1              @ ../ThirdParty/STM32F4xx_HAL_Driver/Src/stm32f4xx_hal_pcd.c:233:16
	ldr	r0, [sp]
	.loc	6 233 3 is_stmt 0               @ ../ThirdParty/STM32F4xx_HAL_Driver/Src/stm32f4xx_hal_pcd.c:233:3
	bl	HAL_PCD_Stop
	.loc	6 236 21 is_stmt 1              @ ../ThirdParty/STM32F4xx_HAL_Driver/Src/stm32f4xx_hal_pcd.c:236:21
	ldr	r0, [sp]
	.loc	6 236 3 is_stmt 0               @ ../ThirdParty/STM32F4xx_HAL_Driver/Src/stm32f4xx_hal_pcd.c:236:3
	bl	HAL_PCD_MspDeInit
	.loc	6 238 3 is_stmt 1               @ ../ThirdParty/STM32F4xx_HAL_Driver/Src/stm32f4xx_hal_pcd.c:238:3
	ldr	r1, [sp]
	movs	r0, #0
	.loc	6 238 15 is_stmt 0              @ ../ThirdParty/STM32F4xx_HAL_Driver/Src/stm32f4xx_hal_pcd.c:238:15
	strb.w	r0, [r1, #953]
	.loc	6 240 3 is_stmt 1               @ ../ThirdParty/STM32F4xx_HAL_Driver/Src/stm32f4xx_hal_pcd.c:240:3
	strb.w	r0, [sp, #7]
	b	.LBB2_3
.LBB2_3:
	.loc	6 241 1                         @ ../ThirdParty/STM32F4xx_HAL_Driver/Src/stm32f4xx_hal_pcd.c:241:1
	ldrb.w	r0, [sp, #7]
	.loc	6 241 1 epilogue_begin is_stmt 0 @ ../ThirdParty/STM32F4xx_HAL_Driver/Src/stm32f4xx_hal_pcd.c:241:1
	add	sp, #8
	pop	{r7, pc}
.Ltmp24:
.Lfunc_end2:
	.size	HAL_PCD_DeInit, .Lfunc_end2-HAL_PCD_DeInit
	.cfi_endproc
	.cantunwind
	.fnend
                                        @ -- End function
	.section	.text.HAL_PCD_Stop,"ax",%progbits
	.hidden	HAL_PCD_Stop                    @ -- Begin function HAL_PCD_Stop
	.globl	HAL_PCD_Stop
	.p2align	2
	.type	HAL_PCD_Stop,%function
	.code	16                              @ @HAL_PCD_Stop
	.thumb_func
HAL_PCD_Stop:
.Lfunc_begin3:
	.loc	6 310 0 is_stmt 1               @ ../ThirdParty/STM32F4xx_HAL_Driver/Src/stm32f4xx_hal_pcd.c:310:0
	.fnstart
	.cfi_startproc
@ %bb.0:
	.save	{r7, lr}
	push	{r7, lr}
	.cfi_def_cfa_offset 8
	.cfi_offset lr, -4
	.cfi_offset r7, -8
	.pad	#8
	sub	sp, #8
	.cfi_def_cfa_offset 16
	str	r0, [sp]
.Ltmp25:
	.loc	6 311 3 prologue_end            @ ../ThirdParty/STM32F4xx_HAL_Driver/Src/stm32f4xx_hal_pcd.c:311:3
	b	.LBB3_1
.LBB3_1:
.Ltmp26:
	.loc	6 311 3 is_stmt 0               @ ../ThirdParty/STM32F4xx_HAL_Driver/Src/stm32f4xx_hal_pcd.c:311:3
	ldr	r0, [sp]
	ldrb.w	r0, [r0, #952]
.Ltmp27:
	.loc	6 311 3                         @ ../ThirdParty/STM32F4xx_HAL_Driver/Src/stm32f4xx_hal_pcd.c:311:3
	cmp	r0, #1
	bne	.LBB3_3
	b	.LBB3_2
.LBB3_2:
	.loc	6 0 3                           @ ../ThirdParty/STM32F4xx_HAL_Driver/Src/stm32f4xx_hal_pcd.c:0:3
	movs	r0, #2
.Ltmp28:
	.loc	6 311 3                         @ ../ThirdParty/STM32F4xx_HAL_Driver/Src/stm32f4xx_hal_pcd.c:311:3
	strb.w	r0, [sp, #7]
	b	.LBB3_8
.Ltmp29:
.LBB3_3:
	.loc	6 311 3                         @ ../ThirdParty/STM32F4xx_HAL_Driver/Src/stm32f4xx_hal_pcd.c:311:3
	ldr	r1, [sp]
	movs	r0, #1
	strb.w	r0, [r1, #952]
	b	.LBB3_4
.Ltmp30:
.LBB3_4:
	.loc	6 311 3                         @ ../ThirdParty/STM32F4xx_HAL_Driver/Src/stm32f4xx_hal_pcd.c:311:3
	b	.LBB3_5
.Ltmp31:
.LBB3_5:
	.loc	6 312 3 is_stmt 1               @ ../ThirdParty/STM32F4xx_HAL_Driver/Src/stm32f4xx_hal_pcd.c:312:3
	ldr	r0, [sp]
	ldr	r0, [r0]
	bl	USB_DisableGlobalInt
	.loc	6 313 18                        @ ../ThirdParty/STM32F4xx_HAL_Driver/Src/stm32f4xx_hal_pcd.c:313:18
	ldr	r0, [sp]
	.loc	6 313 24 is_stmt 0              @ ../ThirdParty/STM32F4xx_HAL_Driver/Src/stm32f4xx_hal_pcd.c:313:24
	ldr	r0, [r0]
	.loc	6 313 3                         @ ../ThirdParty/STM32F4xx_HAL_Driver/Src/stm32f4xx_hal_pcd.c:313:3
	bl	USB_StopDevice
	.loc	6 314 21 is_stmt 1              @ ../ThirdParty/STM32F4xx_HAL_Driver/Src/stm32f4xx_hal_pcd.c:314:21
	ldr	r0, [sp]
	.loc	6 314 27 is_stmt 0              @ ../ThirdParty/STM32F4xx_HAL_Driver/Src/stm32f4xx_hal_pcd.c:314:27
	ldr	r0, [r0]
	.loc	6 314 3                         @ ../ThirdParty/STM32F4xx_HAL_Driver/Src/stm32f4xx_hal_pcd.c:314:3
	bl	USB_DevDisconnect
	.loc	6 315 3 is_stmt 1               @ ../ThirdParty/STM32F4xx_HAL_Driver/Src/stm32f4xx_hal_pcd.c:315:3
	b	.LBB3_6
.LBB3_6:
.Ltmp32:
	.loc	6 315 3 is_stmt 0               @ ../ThirdParty/STM32F4xx_HAL_Driver/Src/stm32f4xx_hal_pcd.c:315:3
	ldr	r1, [sp]
	movs	r0, #0
	strb.w	r0, [r1, #952]
	b	.LBB3_7
.Ltmp33:
.LBB3_7:
	.loc	6 0 3                           @ ../ThirdParty/STM32F4xx_HAL_Driver/Src/stm32f4xx_hal_pcd.c:0:3
	movs	r0, #0
	.loc	6 316 3 is_stmt 1               @ ../ThirdParty/STM32F4xx_HAL_Driver/Src/stm32f4xx_hal_pcd.c:316:3
	strb.w	r0, [sp, #7]
	b	.LBB3_8
.LBB3_8:
	.loc	6 317 1                         @ ../ThirdParty/STM32F4xx_HAL_Driver/Src/stm32f4xx_hal_pcd.c:317:1
	ldrb.w	r0, [sp, #7]
	.loc	6 317 1 epilogue_begin is_stmt 0 @ ../ThirdParty/STM32F4xx_HAL_Driver/Src/stm32f4xx_hal_pcd.c:317:1
	add	sp, #8
	pop	{r7, pc}
.Ltmp34:
.Lfunc_end3:
	.size	HAL_PCD_Stop, .Lfunc_end3-HAL_PCD_Stop
	.cfi_endproc
	.cantunwind
	.fnend
                                        @ -- End function
	.section	.text.HAL_PCD_MspDeInit,"ax",%progbits
	.hidden	HAL_PCD_MspDeInit               @ -- Begin function HAL_PCD_MspDeInit
	.weak	HAL_PCD_MspDeInit
	.p2align	2
	.type	HAL_PCD_MspDeInit,%function
	.code	16                              @ @HAL_PCD_MspDeInit
	.thumb_func
HAL_PCD_MspDeInit:
.Lfunc_begin4:
	.loc	6 263 0 is_stmt 1               @ ../ThirdParty/STM32F4xx_HAL_Driver/Src/stm32f4xx_hal_pcd.c:263:0
	.fnstart
	.cfi_startproc
@ %bb.0:
	.pad	#4
	sub	sp, #4
	.cfi_def_cfa_offset 4
	str	r0, [sp]
.Ltmp35:
	.loc	6 269 1 prologue_end epilogue_begin @ ../ThirdParty/STM32F4xx_HAL_Driver/Src/stm32f4xx_hal_pcd.c:269:1
	add	sp, #4
	bx	lr
.Ltmp36:
.Lfunc_end4:
	.size	HAL_PCD_MspDeInit, .Lfunc_end4-HAL_PCD_MspDeInit
	.cfi_endproc
	.cantunwind
	.fnend
                                        @ -- End function
	.section	.text.HAL_PCD_Start,"ax",%progbits
	.hidden	HAL_PCD_Start                   @ -- Begin function HAL_PCD_Start
	.globl	HAL_PCD_Start
	.p2align	2
	.type	HAL_PCD_Start,%function
	.code	16                              @ @HAL_PCD_Start
	.thumb_func
HAL_PCD_Start:
.Lfunc_begin5:
	.loc	6 296 0                         @ ../ThirdParty/STM32F4xx_HAL_Driver/Src/stm32f4xx_hal_pcd.c:296:0
	.fnstart
	.cfi_startproc
@ %bb.0:
	.save	{r7, lr}
	push	{r7, lr}
	.cfi_def_cfa_offset 8
	.cfi_offset lr, -4
	.cfi_offset r7, -8
	.pad	#8
	sub	sp, #8
	.cfi_def_cfa_offset 16
	str	r0, [sp]
.Ltmp37:
	.loc	6 297 3 prologue_end            @ ../ThirdParty/STM32F4xx_HAL_Driver/Src/stm32f4xx_hal_pcd.c:297:3
	b	.LBB5_1
.LBB5_1:
.Ltmp38:
	.loc	6 297 3 is_stmt 0               @ ../ThirdParty/STM32F4xx_HAL_Driver/Src/stm32f4xx_hal_pcd.c:297:3
	ldr	r0, [sp]
	ldrb.w	r0, [r0, #952]
.Ltmp39:
	.loc	6 297 3                         @ ../ThirdParty/STM32F4xx_HAL_Driver/Src/stm32f4xx_hal_pcd.c:297:3
	cmp	r0, #1
	bne	.LBB5_3
	b	.LBB5_2
.LBB5_2:
	.loc	6 0 3                           @ ../ThirdParty/STM32F4xx_HAL_Driver/Src/stm32f4xx_hal_pcd.c:0:3
	movs	r0, #2
.Ltmp40:
	.loc	6 297 3                         @ ../ThirdParty/STM32F4xx_HAL_Driver/Src/stm32f4xx_hal_pcd.c:297:3
	strb.w	r0, [sp, #7]
	b	.LBB5_8
.Ltmp41:
.LBB5_3:
	.loc	6 297 3                         @ ../ThirdParty/STM32F4xx_HAL_Driver/Src/stm32f4xx_hal_pcd.c:297:3
	ldr	r1, [sp]
	movs	r0, #1
	strb.w	r0, [r1, #952]
	b	.LBB5_4
.Ltmp42:
.LBB5_4:
	.loc	6 297 3                         @ ../ThirdParty/STM32F4xx_HAL_Driver/Src/stm32f4xx_hal_pcd.c:297:3
	b	.LBB5_5
.Ltmp43:
.LBB5_5:
	.loc	6 298 19 is_stmt 1              @ ../ThirdParty/STM32F4xx_HAL_Driver/Src/stm32f4xx_hal_pcd.c:298:19
	ldr	r0, [sp]
	.loc	6 298 25 is_stmt 0              @ ../ThirdParty/STM32F4xx_HAL_Driver/Src/stm32f4xx_hal_pcd.c:298:25
	ldr	r0, [r0]
	.loc	6 298 3                         @ ../ThirdParty/STM32F4xx_HAL_Driver/Src/stm32f4xx_hal_pcd.c:298:3
	bl	USB_DevConnect
	.loc	6 299 3 is_stmt 1               @ ../ThirdParty/STM32F4xx_HAL_Driver/Src/stm32f4xx_hal_pcd.c:299:3
	ldr	r0, [sp]
	ldr	r0, [r0]
	bl	USB_EnableGlobalInt
	.loc	6 300 3                         @ ../ThirdParty/STM32F4xx_HAL_Driver/Src/stm32f4xx_hal_pcd.c:300:3
	b	.LBB5_6
.LBB5_6:
.Ltmp44:
	.loc	6 300 3 is_stmt 0               @ ../ThirdParty/STM32F4xx_HAL_Driver/Src/stm32f4xx_hal_pcd.c:300:3
	ldr	r1, [sp]
	movs	r0, #0
	strb.w	r0, [r1, #952]
	b	.LBB5_7
.Ltmp45:
.LBB5_7:
	.loc	6 0 3                           @ ../ThirdParty/STM32F4xx_HAL_Driver/Src/stm32f4xx_hal_pcd.c:0:3
	movs	r0, #0
	.loc	6 301 3 is_stmt 1               @ ../ThirdParty/STM32F4xx_HAL_Driver/Src/stm32f4xx_hal_pcd.c:301:3
	strb.w	r0, [sp, #7]
	b	.LBB5_8
.LBB5_8:
	.loc	6 302 1                         @ ../ThirdParty/STM32F4xx_HAL_Driver/Src/stm32f4xx_hal_pcd.c:302:1
	ldrb.w	r0, [sp, #7]
	.loc	6 302 1 epilogue_begin is_stmt 0 @ ../ThirdParty/STM32F4xx_HAL_Driver/Src/stm32f4xx_hal_pcd.c:302:1
	add	sp, #8
	pop	{r7, pc}
.Ltmp46:
.Lfunc_end5:
	.size	HAL_PCD_Start, .Lfunc_end5-HAL_PCD_Start
	.cfi_endproc
	.cantunwind
	.fnend
                                        @ -- End function
	.section	.text.HAL_PCD_IRQHandler,"ax",%progbits
	.hidden	HAL_PCD_IRQHandler              @ -- Begin function HAL_PCD_IRQHandler
	.globl	HAL_PCD_IRQHandler
	.p2align	2
	.type	HAL_PCD_IRQHandler,%function
	.code	16                              @ @HAL_PCD_IRQHandler
	.thumb_func
HAL_PCD_IRQHandler:
.Lfunc_begin6:
	.loc	6 325 0 is_stmt 1               @ ../ThirdParty/STM32F4xx_HAL_Driver/Src/stm32f4xx_hal_pcd.c:325:0
	.fnstart
	.cfi_startproc
@ %bb.0:
	.save	{r7, lr}
	push	{r7, lr}
	.cfi_def_cfa_offset 8
	.cfi_offset lr, -4
	.cfi_offset r7, -8
	.pad	#40
	sub	sp, #40
	.cfi_def_cfa_offset 48
	str	r0, [sp, #36]
.Ltmp47:
	.loc	6 326 33 prologue_end           @ ../ThirdParty/STM32F4xx_HAL_Driver/Src/stm32f4xx_hal_pcd.c:326:33
	ldr	r0, [sp, #36]
	.loc	6 326 39 is_stmt 0              @ ../ThirdParty/STM32F4xx_HAL_Driver/Src/stm32f4xx_hal_pcd.c:326:39
	ldr	r0, [r0]
	.loc	6 326 26                        @ ../ThirdParty/STM32F4xx_HAL_Driver/Src/stm32f4xx_hal_pcd.c:326:26
	str	r0, [sp, #32]
	movs	r0, #0
	.loc	6 327 12 is_stmt 1              @ ../ThirdParty/STM32F4xx_HAL_Driver/Src/stm32f4xx_hal_pcd.c:327:12
	str	r0, [sp, #28]
	.loc	6 327 20 is_stmt 0              @ ../ThirdParty/STM32F4xx_HAL_Driver/Src/stm32f4xx_hal_pcd.c:327:20
	str	r0, [sp, #24]
	.loc	6 327 34                        @ ../ThirdParty/STM32F4xx_HAL_Driver/Src/stm32f4xx_hal_pcd.c:327:34
	str	r0, [sp, #20]
	.loc	6 327 46                        @ ../ThirdParty/STM32F4xx_HAL_Driver/Src/stm32f4xx_hal_pcd.c:327:46
	str	r0, [sp, #16]
	.loc	6 328 12 is_stmt 1              @ ../ThirdParty/STM32F4xx_HAL_Driver/Src/stm32f4xx_hal_pcd.c:328:12
	str	r0, [sp, #12]
	.loc	6 328 31 is_stmt 0              @ ../ThirdParty/STM32F4xx_HAL_Driver/Src/stm32f4xx_hal_pcd.c:328:31
	str	r0, [sp, #8]
	movw	r0, #38144
	movt	r0, #2746
	.loc	6 330 12 is_stmt 1              @ ../ThirdParty/STM32F4xx_HAL_Driver/Src/stm32f4xx_hal_pcd.c:330:12
	str	r0, [sp]
.Ltmp48:
	.loc	6 333 19                        @ ../ThirdParty/STM32F4xx_HAL_Driver/Src/stm32f4xx_hal_pcd.c:333:19
	ldr	r0, [sp, #36]
	.loc	6 333 25 is_stmt 0              @ ../ThirdParty/STM32F4xx_HAL_Driver/Src/stm32f4xx_hal_pcd.c:333:25
	ldr	r0, [r0]
	.loc	6 333 7                         @ ../ThirdParty/STM32F4xx_HAL_Driver/Src/stm32f4xx_hal_pcd.c:333:7
	bl	USB_GetMode
.Ltmp49:
	.loc	6 333 7                         @ ../ThirdParty/STM32F4xx_HAL_Driver/Src/stm32f4xx_hal_pcd.c:333:7
	cmp	r0, #0
	bne.w	.LBB6_129
	b	.LBB6_1
.LBB6_1:
.Ltmp50:
	.loc	6 336 8 is_stmt 1               @ ../ThirdParty/STM32F4xx_HAL_Driver/Src/stm32f4xx_hal_pcd.c:336:8
	ldr	r0, [sp, #36]
	ldr	r0, [r0]
	bl	USB_ReadInterrupts
.Ltmp51:
	.loc	6 336 8 is_stmt 0               @ ../ThirdParty/STM32F4xx_HAL_Driver/Src/stm32f4xx_hal_pcd.c:336:8
	cbnz	r0, .LBB6_3
	b	.LBB6_2
.LBB6_2:
.Ltmp52:
	.loc	6 338 7 is_stmt 1               @ ../ThirdParty/STM32F4xx_HAL_Driver/Src/stm32f4xx_hal_pcd.c:338:7
	b	.LBB6_129
.Ltmp53:
.LBB6_3:
	.loc	6 341 8                         @ ../ThirdParty/STM32F4xx_HAL_Driver/Src/stm32f4xx_hal_pcd.c:341:8
	ldr	r0, [sp, #36]
	ldr	r0, [r0]
	bl	USB_ReadInterrupts
.Ltmp54:
	.loc	6 341 8 is_stmt 0               @ ../ThirdParty/STM32F4xx_HAL_Driver/Src/stm32f4xx_hal_pcd.c:341:8
	lsls	r0, r0, #30
	cmp	r0, #0
	bpl	.LBB6_5
	b	.LBB6_4
.LBB6_4:
.Ltmp55:
	.loc	6 344 7 is_stmt 1               @ ../ThirdParty/STM32F4xx_HAL_Driver/Src/stm32f4xx_hal_pcd.c:344:7
	ldr	r0, [sp, #36]
	ldr	r1, [r0]
	ldr	r0, [r1, #20]
	and	r0, r0, #2
	str	r0, [r1, #20]
	.loc	6 345 5                         @ ../ThirdParty/STM32F4xx_HAL_Driver/Src/stm32f4xx_hal_pcd.c:345:5
	b	.LBB6_5
.Ltmp56:
.LBB6_5:
	.loc	6 347 8                         @ ../ThirdParty/STM32F4xx_HAL_Driver/Src/stm32f4xx_hal_pcd.c:347:8
	ldr	r0, [sp, #36]
	ldr	r0, [r0]
	bl	USB_ReadInterrupts
.Ltmp57:
	.loc	6 347 8 is_stmt 0               @ ../ThirdParty/STM32F4xx_HAL_Driver/Src/stm32f4xx_hal_pcd.c:347:8
	lsls	r0, r0, #12
	cmp	r0, #0
	bpl.w	.LBB6_25
	b	.LBB6_6
.LBB6_6:
	.loc	6 0 8                           @ ../ThirdParty/STM32F4xx_HAL_Driver/Src/stm32f4xx_hal_pcd.c:0:8
	movs	r0, #0
.Ltmp58:
	.loc	6 349 13 is_stmt 1              @ ../ThirdParty/STM32F4xx_HAL_Driver/Src/stm32f4xx_hal_pcd.c:349:13
	str	r0, [sp, #16]
	.loc	6 352 46                        @ ../ThirdParty/STM32F4xx_HAL_Driver/Src/stm32f4xx_hal_pcd.c:352:46
	ldr	r0, [sp, #36]
	.loc	6 352 52 is_stmt 0              @ ../ThirdParty/STM32F4xx_HAL_Driver/Src/stm32f4xx_hal_pcd.c:352:52
	ldr	r0, [r0]
	.loc	6 352 17                        @ ../ThirdParty/STM32F4xx_HAL_Driver/Src/stm32f4xx_hal_pcd.c:352:17
	bl	USB_ReadDevAllOutEpInterrupt
	.loc	6 352 15                        @ ../ThirdParty/STM32F4xx_HAL_Driver/Src/stm32f4xx_hal_pcd.c:352:15
	str	r0, [sp, #24]
	.loc	6 354 7 is_stmt 1               @ ../ThirdParty/STM32F4xx_HAL_Driver/Src/stm32f4xx_hal_pcd.c:354:7
	b	.LBB6_7
.LBB6_7:                                @ =>This Inner Loop Header: Depth=1
	.loc	6 354 15 is_stmt 0              @ ../ThirdParty/STM32F4xx_HAL_Driver/Src/stm32f4xx_hal_pcd.c:354:15
	ldr	r0, [sp, #24]
	.loc	6 354 7                         @ ../ThirdParty/STM32F4xx_HAL_Driver/Src/stm32f4xx_hal_pcd.c:354:7
	cmp	r0, #0
	beq.w	.LBB6_24
	b	.LBB6_8
.LBB6_8:                                @   in Loop: Header=BB6_7 Depth=1
.Ltmp59:
	.loc	6 356 13 is_stmt 1              @ ../ThirdParty/STM32F4xx_HAL_Driver/Src/stm32f4xx_hal_pcd.c:356:13
	ldrb.w	r0, [sp, #24]
	lsls	r0, r0, #31
	cmp	r0, #0
	beq.w	.LBB6_23
	b	.LBB6_9
.LBB6_9:                                @   in Loop: Header=BB6_7 Depth=1
.Ltmp60:
	.loc	6 358 45                        @ ../ThirdParty/STM32F4xx_HAL_Driver/Src/stm32f4xx_hal_pcd.c:358:45
	ldr	r0, [sp, #36]
	.loc	6 358 51 is_stmt 0              @ ../ThirdParty/STM32F4xx_HAL_Driver/Src/stm32f4xx_hal_pcd.c:358:51
	ldr	r0, [r0]
	.loc	6 358 61                        @ ../ThirdParty/STM32F4xx_HAL_Driver/Src/stm32f4xx_hal_pcd.c:358:61
	ldrb.w	r1, [sp, #16]
	.loc	6 358 19                        @ ../ThirdParty/STM32F4xx_HAL_Driver/Src/stm32f4xx_hal_pcd.c:358:19
	bl	USB_ReadDevOutEPInterrupt
	.loc	6 358 17                        @ ../ThirdParty/STM32F4xx_HAL_Driver/Src/stm32f4xx_hal_pcd.c:358:17
	str	r0, [sp, #20]
	.loc	6 360 14 is_stmt 1              @ ../ThirdParty/STM32F4xx_HAL_Driver/Src/stm32f4xx_hal_pcd.c:360:14
	ldrb.w	r0, [sp, #20]
	lsls	r0, r0, #31
	cmp	r0, #0
	beq	.LBB6_18
	b	.LBB6_10
.LBB6_10:                               @   in Loop: Header=BB6_7 Depth=1
.Ltmp61:
	.loc	6 362 13                        @ ../ThirdParty/STM32F4xx_HAL_Driver/Src/stm32f4xx_hal_pcd.c:362:13
	ldr	r0, [sp, #32]
	ldr	r1, [sp, #16]
	add.w	r1, r0, r1, lsl #5
	movs	r0, #1
	str.w	r0, [r1, #2824]
.Ltmp62:
	.loc	6 364 16                        @ ../ThirdParty/STM32F4xx_HAL_Driver/Src/stm32f4xx_hal_pcd.c:364:16
	ldr	r0, [sp, #36]
	.loc	6 364 27 is_stmt 0              @ ../ThirdParty/STM32F4xx_HAL_Driver/Src/stm32f4xx_hal_pcd.c:364:27
	ldr	r0, [r0, #16]
.Ltmp63:
	.loc	6 364 16                        @ ../ThirdParty/STM32F4xx_HAL_Driver/Src/stm32f4xx_hal_pcd.c:364:16
	cmp	r0, #1
	bne	.LBB6_12
	b	.LBB6_11
.LBB6_11:                               @   in Loop: Header=BB6_7 Depth=1
.Ltmp64:
	.loc	6 366 48 is_stmt 1              @ ../ThirdParty/STM32F4xx_HAL_Driver/Src/stm32f4xx_hal_pcd.c:366:48
	ldr	r0, [sp, #36]
	.loc	6 366 61 is_stmt 0              @ ../ThirdParty/STM32F4xx_HAL_Driver/Src/stm32f4xx_hal_pcd.c:366:61
	ldr	r2, [sp, #16]
	.loc	6 366 48                        @ ../ThirdParty/STM32F4xx_HAL_Driver/Src/stm32f4xx_hal_pcd.c:366:48
	rsb	r1, r2, r2, lsl #3
	.loc	6 366 54                        @ ../ThirdParty/STM32F4xx_HAL_Driver/Src/stm32f4xx_hal_pcd.c:366:54
	add.w	r0, r0, r1, lsl #2
	.loc	6 366 68                        @ ../ThirdParty/STM32F4xx_HAL_Driver/Src/stm32f4xx_hal_pcd.c:366:68
	ldr.w	r0, [r0, #512]
	.loc	6 366 80                        @ ../ThirdParty/STM32F4xx_HAL_Driver/Src/stm32f4xx_hal_pcd.c:366:80
	ldr	r1, [sp, #32]
	add.w	r1, r1, r2, lsl #5
	.loc	6 366 99                        @ ../ThirdParty/STM32F4xx_HAL_Driver/Src/stm32f4xx_hal_pcd.c:366:99
	ldr.w	r1, [r1, #2832]
	.loc	6 366 108                       @ ../ThirdParty/STM32F4xx_HAL_Driver/Src/stm32f4xx_hal_pcd.c:366:108
	bfc	r1, #19, #13
	.loc	6 366 77                        @ ../ThirdParty/STM32F4xx_HAL_Driver/Src/stm32f4xx_hal_pcd.c:366:77
	subs	r0, r0, r1
	.loc	6 366 15                        @ ../ThirdParty/STM32F4xx_HAL_Driver/Src/stm32f4xx_hal_pcd.c:366:15
	ldr	r1, [sp, #36]
	.loc	6 366 28                        @ ../ThirdParty/STM32F4xx_HAL_Driver/Src/stm32f4xx_hal_pcd.c:366:28
	ldr	r2, [sp, #16]
	.loc	6 366 15                        @ ../ThirdParty/STM32F4xx_HAL_Driver/Src/stm32f4xx_hal_pcd.c:366:15
	rsb	r2, r2, r2, lsl #3
	.loc	6 366 21                        @ ../ThirdParty/STM32F4xx_HAL_Driver/Src/stm32f4xx_hal_pcd.c:366:21
	add.w	r1, r1, r2, lsl #2
	.loc	6 366 46                        @ ../ThirdParty/STM32F4xx_HAL_Driver/Src/stm32f4xx_hal_pcd.c:366:46
	str.w	r0, [r1, #528]
	.loc	6 367 48 is_stmt 1              @ ../ThirdParty/STM32F4xx_HAL_Driver/Src/stm32f4xx_hal_pcd.c:367:48
	ldr	r0, [sp, #36]
	.loc	6 367 61 is_stmt 0              @ ../ThirdParty/STM32F4xx_HAL_Driver/Src/stm32f4xx_hal_pcd.c:367:61
	ldr	r1, [sp, #16]
	.loc	6 367 48                        @ ../ThirdParty/STM32F4xx_HAL_Driver/Src/stm32f4xx_hal_pcd.c:367:48
	rsb	r1, r1, r1, lsl #3
	.loc	6 367 54                        @ ../ThirdParty/STM32F4xx_HAL_Driver/Src/stm32f4xx_hal_pcd.c:367:54
	add.w	r1, r0, r1, lsl #2
	.loc	6 367 68                        @ ../ThirdParty/STM32F4xx_HAL_Driver/Src/stm32f4xx_hal_pcd.c:367:68
	ldr.w	r2, [r1, #512]
	.loc	6 367 45                        @ ../ThirdParty/STM32F4xx_HAL_Driver/Src/stm32f4xx_hal_pcd.c:367:45
	ldr.w	r0, [r1, #516]
	add	r0, r2
	str.w	r0, [r1, #516]
	.loc	6 368 13 is_stmt 1              @ ../ThirdParty/STM32F4xx_HAL_Driver/Src/stm32f4xx_hal_pcd.c:368:13
	b	.LBB6_12
.Ltmp65:
.LBB6_12:                               @   in Loop: Header=BB6_7 Depth=1
	.loc	6 370 42                        @ ../ThirdParty/STM32F4xx_HAL_Driver/Src/stm32f4xx_hal_pcd.c:370:42
	ldr	r0, [sp, #36]
	.loc	6 370 48 is_stmt 0              @ ../ThirdParty/STM32F4xx_HAL_Driver/Src/stm32f4xx_hal_pcd.c:370:48
	ldrb.w	r1, [sp, #16]
	.loc	6 370 13                        @ ../ThirdParty/STM32F4xx_HAL_Driver/Src/stm32f4xx_hal_pcd.c:370:13
	bl	HAL_PCD_DataOutStageCallback
.Ltmp66:
	.loc	6 371 16 is_stmt 1              @ ../ThirdParty/STM32F4xx_HAL_Driver/Src/stm32f4xx_hal_pcd.c:371:16
	ldr	r0, [sp, #36]
	.loc	6 371 27 is_stmt 0              @ ../ThirdParty/STM32F4xx_HAL_Driver/Src/stm32f4xx_hal_pcd.c:371:27
	ldr	r0, [r0, #16]
.Ltmp67:
	.loc	6 371 16                        @ ../ThirdParty/STM32F4xx_HAL_Driver/Src/stm32f4xx_hal_pcd.c:371:16
	cmp	r0, #1
	bne	.LBB6_17
	b	.LBB6_13
.LBB6_13:                               @   in Loop: Header=BB6_7 Depth=1
.Ltmp68:
	.loc	6 373 19 is_stmt 1              @ ../ThirdParty/STM32F4xx_HAL_Driver/Src/stm32f4xx_hal_pcd.c:373:19
	ldr	r0, [sp, #16]
	.loc	6 373 32 is_stmt 0              @ ../ThirdParty/STM32F4xx_HAL_Driver/Src/stm32f4xx_hal_pcd.c:373:32
	cbnz	r0, .LBB6_16
	b	.LBB6_14
.LBB6_14:                               @   in Loop: Header=BB6_7 Depth=1
	.loc	6 373 36                        @ ../ThirdParty/STM32F4xx_HAL_Driver/Src/stm32f4xx_hal_pcd.c:373:36
	ldr	r0, [sp, #36]
	.loc	6 373 49                        @ ../ThirdParty/STM32F4xx_HAL_Driver/Src/stm32f4xx_hal_pcd.c:373:49
	ldr	r1, [sp, #16]
	.loc	6 373 36                        @ ../ThirdParty/STM32F4xx_HAL_Driver/Src/stm32f4xx_hal_pcd.c:373:36
	rsb	r1, r1, r1, lsl #3
	.loc	6 373 42                        @ ../ThirdParty/STM32F4xx_HAL_Driver/Src/stm32f4xx_hal_pcd.c:373:42
	add.w	r0, r0, r1, lsl #2
	.loc	6 373 56                        @ ../ThirdParty/STM32F4xx_HAL_Driver/Src/stm32f4xx_hal_pcd.c:373:56
	ldr.w	r0, [r0, #524]
.Ltmp69:
	.loc	6 373 18                        @ ../ThirdParty/STM32F4xx_HAL_Driver/Src/stm32f4xx_hal_pcd.c:373:18
	cbnz	r0, .LBB6_16
	b	.LBB6_15
.LBB6_15:                               @   in Loop: Header=BB6_7 Depth=1
.Ltmp70:
	.loc	6 376 34 is_stmt 1              @ ../ThirdParty/STM32F4xx_HAL_Driver/Src/stm32f4xx_hal_pcd.c:376:34
	ldr	r1, [sp, #36]
	.loc	6 376 40 is_stmt 0              @ ../ThirdParty/STM32F4xx_HAL_Driver/Src/stm32f4xx_hal_pcd.c:376:40
	ldr	r0, [r1]
	.loc	6 376 71                        @ ../ThirdParty/STM32F4xx_HAL_Driver/Src/stm32f4xx_hal_pcd.c:376:71
	add.w	r2, r1, #956
	movs	r1, #1
	.loc	6 376 17                        @ ../ThirdParty/STM32F4xx_HAL_Driver/Src/stm32f4xx_hal_pcd.c:376:17
	bl	USB_EP0_OutStart
	.loc	6 377 15 is_stmt 1              @ ../ThirdParty/STM32F4xx_HAL_Driver/Src/stm32f4xx_hal_pcd.c:377:15
	b	.LBB6_16
.Ltmp71:
.LBB6_16:                               @   in Loop: Header=BB6_7 Depth=1
	.loc	6 378 13                        @ ../ThirdParty/STM32F4xx_HAL_Driver/Src/stm32f4xx_hal_pcd.c:378:13
	b	.LBB6_17
.Ltmp72:
.LBB6_17:                               @   in Loop: Header=BB6_7 Depth=1
	.loc	6 379 11                        @ ../ThirdParty/STM32F4xx_HAL_Driver/Src/stm32f4xx_hal_pcd.c:379:11
	b	.LBB6_18
.Ltmp73:
.LBB6_18:                               @   in Loop: Header=BB6_7 Depth=1
	.loc	6 381 14                        @ ../ThirdParty/STM32F4xx_HAL_Driver/Src/stm32f4xx_hal_pcd.c:381:14
	ldrb.w	r0, [sp, #20]
	lsls	r0, r0, #28
	cmp	r0, #0
	bpl	.LBB6_20
	b	.LBB6_19
.LBB6_19:                               @   in Loop: Header=BB6_7 Depth=1
.Ltmp74:
	.loc	6 384 40                        @ ../ThirdParty/STM32F4xx_HAL_Driver/Src/stm32f4xx_hal_pcd.c:384:40
	ldr	r0, [sp, #36]
	.loc	6 384 13 is_stmt 0              @ ../ThirdParty/STM32F4xx_HAL_Driver/Src/stm32f4xx_hal_pcd.c:384:13
	bl	HAL_PCD_SetupStageCallback
	.loc	6 385 13 is_stmt 1              @ ../ThirdParty/STM32F4xx_HAL_Driver/Src/stm32f4xx_hal_pcd.c:385:13
	ldr	r0, [sp, #32]
	ldr	r1, [sp, #16]
	add.w	r1, r0, r1, lsl #5
	movs	r0, #8
	str.w	r0, [r1, #2824]
	.loc	6 386 11                        @ ../ThirdParty/STM32F4xx_HAL_Driver/Src/stm32f4xx_hal_pcd.c:386:11
	b	.LBB6_20
.Ltmp75:
.LBB6_20:                               @   in Loop: Header=BB6_7 Depth=1
	.loc	6 388 14                        @ ../ThirdParty/STM32F4xx_HAL_Driver/Src/stm32f4xx_hal_pcd.c:388:14
	ldrb.w	r0, [sp, #20]
	lsls	r0, r0, #27
	cmp	r0, #0
	bpl	.LBB6_22
	b	.LBB6_21
.LBB6_21:                               @   in Loop: Header=BB6_7 Depth=1
.Ltmp76:
	.loc	6 390 13                        @ ../ThirdParty/STM32F4xx_HAL_Driver/Src/stm32f4xx_hal_pcd.c:390:13
	ldr	r0, [sp, #32]
	ldr	r1, [sp, #16]
	add.w	r1, r0, r1, lsl #5
	movs	r0, #16
	str.w	r0, [r1, #2824]
	.loc	6 391 11                        @ ../ThirdParty/STM32F4xx_HAL_Driver/Src/stm32f4xx_hal_pcd.c:391:11
	b	.LBB6_22
.Ltmp77:
.LBB6_22:                               @   in Loop: Header=BB6_7 Depth=1
	.loc	6 400 9                         @ ../ThirdParty/STM32F4xx_HAL_Driver/Src/stm32f4xx_hal_pcd.c:400:9
	b	.LBB6_23
.Ltmp78:
.LBB6_23:                               @   in Loop: Header=BB6_7 Depth=1
	.loc	6 401 14                        @ ../ThirdParty/STM32F4xx_HAL_Driver/Src/stm32f4xx_hal_pcd.c:401:14
	ldr	r0, [sp, #16]
	adds	r0, #1
	str	r0, [sp, #16]
	.loc	6 402 17                        @ ../ThirdParty/STM32F4xx_HAL_Driver/Src/stm32f4xx_hal_pcd.c:402:17
	ldr	r0, [sp, #24]
	lsrs	r0, r0, #1
	str	r0, [sp, #24]
.Ltmp79:
	.loc	6 354 7                         @ ../ThirdParty/STM32F4xx_HAL_Driver/Src/stm32f4xx_hal_pcd.c:354:7
	b	.LBB6_7
.LBB6_24:
	.loc	6 404 5                         @ ../ThirdParty/STM32F4xx_HAL_Driver/Src/stm32f4xx_hal_pcd.c:404:5
	b	.LBB6_25
.Ltmp80:
.LBB6_25:
	.loc	6 406 8                         @ ../ThirdParty/STM32F4xx_HAL_Driver/Src/stm32f4xx_hal_pcd.c:406:8
	ldr	r0, [sp, #36]
	ldr	r0, [r0]
	bl	USB_ReadInterrupts
.Ltmp81:
	.loc	6 406 8 is_stmt 0               @ ../ThirdParty/STM32F4xx_HAL_Driver/Src/stm32f4xx_hal_pcd.c:406:8
	lsls	r0, r0, #13
	cmp	r0, #0
	bpl.w	.LBB6_51
	b	.LBB6_26
.LBB6_26:
.Ltmp82:
	.loc	6 409 45 is_stmt 1              @ ../ThirdParty/STM32F4xx_HAL_Driver/Src/stm32f4xx_hal_pcd.c:409:45
	ldr	r0, [sp, #36]
	.loc	6 409 51 is_stmt 0              @ ../ThirdParty/STM32F4xx_HAL_Driver/Src/stm32f4xx_hal_pcd.c:409:51
	ldr	r0, [r0]
	.loc	6 409 17                        @ ../ThirdParty/STM32F4xx_HAL_Driver/Src/stm32f4xx_hal_pcd.c:409:17
	bl	USB_ReadDevAllInEpInterrupt
	.loc	6 409 15                        @ ../ThirdParty/STM32F4xx_HAL_Driver/Src/stm32f4xx_hal_pcd.c:409:15
	str	r0, [sp, #24]
	movs	r0, #0
	.loc	6 411 13 is_stmt 1              @ ../ThirdParty/STM32F4xx_HAL_Driver/Src/stm32f4xx_hal_pcd.c:411:13
	str	r0, [sp, #16]
	.loc	6 413 7                         @ ../ThirdParty/STM32F4xx_HAL_Driver/Src/stm32f4xx_hal_pcd.c:413:7
	b	.LBB6_27
.LBB6_27:                               @ =>This Inner Loop Header: Depth=1
	.loc	6 413 15 is_stmt 0              @ ../ThirdParty/STM32F4xx_HAL_Driver/Src/stm32f4xx_hal_pcd.c:413:15
	ldr	r0, [sp, #24]
	.loc	6 413 7                         @ ../ThirdParty/STM32F4xx_HAL_Driver/Src/stm32f4xx_hal_pcd.c:413:7
	cmp	r0, #0
	beq.w	.LBB6_50
	b	.LBB6_28
.LBB6_28:                               @   in Loop: Header=BB6_27 Depth=1
.Ltmp83:
	.loc	6 415 13 is_stmt 1              @ ../ThirdParty/STM32F4xx_HAL_Driver/Src/stm32f4xx_hal_pcd.c:415:13
	ldrb.w	r0, [sp, #24]
	lsls	r0, r0, #31
	cmp	r0, #0
	beq.w	.LBB6_49
	b	.LBB6_29
.LBB6_29:                               @   in Loop: Header=BB6_27 Depth=1
.Ltmp84:
	.loc	6 417 44                        @ ../ThirdParty/STM32F4xx_HAL_Driver/Src/stm32f4xx_hal_pcd.c:417:44
	ldr	r0, [sp, #36]
	.loc	6 417 50 is_stmt 0              @ ../ThirdParty/STM32F4xx_HAL_Driver/Src/stm32f4xx_hal_pcd.c:417:50
	ldr	r0, [r0]
	.loc	6 417 60                        @ ../ThirdParty/STM32F4xx_HAL_Driver/Src/stm32f4xx_hal_pcd.c:417:60
	ldrb.w	r1, [sp, #16]
	.loc	6 417 19                        @ ../ThirdParty/STM32F4xx_HAL_Driver/Src/stm32f4xx_hal_pcd.c:417:19
	bl	USB_ReadDevInEPInterrupt
	.loc	6 417 17                        @ ../ThirdParty/STM32F4xx_HAL_Driver/Src/stm32f4xx_hal_pcd.c:417:17
	str	r0, [sp, #20]
	.loc	6 419 15 is_stmt 1              @ ../ThirdParty/STM32F4xx_HAL_Driver/Src/stm32f4xx_hal_pcd.c:419:15
	ldrb.w	r0, [sp, #20]
	lsls	r0, r0, #31
	cmp	r0, #0
	beq	.LBB6_38
	b	.LBB6_30
.LBB6_30:                               @   in Loop: Header=BB6_27 Depth=1
.Ltmp85:
	.loc	6 421 36                        @ ../ThirdParty/STM32F4xx_HAL_Driver/Src/stm32f4xx_hal_pcd.c:421:36
	ldr	r1, [sp, #16]
	movs	r0, #1
	.loc	6 421 33 is_stmt 0              @ ../ThirdParty/STM32F4xx_HAL_Driver/Src/stm32f4xx_hal_pcd.c:421:33
	lsl.w	r1, r0, r1
	.loc	6 421 26                        @ ../ThirdParty/STM32F4xx_HAL_Driver/Src/stm32f4xx_hal_pcd.c:421:26
	str	r1, [sp, #12]
	.loc	6 422 41 is_stmt 1              @ ../ThirdParty/STM32F4xx_HAL_Driver/Src/stm32f4xx_hal_pcd.c:422:41
	ldr	r3, [sp, #12]
	.loc	6 422 13 is_stmt 0              @ ../ThirdParty/STM32F4xx_HAL_Driver/Src/stm32f4xx_hal_pcd.c:422:13
	ldr	r2, [sp, #32]
	.loc	6 422 37                        @ ../ThirdParty/STM32F4xx_HAL_Driver/Src/stm32f4xx_hal_pcd.c:422:37
	ldr.w	r1, [r2, #2100]
	bics	r1, r3
	str.w	r1, [r2, #2100]
	.loc	6 424 13 is_stmt 1              @ ../ThirdParty/STM32F4xx_HAL_Driver/Src/stm32f4xx_hal_pcd.c:424:13
	ldr	r1, [sp, #32]
	ldr	r2, [sp, #16]
	add.w	r1, r1, r2, lsl #5
	str.w	r0, [r1, #2312]
.Ltmp86:
	.loc	6 426 17                        @ ../ThirdParty/STM32F4xx_HAL_Driver/Src/stm32f4xx_hal_pcd.c:426:17
	ldr	r0, [sp, #36]
	.loc	6 426 28 is_stmt 0              @ ../ThirdParty/STM32F4xx_HAL_Driver/Src/stm32f4xx_hal_pcd.c:426:28
	ldr	r0, [r0, #16]
.Ltmp87:
	.loc	6 426 17                        @ ../ThirdParty/STM32F4xx_HAL_Driver/Src/stm32f4xx_hal_pcd.c:426:17
	cmp	r0, #1
	bne	.LBB6_32
	b	.LBB6_31
.LBB6_31:                               @   in Loop: Header=BB6_27 Depth=1
.Ltmp88:
	.loc	6 428 47 is_stmt 1              @ ../ThirdParty/STM32F4xx_HAL_Driver/Src/stm32f4xx_hal_pcd.c:428:47
	ldr	r0, [sp, #36]
	.loc	6 428 59 is_stmt 0              @ ../ThirdParty/STM32F4xx_HAL_Driver/Src/stm32f4xx_hal_pcd.c:428:59
	ldr	r1, [sp, #16]
	.loc	6 428 47                        @ ../ThirdParty/STM32F4xx_HAL_Driver/Src/stm32f4xx_hal_pcd.c:428:47
	rsb	r1, r1, r1, lsl #3
	.loc	6 428 53                        @ ../ThirdParty/STM32F4xx_HAL_Driver/Src/stm32f4xx_hal_pcd.c:428:53
	add.w	r1, r0, r1, lsl #2
	.loc	6 428 66                        @ ../ThirdParty/STM32F4xx_HAL_Driver/Src/stm32f4xx_hal_pcd.c:428:66
	ldr	r2, [r1, #64]
	.loc	6 428 44                        @ ../ThirdParty/STM32F4xx_HAL_Driver/Src/stm32f4xx_hal_pcd.c:428:44
	ldr	r0, [r1, #68]
	add	r0, r2
	str	r0, [r1, #68]
	.loc	6 429 13 is_stmt 1              @ ../ThirdParty/STM32F4xx_HAL_Driver/Src/stm32f4xx_hal_pcd.c:429:13
	b	.LBB6_32
.Ltmp89:
.LBB6_32:                               @   in Loop: Header=BB6_27 Depth=1
	.loc	6 431 41                        @ ../ThirdParty/STM32F4xx_HAL_Driver/Src/stm32f4xx_hal_pcd.c:431:41
	ldr	r0, [sp, #36]
	.loc	6 431 47 is_stmt 0              @ ../ThirdParty/STM32F4xx_HAL_Driver/Src/stm32f4xx_hal_pcd.c:431:47
	ldrb.w	r1, [sp, #16]
	.loc	6 431 13                        @ ../ThirdParty/STM32F4xx_HAL_Driver/Src/stm32f4xx_hal_pcd.c:431:13
	bl	HAL_PCD_DataInStageCallback
.Ltmp90:
	.loc	6 433 17 is_stmt 1              @ ../ThirdParty/STM32F4xx_HAL_Driver/Src/stm32f4xx_hal_pcd.c:433:17
	ldr	r0, [sp, #36]
	.loc	6 433 28 is_stmt 0              @ ../ThirdParty/STM32F4xx_HAL_Driver/Src/stm32f4xx_hal_pcd.c:433:28
	ldr	r0, [r0, #16]
.Ltmp91:
	.loc	6 433 17                        @ ../ThirdParty/STM32F4xx_HAL_Driver/Src/stm32f4xx_hal_pcd.c:433:17
	cmp	r0, #1
	bne	.LBB6_37
	b	.LBB6_33
.LBB6_33:                               @   in Loop: Header=BB6_27 Depth=1
.Ltmp92:
	.loc	6 436 19 is_stmt 1              @ ../ThirdParty/STM32F4xx_HAL_Driver/Src/stm32f4xx_hal_pcd.c:436:19
	ldr	r0, [sp, #16]
	.loc	6 436 32 is_stmt 0              @ ../ThirdParty/STM32F4xx_HAL_Driver/Src/stm32f4xx_hal_pcd.c:436:32
	cbnz	r0, .LBB6_36
	b	.LBB6_34
.LBB6_34:                               @   in Loop: Header=BB6_27 Depth=1
	.loc	6 436 36                        @ ../ThirdParty/STM32F4xx_HAL_Driver/Src/stm32f4xx_hal_pcd.c:436:36
	ldr	r0, [sp, #36]
	.loc	6 436 48                        @ ../ThirdParty/STM32F4xx_HAL_Driver/Src/stm32f4xx_hal_pcd.c:436:48
	ldr	r1, [sp, #16]
	.loc	6 436 36                        @ ../ThirdParty/STM32F4xx_HAL_Driver/Src/stm32f4xx_hal_pcd.c:436:36
	rsb	r1, r1, r1, lsl #3
	.loc	6 436 42                        @ ../ThirdParty/STM32F4xx_HAL_Driver/Src/stm32f4xx_hal_pcd.c:436:42
	add.w	r0, r0, r1, lsl #2
	.loc	6 436 55                        @ ../ThirdParty/STM32F4xx_HAL_Driver/Src/stm32f4xx_hal_pcd.c:436:55
	ldr	r0, [r0, #76]
.Ltmp93:
	.loc	6 436 18                        @ ../ThirdParty/STM32F4xx_HAL_Driver/Src/stm32f4xx_hal_pcd.c:436:18
	cbnz	r0, .LBB6_36
	b	.LBB6_35
.LBB6_35:                               @   in Loop: Header=BB6_27 Depth=1
.Ltmp94:
	.loc	6 439 34 is_stmt 1              @ ../ThirdParty/STM32F4xx_HAL_Driver/Src/stm32f4xx_hal_pcd.c:439:34
	ldr	r1, [sp, #36]
	.loc	6 439 40 is_stmt 0              @ ../ThirdParty/STM32F4xx_HAL_Driver/Src/stm32f4xx_hal_pcd.c:439:40
	ldr	r0, [r1]
	.loc	6 439 71                        @ ../ThirdParty/STM32F4xx_HAL_Driver/Src/stm32f4xx_hal_pcd.c:439:71
	add.w	r2, r1, #956
	movs	r1, #1
	.loc	6 439 17                        @ ../ThirdParty/STM32F4xx_HAL_Driver/Src/stm32f4xx_hal_pcd.c:439:17
	bl	USB_EP0_OutStart
	.loc	6 440 15 is_stmt 1              @ ../ThirdParty/STM32F4xx_HAL_Driver/Src/stm32f4xx_hal_pcd.c:440:15
	b	.LBB6_36
.Ltmp95:
.LBB6_36:                               @   in Loop: Header=BB6_27 Depth=1
	.loc	6 441 13                        @ ../ThirdParty/STM32F4xx_HAL_Driver/Src/stm32f4xx_hal_pcd.c:441:13
	b	.LBB6_37
.Ltmp96:
.LBB6_37:                               @   in Loop: Header=BB6_27 Depth=1
	.loc	6 442 11                        @ ../ThirdParty/STM32F4xx_HAL_Driver/Src/stm32f4xx_hal_pcd.c:442:11
	b	.LBB6_38
.Ltmp97:
.LBB6_38:                               @   in Loop: Header=BB6_27 Depth=1
	.loc	6 443 15                        @ ../ThirdParty/STM32F4xx_HAL_Driver/Src/stm32f4xx_hal_pcd.c:443:15
	ldrb.w	r0, [sp, #20]
	lsls	r0, r0, #28
	cmp	r0, #0
	bpl	.LBB6_40
	b	.LBB6_39
.LBB6_39:                               @   in Loop: Header=BB6_27 Depth=1
.Ltmp98:
	.loc	6 445 13                        @ ../ThirdParty/STM32F4xx_HAL_Driver/Src/stm32f4xx_hal_pcd.c:445:13
	ldr	r0, [sp, #32]
	ldr	r1, [sp, #16]
	add.w	r1, r0, r1, lsl #5
	movs	r0, #8
	str.w	r0, [r1, #2312]
	.loc	6 446 11                        @ ../ThirdParty/STM32F4xx_HAL_Driver/Src/stm32f4xx_hal_pcd.c:446:11
	b	.LBB6_40
.Ltmp99:
.LBB6_40:                               @   in Loop: Header=BB6_27 Depth=1
	.loc	6 447 14                        @ ../ThirdParty/STM32F4xx_HAL_Driver/Src/stm32f4xx_hal_pcd.c:447:14
	ldrb.w	r0, [sp, #20]
	lsls	r0, r0, #27
	cmp	r0, #0
	bpl	.LBB6_42
	b	.LBB6_41
.LBB6_41:                               @   in Loop: Header=BB6_27 Depth=1
.Ltmp100:
	.loc	6 449 13                        @ ../ThirdParty/STM32F4xx_HAL_Driver/Src/stm32f4xx_hal_pcd.c:449:13
	ldr	r0, [sp, #32]
	ldr	r1, [sp, #16]
	add.w	r1, r0, r1, lsl #5
	movs	r0, #16
	str.w	r0, [r1, #2312]
	.loc	6 450 11                        @ ../ThirdParty/STM32F4xx_HAL_Driver/Src/stm32f4xx_hal_pcd.c:450:11
	b	.LBB6_42
.Ltmp101:
.LBB6_42:                               @   in Loop: Header=BB6_27 Depth=1
	.loc	6 451 14                        @ ../ThirdParty/STM32F4xx_HAL_Driver/Src/stm32f4xx_hal_pcd.c:451:14
	ldrb.w	r0, [sp, #20]
	lsls	r0, r0, #25
	cmp	r0, #0
	bpl	.LBB6_44
	b	.LBB6_43
.LBB6_43:                               @   in Loop: Header=BB6_27 Depth=1
.Ltmp102:
	.loc	6 453 13                        @ ../ThirdParty/STM32F4xx_HAL_Driver/Src/stm32f4xx_hal_pcd.c:453:13
	ldr	r0, [sp, #32]
	ldr	r1, [sp, #16]
	add.w	r1, r0, r1, lsl #5
	movs	r0, #64
	str.w	r0, [r1, #2312]
	.loc	6 454 11                        @ ../ThirdParty/STM32F4xx_HAL_Driver/Src/stm32f4xx_hal_pcd.c:454:11
	b	.LBB6_44
.Ltmp103:
.LBB6_44:                               @   in Loop: Header=BB6_27 Depth=1
	.loc	6 455 14                        @ ../ThirdParty/STM32F4xx_HAL_Driver/Src/stm32f4xx_hal_pcd.c:455:14
	ldrb.w	r0, [sp, #20]
	lsls	r0, r0, #30
	cmp	r0, #0
	bpl	.LBB6_46
	b	.LBB6_45
.LBB6_45:                               @   in Loop: Header=BB6_27 Depth=1
.Ltmp104:
	.loc	6 457 13                        @ ../ThirdParty/STM32F4xx_HAL_Driver/Src/stm32f4xx_hal_pcd.c:457:13
	ldr	r0, [sp, #32]
	ldr	r1, [sp, #16]
	add.w	r1, r0, r1, lsl #5
	movs	r0, #2
	str.w	r0, [r1, #2312]
	.loc	6 458 11                        @ ../ThirdParty/STM32F4xx_HAL_Driver/Src/stm32f4xx_hal_pcd.c:458:11
	b	.LBB6_46
.Ltmp105:
.LBB6_46:                               @   in Loop: Header=BB6_27 Depth=1
	.loc	6 459 14                        @ ../ThirdParty/STM32F4xx_HAL_Driver/Src/stm32f4xx_hal_pcd.c:459:14
	ldrb.w	r0, [sp, #20]
	lsls	r0, r0, #24
	cmp	r0, #0
	bpl	.LBB6_48
	b	.LBB6_47
.LBB6_47:                               @   in Loop: Header=BB6_27 Depth=1
.Ltmp106:
	.loc	6 461 34                        @ ../ThirdParty/STM32F4xx_HAL_Driver/Src/stm32f4xx_hal_pcd.c:461:34
	ldr	r0, [sp, #36]
	.loc	6 461 41 is_stmt 0              @ ../ThirdParty/STM32F4xx_HAL_Driver/Src/stm32f4xx_hal_pcd.c:461:41
	ldr	r1, [sp, #16]
	.loc	6 461 13                        @ ../ThirdParty/STM32F4xx_HAL_Driver/Src/stm32f4xx_hal_pcd.c:461:13
	bl	PCD_WriteEmptyTxFifo
	.loc	6 462 11 is_stmt 1              @ ../ThirdParty/STM32F4xx_HAL_Driver/Src/stm32f4xx_hal_pcd.c:462:11
	b	.LBB6_48
.Ltmp107:
.LBB6_48:                               @   in Loop: Header=BB6_27 Depth=1
	.loc	6 463 9                         @ ../ThirdParty/STM32F4xx_HAL_Driver/Src/stm32f4xx_hal_pcd.c:463:9
	b	.LBB6_49
.Ltmp108:
.LBB6_49:                               @   in Loop: Header=BB6_27 Depth=1
	.loc	6 464 14                        @ ../ThirdParty/STM32F4xx_HAL_Driver/Src/stm32f4xx_hal_pcd.c:464:14
	ldr	r0, [sp, #16]
	adds	r0, #1
	str	r0, [sp, #16]
	.loc	6 465 17                        @ ../ThirdParty/STM32F4xx_HAL_Driver/Src/stm32f4xx_hal_pcd.c:465:17
	ldr	r0, [sp, #24]
	lsrs	r0, r0, #1
	str	r0, [sp, #24]
.Ltmp109:
	.loc	6 413 7                         @ ../ThirdParty/STM32F4xx_HAL_Driver/Src/stm32f4xx_hal_pcd.c:413:7
	b	.LBB6_27
.LBB6_50:
	.loc	6 467 5                         @ ../ThirdParty/STM32F4xx_HAL_Driver/Src/stm32f4xx_hal_pcd.c:467:5
	b	.LBB6_51
.Ltmp110:
.LBB6_51:
	.loc	6 470 8                         @ ../ThirdParty/STM32F4xx_HAL_Driver/Src/stm32f4xx_hal_pcd.c:470:8
	ldr	r0, [sp, #36]
	ldr	r0, [r0]
	bl	USB_ReadInterrupts
.Ltmp111:
	.loc	6 470 8 is_stmt 0               @ ../ThirdParty/STM32F4xx_HAL_Driver/Src/stm32f4xx_hal_pcd.c:470:8
	lsrs	r0, r0, #31
	cbz	r0, .LBB6_53
	b	.LBB6_52
.LBB6_52:
.Ltmp112:
	.loc	6 473 7 is_stmt 1               @ ../ThirdParty/STM32F4xx_HAL_Driver/Src/stm32f4xx_hal_pcd.c:473:7
	ldr	r1, [sp, #32]
	.loc	6 473 25 is_stmt 0              @ ../ThirdParty/STM32F4xx_HAL_Driver/Src/stm32f4xx_hal_pcd.c:473:25
	ldr.w	r0, [r1, #2052]
	bic	r0, r0, #1
	str.w	r0, [r1, #2052]
.Ltmp113:
	.loc	6 484 32 is_stmt 1              @ ../ThirdParty/STM32F4xx_HAL_Driver/Src/stm32f4xx_hal_pcd.c:484:32
	ldr	r0, [sp, #36]
	.loc	6 484 9 is_stmt 0               @ ../ThirdParty/STM32F4xx_HAL_Driver/Src/stm32f4xx_hal_pcd.c:484:9
	bl	HAL_PCD_ResumeCallback
.Ltmp114:
	.loc	6 487 7 is_stmt 1               @ ../ThirdParty/STM32F4xx_HAL_Driver/Src/stm32f4xx_hal_pcd.c:487:7
	ldr	r0, [sp, #36]
	ldr	r1, [r0]
	ldr	r0, [r1, #20]
	and	r0, r0, #-2147483648
	str	r0, [r1, #20]
	.loc	6 488 5                         @ ../ThirdParty/STM32F4xx_HAL_Driver/Src/stm32f4xx_hal_pcd.c:488:5
	b	.LBB6_53
.Ltmp115:
.LBB6_53:
	.loc	6 491 8                         @ ../ThirdParty/STM32F4xx_HAL_Driver/Src/stm32f4xx_hal_pcd.c:491:8
	ldr	r0, [sp, #36]
	ldr	r0, [r0]
	bl	USB_ReadInterrupts
.Ltmp116:
	.loc	6 491 8 is_stmt 0               @ ../ThirdParty/STM32F4xx_HAL_Driver/Src/stm32f4xx_hal_pcd.c:491:8
	lsls	r0, r0, #20
	cmp	r0, #0
	bpl	.LBB6_57
	b	.LBB6_54
.LBB6_54:
.Ltmp117:
	.loc	6 493 11 is_stmt 1              @ ../ThirdParty/STM32F4xx_HAL_Driver/Src/stm32f4xx_hal_pcd.c:493:11
	ldr	r0, [sp, #32]
	.loc	6 493 24 is_stmt 0              @ ../ThirdParty/STM32F4xx_HAL_Driver/Src/stm32f4xx_hal_pcd.c:493:24
	ldr.w	r0, [r0, #2056]
.Ltmp118:
	.loc	6 493 10                        @ ../ThirdParty/STM32F4xx_HAL_Driver/Src/stm32f4xx_hal_pcd.c:493:10
	lsls	r0, r0, #31
	cbz	r0, .LBB6_56
	b	.LBB6_55
.LBB6_55:
.Ltmp119:
	.loc	6 496 33 is_stmt 1              @ ../ThirdParty/STM32F4xx_HAL_Driver/Src/stm32f4xx_hal_pcd.c:496:33
	ldr	r0, [sp, #36]
	.loc	6 496 9 is_stmt 0               @ ../ThirdParty/STM32F4xx_HAL_Driver/Src/stm32f4xx_hal_pcd.c:496:9
	bl	HAL_PCD_SuspendCallback
	.loc	6 497 7 is_stmt 1               @ ../ThirdParty/STM32F4xx_HAL_Driver/Src/stm32f4xx_hal_pcd.c:497:7
	b	.LBB6_56
.Ltmp120:
.LBB6_56:
	.loc	6 498 7                         @ ../ThirdParty/STM32F4xx_HAL_Driver/Src/stm32f4xx_hal_pcd.c:498:7
	ldr	r0, [sp, #36]
	ldr	r1, [r0]
	ldr	r0, [r1, #20]
	and	r0, r0, #2048
	str	r0, [r1, #20]
	.loc	6 499 5                         @ ../ThirdParty/STM32F4xx_HAL_Driver/Src/stm32f4xx_hal_pcd.c:499:5
	b	.LBB6_57
.Ltmp121:
.LBB6_57:
	.loc	6 520 8                         @ ../ThirdParty/STM32F4xx_HAL_Driver/Src/stm32f4xx_hal_pcd.c:520:8
	ldr	r0, [sp, #36]
	ldr	r0, [r0]
	bl	USB_ReadInterrupts
.Ltmp122:
	.loc	6 520 8 is_stmt 0               @ ../ThirdParty/STM32F4xx_HAL_Driver/Src/stm32f4xx_hal_pcd.c:520:8
	lsls	r0, r0, #19
	cmp	r0, #0
	bpl	.LBB6_66
	b	.LBB6_58
.LBB6_58:
.Ltmp123:
	.loc	6 522 7 is_stmt 1               @ ../ThirdParty/STM32F4xx_HAL_Driver/Src/stm32f4xx_hal_pcd.c:522:7
	ldr	r1, [sp, #32]
	.loc	6 522 25 is_stmt 0              @ ../ThirdParty/STM32F4xx_HAL_Driver/Src/stm32f4xx_hal_pcd.c:522:25
	ldr.w	r0, [r1, #2052]
	bic	r0, r0, #1
	str.w	r0, [r1, #2052]
	.loc	6 523 23 is_stmt 1              @ ../ThirdParty/STM32F4xx_HAL_Driver/Src/stm32f4xx_hal_pcd.c:523:23
	ldr	r0, [sp, #36]
	.loc	6 523 29 is_stmt 0              @ ../ThirdParty/STM32F4xx_HAL_Driver/Src/stm32f4xx_hal_pcd.c:523:29
	ldr	r0, [r0]
	movs	r1, #16
	.loc	6 523 7                         @ ../ThirdParty/STM32F4xx_HAL_Driver/Src/stm32f4xx_hal_pcd.c:523:7
	bl	USB_FlushTxFifo
	movs	r0, #0
.Ltmp124:
	.loc	6 525 14 is_stmt 1              @ ../ThirdParty/STM32F4xx_HAL_Driver/Src/stm32f4xx_hal_pcd.c:525:14
	str	r0, [sp, #28]
	.loc	6 525 12 is_stmt 0              @ ../ThirdParty/STM32F4xx_HAL_Driver/Src/stm32f4xx_hal_pcd.c:525:12
	b	.LBB6_59
.LBB6_59:                               @ =>This Inner Loop Header: Depth=1
.Ltmp125:
	.loc	6 525 20                        @ ../ThirdParty/STM32F4xx_HAL_Driver/Src/stm32f4xx_hal_pcd.c:525:20
	ldr	r0, [sp, #28]
	.loc	6 525 24                        @ ../ThirdParty/STM32F4xx_HAL_Driver/Src/stm32f4xx_hal_pcd.c:525:24
	ldr	r1, [sp, #36]
	.loc	6 525 35                        @ ../ThirdParty/STM32F4xx_HAL_Driver/Src/stm32f4xx_hal_pcd.c:525:35
	ldr	r1, [r1, #4]
.Ltmp126:
	.loc	6 525 7                         @ ../ThirdParty/STM32F4xx_HAL_Driver/Src/stm32f4xx_hal_pcd.c:525:7
	cmp	r0, r1
	bhs	.LBB6_62
	b	.LBB6_60
.LBB6_60:                               @   in Loop: Header=BB6_59 Depth=1
.Ltmp127:
	.loc	6 527 9 is_stmt 1               @ ../ThirdParty/STM32F4xx_HAL_Driver/Src/stm32f4xx_hal_pcd.c:527:9
	ldr	r0, [sp, #32]
	ldr	r1, [sp, #28]
	add.w	r1, r0, r1, lsl #5
	movs	r0, #255
	.loc	6 527 31 is_stmt 0              @ ../ThirdParty/STM32F4xx_HAL_Driver/Src/stm32f4xx_hal_pcd.c:527:31
	str.w	r0, [r1, #2312]
	.loc	6 528 9 is_stmt 1               @ ../ThirdParty/STM32F4xx_HAL_Driver/Src/stm32f4xx_hal_pcd.c:528:9
	ldr	r1, [sp, #32]
	ldr	r2, [sp, #28]
	add.w	r1, r1, r2, lsl #5
	.loc	6 528 32 is_stmt 0              @ ../ThirdParty/STM32F4xx_HAL_Driver/Src/stm32f4xx_hal_pcd.c:528:32
	str.w	r0, [r1, #2824]
	.loc	6 529 7 is_stmt 1               @ ../ThirdParty/STM32F4xx_HAL_Driver/Src/stm32f4xx_hal_pcd.c:529:7
	b	.LBB6_61
.Ltmp128:
.LBB6_61:                               @   in Loop: Header=BB6_59 Depth=1
	.loc	6 525 51                        @ ../ThirdParty/STM32F4xx_HAL_Driver/Src/stm32f4xx_hal_pcd.c:525:51
	ldr	r0, [sp, #28]
	adds	r0, #1
	str	r0, [sp, #28]
	.loc	6 525 7 is_stmt 0               @ ../ThirdParty/STM32F4xx_HAL_Driver/Src/stm32f4xx_hal_pcd.c:525:7
	b	.LBB6_59
.Ltmp129:
.LBB6_62:
	.loc	6 530 7 is_stmt 1               @ ../ThirdParty/STM32F4xx_HAL_Driver/Src/stm32f4xx_hal_pcd.c:530:7
	ldr	r1, [sp, #32]
	mov.w	r0, #-1
	.loc	6 530 26 is_stmt 0              @ ../ThirdParty/STM32F4xx_HAL_Driver/Src/stm32f4xx_hal_pcd.c:530:26
	str.w	r0, [r1, #2072]
	.loc	6 531 7 is_stmt 1               @ ../ThirdParty/STM32F4xx_HAL_Driver/Src/stm32f4xx_hal_pcd.c:531:7
	ldr	r1, [sp, #32]
	.loc	6 531 29 is_stmt 0              @ ../ThirdParty/STM32F4xx_HAL_Driver/Src/stm32f4xx_hal_pcd.c:531:29
	ldr.w	r0, [r1, #2076]
	orr	r0, r0, #65537
	str.w	r0, [r1, #2076]
.Ltmp130:
	.loc	6 533 10 is_stmt 1              @ ../ThirdParty/STM32F4xx_HAL_Driver/Src/stm32f4xx_hal_pcd.c:533:10
	ldr	r0, [sp, #36]
	.loc	6 533 21 is_stmt 0              @ ../ThirdParty/STM32F4xx_HAL_Driver/Src/stm32f4xx_hal_pcd.c:533:21
	ldr	r0, [r0, #48]
.Ltmp131:
	.loc	6 533 10                        @ ../ThirdParty/STM32F4xx_HAL_Driver/Src/stm32f4xx_hal_pcd.c:533:10
	cbz	r0, .LBB6_64
	b	.LBB6_63
.LBB6_63:
.Ltmp132:
	.loc	6 535 9 is_stmt 1               @ ../ThirdParty/STM32F4xx_HAL_Driver/Src/stm32f4xx_hal_pcd.c:535:9
	ldr	r1, [sp, #32]
	.loc	6 535 33 is_stmt 0              @ ../ThirdParty/STM32F4xx_HAL_Driver/Src/stm32f4xx_hal_pcd.c:535:33
	ldr.w	r0, [r1, #2180]
	orr	r0, r0, #11
	str.w	r0, [r1, #2180]
	.loc	6 536 9 is_stmt 1               @ ../ThirdParty/STM32F4xx_HAL_Driver/Src/stm32f4xx_hal_pcd.c:536:9
	ldr	r1, [sp, #32]
	.loc	6 536 32 is_stmt 0              @ ../ThirdParty/STM32F4xx_HAL_Driver/Src/stm32f4xx_hal_pcd.c:536:32
	ldr.w	r0, [r1, #2116]
	orr	r0, r0, #11
	str.w	r0, [r1, #2116]
	.loc	6 537 7 is_stmt 1               @ ../ThirdParty/STM32F4xx_HAL_Driver/Src/stm32f4xx_hal_pcd.c:537:7
	b	.LBB6_65
.Ltmp133:
.LBB6_64:
	.loc	6 543 9                         @ ../ThirdParty/STM32F4xx_HAL_Driver/Src/stm32f4xx_hal_pcd.c:543:9
	ldr	r1, [sp, #32]
	.loc	6 543 30 is_stmt 0              @ ../ThirdParty/STM32F4xx_HAL_Driver/Src/stm32f4xx_hal_pcd.c:543:30
	ldr.w	r0, [r1, #2068]
	orr	r0, r0, #11
	str.w	r0, [r1, #2068]
	.loc	6 545 9 is_stmt 1               @ ../ThirdParty/STM32F4xx_HAL_Driver/Src/stm32f4xx_hal_pcd.c:545:9
	ldr	r1, [sp, #32]
	.loc	6 545 30 is_stmt 0              @ ../ThirdParty/STM32F4xx_HAL_Driver/Src/stm32f4xx_hal_pcd.c:545:30
	ldr.w	r0, [r1, #2064]
	orr	r0, r0, #11
	str.w	r0, [r1, #2064]
	b	.LBB6_65
.Ltmp134:
.LBB6_65:
	.loc	6 549 7 is_stmt 1               @ ../ThirdParty/STM32F4xx_HAL_Driver/Src/stm32f4xx_hal_pcd.c:549:7
	ldr	r1, [sp, #32]
	.loc	6 549 25 is_stmt 0              @ ../ThirdParty/STM32F4xx_HAL_Driver/Src/stm32f4xx_hal_pcd.c:549:25
	ldr.w	r0, [r1, #2048]
	bic	r0, r0, #2032
	str.w	r0, [r1, #2048]
	.loc	6 552 24 is_stmt 1              @ ../ThirdParty/STM32F4xx_HAL_Driver/Src/stm32f4xx_hal_pcd.c:552:24
	ldr	r2, [sp, #36]
	.loc	6 552 30 is_stmt 0              @ ../ThirdParty/STM32F4xx_HAL_Driver/Src/stm32f4xx_hal_pcd.c:552:30
	ldr	r0, [r2]
	.loc	6 552 51                        @ ../ThirdParty/STM32F4xx_HAL_Driver/Src/stm32f4xx_hal_pcd.c:552:51
	ldrb	r1, [r2, #16]
	.loc	6 552 80                        @ ../ThirdParty/STM32F4xx_HAL_Driver/Src/stm32f4xx_hal_pcd.c:552:80
	add.w	r2, r2, #956
	.loc	6 552 7                         @ ../ThirdParty/STM32F4xx_HAL_Driver/Src/stm32f4xx_hal_pcd.c:552:7
	bl	USB_EP0_OutStart
	.loc	6 554 7 is_stmt 1               @ ../ThirdParty/STM32F4xx_HAL_Driver/Src/stm32f4xx_hal_pcd.c:554:7
	ldr	r0, [sp, #36]
	ldr	r1, [r0]
	ldr	r0, [r1, #20]
	and	r0, r0, #4096
	str	r0, [r1, #20]
	.loc	6 555 5                         @ ../ThirdParty/STM32F4xx_HAL_Driver/Src/stm32f4xx_hal_pcd.c:555:5
	b	.LBB6_66
.Ltmp135:
.LBB6_66:
	.loc	6 558 8                         @ ../ThirdParty/STM32F4xx_HAL_Driver/Src/stm32f4xx_hal_pcd.c:558:8
	ldr	r0, [sp, #36]
	ldr	r0, [r0]
	bl	USB_ReadInterrupts
.Ltmp136:
	.loc	6 558 8 is_stmt 0               @ ../ThirdParty/STM32F4xx_HAL_Driver/Src/stm32f4xx_hal_pcd.c:558:8
	lsls	r0, r0, #18
	cmp	r0, #0
	bpl.w	.LBB6_107
	b	.LBB6_67
.LBB6_67:
.Ltmp137:
	.loc	6 560 25 is_stmt 1              @ ../ThirdParty/STM32F4xx_HAL_Driver/Src/stm32f4xx_hal_pcd.c:560:25
	ldr	r0, [sp, #36]
	.loc	6 560 31 is_stmt 0              @ ../ThirdParty/STM32F4xx_HAL_Driver/Src/stm32f4xx_hal_pcd.c:560:31
	ldr	r0, [r0]
	.loc	6 560 7                         @ ../ThirdParty/STM32F4xx_HAL_Driver/Src/stm32f4xx_hal_pcd.c:560:7
	bl	USB_ActivateSetup
	.loc	6 561 7 is_stmt 1               @ ../ThirdParty/STM32F4xx_HAL_Driver/Src/stm32f4xx_hal_pcd.c:561:7
	ldr	r0, [sp, #36]
	.loc	6 561 13 is_stmt 0              @ ../ThirdParty/STM32F4xx_HAL_Driver/Src/stm32f4xx_hal_pcd.c:561:13
	ldr	r1, [r0]
	.loc	6 561 31                        @ ../ThirdParty/STM32F4xx_HAL_Driver/Src/stm32f4xx_hal_pcd.c:561:31
	ldr	r0, [r1, #12]
	bic	r0, r0, #15360
	str	r0, [r1, #12]
.Ltmp138:
	.loc	6 563 28 is_stmt 1              @ ../ThirdParty/STM32F4xx_HAL_Driver/Src/stm32f4xx_hal_pcd.c:563:28
	ldr	r0, [sp, #36]
	.loc	6 563 34 is_stmt 0              @ ../ThirdParty/STM32F4xx_HAL_Driver/Src/stm32f4xx_hal_pcd.c:563:34
	ldr	r0, [r0]
	.loc	6 563 12                        @ ../ThirdParty/STM32F4xx_HAL_Driver/Src/stm32f4xx_hal_pcd.c:563:12
	bl	USB_GetDevSpeed
.Ltmp139:
	.loc	6 563 12                        @ ../ThirdParty/STM32F4xx_HAL_Driver/Src/stm32f4xx_hal_pcd.c:563:12
	cbnz	r0, .LBB6_69
	b	.LBB6_68
.LBB6_68:
.Ltmp140:
	.loc	6 565 9 is_stmt 1               @ ../ThirdParty/STM32F4xx_HAL_Driver/Src/stm32f4xx_hal_pcd.c:565:9
	ldr	r1, [sp, #36]
	movs	r0, #0
	.loc	6 565 37 is_stmt 0              @ ../ThirdParty/STM32F4xx_HAL_Driver/Src/stm32f4xx_hal_pcd.c:565:37
	str	r0, [r1, #12]
	.loc	6 566 9 is_stmt 1               @ ../ThirdParty/STM32F4xx_HAL_Driver/Src/stm32f4xx_hal_pcd.c:566:9
	ldr	r1, [sp, #36]
	mov.w	r0, #512
	.loc	6 566 37 is_stmt 0              @ ../ThirdParty/STM32F4xx_HAL_Driver/Src/stm32f4xx_hal_pcd.c:566:37
	str	r0, [r1, #20]
	.loc	6 567 9 is_stmt 1               @ ../ThirdParty/STM32F4xx_HAL_Driver/Src/stm32f4xx_hal_pcd.c:567:9
	ldr	r0, [sp, #36]
	.loc	6 567 15 is_stmt 0              @ ../ThirdParty/STM32F4xx_HAL_Driver/Src/stm32f4xx_hal_pcd.c:567:15
	ldr	r1, [r0]
	.loc	6 567 33                        @ ../ThirdParty/STM32F4xx_HAL_Driver/Src/stm32f4xx_hal_pcd.c:567:33
	ldr	r0, [r1, #12]
	orr	r0, r0, #9216
	str	r0, [r1, #12]
	.loc	6 568 7 is_stmt 1               @ ../ThirdParty/STM32F4xx_HAL_Driver/Src/stm32f4xx_hal_pcd.c:568:7
	b	.LBB6_106
.Ltmp141:
.LBB6_69:
	.loc	6 571 9                         @ ../ThirdParty/STM32F4xx_HAL_Driver/Src/stm32f4xx_hal_pcd.c:571:9
	ldr	r1, [sp, #36]
	movs	r0, #3
	.loc	6 571 37 is_stmt 0              @ ../ThirdParty/STM32F4xx_HAL_Driver/Src/stm32f4xx_hal_pcd.c:571:37
	str	r0, [r1, #12]
	.loc	6 572 9 is_stmt 1               @ ../ThirdParty/STM32F4xx_HAL_Driver/Src/stm32f4xx_hal_pcd.c:572:9
	ldr	r1, [sp, #36]
	movs	r0, #64
	.loc	6 572 37 is_stmt 0              @ ../ThirdParty/STM32F4xx_HAL_Driver/Src/stm32f4xx_hal_pcd.c:572:37
	str	r0, [r1, #20]
	.loc	6 580 16 is_stmt 1              @ ../ThirdParty/STM32F4xx_HAL_Driver/Src/stm32f4xx_hal_pcd.c:580:16
	bl	HAL_RCC_GetHCLKFreq
	.loc	6 580 14 is_stmt 0              @ ../ThirdParty/STM32F4xx_HAL_Driver/Src/stm32f4xx_hal_pcd.c:580:14
	str	r0, [sp]
.Ltmp142:
	.loc	6 582 13 is_stmt 1              @ ../ThirdParty/STM32F4xx_HAL_Driver/Src/stm32f4xx_hal_pcd.c:582:13
	ldr	r0, [sp]
	movw	r1, #44224
	movt	r1, #216
	.loc	6 582 31 is_stmt 0              @ ../ThirdParty/STM32F4xx_HAL_Driver/Src/stm32f4xx_hal_pcd.c:582:31
	cmp	r0, r1
	blo	.LBB6_72
	b	.LBB6_70
.LBB6_70:
	.loc	6 582 34                        @ ../ThirdParty/STM32F4xx_HAL_Driver/Src/stm32f4xx_hal_pcd.c:582:34
	ldr	r0, [sp]
	movw	r1, #57791
	movt	r1, #228
.Ltmp143:
	.loc	6 582 12                        @ ../ThirdParty/STM32F4xx_HAL_Driver/Src/stm32f4xx_hal_pcd.c:582:12
	cmp	r0, r1
	bhi	.LBB6_72
	b	.LBB6_71
.LBB6_71:
.Ltmp144:
	.loc	6 585 11 is_stmt 1              @ ../ThirdParty/STM32F4xx_HAL_Driver/Src/stm32f4xx_hal_pcd.c:585:11
	ldr	r0, [sp, #36]
	.loc	6 585 17 is_stmt 0              @ ../ThirdParty/STM32F4xx_HAL_Driver/Src/stm32f4xx_hal_pcd.c:585:17
	ldr	r1, [r0]
	.loc	6 585 35                        @ ../ThirdParty/STM32F4xx_HAL_Driver/Src/stm32f4xx_hal_pcd.c:585:35
	ldr	r0, [r1, #12]
	orr	r0, r0, #15360
	str	r0, [r1, #12]
	.loc	6 586 9 is_stmt 1               @ ../ThirdParty/STM32F4xx_HAL_Driver/Src/stm32f4xx_hal_pcd.c:586:9
	b	.LBB6_105
.Ltmp145:
.LBB6_72:
	.loc	6 588 18                        @ ../ThirdParty/STM32F4xx_HAL_Driver/Src/stm32f4xx_hal_pcd.c:588:18
	ldr	r0, [sp]
	movw	r1, #57792
	movt	r1, #228
	.loc	6 588 36 is_stmt 0              @ ../ThirdParty/STM32F4xx_HAL_Driver/Src/stm32f4xx_hal_pcd.c:588:36
	cmp	r0, r1
	blo	.LBB6_75
	b	.LBB6_73
.LBB6_73:
	.loc	6 588 39                        @ ../ThirdParty/STM32F4xx_HAL_Driver/Src/stm32f4xx_hal_pcd.c:588:39
	ldr	r0, [sp]
	movw	r1, #9215
	movt	r1, #244
.Ltmp146:
	.loc	6 588 17                        @ ../ThirdParty/STM32F4xx_HAL_Driver/Src/stm32f4xx_hal_pcd.c:588:17
	cmp	r0, r1
	bhi	.LBB6_75
	b	.LBB6_74
.LBB6_74:
.Ltmp147:
	.loc	6 591 11 is_stmt 1              @ ../ThirdParty/STM32F4xx_HAL_Driver/Src/stm32f4xx_hal_pcd.c:591:11
	ldr	r0, [sp, #36]
	.loc	6 591 17 is_stmt 0              @ ../ThirdParty/STM32F4xx_HAL_Driver/Src/stm32f4xx_hal_pcd.c:591:17
	ldr	r1, [r0]
	.loc	6 591 35                        @ ../ThirdParty/STM32F4xx_HAL_Driver/Src/stm32f4xx_hal_pcd.c:591:35
	ldr	r0, [r1, #12]
	orr	r0, r0, #14336
	str	r0, [r1, #12]
	.loc	6 592 9 is_stmt 1               @ ../ThirdParty/STM32F4xx_HAL_Driver/Src/stm32f4xx_hal_pcd.c:592:9
	b	.LBB6_104
.Ltmp148:
.LBB6_75:
	.loc	6 594 18                        @ ../ThirdParty/STM32F4xx_HAL_Driver/Src/stm32f4xx_hal_pcd.c:594:18
	ldr	r0, [sp]
	movw	r1, #9216
	movt	r1, #244
	.loc	6 594 36 is_stmt 0              @ ../ThirdParty/STM32F4xx_HAL_Driver/Src/stm32f4xx_hal_pcd.c:594:36
	cmp	r0, r1
	blo	.LBB6_78
	b	.LBB6_76
.LBB6_76:
	.loc	6 594 39                        @ ../ThirdParty/STM32F4xx_HAL_Driver/Src/stm32f4xx_hal_pcd.c:594:39
	ldr	r0, [sp]
	movw	r1, #29567
	movt	r1, #262
.Ltmp149:
	.loc	6 594 17                        @ ../ThirdParty/STM32F4xx_HAL_Driver/Src/stm32f4xx_hal_pcd.c:594:17
	cmp	r0, r1
	bhi	.LBB6_78
	b	.LBB6_77
.LBB6_77:
.Ltmp150:
	.loc	6 597 11 is_stmt 1              @ ../ThirdParty/STM32F4xx_HAL_Driver/Src/stm32f4xx_hal_pcd.c:597:11
	ldr	r0, [sp, #36]
	.loc	6 597 17 is_stmt 0              @ ../ThirdParty/STM32F4xx_HAL_Driver/Src/stm32f4xx_hal_pcd.c:597:17
	ldr	r1, [r0]
	.loc	6 597 35                        @ ../ThirdParty/STM32F4xx_HAL_Driver/Src/stm32f4xx_hal_pcd.c:597:35
	ldr	r0, [r1, #12]
	orr	r0, r0, #13312
	str	r0, [r1, #12]
	.loc	6 598 9 is_stmt 1               @ ../ThirdParty/STM32F4xx_HAL_Driver/Src/stm32f4xx_hal_pcd.c:598:9
	b	.LBB6_103
.Ltmp151:
.LBB6_78:
	.loc	6 600 18                        @ ../ThirdParty/STM32F4xx_HAL_Driver/Src/stm32f4xx_hal_pcd.c:600:18
	ldr	r0, [sp]
	movw	r1, #29568
	movt	r1, #262
	.loc	6 600 36 is_stmt 0              @ ../ThirdParty/STM32F4xx_HAL_Driver/Src/stm32f4xx_hal_pcd.c:600:36
	cmp	r0, r1
	blo	.LBB6_81
	b	.LBB6_79
.LBB6_79:
	.loc	6 600 39                        @ ../ThirdParty/STM32F4xx_HAL_Driver/Src/stm32f4xx_hal_pcd.c:600:39
	ldr	r0, [sp]
	movw	r1, #18847
	movt	r1, #282
.Ltmp152:
	.loc	6 600 17                        @ ../ThirdParty/STM32F4xx_HAL_Driver/Src/stm32f4xx_hal_pcd.c:600:17
	cmp	r0, r1
	bhi	.LBB6_81
	b	.LBB6_80
.LBB6_80:
.Ltmp153:
	.loc	6 603 11 is_stmt 1              @ ../ThirdParty/STM32F4xx_HAL_Driver/Src/stm32f4xx_hal_pcd.c:603:11
	ldr	r0, [sp, #36]
	.loc	6 603 17 is_stmt 0              @ ../ThirdParty/STM32F4xx_HAL_Driver/Src/stm32f4xx_hal_pcd.c:603:17
	ldr	r1, [r0]
	.loc	6 603 35                        @ ../ThirdParty/STM32F4xx_HAL_Driver/Src/stm32f4xx_hal_pcd.c:603:35
	ldr	r0, [r1, #12]
	orr	r0, r0, #12288
	str	r0, [r1, #12]
	.loc	6 604 9 is_stmt 1               @ ../ThirdParty/STM32F4xx_HAL_Driver/Src/stm32f4xx_hal_pcd.c:604:9
	b	.LBB6_102
.Ltmp154:
.LBB6_81:
	.loc	6 606 18                        @ ../ThirdParty/STM32F4xx_HAL_Driver/Src/stm32f4xx_hal_pcd.c:606:18
	ldr	r0, [sp]
	movw	r1, #18848
	movt	r1, #282
	.loc	6 606 36 is_stmt 0              @ ../ThirdParty/STM32F4xx_HAL_Driver/Src/stm32f4xx_hal_pcd.c:606:36
	cmp	r0, r1
	blo	.LBB6_84
	b	.LBB6_82
.LBB6_82:
	.loc	6 606 39                        @ ../ThirdParty/STM32F4xx_HAL_Driver/Src/stm32f4xx_hal_pcd.c:606:39
	ldr	r0, [sp]
	movw	r1, #11519
	movt	r1, #305
.Ltmp155:
	.loc	6 606 17                        @ ../ThirdParty/STM32F4xx_HAL_Driver/Src/stm32f4xx_hal_pcd.c:606:17
	cmp	r0, r1
	bhi	.LBB6_84
	b	.LBB6_83
.LBB6_83:
.Ltmp156:
	.loc	6 609 11 is_stmt 1              @ ../ThirdParty/STM32F4xx_HAL_Driver/Src/stm32f4xx_hal_pcd.c:609:11
	ldr	r0, [sp, #36]
	.loc	6 609 17 is_stmt 0              @ ../ThirdParty/STM32F4xx_HAL_Driver/Src/stm32f4xx_hal_pcd.c:609:17
	ldr	r1, [r0]
	.loc	6 609 35                        @ ../ThirdParty/STM32F4xx_HAL_Driver/Src/stm32f4xx_hal_pcd.c:609:35
	ldr	r0, [r1, #12]
	orr	r0, r0, #11264
	str	r0, [r1, #12]
	.loc	6 610 9 is_stmt 1               @ ../ThirdParty/STM32F4xx_HAL_Driver/Src/stm32f4xx_hal_pcd.c:610:9
	b	.LBB6_101
.Ltmp157:
.LBB6_84:
	.loc	6 612 18                        @ ../ThirdParty/STM32F4xx_HAL_Driver/Src/stm32f4xx_hal_pcd.c:612:18
	ldr	r0, [sp]
	movw	r1, #11520
	movt	r1, #305
	.loc	6 612 36 is_stmt 0              @ ../ThirdParty/STM32F4xx_HAL_Driver/Src/stm32f4xx_hal_pcd.c:612:36
	cmp	r0, r1
	blo	.LBB6_87
	b	.LBB6_85
.LBB6_85:
	.loc	6 612 39                        @ ../ThirdParty/STM32F4xx_HAL_Driver/Src/stm32f4xx_hal_pcd.c:612:39
	ldr	r0, [sp]
	movw	r1, #42047
	movt	r1, #332
.Ltmp158:
	.loc	6 612 17                        @ ../ThirdParty/STM32F4xx_HAL_Driver/Src/stm32f4xx_hal_pcd.c:612:17
	cmp	r0, r1
	bhi	.LBB6_87
	b	.LBB6_86
.LBB6_86:
.Ltmp159:
	.loc	6 615 11 is_stmt 1              @ ../ThirdParty/STM32F4xx_HAL_Driver/Src/stm32f4xx_hal_pcd.c:615:11
	ldr	r0, [sp, #36]
	.loc	6 615 17 is_stmt 0              @ ../ThirdParty/STM32F4xx_HAL_Driver/Src/stm32f4xx_hal_pcd.c:615:17
	ldr	r1, [r0]
	.loc	6 615 35                        @ ../ThirdParty/STM32F4xx_HAL_Driver/Src/stm32f4xx_hal_pcd.c:615:35
	ldr	r0, [r1, #12]
	orr	r0, r0, #10240
	str	r0, [r1, #12]
	.loc	6 616 9 is_stmt 1               @ ../ThirdParty/STM32F4xx_HAL_Driver/Src/stm32f4xx_hal_pcd.c:616:9
	b	.LBB6_100
.Ltmp160:
.LBB6_87:
	.loc	6 618 18                        @ ../ThirdParty/STM32F4xx_HAL_Driver/Src/stm32f4xx_hal_pcd.c:618:18
	ldr	r0, [sp]
	movw	r1, #42048
	movt	r1, #332
	.loc	6 618 36 is_stmt 0              @ ../ThirdParty/STM32F4xx_HAL_Driver/Src/stm32f4xx_hal_pcd.c:618:36
	cmp	r0, r1
	blo	.LBB6_90
	b	.LBB6_88
.LBB6_88:
	.loc	6 618 39                        @ ../ThirdParty/STM32F4xx_HAL_Driver/Src/stm32f4xx_hal_pcd.c:618:39
	ldr	r0, [sp]
	movw	r1, #13823
	movt	r1, #366
.Ltmp161:
	.loc	6 618 17                        @ ../ThirdParty/STM32F4xx_HAL_Driver/Src/stm32f4xx_hal_pcd.c:618:17
	cmp	r0, r1
	bhi	.LBB6_90
	b	.LBB6_89
.LBB6_89:
.Ltmp162:
	.loc	6 621 11 is_stmt 1              @ ../ThirdParty/STM32F4xx_HAL_Driver/Src/stm32f4xx_hal_pcd.c:621:11
	ldr	r0, [sp, #36]
	.loc	6 621 17 is_stmt 0              @ ../ThirdParty/STM32F4xx_HAL_Driver/Src/stm32f4xx_hal_pcd.c:621:17
	ldr	r1, [r0]
	.loc	6 621 35                        @ ../ThirdParty/STM32F4xx_HAL_Driver/Src/stm32f4xx_hal_pcd.c:621:35
	ldr	r0, [r1, #12]
	orr	r0, r0, #9216
	str	r0, [r1, #12]
	.loc	6 622 9 is_stmt 1               @ ../ThirdParty/STM32F4xx_HAL_Driver/Src/stm32f4xx_hal_pcd.c:622:9
	b	.LBB6_99
.Ltmp163:
.LBB6_90:
	.loc	6 624 18                        @ ../ThirdParty/STM32F4xx_HAL_Driver/Src/stm32f4xx_hal_pcd.c:624:18
	ldr	r0, [sp]
	movw	r1, #13824
	movt	r1, #366
	.loc	6 624 36 is_stmt 0              @ ../ThirdParty/STM32F4xx_HAL_Driver/Src/stm32f4xx_hal_pcd.c:624:36
	cmp	r0, r1
	blo	.LBB6_93
	b	.LBB6_91
.LBB6_91:
	.loc	6 624 39                        @ ../ThirdParty/STM32F4xx_HAL_Driver/Src/stm32f4xx_hal_pcd.c:624:39
	ldr	r0, [sp]
	movw	r1, #43807
	movt	r1, #422
.Ltmp164:
	.loc	6 624 17                        @ ../ThirdParty/STM32F4xx_HAL_Driver/Src/stm32f4xx_hal_pcd.c:624:17
	cmp	r0, r1
	bhi	.LBB6_93
	b	.LBB6_92
.LBB6_92:
.Ltmp165:
	.loc	6 627 11 is_stmt 1              @ ../ThirdParty/STM32F4xx_HAL_Driver/Src/stm32f4xx_hal_pcd.c:627:11
	ldr	r0, [sp, #36]
	.loc	6 627 17 is_stmt 0              @ ../ThirdParty/STM32F4xx_HAL_Driver/Src/stm32f4xx_hal_pcd.c:627:17
	ldr	r1, [r0]
	.loc	6 627 35                        @ ../ThirdParty/STM32F4xx_HAL_Driver/Src/stm32f4xx_hal_pcd.c:627:35
	ldr	r0, [r1, #12]
	orr	r0, r0, #8192
	str	r0, [r1, #12]
	.loc	6 628 9 is_stmt 1               @ ../ThirdParty/STM32F4xx_HAL_Driver/Src/stm32f4xx_hal_pcd.c:628:9
	b	.LBB6_98
.Ltmp166:
.LBB6_93:
	.loc	6 630 18                        @ ../ThirdParty/STM32F4xx_HAL_Driver/Src/stm32f4xx_hal_pcd.c:630:18
	ldr	r0, [sp]
	movw	r1, #43808
	movt	r1, #422
	.loc	6 630 36 is_stmt 0              @ ../ThirdParty/STM32F4xx_HAL_Driver/Src/stm32f4xx_hal_pcd.c:630:36
	cmp	r0, r1
	blo	.LBB6_96
	b	.LBB6_94
.LBB6_94:
	.loc	6 630 39                        @ ../ThirdParty/STM32F4xx_HAL_Driver/Src/stm32f4xx_hal_pcd.c:630:39
	ldr	r0, [sp]
	movw	r1, #18431
	movt	r1, #488
.Ltmp167:
	.loc	6 630 17                        @ ../ThirdParty/STM32F4xx_HAL_Driver/Src/stm32f4xx_hal_pcd.c:630:17
	cmp	r0, r1
	bhi	.LBB6_96
	b	.LBB6_95
.LBB6_95:
.Ltmp168:
	.loc	6 633 11 is_stmt 1              @ ../ThirdParty/STM32F4xx_HAL_Driver/Src/stm32f4xx_hal_pcd.c:633:11
	ldr	r0, [sp, #36]
	.loc	6 633 17 is_stmt 0              @ ../ThirdParty/STM32F4xx_HAL_Driver/Src/stm32f4xx_hal_pcd.c:633:17
	ldr	r1, [r0]
	.loc	6 633 35                        @ ../ThirdParty/STM32F4xx_HAL_Driver/Src/stm32f4xx_hal_pcd.c:633:35
	ldr	r0, [r1, #12]
	orr	r0, r0, #7168
	str	r0, [r1, #12]
	.loc	6 634 9 is_stmt 1               @ ../ThirdParty/STM32F4xx_HAL_Driver/Src/stm32f4xx_hal_pcd.c:634:9
	b	.LBB6_97
.Ltmp169:
.LBB6_96:
	.loc	6 639 11                        @ ../ThirdParty/STM32F4xx_HAL_Driver/Src/stm32f4xx_hal_pcd.c:639:11
	ldr	r0, [sp, #36]
	.loc	6 639 17 is_stmt 0              @ ../ThirdParty/STM32F4xx_HAL_Driver/Src/stm32f4xx_hal_pcd.c:639:17
	ldr	r1, [r0]
	.loc	6 639 35                        @ ../ThirdParty/STM32F4xx_HAL_Driver/Src/stm32f4xx_hal_pcd.c:639:35
	ldr	r0, [r1, #12]
	orr	r0, r0, #6144
	str	r0, [r1, #12]
	b	.LBB6_97
.Ltmp170:
.LBB6_97:
	.loc	6 0 35                          @ ../ThirdParty/STM32F4xx_HAL_Driver/Src/stm32f4xx_hal_pcd.c:0:35
	b	.LBB6_98
.LBB6_98:
	b	.LBB6_99
.LBB6_99:
	b	.LBB6_100
.LBB6_100:
	b	.LBB6_101
.LBB6_101:
	b	.LBB6_102
.LBB6_102:
	b	.LBB6_103
.LBB6_103:
	b	.LBB6_104
.LBB6_104:
	b	.LBB6_105
.LBB6_105:
	b	.LBB6_106
.LBB6_106:
	.loc	6 643 29 is_stmt 1              @ ../ThirdParty/STM32F4xx_HAL_Driver/Src/stm32f4xx_hal_pcd.c:643:29
	ldr	r0, [sp, #36]
	.loc	6 643 7 is_stmt 0               @ ../ThirdParty/STM32F4xx_HAL_Driver/Src/stm32f4xx_hal_pcd.c:643:7
	bl	HAL_PCD_ResetCallback
	.loc	6 645 7 is_stmt 1               @ ../ThirdParty/STM32F4xx_HAL_Driver/Src/stm32f4xx_hal_pcd.c:645:7
	ldr	r0, [sp, #36]
	ldr	r1, [r0]
	ldr	r0, [r1, #20]
	and	r0, r0, #8192
	str	r0, [r1, #20]
	.loc	6 646 5                         @ ../ThirdParty/STM32F4xx_HAL_Driver/Src/stm32f4xx_hal_pcd.c:646:5
	b	.LBB6_107
.Ltmp171:
.LBB6_107:
	.loc	6 649 8                         @ ../ThirdParty/STM32F4xx_HAL_Driver/Src/stm32f4xx_hal_pcd.c:649:8
	ldr	r0, [sp, #36]
	ldr	r0, [r0]
	bl	USB_ReadInterrupts
.Ltmp172:
	.loc	6 649 8 is_stmt 0               @ ../ThirdParty/STM32F4xx_HAL_Driver/Src/stm32f4xx_hal_pcd.c:649:8
	lsls	r0, r0, #27
	cmp	r0, #0
	bpl	.LBB6_116
	b	.LBB6_108
.LBB6_108:
.Ltmp173:
	.loc	6 651 7 is_stmt 1               @ ../ThirdParty/STM32F4xx_HAL_Driver/Src/stm32f4xx_hal_pcd.c:651:7
	ldr	r0, [sp, #36]
	ldr	r1, [r0]
	ldr	r0, [r1, #24]
	bic	r0, r0, #16
	str	r0, [r1, #24]
	.loc	6 653 14                        @ ../ThirdParty/STM32F4xx_HAL_Driver/Src/stm32f4xx_hal_pcd.c:653:14
	ldr	r0, [sp, #32]
	.loc	6 653 20 is_stmt 0              @ ../ThirdParty/STM32F4xx_HAL_Driver/Src/stm32f4xx_hal_pcd.c:653:20
	ldr	r0, [r0, #32]
	.loc	6 653 12                        @ ../ThirdParty/STM32F4xx_HAL_Driver/Src/stm32f4xx_hal_pcd.c:653:12
	str	r0, [sp, #8]
	.loc	6 655 13 is_stmt 1              @ ../ThirdParty/STM32F4xx_HAL_Driver/Src/stm32f4xx_hal_pcd.c:655:13
	ldr	r0, [sp, #36]
	.loc	6 655 26 is_stmt 0              @ ../ThirdParty/STM32F4xx_HAL_Driver/Src/stm32f4xx_hal_pcd.c:655:26
	ldr	r1, [sp, #8]
	.loc	6 655 31                        @ ../ThirdParty/STM32F4xx_HAL_Driver/Src/stm32f4xx_hal_pcd.c:655:31
	and	r1, r1, #15
	.loc	6 655 13                        @ ../ThirdParty/STM32F4xx_HAL_Driver/Src/stm32f4xx_hal_pcd.c:655:13
	rsb	r1, r1, r1, lsl #3
	.loc	6 655 19                        @ ../ThirdParty/STM32F4xx_HAL_Driver/Src/stm32f4xx_hal_pcd.c:655:19
	add.w	r0, r0, r1, lsl #2
	.loc	6 655 13                        @ ../ThirdParty/STM32F4xx_HAL_Driver/Src/stm32f4xx_hal_pcd.c:655:13
	add.w	r0, r0, #504
	.loc	6 655 10                        @ ../ThirdParty/STM32F4xx_HAL_Driver/Src/stm32f4xx_hal_pcd.c:655:10
	str	r0, [sp, #4]
.Ltmp174:
	.loc	6 657 12 is_stmt 1              @ ../ThirdParty/STM32F4xx_HAL_Driver/Src/stm32f4xx_hal_pcd.c:657:12
	ldr	r0, [sp, #8]
	.loc	6 657 17 is_stmt 0              @ ../ThirdParty/STM32F4xx_HAL_Driver/Src/stm32f4xx_hal_pcd.c:657:17
	and	r1, r0, #1966080
	movs	r0, #2
.Ltmp175:
	.loc	6 657 10                        @ ../ThirdParty/STM32F4xx_HAL_Driver/Src/stm32f4xx_hal_pcd.c:657:10
	cmp.w	r0, r1, lsr #17
	bne	.LBB6_112
	b	.LBB6_109
.LBB6_109:
.Ltmp176:
	.loc	6 659 12 is_stmt 1              @ ../ThirdParty/STM32F4xx_HAL_Driver/Src/stm32f4xx_hal_pcd.c:659:12
	ldrh.w	r0, [sp, #8]
	movw	r1, #32752
	tst	r0, r1
	beq	.LBB6_111
	b	.LBB6_110
.LBB6_110:
.Ltmp177:
	.loc	6 661 26                        @ ../ThirdParty/STM32F4xx_HAL_Driver/Src/stm32f4xx_hal_pcd.c:661:26
	ldr	r0, [sp, #32]
	.loc	6 661 32 is_stmt 0              @ ../ThirdParty/STM32F4xx_HAL_Driver/Src/stm32f4xx_hal_pcd.c:661:32
	ldr	r1, [sp, #4]
	.loc	6 661 36                        @ ../ThirdParty/STM32F4xx_HAL_Driver/Src/stm32f4xx_hal_pcd.c:661:36
	ldr	r1, [r1, #12]
	.loc	6 661 48                        @ ../ThirdParty/STM32F4xx_HAL_Driver/Src/stm32f4xx_hal_pcd.c:661:48
	ldr	r2, [sp, #8]
	.loc	6 661 77                        @ ../ThirdParty/STM32F4xx_HAL_Driver/Src/stm32f4xx_hal_pcd.c:661:77
	ubfx	r2, r2, #4, #11
	.loc	6 661 11                        @ ../ThirdParty/STM32F4xx_HAL_Driver/Src/stm32f4xx_hal_pcd.c:661:11
	bl	USB_ReadPacket
	.loc	6 662 29 is_stmt 1              @ ../ThirdParty/STM32F4xx_HAL_Driver/Src/stm32f4xx_hal_pcd.c:662:29
	ldr	r0, [sp, #8]
	movw	r1, #32752
	.loc	6 662 34 is_stmt 0              @ ../ThirdParty/STM32F4xx_HAL_Driver/Src/stm32f4xx_hal_pcd.c:662:34
	and.w	r3, r0, r1
	.loc	6 662 11                        @ ../ThirdParty/STM32F4xx_HAL_Driver/Src/stm32f4xx_hal_pcd.c:662:11
	ldr	r2, [sp, #4]
	.loc	6 662 25                        @ ../ThirdParty/STM32F4xx_HAL_Driver/Src/stm32f4xx_hal_pcd.c:662:25
	ldr	r0, [r2, #12]
	add.w	r0, r0, r3, lsr #4
	str	r0, [r2, #12]
	.loc	6 663 30 is_stmt 1              @ ../ThirdParty/STM32F4xx_HAL_Driver/Src/stm32f4xx_hal_pcd.c:663:30
	ldr	r0, [sp, #8]
	.loc	6 663 35 is_stmt 0              @ ../ThirdParty/STM32F4xx_HAL_Driver/Src/stm32f4xx_hal_pcd.c:663:35
	and.w	r2, r0, r1
	.loc	6 663 11                        @ ../ThirdParty/STM32F4xx_HAL_Driver/Src/stm32f4xx_hal_pcd.c:663:11
	ldr	r1, [sp, #4]
	.loc	6 663 26                        @ ../ThirdParty/STM32F4xx_HAL_Driver/Src/stm32f4xx_hal_pcd.c:663:26
	ldr	r0, [r1, #24]
	add.w	r0, r0, r2, lsr #4
	str	r0, [r1, #24]
	.loc	6 664 9 is_stmt 1               @ ../ThirdParty/STM32F4xx_HAL_Driver/Src/stm32f4xx_hal_pcd.c:664:9
	b	.LBB6_111
.Ltmp178:
.LBB6_111:
	.loc	6 665 7                         @ ../ThirdParty/STM32F4xx_HAL_Driver/Src/stm32f4xx_hal_pcd.c:665:7
	b	.LBB6_115
.Ltmp179:
.LBB6_112:
	.loc	6 666 18                        @ ../ThirdParty/STM32F4xx_HAL_Driver/Src/stm32f4xx_hal_pcd.c:666:18
	ldr	r0, [sp, #8]
	.loc	6 666 23 is_stmt 0              @ ../ThirdParty/STM32F4xx_HAL_Driver/Src/stm32f4xx_hal_pcd.c:666:23
	and	r1, r0, #1966080
	movs	r0, #6
.Ltmp180:
	.loc	6 666 16                        @ ../ThirdParty/STM32F4xx_HAL_Driver/Src/stm32f4xx_hal_pcd.c:666:16
	cmp.w	r0, r1, lsr #17
	bne	.LBB6_114
	b	.LBB6_113
.LBB6_113:
.Ltmp181:
	.loc	6 668 24 is_stmt 1              @ ../ThirdParty/STM32F4xx_HAL_Driver/Src/stm32f4xx_hal_pcd.c:668:24
	ldr	r0, [sp, #32]
	.loc	6 668 41 is_stmt 0              @ ../ThirdParty/STM32F4xx_HAL_Driver/Src/stm32f4xx_hal_pcd.c:668:41
	ldr	r1, [sp, #36]
	.loc	6 668 47                        @ ../ThirdParty/STM32F4xx_HAL_Driver/Src/stm32f4xx_hal_pcd.c:668:47
	add.w	r1, r1, #956
	movs	r2, #8
	.loc	6 668 9                         @ ../ThirdParty/STM32F4xx_HAL_Driver/Src/stm32f4xx_hal_pcd.c:668:9
	bl	USB_ReadPacket
	.loc	6 669 28 is_stmt 1              @ ../ThirdParty/STM32F4xx_HAL_Driver/Src/stm32f4xx_hal_pcd.c:669:28
	ldr	r0, [sp, #8]
	movw	r1, #32752
	.loc	6 669 33 is_stmt 0              @ ../ThirdParty/STM32F4xx_HAL_Driver/Src/stm32f4xx_hal_pcd.c:669:33
	and.w	r2, r0, r1
	.loc	6 669 9                         @ ../ThirdParty/STM32F4xx_HAL_Driver/Src/stm32f4xx_hal_pcd.c:669:9
	ldr	r1, [sp, #4]
	.loc	6 669 24                        @ ../ThirdParty/STM32F4xx_HAL_Driver/Src/stm32f4xx_hal_pcd.c:669:24
	ldr	r0, [r1, #24]
	add.w	r0, r0, r2, lsr #4
	str	r0, [r1, #24]
	.loc	6 670 7 is_stmt 1               @ ../ThirdParty/STM32F4xx_HAL_Driver/Src/stm32f4xx_hal_pcd.c:670:7
	b	.LBB6_114
.Ltmp182:
.LBB6_114:
	.loc	6 0 7 is_stmt 0                 @ ../ThirdParty/STM32F4xx_HAL_Driver/Src/stm32f4xx_hal_pcd.c:0:7
	b	.LBB6_115
.LBB6_115:
	.loc	6 671 7 is_stmt 1               @ ../ThirdParty/STM32F4xx_HAL_Driver/Src/stm32f4xx_hal_pcd.c:671:7
	ldr	r0, [sp, #36]
	ldr	r1, [r0]
	ldr	r0, [r1, #24]
	orr	r0, r0, #16
	str	r0, [r1, #24]
	.loc	6 672 5                         @ ../ThirdParty/STM32F4xx_HAL_Driver/Src/stm32f4xx_hal_pcd.c:672:5
	b	.LBB6_116
.Ltmp183:
.LBB6_116:
	.loc	6 675 8                         @ ../ThirdParty/STM32F4xx_HAL_Driver/Src/stm32f4xx_hal_pcd.c:675:8
	ldr	r0, [sp, #36]
	ldr	r0, [r0]
	bl	USB_ReadInterrupts
.Ltmp184:
	.loc	6 675 8 is_stmt 0               @ ../ThirdParty/STM32F4xx_HAL_Driver/Src/stm32f4xx_hal_pcd.c:675:8
	lsls	r0, r0, #28
	cmp	r0, #0
	bpl	.LBB6_118
	b	.LBB6_117
.LBB6_117:
.Ltmp185:
	.loc	6 677 27 is_stmt 1              @ ../ThirdParty/STM32F4xx_HAL_Driver/Src/stm32f4xx_hal_pcd.c:677:27
	ldr	r0, [sp, #36]
	.loc	6 677 7 is_stmt 0               @ ../ThirdParty/STM32F4xx_HAL_Driver/Src/stm32f4xx_hal_pcd.c:677:7
	bl	HAL_PCD_SOFCallback
	.loc	6 678 7 is_stmt 1               @ ../ThirdParty/STM32F4xx_HAL_Driver/Src/stm32f4xx_hal_pcd.c:678:7
	ldr	r0, [sp, #36]
	ldr	r1, [r0]
	ldr	r0, [r1, #20]
	and	r0, r0, #8
	str	r0, [r1, #20]
	.loc	6 679 5                         @ ../ThirdParty/STM32F4xx_HAL_Driver/Src/stm32f4xx_hal_pcd.c:679:5
	b	.LBB6_118
.Ltmp186:
.LBB6_118:
	.loc	6 682 8                         @ ../ThirdParty/STM32F4xx_HAL_Driver/Src/stm32f4xx_hal_pcd.c:682:8
	ldr	r0, [sp, #36]
	ldr	r0, [r0]
	bl	USB_ReadInterrupts
.Ltmp187:
	.loc	6 682 8 is_stmt 0               @ ../ThirdParty/STM32F4xx_HAL_Driver/Src/stm32f4xx_hal_pcd.c:682:8
	lsls	r0, r0, #11
	cmp	r0, #0
	bpl	.LBB6_120
	b	.LBB6_119
.LBB6_119:
.Ltmp188:
	.loc	6 684 39 is_stmt 1              @ ../ThirdParty/STM32F4xx_HAL_Driver/Src/stm32f4xx_hal_pcd.c:684:39
	ldr	r0, [sp, #36]
	.loc	6 684 45 is_stmt 0              @ ../ThirdParty/STM32F4xx_HAL_Driver/Src/stm32f4xx_hal_pcd.c:684:45
	ldrb.w	r1, [sp, #16]
	.loc	6 684 7                         @ ../ThirdParty/STM32F4xx_HAL_Driver/Src/stm32f4xx_hal_pcd.c:684:7
	bl	HAL_PCD_ISOINIncompleteCallback
	.loc	6 685 7 is_stmt 1               @ ../ThirdParty/STM32F4xx_HAL_Driver/Src/stm32f4xx_hal_pcd.c:685:7
	ldr	r0, [sp, #36]
	ldr	r1, [r0]
	ldr	r0, [r1, #20]
	and	r0, r0, #1048576
	str	r0, [r1, #20]
	.loc	6 686 5                         @ ../ThirdParty/STM32F4xx_HAL_Driver/Src/stm32f4xx_hal_pcd.c:686:5
	b	.LBB6_120
.Ltmp189:
.LBB6_120:
	.loc	6 689 8                         @ ../ThirdParty/STM32F4xx_HAL_Driver/Src/stm32f4xx_hal_pcd.c:689:8
	ldr	r0, [sp, #36]
	ldr	r0, [r0]
	bl	USB_ReadInterrupts
.Ltmp190:
	.loc	6 689 8 is_stmt 0               @ ../ThirdParty/STM32F4xx_HAL_Driver/Src/stm32f4xx_hal_pcd.c:689:8
	lsls	r0, r0, #10
	cmp	r0, #0
	bpl	.LBB6_122
	b	.LBB6_121
.LBB6_121:
.Ltmp191:
	.loc	6 691 40 is_stmt 1              @ ../ThirdParty/STM32F4xx_HAL_Driver/Src/stm32f4xx_hal_pcd.c:691:40
	ldr	r0, [sp, #36]
	.loc	6 691 46 is_stmt 0              @ ../ThirdParty/STM32F4xx_HAL_Driver/Src/stm32f4xx_hal_pcd.c:691:46
	ldrb.w	r1, [sp, #16]
	.loc	6 691 7                         @ ../ThirdParty/STM32F4xx_HAL_Driver/Src/stm32f4xx_hal_pcd.c:691:7
	bl	HAL_PCD_ISOOUTIncompleteCallback
	.loc	6 692 7 is_stmt 1               @ ../ThirdParty/STM32F4xx_HAL_Driver/Src/stm32f4xx_hal_pcd.c:692:7
	ldr	r0, [sp, #36]
	ldr	r1, [r0]
	ldr	r0, [r1, #20]
	and	r0, r0, #2097152
	str	r0, [r1, #20]
	.loc	6 693 5                         @ ../ThirdParty/STM32F4xx_HAL_Driver/Src/stm32f4xx_hal_pcd.c:693:5
	b	.LBB6_122
.Ltmp192:
.LBB6_122:
	.loc	6 696 8                         @ ../ThirdParty/STM32F4xx_HAL_Driver/Src/stm32f4xx_hal_pcd.c:696:8
	ldr	r0, [sp, #36]
	ldr	r0, [r0]
	bl	USB_ReadInterrupts
.Ltmp193:
	.loc	6 696 8 is_stmt 0               @ ../ThirdParty/STM32F4xx_HAL_Driver/Src/stm32f4xx_hal_pcd.c:696:8
	lsls	r0, r0, #1
	cmp	r0, #0
	bpl	.LBB6_124
	b	.LBB6_123
.LBB6_123:
.Ltmp194:
	.loc	6 698 31 is_stmt 1              @ ../ThirdParty/STM32F4xx_HAL_Driver/Src/stm32f4xx_hal_pcd.c:698:31
	ldr	r0, [sp, #36]
	.loc	6 698 7 is_stmt 0               @ ../ThirdParty/STM32F4xx_HAL_Driver/Src/stm32f4xx_hal_pcd.c:698:7
	bl	HAL_PCD_ConnectCallback
	.loc	6 699 7 is_stmt 1               @ ../ThirdParty/STM32F4xx_HAL_Driver/Src/stm32f4xx_hal_pcd.c:699:7
	ldr	r0, [sp, #36]
	ldr	r1, [r0]
	ldr	r0, [r1, #20]
	and	r0, r0, #1073741824
	str	r0, [r1, #20]
	.loc	6 700 5                         @ ../ThirdParty/STM32F4xx_HAL_Driver/Src/stm32f4xx_hal_pcd.c:700:5
	b	.LBB6_124
.Ltmp195:
.LBB6_124:
	.loc	6 703 8                         @ ../ThirdParty/STM32F4xx_HAL_Driver/Src/stm32f4xx_hal_pcd.c:703:8
	ldr	r0, [sp, #36]
	ldr	r0, [r0]
	bl	USB_ReadInterrupts
.Ltmp196:
	.loc	6 703 8 is_stmt 0               @ ../ThirdParty/STM32F4xx_HAL_Driver/Src/stm32f4xx_hal_pcd.c:703:8
	lsls	r0, r0, #29
	cmp	r0, #0
	bpl	.LBB6_128
	b	.LBB6_125
.LBB6_125:
.Ltmp197:
	.loc	6 705 14 is_stmt 1              @ ../ThirdParty/STM32F4xx_HAL_Driver/Src/stm32f4xx_hal_pcd.c:705:14
	ldr	r0, [sp, #36]
	.loc	6 705 20 is_stmt 0              @ ../ThirdParty/STM32F4xx_HAL_Driver/Src/stm32f4xx_hal_pcd.c:705:20
	ldr	r0, [r0]
	.loc	6 705 30                        @ ../ThirdParty/STM32F4xx_HAL_Driver/Src/stm32f4xx_hal_pcd.c:705:30
	ldr	r0, [r0, #4]
	.loc	6 705 12                        @ ../ThirdParty/STM32F4xx_HAL_Driver/Src/stm32f4xx_hal_pcd.c:705:12
	str	r0, [sp, #8]
	.loc	6 707 10 is_stmt 1              @ ../ThirdParty/STM32F4xx_HAL_Driver/Src/stm32f4xx_hal_pcd.c:707:10
	ldrb.w	r0, [sp, #8]
	lsls	r0, r0, #29
	cmp	r0, #0
	bpl	.LBB6_127
	b	.LBB6_126
.LBB6_126:
.Ltmp198:
	.loc	6 709 36                        @ ../ThirdParty/STM32F4xx_HAL_Driver/Src/stm32f4xx_hal_pcd.c:709:36
	ldr	r0, [sp, #36]
	.loc	6 709 9 is_stmt 0               @ ../ThirdParty/STM32F4xx_HAL_Driver/Src/stm32f4xx_hal_pcd.c:709:9
	bl	HAL_PCD_DisconnectCallback
	.loc	6 710 7 is_stmt 1               @ ../ThirdParty/STM32F4xx_HAL_Driver/Src/stm32f4xx_hal_pcd.c:710:7
	b	.LBB6_127
.Ltmp199:
.LBB6_127:
	.loc	6 711 34                        @ ../ThirdParty/STM32F4xx_HAL_Driver/Src/stm32f4xx_hal_pcd.c:711:34
	ldr	r2, [sp, #8]
	.loc	6 711 7 is_stmt 0               @ ../ThirdParty/STM32F4xx_HAL_Driver/Src/stm32f4xx_hal_pcd.c:711:7
	ldr	r0, [sp, #36]
	.loc	6 711 13                        @ ../ThirdParty/STM32F4xx_HAL_Driver/Src/stm32f4xx_hal_pcd.c:711:13
	ldr	r1, [r0]
	.loc	6 711 31                        @ ../ThirdParty/STM32F4xx_HAL_Driver/Src/stm32f4xx_hal_pcd.c:711:31
	ldr	r0, [r1, #4]
	orrs	r0, r2
	str	r0, [r1, #4]
	.loc	6 712 5 is_stmt 1               @ ../ThirdParty/STM32F4xx_HAL_Driver/Src/stm32f4xx_hal_pcd.c:712:5
	b	.LBB6_128
.Ltmp200:
.LBB6_128:
	.loc	6 713 3                         @ ../ThirdParty/STM32F4xx_HAL_Driver/Src/stm32f4xx_hal_pcd.c:713:3
	b	.LBB6_129
.Ltmp201:
.LBB6_129:
	.loc	6 714 1 epilogue_begin          @ ../ThirdParty/STM32F4xx_HAL_Driver/Src/stm32f4xx_hal_pcd.c:714:1
	add	sp, #40
	pop	{r7, pc}
.Ltmp202:
.Lfunc_end6:
	.size	HAL_PCD_IRQHandler, .Lfunc_end6-HAL_PCD_IRQHandler
	.cfi_endproc
	.cantunwind
	.fnend
                                        @ -- End function
	.section	.text.HAL_PCD_DataOutStageCallback,"ax",%progbits
	.hidden	HAL_PCD_DataOutStageCallback    @ -- Begin function HAL_PCD_DataOutStageCallback
	.weak	HAL_PCD_DataOutStageCallback
	.p2align	2
	.type	HAL_PCD_DataOutStageCallback,%function
	.code	16                              @ @HAL_PCD_DataOutStageCallback
	.thumb_func
HAL_PCD_DataOutStageCallback:
.Lfunc_begin7:
	.loc	6 723 0                         @ ../ThirdParty/STM32F4xx_HAL_Driver/Src/stm32f4xx_hal_pcd.c:723:0
	.fnstart
	.cfi_startproc
@ %bb.0:
	.pad	#8
	sub	sp, #8
	.cfi_def_cfa_offset 8
                                        @ kill: def $r2 killed $r1
	str	r0, [sp, #4]
	strb.w	r1, [sp, #3]
.Ltmp203:
	.loc	6 730 1 prologue_end epilogue_begin @ ../ThirdParty/STM32F4xx_HAL_Driver/Src/stm32f4xx_hal_pcd.c:730:1
	add	sp, #8
	bx	lr
.Ltmp204:
.Lfunc_end7:
	.size	HAL_PCD_DataOutStageCallback, .Lfunc_end7-HAL_PCD_DataOutStageCallback
	.cfi_endproc
	.cantunwind
	.fnend
                                        @ -- End function
	.section	.text.HAL_PCD_SetupStageCallback,"ax",%progbits
	.hidden	HAL_PCD_SetupStageCallback      @ -- Begin function HAL_PCD_SetupStageCallback
	.weak	HAL_PCD_SetupStageCallback
	.p2align	2
	.type	HAL_PCD_SetupStageCallback,%function
	.code	16                              @ @HAL_PCD_SetupStageCallback
	.thumb_func
HAL_PCD_SetupStageCallback:
.Lfunc_begin8:
	.loc	6 753 0                         @ ../ThirdParty/STM32F4xx_HAL_Driver/Src/stm32f4xx_hal_pcd.c:753:0
	.fnstart
	.cfi_startproc
@ %bb.0:
	.pad	#4
	sub	sp, #4
	.cfi_def_cfa_offset 4
	str	r0, [sp]
.Ltmp205:
	.loc	6 759 1 prologue_end epilogue_begin @ ../ThirdParty/STM32F4xx_HAL_Driver/Src/stm32f4xx_hal_pcd.c:759:1
	add	sp, #4
	bx	lr
.Ltmp206:
.Lfunc_end8:
	.size	HAL_PCD_SetupStageCallback, .Lfunc_end8-HAL_PCD_SetupStageCallback
	.cfi_endproc
	.cantunwind
	.fnend
                                        @ -- End function
	.section	.text.HAL_PCD_DataInStageCallback,"ax",%progbits
	.hidden	HAL_PCD_DataInStageCallback     @ -- Begin function HAL_PCD_DataInStageCallback
	.weak	HAL_PCD_DataInStageCallback
	.p2align	2
	.type	HAL_PCD_DataInStageCallback,%function
	.code	16                              @ @HAL_PCD_DataInStageCallback
	.thumb_func
HAL_PCD_DataInStageCallback:
.Lfunc_begin9:
	.loc	6 739 0                         @ ../ThirdParty/STM32F4xx_HAL_Driver/Src/stm32f4xx_hal_pcd.c:739:0
	.fnstart
	.cfi_startproc
@ %bb.0:
	.pad	#8
	sub	sp, #8
	.cfi_def_cfa_offset 8
                                        @ kill: def $r2 killed $r1
	str	r0, [sp, #4]
	strb.w	r1, [sp, #3]
.Ltmp207:
	.loc	6 746 1 prologue_end epilogue_begin @ ../ThirdParty/STM32F4xx_HAL_Driver/Src/stm32f4xx_hal_pcd.c:746:1
	add	sp, #8
	bx	lr
.Ltmp208:
.Lfunc_end9:
	.size	HAL_PCD_DataInStageCallback, .Lfunc_end9-HAL_PCD_DataInStageCallback
	.cfi_endproc
	.cantunwind
	.fnend
                                        @ -- End function
	.section	.text.PCD_WriteEmptyTxFifo,"ax",%progbits
	.p2align	2                               @ -- Begin function PCD_WriteEmptyTxFifo
	.type	PCD_WriteEmptyTxFifo,%function
	.code	16                              @ @PCD_WriteEmptyTxFifo
	.thumb_func
PCD_WriteEmptyTxFifo:
.Lfunc_begin10:
	.loc	6 1261 0                        @ ../ThirdParty/STM32F4xx_HAL_Driver/Src/stm32f4xx_hal_pcd.c:1261:0
	.fnstart
	.cfi_startproc
@ %bb.0:
	.save	{r7, lr}
	push	{r7, lr}
	.cfi_def_cfa_offset 8
	.cfi_offset lr, -4
	.cfi_offset r7, -8
	.pad	#40
	sub	sp, #40
	.cfi_def_cfa_offset 48
	str	r0, [sp, #36]
	str	r1, [sp, #32]
.Ltmp209:
	.loc	6 1262 33 prologue_end          @ ../ThirdParty/STM32F4xx_HAL_Driver/Src/stm32f4xx_hal_pcd.c:1262:33
	ldr	r0, [sp, #36]
	.loc	6 1262 39 is_stmt 0             @ ../ThirdParty/STM32F4xx_HAL_Driver/Src/stm32f4xx_hal_pcd.c:1262:39
	ldr	r0, [r0]
	.loc	6 1262 26                       @ ../ThirdParty/STM32F4xx_HAL_Driver/Src/stm32f4xx_hal_pcd.c:1262:26
	str	r0, [sp, #28]
	movs	r0, #0
	.loc	6 1264 11 is_stmt 1             @ ../ThirdParty/STM32F4xx_HAL_Driver/Src/stm32f4xx_hal_pcd.c:1264:11
	str	r0, [sp, #20]
	.loc	6 1266 12                       @ ../ThirdParty/STM32F4xx_HAL_Driver/Src/stm32f4xx_hal_pcd.c:1266:12
	str	r0, [sp, #12]
	.loc	6 1268 9                        @ ../ThirdParty/STM32F4xx_HAL_Driver/Src/stm32f4xx_hal_pcd.c:1268:9
	ldr	r0, [sp, #36]
	.loc	6 1268 21 is_stmt 0             @ ../ThirdParty/STM32F4xx_HAL_Driver/Src/stm32f4xx_hal_pcd.c:1268:21
	ldr	r1, [sp, #32]
	.loc	6 1268 9                        @ ../ThirdParty/STM32F4xx_HAL_Driver/Src/stm32f4xx_hal_pcd.c:1268:9
	rsb	r1, r1, r1, lsl #3
	.loc	6 1268 15                       @ ../ThirdParty/STM32F4xx_HAL_Driver/Src/stm32f4xx_hal_pcd.c:1268:15
	add.w	r0, r0, r1, lsl #2
	.loc	6 1268 9                        @ ../ThirdParty/STM32F4xx_HAL_Driver/Src/stm32f4xx_hal_pcd.c:1268:9
	adds	r0, #56
	.loc	6 1268 6                        @ ../ThirdParty/STM32F4xx_HAL_Driver/Src/stm32f4xx_hal_pcd.c:1268:6
	str	r0, [sp, #24]
	.loc	6 1269 9 is_stmt 1              @ ../ThirdParty/STM32F4xx_HAL_Driver/Src/stm32f4xx_hal_pcd.c:1269:9
	ldr	r1, [sp, #24]
	.loc	6 1269 13 is_stmt 0             @ ../ThirdParty/STM32F4xx_HAL_Driver/Src/stm32f4xx_hal_pcd.c:1269:13
	ldr	r0, [r1, #20]
	.loc	6 1269 28                       @ ../ThirdParty/STM32F4xx_HAL_Driver/Src/stm32f4xx_hal_pcd.c:1269:28
	ldr	r1, [r1, #24]
	.loc	6 1269 22                       @ ../ThirdParty/STM32F4xx_HAL_Driver/Src/stm32f4xx_hal_pcd.c:1269:22
	subs	r0, r0, r1
	.loc	6 1269 7                        @ ../ThirdParty/STM32F4xx_HAL_Driver/Src/stm32f4xx_hal_pcd.c:1269:7
	str	r0, [sp, #20]
.Ltmp210:
	.loc	6 1271 7 is_stmt 1              @ ../ThirdParty/STM32F4xx_HAL_Driver/Src/stm32f4xx_hal_pcd.c:1271:7
	ldr	r0, [sp, #20]
	.loc	6 1271 13 is_stmt 0             @ ../ThirdParty/STM32F4xx_HAL_Driver/Src/stm32f4xx_hal_pcd.c:1271:13
	ldr	r1, [sp, #24]
	.loc	6 1271 17                       @ ../ThirdParty/STM32F4xx_HAL_Driver/Src/stm32f4xx_hal_pcd.c:1271:17
	ldr	r1, [r1, #8]
.Ltmp211:
	.loc	6 1271 7                        @ ../ThirdParty/STM32F4xx_HAL_Driver/Src/stm32f4xx_hal_pcd.c:1271:7
	cmp	r0, r1
	bls	.LBB10_2
	b	.LBB10_1
.LBB10_1:
.Ltmp212:
	.loc	6 1273 11 is_stmt 1             @ ../ThirdParty/STM32F4xx_HAL_Driver/Src/stm32f4xx_hal_pcd.c:1273:11
	ldr	r0, [sp, #24]
	.loc	6 1273 15 is_stmt 0             @ ../ThirdParty/STM32F4xx_HAL_Driver/Src/stm32f4xx_hal_pcd.c:1273:15
	ldr	r0, [r0, #8]
	.loc	6 1273 9                        @ ../ThirdParty/STM32F4xx_HAL_Driver/Src/stm32f4xx_hal_pcd.c:1273:9
	str	r0, [sp, #20]
	.loc	6 1274 3 is_stmt 1              @ ../ThirdParty/STM32F4xx_HAL_Driver/Src/stm32f4xx_hal_pcd.c:1274:3
	b	.LBB10_2
.Ltmp213:
.LBB10_2:
	.loc	6 1277 13                       @ ../ThirdParty/STM32F4xx_HAL_Driver/Src/stm32f4xx_hal_pcd.c:1277:13
	ldr	r0, [sp, #20]
	.loc	6 1277 17 is_stmt 0             @ ../ThirdParty/STM32F4xx_HAL_Driver/Src/stm32f4xx_hal_pcd.c:1277:17
	adds	r0, #3
	.loc	6 1277 23                       @ ../ThirdParty/STM32F4xx_HAL_Driver/Src/stm32f4xx_hal_pcd.c:1277:23
	lsrs	r0, r0, #2
	.loc	6 1277 10                       @ ../ThirdParty/STM32F4xx_HAL_Driver/Src/stm32f4xx_hal_pcd.c:1277:10
	str	r0, [sp, #16]
	.loc	6 1279 3 is_stmt 1              @ ../ThirdParty/STM32F4xx_HAL_Driver/Src/stm32f4xx_hal_pcd.c:1279:3
	b	.LBB10_3
.LBB10_3:                               @ =>This Inner Loop Header: Depth=1
	.loc	6 1279 13 is_stmt 0             @ ../ThirdParty/STM32F4xx_HAL_Driver/Src/stm32f4xx_hal_pcd.c:1279:13
	ldr	r0, [sp, #28]
	ldr	r1, [sp, #32]
	add.w	r0, r0, r1, lsl #5
	.loc	6 1279 31                       @ ../ThirdParty/STM32F4xx_HAL_Driver/Src/stm32f4xx_hal_pcd.c:1279:31
	ldr.w	r0, [r0, #2328]
	.loc	6 1279 39                       @ ../ThirdParty/STM32F4xx_HAL_Driver/Src/stm32f4xx_hal_pcd.c:1279:39
	uxth	r1, r0
	.loc	6 1279 70                       @ ../ThirdParty/STM32F4xx_HAL_Driver/Src/stm32f4xx_hal_pcd.c:1279:70
	ldr	r2, [sp, #16]
	movs	r0, #0
	.loc	6 1279 78                       @ ../ThirdParty/STM32F4xx_HAL_Driver/Src/stm32f4xx_hal_pcd.c:1279:78
	cmp	r1, r2
	str	r0, [sp, #8]                    @ 4-byte Spill
	bls	.LBB10_6
	b	.LBB10_4
.LBB10_4:                               @   in Loop: Header=BB10_3 Depth=1
	.loc	6 1280 12 is_stmt 1             @ ../ThirdParty/STM32F4xx_HAL_Driver/Src/stm32f4xx_hal_pcd.c:1280:12
	ldr	r0, [sp, #24]
	.loc	6 1280 33 is_stmt 0             @ ../ThirdParty/STM32F4xx_HAL_Driver/Src/stm32f4xx_hal_pcd.c:1280:33
	ldr	r2, [r0, #20]
	.loc	6 1280 16                       @ ../ThirdParty/STM32F4xx_HAL_Driver/Src/stm32f4xx_hal_pcd.c:1280:16
	ldr	r1, [r0, #24]
	movs	r0, #0
	.loc	6 1280 43                       @ ../ThirdParty/STM32F4xx_HAL_Driver/Src/stm32f4xx_hal_pcd.c:1280:43
	cmp	r1, r2
	str	r0, [sp, #8]                    @ 4-byte Spill
	bhs	.LBB10_6
	b	.LBB10_5
.LBB10_5:                               @   in Loop: Header=BB10_3 Depth=1
	.loc	6 1281 14 is_stmt 1             @ ../ThirdParty/STM32F4xx_HAL_Driver/Src/stm32f4xx_hal_pcd.c:1281:14
	ldr	r0, [sp, #24]
	.loc	6 1281 18 is_stmt 0             @ ../ThirdParty/STM32F4xx_HAL_Driver/Src/stm32f4xx_hal_pcd.c:1281:18
	ldr	r0, [r0, #20]
	.loc	6 1281 27                       @ ../ThirdParty/STM32F4xx_HAL_Driver/Src/stm32f4xx_hal_pcd.c:1281:27
	cmp	r0, #0
	it	ne
	movne	r0, #1
	str	r0, [sp, #8]                    @ 4-byte Spill
	b	.LBB10_6
.LBB10_6:                               @   in Loop: Header=BB10_3 Depth=1
	.loc	6 0 0                           @ ../ThirdParty/STM32F4xx_HAL_Driver/Src/stm32f4xx_hal_pcd.c:0:0
	ldr	r0, [sp, #8]                    @ 4-byte Reload
	.loc	6 1279 3 is_stmt 1              @ ../ThirdParty/STM32F4xx_HAL_Driver/Src/stm32f4xx_hal_pcd.c:1279:3
	lsls	r0, r0, #31
	cbz	r0, .LBB10_10
	b	.LBB10_7
.LBB10_7:                               @   in Loop: Header=BB10_3 Depth=1
.Ltmp214:
	.loc	6 1284 11                       @ ../ThirdParty/STM32F4xx_HAL_Driver/Src/stm32f4xx_hal_pcd.c:1284:11
	ldr	r1, [sp, #24]
	.loc	6 1284 15 is_stmt 0             @ ../ThirdParty/STM32F4xx_HAL_Driver/Src/stm32f4xx_hal_pcd.c:1284:15
	ldr	r0, [r1, #20]
	.loc	6 1284 30                       @ ../ThirdParty/STM32F4xx_HAL_Driver/Src/stm32f4xx_hal_pcd.c:1284:30
	ldr	r1, [r1, #24]
	.loc	6 1284 24                       @ ../ThirdParty/STM32F4xx_HAL_Driver/Src/stm32f4xx_hal_pcd.c:1284:24
	subs	r0, r0, r1
	.loc	6 1284 9                        @ ../ThirdParty/STM32F4xx_HAL_Driver/Src/stm32f4xx_hal_pcd.c:1284:9
	str	r0, [sp, #20]
.Ltmp215:
	.loc	6 1286 9 is_stmt 1              @ ../ThirdParty/STM32F4xx_HAL_Driver/Src/stm32f4xx_hal_pcd.c:1286:9
	ldr	r0, [sp, #20]
	.loc	6 1286 15 is_stmt 0             @ ../ThirdParty/STM32F4xx_HAL_Driver/Src/stm32f4xx_hal_pcd.c:1286:15
	ldr	r1, [sp, #24]
	.loc	6 1286 19                       @ ../ThirdParty/STM32F4xx_HAL_Driver/Src/stm32f4xx_hal_pcd.c:1286:19
	ldr	r1, [r1, #8]
.Ltmp216:
	.loc	6 1286 9                        @ ../ThirdParty/STM32F4xx_HAL_Driver/Src/stm32f4xx_hal_pcd.c:1286:9
	cmp	r0, r1
	bls	.LBB10_9
	b	.LBB10_8
.LBB10_8:                               @   in Loop: Header=BB10_3 Depth=1
.Ltmp217:
	.loc	6 1288 13 is_stmt 1             @ ../ThirdParty/STM32F4xx_HAL_Driver/Src/stm32f4xx_hal_pcd.c:1288:13
	ldr	r0, [sp, #24]
	.loc	6 1288 17 is_stmt 0             @ ../ThirdParty/STM32F4xx_HAL_Driver/Src/stm32f4xx_hal_pcd.c:1288:17
	ldr	r0, [r0, #8]
	.loc	6 1288 11                       @ ../ThirdParty/STM32F4xx_HAL_Driver/Src/stm32f4xx_hal_pcd.c:1288:11
	str	r0, [sp, #20]
	.loc	6 1289 5 is_stmt 1              @ ../ThirdParty/STM32F4xx_HAL_Driver/Src/stm32f4xx_hal_pcd.c:1289:5
	b	.LBB10_9
.Ltmp218:
.LBB10_9:                               @   in Loop: Header=BB10_3 Depth=1
	.loc	6 1290 15                       @ ../ThirdParty/STM32F4xx_HAL_Driver/Src/stm32f4xx_hal_pcd.c:1290:15
	ldr	r0, [sp, #20]
	.loc	6 1290 19 is_stmt 0             @ ../ThirdParty/STM32F4xx_HAL_Driver/Src/stm32f4xx_hal_pcd.c:1290:19
	adds	r0, #3
	.loc	6 1290 25                       @ ../ThirdParty/STM32F4xx_HAL_Driver/Src/stm32f4xx_hal_pcd.c:1290:25
	lsrs	r0, r0, #2
	.loc	6 1290 12                       @ ../ThirdParty/STM32F4xx_HAL_Driver/Src/stm32f4xx_hal_pcd.c:1290:12
	str	r0, [sp, #16]
	.loc	6 1292 21 is_stmt 1             @ ../ThirdParty/STM32F4xx_HAL_Driver/Src/stm32f4xx_hal_pcd.c:1292:21
	ldr	r0, [sp, #28]
	.loc	6 1292 27 is_stmt 0             @ ../ThirdParty/STM32F4xx_HAL_Driver/Src/stm32f4xx_hal_pcd.c:1292:27
	ldr	r1, [sp, #24]
	.loc	6 1292 31                       @ ../ThirdParty/STM32F4xx_HAL_Driver/Src/stm32f4xx_hal_pcd.c:1292:31
	ldr	r1, [r1, #12]
	.loc	6 1292 42                       @ ../ThirdParty/STM32F4xx_HAL_Driver/Src/stm32f4xx_hal_pcd.c:1292:42
	ldrb.w	r2, [sp, #32]
	.loc	6 1292 49                       @ ../ThirdParty/STM32F4xx_HAL_Driver/Src/stm32f4xx_hal_pcd.c:1292:49
	ldrh.w	r3, [sp, #20]
	.loc	6 1292 54                       @ ../ThirdParty/STM32F4xx_HAL_Driver/Src/stm32f4xx_hal_pcd.c:1292:54
	ldr.w	r12, [sp, #36]
	.loc	6 1292 65                       @ ../ThirdParty/STM32F4xx_HAL_Driver/Src/stm32f4xx_hal_pcd.c:1292:65
	ldrb.w	r12, [r12, #16]
	.loc	6 1292 5                        @ ../ThirdParty/STM32F4xx_HAL_Driver/Src/stm32f4xx_hal_pcd.c:1292:5
	mov	lr, sp
	str.w	r12, [lr]
	bl	USB_WritePacket
	.loc	6 1294 23 is_stmt 1             @ ../ThirdParty/STM32F4xx_HAL_Driver/Src/stm32f4xx_hal_pcd.c:1294:23
	ldr	r2, [sp, #20]
	.loc	6 1294 5 is_stmt 0              @ ../ThirdParty/STM32F4xx_HAL_Driver/Src/stm32f4xx_hal_pcd.c:1294:5
	ldr	r1, [sp, #24]
	.loc	6 1294 20                       @ ../ThirdParty/STM32F4xx_HAL_Driver/Src/stm32f4xx_hal_pcd.c:1294:20
	ldr	r0, [r1, #12]
	add	r0, r2
	str	r0, [r1, #12]
	.loc	6 1295 23 is_stmt 1             @ ../ThirdParty/STM32F4xx_HAL_Driver/Src/stm32f4xx_hal_pcd.c:1295:23
	ldr	r2, [sp, #20]
	.loc	6 1295 5 is_stmt 0              @ ../ThirdParty/STM32F4xx_HAL_Driver/Src/stm32f4xx_hal_pcd.c:1295:5
	ldr	r1, [sp, #24]
	.loc	6 1295 20                       @ ../ThirdParty/STM32F4xx_HAL_Driver/Src/stm32f4xx_hal_pcd.c:1295:20
	ldr	r0, [r1, #24]
	add	r0, r2
	str	r0, [r1, #24]
.Ltmp219:
	.loc	6 1279 3 is_stmt 1              @ ../ThirdParty/STM32F4xx_HAL_Driver/Src/stm32f4xx_hal_pcd.c:1279:3
	b	.LBB10_3
.LBB10_10:
.Ltmp220:
	.loc	6 1298 6                        @ ../ThirdParty/STM32F4xx_HAL_Driver/Src/stm32f4xx_hal_pcd.c:1298:6
	ldr	r0, [sp, #20]
.Ltmp221:
	.loc	6 1298 6 is_stmt 0              @ ../ThirdParty/STM32F4xx_HAL_Driver/Src/stm32f4xx_hal_pcd.c:1298:6
	cbnz	r0, .LBB10_12
	b	.LBB10_11
.LBB10_11:
.Ltmp222:
	.loc	6 1300 28 is_stmt 1             @ ../ThirdParty/STM32F4xx_HAL_Driver/Src/stm32f4xx_hal_pcd.c:1300:28
	ldr	r1, [sp, #32]
	movs	r0, #1
	.loc	6 1300 25 is_stmt 0             @ ../ThirdParty/STM32F4xx_HAL_Driver/Src/stm32f4xx_hal_pcd.c:1300:25
	lsls	r0, r1
	.loc	6 1300 18                       @ ../ThirdParty/STM32F4xx_HAL_Driver/Src/stm32f4xx_hal_pcd.c:1300:18
	str	r0, [sp, #12]
	.loc	6 1301 33 is_stmt 1             @ ../ThirdParty/STM32F4xx_HAL_Driver/Src/stm32f4xx_hal_pcd.c:1301:33
	ldr	r2, [sp, #12]
	.loc	6 1301 5 is_stmt 0              @ ../ThirdParty/STM32F4xx_HAL_Driver/Src/stm32f4xx_hal_pcd.c:1301:5
	ldr	r1, [sp, #28]
	.loc	6 1301 29                       @ ../ThirdParty/STM32F4xx_HAL_Driver/Src/stm32f4xx_hal_pcd.c:1301:29
	ldr.w	r0, [r1, #2100]
	bics	r0, r2
	str.w	r0, [r1, #2100]
	.loc	6 1303 3 is_stmt 1              @ ../ThirdParty/STM32F4xx_HAL_Driver/Src/stm32f4xx_hal_pcd.c:1303:3
	b	.LBB10_12
.Ltmp223:
.LBB10_12:
	.loc	6 0 3 is_stmt 0                 @ ../ThirdParty/STM32F4xx_HAL_Driver/Src/stm32f4xx_hal_pcd.c:0:3
	movs	r0, #0
	.loc	6 1305 3 epilogue_begin is_stmt 1 @ ../ThirdParty/STM32F4xx_HAL_Driver/Src/stm32f4xx_hal_pcd.c:1305:3
	add	sp, #40
	pop	{r7, pc}
.Ltmp224:
.Lfunc_end10:
	.size	PCD_WriteEmptyTxFifo, .Lfunc_end10-PCD_WriteEmptyTxFifo
	.cfi_endproc
	.cantunwind
	.fnend
                                        @ -- End function
	.section	.text.HAL_PCD_ResumeCallback,"ax",%progbits
	.hidden	HAL_PCD_ResumeCallback          @ -- Begin function HAL_PCD_ResumeCallback
	.weak	HAL_PCD_ResumeCallback
	.p2align	2
	.type	HAL_PCD_ResumeCallback,%function
	.code	16                              @ @HAL_PCD_ResumeCallback
	.thumb_func
HAL_PCD_ResumeCallback:
.Lfunc_begin11:
	.loc	6 809 0                         @ ../ThirdParty/STM32F4xx_HAL_Driver/Src/stm32f4xx_hal_pcd.c:809:0
	.fnstart
	.cfi_startproc
@ %bb.0:
	.pad	#4
	sub	sp, #4
	.cfi_def_cfa_offset 4
	str	r0, [sp]
.Ltmp225:
	.loc	6 815 1 prologue_end epilogue_begin @ ../ThirdParty/STM32F4xx_HAL_Driver/Src/stm32f4xx_hal_pcd.c:815:1
	add	sp, #4
	bx	lr
.Ltmp226:
.Lfunc_end11:
	.size	HAL_PCD_ResumeCallback, .Lfunc_end11-HAL_PCD_ResumeCallback
	.cfi_endproc
	.cantunwind
	.fnend
                                        @ -- End function
	.section	.text.HAL_PCD_SuspendCallback,"ax",%progbits
	.hidden	HAL_PCD_SuspendCallback         @ -- Begin function HAL_PCD_SuspendCallback
	.weak	HAL_PCD_SuspendCallback
	.p2align	2
	.type	HAL_PCD_SuspendCallback,%function
	.code	16                              @ @HAL_PCD_SuspendCallback
	.thumb_func
HAL_PCD_SuspendCallback:
.Lfunc_begin12:
	.loc	6 795 0                         @ ../ThirdParty/STM32F4xx_HAL_Driver/Src/stm32f4xx_hal_pcd.c:795:0
	.fnstart
	.cfi_startproc
@ %bb.0:
	.pad	#4
	sub	sp, #4
	.cfi_def_cfa_offset 4
	str	r0, [sp]
.Ltmp227:
	.loc	6 801 1 prologue_end epilogue_begin @ ../ThirdParty/STM32F4xx_HAL_Driver/Src/stm32f4xx_hal_pcd.c:801:1
	add	sp, #4
	bx	lr
.Ltmp228:
.Lfunc_end12:
	.size	HAL_PCD_SuspendCallback, .Lfunc_end12-HAL_PCD_SuspendCallback
	.cfi_endproc
	.cantunwind
	.fnend
                                        @ -- End function
	.section	.text.HAL_PCD_ResetCallback,"ax",%progbits
	.hidden	HAL_PCD_ResetCallback           @ -- Begin function HAL_PCD_ResetCallback
	.weak	HAL_PCD_ResetCallback
	.p2align	2
	.type	HAL_PCD_ResetCallback,%function
	.code	16                              @ @HAL_PCD_ResetCallback
	.thumb_func
HAL_PCD_ResetCallback:
.Lfunc_begin13:
	.loc	6 781 0                         @ ../ThirdParty/STM32F4xx_HAL_Driver/Src/stm32f4xx_hal_pcd.c:781:0
	.fnstart
	.cfi_startproc
@ %bb.0:
	.pad	#4
	sub	sp, #4
	.cfi_def_cfa_offset 4
	str	r0, [sp]
.Ltmp229:
	.loc	6 787 1 prologue_end epilogue_begin @ ../ThirdParty/STM32F4xx_HAL_Driver/Src/stm32f4xx_hal_pcd.c:787:1
	add	sp, #4
	bx	lr
.Ltmp230:
.Lfunc_end13:
	.size	HAL_PCD_ResetCallback, .Lfunc_end13-HAL_PCD_ResetCallback
	.cfi_endproc
	.cantunwind
	.fnend
                                        @ -- End function
	.section	.text.HAL_PCD_SOFCallback,"ax",%progbits
	.hidden	HAL_PCD_SOFCallback             @ -- Begin function HAL_PCD_SOFCallback
	.weak	HAL_PCD_SOFCallback
	.p2align	2
	.type	HAL_PCD_SOFCallback,%function
	.code	16                              @ @HAL_PCD_SOFCallback
	.thumb_func
HAL_PCD_SOFCallback:
.Lfunc_begin14:
	.loc	6 767 0                         @ ../ThirdParty/STM32F4xx_HAL_Driver/Src/stm32f4xx_hal_pcd.c:767:0
	.fnstart
	.cfi_startproc
@ %bb.0:
	.pad	#4
	sub	sp, #4
	.cfi_def_cfa_offset 4
	str	r0, [sp]
.Ltmp231:
	.loc	6 773 1 prologue_end epilogue_begin @ ../ThirdParty/STM32F4xx_HAL_Driver/Src/stm32f4xx_hal_pcd.c:773:1
	add	sp, #4
	bx	lr
.Ltmp232:
.Lfunc_end14:
	.size	HAL_PCD_SOFCallback, .Lfunc_end14-HAL_PCD_SOFCallback
	.cfi_endproc
	.cantunwind
	.fnend
                                        @ -- End function
	.section	.text.HAL_PCD_ISOINIncompleteCallback,"ax",%progbits
	.hidden	HAL_PCD_ISOINIncompleteCallback @ -- Begin function HAL_PCD_ISOINIncompleteCallback
	.weak	HAL_PCD_ISOINIncompleteCallback
	.p2align	2
	.type	HAL_PCD_ISOINIncompleteCallback,%function
	.code	16                              @ @HAL_PCD_ISOINIncompleteCallback
	.thumb_func
HAL_PCD_ISOINIncompleteCallback:
.Lfunc_begin15:
	.loc	6 840 0                         @ ../ThirdParty/STM32F4xx_HAL_Driver/Src/stm32f4xx_hal_pcd.c:840:0
	.fnstart
	.cfi_startproc
@ %bb.0:
	.pad	#8
	sub	sp, #8
	.cfi_def_cfa_offset 8
                                        @ kill: def $r2 killed $r1
	str	r0, [sp, #4]
	strb.w	r1, [sp, #3]
.Ltmp233:
	.loc	6 847 1 prologue_end epilogue_begin @ ../ThirdParty/STM32F4xx_HAL_Driver/Src/stm32f4xx_hal_pcd.c:847:1
	add	sp, #8
	bx	lr
.Ltmp234:
.Lfunc_end15:
	.size	HAL_PCD_ISOINIncompleteCallback, .Lfunc_end15-HAL_PCD_ISOINIncompleteCallback
	.cfi_endproc
	.cantunwind
	.fnend
                                        @ -- End function
	.section	.text.HAL_PCD_ISOOUTIncompleteCallback,"ax",%progbits
	.hidden	HAL_PCD_ISOOUTIncompleteCallback @ -- Begin function HAL_PCD_ISOOUTIncompleteCallback
	.weak	HAL_PCD_ISOOUTIncompleteCallback
	.p2align	2
	.type	HAL_PCD_ISOOUTIncompleteCallback,%function
	.code	16                              @ @HAL_PCD_ISOOUTIncompleteCallback
	.thumb_func
HAL_PCD_ISOOUTIncompleteCallback:
.Lfunc_begin16:
	.loc	6 824 0                         @ ../ThirdParty/STM32F4xx_HAL_Driver/Src/stm32f4xx_hal_pcd.c:824:0
	.fnstart
	.cfi_startproc
@ %bb.0:
	.pad	#8
	sub	sp, #8
	.cfi_def_cfa_offset 8
                                        @ kill: def $r2 killed $r1
	str	r0, [sp, #4]
	strb.w	r1, [sp, #3]
.Ltmp235:
	.loc	6 831 1 prologue_end epilogue_begin @ ../ThirdParty/STM32F4xx_HAL_Driver/Src/stm32f4xx_hal_pcd.c:831:1
	add	sp, #8
	bx	lr
.Ltmp236:
.Lfunc_end16:
	.size	HAL_PCD_ISOOUTIncompleteCallback, .Lfunc_end16-HAL_PCD_ISOOUTIncompleteCallback
	.cfi_endproc
	.cantunwind
	.fnend
                                        @ -- End function
	.section	.text.HAL_PCD_ConnectCallback,"ax",%progbits
	.hidden	HAL_PCD_ConnectCallback         @ -- Begin function HAL_PCD_ConnectCallback
	.weak	HAL_PCD_ConnectCallback
	.p2align	2
	.type	HAL_PCD_ConnectCallback,%function
	.code	16                              @ @HAL_PCD_ConnectCallback
	.thumb_func
HAL_PCD_ConnectCallback:
.Lfunc_begin17:
	.loc	6 855 0                         @ ../ThirdParty/STM32F4xx_HAL_Driver/Src/stm32f4xx_hal_pcd.c:855:0
	.fnstart
	.cfi_startproc
@ %bb.0:
	.pad	#4
	sub	sp, #4
	.cfi_def_cfa_offset 4
	str	r0, [sp]
.Ltmp237:
	.loc	6 861 1 prologue_end epilogue_begin @ ../ThirdParty/STM32F4xx_HAL_Driver/Src/stm32f4xx_hal_pcd.c:861:1
	add	sp, #4
	bx	lr
.Ltmp238:
.Lfunc_end17:
	.size	HAL_PCD_ConnectCallback, .Lfunc_end17-HAL_PCD_ConnectCallback
	.cfi_endproc
	.cantunwind
	.fnend
                                        @ -- End function
	.section	.text.HAL_PCD_DisconnectCallback,"ax",%progbits
	.hidden	HAL_PCD_DisconnectCallback      @ -- Begin function HAL_PCD_DisconnectCallback
	.weak	HAL_PCD_DisconnectCallback
	.p2align	2
	.type	HAL_PCD_DisconnectCallback,%function
	.code	16                              @ @HAL_PCD_DisconnectCallback
	.thumb_func
HAL_PCD_DisconnectCallback:
.Lfunc_begin18:
	.loc	6 869 0                         @ ../ThirdParty/STM32F4xx_HAL_Driver/Src/stm32f4xx_hal_pcd.c:869:0
	.fnstart
	.cfi_startproc
@ %bb.0:
	.pad	#4
	sub	sp, #4
	.cfi_def_cfa_offset 4
	str	r0, [sp]
.Ltmp239:
	.loc	6 875 1 prologue_end epilogue_begin @ ../ThirdParty/STM32F4xx_HAL_Driver/Src/stm32f4xx_hal_pcd.c:875:1
	add	sp, #4
	bx	lr
.Ltmp240:
.Lfunc_end18:
	.size	HAL_PCD_DisconnectCallback, .Lfunc_end18-HAL_PCD_DisconnectCallback
	.cfi_endproc
	.cantunwind
	.fnend
                                        @ -- End function
	.section	.text.HAL_PCD_DevConnect,"ax",%progbits
	.hidden	HAL_PCD_DevConnect              @ -- Begin function HAL_PCD_DevConnect
	.globl	HAL_PCD_DevConnect
	.p2align	2
	.type	HAL_PCD_DevConnect,%function
	.code	16                              @ @HAL_PCD_DevConnect
	.thumb_func
HAL_PCD_DevConnect:
.Lfunc_begin19:
	.loc	6 902 0                         @ ../ThirdParty/STM32F4xx_HAL_Driver/Src/stm32f4xx_hal_pcd.c:902:0
	.fnstart
	.cfi_startproc
@ %bb.0:
	.save	{r7, lr}
	push	{r7, lr}
	.cfi_def_cfa_offset 8
	.cfi_offset lr, -4
	.cfi_offset r7, -8
	.pad	#8
	sub	sp, #8
	.cfi_def_cfa_offset 16
	str	r0, [sp]
.Ltmp241:
	.loc	6 903 3 prologue_end            @ ../ThirdParty/STM32F4xx_HAL_Driver/Src/stm32f4xx_hal_pcd.c:903:3
	b	.LBB19_1
.LBB19_1:
.Ltmp242:
	.loc	6 903 3 is_stmt 0               @ ../ThirdParty/STM32F4xx_HAL_Driver/Src/stm32f4xx_hal_pcd.c:903:3
	ldr	r0, [sp]
	ldrb.w	r0, [r0, #952]
.Ltmp243:
	.loc	6 903 3                         @ ../ThirdParty/STM32F4xx_HAL_Driver/Src/stm32f4xx_hal_pcd.c:903:3
	cmp	r0, #1
	bne	.LBB19_3
	b	.LBB19_2
.LBB19_2:
	.loc	6 0 3                           @ ../ThirdParty/STM32F4xx_HAL_Driver/Src/stm32f4xx_hal_pcd.c:0:3
	movs	r0, #2
.Ltmp244:
	.loc	6 903 3                         @ ../ThirdParty/STM32F4xx_HAL_Driver/Src/stm32f4xx_hal_pcd.c:903:3
	strb.w	r0, [sp, #7]
	b	.LBB19_8
.Ltmp245:
.LBB19_3:
	.loc	6 903 3                         @ ../ThirdParty/STM32F4xx_HAL_Driver/Src/stm32f4xx_hal_pcd.c:903:3
	ldr	r1, [sp]
	movs	r0, #1
	strb.w	r0, [r1, #952]
	b	.LBB19_4
.Ltmp246:
.LBB19_4:
	.loc	6 903 3                         @ ../ThirdParty/STM32F4xx_HAL_Driver/Src/stm32f4xx_hal_pcd.c:903:3
	b	.LBB19_5
.Ltmp247:
.LBB19_5:
	.loc	6 904 18 is_stmt 1              @ ../ThirdParty/STM32F4xx_HAL_Driver/Src/stm32f4xx_hal_pcd.c:904:18
	ldr	r0, [sp]
	.loc	6 904 24 is_stmt 0              @ ../ThirdParty/STM32F4xx_HAL_Driver/Src/stm32f4xx_hal_pcd.c:904:24
	ldr	r0, [r0]
	.loc	6 904 3                         @ ../ThirdParty/STM32F4xx_HAL_Driver/Src/stm32f4xx_hal_pcd.c:904:3
	bl	USB_DevConnect
	.loc	6 905 3 is_stmt 1               @ ../ThirdParty/STM32F4xx_HAL_Driver/Src/stm32f4xx_hal_pcd.c:905:3
	b	.LBB19_6
.LBB19_6:
.Ltmp248:
	.loc	6 905 3 is_stmt 0               @ ../ThirdParty/STM32F4xx_HAL_Driver/Src/stm32f4xx_hal_pcd.c:905:3
	ldr	r1, [sp]
	movs	r0, #0
	strb.w	r0, [r1, #952]
	b	.LBB19_7
.Ltmp249:
.LBB19_7:
	.loc	6 0 3                           @ ../ThirdParty/STM32F4xx_HAL_Driver/Src/stm32f4xx_hal_pcd.c:0:3
	movs	r0, #0
	.loc	6 906 3 is_stmt 1               @ ../ThirdParty/STM32F4xx_HAL_Driver/Src/stm32f4xx_hal_pcd.c:906:3
	strb.w	r0, [sp, #7]
	b	.LBB19_8
.LBB19_8:
	.loc	6 907 1                         @ ../ThirdParty/STM32F4xx_HAL_Driver/Src/stm32f4xx_hal_pcd.c:907:1
	ldrb.w	r0, [sp, #7]
	.loc	6 907 1 epilogue_begin is_stmt 0 @ ../ThirdParty/STM32F4xx_HAL_Driver/Src/stm32f4xx_hal_pcd.c:907:1
	add	sp, #8
	pop	{r7, pc}
.Ltmp250:
.Lfunc_end19:
	.size	HAL_PCD_DevConnect, .Lfunc_end19-HAL_PCD_DevConnect
	.cfi_endproc
	.cantunwind
	.fnend
                                        @ -- End function
	.section	.text.HAL_PCD_DevDisconnect,"ax",%progbits
	.hidden	HAL_PCD_DevDisconnect           @ -- Begin function HAL_PCD_DevDisconnect
	.globl	HAL_PCD_DevDisconnect
	.p2align	2
	.type	HAL_PCD_DevDisconnect,%function
	.code	16                              @ @HAL_PCD_DevDisconnect
	.thumb_func
HAL_PCD_DevDisconnect:
.Lfunc_begin20:
	.loc	6 915 0 is_stmt 1               @ ../ThirdParty/STM32F4xx_HAL_Driver/Src/stm32f4xx_hal_pcd.c:915:0
	.fnstart
	.cfi_startproc
@ %bb.0:
	.save	{r7, lr}
	push	{r7, lr}
	.cfi_def_cfa_offset 8
	.cfi_offset lr, -4
	.cfi_offset r7, -8
	.pad	#8
	sub	sp, #8
	.cfi_def_cfa_offset 16
	str	r0, [sp]
.Ltmp251:
	.loc	6 916 3 prologue_end            @ ../ThirdParty/STM32F4xx_HAL_Driver/Src/stm32f4xx_hal_pcd.c:916:3
	b	.LBB20_1
.LBB20_1:
.Ltmp252:
	.loc	6 916 3 is_stmt 0               @ ../ThirdParty/STM32F4xx_HAL_Driver/Src/stm32f4xx_hal_pcd.c:916:3
	ldr	r0, [sp]
	ldrb.w	r0, [r0, #952]
.Ltmp253:
	.loc	6 916 3                         @ ../ThirdParty/STM32F4xx_HAL_Driver/Src/stm32f4xx_hal_pcd.c:916:3
	cmp	r0, #1
	bne	.LBB20_3
	b	.LBB20_2
.LBB20_2:
	.loc	6 0 3                           @ ../ThirdParty/STM32F4xx_HAL_Driver/Src/stm32f4xx_hal_pcd.c:0:3
	movs	r0, #2
.Ltmp254:
	.loc	6 916 3                         @ ../ThirdParty/STM32F4xx_HAL_Driver/Src/stm32f4xx_hal_pcd.c:916:3
	strb.w	r0, [sp, #7]
	b	.LBB20_8
.Ltmp255:
.LBB20_3:
	.loc	6 916 3                         @ ../ThirdParty/STM32F4xx_HAL_Driver/Src/stm32f4xx_hal_pcd.c:916:3
	ldr	r1, [sp]
	movs	r0, #1
	strb.w	r0, [r1, #952]
	b	.LBB20_4
.Ltmp256:
.LBB20_4:
	.loc	6 916 3                         @ ../ThirdParty/STM32F4xx_HAL_Driver/Src/stm32f4xx_hal_pcd.c:916:3
	b	.LBB20_5
.Ltmp257:
.LBB20_5:
	.loc	6 917 21 is_stmt 1              @ ../ThirdParty/STM32F4xx_HAL_Driver/Src/stm32f4xx_hal_pcd.c:917:21
	ldr	r0, [sp]
	.loc	6 917 27 is_stmt 0              @ ../ThirdParty/STM32F4xx_HAL_Driver/Src/stm32f4xx_hal_pcd.c:917:27
	ldr	r0, [r0]
	.loc	6 917 3                         @ ../ThirdParty/STM32F4xx_HAL_Driver/Src/stm32f4xx_hal_pcd.c:917:3
	bl	USB_DevDisconnect
	.loc	6 918 3 is_stmt 1               @ ../ThirdParty/STM32F4xx_HAL_Driver/Src/stm32f4xx_hal_pcd.c:918:3
	b	.LBB20_6
.LBB20_6:
.Ltmp258:
	.loc	6 918 3 is_stmt 0               @ ../ThirdParty/STM32F4xx_HAL_Driver/Src/stm32f4xx_hal_pcd.c:918:3
	ldr	r1, [sp]
	movs	r0, #0
	strb.w	r0, [r1, #952]
	b	.LBB20_7
.Ltmp259:
.LBB20_7:
	.loc	6 0 3                           @ ../ThirdParty/STM32F4xx_HAL_Driver/Src/stm32f4xx_hal_pcd.c:0:3
	movs	r0, #0
	.loc	6 919 3 is_stmt 1               @ ../ThirdParty/STM32F4xx_HAL_Driver/Src/stm32f4xx_hal_pcd.c:919:3
	strb.w	r0, [sp, #7]
	b	.LBB20_8
.LBB20_8:
	.loc	6 920 1                         @ ../ThirdParty/STM32F4xx_HAL_Driver/Src/stm32f4xx_hal_pcd.c:920:1
	ldrb.w	r0, [sp, #7]
	.loc	6 920 1 epilogue_begin is_stmt 0 @ ../ThirdParty/STM32F4xx_HAL_Driver/Src/stm32f4xx_hal_pcd.c:920:1
	add	sp, #8
	pop	{r7, pc}
.Ltmp260:
.Lfunc_end20:
	.size	HAL_PCD_DevDisconnect, .Lfunc_end20-HAL_PCD_DevDisconnect
	.cfi_endproc
	.cantunwind
	.fnend
                                        @ -- End function
	.section	.text.HAL_PCD_SetAddress,"ax",%progbits
	.hidden	HAL_PCD_SetAddress              @ -- Begin function HAL_PCD_SetAddress
	.globl	HAL_PCD_SetAddress
	.p2align	2
	.type	HAL_PCD_SetAddress,%function
	.code	16                              @ @HAL_PCD_SetAddress
	.thumb_func
HAL_PCD_SetAddress:
.Lfunc_begin21:
	.loc	6 929 0 is_stmt 1               @ ../ThirdParty/STM32F4xx_HAL_Driver/Src/stm32f4xx_hal_pcd.c:929:0
	.fnstart
	.cfi_startproc
@ %bb.0:
	.save	{r7, lr}
	push	{r7, lr}
	.cfi_def_cfa_offset 8
	.cfi_offset lr, -4
	.cfi_offset r7, -8
	.pad	#16
	sub	sp, #16
	.cfi_def_cfa_offset 24
                                        @ kill: def $r2 killed $r1
	str	r0, [sp, #8]
	strb.w	r1, [sp, #7]
.Ltmp261:
	.loc	6 930 3 prologue_end            @ ../ThirdParty/STM32F4xx_HAL_Driver/Src/stm32f4xx_hal_pcd.c:930:3
	b	.LBB21_1
.LBB21_1:
.Ltmp262:
	.loc	6 930 3 is_stmt 0               @ ../ThirdParty/STM32F4xx_HAL_Driver/Src/stm32f4xx_hal_pcd.c:930:3
	ldr	r0, [sp, #8]
	ldrb.w	r0, [r0, #952]
.Ltmp263:
	.loc	6 930 3                         @ ../ThirdParty/STM32F4xx_HAL_Driver/Src/stm32f4xx_hal_pcd.c:930:3
	cmp	r0, #1
	bne	.LBB21_3
	b	.LBB21_2
.LBB21_2:
	.loc	6 0 3                           @ ../ThirdParty/STM32F4xx_HAL_Driver/Src/stm32f4xx_hal_pcd.c:0:3
	movs	r0, #2
.Ltmp264:
	.loc	6 930 3                         @ ../ThirdParty/STM32F4xx_HAL_Driver/Src/stm32f4xx_hal_pcd.c:930:3
	strb.w	r0, [sp, #15]
	b	.LBB21_8
.Ltmp265:
.LBB21_3:
	.loc	6 930 3                         @ ../ThirdParty/STM32F4xx_HAL_Driver/Src/stm32f4xx_hal_pcd.c:930:3
	ldr	r1, [sp, #8]
	movs	r0, #1
	strb.w	r0, [r1, #952]
	b	.LBB21_4
.Ltmp266:
.LBB21_4:
	.loc	6 930 3                         @ ../ThirdParty/STM32F4xx_HAL_Driver/Src/stm32f4xx_hal_pcd.c:930:3
	b	.LBB21_5
.Ltmp267:
.LBB21_5:
	.loc	6 931 21 is_stmt 1              @ ../ThirdParty/STM32F4xx_HAL_Driver/Src/stm32f4xx_hal_pcd.c:931:21
	ldr	r0, [sp, #8]
	.loc	6 931 27 is_stmt 0              @ ../ThirdParty/STM32F4xx_HAL_Driver/Src/stm32f4xx_hal_pcd.c:931:27
	ldr	r0, [r0]
	.loc	6 931 37                        @ ../ThirdParty/STM32F4xx_HAL_Driver/Src/stm32f4xx_hal_pcd.c:931:37
	ldrb.w	r1, [sp, #7]
	.loc	6 931 3                         @ ../ThirdParty/STM32F4xx_HAL_Driver/Src/stm32f4xx_hal_pcd.c:931:3
	bl	USB_SetDevAddress
	.loc	6 932 3 is_stmt 1               @ ../ThirdParty/STM32F4xx_HAL_Driver/Src/stm32f4xx_hal_pcd.c:932:3
	b	.LBB21_6
.LBB21_6:
.Ltmp268:
	.loc	6 932 3 is_stmt 0               @ ../ThirdParty/STM32F4xx_HAL_Driver/Src/stm32f4xx_hal_pcd.c:932:3
	ldr	r1, [sp, #8]
	movs	r0, #0
	strb.w	r0, [r1, #952]
	b	.LBB21_7
.Ltmp269:
.LBB21_7:
	.loc	6 0 3                           @ ../ThirdParty/STM32F4xx_HAL_Driver/Src/stm32f4xx_hal_pcd.c:0:3
	movs	r0, #0
	.loc	6 933 3 is_stmt 1               @ ../ThirdParty/STM32F4xx_HAL_Driver/Src/stm32f4xx_hal_pcd.c:933:3
	strb.w	r0, [sp, #15]
	b	.LBB21_8
.LBB21_8:
	.loc	6 934 1                         @ ../ThirdParty/STM32F4xx_HAL_Driver/Src/stm32f4xx_hal_pcd.c:934:1
	ldrb.w	r0, [sp, #15]
	.loc	6 934 1 epilogue_begin is_stmt 0 @ ../ThirdParty/STM32F4xx_HAL_Driver/Src/stm32f4xx_hal_pcd.c:934:1
	add	sp, #16
	pop	{r7, pc}
.Ltmp270:
.Lfunc_end21:
	.size	HAL_PCD_SetAddress, .Lfunc_end21-HAL_PCD_SetAddress
	.cfi_endproc
	.cantunwind
	.fnend
                                        @ -- End function
	.section	.text.HAL_PCD_EP_Open,"ax",%progbits
	.hidden	HAL_PCD_EP_Open                 @ -- Begin function HAL_PCD_EP_Open
	.globl	HAL_PCD_EP_Open
	.p2align	2
	.type	HAL_PCD_EP_Open,%function
	.code	16                              @ @HAL_PCD_EP_Open
	.thumb_func
HAL_PCD_EP_Open:
.Lfunc_begin22:
	.loc	6 944 0 is_stmt 1               @ ../ThirdParty/STM32F4xx_HAL_Driver/Src/stm32f4xx_hal_pcd.c:944:0
	.fnstart
	.cfi_startproc
@ %bb.0:
	.save	{r7, lr}
	push	{r7, lr}
	.cfi_def_cfa_offset 8
	.cfi_offset lr, -4
	.cfi_offset r7, -8
	.pad	#24
	sub	sp, #24
	.cfi_def_cfa_offset 32
                                        @ kill: def $r12 killed $r3
                                        @ kill: def $r12 killed $r2
                                        @ kill: def $r12 killed $r1
	str	r0, [sp, #16]
	strb.w	r1, [sp, #15]
	strh.w	r2, [sp, #12]
	strb.w	r3, [sp, #11]
	movs	r0, #0
.Ltmp271:
	.loc	6 945 22 prologue_end           @ ../ThirdParty/STM32F4xx_HAL_Driver/Src/stm32f4xx_hal_pcd.c:945:22
	strb.w	r0, [sp, #10]
.Ltmp272:
	.loc	6 948 8                         @ ../ThirdParty/STM32F4xx_HAL_Driver/Src/stm32f4xx_hal_pcd.c:948:8
	ldrb.w	r0, [sp, #15]
.Ltmp273:
	.loc	6 948 7 is_stmt 0               @ ../ThirdParty/STM32F4xx_HAL_Driver/Src/stm32f4xx_hal_pcd.c:948:7
	lsls	r0, r0, #24
	cmp	r0, #0
	bpl	.LBB22_2
	b	.LBB22_1
.LBB22_1:
.Ltmp274:
	.loc	6 950 11 is_stmt 1              @ ../ThirdParty/STM32F4xx_HAL_Driver/Src/stm32f4xx_hal_pcd.c:950:11
	ldr	r0, [sp, #16]
	.loc	6 950 23 is_stmt 0              @ ../ThirdParty/STM32F4xx_HAL_Driver/Src/stm32f4xx_hal_pcd.c:950:23
	ldrb.w	r1, [sp, #15]
	.loc	6 950 31                        @ ../ThirdParty/STM32F4xx_HAL_Driver/Src/stm32f4xx_hal_pcd.c:950:31
	and	r1, r1, #127
	.loc	6 950 11                        @ ../ThirdParty/STM32F4xx_HAL_Driver/Src/stm32f4xx_hal_pcd.c:950:11
	rsb	r1, r1, r1, lsl #3
	.loc	6 950 17                        @ ../ThirdParty/STM32F4xx_HAL_Driver/Src/stm32f4xx_hal_pcd.c:950:17
	add.w	r0, r0, r1, lsl #2
	.loc	6 950 11                        @ ../ThirdParty/STM32F4xx_HAL_Driver/Src/stm32f4xx_hal_pcd.c:950:11
	adds	r0, #56
	.loc	6 950 8                         @ ../ThirdParty/STM32F4xx_HAL_Driver/Src/stm32f4xx_hal_pcd.c:950:8
	str	r0, [sp, #4]
	.loc	6 951 3 is_stmt 1               @ ../ThirdParty/STM32F4xx_HAL_Driver/Src/stm32f4xx_hal_pcd.c:951:3
	b	.LBB22_3
.Ltmp275:
.LBB22_2:
	.loc	6 954 11                        @ ../ThirdParty/STM32F4xx_HAL_Driver/Src/stm32f4xx_hal_pcd.c:954:11
	ldr	r0, [sp, #16]
	.loc	6 954 24 is_stmt 0              @ ../ThirdParty/STM32F4xx_HAL_Driver/Src/stm32f4xx_hal_pcd.c:954:24
	ldrb.w	r1, [sp, #15]
	.loc	6 954 32                        @ ../ThirdParty/STM32F4xx_HAL_Driver/Src/stm32f4xx_hal_pcd.c:954:32
	and	r1, r1, #127
	.loc	6 954 11                        @ ../ThirdParty/STM32F4xx_HAL_Driver/Src/stm32f4xx_hal_pcd.c:954:11
	rsb	r1, r1, r1, lsl #3
	.loc	6 954 17                        @ ../ThirdParty/STM32F4xx_HAL_Driver/Src/stm32f4xx_hal_pcd.c:954:17
	add.w	r0, r0, r1, lsl #2
	.loc	6 954 11                        @ ../ThirdParty/STM32F4xx_HAL_Driver/Src/stm32f4xx_hal_pcd.c:954:11
	add.w	r0, r0, #504
	.loc	6 954 8                         @ ../ThirdParty/STM32F4xx_HAL_Driver/Src/stm32f4xx_hal_pcd.c:954:8
	str	r0, [sp, #4]
	b	.LBB22_3
.Ltmp276:
.LBB22_3:
	.loc	6 956 15 is_stmt 1              @ ../ThirdParty/STM32F4xx_HAL_Driver/Src/stm32f4xx_hal_pcd.c:956:15
	ldrb.w	r0, [sp, #15]
	.loc	6 956 23 is_stmt 0              @ ../ThirdParty/STM32F4xx_HAL_Driver/Src/stm32f4xx_hal_pcd.c:956:23
	and	r0, r0, #127
	.loc	6 956 3                         @ ../ThirdParty/STM32F4xx_HAL_Driver/Src/stm32f4xx_hal_pcd.c:956:3
	ldr	r1, [sp, #4]
	.loc	6 956 13                        @ ../ThirdParty/STM32F4xx_HAL_Driver/Src/stm32f4xx_hal_pcd.c:956:13
	strb	r0, [r1]
	.loc	6 958 23 is_stmt 1              @ ../ThirdParty/STM32F4xx_HAL_Driver/Src/stm32f4xx_hal_pcd.c:958:23
	ldrb.w	r0, [sp, #15]
	.loc	6 958 32 is_stmt 0              @ ../ThirdParty/STM32F4xx_HAL_Driver/Src/stm32f4xx_hal_pcd.c:958:32
	lsrs	r0, r0, #7
	.loc	6 958 3                         @ ../ThirdParty/STM32F4xx_HAL_Driver/Src/stm32f4xx_hal_pcd.c:958:3
	ldr	r1, [sp, #4]
	.loc	6 958 13                        @ ../ThirdParty/STM32F4xx_HAL_Driver/Src/stm32f4xx_hal_pcd.c:958:13
	strb	r0, [r1, #1]
	.loc	6 959 19 is_stmt 1              @ ../ThirdParty/STM32F4xx_HAL_Driver/Src/stm32f4xx_hal_pcd.c:959:19
	ldrh.w	r0, [sp, #12]
	.loc	6 959 3 is_stmt 0               @ ../ThirdParty/STM32F4xx_HAL_Driver/Src/stm32f4xx_hal_pcd.c:959:3
	ldr	r1, [sp, #4]
	.loc	6 959 17                        @ ../ThirdParty/STM32F4xx_HAL_Driver/Src/stm32f4xx_hal_pcd.c:959:17
	str	r0, [r1, #8]
	.loc	6 960 14 is_stmt 1              @ ../ThirdParty/STM32F4xx_HAL_Driver/Src/stm32f4xx_hal_pcd.c:960:14
	ldrb.w	r0, [sp, #11]
	.loc	6 960 3 is_stmt 0               @ ../ThirdParty/STM32F4xx_HAL_Driver/Src/stm32f4xx_hal_pcd.c:960:3
	ldr	r1, [sp, #4]
	.loc	6 960 12                        @ ../ThirdParty/STM32F4xx_HAL_Driver/Src/stm32f4xx_hal_pcd.c:960:12
	strb	r0, [r1, #3]
.Ltmp277:
	.loc	6 961 7 is_stmt 1               @ ../ThirdParty/STM32F4xx_HAL_Driver/Src/stm32f4xx_hal_pcd.c:961:7
	ldr	r0, [sp, #4]
	.loc	6 961 11 is_stmt 0              @ ../ThirdParty/STM32F4xx_HAL_Driver/Src/stm32f4xx_hal_pcd.c:961:11
	ldrb	r0, [r0, #1]
.Ltmp278:
	.loc	6 961 7                         @ ../ThirdParty/STM32F4xx_HAL_Driver/Src/stm32f4xx_hal_pcd.c:961:7
	cbz	r0, .LBB22_5
	b	.LBB22_4
.LBB22_4:
.Ltmp279:
	.loc	6 964 23 is_stmt 1              @ ../ThirdParty/STM32F4xx_HAL_Driver/Src/stm32f4xx_hal_pcd.c:964:23
	ldr	r1, [sp, #4]
	.loc	6 964 27 is_stmt 0              @ ../ThirdParty/STM32F4xx_HAL_Driver/Src/stm32f4xx_hal_pcd.c:964:27
	ldrb	r0, [r1]
	.loc	6 964 21                        @ ../ThirdParty/STM32F4xx_HAL_Driver/Src/stm32f4xx_hal_pcd.c:964:21
	strh	r0, [r1, #6]
	.loc	6 965 3 is_stmt 1               @ ../ThirdParty/STM32F4xx_HAL_Driver/Src/stm32f4xx_hal_pcd.c:965:3
	b	.LBB22_5
.Ltmp280:
.LBB22_5:
	.loc	6 967 7                         @ ../ThirdParty/STM32F4xx_HAL_Driver/Src/stm32f4xx_hal_pcd.c:967:7
	ldrb.w	r0, [sp, #11]
.Ltmp281:
	.loc	6 967 7 is_stmt 0               @ ../ThirdParty/STM32F4xx_HAL_Driver/Src/stm32f4xx_hal_pcd.c:967:7
	cmp	r0, #2
	bne	.LBB22_7
	b	.LBB22_6
.LBB22_6:
.Ltmp282:
	.loc	6 969 5 is_stmt 1               @ ../ThirdParty/STM32F4xx_HAL_Driver/Src/stm32f4xx_hal_pcd.c:969:5
	ldr	r1, [sp, #4]
	movs	r0, #0
	.loc	6 969 24 is_stmt 0              @ ../ThirdParty/STM32F4xx_HAL_Driver/Src/stm32f4xx_hal_pcd.c:969:24
	strb	r0, [r1, #4]
	.loc	6 970 3 is_stmt 1               @ ../ThirdParty/STM32F4xx_HAL_Driver/Src/stm32f4xx_hal_pcd.c:970:3
	b	.LBB22_7
.Ltmp283:
.LBB22_7:
	.loc	6 972 3                         @ ../ThirdParty/STM32F4xx_HAL_Driver/Src/stm32f4xx_hal_pcd.c:972:3
	b	.LBB22_8
.LBB22_8:
.Ltmp284:
	.loc	6 972 3 is_stmt 0               @ ../ThirdParty/STM32F4xx_HAL_Driver/Src/stm32f4xx_hal_pcd.c:972:3
	ldr	r0, [sp, #16]
	ldrb.w	r0, [r0, #952]
.Ltmp285:
	.loc	6 972 3                         @ ../ThirdParty/STM32F4xx_HAL_Driver/Src/stm32f4xx_hal_pcd.c:972:3
	cmp	r0, #1
	bne	.LBB22_10
	b	.LBB22_9
.LBB22_9:
	.loc	6 0 3                           @ ../ThirdParty/STM32F4xx_HAL_Driver/Src/stm32f4xx_hal_pcd.c:0:3
	movs	r0, #2
.Ltmp286:
	.loc	6 972 3                         @ ../ThirdParty/STM32F4xx_HAL_Driver/Src/stm32f4xx_hal_pcd.c:972:3
	strb.w	r0, [sp, #23]
	b	.LBB22_15
.Ltmp287:
.LBB22_10:
	.loc	6 972 3                         @ ../ThirdParty/STM32F4xx_HAL_Driver/Src/stm32f4xx_hal_pcd.c:972:3
	ldr	r1, [sp, #16]
	movs	r0, #1
	strb.w	r0, [r1, #952]
	b	.LBB22_11
.Ltmp288:
.LBB22_11:
	.loc	6 972 3                         @ ../ThirdParty/STM32F4xx_HAL_Driver/Src/stm32f4xx_hal_pcd.c:972:3
	b	.LBB22_12
.Ltmp289:
.LBB22_12:
	.loc	6 973 24 is_stmt 1              @ ../ThirdParty/STM32F4xx_HAL_Driver/Src/stm32f4xx_hal_pcd.c:973:24
	ldr	r0, [sp, #16]
	.loc	6 973 30 is_stmt 0              @ ../ThirdParty/STM32F4xx_HAL_Driver/Src/stm32f4xx_hal_pcd.c:973:30
	ldr	r0, [r0]
	.loc	6 973 41                        @ ../ThirdParty/STM32F4xx_HAL_Driver/Src/stm32f4xx_hal_pcd.c:973:41
	ldr	r1, [sp, #4]
	.loc	6 973 3                         @ ../ThirdParty/STM32F4xx_HAL_Driver/Src/stm32f4xx_hal_pcd.c:973:3
	bl	USB_ActivateEndpoint
	.loc	6 974 3 is_stmt 1               @ ../ThirdParty/STM32F4xx_HAL_Driver/Src/stm32f4xx_hal_pcd.c:974:3
	b	.LBB22_13
.LBB22_13:
.Ltmp290:
	.loc	6 974 3 is_stmt 0               @ ../ThirdParty/STM32F4xx_HAL_Driver/Src/stm32f4xx_hal_pcd.c:974:3
	ldr	r1, [sp, #16]
	movs	r0, #0
	strb.w	r0, [r1, #952]
	b	.LBB22_14
.Ltmp291:
.LBB22_14:
	.loc	6 975 10 is_stmt 1              @ ../ThirdParty/STM32F4xx_HAL_Driver/Src/stm32f4xx_hal_pcd.c:975:10
	ldrb.w	r0, [sp, #10]
	.loc	6 975 3 is_stmt 0               @ ../ThirdParty/STM32F4xx_HAL_Driver/Src/stm32f4xx_hal_pcd.c:975:3
	strb.w	r0, [sp, #23]
	b	.LBB22_15
.LBB22_15:
	.loc	6 976 1 is_stmt 1               @ ../ThirdParty/STM32F4xx_HAL_Driver/Src/stm32f4xx_hal_pcd.c:976:1
	ldrb.w	r0, [sp, #23]
	.loc	6 976 1 epilogue_begin is_stmt 0 @ ../ThirdParty/STM32F4xx_HAL_Driver/Src/stm32f4xx_hal_pcd.c:976:1
	add	sp, #24
	pop	{r7, pc}
.Ltmp292:
.Lfunc_end22:
	.size	HAL_PCD_EP_Open, .Lfunc_end22-HAL_PCD_EP_Open
	.cfi_endproc
	.cantunwind
	.fnend
                                        @ -- End function
	.section	.text.HAL_PCD_EP_Close,"ax",%progbits
	.hidden	HAL_PCD_EP_Close                @ -- Begin function HAL_PCD_EP_Close
	.globl	HAL_PCD_EP_Close
	.p2align	2
	.type	HAL_PCD_EP_Close,%function
	.code	16                              @ @HAL_PCD_EP_Close
	.thumb_func
HAL_PCD_EP_Close:
.Lfunc_begin23:
	.loc	6 986 0 is_stmt 1               @ ../ThirdParty/STM32F4xx_HAL_Driver/Src/stm32f4xx_hal_pcd.c:986:0
	.fnstart
	.cfi_startproc
@ %bb.0:
	.save	{r7, lr}
	push	{r7, lr}
	.cfi_def_cfa_offset 8
	.cfi_offset lr, -4
	.cfi_offset r7, -8
	.pad	#16
	sub	sp, #16
	.cfi_def_cfa_offset 24
                                        @ kill: def $r2 killed $r1
	str	r0, [sp, #8]
	strb.w	r1, [sp, #7]
.Ltmp293:
	.loc	6 989 8 prologue_end            @ ../ThirdParty/STM32F4xx_HAL_Driver/Src/stm32f4xx_hal_pcd.c:989:8
	ldrb.w	r0, [sp, #7]
.Ltmp294:
	.loc	6 989 7 is_stmt 0               @ ../ThirdParty/STM32F4xx_HAL_Driver/Src/stm32f4xx_hal_pcd.c:989:7
	lsls	r0, r0, #24
	cmp	r0, #0
	bpl	.LBB23_2
	b	.LBB23_1
.LBB23_1:
.Ltmp295:
	.loc	6 991 11 is_stmt 1              @ ../ThirdParty/STM32F4xx_HAL_Driver/Src/stm32f4xx_hal_pcd.c:991:11
	ldr	r0, [sp, #8]
	.loc	6 991 23 is_stmt 0              @ ../ThirdParty/STM32F4xx_HAL_Driver/Src/stm32f4xx_hal_pcd.c:991:23
	ldrb.w	r1, [sp, #7]
	.loc	6 991 31                        @ ../ThirdParty/STM32F4xx_HAL_Driver/Src/stm32f4xx_hal_pcd.c:991:31
	and	r1, r1, #127
	.loc	6 991 11                        @ ../ThirdParty/STM32F4xx_HAL_Driver/Src/stm32f4xx_hal_pcd.c:991:11
	rsb	r1, r1, r1, lsl #3
	.loc	6 991 17                        @ ../ThirdParty/STM32F4xx_HAL_Driver/Src/stm32f4xx_hal_pcd.c:991:17
	add.w	r0, r0, r1, lsl #2
	.loc	6 991 11                        @ ../ThirdParty/STM32F4xx_HAL_Driver/Src/stm32f4xx_hal_pcd.c:991:11
	adds	r0, #56
	.loc	6 991 8                         @ ../ThirdParty/STM32F4xx_HAL_Driver/Src/stm32f4xx_hal_pcd.c:991:8
	str	r0, [sp]
	.loc	6 992 3 is_stmt 1               @ ../ThirdParty/STM32F4xx_HAL_Driver/Src/stm32f4xx_hal_pcd.c:992:3
	b	.LBB23_3
.Ltmp296:
.LBB23_2:
	.loc	6 995 11                        @ ../ThirdParty/STM32F4xx_HAL_Driver/Src/stm32f4xx_hal_pcd.c:995:11
	ldr	r0, [sp, #8]
	.loc	6 995 24 is_stmt 0              @ ../ThirdParty/STM32F4xx_HAL_Driver/Src/stm32f4xx_hal_pcd.c:995:24
	ldrb.w	r1, [sp, #7]
	.loc	6 995 32                        @ ../ThirdParty/STM32F4xx_HAL_Driver/Src/stm32f4xx_hal_pcd.c:995:32
	and	r1, r1, #127
	.loc	6 995 11                        @ ../ThirdParty/STM32F4xx_HAL_Driver/Src/stm32f4xx_hal_pcd.c:995:11
	rsb	r1, r1, r1, lsl #3
	.loc	6 995 17                        @ ../ThirdParty/STM32F4xx_HAL_Driver/Src/stm32f4xx_hal_pcd.c:995:17
	add.w	r0, r0, r1, lsl #2
	.loc	6 995 11                        @ ../ThirdParty/STM32F4xx_HAL_Driver/Src/stm32f4xx_hal_pcd.c:995:11
	add.w	r0, r0, #504
	.loc	6 995 8                         @ ../ThirdParty/STM32F4xx_HAL_Driver/Src/stm32f4xx_hal_pcd.c:995:8
	str	r0, [sp]
	b	.LBB23_3
.Ltmp297:
.LBB23_3:
	.loc	6 997 15 is_stmt 1              @ ../ThirdParty/STM32F4xx_HAL_Driver/Src/stm32f4xx_hal_pcd.c:997:15
	ldrb.w	r0, [sp, #7]
	.loc	6 997 23 is_stmt 0              @ ../ThirdParty/STM32F4xx_HAL_Driver/Src/stm32f4xx_hal_pcd.c:997:23
	and	r0, r0, #127
	.loc	6 997 3                         @ ../ThirdParty/STM32F4xx_HAL_Driver/Src/stm32f4xx_hal_pcd.c:997:3
	ldr	r1, [sp]
	.loc	6 997 13                        @ ../ThirdParty/STM32F4xx_HAL_Driver/Src/stm32f4xx_hal_pcd.c:997:13
	strb	r0, [r1]
	.loc	6 999 23 is_stmt 1              @ ../ThirdParty/STM32F4xx_HAL_Driver/Src/stm32f4xx_hal_pcd.c:999:23
	ldrb.w	r0, [sp, #7]
	.loc	6 999 32 is_stmt 0              @ ../ThirdParty/STM32F4xx_HAL_Driver/Src/stm32f4xx_hal_pcd.c:999:32
	lsrs	r0, r0, #7
	.loc	6 999 3                         @ ../ThirdParty/STM32F4xx_HAL_Driver/Src/stm32f4xx_hal_pcd.c:999:3
	ldr	r1, [sp]
	.loc	6 999 13                        @ ../ThirdParty/STM32F4xx_HAL_Driver/Src/stm32f4xx_hal_pcd.c:999:13
	strb	r0, [r1, #1]
	.loc	6 1001 3 is_stmt 1              @ ../ThirdParty/STM32F4xx_HAL_Driver/Src/stm32f4xx_hal_pcd.c:1001:3
	b	.LBB23_4
.LBB23_4:
.Ltmp298:
	.loc	6 1001 3 is_stmt 0              @ ../ThirdParty/STM32F4xx_HAL_Driver/Src/stm32f4xx_hal_pcd.c:1001:3
	ldr	r0, [sp, #8]
	ldrb.w	r0, [r0, #952]
.Ltmp299:
	.loc	6 1001 3                        @ ../ThirdParty/STM32F4xx_HAL_Driver/Src/stm32f4xx_hal_pcd.c:1001:3
	cmp	r0, #1
	bne	.LBB23_6
	b	.LBB23_5
.LBB23_5:
	.loc	6 0 3                           @ ../ThirdParty/STM32F4xx_HAL_Driver/Src/stm32f4xx_hal_pcd.c:0:3
	movs	r0, #2
.Ltmp300:
	.loc	6 1001 3                        @ ../ThirdParty/STM32F4xx_HAL_Driver/Src/stm32f4xx_hal_pcd.c:1001:3
	strb.w	r0, [sp, #15]
	b	.LBB23_11
.Ltmp301:
.LBB23_6:
	.loc	6 1001 3                        @ ../ThirdParty/STM32F4xx_HAL_Driver/Src/stm32f4xx_hal_pcd.c:1001:3
	ldr	r1, [sp, #8]
	movs	r0, #1
	strb.w	r0, [r1, #952]
	b	.LBB23_7
.Ltmp302:
.LBB23_7:
	.loc	6 1001 3                        @ ../ThirdParty/STM32F4xx_HAL_Driver/Src/stm32f4xx_hal_pcd.c:1001:3
	b	.LBB23_8
.Ltmp303:
.LBB23_8:
	.loc	6 1002 26 is_stmt 1             @ ../ThirdParty/STM32F4xx_HAL_Driver/Src/stm32f4xx_hal_pcd.c:1002:26
	ldr	r0, [sp, #8]
	.loc	6 1002 32 is_stmt 0             @ ../ThirdParty/STM32F4xx_HAL_Driver/Src/stm32f4xx_hal_pcd.c:1002:32
	ldr	r0, [r0]
	.loc	6 1002 43                       @ ../ThirdParty/STM32F4xx_HAL_Driver/Src/stm32f4xx_hal_pcd.c:1002:43
	ldr	r1, [sp]
	.loc	6 1002 3                        @ ../ThirdParty/STM32F4xx_HAL_Driver/Src/stm32f4xx_hal_pcd.c:1002:3
	bl	USB_DeactivateEndpoint
	.loc	6 1003 3 is_stmt 1              @ ../ThirdParty/STM32F4xx_HAL_Driver/Src/stm32f4xx_hal_pcd.c:1003:3
	b	.LBB23_9
.LBB23_9:
.Ltmp304:
	.loc	6 1003 3 is_stmt 0              @ ../ThirdParty/STM32F4xx_HAL_Driver/Src/stm32f4xx_hal_pcd.c:1003:3
	ldr	r1, [sp, #8]
	movs	r0, #0
	strb.w	r0, [r1, #952]
	b	.LBB23_10
.Ltmp305:
.LBB23_10:
	.loc	6 0 3                           @ ../ThirdParty/STM32F4xx_HAL_Driver/Src/stm32f4xx_hal_pcd.c:0:3
	movs	r0, #0
	.loc	6 1004 3 is_stmt 1              @ ../ThirdParty/STM32F4xx_HAL_Driver/Src/stm32f4xx_hal_pcd.c:1004:3
	strb.w	r0, [sp, #15]
	b	.LBB23_11
.LBB23_11:
	.loc	6 1005 1                        @ ../ThirdParty/STM32F4xx_HAL_Driver/Src/stm32f4xx_hal_pcd.c:1005:1
	ldrb.w	r0, [sp, #15]
	.loc	6 1005 1 epilogue_begin is_stmt 0 @ ../ThirdParty/STM32F4xx_HAL_Driver/Src/stm32f4xx_hal_pcd.c:1005:1
	add	sp, #16
	pop	{r7, pc}
.Ltmp306:
.Lfunc_end23:
	.size	HAL_PCD_EP_Close, .Lfunc_end23-HAL_PCD_EP_Close
	.cfi_endproc
	.cantunwind
	.fnend
                                        @ -- End function
	.section	.text.HAL_PCD_EP_Receive,"ax",%progbits
	.hidden	HAL_PCD_EP_Receive              @ -- Begin function HAL_PCD_EP_Receive
	.globl	HAL_PCD_EP_Receive
	.p2align	2
	.type	HAL_PCD_EP_Receive,%function
	.code	16                              @ @HAL_PCD_EP_Receive
	.thumb_func
HAL_PCD_EP_Receive:
.Lfunc_begin24:
	.loc	6 1017 0 is_stmt 1              @ ../ThirdParty/STM32F4xx_HAL_Driver/Src/stm32f4xx_hal_pcd.c:1017:0
	.fnstart
	.cfi_startproc
@ %bb.0:
	.save	{r7, lr}
	push	{r7, lr}
	.cfi_def_cfa_offset 8
	.cfi_offset lr, -4
	.cfi_offset r7, -8
	.pad	#24
	sub	sp, #24
	.cfi_def_cfa_offset 32
                                        @ kill: def $r12 killed $r1
	str	r0, [sp, #20]
	strb.w	r1, [sp, #19]
	str	r2, [sp, #12]
	str	r3, [sp, #8]
.Ltmp307:
	.loc	6 1020 9 prologue_end           @ ../ThirdParty/STM32F4xx_HAL_Driver/Src/stm32f4xx_hal_pcd.c:1020:9
	ldr	r0, [sp, #20]
	.loc	6 1020 22 is_stmt 0             @ ../ThirdParty/STM32F4xx_HAL_Driver/Src/stm32f4xx_hal_pcd.c:1020:22
	ldrb.w	r1, [sp, #19]
	.loc	6 1020 30                       @ ../ThirdParty/STM32F4xx_HAL_Driver/Src/stm32f4xx_hal_pcd.c:1020:30
	and	r1, r1, #127
	.loc	6 1020 9                        @ ../ThirdParty/STM32F4xx_HAL_Driver/Src/stm32f4xx_hal_pcd.c:1020:9
	rsb	r1, r1, r1, lsl #3
	.loc	6 1020 15                       @ ../ThirdParty/STM32F4xx_HAL_Driver/Src/stm32f4xx_hal_pcd.c:1020:15
	add.w	r0, r0, r1, lsl #2
	.loc	6 1020 9                        @ ../ThirdParty/STM32F4xx_HAL_Driver/Src/stm32f4xx_hal_pcd.c:1020:9
	add.w	r0, r0, #504
	.loc	6 1020 6                        @ ../ThirdParty/STM32F4xx_HAL_Driver/Src/stm32f4xx_hal_pcd.c:1020:6
	str	r0, [sp, #4]
	.loc	6 1023 19 is_stmt 1             @ ../ThirdParty/STM32F4xx_HAL_Driver/Src/stm32f4xx_hal_pcd.c:1023:19
	ldr	r0, [sp, #12]
	.loc	6 1023 3 is_stmt 0              @ ../ThirdParty/STM32F4xx_HAL_Driver/Src/stm32f4xx_hal_pcd.c:1023:3
	ldr	r1, [sp, #4]
	.loc	6 1023 17                       @ ../ThirdParty/STM32F4xx_HAL_Driver/Src/stm32f4xx_hal_pcd.c:1023:17
	str	r0, [r1, #12]
	.loc	6 1024 18 is_stmt 1             @ ../ThirdParty/STM32F4xx_HAL_Driver/Src/stm32f4xx_hal_pcd.c:1024:18
	ldr	r0, [sp, #8]
	.loc	6 1024 3 is_stmt 0              @ ../ThirdParty/STM32F4xx_HAL_Driver/Src/stm32f4xx_hal_pcd.c:1024:3
	ldr	r1, [sp, #4]
	.loc	6 1024 16                       @ ../ThirdParty/STM32F4xx_HAL_Driver/Src/stm32f4xx_hal_pcd.c:1024:16
	str	r0, [r1, #20]
	.loc	6 1025 3 is_stmt 1              @ ../ThirdParty/STM32F4xx_HAL_Driver/Src/stm32f4xx_hal_pcd.c:1025:3
	ldr	r1, [sp, #4]
	movs	r0, #0
	.loc	6 1025 18 is_stmt 0             @ ../ThirdParty/STM32F4xx_HAL_Driver/Src/stm32f4xx_hal_pcd.c:1025:18
	str	r0, [r1, #24]
	.loc	6 1026 3 is_stmt 1              @ ../ThirdParty/STM32F4xx_HAL_Driver/Src/stm32f4xx_hal_pcd.c:1026:3
	ldr	r1, [sp, #4]
	.loc	6 1026 13 is_stmt 0             @ ../ThirdParty/STM32F4xx_HAL_Driver/Src/stm32f4xx_hal_pcd.c:1026:13
	strb	r0, [r1, #1]
	.loc	6 1027 13 is_stmt 1             @ ../ThirdParty/STM32F4xx_HAL_Driver/Src/stm32f4xx_hal_pcd.c:1027:13
	ldrb.w	r0, [sp, #19]
	.loc	6 1027 21 is_stmt 0             @ ../ThirdParty/STM32F4xx_HAL_Driver/Src/stm32f4xx_hal_pcd.c:1027:21
	and	r0, r0, #127
	.loc	6 1027 3                        @ ../ThirdParty/STM32F4xx_HAL_Driver/Src/stm32f4xx_hal_pcd.c:1027:3
	ldr	r1, [sp, #4]
	.loc	6 1027 11                       @ ../ThirdParty/STM32F4xx_HAL_Driver/Src/stm32f4xx_hal_pcd.c:1027:11
	strb	r0, [r1]
.Ltmp308:
	.loc	6 1029 7 is_stmt 1              @ ../ThirdParty/STM32F4xx_HAL_Driver/Src/stm32f4xx_hal_pcd.c:1029:7
	ldr	r0, [sp, #20]
	.loc	6 1029 18 is_stmt 0             @ ../ThirdParty/STM32F4xx_HAL_Driver/Src/stm32f4xx_hal_pcd.c:1029:18
	ldr	r0, [r0, #16]
.Ltmp309:
	.loc	6 1029 7                        @ ../ThirdParty/STM32F4xx_HAL_Driver/Src/stm32f4xx_hal_pcd.c:1029:7
	cmp	r0, #1
	bne	.LBB24_2
	b	.LBB24_1
.LBB24_1:
.Ltmp310:
	.loc	6 1031 30 is_stmt 1             @ ../ThirdParty/STM32F4xx_HAL_Driver/Src/stm32f4xx_hal_pcd.c:1031:30
	ldr	r0, [sp, #12]
	.loc	6 1031 5 is_stmt 0              @ ../ThirdParty/STM32F4xx_HAL_Driver/Src/stm32f4xx_hal_pcd.c:1031:5
	ldr	r1, [sp, #4]
	.loc	6 1031 18                       @ ../ThirdParty/STM32F4xx_HAL_Driver/Src/stm32f4xx_hal_pcd.c:1031:18
	str	r0, [r1, #16]
	.loc	6 1032 3 is_stmt 1              @ ../ThirdParty/STM32F4xx_HAL_Driver/Src/stm32f4xx_hal_pcd.c:1032:3
	b	.LBB24_2
.Ltmp311:
.LBB24_2:
	.loc	6 1034 8                        @ ../ThirdParty/STM32F4xx_HAL_Driver/Src/stm32f4xx_hal_pcd.c:1034:8
	ldrb.w	r0, [sp, #19]
.Ltmp312:
	.loc	6 1034 7 is_stmt 0              @ ../ThirdParty/STM32F4xx_HAL_Driver/Src/stm32f4xx_hal_pcd.c:1034:7
	lsls	r0, r0, #25
	cbnz	r0, .LBB24_4
	b	.LBB24_3
.LBB24_3:
.Ltmp313:
	.loc	6 1036 22 is_stmt 1             @ ../ThirdParty/STM32F4xx_HAL_Driver/Src/stm32f4xx_hal_pcd.c:1036:22
	ldr	r2, [sp, #20]
	.loc	6 1036 28 is_stmt 0             @ ../ThirdParty/STM32F4xx_HAL_Driver/Src/stm32f4xx_hal_pcd.c:1036:28
	ldr	r0, [r2]
	.loc	6 1036 39                       @ ../ThirdParty/STM32F4xx_HAL_Driver/Src/stm32f4xx_hal_pcd.c:1036:39
	ldr	r1, [sp, #4]
	.loc	6 1036 54                       @ ../ThirdParty/STM32F4xx_HAL_Driver/Src/stm32f4xx_hal_pcd.c:1036:54
	ldrb	r2, [r2, #16]
	.loc	6 1036 5                        @ ../ThirdParty/STM32F4xx_HAL_Driver/Src/stm32f4xx_hal_pcd.c:1036:5
	bl	USB_EP0StartXfer
	.loc	6 1037 3 is_stmt 1              @ ../ThirdParty/STM32F4xx_HAL_Driver/Src/stm32f4xx_hal_pcd.c:1037:3
	b	.LBB24_5
.Ltmp314:
.LBB24_4:
	.loc	6 1040 21                       @ ../ThirdParty/STM32F4xx_HAL_Driver/Src/stm32f4xx_hal_pcd.c:1040:21
	ldr	r2, [sp, #20]
	.loc	6 1040 27 is_stmt 0             @ ../ThirdParty/STM32F4xx_HAL_Driver/Src/stm32f4xx_hal_pcd.c:1040:27
	ldr	r0, [r2]
	.loc	6 1040 38                       @ ../ThirdParty/STM32F4xx_HAL_Driver/Src/stm32f4xx_hal_pcd.c:1040:38
	ldr	r1, [sp, #4]
	.loc	6 1040 53                       @ ../ThirdParty/STM32F4xx_HAL_Driver/Src/stm32f4xx_hal_pcd.c:1040:53
	ldrb	r2, [r2, #16]
	.loc	6 1040 5                        @ ../ThirdParty/STM32F4xx_HAL_Driver/Src/stm32f4xx_hal_pcd.c:1040:5
	bl	USB_EPStartXfer
	b	.LBB24_5
.Ltmp315:
.LBB24_5:
	.loc	6 0 5                           @ ../ThirdParty/STM32F4xx_HAL_Driver/Src/stm32f4xx_hal_pcd.c:0:5
	movs	r0, #0
	.loc	6 1043 3 epilogue_begin is_stmt 1 @ ../ThirdParty/STM32F4xx_HAL_Driver/Src/stm32f4xx_hal_pcd.c:1043:3
	add	sp, #24
	pop	{r7, pc}
.Ltmp316:
.Lfunc_end24:
	.size	HAL_PCD_EP_Receive, .Lfunc_end24-HAL_PCD_EP_Receive
	.cfi_endproc
	.cantunwind
	.fnend
                                        @ -- End function
	.section	.text.HAL_PCD_EP_GetRxCount,"ax",%progbits
	.hidden	HAL_PCD_EP_GetRxCount           @ -- Begin function HAL_PCD_EP_GetRxCount
	.globl	HAL_PCD_EP_GetRxCount
	.p2align	2
	.type	HAL_PCD_EP_GetRxCount,%function
	.code	16                              @ @HAL_PCD_EP_GetRxCount
	.thumb_func
HAL_PCD_EP_GetRxCount:
.Lfunc_begin25:
	.loc	6 1053 0                        @ ../ThirdParty/STM32F4xx_HAL_Driver/Src/stm32f4xx_hal_pcd.c:1053:0
	.fnstart
	.cfi_startproc
@ %bb.0:
	.pad	#8
	sub	sp, #8
	.cfi_def_cfa_offset 8
                                        @ kill: def $r2 killed $r1
	str	r0, [sp, #4]
	strb.w	r1, [sp, #3]
.Ltmp317:
	.loc	6 1054 10 prologue_end          @ ../ThirdParty/STM32F4xx_HAL_Driver/Src/stm32f4xx_hal_pcd.c:1054:10
	ldr	r0, [sp, #4]
	.loc	6 1054 23 is_stmt 0             @ ../ThirdParty/STM32F4xx_HAL_Driver/Src/stm32f4xx_hal_pcd.c:1054:23
	ldrb.w	r1, [sp, #3]
	.loc	6 1054 31                       @ ../ThirdParty/STM32F4xx_HAL_Driver/Src/stm32f4xx_hal_pcd.c:1054:31
	and	r1, r1, #15
	.loc	6 1054 10                       @ ../ThirdParty/STM32F4xx_HAL_Driver/Src/stm32f4xx_hal_pcd.c:1054:10
	rsb	r1, r1, r1, lsl #3
	.loc	6 1054 16                       @ ../ThirdParty/STM32F4xx_HAL_Driver/Src/stm32f4xx_hal_pcd.c:1054:16
	add.w	r0, r0, r1, lsl #2
	.loc	6 1054 38                       @ ../ThirdParty/STM32F4xx_HAL_Driver/Src/stm32f4xx_hal_pcd.c:1054:38
	ldrh.w	r0, [r0, #528]
	.loc	6 1054 3 epilogue_begin         @ ../ThirdParty/STM32F4xx_HAL_Driver/Src/stm32f4xx_hal_pcd.c:1054:3
	add	sp, #8
	bx	lr
.Ltmp318:
.Lfunc_end25:
	.size	HAL_PCD_EP_GetRxCount, .Lfunc_end25-HAL_PCD_EP_GetRxCount
	.cfi_endproc
	.cantunwind
	.fnend
                                        @ -- End function
	.section	.text.HAL_PCD_EP_Transmit,"ax",%progbits
	.hidden	HAL_PCD_EP_Transmit             @ -- Begin function HAL_PCD_EP_Transmit
	.globl	HAL_PCD_EP_Transmit
	.p2align	2
	.type	HAL_PCD_EP_Transmit,%function
	.code	16                              @ @HAL_PCD_EP_Transmit
	.thumb_func
HAL_PCD_EP_Transmit:
.Lfunc_begin26:
	.loc	6 1065 0 is_stmt 1              @ ../ThirdParty/STM32F4xx_HAL_Driver/Src/stm32f4xx_hal_pcd.c:1065:0
	.fnstart
	.cfi_startproc
@ %bb.0:
	.save	{r7, lr}
	push	{r7, lr}
	.cfi_def_cfa_offset 8
	.cfi_offset lr, -4
	.cfi_offset r7, -8
	.pad	#24
	sub	sp, #24
	.cfi_def_cfa_offset 32
                                        @ kill: def $r12 killed $r1
	str	r0, [sp, #20]
	strb.w	r1, [sp, #19]
	str	r2, [sp, #12]
	str	r3, [sp, #8]
.Ltmp319:
	.loc	6 1068 9 prologue_end           @ ../ThirdParty/STM32F4xx_HAL_Driver/Src/stm32f4xx_hal_pcd.c:1068:9
	ldr	r0, [sp, #20]
	.loc	6 1068 21 is_stmt 0             @ ../ThirdParty/STM32F4xx_HAL_Driver/Src/stm32f4xx_hal_pcd.c:1068:21
	ldrb.w	r1, [sp, #19]
	.loc	6 1068 29                       @ ../ThirdParty/STM32F4xx_HAL_Driver/Src/stm32f4xx_hal_pcd.c:1068:29
	and	r1, r1, #127
	.loc	6 1068 9                        @ ../ThirdParty/STM32F4xx_HAL_Driver/Src/stm32f4xx_hal_pcd.c:1068:9
	rsb	r1, r1, r1, lsl #3
	.loc	6 1068 15                       @ ../ThirdParty/STM32F4xx_HAL_Driver/Src/stm32f4xx_hal_pcd.c:1068:15
	add.w	r0, r0, r1, lsl #2
	.loc	6 1068 9                        @ ../ThirdParty/STM32F4xx_HAL_Driver/Src/stm32f4xx_hal_pcd.c:1068:9
	adds	r0, #56
	.loc	6 1068 6                        @ ../ThirdParty/STM32F4xx_HAL_Driver/Src/stm32f4xx_hal_pcd.c:1068:6
	str	r0, [sp, #4]
	.loc	6 1071 19 is_stmt 1             @ ../ThirdParty/STM32F4xx_HAL_Driver/Src/stm32f4xx_hal_pcd.c:1071:19
	ldr	r0, [sp, #12]
	.loc	6 1071 3 is_stmt 0              @ ../ThirdParty/STM32F4xx_HAL_Driver/Src/stm32f4xx_hal_pcd.c:1071:3
	ldr	r1, [sp, #4]
	.loc	6 1071 17                       @ ../ThirdParty/STM32F4xx_HAL_Driver/Src/stm32f4xx_hal_pcd.c:1071:17
	str	r0, [r1, #12]
	.loc	6 1072 18 is_stmt 1             @ ../ThirdParty/STM32F4xx_HAL_Driver/Src/stm32f4xx_hal_pcd.c:1072:18
	ldr	r0, [sp, #8]
	.loc	6 1072 3 is_stmt 0              @ ../ThirdParty/STM32F4xx_HAL_Driver/Src/stm32f4xx_hal_pcd.c:1072:3
	ldr	r1, [sp, #4]
	.loc	6 1072 16                       @ ../ThirdParty/STM32F4xx_HAL_Driver/Src/stm32f4xx_hal_pcd.c:1072:16
	str	r0, [r1, #20]
	.loc	6 1073 3 is_stmt 1              @ ../ThirdParty/STM32F4xx_HAL_Driver/Src/stm32f4xx_hal_pcd.c:1073:3
	ldr	r1, [sp, #4]
	movs	r0, #0
	.loc	6 1073 18 is_stmt 0             @ ../ThirdParty/STM32F4xx_HAL_Driver/Src/stm32f4xx_hal_pcd.c:1073:18
	str	r0, [r1, #24]
	.loc	6 1074 3 is_stmt 1              @ ../ThirdParty/STM32F4xx_HAL_Driver/Src/stm32f4xx_hal_pcd.c:1074:3
	ldr	r1, [sp, #4]
	movs	r0, #1
	.loc	6 1074 13 is_stmt 0             @ ../ThirdParty/STM32F4xx_HAL_Driver/Src/stm32f4xx_hal_pcd.c:1074:13
	strb	r0, [r1, #1]
	.loc	6 1075 13 is_stmt 1             @ ../ThirdParty/STM32F4xx_HAL_Driver/Src/stm32f4xx_hal_pcd.c:1075:13
	ldrb.w	r0, [sp, #19]
	.loc	6 1075 21 is_stmt 0             @ ../ThirdParty/STM32F4xx_HAL_Driver/Src/stm32f4xx_hal_pcd.c:1075:21
	and	r0, r0, #127
	.loc	6 1075 3                        @ ../ThirdParty/STM32F4xx_HAL_Driver/Src/stm32f4xx_hal_pcd.c:1075:3
	ldr	r1, [sp, #4]
	.loc	6 1075 11                       @ ../ThirdParty/STM32F4xx_HAL_Driver/Src/stm32f4xx_hal_pcd.c:1075:11
	strb	r0, [r1]
.Ltmp320:
	.loc	6 1077 7 is_stmt 1              @ ../ThirdParty/STM32F4xx_HAL_Driver/Src/stm32f4xx_hal_pcd.c:1077:7
	ldr	r0, [sp, #20]
	.loc	6 1077 18 is_stmt 0             @ ../ThirdParty/STM32F4xx_HAL_Driver/Src/stm32f4xx_hal_pcd.c:1077:18
	ldr	r0, [r0, #16]
.Ltmp321:
	.loc	6 1077 7                        @ ../ThirdParty/STM32F4xx_HAL_Driver/Src/stm32f4xx_hal_pcd.c:1077:7
	cmp	r0, #1
	bne	.LBB26_2
	b	.LBB26_1
.LBB26_1:
.Ltmp322:
	.loc	6 1079 30 is_stmt 1             @ ../ThirdParty/STM32F4xx_HAL_Driver/Src/stm32f4xx_hal_pcd.c:1079:30
	ldr	r0, [sp, #12]
	.loc	6 1079 5 is_stmt 0              @ ../ThirdParty/STM32F4xx_HAL_Driver/Src/stm32f4xx_hal_pcd.c:1079:5
	ldr	r1, [sp, #4]
	.loc	6 1079 18                       @ ../ThirdParty/STM32F4xx_HAL_Driver/Src/stm32f4xx_hal_pcd.c:1079:18
	str	r0, [r1, #16]
	.loc	6 1080 3 is_stmt 1              @ ../ThirdParty/STM32F4xx_HAL_Driver/Src/stm32f4xx_hal_pcd.c:1080:3
	b	.LBB26_2
.Ltmp323:
.LBB26_2:
	.loc	6 1082 8                        @ ../ThirdParty/STM32F4xx_HAL_Driver/Src/stm32f4xx_hal_pcd.c:1082:8
	ldrb.w	r0, [sp, #19]
.Ltmp324:
	.loc	6 1082 7 is_stmt 0              @ ../ThirdParty/STM32F4xx_HAL_Driver/Src/stm32f4xx_hal_pcd.c:1082:7
	lsls	r0, r0, #25
	cbnz	r0, .LBB26_4
	b	.LBB26_3
.LBB26_3:
.Ltmp325:
	.loc	6 1084 22 is_stmt 1             @ ../ThirdParty/STM32F4xx_HAL_Driver/Src/stm32f4xx_hal_pcd.c:1084:22
	ldr	r2, [sp, #20]
	.loc	6 1084 28 is_stmt 0             @ ../ThirdParty/STM32F4xx_HAL_Driver/Src/stm32f4xx_hal_pcd.c:1084:28
	ldr	r0, [r2]
	.loc	6 1084 39                       @ ../ThirdParty/STM32F4xx_HAL_Driver/Src/stm32f4xx_hal_pcd.c:1084:39
	ldr	r1, [sp, #4]
	.loc	6 1084 54                       @ ../ThirdParty/STM32F4xx_HAL_Driver/Src/stm32f4xx_hal_pcd.c:1084:54
	ldrb	r2, [r2, #16]
	.loc	6 1084 5                        @ ../ThirdParty/STM32F4xx_HAL_Driver/Src/stm32f4xx_hal_pcd.c:1084:5
	bl	USB_EP0StartXfer
	.loc	6 1085 3 is_stmt 1              @ ../ThirdParty/STM32F4xx_HAL_Driver/Src/stm32f4xx_hal_pcd.c:1085:3
	b	.LBB26_5
.Ltmp326:
.LBB26_4:
	.loc	6 1088 21                       @ ../ThirdParty/STM32F4xx_HAL_Driver/Src/stm32f4xx_hal_pcd.c:1088:21
	ldr	r2, [sp, #20]
	.loc	6 1088 27 is_stmt 0             @ ../ThirdParty/STM32F4xx_HAL_Driver/Src/stm32f4xx_hal_pcd.c:1088:27
	ldr	r0, [r2]
	.loc	6 1088 38                       @ ../ThirdParty/STM32F4xx_HAL_Driver/Src/stm32f4xx_hal_pcd.c:1088:38
	ldr	r1, [sp, #4]
	.loc	6 1088 53                       @ ../ThirdParty/STM32F4xx_HAL_Driver/Src/stm32f4xx_hal_pcd.c:1088:53
	ldrb	r2, [r2, #16]
	.loc	6 1088 5                        @ ../ThirdParty/STM32F4xx_HAL_Driver/Src/stm32f4xx_hal_pcd.c:1088:5
	bl	USB_EPStartXfer
	b	.LBB26_5
.Ltmp327:
.LBB26_5:
	.loc	6 0 5                           @ ../ThirdParty/STM32F4xx_HAL_Driver/Src/stm32f4xx_hal_pcd.c:0:5
	movs	r0, #0
	.loc	6 1091 3 epilogue_begin is_stmt 1 @ ../ThirdParty/STM32F4xx_HAL_Driver/Src/stm32f4xx_hal_pcd.c:1091:3
	add	sp, #24
	pop	{r7, pc}
.Ltmp328:
.Lfunc_end26:
	.size	HAL_PCD_EP_Transmit, .Lfunc_end26-HAL_PCD_EP_Transmit
	.cfi_endproc
	.cantunwind
	.fnend
                                        @ -- End function
	.section	.text.HAL_PCD_EP_SetStall,"ax",%progbits
	.hidden	HAL_PCD_EP_SetStall             @ -- Begin function HAL_PCD_EP_SetStall
	.globl	HAL_PCD_EP_SetStall
	.p2align	2
	.type	HAL_PCD_EP_SetStall,%function
	.code	16                              @ @HAL_PCD_EP_SetStall
	.thumb_func
HAL_PCD_EP_SetStall:
.Lfunc_begin27:
	.loc	6 1101 0                        @ ../ThirdParty/STM32F4xx_HAL_Driver/Src/stm32f4xx_hal_pcd.c:1101:0
	.fnstart
	.cfi_startproc
@ %bb.0:
	.save	{r7, lr}
	push	{r7, lr}
	.cfi_def_cfa_offset 8
	.cfi_offset lr, -4
	.cfi_offset r7, -8
	.pad	#16
	sub	sp, #16
	.cfi_def_cfa_offset 24
                                        @ kill: def $r2 killed $r1
	str	r0, [sp, #8]
	strb.w	r1, [sp, #7]
.Ltmp329:
	.loc	6 1104 15 prologue_end          @ ../ThirdParty/STM32F4xx_HAL_Driver/Src/stm32f4xx_hal_pcd.c:1104:15
	ldrb.w	r0, [sp, #7]
.Ltmp330:
	.loc	6 1104 7 is_stmt 0              @ ../ThirdParty/STM32F4xx_HAL_Driver/Src/stm32f4xx_hal_pcd.c:1104:7
	lsls	r0, r0, #24
	cmp	r0, #0
	bpl	.LBB27_2
	b	.LBB27_1
.LBB27_1:
.Ltmp331:
	.loc	6 1106 11 is_stmt 1             @ ../ThirdParty/STM32F4xx_HAL_Driver/Src/stm32f4xx_hal_pcd.c:1106:11
	ldr	r0, [sp, #8]
	.loc	6 1106 23 is_stmt 0             @ ../ThirdParty/STM32F4xx_HAL_Driver/Src/stm32f4xx_hal_pcd.c:1106:23
	ldrb.w	r1, [sp, #7]
	.loc	6 1106 31                       @ ../ThirdParty/STM32F4xx_HAL_Driver/Src/stm32f4xx_hal_pcd.c:1106:31
	and	r1, r1, #127
	.loc	6 1106 11                       @ ../ThirdParty/STM32F4xx_HAL_Driver/Src/stm32f4xx_hal_pcd.c:1106:11
	rsb	r1, r1, r1, lsl #3
	.loc	6 1106 17                       @ ../ThirdParty/STM32F4xx_HAL_Driver/Src/stm32f4xx_hal_pcd.c:1106:17
	add.w	r0, r0, r1, lsl #2
	.loc	6 1106 11                       @ ../ThirdParty/STM32F4xx_HAL_Driver/Src/stm32f4xx_hal_pcd.c:1106:11
	adds	r0, #56
	.loc	6 1106 8                        @ ../ThirdParty/STM32F4xx_HAL_Driver/Src/stm32f4xx_hal_pcd.c:1106:8
	str	r0, [sp]
	.loc	6 1107 3 is_stmt 1              @ ../ThirdParty/STM32F4xx_HAL_Driver/Src/stm32f4xx_hal_pcd.c:1107:3
	b	.LBB27_3
.Ltmp332:
.LBB27_2:
	.loc	6 1110 11                       @ ../ThirdParty/STM32F4xx_HAL_Driver/Src/stm32f4xx_hal_pcd.c:1110:11
	ldr	r0, [sp, #8]
	.loc	6 1110 24 is_stmt 0             @ ../ThirdParty/STM32F4xx_HAL_Driver/Src/stm32f4xx_hal_pcd.c:1110:24
	ldrb.w	r1, [sp, #7]
	.loc	6 1110 11                       @ ../ThirdParty/STM32F4xx_HAL_Driver/Src/stm32f4xx_hal_pcd.c:1110:11
	rsb	r1, r1, r1, lsl #3
	.loc	6 1110 17                       @ ../ThirdParty/STM32F4xx_HAL_Driver/Src/stm32f4xx_hal_pcd.c:1110:17
	add.w	r0, r0, r1, lsl #2
	.loc	6 1110 11                       @ ../ThirdParty/STM32F4xx_HAL_Driver/Src/stm32f4xx_hal_pcd.c:1110:11
	add.w	r0, r0, #504
	.loc	6 1110 8                        @ ../ThirdParty/STM32F4xx_HAL_Driver/Src/stm32f4xx_hal_pcd.c:1110:8
	str	r0, [sp]
	b	.LBB27_3
.Ltmp333:
.LBB27_3:
	.loc	6 1113 3 is_stmt 1              @ ../ThirdParty/STM32F4xx_HAL_Driver/Src/stm32f4xx_hal_pcd.c:1113:3
	ldr	r1, [sp]
	movs	r0, #1
	.loc	6 1113 16 is_stmt 0             @ ../ThirdParty/STM32F4xx_HAL_Driver/Src/stm32f4xx_hal_pcd.c:1113:16
	strb	r0, [r1, #2]
	.loc	6 1114 15 is_stmt 1             @ ../ThirdParty/STM32F4xx_HAL_Driver/Src/stm32f4xx_hal_pcd.c:1114:15
	ldrb.w	r0, [sp, #7]
	.loc	6 1114 23 is_stmt 0             @ ../ThirdParty/STM32F4xx_HAL_Driver/Src/stm32f4xx_hal_pcd.c:1114:23
	and	r0, r0, #127
	.loc	6 1114 3                        @ ../ThirdParty/STM32F4xx_HAL_Driver/Src/stm32f4xx_hal_pcd.c:1114:3
	ldr	r1, [sp]
	.loc	6 1114 13                       @ ../ThirdParty/STM32F4xx_HAL_Driver/Src/stm32f4xx_hal_pcd.c:1114:13
	strb	r0, [r1]
	.loc	6 1115 17 is_stmt 1             @ ../ThirdParty/STM32F4xx_HAL_Driver/Src/stm32f4xx_hal_pcd.c:1115:17
	ldrb.w	r0, [sp, #7]
	.loc	6 1115 33 is_stmt 0             @ ../ThirdParty/STM32F4xx_HAL_Driver/Src/stm32f4xx_hal_pcd.c:1115:33
	lsrs	r0, r0, #7
	.loc	6 1115 3                        @ ../ThirdParty/STM32F4xx_HAL_Driver/Src/stm32f4xx_hal_pcd.c:1115:3
	ldr	r1, [sp]
	.loc	6 1115 13                       @ ../ThirdParty/STM32F4xx_HAL_Driver/Src/stm32f4xx_hal_pcd.c:1115:13
	strb	r0, [r1, #1]
	.loc	6 1118 3 is_stmt 1              @ ../ThirdParty/STM32F4xx_HAL_Driver/Src/stm32f4xx_hal_pcd.c:1118:3
	b	.LBB27_4
.LBB27_4:
.Ltmp334:
	.loc	6 1118 3 is_stmt 0              @ ../ThirdParty/STM32F4xx_HAL_Driver/Src/stm32f4xx_hal_pcd.c:1118:3
	ldr	r0, [sp, #8]
	ldrb.w	r0, [r0, #952]
.Ltmp335:
	.loc	6 1118 3                        @ ../ThirdParty/STM32F4xx_HAL_Driver/Src/stm32f4xx_hal_pcd.c:1118:3
	cmp	r0, #1
	bne	.LBB27_6
	b	.LBB27_5
.LBB27_5:
	.loc	6 0 3                           @ ../ThirdParty/STM32F4xx_HAL_Driver/Src/stm32f4xx_hal_pcd.c:0:3
	movs	r0, #2
.Ltmp336:
	.loc	6 1118 3                        @ ../ThirdParty/STM32F4xx_HAL_Driver/Src/stm32f4xx_hal_pcd.c:1118:3
	strb.w	r0, [sp, #15]
	b	.LBB27_13
.Ltmp337:
.LBB27_6:
	.loc	6 1118 3                        @ ../ThirdParty/STM32F4xx_HAL_Driver/Src/stm32f4xx_hal_pcd.c:1118:3
	ldr	r1, [sp, #8]
	movs	r0, #1
	strb.w	r0, [r1, #952]
	b	.LBB27_7
.Ltmp338:
.LBB27_7:
	.loc	6 1118 3                        @ ../ThirdParty/STM32F4xx_HAL_Driver/Src/stm32f4xx_hal_pcd.c:1118:3
	b	.LBB27_8
.Ltmp339:
.LBB27_8:
	.loc	6 1119 18 is_stmt 1             @ ../ThirdParty/STM32F4xx_HAL_Driver/Src/stm32f4xx_hal_pcd.c:1119:18
	ldr	r0, [sp, #8]
	.loc	6 1119 24 is_stmt 0             @ ../ThirdParty/STM32F4xx_HAL_Driver/Src/stm32f4xx_hal_pcd.c:1119:24
	ldr	r0, [r0]
	.loc	6 1119 35                       @ ../ThirdParty/STM32F4xx_HAL_Driver/Src/stm32f4xx_hal_pcd.c:1119:35
	ldr	r1, [sp]
	.loc	6 1119 3                        @ ../ThirdParty/STM32F4xx_HAL_Driver/Src/stm32f4xx_hal_pcd.c:1119:3
	bl	USB_EPSetStall
.Ltmp340:
	.loc	6 1120 7 is_stmt 1              @ ../ThirdParty/STM32F4xx_HAL_Driver/Src/stm32f4xx_hal_pcd.c:1120:7
	ldrb.w	r0, [sp, #7]
.Ltmp341:
	.loc	6 1120 6 is_stmt 0              @ ../ThirdParty/STM32F4xx_HAL_Driver/Src/stm32f4xx_hal_pcd.c:1120:6
	lsls	r0, r0, #25
	cbnz	r0, .LBB27_10
	b	.LBB27_9
.LBB27_9:
.Ltmp342:
	.loc	6 1122 22 is_stmt 1             @ ../ThirdParty/STM32F4xx_HAL_Driver/Src/stm32f4xx_hal_pcd.c:1122:22
	ldr	r2, [sp, #8]
	.loc	6 1122 28 is_stmt 0             @ ../ThirdParty/STM32F4xx_HAL_Driver/Src/stm32f4xx_hal_pcd.c:1122:28
	ldr	r0, [r2]
	.loc	6 1122 49                       @ ../ThirdParty/STM32F4xx_HAL_Driver/Src/stm32f4xx_hal_pcd.c:1122:49
	ldrb	r1, [r2, #16]
	.loc	6 1122 78                       @ ../ThirdParty/STM32F4xx_HAL_Driver/Src/stm32f4xx_hal_pcd.c:1122:78
	add.w	r2, r2, #956
	.loc	6 1122 5                        @ ../ThirdParty/STM32F4xx_HAL_Driver/Src/stm32f4xx_hal_pcd.c:1122:5
	bl	USB_EP0_OutStart
	.loc	6 1123 3 is_stmt 1              @ ../ThirdParty/STM32F4xx_HAL_Driver/Src/stm32f4xx_hal_pcd.c:1123:3
	b	.LBB27_10
.Ltmp343:
.LBB27_10:
	.loc	6 1124 3                        @ ../ThirdParty/STM32F4xx_HAL_Driver/Src/stm32f4xx_hal_pcd.c:1124:3
	b	.LBB27_11
.LBB27_11:
.Ltmp344:
	.loc	6 1124 3 is_stmt 0              @ ../ThirdParty/STM32F4xx_HAL_Driver/Src/stm32f4xx_hal_pcd.c:1124:3
	ldr	r1, [sp, #8]
	movs	r0, #0
	strb.w	r0, [r1, #952]
	b	.LBB27_12
.Ltmp345:
.LBB27_12:
	.loc	6 0 3                           @ ../ThirdParty/STM32F4xx_HAL_Driver/Src/stm32f4xx_hal_pcd.c:0:3
	movs	r0, #0
	.loc	6 1126 3 is_stmt 1              @ ../ThirdParty/STM32F4xx_HAL_Driver/Src/stm32f4xx_hal_pcd.c:1126:3
	strb.w	r0, [sp, #15]
	b	.LBB27_13
.LBB27_13:
	.loc	6 1127 1                        @ ../ThirdParty/STM32F4xx_HAL_Driver/Src/stm32f4xx_hal_pcd.c:1127:1
	ldrb.w	r0, [sp, #15]
	.loc	6 1127 1 epilogue_begin is_stmt 0 @ ../ThirdParty/STM32F4xx_HAL_Driver/Src/stm32f4xx_hal_pcd.c:1127:1
	add	sp, #16
	pop	{r7, pc}
.Ltmp346:
.Lfunc_end27:
	.size	HAL_PCD_EP_SetStall, .Lfunc_end27-HAL_PCD_EP_SetStall
	.cfi_endproc
	.cantunwind
	.fnend
                                        @ -- End function
	.section	.text.HAL_PCD_EP_ClrStall,"ax",%progbits
	.hidden	HAL_PCD_EP_ClrStall             @ -- Begin function HAL_PCD_EP_ClrStall
	.globl	HAL_PCD_EP_ClrStall
	.p2align	2
	.type	HAL_PCD_EP_ClrStall,%function
	.code	16                              @ @HAL_PCD_EP_ClrStall
	.thumb_func
HAL_PCD_EP_ClrStall:
.Lfunc_begin28:
	.loc	6 1136 0 is_stmt 1              @ ../ThirdParty/STM32F4xx_HAL_Driver/Src/stm32f4xx_hal_pcd.c:1136:0
	.fnstart
	.cfi_startproc
@ %bb.0:
	.save	{r7, lr}
	push	{r7, lr}
	.cfi_def_cfa_offset 8
	.cfi_offset lr, -4
	.cfi_offset r7, -8
	.pad	#16
	sub	sp, #16
	.cfi_def_cfa_offset 24
                                        @ kill: def $r2 killed $r1
	str	r0, [sp, #8]
	strb.w	r1, [sp, #7]
.Ltmp347:
	.loc	6 1139 15 prologue_end          @ ../ThirdParty/STM32F4xx_HAL_Driver/Src/stm32f4xx_hal_pcd.c:1139:15
	ldrb.w	r0, [sp, #7]
.Ltmp348:
	.loc	6 1139 7 is_stmt 0              @ ../ThirdParty/STM32F4xx_HAL_Driver/Src/stm32f4xx_hal_pcd.c:1139:7
	lsls	r0, r0, #24
	cmp	r0, #0
	bpl	.LBB28_2
	b	.LBB28_1
.LBB28_1:
.Ltmp349:
	.loc	6 1141 11 is_stmt 1             @ ../ThirdParty/STM32F4xx_HAL_Driver/Src/stm32f4xx_hal_pcd.c:1141:11
	ldr	r0, [sp, #8]
	.loc	6 1141 23 is_stmt 0             @ ../ThirdParty/STM32F4xx_HAL_Driver/Src/stm32f4xx_hal_pcd.c:1141:23
	ldrb.w	r1, [sp, #7]
	.loc	6 1141 31                       @ ../ThirdParty/STM32F4xx_HAL_Driver/Src/stm32f4xx_hal_pcd.c:1141:31
	and	r1, r1, #127
	.loc	6 1141 11                       @ ../ThirdParty/STM32F4xx_HAL_Driver/Src/stm32f4xx_hal_pcd.c:1141:11
	rsb	r1, r1, r1, lsl #3
	.loc	6 1141 17                       @ ../ThirdParty/STM32F4xx_HAL_Driver/Src/stm32f4xx_hal_pcd.c:1141:17
	add.w	r0, r0, r1, lsl #2
	.loc	6 1141 11                       @ ../ThirdParty/STM32F4xx_HAL_Driver/Src/stm32f4xx_hal_pcd.c:1141:11
	adds	r0, #56
	.loc	6 1141 8                        @ ../ThirdParty/STM32F4xx_HAL_Driver/Src/stm32f4xx_hal_pcd.c:1141:8
	str	r0, [sp]
	.loc	6 1142 3 is_stmt 1              @ ../ThirdParty/STM32F4xx_HAL_Driver/Src/stm32f4xx_hal_pcd.c:1142:3
	b	.LBB28_3
.Ltmp350:
.LBB28_2:
	.loc	6 1145 11                       @ ../ThirdParty/STM32F4xx_HAL_Driver/Src/stm32f4xx_hal_pcd.c:1145:11
	ldr	r0, [sp, #8]
	.loc	6 1145 24 is_stmt 0             @ ../ThirdParty/STM32F4xx_HAL_Driver/Src/stm32f4xx_hal_pcd.c:1145:24
	ldrb.w	r1, [sp, #7]
	.loc	6 1145 11                       @ ../ThirdParty/STM32F4xx_HAL_Driver/Src/stm32f4xx_hal_pcd.c:1145:11
	rsb	r1, r1, r1, lsl #3
	.loc	6 1145 17                       @ ../ThirdParty/STM32F4xx_HAL_Driver/Src/stm32f4xx_hal_pcd.c:1145:17
	add.w	r0, r0, r1, lsl #2
	.loc	6 1145 11                       @ ../ThirdParty/STM32F4xx_HAL_Driver/Src/stm32f4xx_hal_pcd.c:1145:11
	add.w	r0, r0, #504
	.loc	6 1145 8                        @ ../ThirdParty/STM32F4xx_HAL_Driver/Src/stm32f4xx_hal_pcd.c:1145:8
	str	r0, [sp]
	b	.LBB28_3
.Ltmp351:
.LBB28_3:
	.loc	6 1148 3 is_stmt 1              @ ../ThirdParty/STM32F4xx_HAL_Driver/Src/stm32f4xx_hal_pcd.c:1148:3
	ldr	r1, [sp]
	movs	r0, #0
	.loc	6 1148 16 is_stmt 0             @ ../ThirdParty/STM32F4xx_HAL_Driver/Src/stm32f4xx_hal_pcd.c:1148:16
	strb	r0, [r1, #2]
	.loc	6 1149 15 is_stmt 1             @ ../ThirdParty/STM32F4xx_HAL_Driver/Src/stm32f4xx_hal_pcd.c:1149:15
	ldrb.w	r0, [sp, #7]
	.loc	6 1149 23 is_stmt 0             @ ../ThirdParty/STM32F4xx_HAL_Driver/Src/stm32f4xx_hal_pcd.c:1149:23
	and	r0, r0, #127
	.loc	6 1149 3                        @ ../ThirdParty/STM32F4xx_HAL_Driver/Src/stm32f4xx_hal_pcd.c:1149:3
	ldr	r1, [sp]
	.loc	6 1149 13                       @ ../ThirdParty/STM32F4xx_HAL_Driver/Src/stm32f4xx_hal_pcd.c:1149:13
	strb	r0, [r1]
	.loc	6 1150 17 is_stmt 1             @ ../ThirdParty/STM32F4xx_HAL_Driver/Src/stm32f4xx_hal_pcd.c:1150:17
	ldrb.w	r0, [sp, #7]
	.loc	6 1150 33 is_stmt 0             @ ../ThirdParty/STM32F4xx_HAL_Driver/Src/stm32f4xx_hal_pcd.c:1150:33
	lsrs	r0, r0, #7
	.loc	6 1150 3                        @ ../ThirdParty/STM32F4xx_HAL_Driver/Src/stm32f4xx_hal_pcd.c:1150:3
	ldr	r1, [sp]
	.loc	6 1150 13                       @ ../ThirdParty/STM32F4xx_HAL_Driver/Src/stm32f4xx_hal_pcd.c:1150:13
	strb	r0, [r1, #1]
	.loc	6 1152 3 is_stmt 1              @ ../ThirdParty/STM32F4xx_HAL_Driver/Src/stm32f4xx_hal_pcd.c:1152:3
	b	.LBB28_4
.LBB28_4:
.Ltmp352:
	.loc	6 1152 3 is_stmt 0              @ ../ThirdParty/STM32F4xx_HAL_Driver/Src/stm32f4xx_hal_pcd.c:1152:3
	ldr	r0, [sp, #8]
	ldrb.w	r0, [r0, #952]
.Ltmp353:
	.loc	6 1152 3                        @ ../ThirdParty/STM32F4xx_HAL_Driver/Src/stm32f4xx_hal_pcd.c:1152:3
	cmp	r0, #1
	bne	.LBB28_6
	b	.LBB28_5
.LBB28_5:
	.loc	6 0 3                           @ ../ThirdParty/STM32F4xx_HAL_Driver/Src/stm32f4xx_hal_pcd.c:0:3
	movs	r0, #2
.Ltmp354:
	.loc	6 1152 3                        @ ../ThirdParty/STM32F4xx_HAL_Driver/Src/stm32f4xx_hal_pcd.c:1152:3
	strb.w	r0, [sp, #15]
	b	.LBB28_11
.Ltmp355:
.LBB28_6:
	.loc	6 1152 3                        @ ../ThirdParty/STM32F4xx_HAL_Driver/Src/stm32f4xx_hal_pcd.c:1152:3
	ldr	r1, [sp, #8]
	movs	r0, #1
	strb.w	r0, [r1, #952]
	b	.LBB28_7
.Ltmp356:
.LBB28_7:
	.loc	6 1152 3                        @ ../ThirdParty/STM32F4xx_HAL_Driver/Src/stm32f4xx_hal_pcd.c:1152:3
	b	.LBB28_8
.Ltmp357:
.LBB28_8:
	.loc	6 1153 20 is_stmt 1             @ ../ThirdParty/STM32F4xx_HAL_Driver/Src/stm32f4xx_hal_pcd.c:1153:20
	ldr	r0, [sp, #8]
	.loc	6 1153 26 is_stmt 0             @ ../ThirdParty/STM32F4xx_HAL_Driver/Src/stm32f4xx_hal_pcd.c:1153:26
	ldr	r0, [r0]
	.loc	6 1153 37                       @ ../ThirdParty/STM32F4xx_HAL_Driver/Src/stm32f4xx_hal_pcd.c:1153:37
	ldr	r1, [sp]
	.loc	6 1153 3                        @ ../ThirdParty/STM32F4xx_HAL_Driver/Src/stm32f4xx_hal_pcd.c:1153:3
	bl	USB_EPClearStall
	.loc	6 1154 3 is_stmt 1              @ ../ThirdParty/STM32F4xx_HAL_Driver/Src/stm32f4xx_hal_pcd.c:1154:3
	b	.LBB28_9
.LBB28_9:
.Ltmp358:
	.loc	6 1154 3 is_stmt 0              @ ../ThirdParty/STM32F4xx_HAL_Driver/Src/stm32f4xx_hal_pcd.c:1154:3
	ldr	r1, [sp, #8]
	movs	r0, #0
	strb.w	r0, [r1, #952]
	b	.LBB28_10
.Ltmp359:
.LBB28_10:
	.loc	6 0 3                           @ ../ThirdParty/STM32F4xx_HAL_Driver/Src/stm32f4xx_hal_pcd.c:0:3
	movs	r0, #0
	.loc	6 1156 3 is_stmt 1              @ ../ThirdParty/STM32F4xx_HAL_Driver/Src/stm32f4xx_hal_pcd.c:1156:3
	strb.w	r0, [sp, #15]
	b	.LBB28_11
.LBB28_11:
	.loc	6 1157 1                        @ ../ThirdParty/STM32F4xx_HAL_Driver/Src/stm32f4xx_hal_pcd.c:1157:1
	ldrb.w	r0, [sp, #15]
	.loc	6 1157 1 epilogue_begin is_stmt 0 @ ../ThirdParty/STM32F4xx_HAL_Driver/Src/stm32f4xx_hal_pcd.c:1157:1
	add	sp, #16
	pop	{r7, pc}
.Ltmp360:
.Lfunc_end28:
	.size	HAL_PCD_EP_ClrStall, .Lfunc_end28-HAL_PCD_EP_ClrStall
	.cfi_endproc
	.cantunwind
	.fnend
                                        @ -- End function
	.section	.text.HAL_PCD_EP_Flush,"ax",%progbits
	.hidden	HAL_PCD_EP_Flush                @ -- Begin function HAL_PCD_EP_Flush
	.globl	HAL_PCD_EP_Flush
	.p2align	2
	.type	HAL_PCD_EP_Flush,%function
	.code	16                              @ @HAL_PCD_EP_Flush
	.thumb_func
HAL_PCD_EP_Flush:
.Lfunc_begin29:
	.loc	6 1166 0 is_stmt 1              @ ../ThirdParty/STM32F4xx_HAL_Driver/Src/stm32f4xx_hal_pcd.c:1166:0
	.fnstart
	.cfi_startproc
@ %bb.0:
	.save	{r7, lr}
	push	{r7, lr}
	.cfi_def_cfa_offset 8
	.cfi_offset lr, -4
	.cfi_offset r7, -8
	.pad	#16
	sub	sp, #16
	.cfi_def_cfa_offset 24
                                        @ kill: def $r2 killed $r1
	str	r0, [sp, #8]
	strb.w	r1, [sp, #7]
.Ltmp361:
	.loc	6 1167 3 prologue_end           @ ../ThirdParty/STM32F4xx_HAL_Driver/Src/stm32f4xx_hal_pcd.c:1167:3
	b	.LBB29_1
.LBB29_1:
.Ltmp362:
	.loc	6 1167 3 is_stmt 0              @ ../ThirdParty/STM32F4xx_HAL_Driver/Src/stm32f4xx_hal_pcd.c:1167:3
	ldr	r0, [sp, #8]
	ldrb.w	r0, [r0, #952]
.Ltmp363:
	.loc	6 1167 3                        @ ../ThirdParty/STM32F4xx_HAL_Driver/Src/stm32f4xx_hal_pcd.c:1167:3
	cmp	r0, #1
	bne	.LBB29_3
	b	.LBB29_2
.LBB29_2:
	.loc	6 0 3                           @ ../ThirdParty/STM32F4xx_HAL_Driver/Src/stm32f4xx_hal_pcd.c:0:3
	movs	r0, #2
.Ltmp364:
	.loc	6 1167 3                        @ ../ThirdParty/STM32F4xx_HAL_Driver/Src/stm32f4xx_hal_pcd.c:1167:3
	strb.w	r0, [sp, #15]
	b	.LBB29_11
.Ltmp365:
.LBB29_3:
	.loc	6 1167 3                        @ ../ThirdParty/STM32F4xx_HAL_Driver/Src/stm32f4xx_hal_pcd.c:1167:3
	ldr	r1, [sp, #8]
	movs	r0, #1
	strb.w	r0, [r1, #952]
	b	.LBB29_4
.Ltmp366:
.LBB29_4:
	.loc	6 1167 3                        @ ../ThirdParty/STM32F4xx_HAL_Driver/Src/stm32f4xx_hal_pcd.c:1167:3
	b	.LBB29_5
.Ltmp367:
.LBB29_5:
	.loc	6 1169 8 is_stmt 1              @ ../ThirdParty/STM32F4xx_HAL_Driver/Src/stm32f4xx_hal_pcd.c:1169:8
	ldrb.w	r0, [sp, #7]
.Ltmp368:
	.loc	6 1169 7 is_stmt 0              @ ../ThirdParty/STM32F4xx_HAL_Driver/Src/stm32f4xx_hal_pcd.c:1169:7
	lsls	r0, r0, #24
	cmp	r0, #0
	bpl	.LBB29_7
	b	.LBB29_6
.LBB29_6:
.Ltmp369:
	.loc	6 1171 21 is_stmt 1             @ ../ThirdParty/STM32F4xx_HAL_Driver/Src/stm32f4xx_hal_pcd.c:1171:21
	ldr	r0, [sp, #8]
	.loc	6 1171 27 is_stmt 0             @ ../ThirdParty/STM32F4xx_HAL_Driver/Src/stm32f4xx_hal_pcd.c:1171:27
	ldr	r0, [r0]
	.loc	6 1171 37                       @ ../ThirdParty/STM32F4xx_HAL_Driver/Src/stm32f4xx_hal_pcd.c:1171:37
	ldrb.w	r1, [sp, #7]
	.loc	6 1171 45                       @ ../ThirdParty/STM32F4xx_HAL_Driver/Src/stm32f4xx_hal_pcd.c:1171:45
	and	r1, r1, #127
	.loc	6 1171 5                        @ ../ThirdParty/STM32F4xx_HAL_Driver/Src/stm32f4xx_hal_pcd.c:1171:5
	bl	USB_FlushTxFifo
	.loc	6 1172 3 is_stmt 1              @ ../ThirdParty/STM32F4xx_HAL_Driver/Src/stm32f4xx_hal_pcd.c:1172:3
	b	.LBB29_8
.Ltmp370:
.LBB29_7:
	.loc	6 1175 21                       @ ../ThirdParty/STM32F4xx_HAL_Driver/Src/stm32f4xx_hal_pcd.c:1175:21
	ldr	r0, [sp, #8]
	.loc	6 1175 27 is_stmt 0             @ ../ThirdParty/STM32F4xx_HAL_Driver/Src/stm32f4xx_hal_pcd.c:1175:27
	ldr	r0, [r0]
	.loc	6 1175 5                        @ ../ThirdParty/STM32F4xx_HAL_Driver/Src/stm32f4xx_hal_pcd.c:1175:5
	bl	USB_FlushRxFifo
	b	.LBB29_8
.Ltmp371:
.LBB29_8:
	.loc	6 1178 3 is_stmt 1              @ ../ThirdParty/STM32F4xx_HAL_Driver/Src/stm32f4xx_hal_pcd.c:1178:3
	b	.LBB29_9
.LBB29_9:
.Ltmp372:
	.loc	6 1178 3 is_stmt 0              @ ../ThirdParty/STM32F4xx_HAL_Driver/Src/stm32f4xx_hal_pcd.c:1178:3
	ldr	r1, [sp, #8]
	movs	r0, #0
	strb.w	r0, [r1, #952]
	b	.LBB29_10
.Ltmp373:
.LBB29_10:
	.loc	6 0 3                           @ ../ThirdParty/STM32F4xx_HAL_Driver/Src/stm32f4xx_hal_pcd.c:0:3
	movs	r0, #0
	.loc	6 1180 3 is_stmt 1              @ ../ThirdParty/STM32F4xx_HAL_Driver/Src/stm32f4xx_hal_pcd.c:1180:3
	strb.w	r0, [sp, #15]
	b	.LBB29_11
.LBB29_11:
	.loc	6 1181 1                        @ ../ThirdParty/STM32F4xx_HAL_Driver/Src/stm32f4xx_hal_pcd.c:1181:1
	ldrb.w	r0, [sp, #15]
	.loc	6 1181 1 epilogue_begin is_stmt 0 @ ../ThirdParty/STM32F4xx_HAL_Driver/Src/stm32f4xx_hal_pcd.c:1181:1
	add	sp, #16
	pop	{r7, pc}
.Ltmp374:
.Lfunc_end29:
	.size	HAL_PCD_EP_Flush, .Lfunc_end29-HAL_PCD_EP_Flush
	.cfi_endproc
	.cantunwind
	.fnend
                                        @ -- End function
	.section	.text.HAL_PCD_ActivateRemoteWakeup,"ax",%progbits
	.hidden	HAL_PCD_ActivateRemoteWakeup    @ -- Begin function HAL_PCD_ActivateRemoteWakeup
	.globl	HAL_PCD_ActivateRemoteWakeup
	.p2align	2
	.type	HAL_PCD_ActivateRemoteWakeup,%function
	.code	16                              @ @HAL_PCD_ActivateRemoteWakeup
	.thumb_func
HAL_PCD_ActivateRemoteWakeup:
.Lfunc_begin30:
	.loc	6 1189 0 is_stmt 1              @ ../ThirdParty/STM32F4xx_HAL_Driver/Src/stm32f4xx_hal_pcd.c:1189:0
	.fnstart
	.cfi_startproc
@ %bb.0:
	.pad	#8
	sub	sp, #8
	.cfi_def_cfa_offset 8
	str	r0, [sp, #4]
.Ltmp375:
	.loc	6 1190 33 prologue_end          @ ../ThirdParty/STM32F4xx_HAL_Driver/Src/stm32f4xx_hal_pcd.c:1190:33
	ldr	r0, [sp, #4]
	.loc	6 1190 39 is_stmt 0             @ ../ThirdParty/STM32F4xx_HAL_Driver/Src/stm32f4xx_hal_pcd.c:1190:39
	ldr	r0, [r0]
	.loc	6 1190 26                       @ ../ThirdParty/STM32F4xx_HAL_Driver/Src/stm32f4xx_hal_pcd.c:1190:26
	str	r0, [sp]
.Ltmp376:
	.loc	6 1192 7 is_stmt 1              @ ../ThirdParty/STM32F4xx_HAL_Driver/Src/stm32f4xx_hal_pcd.c:1192:7
	ldr	r0, [sp]
	.loc	6 1192 20 is_stmt 0             @ ../ThirdParty/STM32F4xx_HAL_Driver/Src/stm32f4xx_hal_pcd.c:1192:20
	ldr.w	r0, [r0, #2056]
.Ltmp377:
	.loc	6 1192 6                        @ ../ThirdParty/STM32F4xx_HAL_Driver/Src/stm32f4xx_hal_pcd.c:1192:6
	lsls	r0, r0, #31
	cbz	r0, .LBB30_2
	b	.LBB30_1
.LBB30_1:
.Ltmp378:
	.loc	6 1195 5 is_stmt 1              @ ../ThirdParty/STM32F4xx_HAL_Driver/Src/stm32f4xx_hal_pcd.c:1195:5
	ldr	r1, [sp]
	.loc	6 1195 23 is_stmt 0             @ ../ThirdParty/STM32F4xx_HAL_Driver/Src/stm32f4xx_hal_pcd.c:1195:23
	ldr.w	r0, [r1, #2052]
	orr	r0, r0, #1
	str.w	r0, [r1, #2052]
	.loc	6 1196 3 is_stmt 1              @ ../ThirdParty/STM32F4xx_HAL_Driver/Src/stm32f4xx_hal_pcd.c:1196:3
	b	.LBB30_2
.Ltmp379:
.LBB30_2:
	.loc	6 0 3 is_stmt 0                 @ ../ThirdParty/STM32F4xx_HAL_Driver/Src/stm32f4xx_hal_pcd.c:0:3
	movs	r0, #0
	.loc	6 1197 3 epilogue_begin is_stmt 1 @ ../ThirdParty/STM32F4xx_HAL_Driver/Src/stm32f4xx_hal_pcd.c:1197:3
	add	sp, #8
	bx	lr
.Ltmp380:
.Lfunc_end30:
	.size	HAL_PCD_ActivateRemoteWakeup, .Lfunc_end30-HAL_PCD_ActivateRemoteWakeup
	.cfi_endproc
	.cantunwind
	.fnend
                                        @ -- End function
	.section	.text.HAL_PCD_DeActivateRemoteWakeup,"ax",%progbits
	.hidden	HAL_PCD_DeActivateRemoteWakeup  @ -- Begin function HAL_PCD_DeActivateRemoteWakeup
	.globl	HAL_PCD_DeActivateRemoteWakeup
	.p2align	2
	.type	HAL_PCD_DeActivateRemoteWakeup,%function
	.code	16                              @ @HAL_PCD_DeActivateRemoteWakeup
	.thumb_func
HAL_PCD_DeActivateRemoteWakeup:
.Lfunc_begin31:
	.loc	6 1206 0                        @ ../ThirdParty/STM32F4xx_HAL_Driver/Src/stm32f4xx_hal_pcd.c:1206:0
	.fnstart
	.cfi_startproc
@ %bb.0:
	.pad	#8
	sub	sp, #8
	.cfi_def_cfa_offset 8
	str	r0, [sp, #4]
.Ltmp381:
	.loc	6 1207 33 prologue_end          @ ../ThirdParty/STM32F4xx_HAL_Driver/Src/stm32f4xx_hal_pcd.c:1207:33
	ldr	r0, [sp, #4]
	.loc	6 1207 39 is_stmt 0             @ ../ThirdParty/STM32F4xx_HAL_Driver/Src/stm32f4xx_hal_pcd.c:1207:39
	ldr	r0, [r0]
	.loc	6 1207 26                       @ ../ThirdParty/STM32F4xx_HAL_Driver/Src/stm32f4xx_hal_pcd.c:1207:26
	str	r0, [sp]
	.loc	6 1210 3 is_stmt 1              @ ../ThirdParty/STM32F4xx_HAL_Driver/Src/stm32f4xx_hal_pcd.c:1210:3
	ldr	r1, [sp]
	.loc	6 1210 21 is_stmt 0             @ ../ThirdParty/STM32F4xx_HAL_Driver/Src/stm32f4xx_hal_pcd.c:1210:21
	ldr.w	r0, [r1, #2052]
	bic	r0, r0, #1
	str.w	r0, [r1, #2052]
	movs	r0, #0
	.loc	6 1211 3 epilogue_begin is_stmt 1 @ ../ThirdParty/STM32F4xx_HAL_Driver/Src/stm32f4xx_hal_pcd.c:1211:3
	add	sp, #8
	bx	lr
.Ltmp382:
.Lfunc_end31:
	.size	HAL_PCD_DeActivateRemoteWakeup, .Lfunc_end31-HAL_PCD_DeActivateRemoteWakeup
	.cfi_endproc
	.cantunwind
	.fnend
                                        @ -- End function
	.section	.text.HAL_PCD_GetState,"ax",%progbits
	.hidden	HAL_PCD_GetState                @ -- Begin function HAL_PCD_GetState
	.globl	HAL_PCD_GetState
	.p2align	2
	.type	HAL_PCD_GetState,%function
	.code	16                              @ @HAL_PCD_GetState
	.thumb_func
HAL_PCD_GetState:
.Lfunc_begin32:
	.loc	6 1238 0                        @ ../ThirdParty/STM32F4xx_HAL_Driver/Src/stm32f4xx_hal_pcd.c:1238:0
	.fnstart
	.cfi_startproc
@ %bb.0:
	.pad	#4
	sub	sp, #4
	.cfi_def_cfa_offset 4
	str	r0, [sp]
.Ltmp383:
	.loc	6 1239 10 prologue_end          @ ../ThirdParty/STM32F4xx_HAL_Driver/Src/stm32f4xx_hal_pcd.c:1239:10
	ldr	r0, [sp]
	.loc	6 1239 16 is_stmt 0             @ ../ThirdParty/STM32F4xx_HAL_Driver/Src/stm32f4xx_hal_pcd.c:1239:16
	ldrb.w	r0, [r0, #953]
	.loc	6 1239 3 epilogue_begin         @ ../ThirdParty/STM32F4xx_HAL_Driver/Src/stm32f4xx_hal_pcd.c:1239:3
	add	sp, #4
	bx	lr
.Ltmp384:
.Lfunc_end32:
	.size	HAL_PCD_GetState, .Lfunc_end32-HAL_PCD_GetState
	.cfi_endproc
	.cantunwind
	.fnend
                                        @ -- End function
	.section	".note.GNU-stack","",%progbits
	.eabi_attribute	30, 6	@ Tag_ABI_optimization_goals
	.ARM_attribute	16, 1	@ Tag_AV_eba