	.text
	.syntax unified
	.eabi_attribute	67, "2.09"	@ Tag_conformance
	.cpu	cortex-m4
	.eabi_attribute	6, 13	@ Tag_CPU_arch
	.eabi_attribute	7, 77	@ Tag_CPU_arch_profile
	.eabi_attribute	8, 0	@ Tag_ARM_ISA_use
	.eabi_attribute	9, 2	@ Tag_THUMB_ISA_use
	.fpu	fpv4-sp-d16
	.eabi_attribute	27, 1	@ Tag_ABI_HardFP_use
	.eabi_attribute	36, 1	@ Tag_FP_HP_extension
	.eabi_attribute	34, 1	@ Tag_CPU_unaligned_access
	.eabi_attribute	17, 1	@ Tag_ABI_PCS_GOT_use
	.eabi_attribute	20, 2	@ Tag_ABI_FP_denormal
	.eabi_attribute	21, 0	@ Tag_ABI_FP_exceptions
	.eabi_attribute	23, 1	@ Tag_ABI_FP_number_model
	.eabi_attribute	24, 1	@ Tag_ABI_align_needed
	.eabi_attribute	25, 1	@ Tag_ABI_align_preserved
	.eabi_attribute	28, 1	@ Tag_ABI_VFP_args
	.eabi_attribute	38, 1	@ Tag_ABI_FP_16bit_format
	.eabi_attribute	18, 2	@ Tag_ABI_PCS_wchar_t
	.eabi_attribute	26, 1	@ Tag_ABI_enum_size
	.eabi_attribute	14, 0	@ Tag_ABI_PCS_R9_use
	.file	"stm32f4xx_hal_gpio.c"
	.file	1 "D:\\ikingtec\\Robot\\ODrive\\Firmware\\MDK-ARM" "../ThirdParty/STM32F4xx_HAL_Driver/Inc\\stm32f4xx_hal_gpio.h"
	.file	2 "D:\\ikingtec\\Robot\\ODrive\\Firmware\\MDK-ARM" "../ThirdParty/STM32F4xx_HAL_Driver/Inc/stm32f4xx_hal_def.h"
	.file	3 "D:\\ikingtec\\Robot\\ODrive\\Firmware\\MDK-ARM" "../ThirdParty/CMSIS/Device/ST/STM32F4xx/Include\\stm32f4xx.h"
	.file	4 "D:\\Embed\\MDK\\MDK\\ARM\\ARMCompilerV621\\Bin\\..\\include" "stdint.h"
	.file	5 "D:\\ikingtec\\Robot\\ODrive\\Firmware\\MDK-ARM" "../ThirdParty/CMSIS/Device/ST/STM32F4xx/Include/stm32f405xx.h"
	.section	.text.HAL_GPIO_Init,"ax",%progbits
	.hidden	HAL_GPIO_Init                   @ -- Begin function HAL_GPIO_Init
	.globl	HAL_GPIO_Init
	.p2align	2
	.type	HAL_GPIO_Init,%function
	.code	16                              @ @HAL_GPIO_Init
	.thumb_func
HAL_GPIO_Init:
.Lfunc_begin0:
	.file	6 "D:\\ikingtec\\Robot\\ODrive\\Firmware\\MDK-ARM" "../ThirdParty/STM32F4xx_HAL_Driver/Src/stm32f4xx_hal_gpio.c"
	.loc	6 188 0                         @ ../ThirdParty/STM32F4xx_HAL_Driver/Src/stm32f4xx_hal_gpio.c:188:0
	.fnstart
	.cfi_sections .debug_frame
	.cfi_startproc
@ %bb.0:
	.pad	#56
	sub	sp, #56
	.cfi_def_cfa_offset 56
	str	r0, [sp, #52]
	str	r1, [sp, #48]
	movs	r0, #0
.Ltmp0:
	.loc	6 190 12 prologue_end           @ ../ThirdParty/STM32F4xx_HAL_Driver/Src/stm32f4xx_hal_gpio.c:190:12
	str	r0, [sp, #40]
	.loc	6 191 12                        @ ../ThirdParty/STM32F4xx_HAL_Driver/Src/stm32f4xx_hal_gpio.c:191:12
	str	r0, [sp, #36]
	.loc	6 192 12                        @ ../ThirdParty/STM32F4xx_HAL_Driver/Src/stm32f4xx_hal_gpio.c:192:12
	str	r0, [sp, #32]
.Ltmp1:
	.loc	6 201 16                        @ ../ThirdParty/STM32F4xx_HAL_Driver/Src/stm32f4xx_hal_gpio.c:201:16
	str	r0, [sp, #44]
	.loc	6 201 7 is_stmt 0               @ ../ThirdParty/STM32F4xx_HAL_Driver/Src/stm32f4xx_hal_gpio.c:201:7
	b	.LBB0_1
.LBB0_1:                                @ =>This Inner Loop Header: Depth=1
.Ltmp2:
	.loc	6 201 22                        @ ../ThirdParty/STM32F4xx_HAL_Driver/Src/stm32f4xx_hal_gpio.c:201:22
	ldr	r0, [sp, #44]
.Ltmp3:
	.loc	6 201 3                         @ ../ThirdParty/STM32F4xx_HAL_Driver/Src/stm32f4xx_hal_gpio.c:201:3
	cmp	r0, #15
	bhi.w	.LBB0_47
	b	.LBB0_2
.LBB0_2:                                @   in Loop: Header=BB0_1 Depth=1
.Ltmp4:
	.loc	6 204 27 is_stmt 1              @ ../ThirdParty/STM32F4xx_HAL_Driver/Src/stm32f4xx_hal_gpio.c:204:27
	ldr	r1, [sp, #44]
	movs	r0, #1
	.loc	6 204 24 is_stmt 0              @ ../ThirdParty/STM32F4xx_HAL_Driver/Src/stm32f4xx_hal_gpio.c:204:24
	lsls	r0, r1
	.loc	6 204 16                        @ ../ThirdParty/STM32F4xx_HAL_Driver/Src/stm32f4xx_hal_gpio.c:204:16
	str	r0, [sp, #40]
	.loc	6 206 28 is_stmt 1              @ ../ThirdParty/STM32F4xx_HAL_Driver/Src/stm32f4xx_hal_gpio.c:206:28
	ldr	r0, [sp, #48]
	.loc	6 206 39 is_stmt 0              @ ../ThirdParty/STM32F4xx_HAL_Driver/Src/stm32f4xx_hal_gpio.c:206:39
	ldr	r0, [r0]
	.loc	6 206 46                        @ ../ThirdParty/STM32F4xx_HAL_Driver/Src/stm32f4xx_hal_gpio.c:206:46
	ldr	r1, [sp, #40]
	.loc	6 206 44                        @ ../ThirdParty/STM32F4xx_HAL_Driver/Src/stm32f4xx_hal_gpio.c:206:44
	ands	r0, r1
	.loc	6 206 15                        @ ../ThirdParty/STM32F4xx_HAL_Driver/Src/stm32f4xx_hal_gpio.c:206:15
	str	r0, [sp, #36]
.Ltmp5:
	.loc	6 208 8 is_stmt 1               @ ../ThirdParty/STM32F4xx_HAL_Driver/Src/stm32f4xx_hal_gpio.c:208:8
	ldr	r0, [sp, #36]
	.loc	6 208 21 is_stmt 0              @ ../ThirdParty/STM32F4xx_HAL_Driver/Src/stm32f4xx_hal_gpio.c:208:21
	ldr	r1, [sp, #40]
.Ltmp6:
	.loc	6 208 8                         @ ../ThirdParty/STM32F4xx_HAL_Driver/Src/stm32f4xx_hal_gpio.c:208:8
	cmp	r0, r1
	bne.w	.LBB0_45
	b	.LBB0_3
.LBB0_3:                                @   in Loop: Header=BB0_1 Depth=1
.Ltmp7:
	.loc	6 212 11 is_stmt 1              @ ../ThirdParty/STM32F4xx_HAL_Driver/Src/stm32f4xx_hal_gpio.c:212:11
	ldr	r0, [sp, #48]
	.loc	6 212 22 is_stmt 0              @ ../ThirdParty/STM32F4xx_HAL_Driver/Src/stm32f4xx_hal_gpio.c:212:22
	ldr	r0, [r0, #4]
	.loc	6 212 47                        @ ../ThirdParty/STM32F4xx_HAL_Driver/Src/stm32f4xx_hal_gpio.c:212:47
	cmp	r0, #2
	beq	.LBB0_5
	b	.LBB0_4
.LBB0_4:                                @   in Loop: Header=BB0_1 Depth=1
	.loc	6 212 51                        @ ../ThirdParty/STM32F4xx_HAL_Driver/Src/stm32f4xx_hal_gpio.c:212:51
	ldr	r0, [sp, #48]
	.loc	6 212 62                        @ ../ThirdParty/STM32F4xx_HAL_Driver/Src/stm32f4xx_hal_gpio.c:212:62
	ldr	r0, [r0, #4]
.Ltmp8:
	.loc	6 212 10                        @ ../ThirdParty/STM32F4xx_HAL_Driver/Src/stm32f4xx_hal_gpio.c:212:10
	cmp	r0, #18
	bne	.LBB0_6
	b	.LBB0_5
.LBB0_5:                                @   in Loop: Header=BB0_1 Depth=1
.Ltmp9:
	.loc	6 217 16 is_stmt 1              @ ../ThirdParty/STM32F4xx_HAL_Driver/Src/stm32f4xx_hal_gpio.c:217:16
	ldr	r0, [sp, #52]
	.loc	6 217 27 is_stmt 0              @ ../ThirdParty/STM32F4xx_HAL_Driver/Src/stm32f4xx_hal_gpio.c:217:27
	ldr	r1, [sp, #44]
	mvn	r2, #3
	.loc	6 217 16                        @ ../ThirdParty/STM32F4xx_HAL_Driver/Src/stm32f4xx_hal_gpio.c:217:16
	and.w	r1, r2, r1, lsr #1
	.loc	6 217 23                        @ ../ThirdParty/STM32F4xx_HAL_Driver/Src/stm32f4xx_hal_gpio.c:217:23
	add	r0, r1
	.loc	6 217 16                        @ ../ThirdParty/STM32F4xx_HAL_Driver/Src/stm32f4xx_hal_gpio.c:217:16
	ldr	r0, [r0, #32]
	.loc	6 217 14                        @ ../ThirdParty/STM32F4xx_HAL_Driver/Src/stm32f4xx_hal_gpio.c:217:14
	str	r0, [sp, #32]
	.loc	6 218 39 is_stmt 1              @ ../ThirdParty/STM32F4xx_HAL_Driver/Src/stm32f4xx_hal_gpio.c:218:39
	ldr	r0, [sp, #44]
	.loc	6 218 48 is_stmt 0              @ ../ThirdParty/STM32F4xx_HAL_Driver/Src/stm32f4xx_hal_gpio.c:218:48
	and	r0, r0, #7
	.loc	6 218 57                        @ ../ThirdParty/STM32F4xx_HAL_Driver/Src/stm32f4xx_hal_gpio.c:218:57
	lsls	r1, r0, #2
	movs	r0, #15
	.loc	6 218 24                        @ ../ThirdParty/STM32F4xx_HAL_Driver/Src/stm32f4xx_hal_gpio.c:218:24
	lsl.w	r1, r0, r1
	.loc	6 218 14                        @ ../ThirdParty/STM32F4xx_HAL_Driver/Src/stm32f4xx_hal_gpio.c:218:14
	ldr	r0, [sp, #32]
	bics	r0, r1
	str	r0, [sp, #32]
	.loc	6 219 29 is_stmt 1              @ ../ThirdParty/STM32F4xx_HAL_Driver/Src/stm32f4xx_hal_gpio.c:219:29
	ldr	r0, [sp, #48]
	.loc	6 219 40 is_stmt 0              @ ../ThirdParty/STM32F4xx_HAL_Driver/Src/stm32f4xx_hal_gpio.c:219:40
	ldr	r0, [r0, #16]
	.loc	6 219 66                        @ ../ThirdParty/STM32F4xx_HAL_Driver/Src/stm32f4xx_hal_gpio.c:219:66
	ldr	r1, [sp, #44]
	.loc	6 219 75                        @ ../ThirdParty/STM32F4xx_HAL_Driver/Src/stm32f4xx_hal_gpio.c:219:75
	and	r1, r1, #7
	.loc	6 219 84                        @ ../ThirdParty/STM32F4xx_HAL_Driver/Src/stm32f4xx_hal_gpio.c:219:84
	lsls	r1, r1, #2
	.loc	6 219 51                        @ ../ThirdParty/STM32F4xx_HAL_Driver/Src/stm32f4xx_hal_gpio.c:219:51
	lsl.w	r1, r0, r1
	.loc	6 219 14                        @ ../ThirdParty/STM32F4xx_HAL_Driver/Src/stm32f4xx_hal_gpio.c:219:14
	ldr	r0, [sp, #32]
	orrs	r0, r1
	str	r0, [sp, #32]
	.loc	6 220 38 is_stmt 1              @ ../ThirdParty/STM32F4xx_HAL_Driver/Src/stm32f4xx_hal_gpio.c:220:38
	ldr	r0, [sp, #32]
	.loc	6 220 9 is_stmt 0               @ ../ThirdParty/STM32F4xx_HAL_Driver/Src/stm32f4xx_hal_gpio.c:220:9
	ldr	r1, [sp, #52]
	.loc	6 220 20                        @ ../ThirdParty/STM32F4xx_HAL_Driver/Src/stm32f4xx_hal_gpio.c:220:20
	ldr	r3, [sp, #44]
	.loc	6 220 9                         @ ../ThirdParty/STM32F4xx_HAL_Driver/Src/stm32f4xx_hal_gpio.c:220:9
	and.w	r2, r2, r3, lsr #1
	.loc	6 220 16                        @ ../ThirdParty/STM32F4xx_HAL_Driver/Src/stm32f4xx_hal_gpio.c:220:16
	add	r1, r2
	.loc	6 220 36                        @ ../ThirdParty/STM32F4xx_HAL_Driver/Src/stm32f4xx_hal_gpio.c:220:36
	str	r0, [r1, #32]
	.loc	6 221 7 is_stmt 1               @ ../ThirdParty/STM32F4xx_HAL_Driver/Src/stm32f4xx_hal_gpio.c:221:7
	b	.LBB0_6
.Ltmp10:
.LBB0_6:                                @   in Loop: Header=BB0_1 Depth=1
	.loc	6 224 14                        @ ../ThirdParty/STM32F4xx_HAL_Driver/Src/stm32f4xx_hal_gpio.c:224:14
	ldr	r0, [sp, #52]
	.loc	6 224 21 is_stmt 0              @ ../ThirdParty/STM32F4xx_HAL_Driver/Src/stm32f4xx_hal_gpio.c:224:21
	ldr	r0, [r0]
	.loc	6 224 12                        @ ../ThirdParty/STM32F4xx_HAL_Driver/Src/stm32f4xx_hal_gpio.c:224:12
	str	r0, [sp, #32]
	.loc	6 225 39 is_stmt 1              @ ../ThirdParty/STM32F4xx_HAL_Driver/Src/stm32f4xx_hal_gpio.c:225:39
	ldr	r0, [sp, #44]
	.loc	6 225 48 is_stmt 0              @ ../ThirdParty/STM32F4xx_HAL_Driver/Src/stm32f4xx_hal_gpio.c:225:48
	lsls	r1, r0, #1
	movs	r0, #3
	.loc	6 225 35                        @ ../ThirdParty/STM32F4xx_HAL_Driver/Src/stm32f4xx_hal_gpio.c:225:35
	lsl.w	r1, r0, r1
	.loc	6 225 12                        @ ../ThirdParty/STM32F4xx_HAL_Driver/Src/stm32f4xx_hal_gpio.c:225:12
	ldr	r0, [sp, #32]
	bics	r0, r1
	str	r0, [sp, #32]
	.loc	6 226 17 is_stmt 1              @ ../ThirdParty/STM32F4xx_HAL_Driver/Src/stm32f4xx_hal_gpio.c:226:17
	ldr	r0, [sp, #48]
	.loc	6 226 28 is_stmt 0              @ ../ThirdParty/STM32F4xx_HAL_Driver/Src/stm32f4xx_hal_gpio.c:226:28
	ldr	r0, [r0, #4]
	.loc	6 226 33                        @ ../ThirdParty/STM32F4xx_HAL_Driver/Src/stm32f4xx_hal_gpio.c:226:33
	and	r0, r0, #3
	.loc	6 226 50                        @ ../ThirdParty/STM32F4xx_HAL_Driver/Src/stm32f4xx_hal_gpio.c:226:50
	ldr	r1, [sp, #44]
	.loc	6 226 59                        @ ../ThirdParty/STM32F4xx_HAL_Driver/Src/stm32f4xx_hal_gpio.c:226:59
	lsls	r1, r1, #1
	.loc	6 226 46                        @ ../ThirdParty/STM32F4xx_HAL_Driver/Src/stm32f4xx_hal_gpio.c:226:46
	lsl.w	r1, r0, r1
	.loc	6 226 12                        @ ../ThirdParty/STM32F4xx_HAL_Driver/Src/stm32f4xx_hal_gpio.c:226:12
	ldr	r0, [sp, #32]
	orrs	r0, r1
	str	r0, [sp, #32]
	.loc	6 227 22 is_stmt 1              @ ../ThirdParty/STM32F4xx_HAL_Driver/Src/stm32f4xx_hal_gpio.c:227:22
	ldr	r0, [sp, #32]
	.loc	6 227 7 is_stmt 0               @ ../ThirdParty/STM32F4xx_HAL_Driver/Src/stm32f4xx_hal_gpio.c:227:7
	ldr	r1, [sp, #52]
	.loc	6 227 20                        @ ../ThirdParty/STM32F4xx_HAL_Driver/Src/stm32f4xx_hal_gpio.c:227:20
	str	r0, [r1]
.Ltmp11:
	.loc	6 230 11 is_stmt 1              @ ../ThirdParty/STM32F4xx_HAL_Driver/Src/stm32f4xx_hal_gpio.c:230:11
	ldr	r0, [sp, #48]
	.loc	6 230 22 is_stmt 0              @ ../ThirdParty/STM32F4xx_HAL_Driver/Src/stm32f4xx_hal_gpio.c:230:22
	ldr	r0, [r0, #4]
	.loc	6 230 51                        @ ../ThirdParty/STM32F4xx_HAL_Driver/Src/stm32f4xx_hal_gpio.c:230:51
	cmp	r0, #1
	beq	.LBB0_10
	b	.LBB0_7
.LBB0_7:                                @   in Loop: Header=BB0_1 Depth=1
	.loc	6 230 55                        @ ../ThirdParty/STM32F4xx_HAL_Driver/Src/stm32f4xx_hal_gpio.c:230:55
	ldr	r0, [sp, #48]
	.loc	6 230 66                        @ ../ThirdParty/STM32F4xx_HAL_Driver/Src/stm32f4xx_hal_gpio.c:230:66
	ldr	r0, [r0, #4]
	.loc	6 230 91                        @ ../ThirdParty/STM32F4xx_HAL_Driver/Src/stm32f4xx_hal_gpio.c:230:91
	cmp	r0, #2
	beq	.LBB0_10
	b	.LBB0_8
.LBB0_8:                                @   in Loop: Header=BB0_1 Depth=1
	.loc	6 231 11 is_stmt 1              @ ../ThirdParty/STM32F4xx_HAL_Driver/Src/stm32f4xx_hal_gpio.c:231:11
	ldr	r0, [sp, #48]
	.loc	6 231 22 is_stmt 0              @ ../ThirdParty/STM32F4xx_HAL_Driver/Src/stm32f4xx_hal_gpio.c:231:22
	ldr	r0, [r0, #4]
	.loc	6 231 51                        @ ../ThirdParty/STM32F4xx_HAL_Driver/Src/stm32f4xx_hal_gpio.c:231:51
	cmp	r0, #17
	beq	.LBB0_10
	b	.LBB0_9
.LBB0_9:                                @   in Loop: Header=BB0_1 Depth=1
	.loc	6 231 55                        @ ../ThirdParty/STM32F4xx_HAL_Driver/Src/stm32f4xx_hal_gpio.c:231:55
	ldr	r0, [sp, #48]
	.loc	6 231 66                        @ ../ThirdParty/STM32F4xx_HAL_Driver/Src/stm32f4xx_hal_gpio.c:231:66
	ldr	r0, [r0, #4]
.Ltmp12:
	.loc	6 230 10 is_stmt 1              @ ../ThirdParty/STM32F4xx_HAL_Driver/Src/stm32f4xx_hal_gpio.c:230:10
	cmp	r0, #18
	bne	.LBB0_11
	b	.LBB0_10
.LBB0_10:                               @   in Loop: Header=BB0_1 Depth=1
.Ltmp13:
	.loc	6 236 16                        @ ../ThirdParty/STM32F4xx_HAL_Driver/Src/stm32f4xx_hal_gpio.c:236:16
	ldr	r0, [sp, #52]
	.loc	6 236 23 is_stmt 0              @ ../ThirdParty/STM32F4xx_HAL_Driver/Src/stm32f4xx_hal_gpio.c:236:23
	ldr	r0, [r0, #8]
	.loc	6 236 14                        @ ../ThirdParty/STM32F4xx_HAL_Driver/Src/stm32f4xx_hal_gpio.c:236:14
	str	r0, [sp, #32]
	.loc	6 237 46 is_stmt 1              @ ../ThirdParty/STM32F4xx_HAL_Driver/Src/stm32f4xx_hal_gpio.c:237:46
	ldr	r0, [sp, #44]
	.loc	6 237 55 is_stmt 0              @ ../ThirdParty/STM32F4xx_HAL_Driver/Src/stm32f4xx_hal_gpio.c:237:55
	lsls	r1, r0, #1
	movs	r0, #3
	.loc	6 237 42                        @ ../ThirdParty/STM32F4xx_HAL_Driver/Src/stm32f4xx_hal_gpio.c:237:42
	lsl.w	r1, r0, r1
	.loc	6 237 14                        @ ../ThirdParty/STM32F4xx_HAL_Driver/Src/stm32f4xx_hal_gpio.c:237:14
	ldr	r0, [sp, #32]
	bics	r0, r1
	str	r0, [sp, #32]
	.loc	6 238 18 is_stmt 1              @ ../ThirdParty/STM32F4xx_HAL_Driver/Src/stm32f4xx_hal_gpio.c:238:18
	ldr	r0, [sp, #48]
	.loc	6 238 29 is_stmt 0              @ ../ThirdParty/STM32F4xx_HAL_Driver/Src/stm32f4xx_hal_gpio.c:238:29
	ldr	r0, [r0, #12]
	.loc	6 238 39                        @ ../ThirdParty/STM32F4xx_HAL_Driver/Src/stm32f4xx_hal_gpio.c:238:39
	ldr	r1, [sp, #44]
	.loc	6 238 48                        @ ../ThirdParty/STM32F4xx_HAL_Driver/Src/stm32f4xx_hal_gpio.c:238:48
	lsls	r1, r1, #1
	.loc	6 238 35                        @ ../ThirdParty/STM32F4xx_HAL_Driver/Src/stm32f4xx_hal_gpio.c:238:35
	lsl.w	r1, r0, r1
	.loc	6 238 14                        @ ../ThirdParty/STM32F4xx_HAL_Driver/Src/stm32f4xx_hal_gpio.c:238:14
	ldr	r0, [sp, #32]
	orrs	r0, r1
	str	r0, [sp, #32]
	.loc	6 239 26 is_stmt 1              @ ../ThirdParty/STM32F4xx_HAL_Driver/Src/stm32f4xx_hal_gpio.c:239:26
	ldr	r0, [sp, #32]
	.loc	6 239 9 is_stmt 0               @ ../ThirdParty/STM32F4xx_HAL_Driver/Src/stm32f4xx_hal_gpio.c:239:9
	ldr	r1, [sp, #52]
	.loc	6 239 24                        @ ../ThirdParty/STM32F4xx_HAL_Driver/Src/stm32f4xx_hal_gpio.c:239:24
	str	r0, [r1, #8]
	.loc	6 242 16 is_stmt 1              @ ../ThirdParty/STM32F4xx_HAL_Driver/Src/stm32f4xx_hal_gpio.c:242:16
	ldr	r0, [sp, #52]
	.loc	6 242 23 is_stmt 0              @ ../ThirdParty/STM32F4xx_HAL_Driver/Src/stm32f4xx_hal_gpio.c:242:23
	ldr	r0, [r0, #4]
	.loc	6 242 14                        @ ../ThirdParty/STM32F4xx_HAL_Driver/Src/stm32f4xx_hal_gpio.c:242:14
	str	r0, [sp, #32]
	.loc	6 243 39 is_stmt 1              @ ../ThirdParty/STM32F4xx_HAL_Driver/Src/stm32f4xx_hal_gpio.c:243:39
	ldr	r1, [sp, #44]
	movs	r0, #1
	.loc	6 243 36 is_stmt 0              @ ../ThirdParty/STM32F4xx_HAL_Driver/Src/stm32f4xx_hal_gpio.c:243:36
	lsl.w	r1, r0, r1
	.loc	6 243 14                        @ ../ThirdParty/STM32F4xx_HAL_Driver/Src/stm32f4xx_hal_gpio.c:243:14
	ldr	r0, [sp, #32]
	bics	r0, r1
	str	r0, [sp, #32]
	.loc	6 244 20 is_stmt 1              @ ../ThirdParty/STM32F4xx_HAL_Driver/Src/stm32f4xx_hal_gpio.c:244:20
	ldr	r0, [sp, #48]
	.loc	6 244 31 is_stmt 0              @ ../ThirdParty/STM32F4xx_HAL_Driver/Src/stm32f4xx_hal_gpio.c:244:31
	ldr	r0, [r0, #4]
	.loc	6 244 56                        @ ../ThirdParty/STM32F4xx_HAL_Driver/Src/stm32f4xx_hal_gpio.c:244:56
	ubfx	r0, r0, #4, #1
	.loc	6 244 66                        @ ../ThirdParty/STM32F4xx_HAL_Driver/Src/stm32f4xx_hal_gpio.c:244:66
	ldr	r1, [sp, #44]
	.loc	6 244 63                        @ ../ThirdParty/STM32F4xx_HAL_Driver/Src/stm32f4xx_hal_gpio.c:244:63
	lsl.w	r1, r0, r1
	.loc	6 244 14                        @ ../ThirdParty/STM32F4xx_HAL_Driver/Src/stm32f4xx_hal_gpio.c:244:14
	ldr	r0, [sp, #32]
	orrs	r0, r1
	str	r0, [sp, #32]
	.loc	6 245 25 is_stmt 1              @ ../ThirdParty/STM32F4xx_HAL_Driver/Src/stm32f4xx_hal_gpio.c:245:25
	ldr	r0, [sp, #32]
	.loc	6 245 9 is_stmt 0               @ ../ThirdParty/STM32F4xx_HAL_Driver/Src/stm32f4xx_hal_gpio.c:245:9
	ldr	r1, [sp, #52]
	.loc	6 245 23                        @ ../ThirdParty/STM32F4xx_HAL_Driver/Src/stm32f4xx_hal_gpio.c:245:23
	str	r0, [r1, #4]
	.loc	6 246 7 is_stmt 1               @ ../ThirdParty/STM32F4xx_HAL_Driver/Src/stm32f4xx_hal_gpio.c:246:7
	b	.LBB0_11
.Ltmp14:
.LBB0_11:                               @   in Loop: Header=BB0_1 Depth=1
	.loc	6 249 14                        @ ../ThirdParty/STM32F4xx_HAL_Driver/Src/stm32f4xx_hal_gpio.c:249:14
	ldr	r0, [sp, #52]
	.loc	6 249 21 is_stmt 0              @ ../ThirdParty/STM32F4xx_HAL_Driver/Src/stm32f4xx_hal_gpio.c:249:21
	ldr	r0, [r0, #12]
	.loc	6 249 12                        @ ../ThirdParty/STM32F4xx_HAL_Driver/Src/stm32f4xx_hal_gpio.c:249:12
	str	r0, [sp, #32]
	.loc	6 250 39 is_stmt 1              @ ../ThirdParty/STM32F4xx_HAL_Driver/Src/stm32f4xx_hal_gpio.c:250:39
	ldr	r0, [sp, #44]
	.loc	6 250 48 is_stmt 0              @ ../ThirdParty/STM32F4xx_HAL_Driver/Src/stm32f4xx_hal_gpio.c:250:48
	lsls	r1, r0, #1
	movs	r0, #3
	.loc	6 250 35                        @ ../ThirdParty/STM32F4xx_HAL_Driver/Src/stm32f4xx_hal_gpio.c:250:35
	lsl.w	r1, r0, r1
	.loc	6 250 12                        @ ../ThirdParty/STM32F4xx_HAL_Driver/Src/stm32f4xx_hal_gpio.c:250:12
	ldr	r0, [sp, #32]
	bics	r0, r1
	str	r0, [sp, #32]
	.loc	6 251 17 is_stmt 1              @ ../ThirdParty/STM32F4xx_HAL_Driver/Src/stm32f4xx_hal_gpio.c:251:17
	ldr	r0, [sp, #48]
	.loc	6 251 28 is_stmt 0              @ ../ThirdParty/STM32F4xx_HAL_Driver/Src/stm32f4xx_hal_gpio.c:251:28
	ldr	r0, [r0, #8]
	.loc	6 251 38                        @ ../ThirdParty/STM32F4xx_HAL_Driver/Src/stm32f4xx_hal_gpio.c:251:38
	ldr	r1, [sp, #44]
	.loc	6 251 47                        @ ../ThirdParty/STM32F4xx_HAL_Driver/Src/stm32f4xx_hal_gpio.c:251:47
	lsls	r1, r1, #1
	.loc	6 251 34                        @ ../ThirdParty/STM32F4xx_HAL_Driver/Src/stm32f4xx_hal_gpio.c:251:34
	lsl.w	r1, r0, r1
	.loc	6 251 12                        @ ../ThirdParty/STM32F4xx_HAL_Driver/Src/stm32f4xx_hal_gpio.c:251:12
	ldr	r0, [sp, #32]
	orrs	r0, r1
	str	r0, [sp, #32]
	.loc	6 252 22 is_stmt 1              @ ../ThirdParty/STM32F4xx_HAL_Driver/Src/stm32f4xx_hal_gpio.c:252:22
	ldr	r0, [sp, #32]
	.loc	6 252 7 is_stmt 0               @ ../ThirdParty/STM32F4xx_HAL_Driver/Src/stm32f4xx_hal_gpio.c:252:7
	ldr	r1, [sp, #52]
	.loc	6 252 20                        @ ../ThirdParty/STM32F4xx_HAL_Driver/Src/stm32f4xx_hal_gpio.c:252:20
	str	r0, [r1, #12]
.Ltmp15:
	.loc	6 256 11 is_stmt 1              @ ../ThirdParty/STM32F4xx_HAL_Driver/Src/stm32f4xx_hal_gpio.c:256:11
	ldr	r0, [sp, #48]
.Ltmp16:
	.loc	6 256 10 is_stmt 0              @ ../ThirdParty/STM32F4xx_HAL_Driver/Src/stm32f4xx_hal_gpio.c:256:10
	ldrb	r0, [r0, #7]
	lsls	r0, r0, #27
	cmp	r0, #0
	bpl.w	.LBB0_44
	b	.LBB0_12
.LBB0_12:                               @   in Loop: Header=BB0_1 Depth=1
.Ltmp17:
	.loc	6 259 9 is_stmt 1               @ ../ThirdParty/STM32F4xx_HAL_Driver/Src/stm32f4xx_hal_gpio.c:259:9
	b	.LBB0_13
.LBB0_13:                               @   in Loop: Header=BB0_1 Depth=1
	.loc	6 0 9 is_stmt 0                 @ ../ThirdParty/STM32F4xx_HAL_Driver/Src/stm32f4xx_hal_gpio.c:0:9
	movs	r0, #0
.Ltmp18:
	.loc	6 259 9                         @ ../ThirdParty/STM32F4xx_HAL_Driver/Src/stm32f4xx_hal_gpio.c:259:9
	str	r0, [sp, #28]
	movw	r0, #14404
	movt	r0, #16386
	ldr	r1, [r0]
	orr	r1, r1, #16384
	str	r1, [r0]
	ldr	r0, [r0]
	and	r0, r0, #16384
	str	r0, [sp, #28]
	ldr	r0, [sp, #28]
	b	.LBB0_14
.Ltmp19:
.LBB0_14:                               @   in Loop: Header=BB0_1 Depth=1
	.loc	6 261 31 is_stmt 1              @ ../ThirdParty/STM32F4xx_HAL_Driver/Src/stm32f4xx_hal_gpio.c:261:31
	ldr	r0, [sp, #44]
	.loc	6 261 16 is_stmt 0              @ ../ThirdParty/STM32F4xx_HAL_Driver/Src/stm32f4xx_hal_gpio.c:261:16
	bic	r0, r0, #3
	movw	r1, #14344
	movt	r1, #16385
	ldr	r0, [r0, r1]
	.loc	6 261 14                        @ ../ThirdParty/STM32F4xx_HAL_Driver/Src/stm32f4xx_hal_gpio.c:261:14
	str	r0, [sp, #32]
	.loc	6 262 35 is_stmt 1              @ ../ThirdParty/STM32F4xx_HAL_Driver/Src/stm32f4xx_hal_gpio.c:262:35
	ldr	r0, [sp, #44]
	.loc	6 262 44 is_stmt 0              @ ../ThirdParty/STM32F4xx_HAL_Driver/Src/stm32f4xx_hal_gpio.c:262:44
	and	r0, r0, #3
	.loc	6 262 32                        @ ../ThirdParty/STM32F4xx_HAL_Driver/Src/stm32f4xx_hal_gpio.c:262:32
	lsls	r1, r0, #2
	movs	r0, #15
	.loc	6 262 25                        @ ../ThirdParty/STM32F4xx_HAL_Driver/Src/stm32f4xx_hal_gpio.c:262:25
	lsl.w	r1, r0, r1
	.loc	6 262 14                        @ ../ThirdParty/STM32F4xx_HAL_Driver/Src/stm32f4xx_hal_gpio.c:262:14
	ldr	r0, [sp, #32]
	bics	r0, r1
	str	r0, [sp, #32]
	.loc	6 263 29 is_stmt 1              @ ../ThirdParty/STM32F4xx_HAL_Driver/Src/stm32f4xx_hal_gpio.c:263:29
	ldr	r0, [sp, #52]
	movs	r1, #0
	movt	r1, #16386
	cmp	r0, r1
	bne	.LBB0_16
	b	.LBB0_15
.LBB0_15:                               @   in Loop: Header=BB0_1 Depth=1
	.loc	6 0 29 is_stmt 0                @ ../ThirdParty/STM32F4xx_HAL_Driver/Src/stm32f4xx_hal_gpio.c:0:29
	movs	r0, #0
	.loc	6 263 29                        @ ../ThirdParty/STM32F4xx_HAL_Driver/Src/stm32f4xx_hal_gpio.c:263:29
	str	r0, [sp, #24]                   @ 4-byte Spill
	b	.LBB0_35
.LBB0_16:                               @   in Loop: Header=BB0_1 Depth=1
	ldr	r0, [sp, #52]
	movw	r1, #1024
	movt	r1, #16386
	cmp	r0, r1
	bne	.LBB0_18
	b	.LBB0_17
.LBB0_17:                               @   in Loop: Header=BB0_1 Depth=1
	.loc	6 0 29                          @ ../ThirdParty/STM32F4xx_HAL_Driver/Src/stm32f4xx_hal_gpio.c:0:29
	movs	r0, #1
	.loc	6 263 29                        @ ../ThirdParty/STM32F4xx_HAL_Driver/Src/stm32f4xx_hal_gpio.c:263:29
	str	r0, [sp, #20]                   @ 4-byte Spill
	b	.LBB0_34
.LBB0_18:                               @   in Loop: Header=BB0_1 Depth=1
	ldr	r0, [sp, #52]
	movw	r1, #2048
	movt	r1, #16386
	cmp	r0, r1
	bne	.LBB0_20
	b	.LBB0_19
.LBB0_19:                               @   in Loop: Header=BB0_1 Depth=1
	.loc	6 0 29                          @ ../ThirdParty/STM32F4xx_HAL_Driver/Src/stm32f4xx_hal_gpio.c:0:29
	movs	r0, #2
	.loc	6 263 29                        @ ../ThirdParty/STM32F4xx_HAL_Driver/Src/stm32f4xx_hal_gpio.c:263:29
	str	r0, [sp, #16]                   @ 4-byte Spill
	b	.LBB0_33
.LBB0_20:                               @   in Loop: Header=BB0_1 Depth=1
	ldr	r0, [sp, #52]
	movw	r1, #3072
	movt	r1, #16386
	cmp	r0, r1
	bne	.LBB0_22
	b	.LBB0_21
.LBB0_21:                               @   in Loop: Header=BB0_1 Depth=1
	.loc	6 0 29                          @ ../ThirdParty/STM32F4xx_HAL_Driver/Src/stm32f4xx_hal_gpio.c:0:29
	movs	r0, #3
	.loc	6 263 29                        @ ../ThirdParty/STM32F4xx_HAL_Driver/Src/stm32f4xx_hal_gpio.c:263:29
	str	r0, [sp, #12]                   @ 4-byte Spill
	b	.LBB0_32
.LBB0_22:                               @   in Loop: Header=BB0_1 Depth=1
	ldr	r0, [sp, #52]
	movw	r1, #4096
	movt	r1, #16386
	cmp	r0, r1
	bne	.LBB0_24
	b	.LBB0_23
.LBB0_23:                               @   in Loop: Header=BB0_1 Depth=1
	.loc	6 0 29                          @ ../ThirdParty/STM32F4xx_HAL_Driver/Src/stm32f4xx_hal_gpio.c:0:29
	movs	r0, #4
	.loc	6 263 29                        @ ../ThirdParty/STM32F4xx_HAL_Driver/Src/stm32f4xx_hal_gpio.c:263:29
	str	r0, [sp, #8]                    @ 4-byte Spill
	b	.LBB0_31
.LBB0_24:                               @   in Loop: Header=BB0_1 Depth=1
	ldr	r0, [sp, #52]
	movw	r1, #5120
	movt	r1, #16386
	cmp	r0, r1
	bne	.LBB0_26
	b	.LBB0_25
.LBB0_25:                               @   in Loop: Header=BB0_1 Depth=1
	.loc	6 0 29                          @ ../ThirdParty/STM32F4xx_HAL_Driver/Src/stm32f4xx_hal_gpio.c:0:29
	movs	r0, #5
	.loc	6 263 29                        @ ../ThirdParty/STM32F4xx_HAL_Driver/Src/stm32f4xx_hal_gpio.c:263:29
	str	r0, [sp, #4]                    @ 4-byte Spill
	b	.LBB0_30
.LBB0_26:                               @   in Loop: Header=BB0_1 Depth=1
	ldr	r0, [sp, #52]
	movw	r1, #6144
	movt	r1, #16386
	cmp	r0, r1
	bne	.LBB0_28
	b	.LBB0_27
.LBB0_27:                               @   in Loop: Header=BB0_1 Depth=1
	.loc	6 0 29                          @ ../ThirdParty/STM32F4xx_HAL_Driver/Src/stm32f4xx_hal_gpio.c:0:29
	movs	r0, #6
	.loc	6 263 29                        @ ../ThirdParty/STM32F4xx_HAL_Driver/Src/stm32f4xx_hal_gpio.c:263:29
	str	r0, [sp]                        @ 4-byte Spill
	b	.LBB0_29
.LBB0_28:                               @   in Loop: Header=BB0_1 Depth=1
	ldr	r1, [sp, #52]
	movw	r2, #7168
	movt	r2, #16386
	movs	r0, #8
	cmp	r1, r2
	it	eq
	moveq	r0, #7
	str	r0, [sp]                        @ 4-byte Spill
	b	.LBB0_29
.LBB0_29:                               @   in Loop: Header=BB0_1 Depth=1
	ldr	r0, [sp]                        @ 4-byte Reload
	str	r0, [sp, #4]                    @ 4-byte Spill
	b	.LBB0_30
.LBB0_30:                               @   in Loop: Header=BB0_1 Depth=1
	ldr	r0, [sp, #4]                    @ 4-byte Reload
	str	r0, [sp, #8]                    @ 4-byte Spill
	b	.LBB0_31
.LBB0_31:                               @   in Loop: Header=BB0_1 Depth=1
	ldr	r0, [sp, #8]                    @ 4-byte Reload
	str	r0, [sp, #12]                   @ 4-byte Spill
	b	.LBB0_32
.LBB0_32:                               @   in Loop: Header=BB0_1 Depth=1
	ldr	r0, [sp, #12]                   @ 4-byte Reload
	str	r0, [sp, #16]                   @ 4-byte Spill
	b	.LBB0_33
.LBB0_33:                               @   in Loop: Header=BB0_1 Depth=1
	ldr	r0, [sp, #16]                   @ 4-byte Reload
	str	r0, [sp, #20]                   @ 4-byte Spill
	b	.LBB0_34
.LBB0_34:                               @   in Loop: Header=BB0_1 Depth=1
	ldr	r0, [sp, #20]                   @ 4-byte Reload
	str	r0, [sp, #24]                   @ 4-byte Spill
	b	.LBB0_35
.LBB0_35:                               @   in Loop: Header=BB0_1 Depth=1
	ldr	r0, [sp, #24]                   @ 4-byte Reload
	.loc	6 263 18                        @ ../ThirdParty/STM32F4xx_HAL_Driver/Src/stm32f4xx_hal_gpio.c:263:18
	uxtb	r0, r0
	.loc	6 263 62                        @ ../ThirdParty/STM32F4xx_HAL_Driver/Src/stm32f4xx_hal_gpio.c:263:62
	ldr	r1, [sp, #44]
	.loc	6 263 71                        @ ../ThirdParty/STM32F4xx_HAL_Driver/Src/stm32f4xx_hal_gpio.c:263:71
	and	r1, r1, #3
	.loc	6 263 59                        @ ../ThirdParty/STM32F4xx_HAL_Driver/Src/stm32f4xx_hal_gpio.c:263:59
	lsls	r1, r1, #2
	.loc	6 263 52                        @ ../ThirdParty/STM32F4xx_HAL_Driver/Src/stm32f4xx_hal_gpio.c:263:52
	lsl.w	r1, r0, r1
	.loc	6 263 14                        @ ../ThirdParty/STM32F4xx_HAL_Driver/Src/stm32f4xx_hal_gpio.c:263:14
	ldr	r0, [sp, #32]
	orrs	r0, r1
	str	r0, [sp, #32]
	.loc	6 264 42 is_stmt 1              @ ../ThirdParty/STM32F4xx_HAL_Driver/Src/stm32f4xx_hal_gpio.c:264:42
	ldr	r0, [sp, #32]
	.loc	6 264 24 is_stmt 0              @ ../ThirdParty/STM32F4xx_HAL_Driver/Src/stm32f4xx_hal_gpio.c:264:24
	ldr	r1, [sp, #44]
	.loc	6 264 9                         @ ../ThirdParty/STM32F4xx_HAL_Driver/Src/stm32f4xx_hal_gpio.c:264:9
	bic	r1, r1, #3
	movw	r2, #14344
	movt	r2, #16385
	.loc	6 264 40                        @ ../ThirdParty/STM32F4xx_HAL_Driver/Src/stm32f4xx_hal_gpio.c:264:40
	str	r0, [r1, r2]
	movw	r0, #15360
	movt	r0, #16385
	.loc	6 267 22 is_stmt 1              @ ../ThirdParty/STM32F4xx_HAL_Driver/Src/stm32f4xx_hal_gpio.c:267:22
	ldr	r0, [r0]
	.loc	6 267 14 is_stmt 0              @ ../ThirdParty/STM32F4xx_HAL_Driver/Src/stm32f4xx_hal_gpio.c:267:14
	str	r0, [sp, #32]
	.loc	6 268 29 is_stmt 1              @ ../ThirdParty/STM32F4xx_HAL_Driver/Src/stm32f4xx_hal_gpio.c:268:29
	ldr	r1, [sp, #36]
	.loc	6 268 14 is_stmt 0              @ ../ThirdParty/STM32F4xx_HAL_Driver/Src/stm32f4xx_hal_gpio.c:268:14
	ldr	r0, [sp, #32]
	bics	r0, r1
	str	r0, [sp, #32]
.Ltmp20:
	.loc	6 269 13 is_stmt 1              @ ../ThirdParty/STM32F4xx_HAL_Driver/Src/stm32f4xx_hal_gpio.c:269:13
	ldr	r0, [sp, #48]
.Ltmp21:
	.loc	6 269 12 is_stmt 0              @ ../ThirdParty/STM32F4xx_HAL_Driver/Src/stm32f4xx_hal_gpio.c:269:12
	ldrb	r0, [r0, #6]
	lsls	r0, r0, #31
	cbz	r0, .LBB0_37
	b	.LBB0_36
.LBB0_36:                               @   in Loop: Header=BB0_1 Depth=1
.Ltmp22:
	.loc	6 271 19 is_stmt 1              @ ../ThirdParty/STM32F4xx_HAL_Driver/Src/stm32f4xx_hal_gpio.c:271:19
	ldr	r1, [sp, #36]
	.loc	6 271 16 is_stmt 0              @ ../ThirdParty/STM32F4xx_HAL_Driver/Src/stm32f4xx_hal_gpio.c:271:16
	ldr	r0, [sp, #32]
	orrs	r0, r1
	str	r0, [sp, #32]
	.loc	6 272 9 is_stmt 1               @ ../ThirdParty/STM32F4xx_HAL_Driver/Src/stm32f4xx_hal_gpio.c:272:9
	b	.LBB0_37
.Ltmp23:
.LBB0_37:                               @   in Loop: Header=BB0_1 Depth=1
	.loc	6 273 21                        @ ../ThirdParty/STM32F4xx_HAL_Driver/Src/stm32f4xx_hal_gpio.c:273:21
	ldr	r0, [sp, #32]
	movw	r1, #15360
	movt	r1, #16385
	.loc	6 273 19 is_stmt 0              @ ../ThirdParty/STM32F4xx_HAL_Driver/Src/stm32f4xx_hal_gpio.c:273:19
	str	r0, [r1]
	movw	r0, #15364
	movt	r0, #16385
	.loc	6 275 22 is_stmt 1              @ ../ThirdParty/STM32F4xx_HAL_Driver/Src/stm32f4xx_hal_gpio.c:275:22
	ldr	r0, [r0]
	.loc	6 275 14 is_stmt 0              @ ../ThirdParty/STM32F4xx_HAL_Driver/Src/stm32f4xx_hal_gpio.c:275:14
	str	r0, [sp, #32]
	.loc	6 276 29 is_stmt 1              @ ../ThirdParty/STM32F4xx_HAL_Driver/Src/stm32f4xx_hal_gpio.c:276:29
	ldr	r1, [sp, #36]
	.loc	6 276 14 is_stmt 0              @ ../ThirdParty/STM32F4xx_HAL_Driver/Src/stm32f4xx_hal_gpio.c:276:14
	ldr	r0, [sp, #32]
	bics	r0, r1
	str	r0, [sp, #32]
.Ltmp24:
	.loc	6 277 13 is_stmt 1              @ ../ThirdParty/STM32F4xx_HAL_Driver/Src/stm32f4xx_hal_gpio.c:277:13
	ldr	r0, [sp, #48]
.Ltmp25:
	.loc	6 277 12 is_stmt 0              @ ../ThirdParty/STM32F4xx_HAL_Driver/Src/stm32f4xx_hal_gpio.c:277:12
	ldrb	r0, [r0, #6]
	lsls	r0, r0, #30
	cmp	r0, #0
	bpl	.LBB0_39
	b	.LBB0_38
.LBB0_38:                               @   in Loop: Header=BB0_1 Depth=1
.Ltmp26:
	.loc	6 279 19 is_stmt 1              @ ../ThirdParty/STM32F4xx_HAL_Driver/Src/stm32f4xx_hal_gpio.c:279:19
	ldr	r1, [sp, #36]
	.loc	6 279 16 is_stmt 0              @ ../ThirdParty/STM32F4xx_HAL_Driver/Src/stm32f4xx_hal_gpio.c:279:16
	ldr	r0, [sp, #32]
	orrs	r0, r1
	str	r0, [sp, #32]
	.loc	6 280 9 is_stmt 1               @ ../ThirdParty/STM32F4xx_HAL_Driver/Src/stm32f4xx_hal_gpio.c:280:9
	b	.LBB0_39
.Ltmp27:
.LBB0_39:                               @   in Loop: Header=BB0_1 Depth=1
	.loc	6 281 21                        @ ../ThirdParty/STM32F4xx_HAL_Driver/Src/stm32f4xx_hal_gpio.c:281:21
	ldr	r0, [sp, #32]
	movw	r1, #15364
	movt	r1, #16385
	.loc	6 281 19 is_stmt 0              @ ../ThirdParty/STM32F4xx_HAL_Driver/Src/stm32f4xx_hal_gpio.c:281:19
	str	r0, [r1]
	movw	r0, #15368
	movt	r0, #16385
	.loc	6 284 22 is_stmt 1              @ ../ThirdParty/STM32F4xx_HAL_Driver/Src/stm32f4xx_hal_gpio.c:284:22
	ldr	r0, [r0]
	.loc	6 284 14 is_stmt 0              @ ../ThirdParty/STM32F4xx_HAL_Driver/Src/stm32f4xx_hal_gpio.c:284:14
	str	r0, [sp, #32]
	.loc	6 285 29 is_stmt 1              @ ../ThirdParty/STM32F4xx_HAL_Driver/Src/stm32f4xx_hal_gpio.c:285:29
	ldr	r1, [sp, #36]
	.loc	6 285 14 is_stmt 0              @ ../ThirdParty/STM32F4xx_HAL_Driver/Src/stm32f4xx_hal_gpio.c:285:14
	ldr	r0, [sp, #32]
	bics	r0, r1
	str	r0, [sp, #32]
.Ltmp28:
	.loc	6 286 13 is_stmt 1              @ ../ThirdParty/STM32F4xx_HAL_Driver/Src/stm32f4xx_hal_gpio.c:286:13
	ldr	r0, [sp, #48]
.Ltmp29:
	.loc	6 286 12 is_stmt 0              @ ../ThirdParty/STM32F4xx_HAL_Driver/Src/stm32f4xx_hal_gpio.c:286:12
	ldrb	r0, [r0, #6]
	lsls	r0, r0, #27
	cmp	r0, #0
	bpl	.LBB0_41
	b	.LBB0_40
.LBB0_40:                               @   in Loop: Header=BB0_1 Depth=1
.Ltmp30:
	.loc	6 288 19 is_stmt 1              @ ../ThirdParty/STM32F4xx_HAL_Driver/Src/stm32f4xx_hal_gpio.c:288:19
	ldr	r1, [sp, #36]
	.loc	6 288 16 is_stmt 0              @ ../ThirdParty/STM32F4xx_HAL_Driver/Src/stm32f4xx_hal_gpio.c:288:16
	ldr	r0, [sp, #32]
	orrs	r0, r1
	str	r0, [sp, #32]
	.loc	6 289 9 is_stmt 1               @ ../ThirdParty/STM32F4xx_HAL_Driver/Src/stm32f4xx_hal_gpio.c:289:9
	b	.LBB0_41
.Ltmp31:
.LBB0_41:                               @   in Loop: Header=BB0_1 Depth=1
	.loc	6 290 22                        @ ../ThirdParty/STM32F4xx_HAL_Driver/Src/stm32f4xx_hal_gpio.c:290:22
	ldr	r0, [sp, #32]
	movw	r1, #15368
	movt	r1, #16385
	.loc	6 290 20 is_stmt 0              @ ../ThirdParty/STM32F4xx_HAL_Driver/Src/stm32f4xx_hal_gpio.c:290:20
	str	r0, [r1]
	movw	r0, #15372
	movt	r0, #16385
	.loc	6 292 22 is_stmt 1              @ ../ThirdParty/STM32F4xx_HAL_Driver/Src/stm32f4xx_hal_gpio.c:292:22
	ldr	r0, [r0]
	.loc	6 292 14 is_stmt 0              @ ../ThirdParty/STM32F4xx_HAL_Driver/Src/stm32f4xx_hal_gpio.c:292:14
	str	r0, [sp, #32]
	.loc	6 293 29 is_stmt 1              @ ../ThirdParty/STM32F4xx_HAL_Driver/Src/stm32f4xx_hal_gpio.c:293:29
	ldr	r1, [sp, #36]
	.loc	6 293 14 is_stmt 0              @ ../ThirdParty/STM32F4xx_HAL_Driver/Src/stm32f4xx_hal_gpio.c:293:14
	ldr	r0, [sp, #32]
	bics	r0, r1
	str	r0, [sp, #32]
.Ltmp32:
	.loc	6 294 13 is_stmt 1              @ ../ThirdParty/STM32F4xx_HAL_Driver/Src/stm32f4xx_hal_gpio.c:294:13
	ldr	r0, [sp, #48]
.Ltmp33:
	.loc	6 294 12 is_stmt 0              @ ../ThirdParty/STM32F4xx_HAL_Driver/Src/stm32f4xx_hal_gpio.c:294:12
	ldrb	r0, [r0, #6]
	lsls	r0, r0, #26
	cmp	r0, #0
	bpl	.LBB0_43
	b	.LBB0_42
.LBB0_42:                               @   in Loop: Header=BB0_1 Depth=1
.Ltmp34:
	.loc	6 296 19 is_stmt 1              @ ../ThirdParty/STM32F4xx_HAL_Driver/Src/stm32f4xx_hal_gpio.c:296:19
	ldr	r1, [sp, #36]
	.loc	6 296 16 is_stmt 0              @ ../ThirdParty/STM32F4xx_HAL_Driver/Src/stm32f4xx_hal_gpio.c:296:16
	ldr	r0, [sp, #32]
	orrs	r0, r1
	str	r0, [sp, #32]
	.loc	6 297 9 is_stmt 1               @ ../ThirdParty/STM32F4xx_HAL_Driver/Src/stm32f4xx_hal_gpio.c:297:9
	b	.LBB0_43
.Ltmp35:
.LBB0_43:                               @   in Loop: Header=BB0_1 Depth=1
	.loc	6 298 22                        @ ../ThirdParty/STM32F4xx_HAL_Driver/Src/stm32f4xx_hal_gpio.c:298:22
	ldr	r0, [sp, #32]
	movw	r1, #15372
	movt	r1, #16385
	.loc	6 298 20 is_stmt 0              @ ../ThirdParty/STM32F4xx_HAL_Driver/Src/stm32f4xx_hal_gpio.c:298:20
	str	r0, [r1]
	.loc	6 299 7 is_stmt 1               @ ../ThirdParty/STM32F4xx_HAL_Driver/Src/stm32f4xx_hal_gpio.c:299:7
	b	.LBB0_44
.Ltmp36:
.LBB0_44:                               @   in Loop: Header=BB0_1 Depth=1
	.loc	6 300 5                         @ ../ThirdParty/STM32F4xx_HAL_Driver/Src/stm32f4xx_hal_gpio.c:300:5
	b	.LBB0_45
.Ltmp37:
.LBB0_45:                               @   in Loop: Header=BB0_1 Depth=1
	.loc	6 301 3                         @ ../ThirdParty/STM32F4xx_HAL_Driver/Src/stm32f4xx_hal_gpio.c:301:3
	b	.LBB0_46
.Ltmp38:
.LBB0_46:                               @   in Loop: Header=BB0_1 Depth=1
	.loc	6 201 54                        @ ../ThirdParty/STM32F4xx_HAL_Driver/Src/stm32f4xx_hal_gpio.c:201:54
	ldr	r0, [sp, #44]
	adds	r0, #1
	str	r0, [sp, #44]
	.loc	6 201 3 is_stmt 0               @ ../ThirdParty/STM32F4xx_HAL_Driver/Src/stm32f4xx_hal_gpio.c:201:3
	b	.LBB0_1
.Ltmp39:
.LBB0_47:
	.loc	6 302 1 epilogue_begin is_stmt 1 @ ../ThirdParty/STM32F4xx_HAL_Driver/Src/stm32f4xx_hal_gpio.c:302:1
	add	sp, #56
	bx	lr
.Ltmp40:
.Lfunc_end0:
	.size	HAL_GPIO_Init, .Lfunc_end0-HAL_GPIO_Init
	.cfi_endproc
	.cantunwind
	.fnend
                                        @ -- End function
	.section	.text.HAL_GPIO_DeInit,"ax",%progbits
	.hidden	HAL_GPIO_DeInit                 @ -- Begin function HAL_GPIO_DeInit
	.globl	HAL_GPIO_DeInit
	.p2align	2
	.type	HAL_GPIO_DeInit,%function
	.code	16                              @ @HAL_GPIO_DeInit
	.thumb_func
HAL_GPIO_DeInit:
.Lfunc_begin1:
	.loc	6 313 0                         @ ../ThirdParty/STM32F4xx_HAL_Driver/Src/stm32f4xx_hal_gpio.c:313:0
	.fnstart
	.cfi_startproc
@ %bb.0:
	.save	{r7, lr}
	push	{r7, lr}
	.cfi_def_cfa_offset 8
	.cfi_offset lr, -4
	.cfi_offset r7, -8
	.pad	#56
	sub	sp, #56
	.cfi_def_cfa_offset 64
	str	r0, [sp, #52]
	str	r1, [sp, #48]
	movs	r0, #0
.Ltmp41:
	.loc	6 315 12 prologue_end           @ ../ThirdParty/STM32F4xx_HAL_Driver/Src/stm32f4xx_hal_gpio.c:315:12
	str	r0, [sp, #40]
	.loc	6 316 12                        @ ../ThirdParty/STM32F4xx_HAL_Driver/Src/stm32f4xx_hal_gpio.c:316:12
	str	r0, [sp, #36]
	.loc	6 317 12                        @ ../ThirdParty/STM32F4xx_HAL_Driver/Src/stm32f4xx_hal_gpio.c:317:12
	str	r0, [sp, #32]
.Ltmp42:
	.loc	6 323 16                        @ ../ThirdParty/STM32F4xx_HAL_Driver/Src/stm32f4xx_hal_gpio.c:323:16
	str	r0, [sp, #44]
	.loc	6 323 7 is_stmt 0               @ ../ThirdParty/STM32F4xx_HAL_Driver/Src/stm32f4xx_hal_gpio.c:323:7
	b	.LBB1_1
.LBB1_1:                                @ =>This Inner Loop Header: Depth=1
.Ltmp43:
	.loc	6 323 22                        @ ../ThirdParty/STM32F4xx_HAL_Driver/Src/stm32f4xx_hal_gpio.c:323:22
	ldr	r0, [sp, #44]
.Ltmp44:
	.loc	6 323 3                         @ ../ThirdParty/STM32F4xx_HAL_Driver/Src/stm32f4xx_hal_gpio.c:323:3
	cmp	r0, #15
	bhi.w	.LBB1_29
	b	.LBB1_2
.LBB1_2:                                @   in Loop: Header=BB1_1 Depth=1
.Ltmp45:
	.loc	6 326 27 is_stmt 1              @ ../ThirdParty/STM32F4xx_HAL_Driver/Src/stm32f4xx_hal_gpio.c:326:27
	ldr	r1, [sp, #44]
	movs	r0, #1
	.loc	6 326 24 is_stmt 0              @ ../ThirdParty/STM32F4xx_HAL_Driver/Src/stm32f4xx_hal_gpio.c:326:24
	lsls	r0, r1
	.loc	6 326 16                        @ ../ThirdParty/STM32F4xx_HAL_Driver/Src/stm32f4xx_hal_gpio.c:326:16
	str	r0, [sp, #40]
	.loc	6 328 18 is_stmt 1              @ ../ThirdParty/STM32F4xx_HAL_Driver/Src/stm32f4xx_hal_gpio.c:328:18
	ldr	r0, [sp, #48]
	.loc	6 328 30 is_stmt 0              @ ../ThirdParty/STM32F4xx_HAL_Driver/Src/stm32f4xx_hal_gpio.c:328:30
	ldr	r1, [sp, #40]
	.loc	6 328 28                        @ ../ThirdParty/STM32F4xx_HAL_Driver/Src/stm32f4xx_hal_gpio.c:328:28
	ands	r0, r1
	.loc	6 328 15                        @ ../ThirdParty/STM32F4xx_HAL_Driver/Src/stm32f4xx_hal_gpio.c:328:15
	str	r0, [sp, #36]
.Ltmp46:
	.loc	6 330 8 is_stmt 1               @ ../ThirdParty/STM32F4xx_HAL_Driver/Src/stm32f4xx_hal_gpio.c:330:8
	ldr	r0, [sp, #36]
	.loc	6 330 21 is_stmt 0              @ ../ThirdParty/STM32F4xx_HAL_Driver/Src/stm32f4xx_hal_gpio.c:330:21
	ldr	r1, [sp, #40]
.Ltmp47:
	.loc	6 330 8                         @ ../ThirdParty/STM32F4xx_HAL_Driver/Src/stm32f4xx_hal_gpio.c:330:8
	cmp	r0, r1
	bne.w	.LBB1_27
	b	.LBB1_3
.LBB1_3:                                @   in Loop: Header=BB1_1 Depth=1
.Ltmp48:
	.loc	6 334 47 is_stmt 1              @ ../ThirdParty/STM32F4xx_HAL_Driver/Src/stm32f4xx_hal_gpio.c:334:47
	ldr	r0, [sp, #44]
	.loc	6 334 56 is_stmt 0              @ ../ThirdParty/STM32F4xx_HAL_Driver/Src/stm32f4xx_hal_gpio.c:334:56
	lsls	r0, r0, #1
	movs	r1, #3
	.loc	6 334 43                        @ ../ThirdParty/STM32F4xx_HAL_Driver/Src/stm32f4xx_hal_gpio.c:334:43
	lsl.w	r3, r1, r0
	.loc	6 334 7                         @ ../ThirdParty/STM32F4xx_HAL_Driver/Src/stm32f4xx_hal_gpio.c:334:7
	ldr	r2, [sp, #52]
	.loc	6 334 20                        @ ../ThirdParty/STM32F4xx_HAL_Driver/Src/stm32f4xx_hal_gpio.c:334:20
	ldr	r0, [r2]
	bics	r0, r3
	str	r0, [r2]
	.loc	6 337 59 is_stmt 1              @ ../ThirdParty/STM32F4xx_HAL_Driver/Src/stm32f4xx_hal_gpio.c:337:59
	ldr.w	lr, [sp, #44]
	.loc	6 337 68 is_stmt 0              @ ../ThirdParty/STM32F4xx_HAL_Driver/Src/stm32f4xx_hal_gpio.c:337:68
	and	r0, lr, #7
	.loc	6 337 77                        @ ../ThirdParty/STM32F4xx_HAL_Driver/Src/stm32f4xx_hal_gpio.c:337:77
	lsls	r2, r0, #2
	movs	r0, #15
	.loc	6 337 44                        @ ../ThirdParty/STM32F4xx_HAL_Driver/Src/stm32f4xx_hal_gpio.c:337:44
	lsl.w	r12, r0, r2
	.loc	6 337 7                         @ ../ThirdParty/STM32F4xx_HAL_Driver/Src/stm32f4xx_hal_gpio.c:337:7
	ldr	r2, [sp, #52]
	mvn	r3, #3
	and.w	r3, r3, lr, lsr #1
	.loc	6 337 14                        @ ../ThirdParty/STM32F4xx_HAL_Driver/Src/stm32f4xx_hal_gpio.c:337:14
	add	r3, r2
	.loc	6 337 34                        @ ../ThirdParty/STM32F4xx_HAL_Driver/Src/stm32f4xx_hal_gpio.c:337:34
	ldr	r2, [r3, #32]
	bic.w	r2, r2, r12
	str	r2, [r3, #32]
	.loc	6 340 54 is_stmt 1              @ ../ThirdParty/STM32F4xx_HAL_Driver/Src/stm32f4xx_hal_gpio.c:340:54
	ldr	r2, [sp, #44]
	.loc	6 340 63 is_stmt 0              @ ../ThirdParty/STM32F4xx_HAL_Driver/Src/stm32f4xx_hal_gpio.c:340:63
	lsls	r2, r2, #1
	.loc	6 340 50                        @ ../ThirdParty/STM32F4xx_HAL_Driver/Src/stm32f4xx_hal_gpio.c:340:50
	lsl.w	r12, r1, r2
	.loc	6 340 7                         @ ../ThirdParty/STM32F4xx_HAL_Driver/Src/stm32f4xx_hal_gpio.c:340:7
	ldr	r3, [sp, #52]
	.loc	6 340 22                        @ ../ThirdParty/STM32F4xx_HAL_Driver/Src/stm32f4xx_hal_gpio.c:340:22
	ldr	r2, [r3, #8]
	bic.w	r2, r2, r12
	str	r2, [r3, #8]
	.loc	6 343 47 is_stmt 1              @ ../ThirdParty/STM32F4xx_HAL_Driver/Src/stm32f4xx_hal_gpio.c:343:47
	ldr	r3, [sp, #44]
	movs	r2, #1
	.loc	6 343 44 is_stmt 0              @ ../ThirdParty/STM32F4xx_HAL_Driver/Src/stm32f4xx_hal_gpio.c:343:44
	lsl.w	r12, r2, r3
	.loc	6 343 7                         @ ../ThirdParty/STM32F4xx_HAL_Driver/Src/stm32f4xx_hal_gpio.c:343:7
	ldr	r3, [sp, #52]
	.loc	6 343 22                        @ ../ThirdParty/STM32F4xx_HAL_Driver/Src/stm32f4xx_hal_gpio.c:343:22
	ldr	r2, [r3, #4]
	bic.w	r2, r2, r12
	str	r2, [r3, #4]
	.loc	6 346 47 is_stmt 1              @ ../ThirdParty/STM32F4xx_HAL_Driver/Src/stm32f4xx_hal_gpio.c:346:47
	ldr	r2, [sp, #44]
	.loc	6 346 56 is_stmt 0              @ ../ThirdParty/STM32F4xx_HAL_Driver/Src/stm32f4xx_hal_gpio.c:346:56
	lsls	r2, r2, #1
	.loc	6 346 43                        @ ../ThirdParty/STM32F4xx_HAL_Driver/Src/stm32f4xx_hal_gpio.c:346:43
	lsl.w	r3, r1, r2
	.loc	6 346 7                         @ ../ThirdParty/STM32F4xx_HAL_Driver/Src/stm32f4xx_hal_gpio.c:346:7
	ldr	r2, [sp, #52]
	.loc	6 346 20                        @ ../ThirdParty/STM32F4xx_HAL_Driver/Src/stm32f4xx_hal_gpio.c:346:20
	ldr	r1, [r2, #12]
	bics	r1, r3
	str	r1, [r2, #12]
	.loc	6 349 28 is_stmt 1              @ ../ThirdParty/STM32F4xx_HAL_Driver/Src/stm32f4xx_hal_gpio.c:349:28
	ldr	r1, [sp, #44]
	.loc	6 349 13 is_stmt 0              @ ../ThirdParty/STM32F4xx_HAL_Driver/Src/stm32f4xx_hal_gpio.c:349:13
	bic	r1, r1, #3
	movw	r2, #14344
	movt	r2, #16385
	ldr	r1, [r1, r2]
	.loc	6 349 11                        @ ../ThirdParty/STM32F4xx_HAL_Driver/Src/stm32f4xx_hal_gpio.c:349:11
	str	r1, [sp, #32]
	.loc	6 350 31 is_stmt 1              @ ../ThirdParty/STM32F4xx_HAL_Driver/Src/stm32f4xx_hal_gpio.c:350:31
	ldr	r1, [sp, #44]
	.loc	6 350 40 is_stmt 0              @ ../ThirdParty/STM32F4xx_HAL_Driver/Src/stm32f4xx_hal_gpio.c:350:40
	and	r1, r1, #3
	.loc	6 350 28                        @ ../ThirdParty/STM32F4xx_HAL_Driver/Src/stm32f4xx_hal_gpio.c:350:28
	lsls	r1, r1, #2
	.loc	6 350 21                        @ ../ThirdParty/STM32F4xx_HAL_Driver/Src/stm32f4xx_hal_gpio.c:350:21
	lsl.w	r1, r0, r1
	.loc	6 350 11                        @ ../ThirdParty/STM32F4xx_HAL_Driver/Src/stm32f4xx_hal_gpio.c:350:11
	ldr	r0, [sp, #32]
	ands	r0, r1
	str	r0, [sp, #32]
.Ltmp49:
	.loc	6 351 10 is_stmt 1              @ ../ThirdParty/STM32F4xx_HAL_Driver/Src/stm32f4xx_hal_gpio.c:351:10
	ldr	r0, [sp, #32]
	.loc	6 351 29 is_stmt 0              @ ../ThirdParty/STM32F4xx_HAL_Driver/Src/stm32f4xx_hal_gpio.c:351:29
	str	r0, [sp, #28]                   @ 4-byte Spill
	ldr	r0, [sp, #52]
	movs	r1, #0
	movt	r1, #16386
	cmp	r0, r1
	bne	.LBB1_5
	b	.LBB1_4
.LBB1_4:                                @   in Loop: Header=BB1_1 Depth=1
	.loc	6 0 29                          @ ../ThirdParty/STM32F4xx_HAL_Driver/Src/stm32f4xx_hal_gpio.c:0:29
	movs	r0, #0
	.loc	6 351 29                        @ ../ThirdParty/STM32F4xx_HAL_Driver/Src/stm32f4xx_hal_gpio.c:351:29
	str	r0, [sp, #24]                   @ 4-byte Spill
	b	.LBB1_24
.LBB1_5:                                @   in Loop: Header=BB1_1 Depth=1
	ldr	r0, [sp, #52]
	movw	r1, #1024
	movt	r1, #16386
	cmp	r0, r1
	bne	.LBB1_7
	b	.LBB1_6
.LBB1_6:                                @   in Loop: Header=BB1_1 Depth=1
	.loc	6 0 29                          @ ../ThirdParty/STM32F4xx_HAL_Driver/Src/stm32f4xx_hal_gpio.c:0:29
	movs	r0, #1
	.loc	6 351 29                        @ ../ThirdParty/STM32F4xx_HAL_Driver/Src/stm32f4xx_hal_gpio.c:351:29
	str	r0, [sp, #20]                   @ 4-byte Spill
	b	.LBB1_23
.LBB1_7:                                @   in Loop: Header=BB1_1 Depth=1
	ldr	r0, [sp, #52]
	movw	r1, #2048
	movt	r1, #16386
	cmp	r0, r1
	bne	.LBB1_9
	b	.LBB1_8
.LBB1_8:                                @   in Loop: Header=BB1_1 Depth=1
	.loc	6 0 29                          @ ../ThirdParty/STM32F4xx_HAL_Driver/Src/stm32f4xx_hal_gpio.c:0:29
	movs	r0, #2
	.loc	6 351 29                        @ ../ThirdParty/STM32F4xx_HAL_Driver/Src/stm32f4xx_hal_gpio.c:351:29
	str	r0, [sp, #16]                   @ 4-byte Spill
	b	.LBB1_22
.LBB1_9:                                @   in Loop: Header=BB1_1 Depth=1
	ldr	r0, [sp, #52]
	movw	r1, #3072
	movt	r1, #16386
	cmp	r0, r1
	bne	.LBB1_11
	b	.LBB1_10
.LBB1_10:                               @   in Loop: Header=BB1_1 Depth=1
	.loc	6 0 29                          @ ../ThirdParty/STM32F4xx_HAL_Driver/Src/stm32f4xx_hal_gpio.c:0:29
	movs	r0, #3
	.loc	6 351 29                        @ ../ThirdParty/STM32F4xx_HAL_Driver/Src/stm32f4xx_hal_gpio.c:351:29
	str	r0, [sp, #12]                   @ 4-byte Spill
	b	.LBB1_21
.LBB1_11:                               @   in Loop: Header=BB1_1 Depth=1
	ldr	r0, [sp, #52]
	movw	r1, #4096
	movt	r1, #16386
	cmp	r0, r1
	bne	.LBB1_13
	b	.LBB1_12
.LBB1_12:                               @   in Loop: Header=BB1_1 Depth=1
	.loc	6 0 29                          @ ../ThirdParty/STM32F4xx_HAL_Driver/Src/stm32f4xx_hal_gpio.c:0:29
	movs	r0, #4
	.loc	6 351 29                        @ ../ThirdParty/STM32F4xx_HAL_Driver/Src/stm32f4xx_hal_gpio.c:351:29
	str	r0, [sp, #8]                    @ 4-byte Spill
	b	.LBB1_20
.LBB1_13:                               @   in Loop: Header=BB1_1 Depth=1
	ldr	r0, [sp, #52]
	movw	r1, #5120
	movt	r1, #16386
	cmp	r0, r1
	bne	.LBB1_15
	b	.LBB1_14
.LBB1_14:                               @   in Loop: Header=BB1_1 Depth=1
	.loc	6 0 29                          @ ../ThirdParty/STM32F4xx_HAL_Driver/Src/stm32f4xx_hal_gpio.c:0:29
	movs	r0, #5
	.loc	6 351 29                        @ ../ThirdParty/STM32F4xx_HAL_Driver/Src/stm32f4xx_hal_gpio.c:351:29
	str	r0, [sp, #4]                    @ 4-byte Spill
	b	.LBB1_19
.LBB1_15:                               @   in Loop: Header=BB1_1 Depth=1
	ldr	r0, [sp, #52]
	movw	r1, #6144
	movt	r1, #16386
	cmp	r0, r1
	bne	.LBB1_17
	b	.LBB1_16
.LBB1_16:                               @   in Loop: Header=BB1_1 Depth=1
	.loc	6 0 29                          @ ../ThirdParty/STM32F4xx_HAL_Driver/Src/stm32f4xx_hal_gpio.c:0:29
	movs	r0, #6
	.loc	6 351 29                        @ ../ThirdParty/STM32F4xx_HAL_Driver/Src/stm32f4xx_hal_gpio.c:351:29
	str	r0, [sp]                        @ 4-byte Spill
	b	.LBB1_18
.LBB1_17:                               @   in Loop: Header=BB1_1 Depth=1
	ldr	r1, [sp, #52]
	movw	r2, #7168
	movt	r2, #16386
	movs	r0, #8
	cmp	r1, r2
	it	eq
	moveq	r0, #7
	str	r0, [sp]                        @ 4-byte Spill
	b	.LBB1_18
.LBB1_18:                               @   in Loop: Header=BB1_1 Depth=1
	ldr	r0, [sp]                        @ 4-byte Reload
	str	r0, [sp, #4]                    @ 4-byte Spill
	b	.LBB1_19
.LBB1_19:                               @   in Loop: Header=BB1_1 Depth=1
	ldr	r0, [sp, #4]                    @ 4-byte Reload
	str	r0, [sp, #8]                    @ 4-byte Spill
	b	.LBB1_20
.LBB1_20:                               @   in Loop: Header=BB1_1 Depth=1
	ldr	r0, [sp, #8]                    @ 4-byte Reload
	str	r0, [sp, #12]                   @ 4-byte Spill
	b	.LBB1_21
.LBB1_21:                               @   in Loop: Header=BB1_1 Depth=1
	ldr	r0, [sp, #12]                   @ 4-byte Reload
	str	r0, [sp, #16]                   @ 4-byte Spill
	b	.LBB1_22
.LBB1_22:                               @   in Loop: Header=BB1_1 Depth=1
	ldr	r0, [sp, #16]                   @ 4-byte Reload
	str	r0, [sp, #20]                   @ 4-byte Spill
	b	.LBB1_23
.LBB1_23:                               @   in Loop: Header=BB1_1 Depth=1
	ldr	r0, [sp, #20]                   @ 4-byte Reload
	str	r0, [sp, #24]                   @ 4-byte Spill
	b	.LBB1_24
.LBB1_24:                               @   in Loop: Header=BB1_1 Depth=1
	ldr	r0, [sp, #28]                   @ 4-byte Reload
	ldr	r1, [sp, #24]                   @ 4-byte Reload
	.loc	6 351 18                        @ ../ThirdParty/STM32F4xx_HAL_Driver/Src/stm32f4xx_hal_gpio.c:351:18
	uxtb	r1, r1
	.loc	6 351 62                        @ ../ThirdParty/STM32F4xx_HAL_Driver/Src/stm32f4xx_hal_gpio.c:351:62
	ldr	r2, [sp, #44]
	.loc	6 351 71                        @ ../ThirdParty/STM32F4xx_HAL_Driver/Src/stm32f4xx_hal_gpio.c:351:71
	and	r2, r2, #3
	.loc	6 351 59                        @ ../ThirdParty/STM32F4xx_HAL_Driver/Src/stm32f4xx_hal_gpio.c:351:59
	lsls	r2, r2, #2
	.loc	6 351 52                        @ ../ThirdParty/STM32F4xx_HAL_Driver/Src/stm32f4xx_hal_gpio.c:351:52
	lsls	r1, r2
.Ltmp50:
	.loc	6 351 10                        @ ../ThirdParty/STM32F4xx_HAL_Driver/Src/stm32f4xx_hal_gpio.c:351:10
	cmp	r0, r1
	bne	.LBB1_26
	b	.LBB1_25
.LBB1_25:                               @   in Loop: Header=BB1_1 Depth=1
.Ltmp51:
	.loc	6 354 31 is_stmt 1              @ ../ThirdParty/STM32F4xx_HAL_Driver/Src/stm32f4xx_hal_gpio.c:354:31
	ldr	r0, [sp, #44]
	.loc	6 354 40 is_stmt 0              @ ../ThirdParty/STM32F4xx_HAL_Driver/Src/stm32f4xx_hal_gpio.c:354:40
	and	r0, r0, #3
	.loc	6 354 28                        @ ../ThirdParty/STM32F4xx_HAL_Driver/Src/stm32f4xx_hal_gpio.c:354:28
	lsls	r1, r0, #2
	movs	r0, #15
	.loc	6 354 21                        @ ../ThirdParty/STM32F4xx_HAL_Driver/Src/stm32f4xx_hal_gpio.c:354:21
	lsls	r0, r1
	.loc	6 354 13                        @ ../ThirdParty/STM32F4xx_HAL_Driver/Src/stm32f4xx_hal_gpio.c:354:13
	str	r0, [sp, #32]
	.loc	6 355 44 is_stmt 1              @ ../ThirdParty/STM32F4xx_HAL_Driver/Src/stm32f4xx_hal_gpio.c:355:44
	ldr	r3, [sp, #32]
	.loc	6 355 24 is_stmt 0              @ ../ThirdParty/STM32F4xx_HAL_Driver/Src/stm32f4xx_hal_gpio.c:355:24
	ldr	r0, [sp, #44]
	.loc	6 355 9                         @ ../ThirdParty/STM32F4xx_HAL_Driver/Src/stm32f4xx_hal_gpio.c:355:9
	bic	r1, r0, #3
	movw	r2, #14344
	movt	r2, #16385
	.loc	6 355 40                        @ ../ThirdParty/STM32F4xx_HAL_Driver/Src/stm32f4xx_hal_gpio.c:355:40
	ldr	r0, [r1, r2]
	bics	r0, r3
	str	r0, [r1, r2]
	.loc	6 358 34 is_stmt 1              @ ../ThirdParty/STM32F4xx_HAL_Driver/Src/stm32f4xx_hal_gpio.c:358:34
	ldr	r2, [sp, #36]
	movw	r1, #15360
	movt	r1, #16385
	.loc	6 358 19 is_stmt 0              @ ../ThirdParty/STM32F4xx_HAL_Driver/Src/stm32f4xx_hal_gpio.c:358:19
	ldr	r0, [r1]
	bics	r0, r2
	str	r0, [r1]
	.loc	6 359 34 is_stmt 1              @ ../ThirdParty/STM32F4xx_HAL_Driver/Src/stm32f4xx_hal_gpio.c:359:34
	ldr	r2, [sp, #36]
	movw	r1, #15364
	movt	r1, #16385
	.loc	6 359 19 is_stmt 0              @ ../ThirdParty/STM32F4xx_HAL_Driver/Src/stm32f4xx_hal_gpio.c:359:19
	ldr	r0, [r1]
	bics	r0, r2
	str	r0, [r1]
	.loc	6 362 35 is_stmt 1              @ ../ThirdParty/STM32F4xx_HAL_Driver/Src/stm32f4xx_hal_gpio.c:362:35
	ldr	r2, [sp, #36]
	movw	r1, #15368
	movt	r1, #16385
	.loc	6 362 20 is_stmt 0              @ ../ThirdParty/STM32F4xx_HAL_Driver/Src/stm32f4xx_hal_gpio.c:362:20
	ldr	r0, [r1]
	bics	r0, r2
	str	r0, [r1]
	.loc	6 363 35 is_stmt 1              @ ../ThirdParty/STM32F4xx_HAL_Driver/Src/stm32f4xx_hal_gpio.c:363:35
	ldr	r2, [sp, #36]
	movw	r1, #15372
	movt	r1, #16385
	.loc	6 363 20 is_stmt 0              @ ../ThirdParty/STM32F4xx_HAL_Driver/Src/stm32f4xx_hal_gpio.c:363:20
	ldr	r0, [r1]
	bics	r0, r2
	str	r0, [r1]
	.loc	6 364 7 is_stmt 1               @ ../ThirdParty/STM32F4xx_HAL_Driver/Src/stm32f4xx_hal_gpio.c:364:7
	b	.LBB1_26
.Ltmp52:
.LBB1_26:                               @   in Loop: Header=BB1_1 Depth=1
	.loc	6 365 5                         @ ../ThirdParty/STM32F4xx_HAL_Driver/Src/stm32f4xx_hal_gpio.c:365:5
	b	.LBB1_27
.Ltmp53:
.LBB1_27:                               @   in Loop: Header=BB1_1 Depth=1
	.loc	6 366 3                         @ ../ThirdParty/STM32F4xx_HAL_Driver/Src/stm32f4xx_hal_gpio.c:366:3
	b	.LBB1_28
.Ltmp54:
.LBB1_28:                               @   in Loop: Header=BB1_1 Depth=1
	.loc	6 323 54                        @ ../ThirdParty/STM32F4xx_HAL_Driver/Src/stm32f4xx_hal_gpio.c:323:54
	ldr	r0, [sp, #44]
	adds	r0, #1
	str	r0, [sp, #44]
	.loc	6 323 3 is_stmt 0               @ ../ThirdParty/STM32F4xx_HAL_Driver/Src/stm32f4xx_hal_gpio.c:323:3
	b	.LBB1_1
.Ltmp55:
.LBB1_29:
	.loc	6 367 1 epilogue_begin is_stmt 1 @ ../ThirdParty/STM32F4xx_HAL_Driver/Src/stm32f4xx_hal_gpio.c:367:1
	add	sp, #56
	pop	{r7, pc}
.Ltmp56:
.Lfunc_end1:
	.size	HAL_GPIO_DeInit, .Lfunc_end1-HAL_GPIO_DeInit
	.cfi_endproc
	.cantunwind
	.fnend
                                        @ -- End function
	.section	.text.HAL_GPIO_ReadPin,"ax",%progbits
	.hidden	HAL_GPIO_ReadPin                @ -- Begin function HAL_GPIO_ReadPin
	.globl	HAL_GPIO_ReadPin
	.p2align	2
	.type	HAL_GPIO_ReadPin,%function
	.code	16                              @ @HAL_GPIO_ReadPin
	.thumb_func
HAL_GPIO_ReadPin:
.Lfunc_begin2:
	.loc	6 394 0                         @ ../ThirdParty/STM32F4xx_HAL_Driver/Src/stm32f4xx_hal_gpio.c:394:0
	.fnstart
	.cfi_startproc
@ %bb.0:
	.pad	#8
	sub	sp, #8
	.cfi_def_cfa_offset 8
                                        @ kill: def $r2 killed $r1
	str	r0, [sp, #4]
	strh.w	r1, [sp, #2]
.Ltmp57:
	.loc	6 400 7 prologue_end            @ ../ThirdParty/STM32F4xx_HAL_Driver/Src/stm32f4xx_hal_gpio.c:400:7
	ldr	r0, [sp, #4]
	.loc	6 400 14 is_stmt 0              @ ../ThirdParty/STM32F4xx_HAL_Driver/Src/stm32f4xx_hal_gpio.c:400:14
	ldr	r0, [r0, #16]
	.loc	6 400 20                        @ ../ThirdParty/STM32F4xx_HAL_Driver/Src/stm32f4xx_hal_gpio.c:400:20
	ldrh.w	r1, [sp, #2]
.Ltmp58:
	.loc	6 400 6                         @ ../ThirdParty/STM32F4xx_HAL_Driver/Src/stm32f4xx_hal_gpio.c:400:6
	tst	r0, r1
	beq	.LBB2_2
	b	.LBB2_1
.LBB2_1:
	.loc	6 0 6                           @ ../ThirdParty/STM32F4xx_HAL_Driver/Src/stm32f4xx_hal_gpio.c:0:6
	movs	r0, #1
.Ltmp59:
	.loc	6 402 15 is_stmt 1              @ ../ThirdParty/STM32F4xx_HAL_Driver/Src/stm32f4xx_hal_gpio.c:402:15
	strb.w	r0, [sp, #1]
	.loc	6 403 3                         @ ../ThirdParty/STM32F4xx_HAL_Driver/Src/stm32f4xx_hal_gpio.c:403:3
	b	.LBB2_3
.Ltmp60:
.LBB2_2:
	.loc	6 0 3 is_stmt 0                 @ ../ThirdParty/STM32F4xx_HAL_Driver/Src/stm32f4xx_hal_gpio.c:0:3
	movs	r0, #0
.Ltmp61:
	.loc	6 406 15 is_stmt 1              @ ../ThirdParty/STM32F4xx_HAL_Driver/Src/stm32f4xx_hal_gpio.c:406:15
	strb.w	r0, [sp, #1]
	b	.LBB2_3
.Ltmp62:
.LBB2_3:
	.loc	6 408 10                        @ ../ThirdParty/STM32F4xx_HAL_Driver/Src/stm32f4xx_hal_gpio.c:408:10
	ldrb.w	r0, [sp, #1]
	.loc	6 408 3 epilogue_begin is_stmt 0 @ ../ThirdParty/STM32F4xx_HAL_Driver/Src/stm32f4xx_hal_gpio.c:408:3
	add	sp, #8
	bx	lr
.Ltmp63:
.Lfunc_end2:
	.size	HAL_GPIO_ReadPin, .Lfunc_end2-HAL_GPIO_ReadPin
	.cfi_endproc
	.cantunwind
	.fnend
                                        @ -- End function
	.section	.text.HAL_GPIO_WritePin,"ax",%progbits
	.hidden	HAL_GPIO_WritePin               @ -- Begin function HAL_GPIO_WritePin
	.globl	HAL_GPIO_WritePin
	.p2align	2
	.type	HAL_GPIO_WritePin,%function
	.code	16                              @ @HAL_GPIO_WritePin
	.thumb_func
HAL_GPIO_WritePin:
.Lfunc_begin3:
	.loc	6 429 0 is_stmt 1               @ ../ThirdParty/STM32F4xx_HAL_Driver/Src/stm32f4xx_hal_gpio.c:429:0
	.fnstart
	.cfi_startproc
@ %bb.0:
	.pad	#8
	sub	sp, #8
	.cfi_def_cfa_offset 8
                                        @ kill: def $r3 killed $r2
                                        @ kill: def $r3 killed $r1
	str	r0, [sp, #4]
	strh.w	r1, [sp, #2]
	strb.w	r2, [sp, #1]
.Ltmp64:
	.loc	6 434 6 prologue_end            @ ../ThirdParty/STM32F4xx_HAL_Driver/Src/stm32f4xx_hal_gpio.c:434:6
	ldrb.w	r0, [sp, #1]
.Ltmp65:
	.loc	6 434 6 is_stmt 0               @ ../ThirdParty/STM32F4xx_HAL_Driver/Src/stm32f4xx_hal_gpio.c:434:6
	cbz	r0, .LBB3_2
	b	.LBB3_1
.LBB3_1:
.Ltmp66:
	.loc	6 436 19 is_stmt 1              @ ../ThirdParty/STM32F4xx_HAL_Driver/Src/stm32f4xx_hal_gpio.c:436:19
	ldrh.w	r0, [sp, #2]
	.loc	6 436 5 is_stmt 0               @ ../ThirdParty/STM32F4xx_HAL_Driver/Src/stm32f4xx_hal_gpio.c:436:5
	ldr	r1, [sp, #4]
	.loc	6 436 17                        @ ../ThirdParty/STM32F4xx_HAL_Driver/Src/stm32f4xx_hal_gpio.c:436:17
	str	r0, [r1, #24]
	.loc	6 437 3 is_stmt 1               @ ../ThirdParty/STM32F4xx_HAL_Driver/Src/stm32f4xx_hal_gpio.c:437:3
	b	.LBB3_3
.Ltmp67:
.LBB3_2:
	.loc	6 440 19                        @ ../ThirdParty/STM32F4xx_HAL_Driver/Src/stm32f4xx_hal_gpio.c:440:19
	ldrh.w	r0, [sp, #2]
	.loc	6 440 38 is_stmt 0              @ ../ThirdParty/STM32F4xx_HAL_Driver/Src/stm32f4xx_hal_gpio.c:440:38
	lsls	r0, r0, #16
	.loc	6 440 5                         @ ../ThirdParty/STM32F4xx_HAL_Driver/Src/stm32f4xx_hal_gpio.c:440:5
	ldr	r1, [sp, #4]
	.loc	6 440 17                        @ ../ThirdParty/STM32F4xx_HAL_Driver/Src/stm32f4xx_hal_gpio.c:440:17
	str	r0, [r1, #24]
	b	.LBB3_3
.Ltmp68:
.LBB3_3:
	.loc	6 442 1 epilogue_begin is_stmt 1 @ ../ThirdParty/STM32F4xx_HAL_Driver/Src/stm32f4xx_hal_gpio.c:442:1
	add	sp, #8
	bx	lr
.Ltmp69:
.Lfunc_end3:
	.size	HAL_GPIO_WritePin, .Lfunc_end3-HAL_GPIO_WritePin
	.cfi_endproc
	.cantunwind
	.fnend
                                        @ -- End function
	.section	.text.HAL_GPIO_TogglePin,"ax",%progbits
	.hidden	HAL_GPIO_TogglePin              @ -- Begin function HAL_GPIO_TogglePin
	.globl	HAL_GPIO_TogglePin
	.p2align	2
	.type	HAL_GPIO_TogglePin,%function
	.code	16                              @ @HAL_GPIO_TogglePin
	.thumb_func
HAL_GPIO_TogglePin:
.Lfunc_begin4:
	.loc	6 452 0                         @ ../ThirdParty/STM32F4xx_HAL_Driver/Src/stm32f4xx_hal_gpio.c:452:0
	.fnstart
	.cfi_startproc
@ %bb.0:
	.pad	#8
	sub	sp, #8
	.cfi_def_cfa_offset 8
                                        @ kill: def $r2 killed $r1
	str	r0, [sp, #4]
	strh.w	r1, [sp, #2]
.Ltmp70:
	.loc	6 456 17 prologue_end           @ ../ThirdParty/STM32F4xx_HAL_Driver/Src/stm32f4xx_hal_gpio.c:456:17
	ldrh.w	r2, [sp, #2]
	.loc	6 456 3 is_stmt 0               @ ../ThirdParty/STM32F4xx_HAL_Driver/Src/stm32f4xx_hal_gpio.c:456:3
	ldr	r1, [sp, #4]
	.loc	6 456 14                        @ ../ThirdParty/STM32F4xx_HAL_Driver/Src/stm32f4xx_hal_gpio.c:456:14
	ldr	r0, [r1, #20]
	eors	r0, r2
	str	r0, [r1, #20]
	.loc	6 457 1 epilogue_begin is_stmt 1 @ ../ThirdParty/STM32F4xx_HAL_Driver/Src/stm32f4xx_hal_gpio.c:457:1
	add	sp, #8
	bx	lr
.Ltmp71:
.Lfunc_end4:
	.size	HAL_GPIO_TogglePin, .Lfunc_end4-HAL_GPIO_TogglePin
	.cfi_endproc
	.cantunwind
	.fnend
                                        @ -- End function
	.section	.text.HAL_GPIO_LockPin,"ax",%progbits
	.hidden	HAL_GPIO_LockPin                @ -- Begin function HAL_GPIO_LockPin
	.globl	HAL_GPIO_LockPin
	.p2align	2
	.type	HAL_GPIO_LockPin,%function
	.code	16                              @ @HAL_GPIO_LockPin
	.thumb_func
HAL_GPIO_LockPin:
.Lfunc_begin5:
	.loc	6 471 0                         @ ../ThirdParty/STM32F4xx_HAL_Driver/Src/stm32f4xx_hal_gpio.c:471:0
	.fnstart
	.cfi_startproc
@ %bb.0:
	.pad	#16
	sub	sp, #16
	.cfi_def_cfa_offset 16
                                        @ kill: def $r2 killed $r1
	str	r0, [sp, #8]
	strh.w	r1, [sp, #6]
	mov.w	r0, #65536
.Ltmp72:
	.loc	6 472 17 prologue_end           @ ../ThirdParty/STM32F4xx_HAL_Driver/Src/stm32f4xx_hal_gpio.c:472:17
	str	r0, [sp]
	.loc	6 478 10                        @ ../ThirdParty/STM32F4xx_HAL_Driver/Src/stm32f4xx_hal_gpio.c:478:10
	ldrh.w	r1, [sp, #6]
	.loc	6 478 7 is_stmt 0               @ ../ThirdParty/STM32F4xx_HAL_Driver/Src/stm32f4xx_hal_gpio.c:478:7
	ldr	r0, [sp]
	orrs	r0, r1
	str	r0, [sp]
	.loc	6 480 17 is_stmt 1              @ ../ThirdParty/STM32F4xx_HAL_Driver/Src/stm32f4xx_hal_gpio.c:480:17
	ldr	r0, [sp]
	.loc	6 480 3 is_stmt 0               @ ../ThirdParty/STM32F4xx_HAL_Driver/Src/stm32f4xx_hal_gpio.c:480:3
	ldr	r1, [sp, #8]
	.loc	6 480 15                        @ ../ThirdParty/STM32F4xx_HAL_Driver/Src/stm32f4xx_hal_gpio.c:480:15
	str	r0, [r1, #28]
	.loc	6 482 17 is_stmt 1              @ ../ThirdParty/STM32F4xx_HAL_Driver/Src/stm32f4xx_hal_gpio.c:482:17
	ldrh.w	r0, [sp, #6]
	.loc	6 482 3 is_stmt 0               @ ../ThirdParty/STM32F4xx_HAL_Driver/Src/stm32f4xx_hal_gpio.c:482:3
	ldr	r1, [sp, #8]
	.loc	6 482 15                        @ ../ThirdParty/STM32F4xx_HAL_Driver/Src/stm32f4xx_hal_gpio.c:482:15
	str	r0, [r1, #28]
	.loc	6 484 17 is_stmt 1              @ ../ThirdParty/STM32F4xx_HAL_Driver/Src/stm32f4xx_hal_gpio.c:484:17
	ldr	r0, [sp]
	.loc	6 484 3 is_stmt 0               @ ../ThirdParty/STM32F4xx_HAL_Driver/Src/stm32f4xx_hal_gpio.c:484:3
	ldr	r1, [sp, #8]
	.loc	6 484 15                        @ ../ThirdParty/STM32F4xx_HAL_Driver/Src/stm32f4xx_hal_gpio.c:484:15
	str	r0, [r1, #28]
	.loc	6 486 9 is_stmt 1               @ ../ThirdParty/STM32F4xx_HAL_Driver/Src/stm32f4xx_hal_gpio.c:486:9
	ldr	r0, [sp, #8]
	.loc	6 486 16 is_stmt 0              @ ../ThirdParty/STM32F4xx_HAL_Driver/Src/stm32f4xx_hal_gpio.c:486:16
	ldr	r0, [r0, #28]
	.loc	6 486 7                         @ ../ThirdParty/STM32F4xx_HAL_Driver/Src/stm32f4xx_hal_gpio.c:486:7
	str	r0, [sp]
.Ltmp73:
	.loc	6 488 6 is_stmt 1               @ ../ThirdParty/STM32F4xx_HAL_Driver/Src/stm32f4xx_hal_gpio.c:488:6
	ldr	r0, [sp, #8]
	.loc	6 488 13 is_stmt 0              @ ../ThirdParty/STM32F4xx_HAL_Driver/Src/stm32f4xx_hal_gpio.c:488:13
	ldr	r0, [r0, #28]
.Ltmp74:
	.loc	6 488 5                         @ ../ThirdParty/STM32F4xx_HAL_Driver/Src/stm32f4xx_hal_gpio.c:488:5
	lsls	r0, r0, #15
	cmp	r0, #0
	bpl	.LBB5_2
	b	.LBB5_1
.LBB5_1:
	.loc	6 0 5                           @ ../ThirdParty/STM32F4xx_HAL_Driver/Src/stm32f4xx_hal_gpio.c:0:5
	movs	r0, #0
.Ltmp75:
	.loc	6 490 5 is_stmt 1               @ ../ThirdParty/STM32F4xx_HAL_Driver/Src/stm32f4xx_hal_gpio.c:490:5
	strb.w	r0, [sp, #15]
	b	.LBB5_3
.Ltmp76:
.LBB5_2:
	.loc	6 0 5 is_stmt 0                 @ ../ThirdParty/STM32F4xx_HAL_Driver/Src/stm32f4xx_hal_gpio.c:0:5
	movs	r0, #1
.Ltmp77:
	.loc	6 494 5 is_stmt 1               @ ../ThirdParty/STM32F4xx_HAL_Driver/Src/stm32f4xx_hal_gpio.c:494:5
	strb.w	r0, [sp, #15]
	b	.LBB5_3
.Ltmp78:
.LBB5_3:
	.loc	6 496 1                         @ ../ThirdParty/STM32F4xx_HAL_Driver/Src/stm32f4xx_hal_gpio.c:496:1
	ldrb.w	r0, [sp, #15]
	.loc	6 496 1 epilogue_begin is_stmt 0 @ ../ThirdParty/STM32F4xx_HAL_Driver/Src/stm32f4xx_hal_gpio.c:496:1
	add	sp, #16
	bx	lr
.Ltmp79:
.Lfunc_end5:
	.size	HAL_GPIO_LockPin, .Lfunc_end5-HAL_GPIO_LockPin
	.cfi_endproc
	.cantunwind
	.fnend
                                        @ -- End function
	.section	.text.HAL_GPIO_EXTI_IRQHandler,"ax",%progbits
	.hidden	HAL_GPIO_EXTI_IRQHandler        @ -- Begin function HAL_GPIO_EXTI_IRQHandler
	.globl	HAL_GPIO_EXTI_IRQHandler
	.p2align	2
	.type	HAL_GPIO_EXTI_IRQHandler,%function
	.code	16                              @ @HAL_GPIO_EXTI_IRQHandler
	.thumb_func
HAL_GPIO_EXTI_IRQHandler:
.Lfunc_begin6:
	.loc	6 504 0 is_stmt 1               @ ../ThirdParty/STM32F4xx_HAL_Driver/Src/stm32f4xx_hal_gpio.c:504:0
	.fnstart
	.cfi_startproc
@ %bb.0:
	.save	{r7, lr}
	push	{r7, lr}
	.cfi_def_cfa_offset 8
	.cfi_offset lr, -4
	.cfi_offset r7, -8
	.pad	#8
	sub	sp, #8
	.cfi_def_cfa_offset 16
                                        @ kill: def $r1 killed $r0
	strh.w	r0, [sp, #6]
	movw	r0, #15380
	movt	r0, #16385
.Ltmp80:
	.loc	6 506 6 prologue_end            @ ../ThirdParty/STM32F4xx_HAL_Driver/Src/stm32f4xx_hal_gpio.c:506:6
	ldr	r0, [r0]
	ldrh.w	r1, [sp, #6]
.Ltmp81:
	.loc	6 506 6 is_stmt 0               @ ../ThirdParty/STM32F4xx_HAL_Driver/Src/stm32f4xx_hal_gpio.c:506:6
	tst	r0, r1
	beq	.LBB6_2
	b	.LBB6_1
.LBB6_1:
.Ltmp82:
	.loc	6 508 5 is_stmt 1               @ ../ThirdParty/STM32F4xx_HAL_Driver/Src/stm32f4xx_hal_gpio.c:508:5
	ldrh.w	r0, [sp, #6]
	movw	r1, #15380
	movt	r1, #16385
	str	r0, [r1]
	.loc	6 509 28                        @ ../ThirdParty/STM32F4xx_HAL_Driver/Src/stm32f4xx_hal_gpio.c:509:28
	ldrh.w	r0, [sp, #6]
	.loc	6 509 5 is_stmt 0               @ ../ThirdParty/STM32F4xx_HAL_Driver/Src/stm32f4xx_hal_gpio.c:509:5
	bl	HAL_GPIO_EXTI_Callback
	.loc	6 510 3 is_stmt 1               @ ../ThirdParty/STM32F4xx_HAL_Driver/Src/stm32f4xx_hal_gpio.c:510:3
	b	.LBB6_2
.Ltmp83:
.LBB6_2:
	.loc	6 511 1 epilogue_begin          @ ../ThirdParty/STM32F4xx_HAL_Driver/Src/stm32f4xx_hal_gpio.c:511:1
	add	sp, #8
	pop	{r7, pc}
.Ltmp84:
.Lfunc_end6:
	.size	HAL_GPIO_EXTI_IRQHandler, .Lfunc_end6-HAL_GPIO_EXTI_IRQHandler
	.cfi_endproc
	.cantunwind
	.fnend
                                        @ -- End function
	.section	.text.HAL_GPIO_EXTI_Callback,"ax",%progbits
	.hidden	HAL_GPIO_EXTI_Callback          @ -- Begin function HAL_GPIO_EXTI_Callback
	.weak	HAL_GPIO_EXTI_Callback
	.p2align	2
	.type	HAL_GPIO_EXTI_Callback,%function
	.code	16                              @ @HAL_GPIO_EXTI_Callback
	.thumb_func
HAL_GPIO_EXTI_Callback:
.Lfunc_begin7:
	.loc	6 519 0                         @ ../ThirdParty/STM32F4xx_HAL_Driver/Src/stm32f4xx_hal_gpio.c:519:0
	.fnstart
	.cfi_startproc
@ %bb.0:
	.pad	#4
	sub	sp, #4
	.cfi_def_cfa_offset 4
                                        @ kill: def $r1 killed $r0
	strh.w	r0, [sp, #2]
.Ltmp85:
	.loc	6 525 1 prologue_end epilogue_begin @ ../ThirdParty/STM32F4xx_HAL_Driver/Src/stm32f4xx_hal_gpio.c:525:1
	add	sp, #4
	bx	lr
.Ltmp86:
.Lfunc_end7:
	.size	HAL_GPIO_EXTI_Callback, .Lfunc_end7-HAL_GPIO_EXTI_Callback
	.cfi_endproc
	.cantunwind
	.fnend
                                        @ -- End function
	.section	".note.GNU-stack","",%progbits
	.eabi_attribute	30, 6	@ Tag_ABI_optimization_goals
	.ARM_attribute	16, 1	@ Tag_AV_eba