	.text
	.syntax unified
	.eabi_attribute	67, "2.09"	@ Tag_conformance
	.cpu	cortex-m4
	.eabi_attribute	6, 13	@ Tag_CPU_arch
	.eabi_attribute	7, 77	@ Tag_CPU_arch_profile
	.eabi_attribute	8, 0	@ Tag_ARM_ISA_use
	.eabi_attribute	9, 2	@ Tag_THUMB_ISA_use
	.fpu	fpv4-sp-d16
	.eabi_attribute	27, 1	@ Tag_ABI_HardFP_use
	.eabi_attribute	36, 1	@ Tag_FP_HP_extension
	.eabi_attribute	34, 1	@ Tag_CPU_unaligned_access
	.eabi_attribute	17, 1	@ Tag_ABI_PCS_GOT_use
	.eabi_attribute	20, 2	@ Tag_ABI_FP_denormal
	.eabi_attribute	21, 0	@ Tag_ABI_FP_exceptions
	.eabi_attribute	23, 1	@ Tag_ABI_FP_number_model
	.eabi_attribute	24, 1	@ Tag_ABI_align_needed
	.eabi_attribute	25, 1	@ Tag_ABI_align_preserved
	.eabi_attribute	28, 1	@ Tag_ABI_VFP_args
	.eabi_attribute	38, 1	@ Tag_ABI_FP_16bit_format
	.eabi_attribute	18, 2	@ Tag_ABI_PCS_wchar_t
	.eabi_attribute	26, 1	@ Tag_ABI_enum_size
	.eabi_attribute	14, 0	@ Tag_ABI_PCS_R9_use
	.file	"stm32f4xx_hal_can.c"
	.file	1 "D:\\ikingtec\\Robot\\ODrive\\Firmware\\MDK-ARM" "../ThirdParty/STM32F4xx_HAL_Driver/Inc/stm32f4xx_hal_def.h"
	.file	2 "D:\\ikingtec\\Robot\\ODrive\\Firmware\\MDK-ARM" "../ThirdParty/CMSIS/Device/ST/STM32F4xx/Include\\stm32f4xx.h"
	.file	3 "D:\\ikingtec\\Robot\\ODrive\\Firmware\\MDK-ARM" "../ThirdParty/STM32F4xx_HAL_Driver/Inc\\stm32f4xx_hal_can.h"
	.file	4 "D:\\Embed\\MDK\\MDK\\ARM\\ARMCompilerV621\\Bin\\..\\include" "stdint.h"
	.file	5 "D:\\ikingtec\\Robot\\ODrive\\Firmware\\MDK-ARM" "../ThirdParty/CMSIS/Device/ST/STM32F4xx/Include/stm32f405xx.h"
	.section	.text.HAL_CAN_Init,"ax",%progbits
	.hidden	HAL_CAN_Init                    @ -- Begin function HAL_CAN_Init
	.globl	HAL_CAN_Init
	.p2align	2
	.type	HAL_CAN_Init,%function
	.code	16                              @ @HAL_CAN_Init
	.thumb_func
HAL_CAN_Init:
.Lfunc_begin0:
	.file	6 "D:\\ikingtec\\Robot\\ODrive\\Firmware\\MDK-ARM" "../ThirdParty/STM32F4xx_HAL_Driver/Src/stm32f4xx_hal_can.c"
	.loc	6 223 0                         @ ../ThirdParty/STM32F4xx_HAL_Driver/Src/stm32f4xx_hal_can.c:223:0
	.fnstart
	.cfi_sections .debug_frame
	.cfi_startproc
@ %bb.0:
	.save	{r7, lr}
	push	{r7, lr}
	.cfi_def_cfa_offset 8
	.cfi_offset lr, -4
	.cfi_offset r7, -8
	.pad	#16
	sub	sp, #16
	.cfi_def_cfa_offset 24
	str	r0, [sp, #8]
	movs	r0, #0
.Ltmp0:
	.loc	6 224 12 prologue_end           @ ../ThirdParty/STM32F4xx_HAL_Driver/Src/stm32f4xx_hal_can.c:224:12
	str	r0, [sp, #4]
.Ltmp1:
	.loc	6 227 7                         @ ../ThirdParty/STM32F4xx_HAL_Driver/Src/stm32f4xx_hal_can.c:227:7
	ldr	r0, [sp, #8]
.Ltmp2:
	.loc	6 227 7 is_stmt 0               @ ../ThirdParty/STM32F4xx_HAL_Driver/Src/stm32f4xx_hal_can.c:227:7
	cbnz	r0, .LBB0_2
	b	.LBB0_1
.LBB0_1:
	.loc	6 0 7                           @ ../ThirdParty/STM32F4xx_HAL_Driver/Src/stm32f4xx_hal_can.c:0:7
	movs	r0, #1
.Ltmp3:
	.loc	6 229 5 is_stmt 1               @ ../ThirdParty/STM32F4xx_HAL_Driver/Src/stm32f4xx_hal_can.c:229:5
	strb.w	r0, [sp, #15]
	b	.LBB0_33
.Ltmp4:
.LBB0_2:
	.loc	6 246 7                         @ ../ThirdParty/STM32F4xx_HAL_Driver/Src/stm32f4xx_hal_can.c:246:7
	ldr	r0, [sp, #8]
	.loc	6 246 13 is_stmt 0              @ ../ThirdParty/STM32F4xx_HAL_Driver/Src/stm32f4xx_hal_can.c:246:13
	ldrb.w	r0, [r0, #32]
.Ltmp5:
	.loc	6 246 7                         @ ../ThirdParty/STM32F4xx_HAL_Driver/Src/stm32f4xx_hal_can.c:246:7
	cbnz	r0, .LBB0_4
	b	.LBB0_3
.LBB0_3:
.Ltmp6:
	.loc	6 249 21 is_stmt 1              @ ../ThirdParty/STM32F4xx_HAL_Driver/Src/stm32f4xx_hal_can.c:249:21
	ldr	r0, [sp, #8]
	.loc	6 249 5 is_stmt 0               @ ../ThirdParty/STM32F4xx_HAL_Driver/Src/stm32f4xx_hal_can.c:249:5
	bl	HAL_CAN_MspInit
	.loc	6 250 3 is_stmt 1               @ ../ThirdParty/STM32F4xx_HAL_Driver/Src/stm32f4xx_hal_can.c:250:3
	b	.LBB0_4
.Ltmp7:
.LBB0_4:
	.loc	6 253 3                         @ ../ThirdParty/STM32F4xx_HAL_Driver/Src/stm32f4xx_hal_can.c:253:3
	ldr	r0, [sp, #8]
	ldr	r1, [r0]
	ldr	r0, [r1]
	bic	r0, r0, #2
	str	r0, [r1]
	.loc	6 256 15                        @ ../ThirdParty/STM32F4xx_HAL_Driver/Src/stm32f4xx_hal_can.c:256:15
	bl	HAL_GetTick
	.loc	6 256 13 is_stmt 0              @ ../ThirdParty/STM32F4xx_HAL_Driver/Src/stm32f4xx_hal_can.c:256:13
	str	r0, [sp, #4]
	.loc	6 259 3 is_stmt 1               @ ../ThirdParty/STM32F4xx_HAL_Driver/Src/stm32f4xx_hal_can.c:259:3
	b	.LBB0_5
.LBB0_5:                                @ =>This Inner Loop Header: Depth=1
	.loc	6 259 11 is_stmt 0              @ ../ThirdParty/STM32F4xx_HAL_Driver/Src/stm32f4xx_hal_can.c:259:11
	ldr	r0, [sp, #8]
	.loc	6 259 17                        @ ../ThirdParty/STM32F4xx_HAL_Driver/Src/stm32f4xx_hal_can.c:259:17
	ldr	r0, [r0]
	.loc	6 259 27                        @ ../ThirdParty/STM32F4xx_HAL_Driver/Src/stm32f4xx_hal_can.c:259:27
	ldr	r0, [r0, #4]
	.loc	6 259 3                         @ ../ThirdParty/STM32F4xx_HAL_Driver/Src/stm32f4xx_hal_can.c:259:3
	lsls	r0, r0, #30
	cmp	r0, #0
	bpl	.LBB0_9
	b	.LBB0_6
.LBB0_6:                                @   in Loop: Header=BB0_5 Depth=1
.Ltmp8:
	.loc	6 261 10 is_stmt 1              @ ../ThirdParty/STM32F4xx_HAL_Driver/Src/stm32f4xx_hal_can.c:261:10
	bl	HAL_GetTick
	.loc	6 261 26 is_stmt 0              @ ../ThirdParty/STM32F4xx_HAL_Driver/Src/stm32f4xx_hal_can.c:261:26
	ldr	r1, [sp, #4]
	.loc	6 261 24                        @ ../ThirdParty/STM32F4xx_HAL_Driver/Src/stm32f4xx_hal_can.c:261:24
	subs	r0, r0, r1
.Ltmp9:
	.loc	6 261 9                         @ ../ThirdParty/STM32F4xx_HAL_Driver/Src/stm32f4xx_hal_can.c:261:9
	cmp	r0, #11
	blo	.LBB0_8
	b	.LBB0_7
.LBB0_7:
.Ltmp10:
	.loc	6 264 7 is_stmt 1               @ ../ThirdParty/STM32F4xx_HAL_Driver/Src/stm32f4xx_hal_can.c:264:7
	ldr	r1, [sp, #8]
	.loc	6 264 23 is_stmt 0              @ ../ThirdParty/STM32F4xx_HAL_Driver/Src/stm32f4xx_hal_can.c:264:23
	ldr	r0, [r1, #36]
	orr	r0, r0, #131072
	str	r0, [r1, #36]
	.loc	6 267 7 is_stmt 1               @ ../ThirdParty/STM32F4xx_HAL_Driver/Src/stm32f4xx_hal_can.c:267:7
	ldr	r1, [sp, #8]
	movs	r0, #5
	.loc	6 267 19 is_stmt 0              @ ../ThirdParty/STM32F4xx_HAL_Driver/Src/stm32f4xx_hal_can.c:267:19
	strb.w	r0, [r1, #32]
	movs	r0, #1
	.loc	6 269 7 is_stmt 1               @ ../ThirdParty/STM32F4xx_HAL_Driver/Src/stm32f4xx_hal_can.c:269:7
	strb.w	r0, [sp, #15]
	b	.LBB0_33
.Ltmp11:
.LBB0_8:                                @   in Loop: Header=BB0_5 Depth=1
	.loc	6 259 3                         @ ../ThirdParty/STM32F4xx_HAL_Driver/Src/stm32f4xx_hal_can.c:259:3
	b	.LBB0_5
.LBB0_9:
	.loc	6 274 3                         @ ../ThirdParty/STM32F4xx_HAL_Driver/Src/stm32f4xx_hal_can.c:274:3
	ldr	r0, [sp, #8]
	ldr	r1, [r0]
	ldr	r0, [r1]
	orr	r0, r0, #1
	str	r0, [r1]
	.loc	6 277 15                        @ ../ThirdParty/STM32F4xx_HAL_Driver/Src/stm32f4xx_hal_can.c:277:15
	bl	HAL_GetTick
	.loc	6 277 13 is_stmt 0              @ ../ThirdParty/STM32F4xx_HAL_Driver/Src/stm32f4xx_hal_can.c:277:13
	str	r0, [sp, #4]
	.loc	6 280 3 is_stmt 1               @ ../ThirdParty/STM32F4xx_HAL_Driver/Src/stm32f4xx_hal_can.c:280:3
	b	.LBB0_10
.LBB0_10:                               @ =>This Inner Loop Header: Depth=1
	.loc	6 280 11 is_stmt 0              @ ../ThirdParty/STM32F4xx_HAL_Driver/Src/stm32f4xx_hal_can.c:280:11
	ldr	r0, [sp, #8]
	.loc	6 280 17                        @ ../ThirdParty/STM32F4xx_HAL_Driver/Src/stm32f4xx_hal_can.c:280:17
	ldr	r0, [r0]
	.loc	6 280 27                        @ ../ThirdParty/STM32F4xx_HAL_Driver/Src/stm32f4xx_hal_can.c:280:27
	ldr	r0, [r0, #4]
	.loc	6 280 3                         @ ../ThirdParty/STM32F4xx_HAL_Driver/Src/stm32f4xx_hal_can.c:280:3
	lsls	r0, r0, #31
	cbnz	r0, .LBB0_14
	b	.LBB0_11
.LBB0_11:                               @   in Loop: Header=BB0_10 Depth=1
.Ltmp12:
	.loc	6 282 10 is_stmt 1              @ ../ThirdParty/STM32F4xx_HAL_Driver/Src/stm32f4xx_hal_can.c:282:10
	bl	HAL_GetTick
	.loc	6 282 26 is_stmt 0              @ ../ThirdParty/STM32F4xx_HAL_Driver/Src/stm32f4xx_hal_can.c:282:26
	ldr	r1, [sp, #4]
	.loc	6 282 24                        @ ../ThirdParty/STM32F4xx_HAL_Driver/Src/stm32f4xx_hal_can.c:282:24
	subs	r0, r0, r1
.Ltmp13:
	.loc	6 282 9                         @ ../ThirdParty/STM32F4xx_HAL_Driver/Src/stm32f4xx_hal_can.c:282:9
	cmp	r0, #11
	blo	.LBB0_13
	b	.LBB0_12
.LBB0_12:
.Ltmp14:
	.loc	6 285 7 is_stmt 1               @ ../ThirdParty/STM32F4xx_HAL_Driver/Src/stm32f4xx_hal_can.c:285:7
	ldr	r1, [sp, #8]
	.loc	6 285 23 is_stmt 0              @ ../ThirdParty/STM32F4xx_HAL_Driver/Src/stm32f4xx_hal_can.c:285:23
	ldr	r0, [r1, #36]
	orr	r0, r0, #131072
	str	r0, [r1, #36]
	.loc	6 288 7 is_stmt 1               @ ../ThirdParty/STM32F4xx_HAL_Driver/Src/stm32f4xx_hal_can.c:288:7
	ldr	r1, [sp, #8]
	movs	r0, #5
	.loc	6 288 19 is_stmt 0              @ ../ThirdParty/STM32F4xx_HAL_Driver/Src/stm32f4xx_hal_can.c:288:19
	strb.w	r0, [r1, #32]
	movs	r0, #1
	.loc	6 290 7 is_stmt 1               @ ../ThirdParty/STM32F4xx_HAL_Driver/Src/stm32f4xx_hal_can.c:290:7
	strb.w	r0, [sp, #15]
	b	.LBB0_33
.Ltmp15:
.LBB0_13:                               @   in Loop: Header=BB0_10 Depth=1
	.loc	6 280 3                         @ ../ThirdParty/STM32F4xx_HAL_Driver/Src/stm32f4xx_hal_can.c:280:3
	b	.LBB0_10
.LBB0_14:
.Ltmp16:
	.loc	6 295 7                         @ ../ThirdParty/STM32F4xx_HAL_Driver/Src/stm32f4xx_hal_can.c:295:7
	ldr	r0, [sp, #8]
	.loc	6 295 18 is_stmt 0              @ ../ThirdParty/STM32F4xx_HAL_Driver/Src/stm32f4xx_hal_can.c:295:18
	ldrb	r0, [r0, #24]
.Ltmp17:
	.loc	6 295 7                         @ ../ThirdParty/STM32F4xx_HAL_Driver/Src/stm32f4xx_hal_can.c:295:7
	cmp	r0, #1
	bne	.LBB0_16
	b	.LBB0_15
.LBB0_15:
.Ltmp18:
	.loc	6 297 5 is_stmt 1               @ ../ThirdParty/STM32F4xx_HAL_Driver/Src/stm32f4xx_hal_can.c:297:5
	ldr	r0, [sp, #8]
	ldr	r1, [r0]
	ldr	r0, [r1]
	orr	r0, r0, #128
	str	r0, [r1]
	.loc	6 298 3                         @ ../ThirdParty/STM32F4xx_HAL_Driver/Src/stm32f4xx_hal_can.c:298:3
	b	.LBB0_17
.Ltmp19:
.LBB0_16:
	.loc	6 301 5                         @ ../ThirdParty/STM32F4xx_HAL_Driver/Src/stm32f4xx_hal_can.c:301:5
	ldr	r0, [sp, #8]
	ldr	r1, [r0]
	ldr	r0, [r1]
	bic	r0, r0, #128
	str	r0, [r1]
	b	.LBB0_17
.Ltmp20:
.LBB0_17:
	.loc	6 305 7                         @ ../ThirdParty/STM32F4xx_HAL_Driver/Src/stm32f4xx_hal_can.c:305:7
	ldr	r0, [sp, #8]
	.loc	6 305 18 is_stmt 0              @ ../ThirdParty/STM32F4xx_HAL_Driver/Src/stm32f4xx_hal_can.c:305:18
	ldrb	r0, [r0, #25]
.Ltmp21:
	.loc	6 305 7                         @ ../ThirdParty/STM32F4xx_HAL_Driver/Src/stm32f4xx_hal_can.c:305:7
	cmp	r0, #1
	bne	.LBB0_19
	b	.LBB0_18
.LBB0_18:
.Ltmp22:
	.loc	6 307 5 is_stmt 1               @ ../ThirdParty/STM32F4xx_HAL_Driver/Src/stm32f4xx_hal_can.c:307:5
	ldr	r0, [sp, #8]
	ldr	r1, [r0]
	ldr	r0, [r1]
	orr	r0, r0, #64
	str	r0, [r1]
	.loc	6 308 3                         @ ../ThirdParty/STM32F4xx_HAL_Driver/Src/stm32f4xx_hal_can.c:308:3
	b	.LBB0_20
.Ltmp23:
.LBB0_19:
	.loc	6 311 5                         @ ../ThirdParty/STM32F4xx_HAL_Driver/Src/stm32f4xx_hal_can.c:311:5
	ldr	r0, [sp, #8]
	ldr	r1, [r0]
	ldr	r0, [r1]
	bic	r0, r0, #64
	str	r0, [r1]
	b	.LBB0_20
.Ltmp24:
.LBB0_20:
	.loc	6 315 7                         @ ../ThirdParty/STM32F4xx_HAL_Driver/Src/stm32f4xx_hal_can.c:315:7
	ldr	r0, [sp, #8]
	.loc	6 315 18 is_stmt 0              @ ../ThirdParty/STM32F4xx_HAL_Driver/Src/stm32f4xx_hal_can.c:315:18
	ldrb	r0, [r0, #26]
.Ltmp25:
	.loc	6 315 7                         @ ../ThirdParty/STM32F4xx_HAL_Driver/Src/stm32f4xx_hal_can.c:315:7
	cmp	r0, #1
	bne	.LBB0_22
	b	.LBB0_21
.LBB0_21:
.Ltmp26:
	.loc	6 317 5 is_stmt 1               @ ../ThirdParty/STM32F4xx_HAL_Driver/Src/stm32f4xx_hal_can.c:317:5
	ldr	r0, [sp, #8]
	ldr	r1, [r0]
	ldr	r0, [r1]
	orr	r0, r0, #32
	str	r0, [r1]
	.loc	6 318 3                         @ ../ThirdParty/STM32F4xx_HAL_Driver/Src/stm32f4xx_hal_can.c:318:3
	b	.LBB0_23
.Ltmp27:
.LBB0_22:
	.loc	6 321 5                         @ ../ThirdParty/STM32F4xx_HAL_Driver/Src/stm32f4xx_hal_can.c:321:5
	ldr	r0, [sp, #8]
	ldr	r1, [r0]
	ldr	r0, [r1]
	bic	r0, r0, #32
	str	r0, [r1]
	b	.LBB0_23
.Ltmp28:
.LBB0_23:
	.loc	6 325 7                         @ ../ThirdParty/STM32F4xx_HAL_Driver/Src/stm32f4xx_hal_can.c:325:7
	ldr	r0, [sp, #8]
	.loc	6 325 18 is_stmt 0              @ ../ThirdParty/STM32F4xx_HAL_Driver/Src/stm32f4xx_hal_can.c:325:18
	ldrb	r0, [r0, #27]
.Ltmp29:
	.loc	6 325 7                         @ ../ThirdParty/STM32F4xx_HAL_Driver/Src/stm32f4xx_hal_can.c:325:7
	cmp	r0, #1
	bne	.LBB0_25
	b	.LBB0_24
.LBB0_24:
.Ltmp30:
	.loc	6 327 5 is_stmt 1               @ ../ThirdParty/STM32F4xx_HAL_Driver/Src/stm32f4xx_hal_can.c:327:5
	ldr	r0, [sp, #8]
	ldr	r1, [r0]
	ldr	r0, [r1]
	bic	r0, r0, #16
	str	r0, [r1]
	.loc	6 328 3                         @ ../ThirdParty/STM32F4xx_HAL_Driver/Src/stm32f4xx_hal_can.c:328:3
	b	.LBB0_26
.Ltmp31:
.LBB0_25:
	.loc	6 331 5                         @ ../ThirdParty/STM32F4xx_HAL_Driver/Src/stm32f4xx_hal_can.c:331:5
	ldr	r0, [sp, #8]
	ldr	r1, [r0]
	ldr	r0, [r1]
	orr	r0, r0, #16
	str	r0, [r1]
	b	.LBB0_26
.Ltmp32:
.LBB0_26:
	.loc	6 335 7                         @ ../ThirdParty/STM32F4xx_HAL_Driver/Src/stm32f4xx_hal_can.c:335:7
	ldr	r0, [sp, #8]
	.loc	6 335 18 is_stmt 0              @ ../ThirdParty/STM32F4xx_HAL_Driver/Src/stm32f4xx_hal_can.c:335:18
	ldrb	r0, [r0, #28]
.Ltmp33:
	.loc	6 335 7                         @ ../ThirdParty/STM32F4xx_HAL_Driver/Src/stm32f4xx_hal_can.c:335:7
	cmp	r0, #1
	bne	.LBB0_28
	b	.LBB0_27
.LBB0_27:
.Ltmp34:
	.loc	6 337 5 is_stmt 1               @ ../ThirdParty/STM32F4xx_HAL_Driver/Src/stm32f4xx_hal_can.c:337:5
	ldr	r0, [sp, #8]
	ldr	r1, [r0]
	ldr	r0, [r1]
	orr	r0, r0, #8
	str	r0, [r1]
	.loc	6 338 3                         @ ../ThirdParty/STM32F4xx_HAL_Driver/Src/stm32f4xx_hal_can.c:338:3
	b	.LBB0_29
.Ltmp35:
.LBB0_28:
	.loc	6 341 5                         @ ../ThirdParty/STM32F4xx_HAL_Driver/Src/stm32f4xx_hal_can.c:341:5
	ldr	r0, [sp, #8]
	ldr	r1, [r0]
	ldr	r0, [r1]
	bic	r0, r0, #8
	str	r0, [r1]
	b	.LBB0_29
.Ltmp36:
.LBB0_29:
	.loc	6 345 7                         @ ../ThirdParty/STM32F4xx_HAL_Driver/Src/stm32f4xx_hal_can.c:345:7
	ldr	r0, [sp, #8]
	.loc	6 345 18 is_stmt 0              @ ../ThirdParty/STM32F4xx_HAL_Driver/Src/stm32f4xx_hal_can.c:345:18
	ldrb	r0, [r0, #29]
.Ltmp37:
	.loc	6 345 7                         @ ../ThirdParty/STM32F4xx_HAL_Driver/Src/stm32f4xx_hal_can.c:345:7
	cmp	r0, #1
	bne	.LBB0_31
	b	.LBB0_30
.LBB0_30:
.Ltmp38:
	.loc	6 347 5 is_stmt 1               @ ../ThirdParty/STM32F4xx_HAL_Driver/Src/stm32f4xx_hal_can.c:347:5
	ldr	r0, [sp, #8]
	ldr	r1, [r0]
	ldr	r0, [r1]
	orr	r0, r0, #4
	str	r0, [r1]
	.loc	6 348 3                         @ ../ThirdParty/STM32F4xx_HAL_Driver/Src/stm32f4xx_hal_can.c:348:3
	b	.LBB0_32
.Ltmp39:
.LBB0_31:
	.loc	6 351 5                         @ ../ThirdParty/STM32F4xx_HAL_Driver/Src/stm32f4xx_hal_can.c:351:5
	ldr	r0, [sp, #8]
	ldr	r1, [r0]
	ldr	r0, [r1]
	bic	r0, r0, #4
	str	r0, [r1]
	b	.LBB0_32
.Ltmp40:
.LBB0_32:
	.loc	6 355 3                         @ ../ThirdParty/STM32F4xx_HAL_Driver/Src/stm32f4xx_hal_can.c:355:3
	ldr	r3, [sp, #8]
	ldr	r1, [r3]
	ldr	r2, [r3, #4]
	ldr	r0, [r3, #8]
	ldr.w	r12, [r3, #12]
	orr.w	r0, r0, r12
	ldr.w	r12, [r3, #16]
	orr.w	r0, r0, r12
	ldr	r3, [r3, #20]
	orrs	r0, r3
	subs	r2, #1
	orrs	r0, r2
	str	r0, [r1, #28]
	.loc	6 362 3                         @ ../ThirdParty/STM32F4xx_HAL_Driver/Src/stm32f4xx_hal_can.c:362:3
	ldr	r1, [sp, #8]
	movs	r0, #0
	.loc	6 362 19 is_stmt 0              @ ../ThirdParty/STM32F4xx_HAL_Driver/Src/stm32f4xx_hal_can.c:362:19
	str	r0, [r1, #36]
	.loc	6 365 3 is_stmt 1               @ ../ThirdParty/STM32F4xx_HAL_Driver/Src/stm32f4xx_hal_can.c:365:3
	ldr	r2, [sp, #8]
	movs	r1, #1
	.loc	6 365 15 is_stmt 0              @ ../ThirdParty/STM32F4xx_HAL_Driver/Src/stm32f4xx_hal_can.c:365:15
	strb.w	r1, [r2, #32]
	.loc	6 368 3 is_stmt 1               @ ../ThirdParty/STM32F4xx_HAL_Driver/Src/stm32f4xx_hal_can.c:368:3
	strb.w	r0, [sp, #15]
	b	.LBB0_33
.LBB0_33:
	.loc	6 369 1                         @ ../ThirdParty/STM32F4xx_HAL_Driver/Src/stm32f4xx_hal_can.c:369:1
	ldrb.w	r0, [sp, #15]
	.loc	6 369 1 epilogue_begin is_stmt 0 @ ../ThirdParty/STM32F4xx_HAL_Driver/Src/stm32f4xx_hal_can.c:369:1
	add	sp, #16
	pop	{r7, pc}
.Ltmp41:
.Lfunc_end0:
	.size	HAL_CAN_Init, .Lfunc_end0-HAL_CAN_Init
	.cfi_endproc
	.cantunwind
	.fnend
                                        @ -- End function
	.section	.text.HAL_CAN_MspInit,"ax",%progbits
	.hidden	HAL_CAN_MspInit                 @ -- Begin function HAL_CAN_MspInit
	.weak	HAL_CAN_MspInit
	.p2align	2
	.type	HAL_CAN_MspInit,%function
	.code	16                              @ @HAL_CAN_MspInit
	.thumb_func
HAL_CAN_MspInit:
.Lfunc_begin1:
	.loc	6 415 0 is_stmt 1               @ ../ThirdParty/STM32F4xx_HAL_Driver/Src/stm32f4xx_hal_can.c:415:0
	.fnstart
	.cfi_startproc
@ %bb.0:
	.pad	#4
	sub	sp, #4
	.cfi_def_cfa_offset 4
	str	r0, [sp]
.Ltmp42:
	.loc	6 422 1 prologue_end epilogue_begin @ ../ThirdParty/STM32F4xx_HAL_Driver/Src/stm32f4xx_hal_can.c:422:1
	add	sp, #4
	bx	lr
.Ltmp43:
.Lfunc_end1:
	.size	HAL_CAN_MspInit, .Lfunc_end1-HAL_CAN_MspInit
	.cfi_endproc
	.cantunwind
	.fnend
                                        @ -- End function
	.section	.text.HAL_CAN_DeInit,"ax",%progbits
	.hidden	HAL_CAN_DeInit                  @ -- Begin function HAL_CAN_DeInit
	.globl	HAL_CAN_DeInit
	.p2align	2
	.type	HAL_CAN_DeInit,%function
	.code	16                              @ @HAL_CAN_DeInit
	.thumb_func
HAL_CAN_DeInit:
.Lfunc_begin2:
	.loc	6 379 0                         @ ../ThirdParty/STM32F4xx_HAL_Driver/Src/stm32f4xx_hal_can.c:379:0
	.fnstart
	.cfi_startproc
@ %bb.0:
	.save	{r7, lr}
	push	{r7, lr}
	.cfi_def_cfa_offset 8
	.cfi_offset lr, -4
	.cfi_offset r7, -8
	.pad	#8
	sub	sp, #8
	.cfi_def_cfa_offset 16
	str	r0, [sp]
.Ltmp44:
	.loc	6 381 7 prologue_end            @ ../ThirdParty/STM32F4xx_HAL_Driver/Src/stm32f4xx_hal_can.c:381:7
	ldr	r0, [sp]
.Ltmp45:
	.loc	6 381 7 is_stmt 0               @ ../ThirdParty/STM32F4xx_HAL_Driver/Src/stm32f4xx_hal_can.c:381:7
	cbnz	r0, .LBB2_2
	b	.LBB2_1
.LBB2_1:
	.loc	6 0 7                           @ ../ThirdParty/STM32F4xx_HAL_Driver/Src/stm32f4xx_hal_can.c:0:7
	movs	r0, #1
.Ltmp46:
	.loc	6 383 5 is_stmt 1               @ ../ThirdParty/STM32F4xx_HAL_Driver/Src/stm32f4xx_hal_can.c:383:5
	strb.w	r0, [sp, #7]
	b	.LBB2_3
.Ltmp47:
.LBB2_2:
	.loc	6 390 16                        @ ../ThirdParty/STM32F4xx_HAL_Driver/Src/stm32f4xx_hal_can.c:390:16
	ldr	r0, [sp]
	.loc	6 390 3 is_stmt 0               @ ../ThirdParty/STM32F4xx_HAL_Driver/Src/stm32f4xx_hal_can.c:390:3
	bl	HAL_CAN_Stop
	.loc	6 393 21 is_stmt 1              @ ../ThirdParty/STM32F4xx_HAL_Driver/Src/stm32f4xx_hal_can.c:393:21
	ldr	r0, [sp]
	.loc	6 393 3 is_stmt 0               @ ../ThirdParty/STM32F4xx_HAL_Driver/Src/stm32f4xx_hal_can.c:393:3
	bl	HAL_CAN_MspDeInit
	.loc	6 396 3 is_stmt 1               @ ../ThirdParty/STM32F4xx_HAL_Driver/Src/stm32f4xx_hal_can.c:396:3
	ldr	r0, [sp]
	ldr	r1, [r0]
	ldr	r0, [r1]
	orr	r0, r0, #32768
	str	r0, [r1]
	.loc	6 399 3                         @ ../ThirdParty/STM32F4xx_HAL_Driver/Src/stm32f4xx_hal_can.c:399:3
	ldr	r1, [sp]
	movs	r0, #0
	.loc	6 399 19 is_stmt 0              @ ../ThirdParty/STM32F4xx_HAL_Driver/Src/stm32f4xx_hal_can.c:399:19
	str	r0, [r1, #36]
	.loc	6 402 3 is_stmt 1               @ ../ThirdParty/STM32F4xx_HAL_Driver/Src/stm32f4xx_hal_can.c:402:3
	ldr	r1, [sp]
	.loc	6 402 15 is_stmt 0              @ ../ThirdParty/STM32F4xx_HAL_Driver/Src/stm32f4xx_hal_can.c:402:15
	strb.w	r0, [r1, #32]
	.loc	6 405 3 is_stmt 1               @ ../ThirdParty/STM32F4xx_HAL_Driver/Src/stm32f4xx_hal_can.c:405:3
	strb.w	r0, [sp, #7]
	b	.LBB2_3
.LBB2_3:
	.loc	6 406 1                         @ ../ThirdParty/STM32F4xx_HAL_Driver/Src/stm32f4xx_hal_can.c:406:1
	ldrb.w	r0, [sp, #7]
	.loc	6 406 1 epilogue_begin is_stmt 0 @ ../ThirdParty/STM32F4xx_HAL_Driver/Src/stm32f4xx_hal_can.c:406:1
	add	sp, #8
	pop	{r7, pc}
.Ltmp48:
.Lfunc_end2:
	.size	HAL_CAN_DeInit, .Lfunc_end2-HAL_CAN_DeInit
	.cfi_endproc
	.cantunwind
	.fnend
                                        @ -- End function
	.section	.text.HAL_CAN_Stop,"ax",%progbits
	.hidden	HAL_CAN_Stop                    @ -- Begin function HAL_CAN_Stop
	.globl	HAL_CAN_Stop
	.p2align	2
	.type	HAL_CAN_Stop,%function
	.code	16                              @ @HAL_CAN_Stop
	.thumb_func
HAL_CAN_Stop:
.Lfunc_begin3:
	.loc	6 714 0 is_stmt 1               @ ../ThirdParty/STM32F4xx_HAL_Driver/Src/stm32f4xx_hal_can.c:714:0
	.fnstart
	.cfi_startproc
@ %bb.0:
	.save	{r7, lr}
	push	{r7, lr}
	.cfi_def_cfa_offset 8
	.cfi_offset lr, -4
	.cfi_offset r7, -8
	.pad	#16
	sub	sp, #16
	.cfi_def_cfa_offset 24
	str	r0, [sp, #8]
	movs	r0, #0
.Ltmp49:
	.loc	6 715 12 prologue_end           @ ../ThirdParty/STM32F4xx_HAL_Driver/Src/stm32f4xx_hal_can.c:715:12
	str	r0, [sp, #4]
.Ltmp50:
	.loc	6 717 7                         @ ../ThirdParty/STM32F4xx_HAL_Driver/Src/stm32f4xx_hal_can.c:717:7
	ldr	r0, [sp, #8]
	.loc	6 717 13 is_stmt 0              @ ../ThirdParty/STM32F4xx_HAL_Driver/Src/stm32f4xx_hal_can.c:717:13
	ldrb.w	r0, [r0, #32]
.Ltmp51:
	.loc	6 717 7                         @ ../ThirdParty/STM32F4xx_HAL_Driver/Src/stm32f4xx_hal_can.c:717:7
	cmp	r0, #2
	bne	.LBB3_7
	b	.LBB3_1
.LBB3_1:
.Ltmp52:
	.loc	6 720 5 is_stmt 1               @ ../ThirdParty/STM32F4xx_HAL_Driver/Src/stm32f4xx_hal_can.c:720:5
	ldr	r0, [sp, #8]
	ldr	r1, [r0]
	ldr	r0, [r1]
	orr	r0, r0, #1
	str	r0, [r1]
	.loc	6 723 17                        @ ../ThirdParty/STM32F4xx_HAL_Driver/Src/stm32f4xx_hal_can.c:723:17
	bl	HAL_GetTick
	.loc	6 723 15 is_stmt 0              @ ../ThirdParty/STM32F4xx_HAL_Driver/Src/stm32f4xx_hal_can.c:723:15
	str	r0, [sp, #4]
	.loc	6 726 5 is_stmt 1               @ ../ThirdParty/STM32F4xx_HAL_Driver/Src/stm32f4xx_hal_can.c:726:5
	b	.LBB3_2
.LBB3_2:                                @ =>This Inner Loop Header: Depth=1
	.loc	6 726 13 is_stmt 0              @ ../ThirdParty/STM32F4xx_HAL_Driver/Src/stm32f4xx_hal_can.c:726:13
	ldr	r0, [sp, #8]
	.loc	6 726 19                        @ ../ThirdParty/STM32F4xx_HAL_Driver/Src/stm32f4xx_hal_can.c:726:19
	ldr	r0, [r0]
	.loc	6 726 29                        @ ../ThirdParty/STM32F4xx_HAL_Driver/Src/stm32f4xx_hal_can.c:726:29
	ldr	r0, [r0, #4]
	.loc	6 726 5                         @ ../ThirdParty/STM32F4xx_HAL_Driver/Src/stm32f4xx_hal_can.c:726:5
	lsls	r0, r0, #31
	cbnz	r0, .LBB3_6
	b	.LBB3_3
.LBB3_3:                                @   in Loop: Header=BB3_2 Depth=1
.Ltmp53:
	.loc	6 729 12 is_stmt 1              @ ../ThirdParty/STM32F4xx_HAL_Driver/Src/stm32f4xx_hal_can.c:729:12
	bl	HAL_GetTick
	.loc	6 729 28 is_stmt 0              @ ../ThirdParty/STM32F4xx_HAL_Driver/Src/stm32f4xx_hal_can.c:729:28
	ldr	r1, [sp, #4]
	.loc	6 729 26                        @ ../ThirdParty/STM32F4xx_HAL_Driver/Src/stm32f4xx_hal_can.c:729:26
	subs	r0, r0, r1
.Ltmp54:
	.loc	6 729 11                        @ ../ThirdParty/STM32F4xx_HAL_Driver/Src/stm32f4xx_hal_can.c:729:11
	cmp	r0, #11
	blo	.LBB3_5
	b	.LBB3_4
.LBB3_4:
.Ltmp55:
	.loc	6 732 9 is_stmt 1               @ ../ThirdParty/STM32F4xx_HAL_Driver/Src/stm32f4xx_hal_can.c:732:9
	ldr	r1, [sp, #8]
	.loc	6 732 25 is_stmt 0              @ ../ThirdParty/STM32F4xx_HAL_Driver/Src/stm32f4xx_hal_can.c:732:25
	ldr	r0, [r1, #36]
	orr	r0, r0, #131072
	str	r0, [r1, #36]
	.loc	6 735 9 is_stmt 1               @ ../ThirdParty/STM32F4xx_HAL_Driver/Src/stm32f4xx_hal_can.c:735:9
	ldr	r1, [sp, #8]
	movs	r0, #5
	.loc	6 735 21 is_stmt 0              @ ../ThirdParty/STM32F4xx_HAL_Driver/Src/stm32f4xx_hal_can.c:735:21
	strb.w	r0, [r1, #32]
	movs	r0, #1
	.loc	6 737 9 is_stmt 1               @ ../ThirdParty/STM32F4xx_HAL_Driver/Src/stm32f4xx_hal_can.c:737:9
	strb.w	r0, [sp, #15]
	b	.LBB3_8
.Ltmp56:
.LBB3_5:                                @   in Loop: Header=BB3_2 Depth=1
	.loc	6 726 5                         @ ../ThirdParty/STM32F4xx_HAL_Driver/Src/stm32f4xx_hal_can.c:726:5
	b	.LBB3_2
.LBB3_6:
	.loc	6 742 5                         @ ../ThirdParty/STM32F4xx_HAL_Driver/Src/stm32f4xx_hal_can.c:742:5
	ldr	r0, [sp, #8]
	ldr	r1, [r0]
	ldr	r0, [r1]
	bic	r0, r0, #2
	str	r0, [r1]
	.loc	6 745 5                         @ ../ThirdParty/STM32F4xx_HAL_Driver/Src/stm32f4xx_hal_can.c:745:5
	ldr	r1, [sp, #8]
	movs	r0, #1
	.loc	6 745 17 is_stmt 0              @ ../ThirdParty/STM32F4xx_HAL_Driver/Src/stm32f4xx_hal_can.c:745:17
	strb.w	r0, [r1, #32]
	movs	r0, #0
	.loc	6 748 5 is_stmt 1               @ ../ThirdParty/STM32F4xx_HAL_Driver/Src/stm32f4xx_hal_can.c:748:5
	strb.w	r0, [sp, #15]
	b	.LBB3_8
.Ltmp57:
.LBB3_7:
	.loc	6 753 5                         @ ../ThirdParty/STM32F4xx_HAL_Driver/Src/stm32f4xx_hal_can.c:753:5
	ldr	r1, [sp, #8]
	.loc	6 753 21 is_stmt 0              @ ../ThirdParty/STM32F4xx_HAL_Driver/Src/stm32f4xx_hal_can.c:753:21
	ldr	r0, [r1, #36]
	orr	r0, r0, #1048576
	str	r0, [r1, #36]
	movs	r0, #1
	.loc	6 755 5 is_stmt 1               @ ../ThirdParty/STM32F4xx_HAL_Driver/Src/stm32f4xx_hal_can.c:755:5
	strb.w	r0, [sp, #15]
	b	.LBB3_8
.Ltmp58:
.LBB3_8:
	.loc	6 757 1                         @ ../ThirdParty/STM32F4xx_HAL_Driver/Src/stm32f4xx_hal_can.c:757:1
	ldrb.w	r0, [sp, #15]
	.loc	6 757 1 epilogue_begin is_stmt 0 @ ../ThirdParty/STM32F4xx_HAL_Driver/Src/stm32f4xx_hal_can.c:757:1
	add	sp, #16
	pop	{r7, pc}
.Ltmp59:
.Lfunc_end3:
	.size	HAL_CAN_Stop, .Lfunc_end3-HAL_CAN_Stop
	.cfi_endproc
	.cantunwind
	.fnend
                                        @ -- End function
	.section	.text.HAL_CAN_MspDeInit,"ax",%progbits
	.hidden	HAL_CAN_MspDeInit               @ -- Begin function HAL_CAN_MspDeInit
	.weak	HAL_CAN_MspDeInit
	.p2align	2
	.type	HAL_CAN_MspDeInit,%function
	.code	16                              @ @HAL_CAN_MspDeInit
	.thumb_func
HAL_CAN_MspDeInit:
.Lfunc_begin4:
	.loc	6 431 0 is_stmt 1               @ ../ThirdParty/STM32F4xx_HAL_Driver/Src/stm32f4xx_hal_can.c:431:0
	.fnstart
	.cfi_startproc
@ %bb.0:
	.pad	#4
	sub	sp, #4
	.cfi_def_cfa_offset 4
	str	r0, [sp]
.Ltmp60:
	.loc	6 438 1 prologue_end epilogue_begin @ ../ThirdParty/STM32F4xx_HAL_Driver/Src/stm32f4xx_hal_can.c:438:1
	add	sp, #4
	bx	lr
.Ltmp61:
.Lfunc_end4:
	.size	HAL_CAN_MspDeInit, .Lfunc_end4-HAL_CAN_MspDeInit
	.cfi_endproc
	.cantunwind
	.fnend
                                        @ -- End function
	.section	.text.HAL_CAN_ConfigFilter,"ax",%progbits
	.hidden	HAL_CAN_ConfigFilter            @ -- Begin function HAL_CAN_ConfigFilter
	.globl	HAL_CAN_ConfigFilter
	.p2align	2
	.type	HAL_CAN_ConfigFilter,%function
	.code	16                              @ @HAL_CAN_ConfigFilter
	.thumb_func
HAL_CAN_ConfigFilter:
.Lfunc_begin5:
	.loc	6 469 0                         @ ../ThirdParty/STM32F4xx_HAL_Driver/Src/stm32f4xx_hal_can.c:469:0
	.fnstart
	.cfi_startproc
@ %bb.0:
	.pad	#20
	sub	sp, #20
	.cfi_def_cfa_offset 20
	str	r0, [sp, #12]
	str	r1, [sp, #8]
	movs	r0, #0
.Ltmp62:
	.loc	6 470 12 prologue_end           @ ../ThirdParty/STM32F4xx_HAL_Driver/Src/stm32f4xx_hal_can.c:470:12
	str	r0, [sp, #4]
	.loc	6 471 25                        @ ../ThirdParty/STM32F4xx_HAL_Driver/Src/stm32f4xx_hal_can.c:471:25
	ldr	r0, [sp, #12]
	.loc	6 471 31 is_stmt 0              @ ../ThirdParty/STM32F4xx_HAL_Driver/Src/stm32f4xx_hal_can.c:471:31
	ldr	r0, [r0]
	.loc	6 471 16                        @ ../ThirdParty/STM32F4xx_HAL_Driver/Src/stm32f4xx_hal_can.c:471:16
	str	r0, [sp]
.Ltmp63:
	.loc	6 473 8 is_stmt 1               @ ../ThirdParty/STM32F4xx_HAL_Driver/Src/stm32f4xx_hal_can.c:473:8
	ldr	r0, [sp, #12]
	.loc	6 473 14 is_stmt 0              @ ../ThirdParty/STM32F4xx_HAL_Driver/Src/stm32f4xx_hal_can.c:473:14
	ldrb.w	r0, [r0, #32]
	.loc	6 473 44                        @ ../ThirdParty/STM32F4xx_HAL_Driver/Src/stm32f4xx_hal_can.c:473:44
	cmp	r0, #1
	beq	.LBB5_2
	b	.LBB5_1
.LBB5_1:
	.loc	6 474 8 is_stmt 1               @ ../ThirdParty/STM32F4xx_HAL_Driver/Src/stm32f4xx_hal_can.c:474:8
	ldr	r0, [sp, #12]
	.loc	6 474 14 is_stmt 0              @ ../ThirdParty/STM32F4xx_HAL_Driver/Src/stm32f4xx_hal_can.c:474:14
	ldrb.w	r0, [r0, #32]
.Ltmp64:
	.loc	6 473 7 is_stmt 1               @ ../ThirdParty/STM32F4xx_HAL_Driver/Src/stm32f4xx_hal_can.c:473:7
	cmp	r0, #2
	bne.w	.LBB5_15
	b	.LBB5_2
.LBB5_2:
	.loc	6 0 7 is_stmt 0                 @ ../ThirdParty/STM32F4xx_HAL_Driver/Src/stm32f4xx_hal_can.c:0:7
	movw	r0, #25600
	movt	r0, #16384
.Ltmp65:
	.loc	6 508 12 is_stmt 1              @ ../ThirdParty/STM32F4xx_HAL_Driver/Src/stm32f4xx_hal_can.c:508:12
	str	r0, [sp]
	.loc	6 521 5                         @ ../ThirdParty/STM32F4xx_HAL_Driver/Src/stm32f4xx_hal_can.c:521:5
	ldr	r1, [sp]
	ldr.w	r0, [r1, #512]
	orr	r0, r0, #1
	str.w	r0, [r1, #512]
	.loc	6 534 5                         @ ../ThirdParty/STM32F4xx_HAL_Driver/Src/stm32f4xx_hal_can.c:534:5
	ldr	r1, [sp]
	ldr.w	r0, [r1, #512]
	bic	r0, r0, #16128
	str.w	r0, [r1, #512]
	.loc	6 535 5                         @ ../ThirdParty/STM32F4xx_HAL_Driver/Src/stm32f4xx_hal_can.c:535:5
	ldr	r0, [sp, #8]
	ldr	r2, [r0, #36]
	ldr	r1, [sp]
	ldr.w	r0, [r1, #512]
	orr.w	r0, r0, r2, lsl #8
	str.w	r0, [r1, #512]
	.loc	6 539 31                        @ ../ThirdParty/STM32F4xx_HAL_Driver/Src/stm32f4xx_hal_can.c:539:31
	ldr	r0, [sp, #8]
	.loc	6 539 46 is_stmt 0              @ ../ThirdParty/STM32F4xx_HAL_Driver/Src/stm32f4xx_hal_can.c:539:46
	ldr	r1, [r0, #20]
	movs	r0, #1
	.loc	6 539 28                        @ ../ThirdParty/STM32F4xx_HAL_Driver/Src/stm32f4xx_hal_can.c:539:28
	lsls	r0, r1
	.loc	6 539 21                        @ ../ThirdParty/STM32F4xx_HAL_Driver/Src/stm32f4xx_hal_can.c:539:21
	str	r0, [sp, #4]
	.loc	6 542 5 is_stmt 1               @ ../ThirdParty/STM32F4xx_HAL_Driver/Src/stm32f4xx_hal_can.c:542:5
	ldr	r2, [sp, #4]
	ldr	r1, [sp]
	ldr.w	r0, [r1, #540]
	bics	r0, r2
	str.w	r0, [r1, #540]
.Ltmp66:
	.loc	6 545 9                         @ ../ThirdParty/STM32F4xx_HAL_Driver/Src/stm32f4xx_hal_can.c:545:9
	ldr	r0, [sp, #8]
	.loc	6 545 24 is_stmt 0              @ ../ThirdParty/STM32F4xx_HAL_Driver/Src/stm32f4xx_hal_can.c:545:24
	ldr	r0, [r0, #28]
.Ltmp67:
	.loc	6 545 9                         @ ../ThirdParty/STM32F4xx_HAL_Driver/Src/stm32f4xx_hal_can.c:545:9
	cbnz	r0, .LBB5_4
	b	.LBB5_3
.LBB5_3:
.Ltmp68:
	.loc	6 548 7 is_stmt 1               @ ../ThirdParty/STM32F4xx_HAL_Driver/Src/stm32f4xx_hal_can.c:548:7
	ldr	r2, [sp, #4]
	ldr	r1, [sp]
	ldr.w	r0, [r1, #524]
	bics	r0, r2
	str.w	r0, [r1, #524]
	.loc	6 553 35                        @ ../ThirdParty/STM32F4xx_HAL_Driver/Src/stm32f4xx_hal_can.c:553:35
	ldr	r2, [sp, #8]
	.loc	6 554 49                        @ ../ThirdParty/STM32F4xx_HAL_Driver/Src/stm32f4xx_hal_can.c:554:49
	ldrh	r0, [r2, #4]
	.loc	6 553 50                        @ ../ThirdParty/STM32F4xx_HAL_Driver/Src/stm32f4xx_hal_can.c:553:50
	ldr	r1, [r2, #12]
	.loc	6 552 46                        @ ../ThirdParty/STM32F4xx_HAL_Driver/Src/stm32f4xx_hal_can.c:552:46
	ldr	r2, [r2, #20]
	.loc	6 553 75                        @ ../ThirdParty/STM32F4xx_HAL_Driver/Src/stm32f4xx_hal_can.c:553:75
	orr.w	r0, r0, r1, lsl #16
	.loc	6 552 7                         @ ../ThirdParty/STM32F4xx_HAL_Driver/Src/stm32f4xx_hal_can.c:552:7
	ldr	r1, [sp]
	.loc	6 552 15 is_stmt 0              @ ../ThirdParty/STM32F4xx_HAL_Driver/Src/stm32f4xx_hal_can.c:552:15
	add.w	r1, r1, r2, lsl #3
	.loc	6 552 62                        @ ../ThirdParty/STM32F4xx_HAL_Driver/Src/stm32f4xx_hal_can.c:552:62
	str.w	r0, [r1, #576]
	.loc	6 559 35 is_stmt 1              @ ../ThirdParty/STM32F4xx_HAL_Driver/Src/stm32f4xx_hal_can.c:559:35
	ldr	r2, [sp, #8]
	.loc	6 560 49                        @ ../ThirdParty/STM32F4xx_HAL_Driver/Src/stm32f4xx_hal_can.c:560:49
	ldrh	r0, [r2]
	.loc	6 559 50                        @ ../ThirdParty/STM32F4xx_HAL_Driver/Src/stm32f4xx_hal_can.c:559:50
	ldr	r1, [r2, #8]
	.loc	6 558 46                        @ ../ThirdParty/STM32F4xx_HAL_Driver/Src/stm32f4xx_hal_can.c:558:46
	ldr	r2, [r2, #20]
	.loc	6 559 76                        @ ../ThirdParty/STM32F4xx_HAL_Driver/Src/stm32f4xx_hal_can.c:559:76
	orr.w	r0, r0, r1, lsl #16
	.loc	6 558 7                         @ ../ThirdParty/STM32F4xx_HAL_Driver/Src/stm32f4xx_hal_can.c:558:7
	ldr	r1, [sp]
	.loc	6 558 15 is_stmt 0              @ ../ThirdParty/STM32F4xx_HAL_Driver/Src/stm32f4xx_hal_can.c:558:15
	add.w	r1, r1, r2, lsl #3
	.loc	6 558 62                        @ ../ThirdParty/STM32F4xx_HAL_Driver/Src/stm32f4xx_hal_can.c:558:62
	str.w	r0, [r1, #580]
	.loc	6 561 5 is_stmt 1               @ ../ThirdParty/STM32F4xx_HAL_Driver/Src/stm32f4xx_hal_can.c:561:5
	b	.LBB5_4
.Ltmp69:
.LBB5_4:
	.loc	6 563 9                         @ ../ThirdParty/STM32F4xx_HAL_Driver/Src/stm32f4xx_hal_can.c:563:9
	ldr	r0, [sp, #8]
	.loc	6 563 24 is_stmt 0              @ ../ThirdParty/STM32F4xx_HAL_Driver/Src/stm32f4xx_hal_can.c:563:24
	ldr	r0, [r0, #28]
.Ltmp70:
	.loc	6 563 9                         @ ../ThirdParty/STM32F4xx_HAL_Driver/Src/stm32f4xx_hal_can.c:563:9
	cmp	r0, #1
	bne	.LBB5_6
	b	.LBB5_5
.LBB5_5:
.Ltmp71:
	.loc	6 566 7 is_stmt 1               @ ../ThirdParty/STM32F4xx_HAL_Driver/Src/stm32f4xx_hal_can.c:566:7
	ldr	r2, [sp, #4]
	ldr	r1, [sp]
	ldr.w	r0, [r1, #524]
	orrs	r0, r2
	str.w	r0, [r1, #524]
	.loc	6 570 35                        @ ../ThirdParty/STM32F4xx_HAL_Driver/Src/stm32f4xx_hal_can.c:570:35
	ldr	r2, [sp, #8]
	.loc	6 571 49                        @ ../ThirdParty/STM32F4xx_HAL_Driver/Src/stm32f4xx_hal_can.c:571:49
	ldrh	r0, [r2, #4]
	.loc	6 570 50                        @ ../ThirdParty/STM32F4xx_HAL_Driver/Src/stm32f4xx_hal_can.c:570:50
	ldr	r1, [r2]
	.loc	6 569 46                        @ ../ThirdParty/STM32F4xx_HAL_Driver/Src/stm32f4xx_hal_can.c:569:46
	ldr	r2, [r2, #20]
	.loc	6 570 72                        @ ../ThirdParty/STM32F4xx_HAL_Driver/Src/stm32f4xx_hal_can.c:570:72
	orr.w	r0, r0, r1, lsl #16
	.loc	6 569 7                         @ ../ThirdParty/STM32F4xx_HAL_Driver/Src/stm32f4xx_hal_can.c:569:7
	ldr	r1, [sp]
	.loc	6 569 15 is_stmt 0              @ ../ThirdParty/STM32F4xx_HAL_Driver/Src/stm32f4xx_hal_can.c:569:15
	add.w	r1, r1, r2, lsl #3
	.loc	6 569 62                        @ ../ThirdParty/STM32F4xx_HAL_Driver/Src/stm32f4xx_hal_can.c:569:62
	str.w	r0, [r1, #576]
	.loc	6 575 35 is_stmt 1              @ ../ThirdParty/STM32F4xx_HAL_Driver/Src/stm32f4xx_hal_can.c:575:35
	ldr	r2, [sp, #8]
	.loc	6 576 49                        @ ../ThirdParty/STM32F4xx_HAL_Driver/Src/stm32f4xx_hal_can.c:576:49
	ldrh	r0, [r2, #12]
	.loc	6 575 50                        @ ../ThirdParty/STM32F4xx_HAL_Driver/Src/stm32f4xx_hal_can.c:575:50
	ldr	r1, [r2, #8]
	.loc	6 574 46                        @ ../ThirdParty/STM32F4xx_HAL_Driver/Src/stm32f4xx_hal_can.c:574:46
	ldr	r2, [r2, #20]
	.loc	6 575 76                        @ ../ThirdParty/STM32F4xx_HAL_Driver/Src/stm32f4xx_hal_can.c:575:76
	orr.w	r0, r0, r1, lsl #16
	.loc	6 574 7                         @ ../ThirdParty/STM32F4xx_HAL_Driver/Src/stm32f4xx_hal_can.c:574:7
	ldr	r1, [sp]
	.loc	6 574 15 is_stmt 0              @ ../ThirdParty/STM32F4xx_HAL_Driver/Src/stm32f4xx_hal_can.c:574:15
	add.w	r1, r1, r2, lsl #3
	.loc	6 574 62                        @ ../ThirdParty/STM32F4xx_HAL_Driver/Src/stm32f4xx_hal_can.c:574:62
	str.w	r0, [r1, #580]
	.loc	6 577 5 is_stmt 1               @ ../ThirdParty/STM32F4xx_HAL_Driver/Src/stm32f4xx_hal_can.c:577:5
	b	.LBB5_6
.Ltmp72:
.LBB5_6:
	.loc	6 580 9                         @ ../ThirdParty/STM32F4xx_HAL_Driver/Src/stm32f4xx_hal_can.c:580:9
	ldr	r0, [sp, #8]
	.loc	6 580 24 is_stmt 0              @ ../ThirdParty/STM32F4xx_HAL_Driver/Src/stm32f4xx_hal_can.c:580:24
	ldr	r0, [r0, #24]
.Ltmp73:
	.loc	6 580 9                         @ ../ThirdParty/STM32F4xx_HAL_Driver/Src/stm32f4xx_hal_can.c:580:9
	cbnz	r0, .LBB5_8
	b	.LBB5_7
.LBB5_7:
.Ltmp74:
	.loc	6 583 7 is_stmt 1               @ ../ThirdParty/STM32F4xx_HAL_Driver/Src/stm32f4xx_hal_can.c:583:7
	ldr	r2, [sp, #4]
	ldr	r1, [sp]
	ldr.w	r0, [r1, #516]
	bics	r0, r2
	str.w	r0, [r1, #516]
	.loc	6 584 5                         @ ../ThirdParty/STM32F4xx_HAL_Driver/Src/stm32f4xx_hal_can.c:584:5
	b	.LBB5_9
.Ltmp75:
.LBB5_8:
	.loc	6 588 7                         @ ../ThirdParty/STM32F4xx_HAL_Driver/Src/stm32f4xx_hal_can.c:588:7
	ldr	r2, [sp, #4]
	ldr	r1, [sp]
	ldr.w	r0, [r1, #516]
	orrs	r0, r2
	str.w	r0, [r1, #516]
	b	.LBB5_9
.Ltmp76:
.LBB5_9:
	.loc	6 592 9                         @ ../ThirdParty/STM32F4xx_HAL_Driver/Src/stm32f4xx_hal_can.c:592:9
	ldr	r0, [sp, #8]
	.loc	6 592 24 is_stmt 0              @ ../ThirdParty/STM32F4xx_HAL_Driver/Src/stm32f4xx_hal_can.c:592:24
	ldr	r0, [r0, #16]
.Ltmp77:
	.loc	6 592 9                         @ ../ThirdParty/STM32F4xx_HAL_Driver/Src/stm32f4xx_hal_can.c:592:9
	cbnz	r0, .LBB5_11
	b	.LBB5_10
.LBB5_10:
.Ltmp78:
	.loc	6 595 7 is_stmt 1               @ ../ThirdParty/STM32F4xx_HAL_Driver/Src/stm32f4xx_hal_can.c:595:7
	ldr	r2, [sp, #4]
	ldr	r1, [sp]
	ldr.w	r0, [r1, #532]
	bics	r0, r2
	str.w	r0, [r1, #532]
	.loc	6 596 5                         @ ../ThirdParty/STM32F4xx_HAL_Driver/Src/stm32f4xx_hal_can.c:596:5
	b	.LBB5_12
.Ltmp79:
.LBB5_11:
	.loc	6 600 7                         @ ../ThirdParty/STM32F4xx_HAL_Driver/Src/stm32f4xx_hal_can.c:600:7
	ldr	r2, [sp, #4]
	ldr	r1, [sp]
	ldr.w	r0, [r1, #532]
	orrs	r0, r2
	str.w	r0, [r1, #532]
	b	.LBB5_12
.Ltmp80:
.LBB5_12:
	.loc	6 604 9                         @ ../ThirdParty/STM32F4xx_HAL_Driver/Src/stm32f4xx_hal_can.c:604:9
	ldr	r0, [sp, #8]
	.loc	6 604 24 is_stmt 0              @ ../ThirdParty/STM32F4xx_HAL_Driver/Src/stm32f4xx_hal_can.c:604:24
	ldr	r0, [r0, #32]
.Ltmp81:
	.loc	6 604 9                         @ ../ThirdParty/STM32F4xx_HAL_Driver/Src/stm32f4xx_hal_can.c:604:9
	cmp	r0, #1
	bne	.LBB5_14
	b	.LBB5_13
.LBB5_13:
.Ltmp82:
	.loc	6 606 7 is_stmt 1               @ ../ThirdParty/STM32F4xx_HAL_Driver/Src/stm32f4xx_hal_can.c:606:7
	ldr	r2, [sp, #4]
	ldr	r1, [sp]
	ldr.w	r0, [r1, #540]
	orrs	r0, r2
	str.w	r0, [r1, #540]
	.loc	6 607 5                         @ ../ThirdParty/STM32F4xx_HAL_Driver/Src/stm32f4xx_hal_can.c:607:5
	b	.LBB5_14
.Ltmp83:
.LBB5_14:
	.loc	6 610 5                         @ ../ThirdParty/STM32F4xx_HAL_Driver/Src/stm32f4xx_hal_can.c:610:5
	ldr	r1, [sp]
	ldr.w	r0, [r1, #512]
	bic	r0, r0, #1
	str.w	r0, [r1, #512]
	movs	r0, #0
	.loc	6 613 5                         @ ../ThirdParty/STM32F4xx_HAL_Driver/Src/stm32f4xx_hal_can.c:613:5
	strb.w	r0, [sp, #19]
	b	.LBB5_16
.Ltmp84:
.LBB5_15:
	.loc	6 618 5                         @ ../ThirdParty/STM32F4xx_HAL_Driver/Src/stm32f4xx_hal_can.c:618:5
	ldr	r1, [sp, #12]
	.loc	6 618 21 is_stmt 0              @ ../ThirdParty/STM32F4xx_HAL_Driver/Src/stm32f4xx_hal_can.c:618:21
	ldr	r0, [r1, #36]
	orr	r0, r0, #262144
	str	r0, [r1, #36]
	movs	r0, #1
	.loc	6 620 5 is_stmt 1               @ ../ThirdParty/STM32F4xx_HAL_Driver/Src/stm32f4xx_hal_can.c:620:5
	strb.w	r0, [sp, #19]
	b	.LBB5_16
.Ltmp85:
.LBB5_16:
	.loc	6 622 1                         @ ../ThirdParty/STM32F4xx_HAL_Driver/Src/stm32f4xx_hal_can.c:622:1
	ldrb.w	r0, [sp, #19]
	.loc	6 622 1 epilogue_begin is_stmt 0 @ ../ThirdParty/STM32F4xx_HAL_Driver/Src/stm32f4xx_hal_can.c:622:1
	add	sp, #20
	bx	lr
.Ltmp86:
.Lfunc_end5:
	.size	HAL_CAN_ConfigFilter, .Lfunc_end5-HAL_CAN_ConfigFilter
	.cfi_endproc
	.cantunwind
	.fnend
                                        @ -- End function
	.section	.text.HAL_CAN_Start,"ax",%progbits
	.hidden	HAL_CAN_Start                   @ -- Begin function HAL_CAN_Start
	.globl	HAL_CAN_Start
	.p2align	2
	.type	HAL_CAN_Start,%function
	.code	16                              @ @HAL_CAN_Start
	.thumb_func
HAL_CAN_Start:
.Lfunc_begin6:
	.loc	6 662 0 is_stmt 1               @ ../ThirdParty/STM32F4xx_HAL_Driver/Src/stm32f4xx_hal_can.c:662:0
	.fnstart
	.cfi_startproc
@ %bb.0:
	.save	{r7, lr}
	push	{r7, lr}
	.cfi_def_cfa_offset 8
	.cfi_offset lr, -4
	.cfi_offset r7, -8
	.pad	#16
	sub	sp, #16
	.cfi_def_cfa_offset 24
	str	r0, [sp, #8]
	movs	r0, #0
.Ltmp87:
	.loc	6 663 12 prologue_end           @ ../ThirdParty/STM32F4xx_HAL_Driver/Src/stm32f4xx_hal_can.c:663:12
	str	r0, [sp, #4]
.Ltmp88:
	.loc	6 665 7                         @ ../ThirdParty/STM32F4xx_HAL_Driver/Src/stm32f4xx_hal_can.c:665:7
	ldr	r0, [sp, #8]
	.loc	6 665 13 is_stmt 0              @ ../ThirdParty/STM32F4xx_HAL_Driver/Src/stm32f4xx_hal_can.c:665:13
	ldrb.w	r0, [r0, #32]
.Ltmp89:
	.loc	6 665 7                         @ ../ThirdParty/STM32F4xx_HAL_Driver/Src/stm32f4xx_hal_can.c:665:7
	cmp	r0, #1
	bne	.LBB6_7
	b	.LBB6_1
.LBB6_1:
.Ltmp90:
	.loc	6 668 5 is_stmt 1               @ ../ThirdParty/STM32F4xx_HAL_Driver/Src/stm32f4xx_hal_can.c:668:5
	ldr	r1, [sp, #8]
	movs	r0, #2
	.loc	6 668 17 is_stmt 0              @ ../ThirdParty/STM32F4xx_HAL_Driver/Src/stm32f4xx_hal_can.c:668:17
	strb.w	r0, [r1, #32]
	.loc	6 671 5 is_stmt 1               @ ../ThirdParty/STM32F4xx_HAL_Driver/Src/stm32f4xx_hal_can.c:671:5
	ldr	r0, [sp, #8]
	ldr	r1, [r0]
	ldr	r0, [r1]
	bic	r0, r0, #1
	str	r0, [r1]
	.loc	6 674 17                        @ ../ThirdParty/STM32F4xx_HAL_Driver/Src/stm32f4xx_hal_can.c:674:17
	bl	HAL_GetTick
	.loc	6 674 15 is_stmt 0              @ ../ThirdParty/STM32F4xx_HAL_Driver/Src/stm32f4xx_hal_can.c:674:15
	str	r0, [sp, #4]
	.loc	6 677 5 is_stmt 1               @ ../ThirdParty/STM32F4xx_HAL_Driver/Src/stm32f4xx_hal_can.c:677:5
	b	.LBB6_2
.LBB6_2:                                @ =>This Inner Loop Header: Depth=1
	.loc	6 677 13 is_stmt 0              @ ../ThirdParty/STM32F4xx_HAL_Driver/Src/stm32f4xx_hal_can.c:677:13
	ldr	r0, [sp, #8]
	.loc	6 677 19                        @ ../ThirdParty/STM32F4xx_HAL_Driver/Src/stm32f4xx_hal_can.c:677:19
	ldr	r0, [r0]
	.loc	6 677 29                        @ ../ThirdParty/STM32F4xx_HAL_Driver/Src/stm32f4xx_hal_can.c:677:29
	ldr	r0, [r0, #4]
	.loc	6 677 5                         @ ../ThirdParty/STM32F4xx_HAL_Driver/Src/stm32f4xx_hal_can.c:677:5
	lsls	r0, r0, #31
	cbz	r0, .LBB6_6
	b	.LBB6_3
.LBB6_3:                                @   in Loop: Header=BB6_2 Depth=1
.Ltmp91:
	.loc	6 680 12 is_stmt 1              @ ../ThirdParty/STM32F4xx_HAL_Driver/Src/stm32f4xx_hal_can.c:680:12
	bl	HAL_GetTick
	.loc	6 680 28 is_stmt 0              @ ../ThirdParty/STM32F4xx_HAL_Driver/Src/stm32f4xx_hal_can.c:680:28
	ldr	r1, [sp, #4]
	.loc	6 680 26                        @ ../ThirdParty/STM32F4xx_HAL_Driver/Src/stm32f4xx_hal_can.c:680:26
	subs	r0, r0, r1
.Ltmp92:
	.loc	6 680 11                        @ ../ThirdParty/STM32F4xx_HAL_Driver/Src/stm32f4xx_hal_can.c:680:11
	cmp	r0, #11
	blo	.LBB6_5
	b	.LBB6_4
.LBB6_4:
.Ltmp93:
	.loc	6 683 9 is_stmt 1               @ ../ThirdParty/STM32F4xx_HAL_Driver/Src/stm32f4xx_hal_can.c:683:9
	ldr	r1, [sp, #8]
	.loc	6 683 25 is_stmt 0              @ ../ThirdParty/STM32F4xx_HAL_Driver/Src/stm32f4xx_hal_can.c:683:25
	ldr	r0, [r1, #36]
	orr	r0, r0, #131072
	str	r0, [r1, #36]
	.loc	6 686 9 is_stmt 1               @ ../ThirdParty/STM32F4xx_HAL_Driver/Src/stm32f4xx_hal_can.c:686:9
	ldr	r1, [sp, #8]
	movs	r0, #5
	.loc	6 686 21 is_stmt 0              @ ../ThirdParty/STM32F4xx_HAL_Driver/Src/stm32f4xx_hal_can.c:686:21
	strb.w	r0, [r1, #32]
	movs	r0, #1
	.loc	6 688 9 is_stmt 1               @ ../ThirdParty/STM32F4xx_HAL_Driver/Src/stm32f4xx_hal_can.c:688:9
	strb.w	r0, [sp, #15]
	b	.LBB6_8
.Ltmp94:
.LBB6_5:                                @   in Loop: Header=BB6_2 Depth=1
	.loc	6 677 5                         @ ../ThirdParty/STM32F4xx_HAL_Driver/Src/stm32f4xx_hal_can.c:677:5
	b	.LBB6_2
.LBB6_6:
	.loc	6 693 5                         @ ../ThirdParty/STM32F4xx_HAL_Driver/Src/stm32f4xx_hal_can.c:693:5
	ldr	r1, [sp, #8]
	movs	r0, #0
	.loc	6 693 21 is_stmt 0              @ ../ThirdParty/STM32F4xx_HAL_Driver/Src/stm32f4xx_hal_can.c:693:21
	str	r0, [r1, #36]
	.loc	6 696 5 is_stmt 1               @ ../ThirdParty/STM32F4xx_HAL_Driver/Src/stm32f4xx_hal_can.c:696:5
	strb.w	r0, [sp, #15]
	b	.LBB6_8
.Ltmp95:
.LBB6_7:
	.loc	6 701 5                         @ ../ThirdParty/STM32F4xx_HAL_Driver/Src/stm32f4xx_hal_can.c:701:5
	ldr	r1, [sp, #8]
	.loc	6 701 21 is_stmt 0              @ ../ThirdParty/STM32F4xx_HAL_Driver/Src/stm32f4xx_hal_can.c:701:21
	ldr	r0, [r1, #36]
	orr	r0, r0, #524288
	str	r0, [r1, #36]
	movs	r0, #1
	.loc	6 703 5 is_stmt 1               @ ../ThirdParty/STM32F4xx_HAL_Driver/Src/stm32f4xx_hal_can.c:703:5
	strb.w	r0, [sp, #15]
	b	.LBB6_8
.Ltmp96:
.LBB6_8:
	.loc	6 705 1                         @ ../ThirdParty/STM32F4xx_HAL_Driver/Src/stm32f4xx_hal_can.c:705:1
	ldrb.w	r0, [sp, #15]
	.loc	6 705 1 epilogue_begin is_stmt 0 @ ../ThirdParty/STM32F4xx_HAL_Driver/Src/stm32f4xx_hal_can.c:705:1
	add	sp, #16
	pop	{r7, pc}
.Ltmp97:
.Lfunc_end6:
	.size	HAL_CAN_Start, .Lfunc_end6-HAL_CAN_Start
	.cfi_endproc
	.cantunwind
	.fnend
                                        @ -- End function
	.section	.text.HAL_CAN_RequestSleep,"ax",%progbits
	.hidden	HAL_CAN_RequestSleep            @ -- Begin function HAL_CAN_RequestSleep
	.globl	HAL_CAN_RequestSleep
	.p2align	2
	.type	HAL_CAN_RequestSleep,%function
	.code	16                              @ @HAL_CAN_RequestSleep
	.thumb_func
HAL_CAN_RequestSleep:
.Lfunc_begin7:
	.loc	6 769 0 is_stmt 1               @ ../ThirdParty/STM32F4xx_HAL_Driver/Src/stm32f4xx_hal_can.c:769:0
	.fnstart
	.cfi_startproc
@ %bb.0:
	.pad	#8
	sub	sp, #8
	.cfi_def_cfa_offset 8
	str	r0, [sp]
.Ltmp98:
	.loc	6 770 8 prologue_end            @ ../ThirdParty/STM32F4xx_HAL_Driver/Src/stm32f4xx_hal_can.c:770:8
	ldr	r0, [sp]
	.loc	6 770 14 is_stmt 0              @ ../ThirdParty/STM32F4xx_HAL_Driver/Src/stm32f4xx_hal_can.c:770:14
	ldrb.w	r0, [r0, #32]
	.loc	6 770 44                        @ ../ThirdParty/STM32F4xx_HAL_Driver/Src/stm32f4xx_hal_can.c:770:44
	cmp	r0, #1
	beq	.LBB7_2
	b	.LBB7_1
.LBB7_1:
	.loc	6 771 8 is_stmt 1               @ ../ThirdParty/STM32F4xx_HAL_Driver/Src/stm32f4xx_hal_can.c:771:8
	ldr	r0, [sp]
	.loc	6 771 14 is_stmt 0              @ ../ThirdParty/STM32F4xx_HAL_Driver/Src/stm32f4xx_hal_can.c:771:14
	ldrb.w	r0, [r0, #32]
.Ltmp99:
	.loc	6 770 7 is_stmt 1               @ ../ThirdParty/STM32F4xx_HAL_Driver/Src/stm32f4xx_hal_can.c:770:7
	cmp	r0, #2
	bne	.LBB7_3
	b	.LBB7_2
.LBB7_2:
.Ltmp100:
	.loc	6 774 5                         @ ../ThirdParty/STM32F4xx_HAL_Driver/Src/stm32f4xx_hal_can.c:774:5
	ldr	r0, [sp]
	ldr	r1, [r0]
	ldr	r0, [r1]
	orr	r0, r0, #2
	str	r0, [r1]
	movs	r0, #0
	.loc	6 777 5                         @ ../ThirdParty/STM32F4xx_HAL_Driver/Src/stm32f4xx_hal_can.c:777:5
	strb.w	r0, [sp, #7]
	b	.LBB7_4
.Ltmp101:
.LBB7_3:
	.loc	6 782 5                         @ ../ThirdParty/STM32F4xx_HAL_Driver/Src/stm32f4xx_hal_can.c:782:5
	ldr	r1, [sp]
	.loc	6 782 21 is_stmt 0              @ ../ThirdParty/STM32F4xx_HAL_Driver/Src/stm32f4xx_hal_can.c:782:21
	ldr	r0, [r1, #36]
	orr	r0, r0, #262144
	str	r0, [r1, #36]
	movs	r0, #1
	.loc	6 785 5 is_stmt 1               @ ../ThirdParty/STM32F4xx_HAL_Driver/Src/stm32f4xx_hal_can.c:785:5
	strb.w	r0, [sp, #7]
	b	.LBB7_4
.Ltmp102:
.LBB7_4:
	.loc	6 787 1                         @ ../ThirdParty/STM32F4xx_HAL_Driver/Src/stm32f4xx_hal_can.c:787:1
	ldrb.w	r0, [sp, #7]
	.loc	6 787 1 epilogue_begin is_stmt 0 @ ../ThirdParty/STM32F4xx_HAL_Driver/Src/stm32f4xx_hal_can.c:787:1
	add	sp, #8
	bx	lr
.Ltmp103:
.Lfunc_end7:
	.size	HAL_CAN_RequestSleep, .Lfunc_end7-HAL_CAN_RequestSleep
	.cfi_endproc
	.cantunwind
	.fnend
                                        @ -- End function
	.section	.text.HAL_CAN_WakeUp,"ax",%progbits
	.hidden	HAL_CAN_WakeUp                  @ -- Begin function HAL_CAN_WakeUp
	.globl	HAL_CAN_WakeUp
	.p2align	2
	.type	HAL_CAN_WakeUp,%function
	.code	16                              @ @HAL_CAN_WakeUp
	.thumb_func
HAL_CAN_WakeUp:
.Lfunc_begin8:
	.loc	6 798 0 is_stmt 1               @ ../ThirdParty/STM32F4xx_HAL_Driver/Src/stm32f4xx_hal_can.c:798:0
	.fnstart
	.cfi_startproc
@ %bb.0:
	.pad	#16
	sub	sp, #16
	.cfi_def_cfa_offset 16
	str	r0, [sp, #8]
	movs	r0, #0
.Ltmp104:
	.loc	6 799 17 prologue_end           @ ../ThirdParty/STM32F4xx_HAL_Driver/Src/stm32f4xx_hal_can.c:799:17
	str	r0, [sp, #4]
	movw	r0, #16960
	movt	r0, #15
	.loc	6 800 12                        @ ../ThirdParty/STM32F4xx_HAL_Driver/Src/stm32f4xx_hal_can.c:800:12
	str	r0, [sp]
.Ltmp105:
	.loc	6 802 8                         @ ../ThirdParty/STM32F4xx_HAL_Driver/Src/stm32f4xx_hal_can.c:802:8
	ldr	r0, [sp, #8]
	.loc	6 802 14 is_stmt 0              @ ../ThirdParty/STM32F4xx_HAL_Driver/Src/stm32f4xx_hal_can.c:802:14
	ldrb.w	r0, [r0, #32]
	.loc	6 802 44                        @ ../ThirdParty/STM32F4xx_HAL_Driver/Src/stm32f4xx_hal_can.c:802:44
	cmp	r0, #1
	beq	.LBB8_2
	b	.LBB8_1
.LBB8_1:
	.loc	6 803 8 is_stmt 1               @ ../ThirdParty/STM32F4xx_HAL_Driver/Src/stm32f4xx_hal_can.c:803:8
	ldr	r0, [sp, #8]
	.loc	6 803 14 is_stmt 0              @ ../ThirdParty/STM32F4xx_HAL_Driver/Src/stm32f4xx_hal_can.c:803:14
	ldrb.w	r0, [r0, #32]
.Ltmp106:
	.loc	6 802 7 is_stmt 1               @ ../ThirdParty/STM32F4xx_HAL_Driver/Src/stm32f4xx_hal_can.c:802:7
	cmp	r0, #2
	bne	.LBB8_8
	b	.LBB8_2
.LBB8_2:
.Ltmp107:
	.loc	6 806 5                         @ ../ThirdParty/STM32F4xx_HAL_Driver/Src/stm32f4xx_hal_can.c:806:5
	ldr	r0, [sp, #8]
	ldr	r1, [r0]
	ldr	r0, [r1]
	bic	r0, r0, #2
	str	r0, [r1]
	.loc	6 809 5                         @ ../ThirdParty/STM32F4xx_HAL_Driver/Src/stm32f4xx_hal_can.c:809:5
	b	.LBB8_3
.LBB8_3:                                @ =>This Inner Loop Header: Depth=1
.Ltmp108:
	.loc	6 812 11                        @ ../ThirdParty/STM32F4xx_HAL_Driver/Src/stm32f4xx_hal_can.c:812:11
	ldr	r0, [sp, #4]
	adds	r0, #1
	str	r0, [sp, #4]
	.loc	6 812 21 is_stmt 0              @ ../ThirdParty/STM32F4xx_HAL_Driver/Src/stm32f4xx_hal_can.c:812:21
	ldr	r1, [sp]
.Ltmp109:
	.loc	6 812 11                        @ ../ThirdParty/STM32F4xx_HAL_Driver/Src/stm32f4xx_hal_can.c:812:11
	cmp	r0, r1
	bls	.LBB8_5
	b	.LBB8_4
.LBB8_4:
.Ltmp110:
	.loc	6 815 9 is_stmt 1               @ ../ThirdParty/STM32F4xx_HAL_Driver/Src/stm32f4xx_hal_can.c:815:9
	ldr	r1, [sp, #8]
	.loc	6 815 25 is_stmt 0              @ ../ThirdParty/STM32F4xx_HAL_Driver/Src/stm32f4xx_hal_can.c:815:25
	ldr	r0, [r1, #36]
	orr	r0, r0, #131072
	str	r0, [r1, #36]
	movs	r0, #1
	.loc	6 817 9 is_stmt 1               @ ../ThirdParty/STM32F4xx_HAL_Driver/Src/stm32f4xx_hal_can.c:817:9
	strb.w	r0, [sp, #15]
	b	.LBB8_9
.Ltmp111:
.LBB8_5:                                @   in Loop: Header=BB8_3 Depth=1
	.loc	6 819 5                         @ ../ThirdParty/STM32F4xx_HAL_Driver/Src/stm32f4xx_hal_can.c:819:5
	b	.LBB8_6
.Ltmp112:
.LBB8_6:                                @   in Loop: Header=BB8_3 Depth=1
	.loc	6 820 13                        @ ../ThirdParty/STM32F4xx_HAL_Driver/Src/stm32f4xx_hal_can.c:820:13
	ldr	r0, [sp, #8]
	.loc	6 820 19 is_stmt 0              @ ../ThirdParty/STM32F4xx_HAL_Driver/Src/stm32f4xx_hal_can.c:820:19
	ldr	r0, [r0]
	.loc	6 820 29                        @ ../ThirdParty/STM32F4xx_HAL_Driver/Src/stm32f4xx_hal_can.c:820:29
	ldr	r0, [r0, #4]
.Ltmp113:
	.loc	6 819 5 is_stmt 1               @ ../ThirdParty/STM32F4xx_HAL_Driver/Src/stm32f4xx_hal_can.c:819:5
	lsls	r0, r0, #30
	cmp	r0, #0
	bmi	.LBB8_3
	b	.LBB8_7
.Ltmp114:
.LBB8_7:
	.loc	6 0 5 is_stmt 0                 @ ../ThirdParty/STM32F4xx_HAL_Driver/Src/stm32f4xx_hal_can.c:0:5
	movs	r0, #0
	.loc	6 823 5 is_stmt 1               @ ../ThirdParty/STM32F4xx_HAL_Driver/Src/stm32f4xx_hal_can.c:823:5
	strb.w	r0, [sp, #15]
	b	.LBB8_9
.Ltmp115:
.LBB8_8:
	.loc	6 828 5                         @ ../ThirdParty/STM32F4xx_HAL_Driver/Src/stm32f4xx_hal_can.c:828:5
	ldr	r1, [sp, #8]
	.loc	6 828 21 is_stmt 0              @ ../ThirdParty/STM32F4xx_HAL_Driver/Src/stm32f4xx_hal_can.c:828:21
	ldr	r0, [r1, #36]
	orr	r0, r0, #262144
	str	r0, [r1, #36]
	movs	r0, #1
	.loc	6 830 5 is_stmt 1               @ ../ThirdParty/STM32F4xx_HAL_Driver/Src/stm32f4xx_hal_can.c:830:5
	strb.w	r0, [sp, #15]
	b	.LBB8_9
.Ltmp116:
.LBB8_9:
	.loc	6 832 1                         @ ../ThirdParty/STM32F4xx_HAL_Driver/Src/stm32f4xx_hal_can.c:832:1
	ldrb.w	r0, [sp, #15]
	.loc	6 832 1 epilogue_begin is_stmt 0 @ ../ThirdParty/STM32F4xx_HAL_Driver/Src/stm32f4xx_hal_can.c:832:1
	add	sp, #16
	bx	lr
.Ltmp117:
.Lfunc_end8:
	.size	HAL_CAN_WakeUp, .Lfunc_end8-HAL_CAN_WakeUp
	.cfi_endproc
	.cantunwind
	.fnend
                                        @ -- End function
	.section	.text.HAL_CAN_IsSleepActive,"ax",%progbits
	.hidden	HAL_CAN_IsSleepActive           @ -- Begin function HAL_CAN_IsSleepActive
	.globl	HAL_CAN_IsSleepActive
	.p2align	2
	.type	HAL_CAN_IsSleepActive,%function
	.code	16                              @ @HAL_CAN_IsSleepActive
	.thumb_func
HAL_CAN_IsSleepActive:
.Lfunc_begin9:
	.loc	6 843 0 is_stmt 1               @ ../ThirdParty/STM32F4xx_HAL_Driver/Src/stm32f4xx_hal_can.c:843:0
	.fnstart
	.cfi_startproc
@ %bb.0:
	.pad	#8
	sub	sp, #8
	.cfi_def_cfa_offset 8
	str	r0, [sp, #4]
	movs	r0, #0
.Ltmp118:
	.loc	6 844 12 prologue_end           @ ../ThirdParty/STM32F4xx_HAL_Driver/Src/stm32f4xx_hal_can.c:844:12
	str	r0, [sp]
.Ltmp119:
	.loc	6 846 8                         @ ../ThirdParty/STM32F4xx_HAL_Driver/Src/stm32f4xx_hal_can.c:846:8
	ldr	r0, [sp, #4]
	.loc	6 846 14 is_stmt 0              @ ../ThirdParty/STM32F4xx_HAL_Driver/Src/stm32f4xx_hal_can.c:846:14
	ldrb.w	r0, [r0, #32]
	.loc	6 846 44                        @ ../ThirdParty/STM32F4xx_HAL_Driver/Src/stm32f4xx_hal_can.c:846:44
	cmp	r0, #1
	beq	.LBB9_2
	b	.LBB9_1
.LBB9_1:
	.loc	6 847 8 is_stmt 1               @ ../ThirdParty/STM32F4xx_HAL_Driver/Src/stm32f4xx_hal_can.c:847:8
	ldr	r0, [sp, #4]
	.loc	6 847 14 is_stmt 0              @ ../ThirdParty/STM32F4xx_HAL_Driver/Src/stm32f4xx_hal_can.c:847:14
	ldrb.w	r0, [r0, #32]
.Ltmp120:
	.loc	6 846 7 is_stmt 1               @ ../ThirdParty/STM32F4xx_HAL_Driver/Src/stm32f4xx_hal_can.c:846:7
	cmp	r0, #2
	bne	.LBB9_5
	b	.LBB9_2
.LBB9_2:
.Ltmp121:
	.loc	6 850 10                        @ ../ThirdParty/STM32F4xx_HAL_Driver/Src/stm32f4xx_hal_can.c:850:10
	ldr	r0, [sp, #4]
	.loc	6 850 16 is_stmt 0              @ ../ThirdParty/STM32F4xx_HAL_Driver/Src/stm32f4xx_hal_can.c:850:16
	ldr	r0, [r0]
	.loc	6 850 26                        @ ../ThirdParty/STM32F4xx_HAL_Driver/Src/stm32f4xx_hal_can.c:850:26
	ldr	r0, [r0, #4]
.Ltmp122:
	.loc	6 850 9                         @ ../ThirdParty/STM32F4xx_HAL_Driver/Src/stm32f4xx_hal_can.c:850:9
	lsls	r0, r0, #30
	cmp	r0, #0
	bpl	.LBB9_4
	b	.LBB9_3
.LBB9_3:
	.loc	6 0 9                           @ ../ThirdParty/STM32F4xx_HAL_Driver/Src/stm32f4xx_hal_can.c:0:9
	movs	r0, #1
.Ltmp123:
	.loc	6 852 14 is_stmt 1              @ ../ThirdParty/STM32F4xx_HAL_Driver/Src/stm32f4xx_hal_can.c:852:14
	str	r0, [sp]
	.loc	6 853 5                         @ ../ThirdParty/STM32F4xx_HAL_Driver/Src/stm32f4xx_hal_can.c:853:5
	b	.LBB9_4
.Ltmp124:
.LBB9_4:
	.loc	6 854 3                         @ ../ThirdParty/STM32F4xx_HAL_Driver/Src/stm32f4xx_hal_can.c:854:3
	b	.LBB9_5
.Ltmp125:
.LBB9_5:
	.loc	6 857 10                        @ ../ThirdParty/STM32F4xx_HAL_Driver/Src/stm32f4xx_hal_can.c:857:10
	ldr	r0, [sp]
	.loc	6 857 3 epilogue_begin is_stmt 0 @ ../ThirdParty/STM32F4xx_HAL_Driver/Src/stm32f4xx_hal_can.c:857:3
	add	sp, #8
	bx	lr
.Ltmp126:
.Lfunc_end9:
	.size	HAL_CAN_IsSleepActive, .Lfunc_end9-HAL_CAN_IsSleepActive
	.cfi_endproc
	.cantunwind
	.fnend
                                        @ -- End function
	.section	.text.HAL_CAN_AddTxMessage,"ax",%progbits
	.hidden	HAL_CAN_AddTxMessage            @ -- Begin function HAL_CAN_AddTxMessage
	.globl	HAL_CAN_AddTxMessage
	.p2align	2
	.type	HAL_CAN_AddTxMessage,%function
	.code	16                              @ @HAL_CAN_AddTxMessage
	.thumb_func
HAL_CAN_AddTxMessage:
.Lfunc_begin10:
	.loc	6 873 0 is_stmt 1               @ ../ThirdParty/STM32F4xx_HAL_Driver/Src/stm32f4xx_hal_can.c:873:0
	.fnstart
	.cfi_startproc
@ %bb.0:
	.pad	#24
	sub	sp, #24
	.cfi_def_cfa_offset 24
	str	r0, [sp, #16]
	str	r1, [sp, #12]
	str	r2, [sp, #8]
	str	r3, [sp, #4]
.Ltmp127:
	.loc	6 880 7 prologue_end            @ ../ThirdParty/STM32F4xx_HAL_Driver/Src/stm32f4xx_hal_can.c:880:7
	ldr	r0, [sp, #12]
	.loc	6 880 16 is_stmt 0              @ ../ThirdParty/STM32F4xx_HAL_Driver/Src/stm32f4xx_hal_can.c:880:16
	ldr	r0, [r0, #8]
.Ltmp128:
	.loc	6 880 7                         @ ../ThirdParty/STM32F4xx_HAL_Driver/Src/stm32f4xx_hal_can.c:880:7
	cbnz	r0, .LBB10_2
	b	.LBB10_1
.LBB10_1:
.Ltmp129:
	.loc	6 883 3 is_stmt 1               @ ../ThirdParty/STM32F4xx_HAL_Driver/Src/stm32f4xx_hal_can.c:883:3
	b	.LBB10_3
.Ltmp130:
.LBB10_2:
	.loc	6 0 3 is_stmt 0                 @ ../ThirdParty/STM32F4xx_HAL_Driver/Src/stm32f4xx_hal_can.c:0:3
	b	.LBB10_3
.LBB10_3:
.Ltmp131:
	.loc	6 890 8 is_stmt 1               @ ../ThirdParty/STM32F4xx_HAL_Driver/Src/stm32f4xx_hal_can.c:890:8
	ldr	r0, [sp, #16]
	.loc	6 890 14 is_stmt 0              @ ../ThirdParty/STM32F4xx_HAL_Driver/Src/stm32f4xx_hal_can.c:890:14
	ldrb.w	r0, [r0, #32]
	.loc	6 890 44                        @ ../ThirdParty/STM32F4xx_HAL_Driver/Src/stm32f4xx_hal_can.c:890:44
	cmp	r0, #1
	beq	.LBB10_5
	b	.LBB10_4
.LBB10_4:
	.loc	6 891 8 is_stmt 1               @ ../ThirdParty/STM32F4xx_HAL_Driver/Src/stm32f4xx_hal_can.c:891:8
	ldr	r0, [sp, #16]
	.loc	6 891 14 is_stmt 0              @ ../ThirdParty/STM32F4xx_HAL_Driver/Src/stm32f4xx_hal_can.c:891:14
	ldrb.w	r0, [r0, #32]
.Ltmp132:
	.loc	6 890 7 is_stmt 1               @ ../ThirdParty/STM32F4xx_HAL_Driver/Src/stm32f4xx_hal_can.c:890:7
	cmp	r0, #2
	bne.w	.LBB10_15
	b	.LBB10_5
.LBB10_5:
.Ltmp133:
	.loc	6 894 11                        @ ../ThirdParty/STM32F4xx_HAL_Driver/Src/stm32f4xx_hal_can.c:894:11
	ldr	r0, [sp, #16]
	.loc	6 894 17 is_stmt 0              @ ../ThirdParty/STM32F4xx_HAL_Driver/Src/stm32f4xx_hal_can.c:894:17
	ldr	r0, [r0]
	.loc	6 894 27                        @ ../ThirdParty/STM32F4xx_HAL_Driver/Src/stm32f4xx_hal_can.c:894:27
	ldr	r0, [r0, #8]
	.loc	6 894 57                        @ ../ThirdParty/STM32F4xx_HAL_Driver/Src/stm32f4xx_hal_can.c:894:57
	lsls	r0, r0, #5
	cmp	r0, #0
	bmi	.LBB10_8
	b	.LBB10_6
.LBB10_6:
	.loc	6 895 11 is_stmt 1              @ ../ThirdParty/STM32F4xx_HAL_Driver/Src/stm32f4xx_hal_can.c:895:11
	ldr	r0, [sp, #16]
	.loc	6 895 17 is_stmt 0              @ ../ThirdParty/STM32F4xx_HAL_Driver/Src/stm32f4xx_hal_can.c:895:17
	ldr	r0, [r0]
	.loc	6 895 27                        @ ../ThirdParty/STM32F4xx_HAL_Driver/Src/stm32f4xx_hal_can.c:895:27
	ldr	r0, [r0, #8]
	.loc	6 895 57                        @ ../ThirdParty/STM32F4xx_HAL_Driver/Src/stm32f4xx_hal_can.c:895:57
	lsls	r0, r0, #4
	cmp	r0, #0
	bmi	.LBB10_8
	b	.LBB10_7
.LBB10_7:
	.loc	6 896 11 is_stmt 1              @ ../ThirdParty/STM32F4xx_HAL_Driver/Src/stm32f4xx_hal_can.c:896:11
	ldr	r0, [sp, #16]
	.loc	6 896 17 is_stmt 0              @ ../ThirdParty/STM32F4xx_HAL_Driver/Src/stm32f4xx_hal_can.c:896:17
	ldr	r0, [r0]
	.loc	6 896 27                        @ ../ThirdParty/STM32F4xx_HAL_Driver/Src/stm32f4xx_hal_can.c:896:27
	ldr	r0, [r0, #8]
.Ltmp134:
	.loc	6 894 9 is_stmt 1               @ ../ThirdParty/STM32F4xx_HAL_Driver/Src/stm32f4xx_hal_can.c:894:9
	lsls	r0, r0, #3
	cmp	r0, #0
	bpl	.LBB10_14
	b	.LBB10_8
.LBB10_8:
.Ltmp135:
	.loc	6 899 26                        @ ../ThirdParty/STM32F4xx_HAL_Driver/Src/stm32f4xx_hal_can.c:899:26
	ldr	r0, [sp, #16]
	.loc	6 899 32 is_stmt 0              @ ../ThirdParty/STM32F4xx_HAL_Driver/Src/stm32f4xx_hal_can.c:899:32
	ldr	r0, [r0]
	.loc	6 899 42                        @ ../ThirdParty/STM32F4xx_HAL_Driver/Src/stm32f4xx_hal_can.c:899:42
	ldr	r0, [r0, #8]
	.loc	6 899 62                        @ ../ThirdParty/STM32F4xx_HAL_Driver/Src/stm32f4xx_hal_can.c:899:62
	ubfx	r0, r0, #24, #2
	.loc	6 899 23                        @ ../ThirdParty/STM32F4xx_HAL_Driver/Src/stm32f4xx_hal_can.c:899:23
	str	r0, [sp]
	.loc	6 902 27 is_stmt 1              @ ../ThirdParty/STM32F4xx_HAL_Driver/Src/stm32f4xx_hal_can.c:902:27
	ldr	r1, [sp]
	movs	r0, #1
	.loc	6 902 24 is_stmt 0              @ ../ThirdParty/STM32F4xx_HAL_Driver/Src/stm32f4xx_hal_can.c:902:24
	lsls	r0, r1
	.loc	6 902 8                         @ ../ThirdParty/STM32F4xx_HAL_Driver/Src/stm32f4xx_hal_can.c:902:8
	ldr	r1, [sp, #4]
	.loc	6 902 19                        @ ../ThirdParty/STM32F4xx_HAL_Driver/Src/stm32f4xx_hal_can.c:902:19
	str	r0, [r1]
.Ltmp136:
	.loc	6 905 11 is_stmt 1              @ ../ThirdParty/STM32F4xx_HAL_Driver/Src/stm32f4xx_hal_can.c:905:11
	ldr	r0, [sp, #12]
	.loc	6 905 20 is_stmt 0              @ ../ThirdParty/STM32F4xx_HAL_Driver/Src/stm32f4xx_hal_can.c:905:20
	ldr	r0, [r0, #8]
.Ltmp137:
	.loc	6 905 11                        @ ../ThirdParty/STM32F4xx_HAL_Driver/Src/stm32f4xx_hal_can.c:905:11
	cbnz	r0, .LBB10_10
	b	.LBB10_9
.LBB10_9:
.Ltmp138:
	.loc	6 907 61 is_stmt 1              @ ../ThirdParty/STM32F4xx_HAL_Driver/Src/stm32f4xx_hal_can.c:907:61
	ldr	r0, [sp, #12]
	.loc	6 907 70 is_stmt 0              @ ../ThirdParty/STM32F4xx_HAL_Driver/Src/stm32f4xx_hal_can.c:907:70
	ldr	r1, [r0]
	.loc	6 908 69 is_stmt 1              @ ../ThirdParty/STM32F4xx_HAL_Driver/Src/stm32f4xx_hal_can.c:908:69
	ldr	r0, [r0, #12]
	.loc	6 907 98                        @ ../ThirdParty/STM32F4xx_HAL_Driver/Src/stm32f4xx_hal_can.c:907:98
	orr.w	r0, r0, r1, lsl #21
	.loc	6 907 9 is_stmt 0               @ ../ThirdParty/STM32F4xx_HAL_Driver/Src/stm32f4xx_hal_can.c:907:9
	ldr	r1, [sp, #16]
	.loc	6 907 15                        @ ../ThirdParty/STM32F4xx_HAL_Driver/Src/stm32f4xx_hal_can.c:907:15
	ldr	r1, [r1]
	.loc	6 907 36                        @ ../ThirdParty/STM32F4xx_HAL_Driver/Src/stm32f4xx_hal_can.c:907:36
	ldr	r2, [sp]
	.loc	6 907 25                        @ ../ThirdParty/STM32F4xx_HAL_Driver/Src/stm32f4xx_hal_can.c:907:25
	add.w	r1, r1, r2, lsl #4
	.loc	6 907 57                        @ ../ThirdParty/STM32F4xx_HAL_Driver/Src/stm32f4xx_hal_can.c:907:57
	str.w	r0, [r1, #384]
	.loc	6 909 7 is_stmt 1               @ ../ThirdParty/STM32F4xx_HAL_Driver/Src/stm32f4xx_hal_can.c:909:7
	b	.LBB10_11
.Ltmp139:
.LBB10_10:
	.loc	6 912 61                        @ ../ThirdParty/STM32F4xx_HAL_Driver/Src/stm32f4xx_hal_can.c:912:61
	ldr	r1, [sp, #12]
	.loc	6 912 70 is_stmt 0              @ ../ThirdParty/STM32F4xx_HAL_Driver/Src/stm32f4xx_hal_can.c:912:70
	ldr	r2, [r1, #4]
	.loc	6 913 69 is_stmt 1              @ ../ThirdParty/STM32F4xx_HAL_Driver/Src/stm32f4xx_hal_can.c:913:69
	ldr	r0, [r1, #8]
	.loc	6 914 69                        @ ../ThirdParty/STM32F4xx_HAL_Driver/Src/stm32f4xx_hal_can.c:914:69
	ldr	r1, [r1, #12]
	.loc	6 912 98                        @ ../ThirdParty/STM32F4xx_HAL_Driver/Src/stm32f4xx_hal_can.c:912:98
	orr.w	r0, r0, r2, lsl #3
	.loc	6 913 73                        @ ../ThirdParty/STM32F4xx_HAL_Driver/Src/stm32f4xx_hal_can.c:913:73
	orrs	r0, r1
	.loc	6 912 9                         @ ../ThirdParty/STM32F4xx_HAL_Driver/Src/stm32f4xx_hal_can.c:912:9
	ldr	r1, [sp, #16]
	.loc	6 912 15 is_stmt 0              @ ../ThirdParty/STM32F4xx_HAL_Driver/Src/stm32f4xx_hal_can.c:912:15
	ldr	r1, [r1]
	.loc	6 912 36                        @ ../ThirdParty/STM32F4xx_HAL_Driver/Src/stm32f4xx_hal_can.c:912:36
	ldr	r2, [sp]
	.loc	6 912 25                        @ ../ThirdParty/STM32F4xx_HAL_Driver/Src/stm32f4xx_hal_can.c:912:25
	add.w	r1, r1, r2, lsl #4
	.loc	6 912 57                        @ ../ThirdParty/STM32F4xx_HAL_Driver/Src/stm32f4xx_hal_can.c:912:57
	str.w	r0, [r1, #384]
	b	.LBB10_11
.Ltmp140:
.LBB10_11:
	.loc	6 918 59 is_stmt 1              @ ../ThirdParty/STM32F4xx_HAL_Driver/Src/stm32f4xx_hal_can.c:918:59
	ldr	r0, [sp, #12]
	.loc	6 918 68 is_stmt 0              @ ../ThirdParty/STM32F4xx_HAL_Driver/Src/stm32f4xx_hal_can.c:918:68
	ldr	r0, [r0, #16]
	.loc	6 918 7                         @ ../ThirdParty/STM32F4xx_HAL_Driver/Src/stm32f4xx_hal_can.c:918:7
	ldr	r1, [sp, #16]
	.loc	6 918 13                        @ ../ThirdParty/STM32F4xx_HAL_Driver/Src/stm32f4xx_hal_can.c:918:13
	ldr	r1, [r1]
	.loc	6 918 34                        @ ../ThirdParty/STM32F4xx_HAL_Driver/Src/stm32f4xx_hal_can.c:918:34
	ldr	r2, [sp]
	.loc	6 918 23                        @ ../ThirdParty/STM32F4xx_HAL_Driver/Src/stm32f4xx_hal_can.c:918:23
	add.w	r1, r1, r2, lsl #4
	.loc	6 918 56                        @ ../ThirdParty/STM32F4xx_HAL_Driver/Src/stm32f4xx_hal_can.c:918:56
	str.w	r0, [r1, #388]
.Ltmp141:
	.loc	6 921 11 is_stmt 1              @ ../ThirdParty/STM32F4xx_HAL_Driver/Src/stm32f4xx_hal_can.c:921:11
	ldr	r0, [sp, #12]
	.loc	6 921 20 is_stmt 0              @ ../ThirdParty/STM32F4xx_HAL_Driver/Src/stm32f4xx_hal_can.c:921:20
	ldrb	r0, [r0, #20]
.Ltmp142:
	.loc	6 921 11                        @ ../ThirdParty/STM32F4xx_HAL_Driver/Src/stm32f4xx_hal_can.c:921:11
	cmp	r0, #1
	bne	.LBB10_13
	b	.LBB10_12
.LBB10_12:
.Ltmp143:
	.loc	6 923 9 is_stmt 1               @ ../ThirdParty/STM32F4xx_HAL_Driver/Src/stm32f4xx_hal_can.c:923:9
	ldr	r0, [sp, #16]
	ldr	r0, [r0]
	ldr	r1, [sp]
	add.w	r1, r0, r1, lsl #4
	ldr.w	r0, [r1, #388]
	orr	r0, r0, #256
	str.w	r0, [r1, #388]
	.loc	6 924 7                         @ ../ThirdParty/STM32F4xx_HAL_Driver/Src/stm32f4xx_hal_can.c:924:7
	b	.LBB10_13
.Ltmp144:
.LBB10_13:
	.loc	6 927 7                         @ ../ThirdParty/STM32F4xx_HAL_Driver/Src/stm32f4xx_hal_can.c:927:7
	ldr	r0, [sp, #8]
	ldr	r0, [r0, #4]
	ldr	r1, [sp, #16]
	ldr	r1, [r1]
	ldr	r2, [sp]
	add.w	r1, r1, r2, lsl #4
	str.w	r0, [r1, #396]
	.loc	6 932 7                         @ ../ThirdParty/STM32F4xx_HAL_Driver/Src/stm32f4xx_hal_can.c:932:7
	ldr	r0, [sp, #8]
	ldr	r0, [r0]
	ldr	r1, [sp, #16]
	ldr	r1, [r1]
	ldr	r2, [sp]
	add.w	r1, r1, r2, lsl #4
	str.w	r0, [r1, #392]
	.loc	6 939 7                         @ ../ThirdParty/STM32F4xx_HAL_Driver/Src/stm32f4xx_hal_can.c:939:7
	ldr	r0, [sp, #16]
	ldr	r0, [r0]
	ldr	r1, [sp]
	add.w	r1, r0, r1, lsl #4
	ldr.w	r0, [r1, #384]
	orr	r0, r0, #1
	str.w	r0, [r1, #384]
	movs	r0, #0
	.loc	6 942 7                         @ ../ThirdParty/STM32F4xx_HAL_Driver/Src/stm32f4xx_hal_can.c:942:7
	strb.w	r0, [sp, #23]
	b	.LBB10_16
.Ltmp145:
.LBB10_14:
	.loc	6 947 7                         @ ../ThirdParty/STM32F4xx_HAL_Driver/Src/stm32f4xx_hal_can.c:947:7
	ldr	r1, [sp, #16]
	.loc	6 947 23 is_stmt 0              @ ../ThirdParty/STM32F4xx_HAL_Driver/Src/stm32f4xx_hal_can.c:947:23
	ldr	r0, [r1, #36]
	orr	r0, r0, #2097152
	str	r0, [r1, #36]
	movs	r0, #1
	.loc	6 949 7 is_stmt 1               @ ../ThirdParty/STM32F4xx_HAL_Driver/Src/stm32f4xx_hal_can.c:949:7
	strb.w	r0, [sp, #23]
	b	.LBB10_16
.Ltmp146:
.LBB10_15:
	.loc	6 955 5                         @ ../ThirdParty/STM32F4xx_HAL_Driver/Src/stm32f4xx_hal_can.c:955:5
	ldr	r1, [sp, #16]
	.loc	6 955 21 is_stmt 0              @ ../ThirdParty/STM32F4xx_HAL_Driver/Src/stm32f4xx_hal_can.c:955:21
	ldr	r0, [r1, #36]
	orr	r0, r0, #262144
	str	r0, [r1, #36]
	movs	r0, #1
	.loc	6 957 5 is_stmt 1               @ ../ThirdParty/STM32F4xx_HAL_Driver/Src/stm32f4xx_hal_can.c:957:5
	strb.w	r0, [sp, #23]
	b	.LBB10_16
.Ltmp147:
.LBB10_16:
	.loc	6 959 1                         @ ../ThirdParty/STM32F4xx_HAL_Driver/Src/stm32f4xx_hal_can.c:959:1
	ldrb.w	r0, [sp, #23]
	.loc	6 959 1 epilogue_begin is_stmt 0 @ ../ThirdParty/STM32F4xx_HAL_Driver/Src/stm32f4xx_hal_can.c:959:1
	add	sp, #24
	bx	lr
.Ltmp148:
.Lfunc_end10:
	.size	HAL_CAN_AddTxMessage, .Lfunc_end10-HAL_CAN_AddTxMessage
	.cfi_endproc
	.cantunwind
	.fnend
                                        @ -- End function
	.section	.text.HAL_CAN_AbortTxRequest,"ax",%progbits
	.hidden	HAL_CAN_AbortTxRequest          @ -- Begin function HAL_CAN_AbortTxRequest
	.globl	HAL_CAN_AbortTxRequest
	.p2align	2
	.type	HAL_CAN_AbortTxRequest,%function
	.code	16                              @ @HAL_CAN_AbortTxRequest
	.thumb_func
HAL_CAN_AbortTxRequest:
.Lfunc_begin11:
	.loc	6 970 0 is_stmt 1               @ ../ThirdParty/STM32F4xx_HAL_Driver/Src/stm32f4xx_hal_can.c:970:0
	.fnstart
	.cfi_startproc
@ %bb.0:
	.pad	#12
	sub	sp, #12
	.cfi_def_cfa_offset 12
	str	r0, [sp, #4]
	str	r1, [sp]
.Ltmp149:
	.loc	6 974 8 prologue_end            @ ../ThirdParty/STM32F4xx_HAL_Driver/Src/stm32f4xx_hal_can.c:974:8
	ldr	r0, [sp, #4]
	.loc	6 974 14 is_stmt 0              @ ../ThirdParty/STM32F4xx_HAL_Driver/Src/stm32f4xx_hal_can.c:974:14
	ldrb.w	r0, [r0, #32]
	.loc	6 974 44                        @ ../ThirdParty/STM32F4xx_HAL_Driver/Src/stm32f4xx_hal_can.c:974:44
	cmp	r0, #1
	beq	.LBB11_2
	b	.LBB11_1
.LBB11_1:
	.loc	6 975 8 is_stmt 1               @ ../ThirdParty/STM32F4xx_HAL_Driver/Src/stm32f4xx_hal_can.c:975:8
	ldr	r0, [sp, #4]
	.loc	6 975 14 is_stmt 0              @ ../ThirdParty/STM32F4xx_HAL_Driver/Src/stm32f4xx_hal_can.c:975:14
	ldrb.w	r0, [r0, #32]
.Ltmp150:
	.loc	6 974 7 is_stmt 1               @ ../ThirdParty/STM32F4xx_HAL_Driver/Src/stm32f4xx_hal_can.c:974:7
	cmp	r0, #2
	bne	.LBB11_9
	b	.LBB11_2
.LBB11_2:
.Ltmp151:
	.loc	6 978 9                         @ ../ThirdParty/STM32F4xx_HAL_Driver/Src/stm32f4xx_hal_can.c:978:9
	ldrb.w	r0, [sp]
	lsls	r0, r0, #31
	cbz	r0, .LBB11_4
	b	.LBB11_3
.LBB11_3:
.Ltmp152:
	.loc	6 981 7                         @ ../ThirdParty/STM32F4xx_HAL_Driver/Src/stm32f4xx_hal_can.c:981:7
	ldr	r0, [sp, #4]
	ldr	r1, [r0]
	ldr	r0, [r1, #8]
	orr	r0, r0, #128
	str	r0, [r1, #8]
	.loc	6 982 5                         @ ../ThirdParty/STM32F4xx_HAL_Driver/Src/stm32f4xx_hal_can.c:982:5
	b	.LBB11_4
.Ltmp153:
.LBB11_4:
	.loc	6 985 9                         @ ../ThirdParty/STM32F4xx_HAL_Driver/Src/stm32f4xx_hal_can.c:985:9
	ldrb.w	r0, [sp]
	lsls	r0, r0, #30
	cmp	r0, #0
	bpl	.LBB11_6
	b	.LBB11_5
.LBB11_5:
.Ltmp154:
	.loc	6 988 7                         @ ../ThirdParty/STM32F4xx_HAL_Driver/Src/stm32f4xx_hal_can.c:988:7
	ldr	r0, [sp, #4]
	ldr	r1, [r0]
	ldr	r0, [r1, #8]
	orr	r0, r0, #32768
	str	r0, [r1, #8]
	.loc	6 989 5                         @ ../ThirdParty/STM32F4xx_HAL_Driver/Src/stm32f4xx_hal_can.c:989:5
	b	.LBB11_6
.Ltmp155:
.LBB11_6:
	.loc	6 992 9                         @ ../ThirdParty/STM32F4xx_HAL_Driver/Src/stm32f4xx_hal_can.c:992:9
	ldrb.w	r0, [sp]
	lsls	r0, r0, #29
	cmp	r0, #0
	bpl	.LBB11_8
	b	.LBB11_7
.LBB11_7:
.Ltmp156:
	.loc	6 995 7                         @ ../ThirdParty/STM32F4xx_HAL_Driver/Src/stm32f4xx_hal_can.c:995:7
	ldr	r0, [sp, #4]
	ldr	r1, [r0]
	ldr	r0, [r1, #8]
	orr	r0, r0, #8388608
	str	r0, [r1, #8]
	.loc	6 996 5                         @ ../ThirdParty/STM32F4xx_HAL_Driver/Src/stm32f4xx_hal_can.c:996:5
	b	.LBB11_8
.Ltmp157:
.LBB11_8:
	.loc	6 0 5 is_stmt 0                 @ ../ThirdParty/STM32F4xx_HAL_Driver/Src/stm32f4xx_hal_can.c:0:5
	movs	r0, #0
	.loc	6 999 5 is_stmt 1               @ ../ThirdParty/STM32F4xx_HAL_Driver/Src/stm32f4xx_hal_can.c:999:5
	strb.w	r0, [sp, #11]
	b	.LBB11_10
.Ltmp158:
.LBB11_9:
	.loc	6 1004 5                        @ ../ThirdParty/STM32F4xx_HAL_Driver/Src/stm32f4xx_hal_can.c:1004:5
	ldr	r1, [sp, #4]
	.loc	6 1004 21 is_stmt 0             @ ../ThirdParty/STM32F4xx_HAL_Driver/Src/stm32f4xx_hal_can.c:1004:21
	ldr	r0, [r1, #36]
	orr	r0, r0, #262144
	str	r0, [r1, #36]
	movs	r0, #1
	.loc	6 1006 5 is_stmt 1              @ ../ThirdParty/STM32F4xx_HAL_Driver/Src/stm32f4xx_hal_can.c:1006:5
	strb.w	r0, [sp, #11]
	b	.LBB11_10
.Ltmp159:
.LBB11_10:
	.loc	6 1008 1                        @ ../ThirdParty/STM32F4xx_HAL_Driver/Src/stm32f4xx_hal_can.c:1008:1
	ldrb.w	r0, [sp, #11]
	.loc	6 1008 1 epilogue_begin is_stmt 0 @ ../ThirdParty/STM32F4xx_HAL_Driver/Src/stm32f4xx_hal_can.c:1008:1
	add	sp, #12
	bx	lr
.Ltmp160:
.Lfunc_end11:
	.size	HAL_CAN_AbortTxRequest, .Lfunc_end11-HAL_CAN_AbortTxRequest
	.cfi_endproc
	.cantunwind
	.fnend
                                        @ -- End function
	.section	.text.HAL_CAN_GetTxMailboxesFreeLevel,"ax",%progbits
	.hidden	HAL_CAN_GetTxMailboxesFreeLevel @ -- Begin function HAL_CAN_GetTxMailboxesFreeLevel
	.globl	HAL_CAN_GetTxMailboxesFreeLevel
	.p2align	2
	.type	HAL_CAN_GetTxMailboxesFreeLevel,%function
	.code	16                              @ @HAL_CAN_GetTxMailboxesFreeLevel
	.thumb_func
HAL_CAN_GetTxMailboxesFreeLevel:
.Lfunc_begin12:
	.loc	6 1017 0 is_stmt 1              @ ../ThirdParty/STM32F4xx_HAL_Driver/Src/stm32f4xx_hal_can.c:1017:0
	.fnstart
	.cfi_startproc
@ %bb.0:
	.pad	#8
	sub	sp, #8
	.cfi_def_cfa_offset 8
	str	r0, [sp, #4]
	movs	r0, #0
.Ltmp161:
	.loc	6 1018 12 prologue_end          @ ../ThirdParty/STM32F4xx_HAL_Driver/Src/stm32f4xx_hal_can.c:1018:12
	str	r0, [sp]
.Ltmp162:
	.loc	6 1020 8                        @ ../ThirdParty/STM32F4xx_HAL_Driver/Src/stm32f4xx_hal_can.c:1020:8
	ldr	r0, [sp, #4]
	.loc	6 1020 14 is_stmt 0             @ ../ThirdParty/STM32F4xx_HAL_Driver/Src/stm32f4xx_hal_can.c:1020:14
	ldrb.w	r0, [r0, #32]
	.loc	6 1020 44                       @ ../ThirdParty/STM32F4xx_HAL_Driver/Src/stm32f4xx_hal_can.c:1020:44
	cmp	r0, #1
	beq	.LBB12_2
	b	.LBB12_1
.LBB12_1:
	.loc	6 1021 8 is_stmt 1              @ ../ThirdParty/STM32F4xx_HAL_Driver/Src/stm32f4xx_hal_can.c:1021:8
	ldr	r0, [sp, #4]
	.loc	6 1021 14 is_stmt 0             @ ../ThirdParty/STM32F4xx_HAL_Driver/Src/stm32f4xx_hal_can.c:1021:14
	ldrb.w	r0, [r0, #32]
.Ltmp163:
	.loc	6 1020 7 is_stmt 1              @ ../ThirdParty/STM32F4xx_HAL_Driver/Src/stm32f4xx_hal_can.c:1020:7
	cmp	r0, #2
	bne	.LBB12_9
	b	.LBB12_2
.LBB12_2:
.Ltmp164:
	.loc	6 1024 10                       @ ../ThirdParty/STM32F4xx_HAL_Driver/Src/stm32f4xx_hal_can.c:1024:10
	ldr	r0, [sp, #4]
	.loc	6 1024 16 is_stmt 0             @ ../ThirdParty/STM32F4xx_HAL_Driver/Src/stm32f4xx_hal_can.c:1024:16
	ldr	r0, [r0]
	.loc	6 1024 26                       @ ../ThirdParty/STM32F4xx_HAL_Driver/Src/stm32f4xx_hal_can.c:1024:26
	ldr	r0, [r0, #8]
.Ltmp165:
	.loc	6 1024 9                        @ ../ThirdParty/STM32F4xx_HAL_Driver/Src/stm32f4xx_hal_can.c:1024:9
	lsls	r0, r0, #5
	cmp	r0, #0
	bpl	.LBB12_4
	b	.LBB12_3
.LBB12_3:
.Ltmp166:
	.loc	6 1026 16 is_stmt 1             @ ../ThirdParty/STM32F4xx_HAL_Driver/Src/stm32f4xx_hal_can.c:1026:16
	ldr	r0, [sp]
	adds	r0, #1
	str	r0, [sp]
	.loc	6 1027 5                        @ ../ThirdParty/STM32F4xx_HAL_Driver/Src/stm32f4xx_hal_can.c:1027:5
	b	.LBB12_4
.Ltmp167:
.LBB12_4:
	.loc	6 1030 10                       @ ../ThirdParty/STM32F4xx_HAL_Driver/Src/stm32f4xx_hal_can.c:1030:10
	ldr	r0, [sp, #4]
	.loc	6 1030 16 is_stmt 0             @ ../ThirdParty/STM32F4xx_HAL_Driver/Src/stm32f4xx_hal_can.c:1030:16
	ldr	r0, [r0]
	.loc	6 1030 26                       @ ../ThirdParty/STM32F4xx_HAL_Driver/Src/stm32f4xx_hal_can.c:1030:26
	ldr	r0, [r0, #8]
.Ltmp168:
	.loc	6 1030 9                        @ ../ThirdParty/STM32F4xx_HAL_Driver/Src/stm32f4xx_hal_can.c:1030:9
	lsls	r0, r0, #4
	cmp	r0, #0
	bpl	.LBB12_6
	b	.LBB12_5
.LBB12_5:
.Ltmp169:
	.loc	6 1032 16 is_stmt 1             @ ../ThirdParty/STM32F4xx_HAL_Driver/Src/stm32f4xx_hal_can.c:1032:16
	ldr	r0, [sp]
	adds	r0, #1
	str	r0, [sp]
	.loc	6 1033 5                        @ ../ThirdParty/STM32F4xx_HAL_Driver/Src/stm32f4xx_hal_can.c:1033:5
	b	.LBB12_6
.Ltmp170:
.LBB12_6:
	.loc	6 1036 10                       @ ../ThirdParty/STM32F4xx_HAL_Driver/Src/stm32f4xx_hal_can.c:1036:10
	ldr	r0, [sp, #4]
	.loc	6 1036 16 is_stmt 0             @ ../ThirdParty/STM32F4xx_HAL_Driver/Src/stm32f4xx_hal_can.c:1036:16
	ldr	r0, [r0]
	.loc	6 1036 26                       @ ../ThirdParty/STM32F4xx_HAL_Driver/Src/stm32f4xx_hal_can.c:1036:26
	ldr	r0, [r0, #8]
.Ltmp171:
	.loc	6 1036 9                        @ ../ThirdParty/STM32F4xx_HAL_Driver/Src/stm32f4xx_hal_can.c:1036:9
	lsls	r0, r0, #3
	cmp	r0, #0
	bpl	.LBB12_8
	b	.LBB12_7
.LBB12_7:
.Ltmp172:
	.loc	6 1038 16 is_stmt 1             @ ../ThirdParty/STM32F4xx_HAL_Driver/Src/stm32f4xx_hal_can.c:1038:16
	ldr	r0, [sp]
	adds	r0, #1
	str	r0, [sp]
	.loc	6 1039 5                        @ ../ThirdParty/STM32F4xx_HAL_Driver/Src/stm32f4xx_hal_can.c:1039:5
	b	.LBB12_8
.Ltmp173:
.LBB12_8:
	.loc	6 1040 3                        @ ../ThirdParty/STM32F4xx_HAL_Driver/Src/stm32f4xx_hal_can.c:1040:3
	b	.LBB12_9
.Ltmp174:
.LBB12_9:
	.loc	6 1043 10                       @ ../ThirdParty/STM32F4xx_HAL_Driver/Src/stm32f4xx_hal_can.c:1043:10
	ldr	r0, [sp]
	.loc	6 1043 3 epilogue_begin is_stmt 0 @ ../ThirdParty/STM32F4xx_HAL_Driver/Src/stm32f4xx_hal_can.c:1043:3
	add	sp, #8
	bx	lr
.Ltmp175:
.Lfunc_end12:
	.size	HAL_CAN_GetTxMailboxesFreeLevel, .Lfunc_end12-HAL_CAN_GetTxMailboxesFreeLevel
	.cfi_endproc
	.cantunwind
	.fnend
                                        @ -- End function
	.section	.text.HAL_CAN_IsTxMessagePending,"ax",%progbits
	.hidden	HAL_CAN_IsTxMessagePending      @ -- Begin function HAL_CAN_IsTxMessagePending
	.globl	HAL_CAN_IsTxMessagePending
	.p2align	2
	.type	HAL_CAN_IsTxMessagePending,%function
	.code	16                              @ @HAL_CAN_IsTxMessagePending
	.thumb_func
HAL_CAN_IsTxMessagePending:
.Lfunc_begin13:
	.loc	6 1059 0 is_stmt 1              @ ../ThirdParty/STM32F4xx_HAL_Driver/Src/stm32f4xx_hal_can.c:1059:0
	.fnstart
	.cfi_startproc
@ %bb.0:
	.pad	#12
	sub	sp, #12
	.cfi_def_cfa_offset 12
	str	r0, [sp, #8]
	str	r1, [sp, #4]
	movs	r0, #0
.Ltmp176:
	.loc	6 1060 12 prologue_end          @ ../ThirdParty/STM32F4xx_HAL_Driver/Src/stm32f4xx_hal_can.c:1060:12
	str	r0, [sp]
.Ltmp177:
	.loc	6 1065 8                        @ ../ThirdParty/STM32F4xx_HAL_Driver/Src/stm32f4xx_hal_can.c:1065:8
	ldr	r0, [sp, #8]
	.loc	6 1065 14 is_stmt 0             @ ../ThirdParty/STM32F4xx_HAL_Driver/Src/stm32f4xx_hal_can.c:1065:14
	ldrb.w	r0, [r0, #32]
	.loc	6 1065 44                       @ ../ThirdParty/STM32F4xx_HAL_Driver/Src/stm32f4xx_hal_can.c:1065:44
	cmp	r0, #1
	beq	.LBB13_2
	b	.LBB13_1
.LBB13_1:
	.loc	6 1066 8 is_stmt 1              @ ../ThirdParty/STM32F4xx_HAL_Driver/Src/stm32f4xx_hal_can.c:1066:8
	ldr	r0, [sp, #8]
	.loc	6 1066 14 is_stmt 0             @ ../ThirdParty/STM32F4xx_HAL_Driver/Src/stm32f4xx_hal_can.c:1066:14
	ldrb.w	r0, [r0, #32]
.Ltmp178:
	.loc	6 1065 7 is_stmt 1              @ ../ThirdParty/STM32F4xx_HAL_Driver/Src/stm32f4xx_hal_can.c:1065:7
	cmp	r0, #2
	bne	.LBB13_5
	b	.LBB13_2
.LBB13_2:
.Ltmp179:
	.loc	6 1069 10                       @ ../ThirdParty/STM32F4xx_HAL_Driver/Src/stm32f4xx_hal_can.c:1069:10
	ldr	r0, [sp, #8]
	.loc	6 1069 16 is_stmt 0             @ ../ThirdParty/STM32F4xx_HAL_Driver/Src/stm32f4xx_hal_can.c:1069:16
	ldr	r0, [r0]
	.loc	6 1069 26                       @ ../ThirdParty/STM32F4xx_HAL_Driver/Src/stm32f4xx_hal_can.c:1069:26
	ldr	r0, [r0, #8]
	.loc	6 1069 33                       @ ../ThirdParty/STM32F4xx_HAL_Driver/Src/stm32f4xx_hal_can.c:1069:33
	ldr	r2, [sp, #4]
	.loc	6 1069 45                       @ ../ThirdParty/STM32F4xx_HAL_Driver/Src/stm32f4xx_hal_can.c:1069:45
	lsls	r1, r2, #26
	.loc	6 1069 30                       @ ../ThirdParty/STM32F4xx_HAL_Driver/Src/stm32f4xx_hal_can.c:1069:30
	and.w	r0, r0, r2, lsl #26
.Ltmp180:
	.loc	6 1069 9                        @ ../ThirdParty/STM32F4xx_HAL_Driver/Src/stm32f4xx_hal_can.c:1069:9
	cmp	r0, r1
	beq	.LBB13_4
	b	.LBB13_3
.LBB13_3:
	.loc	6 0 9                           @ ../ThirdParty/STM32F4xx_HAL_Driver/Src/stm32f4xx_hal_can.c:0:9
	movs	r0, #1
.Ltmp181:
	.loc	6 1071 14 is_stmt 1             @ ../ThirdParty/STM32F4xx_HAL_Driver/Src/stm32f4xx_hal_can.c:1071:14
	str	r0, [sp]
	.loc	6 1072 5                        @ ../ThirdParty/STM32F4xx_HAL_Driver/Src/stm32f4xx_hal_can.c:1072:5
	b	.LBB13_4
.Ltmp182:
.LBB13_4:
	.loc	6 1073 3                        @ ../ThirdParty/STM32F4xx_HAL_Driver/Src/stm32f4xx_hal_can.c:1073:3
	b	.LBB13_5
.Ltmp183:
.LBB13_5:
	.loc	6 1076 10                       @ ../ThirdParty/STM32F4xx_HAL_Driver/Src/stm32f4xx_hal_can.c:1076:10
	ldr	r0, [sp]
	.loc	6 1076 3 epilogue_begin is_stmt 0 @ ../ThirdParty/STM32F4xx_HAL_Driver/Src/stm32f4xx_hal_can.c:1076:3
	add	sp, #12
	bx	lr
.Ltmp184:
.Lfunc_end13:
	.size	HAL_CAN_IsTxMessagePending, .Lfunc_end13-HAL_CAN_IsTxMessagePending
	.cfi_endproc
	.cantunwind
	.fnend
                                        @ -- End function
	.section	.text.HAL_CAN_GetTxTimestamp,"ax",%progbits
	.hidden	HAL_CAN_GetTxTimestamp          @ -- Begin function HAL_CAN_GetTxTimestamp
	.globl	HAL_CAN_GetTxTimestamp
	.p2align	2
	.type	HAL_CAN_GetTxTimestamp,%function
	.code	16                              @ @HAL_CAN_GetTxTimestamp
	.thumb_func
HAL_CAN_GetTxTimestamp:
.Lfunc_begin14:
	.loc	6 1090 0 is_stmt 1              @ ../ThirdParty/STM32F4xx_HAL_Driver/Src/stm32f4xx_hal_can.c:1090:0
	.fnstart
	.cfi_startproc
@ %bb.0:
	.pad	#16
	sub	sp, #16
	.cfi_def_cfa_offset 16
	str	r0, [sp, #12]
	str	r1, [sp, #8]
	movs	r0, #0
.Ltmp185:
	.loc	6 1091 12 prologue_end          @ ../ThirdParty/STM32F4xx_HAL_Driver/Src/stm32f4xx_hal_can.c:1091:12
	str	r0, [sp, #4]
.Ltmp186:
	.loc	6 1097 8                        @ ../ThirdParty/STM32F4xx_HAL_Driver/Src/stm32f4xx_hal_can.c:1097:8
	ldr	r0, [sp, #12]
	.loc	6 1097 14 is_stmt 0             @ ../ThirdParty/STM32F4xx_HAL_Driver/Src/stm32f4xx_hal_can.c:1097:14
	ldrb.w	r0, [r0, #32]
	.loc	6 1097 44                       @ ../ThirdParty/STM32F4xx_HAL_Driver/Src/stm32f4xx_hal_can.c:1097:44
	cmp	r0, #1
	beq	.LBB14_2
	b	.LBB14_1
.LBB14_1:
	.loc	6 1098 8 is_stmt 1              @ ../ThirdParty/STM32F4xx_HAL_Driver/Src/stm32f4xx_hal_can.c:1098:8
	ldr	r0, [sp, #12]
	.loc	6 1098 14 is_stmt 0             @ ../ThirdParty/STM32F4xx_HAL_Driver/Src/stm32f4xx_hal_can.c:1098:14
	ldrb.w	r0, [r0, #32]
.Ltmp187:
	.loc	6 1097 7 is_stmt 1              @ ../ThirdParty/STM32F4xx_HAL_Driver/Src/stm32f4xx_hal_can.c:1097:7
	cmp	r0, #2
	bne	.LBB14_3
	b	.LBB14_2
.LBB14_2:
.Ltmp188:
	.loc	6 1101 23                       @ ../ThirdParty/STM32F4xx_HAL_Driver/Src/stm32f4xx_hal_can.c:1101:23
	ldr	r0, [sp, #8]
	rbit	r0, r0
	clz	r0, r0
	.loc	6 1101 21 is_stmt 0             @ ../ThirdParty/STM32F4xx_HAL_Driver/Src/stm32f4xx_hal_can.c:1101:21
	str	r0, [sp]
	.loc	6 1104 18 is_stmt 1             @ ../ThirdParty/STM32F4xx_HAL_Driver/Src/stm32f4xx_hal_can.c:1104:18
	ldr	r0, [sp, #12]
	.loc	6 1104 24 is_stmt 0             @ ../ThirdParty/STM32F4xx_HAL_Driver/Src/stm32f4xx_hal_can.c:1104:24
	ldr	r0, [r0]
	.loc	6 1104 45                       @ ../ThirdParty/STM32F4xx_HAL_Driver/Src/stm32f4xx_hal_can.c:1104:45
	ldr	r1, [sp]
	.loc	6 1104 34                       @ ../ThirdParty/STM32F4xx_HAL_Driver/Src/stm32f4xx_hal_can.c:1104:34
	add.w	r0, r0, r1, lsl #4
	.loc	6 1104 62                       @ ../ThirdParty/STM32F4xx_HAL_Driver/Src/stm32f4xx_hal_can.c:1104:62
	ldr.w	r0, [r0, #388]
	.loc	6 1104 85                       @ ../ThirdParty/STM32F4xx_HAL_Driver/Src/stm32f4xx_hal_can.c:1104:85
	lsrs	r0, r0, #16
	.loc	6 1104 15                       @ ../ThirdParty/STM32F4xx_HAL_Driver/Src/stm32f4xx_hal_can.c:1104:15
	str	r0, [sp, #4]
	.loc	6 1105 3 is_stmt 1              @ ../ThirdParty/STM32F4xx_HAL_Driver/Src/stm32f4xx_hal_can.c:1105:3
	b	.LBB14_3
.Ltmp189:
.LBB14_3:
	.loc	6 1108 10                       @ ../ThirdParty/STM32F4xx_HAL_Driver/Src/stm32f4xx_hal_can.c:1108:10
	ldr	r0, [sp, #4]
	.loc	6 1108 3 epilogue_begin is_stmt 0 @ ../ThirdParty/STM32F4xx_HAL_Driver/Src/stm32f4xx_hal_can.c:1108:3
	add	sp, #16
	bx	lr
.Ltmp190:
.Lfunc_end14:
	.size	HAL_CAN_GetTxTimestamp, .Lfunc_end14-HAL_CAN_GetTxTimestamp
	.cfi_endproc
	.cantunwind
	.fnend
                                        @ -- End function
	.section	.text.HAL_CAN_GetRxMessage,"ax",%progbits
	.hidden	HAL_CAN_GetRxMessage            @ -- Begin function HAL_CAN_GetRxMessage
	.globl	HAL_CAN_GetRxMessage
	.p2align	2
	.type	HAL_CAN_GetRxMessage,%function
	.code	16                              @ @HAL_CAN_GetRxMessage
	.thumb_func
HAL_CAN_GetRxMessage:
.Lfunc_begin15:
	.loc	6 1123 0 is_stmt 1              @ ../ThirdParty/STM32F4xx_HAL_Driver/Src/stm32f4xx_hal_can.c:1123:0
	.fnstart
	.cfi_startproc
@ %bb.0:
	.pad	#20
	sub	sp, #20
	.cfi_def_cfa_offset 20
	str	r0, [sp, #12]
	str	r1, [sp, #8]
	str	r2, [sp, #4]
	str	r3, [sp]
.Ltmp191:
	.loc	6 1126 8 prologue_end           @ ../ThirdParty/STM32F4xx_HAL_Driver/Src/stm32f4xx_hal_can.c:1126:8
	ldr	r0, [sp, #12]
	.loc	6 1126 14 is_stmt 0             @ ../ThirdParty/STM32F4xx_HAL_Driver/Src/stm32f4xx_hal_can.c:1126:14
	ldrb.w	r0, [r0, #32]
	.loc	6 1126 44                       @ ../ThirdParty/STM32F4xx_HAL_Driver/Src/stm32f4xx_hal_can.c:1126:44
	cmp	r0, #1
	beq	.LBB15_2
	b	.LBB15_1
.LBB15_1:
	.loc	6 1127 8 is_stmt 1              @ ../ThirdParty/STM32F4xx_HAL_Driver/Src/stm32f4xx_hal_can.c:1127:8
	ldr	r0, [sp, #12]
	.loc	6 1127 14 is_stmt 0             @ ../ThirdParty/STM32F4xx_HAL_Driver/Src/stm32f4xx_hal_can.c:1127:14
	ldrb.w	r0, [r0, #32]
.Ltmp192:
	.loc	6 1126 7 is_stmt 1              @ ../ThirdParty/STM32F4xx_HAL_Driver/Src/stm32f4xx_hal_can.c:1126:7
	cmp	r0, #2
	bne.w	.LBB15_20
	b	.LBB15_2
.LBB15_2:
.Ltmp193:
	.loc	6 1130 9                        @ ../ThirdParty/STM32F4xx_HAL_Driver/Src/stm32f4xx_hal_can.c:1130:9
	ldr	r0, [sp, #8]
.Ltmp194:
	.loc	6 1130 9 is_stmt 0              @ ../ThirdParty/STM32F4xx_HAL_Driver/Src/stm32f4xx_hal_can.c:1130:9
	cbnz	r0, .LBB15_6
	b	.LBB15_3
.LBB15_3:
.Ltmp195:
	.loc	6 1133 12 is_stmt 1             @ ../ThirdParty/STM32F4xx_HAL_Driver/Src/stm32f4xx_hal_can.c:1133:12
	ldr	r0, [sp, #12]
	.loc	6 1133 18 is_stmt 0             @ ../ThirdParty/STM32F4xx_HAL_Driver/Src/stm32f4xx_hal_can.c:1133:18
	ldr	r0, [r0]
	.loc	6 1133 28                       @ ../ThirdParty/STM32F4xx_HAL_Driver/Src/stm32f4xx_hal_can.c:1133:28
	ldr	r0, [r0, #12]
.Ltmp196:
	.loc	6 1133 11                       @ ../ThirdParty/STM32F4xx_HAL_Driver/Src/stm32f4xx_hal_can.c:1133:11
	lsls	r0, r0, #30
	cbnz	r0, .LBB15_5
	b	.LBB15_4
.LBB15_4:
.Ltmp197:
	.loc	6 1136 9 is_stmt 1              @ ../ThirdParty/STM32F4xx_HAL_Driver/Src/stm32f4xx_hal_can.c:1136:9
	ldr	r1, [sp, #12]
	.loc	6 1136 25 is_stmt 0             @ ../ThirdParty/STM32F4xx_HAL_Driver/Src/stm32f4xx_hal_can.c:1136:25
	ldr	r0, [r1, #36]
	orr	r0, r0, #2097152
	str	r0, [r1, #36]
	movs	r0, #1
	.loc	6 1138 9 is_stmt 1              @ ../ThirdParty/STM32F4xx_HAL_Driver/Src/stm32f4xx_hal_can.c:1138:9
	strb.w	r0, [sp, #19]
	b	.LBB15_21
.Ltmp198:
.LBB15_5:
	.loc	6 1140 5                        @ ../ThirdParty/STM32F4xx_HAL_Driver/Src/stm32f4xx_hal_can.c:1140:5
	b	.LBB15_11
.Ltmp199:
.LBB15_6:
	.loc	6 1141 14                       @ ../ThirdParty/STM32F4xx_HAL_Driver/Src/stm32f4xx_hal_can.c:1141:14
	ldr	r0, [sp, #8]
.Ltmp200:
	.loc	6 1141 14 is_stmt 0             @ ../ThirdParty/STM32F4xx_HAL_Driver/Src/stm32f4xx_hal_can.c:1141:14
	cmp	r0, #1
	bne	.LBB15_10
	b	.LBB15_7
.LBB15_7:
.Ltmp201:
	.loc	6 1144 12 is_stmt 1             @ ../ThirdParty/STM32F4xx_HAL_Driver/Src/stm32f4xx_hal_can.c:1144:12
	ldr	r0, [sp, #12]
	.loc	6 1144 18 is_stmt 0             @ ../ThirdParty/STM32F4xx_HAL_Driver/Src/stm32f4xx_hal_can.c:1144:18
	ldr	r0, [r0]
	.loc	6 1144 28                       @ ../ThirdParty/STM32F4xx_HAL_Driver/Src/stm32f4xx_hal_can.c:1144:28
	ldr	r0, [r0, #16]
.Ltmp202:
	.loc	6 1144 11                       @ ../ThirdParty/STM32F4xx_HAL_Driver/Src/stm32f4xx_hal_can.c:1144:11
	lsls	r0, r0, #30
	cbnz	r0, .LBB15_9
	b	.LBB15_8
.LBB15_8:
.Ltmp203:
	.loc	6 1147 9 is_stmt 1              @ ../ThirdParty/STM32F4xx_HAL_Driver/Src/stm32f4xx_hal_can.c:1147:9
	ldr	r1, [sp, #12]
	.loc	6 1147 25 is_stmt 0             @ ../ThirdParty/STM32F4xx_HAL_Driver/Src/stm32f4xx_hal_can.c:1147:25
	ldr	r0, [r1, #36]
	orr	r0, r0, #2097152
	str	r0, [r1, #36]
	movs	r0, #1
	.loc	6 1149 9 is_stmt 1              @ ../ThirdParty/STM32F4xx_HAL_Driver/Src/stm32f4xx_hal_can.c:1149:9
	strb.w	r0, [sp, #19]
	b	.LBB15_21
.Ltmp204:
.LBB15_9:
	.loc	6 1151 5                        @ ../ThirdParty/STM32F4xx_HAL_Driver/Src/stm32f4xx_hal_can.c:1151:5
	b	.LBB15_10
.Ltmp205:
.LBB15_10:
	.loc	6 0 5 is_stmt 0                 @ ../ThirdParty/STM32F4xx_HAL_Driver/Src/stm32f4xx_hal_can.c:0:5
	b	.LBB15_11
.LBB15_11:
	.loc	6 1154 35 is_stmt 1             @ ../ThirdParty/STM32F4xx_HAL_Driver/Src/stm32f4xx_hal_can.c:1154:35
	ldr	r0, [sp, #12]
	.loc	6 1154 41 is_stmt 0             @ ../ThirdParty/STM32F4xx_HAL_Driver/Src/stm32f4xx_hal_can.c:1154:41
	ldr	r0, [r0]
	.loc	6 1154 64                       @ ../ThirdParty/STM32F4xx_HAL_Driver/Src/stm32f4xx_hal_can.c:1154:64
	ldr	r1, [sp, #8]
	.loc	6 1154 51                       @ ../ThirdParty/STM32F4xx_HAL_Driver/Src/stm32f4xx_hal_can.c:1154:51
	add.w	r0, r0, r1, lsl #4
	.loc	6 1154 72                       @ ../ThirdParty/STM32F4xx_HAL_Driver/Src/stm32f4xx_hal_can.c:1154:72
	ldr.w	r0, [r0, #432]
	.loc	6 1154 33                       @ ../ThirdParty/STM32F4xx_HAL_Driver/Src/stm32f4xx_hal_can.c:1154:33
	and	r0, r0, #4
	.loc	6 1154 5                        @ ../ThirdParty/STM32F4xx_HAL_Driver/Src/stm32f4xx_hal_can.c:1154:5
	ldr	r1, [sp, #4]
	.loc	6 1154 18                       @ ../ThirdParty/STM32F4xx_HAL_Driver/Src/stm32f4xx_hal_can.c:1154:18
	str	r0, [r1, #8]
.Ltmp206:
	.loc	6 1155 9 is_stmt 1              @ ../ThirdParty/STM32F4xx_HAL_Driver/Src/stm32f4xx_hal_can.c:1155:9
	ldr	r0, [sp, #4]
	.loc	6 1155 18 is_stmt 0             @ ../ThirdParty/STM32F4xx_HAL_Driver/Src/stm32f4xx_hal_can.c:1155:18
	ldr	r0, [r0, #8]
.Ltmp207:
	.loc	6 1155 9                        @ ../ThirdParty/STM32F4xx_HAL_Driver/Src/stm32f4xx_hal_can.c:1155:9
	cbnz	r0, .LBB15_13
	b	.LBB15_12
.LBB15_12:
.Ltmp208:
	.loc	6 1157 41 is_stmt 1             @ ../ThirdParty/STM32F4xx_HAL_Driver/Src/stm32f4xx_hal_can.c:1157:41
	ldr	r0, [sp, #12]
	.loc	6 1157 47 is_stmt 0             @ ../ThirdParty/STM32F4xx_HAL_Driver/Src/stm32f4xx_hal_can.c:1157:47
	ldr	r0, [r0]
	.loc	6 1157 70                       @ ../ThirdParty/STM32F4xx_HAL_Driver/Src/stm32f4xx_hal_can.c:1157:70
	ldr	r1, [sp, #8]
	.loc	6 1157 57                       @ ../ThirdParty/STM32F4xx_HAL_Driver/Src/stm32f4xx_hal_can.c:1157:57
	add.w	r0, r0, r1, lsl #4
	.loc	6 1157 78                       @ ../ThirdParty/STM32F4xx_HAL_Driver/Src/stm32f4xx_hal_can.c:1157:78
	ldr.w	r0, [r0, #432]
	.loc	6 1157 83                       @ ../ThirdParty/STM32F4xx_HAL_Driver/Src/stm32f4xx_hal_can.c:1157:83
	lsrs	r0, r0, #21
	.loc	6 1157 7                        @ ../ThirdParty/STM32F4xx_HAL_Driver/Src/stm32f4xx_hal_can.c:1157:7
	ldr	r1, [sp, #4]
	.loc	6 1157 22                       @ ../ThirdParty/STM32F4xx_HAL_Driver/Src/stm32f4xx_hal_can.c:1157:22
	str	r0, [r1]
	.loc	6 1158 5 is_stmt 1              @ ../ThirdParty/STM32F4xx_HAL_Driver/Src/stm32f4xx_hal_can.c:1158:5
	b	.LBB15_14
.Ltmp209:
.LBB15_13:
	.loc	6 1161 59                       @ ../ThirdParty/STM32F4xx_HAL_Driver/Src/stm32f4xx_hal_can.c:1161:59
	ldr	r0, [sp, #12]
	.loc	6 1161 65 is_stmt 0             @ ../ThirdParty/STM32F4xx_HAL_Driver/Src/stm32f4xx_hal_can.c:1161:65
	ldr	r0, [r0]
	.loc	6 1161 88                       @ ../ThirdParty/STM32F4xx_HAL_Driver/Src/stm32f4xx_hal_can.c:1161:88
	ldr	r1, [sp, #8]
	.loc	6 1161 75                       @ ../ThirdParty/STM32F4xx_HAL_Driver/Src/stm32f4xx_hal_can.c:1161:75
	add.w	r0, r0, r1, lsl #4
	.loc	6 1161 96                       @ ../ThirdParty/STM32F4xx_HAL_Driver/Src/stm32f4xx_hal_can.c:1161:96
	ldr.w	r0, [r0, #432]
	.loc	6 1161 101                      @ ../ThirdParty/STM32F4xx_HAL_Driver/Src/stm32f4xx_hal_can.c:1161:101
	lsrs	r0, r0, #3
	.loc	6 1161 7                        @ ../ThirdParty/STM32F4xx_HAL_Driver/Src/stm32f4xx_hal_can.c:1161:7
	ldr	r1, [sp, #4]
	.loc	6 1161 22                       @ ../ThirdParty/STM32F4xx_HAL_Driver/Src/stm32f4xx_hal_can.c:1161:22
	str	r0, [r1, #4]
	b	.LBB15_14
.Ltmp210:
.LBB15_14:
	.loc	6 1163 36 is_stmt 1             @ ../ThirdParty/STM32F4xx_HAL_Driver/Src/stm32f4xx_hal_can.c:1163:36
	ldr	r0, [sp, #12]
	.loc	6 1163 42 is_stmt 0             @ ../ThirdParty/STM32F4xx_HAL_Driver/Src/stm32f4xx_hal_can.c:1163:42
	ldr	r0, [r0]
	.loc	6 1163 65                       @ ../ThirdParty/STM32F4xx_HAL_Driver/Src/stm32f4xx_hal_can.c:1163:65
	ldr	r1, [sp, #8]
	.loc	6 1163 52                       @ ../ThirdParty/STM32F4xx_HAL_Driver/Src/stm32f4xx_hal_can.c:1163:52
	add.w	r0, r0, r1, lsl #4
	.loc	6 1163 73                       @ ../ThirdParty/STM32F4xx_HAL_Driver/Src/stm32f4xx_hal_can.c:1163:73
	ldr.w	r0, [r0, #432]
	.loc	6 1163 78                       @ ../ThirdParty/STM32F4xx_HAL_Driver/Src/stm32f4xx_hal_can.c:1163:78
	ubfx	r0, r0, #1, #1
	.loc	6 1163 5                        @ ../ThirdParty/STM32F4xx_HAL_Driver/Src/stm32f4xx_hal_can.c:1163:5
	ldr	r1, [sp, #4]
	.loc	6 1163 18                       @ ../ThirdParty/STM32F4xx_HAL_Driver/Src/stm32f4xx_hal_can.c:1163:18
	str	r0, [r1, #12]
	.loc	6 1164 37 is_stmt 1             @ ../ThirdParty/STM32F4xx_HAL_Driver/Src/stm32f4xx_hal_can.c:1164:37
	ldr	r0, [sp, #12]
	.loc	6 1164 43 is_stmt 0             @ ../ThirdParty/STM32F4xx_HAL_Driver/Src/stm32f4xx_hal_can.c:1164:43
	ldr	r0, [r0]
	.loc	6 1164 66                       @ ../ThirdParty/STM32F4xx_HAL_Driver/Src/stm32f4xx_hal_can.c:1164:66
	ldr	r1, [sp, #8]
	.loc	6 1164 53                       @ ../ThirdParty/STM32F4xx_HAL_Driver/Src/stm32f4xx_hal_can.c:1164:53
	add.w	r0, r0, r1, lsl #4
	.loc	6 1164 74                       @ ../ThirdParty/STM32F4xx_HAL_Driver/Src/stm32f4xx_hal_can.c:1164:74
	ldr.w	r0, [r0, #436]
	.loc	6 1164 35                       @ ../ThirdParty/STM32F4xx_HAL_Driver/Src/stm32f4xx_hal_can.c:1164:35
	and	r0, r0, #15
	.loc	6 1164 5                        @ ../ThirdParty/STM32F4xx_HAL_Driver/Src/stm32f4xx_hal_can.c:1164:5
	ldr	r1, [sp, #4]
	.loc	6 1164 18                       @ ../ThirdParty/STM32F4xx_HAL_Driver/Src/stm32f4xx_hal_can.c:1164:18
	str	r0, [r1, #16]
	.loc	6 1165 50 is_stmt 1             @ ../ThirdParty/STM32F4xx_HAL_Driver/Src/stm32f4xx_hal_can.c:1165:50
	ldr	r0, [sp, #12]
	.loc	6 1165 56 is_stmt 0             @ ../ThirdParty/STM32F4xx_HAL_Driver/Src/stm32f4xx_hal_can.c:1165:56
	ldr	r0, [r0]
	.loc	6 1165 79                       @ ../ThirdParty/STM32F4xx_HAL_Driver/Src/stm32f4xx_hal_can.c:1165:79
	ldr	r1, [sp, #8]
	.loc	6 1165 66                       @ ../ThirdParty/STM32F4xx_HAL_Driver/Src/stm32f4xx_hal_can.c:1165:66
	add.w	r0, r0, r1, lsl #4
	.loc	6 1165 87                       @ ../ThirdParty/STM32F4xx_HAL_Driver/Src/stm32f4xx_hal_can.c:1165:87
	ldr.w	r0, [r0, #436]
	.loc	6 1165 48                       @ ../ThirdParty/STM32F4xx_HAL_Driver/Src/stm32f4xx_hal_can.c:1165:48
	uxth	r0, r0
	.loc	6 1165 93                       @ ../ThirdParty/STM32F4xx_HAL_Driver/Src/stm32f4xx_hal_can.c:1165:93
	lsrs	r0, r0, #8
	.loc	6 1165 5                        @ ../ThirdParty/STM32F4xx_HAL_Driver/Src/stm32f4xx_hal_can.c:1165:5
	ldr	r1, [sp, #4]
	.loc	6 1165 31                       @ ../ThirdParty/STM32F4xx_HAL_Driver/Src/stm32f4xx_hal_can.c:1165:31
	str	r0, [r1, #24]
	.loc	6 1166 44 is_stmt 1             @ ../ThirdParty/STM32F4xx_HAL_Driver/Src/stm32f4xx_hal_can.c:1166:44
	ldr	r0, [sp, #12]
	.loc	6 1166 50 is_stmt 0             @ ../ThirdParty/STM32F4xx_HAL_Driver/Src/stm32f4xx_hal_can.c:1166:50
	ldr	r0, [r0]
	.loc	6 1166 73                       @ ../ThirdParty/STM32F4xx_HAL_Driver/Src/stm32f4xx_hal_can.c:1166:73
	ldr	r1, [sp, #8]
	.loc	6 1166 60                       @ ../ThirdParty/STM32F4xx_HAL_Driver/Src/stm32f4xx_hal_can.c:1166:60
	add.w	r0, r0, r1, lsl #4
	.loc	6 1166 81                       @ ../ThirdParty/STM32F4xx_HAL_Driver/Src/stm32f4xx_hal_can.c:1166:81
	ldr.w	r0, [r0, #436]
	.loc	6 1166 87                       @ ../ThirdParty/STM32F4xx_HAL_Driver/Src/stm32f4xx_hal_can.c:1166:87
	lsrs	r0, r0, #16
	.loc	6 1166 5                        @ ../ThirdParty/STM32F4xx_HAL_Driver/Src/stm32f4xx_hal_can.c:1166:5
	ldr	r1, [sp, #4]
	.loc	6 1166 24                       @ ../ThirdParty/STM32F4xx_HAL_Driver/Src/stm32f4xx_hal_can.c:1166:24
	str	r0, [r1, #20]
	.loc	6 1169 35 is_stmt 1             @ ../ThirdParty/STM32F4xx_HAL_Driver/Src/stm32f4xx_hal_can.c:1169:35
	ldr	r0, [sp, #12]
	.loc	6 1169 41 is_stmt 0             @ ../ThirdParty/STM32F4xx_HAL_Driver/Src/stm32f4xx_hal_can.c:1169:41
	ldr	r0, [r0]
	.loc	6 1169 64                       @ ../ThirdParty/STM32F4xx_HAL_Driver/Src/stm32f4xx_hal_can.c:1169:64
	ldr	r1, [sp, #8]
	.loc	6 1169 51                       @ ../ThirdParty/STM32F4xx_HAL_Driver/Src/stm32f4xx_hal_can.c:1169:51
	add.w	r0, r0, r1, lsl #4
	.loc	6 1169 72                       @ ../ThirdParty/STM32F4xx_HAL_Driver/Src/stm32f4xx_hal_can.c:1169:72
	ldr.w	r0, [r0, #440]
	.loc	6 1169 5                        @ ../ThirdParty/STM32F4xx_HAL_Driver/Src/stm32f4xx_hal_can.c:1169:5
	ldr	r1, [sp]
	.loc	6 1169 14                       @ ../ThirdParty/STM32F4xx_HAL_Driver/Src/stm32f4xx_hal_can.c:1169:14
	strb	r0, [r1]
	.loc	6 1170 35 is_stmt 1             @ ../ThirdParty/STM32F4xx_HAL_Driver/Src/stm32f4xx_hal_can.c:1170:35
	ldr	r0, [sp, #12]
	.loc	6 1170 41 is_stmt 0             @ ../ThirdParty/STM32F4xx_HAL_Driver/Src/stm32f4xx_hal_can.c:1170:41
	ldr	r0, [r0]
	.loc	6 1170 64                       @ ../ThirdParty/STM32F4xx_HAL_Driver/Src/stm32f4xx_hal_can.c:1170:64
	ldr	r1, [sp, #8]
	.loc	6 1170 51                       @ ../ThirdParty/STM32F4xx_HAL_Driver/Src/stm32f4xx_hal_can.c:1170:51
	add.w	r0, r0, r1, lsl #4
	.loc	6 1170 72                       @ ../ThirdParty/STM32F4xx_HAL_Driver/Src/stm32f4xx_hal_can.c:1170:72
	ldr.w	r0, [r0, #440]
	.loc	6 1170 78                       @ ../ThirdParty/STM32F4xx_HAL_Driver/Src/stm32f4xx_hal_can.c:1170:78
	lsrs	r0, r0, #8
	.loc	6 1170 5                        @ ../ThirdParty/STM32F4xx_HAL_Driver/Src/stm32f4xx_hal_can.c:1170:5
	ldr	r1, [sp]
	.loc	6 1170 14                       @ ../ThirdParty/STM32F4xx_HAL_Driver/Src/stm32f4xx_hal_can.c:1170:14
	strb	r0, [r1, #1]
	.loc	6 1171 35 is_stmt 1             @ ../ThirdParty/STM32F4xx_HAL_Driver/Src/stm32f4xx_hal_can.c:1171:35
	ldr	r0, [sp, #12]
	.loc	6 1171 41 is_stmt 0             @ ../ThirdParty/STM32F4xx_HAL_Driver/Src/stm32f4xx_hal_can.c:1171:41
	ldr	r0, [r0]
	.loc	6 1171 64                       @ ../ThirdParty/STM32F4xx_HAL_Driver/Src/stm32f4xx_hal_can.c:1171:64
	ldr	r1, [sp, #8]
	.loc	6 1171 51                       @ ../ThirdParty/STM32F4xx_HAL_Driver/Src/stm32f4xx_hal_can.c:1171:51
	add.w	r0, r0, r1, lsl #4
	.loc	6 1171 72                       @ ../ThirdParty/STM32F4xx_HAL_Driver/Src/stm32f4xx_hal_can.c:1171:72
	ldr.w	r0, [r0, #440]
	.loc	6 1171 78                       @ ../ThirdParty/STM32F4xx_HAL_Driver/Src/stm32f4xx_hal_can.c:1171:78
	lsrs	r0, r0, #16
	.loc	6 1171 5                        @ ../ThirdParty/STM32F4xx_HAL_Driver/Src/stm32f4xx_hal_can.c:1171:5
	ldr	r1, [sp]
	.loc	6 1171 14                       @ ../ThirdParty/STM32F4xx_HAL_Driver/Src/stm32f4xx_hal_can.c:1171:14
	strb	r0, [r1, #2]
	.loc	6 1172 35 is_stmt 1             @ ../ThirdParty/STM32F4xx_HAL_Driver/Src/stm32f4xx_hal_can.c:1172:35
	ldr	r0, [sp, #12]
	.loc	6 1172 41 is_stmt 0             @ ../ThirdParty/STM32F4xx_HAL_Driver/Src/stm32f4xx_hal_can.c:1172:41
	ldr	r0, [r0]
	.loc	6 1172 64                       @ ../ThirdParty/STM32F4xx_HAL_Driver/Src/stm32f4xx_hal_can.c:1172:64
	ldr	r1, [sp, #8]
	.loc	6 1172 51                       @ ../ThirdParty/STM32F4xx_HAL_Driver/Src/stm32f4xx_hal_can.c:1172:51
	add.w	r0, r0, r1, lsl #4
	.loc	6 1172 72                       @ ../ThirdParty/STM32F4xx_HAL_Driver/Src/stm32f4xx_hal_can.c:1172:72
	ldr.w	r0, [r0, #440]
	.loc	6 1172 78                       @ ../ThirdParty/STM32F4xx_HAL_Driver/Src/stm32f4xx_hal_can.c:1172:78
	lsrs	r0, r0, #24
	.loc	6 1172 5                        @ ../ThirdParty/STM32F4xx_HAL_Driver/Src/stm32f4xx_hal_can.c:1172:5
	ldr	r1, [sp]
	.loc	6 1172 14                       @ ../ThirdParty/STM32F4xx_HAL_Driver/Src/stm32f4xx_hal_can.c:1172:14
	strb	r0, [r1, #3]
	.loc	6 1173 35 is_stmt 1             @ ../ThirdParty/STM32F4xx_HAL_Driver/Src/stm32f4xx_hal_can.c:1173:35
	ldr	r0, [sp, #12]
	.loc	6 1173 41 is_stmt 0             @ ../ThirdParty/STM32F4xx_HAL_Driver/Src/stm32f4xx_hal_can.c:1173:41
	ldr	r0, [r0]
	.loc	6 1173 64                       @ ../ThirdParty/STM32F4xx_HAL_Driver/Src/stm32f4xx_hal_can.c:1173:64
	ldr	r1, [sp, #8]
	.loc	6 1173 51                       @ ../ThirdParty/STM32F4xx_HAL_Driver/Src/stm32f4xx_hal_can.c:1173:51
	add.w	r0, r0, r1, lsl #4
	.loc	6 1173 72                       @ ../ThirdParty/STM32F4xx_HAL_Driver/Src/stm32f4xx_hal_can.c:1173:72
	ldr.w	r0, [r0, #444]
	.loc	6 1173 5                        @ ../ThirdParty/STM32F4xx_HAL_Driver/Src/stm32f4xx_hal_can.c:1173:5
	ldr	r1, [sp]
	.loc	6 1173 14                       @ ../ThirdParty/STM32F4xx_HAL_Driver/Src/stm32f4xx_hal_can.c:1173:14
	strb	r0, [r1, #4]
	.loc	6 1174 35 is_stmt 1             @ ../ThirdParty/STM32F4xx_HAL_Driver/Src/stm32f4xx_hal_can.c:1174:35
	ldr	r0, [sp, #12]
	.loc	6 1174 41 is_stmt 0             @ ../ThirdParty/STM32F4xx_HAL_Driver/Src/stm32f4xx_hal_can.c:1174:41
	ldr	r0, [r0]
	.loc	6 1174 64                       @ ../ThirdParty/STM32F4xx_HAL_Driver/Src/stm32f4xx_hal_can.c:1174:64
	ldr	r1, [sp, #8]
	.loc	6 1174 51                       @ ../ThirdParty/STM32F4xx_HAL_Driver/Src/stm32f4xx_hal_can.c:1174:51
	add.w	r0, r0, r1, lsl #4
	.loc	6 1174 72                       @ ../ThirdParty/STM32F4xx_HAL_Driver/Src/stm32f4xx_hal_can.c:1174:72
	ldr.w	r0, [r0, #444]
	.loc	6 1174 78                       @ ../ThirdParty/STM32F4xx_HAL_Driver/Src/stm32f4xx_hal_can.c:1174:78
	lsrs	r0, r0, #8
	.loc	6 1174 5                        @ ../ThirdParty/STM32F4xx_HAL_Driver/Src/stm32f4xx_hal_can.c:1174:5
	ldr	r1, [sp]
	.loc	6 1174 14                       @ ../ThirdParty/STM32F4xx_HAL_Driver/Src/stm32f4xx_hal_can.c:1174:14
	strb	r0, [r1, #5]
	.loc	6 1175 35 is_stmt 1             @ ../ThirdParty/STM32F4xx_HAL_Driver/Src/stm32f4xx_hal_can.c:1175:35
	ldr	r0, [sp, #12]
	.loc	6 1175 41 is_stmt 0             @ ../ThirdParty/STM32F4xx_HAL_Driver/Src/stm32f4xx_hal_can.c:1175:41
	ldr	r0, [r0]
	.loc	6 1175 64                       @ ../ThirdParty/STM32F4xx_HAL_Driver/Src/stm32f4xx_hal_can.c:1175:64
	ldr	r1, [sp, #8]
	.loc	6 1175 51                       @ ../ThirdParty/STM32F4xx_HAL_Driver/Src/stm32f4xx_hal_can.c:1175:51
	add.w	r0, r0, r1, lsl #4
	.loc	6 1175 72                       @ ../ThirdParty/STM32F4xx_HAL_Driver/Src/stm32f4xx_hal_can.c:1175:72
	ldr.w	r0, [r0, #444]
	.loc	6 1175 78                       @ ../ThirdParty/STM32F4xx_HAL_Driver/Src/stm32f4xx_hal_can.c:1175:78
	lsrs	r0, r0, #16
	.loc	6 1175 5                        @ ../ThirdParty/STM32F4xx_HAL_Driver/Src/stm32f4xx_hal_can.c:1175:5
	ldr	r1, [sp]
	.loc	6 1175 14                       @ ../ThirdParty/STM32F4xx_HAL_Driver/Src/stm32f4xx_hal_can.c:1175:14
	strb	r0, [r1, #6]
	.loc	6 1176 35 is_stmt 1             @ ../ThirdParty/STM32F4xx_HAL_Driver/Src/stm32f4xx_hal_can.c:1176:35
	ldr	r0, [sp, #12]
	.loc	6 1176 41 is_stmt 0             @ ../ThirdParty/STM32F4xx_HAL_Driver/Src/stm32f4xx_hal_can.c:1176:41
	ldr	r0, [r0]
	.loc	6 1176 64                       @ ../ThirdParty/STM32F4xx_HAL_Driver/Src/stm32f4xx_hal_can.c:1176:64
	ldr	r1, [sp, #8]
	.loc	6 1176 51                       @ ../ThirdParty/STM32F4xx_HAL_Driver/Src/stm32f4xx_hal_can.c:1176:51
	add.w	r0, r0, r1, lsl #4
	.loc	6 1176 72                       @ ../ThirdParty/STM32F4xx_HAL_Driver/Src/stm32f4xx_hal_can.c:1176:72
	ldr.w	r0, [r0, #444]
	.loc	6 1176 78                       @ ../ThirdParty/STM32F4xx_HAL_Driver/Src/stm32f4xx_hal_can.c:1176:78
	lsrs	r0, r0, #24
	.loc	6 1176 5                        @ ../ThirdParty/STM32F4xx_HAL_Driver/Src/stm32f4xx_hal_can.c:1176:5
	ldr	r1, [sp]
	.loc	6 1176 14                       @ ../ThirdParty/STM32F4xx_HAL_Driver/Src/stm32f4xx_hal_can.c:1176:14
	strb	r0, [r1, #7]
.Ltmp211:
	.loc	6 1179 9 is_stmt 1              @ ../ThirdParty/STM32F4xx_HAL_Driver/Src/stm32f4xx_hal_can.c:1179:9
	ldr	r0, [sp, #8]
.Ltmp212:
	.loc	6 1179 9 is_stmt 0              @ ../ThirdParty/STM32F4xx_HAL_Driver/Src/stm32f4xx_hal_can.c:1179:9
	cbnz	r0, .LBB15_16
	b	.LBB15_15
.LBB15_15:
.Ltmp213:
	.loc	6 1182 7 is_stmt 1              @ ../ThirdParty/STM32F4xx_HAL_Driver/Src/stm32f4xx_hal_can.c:1182:7
	ldr	r0, [sp, #12]
	ldr	r1, [r0]
	ldr	r0, [r1, #12]
	orr	r0, r0, #32
	str	r0, [r1, #12]
	.loc	6 1183 5                        @ ../ThirdParty/STM32F4xx_HAL_Driver/Src/stm32f4xx_hal_can.c:1183:5
	b	.LBB15_19
.Ltmp214:
.LBB15_16:
	.loc	6 1184 14                       @ ../ThirdParty/STM32F4xx_HAL_Driver/Src/stm32f4xx_hal_can.c:1184:14
	ldr	r0, [sp, #8]
.Ltmp215:
	.loc	6 1184 14 is_stmt 0             @ ../ThirdParty/STM32F4xx_HAL_Driver/Src/stm32f4xx_hal_can.c:1184:14
	cmp	r0, #1
	bne	.LBB15_18
	b	.LBB15_17
.LBB15_17:
.Ltmp216:
	.loc	6 1187 7 is_stmt 1              @ ../ThirdParty/STM32F4xx_HAL_Driver/Src/stm32f4xx_hal_can.c:1187:7
	ldr	r0, [sp, #12]
	ldr	r1, [r0]
	ldr	r0, [r1, #16]
	orr	r0, r0, #32
	str	r0, [r1, #16]
	.loc	6 1188 5                        @ ../ThirdParty/STM32F4xx_HAL_Driver/Src/stm32f4xx_hal_can.c:1188:5
	b	.LBB15_18
.Ltmp217:
.LBB15_18:
	.loc	6 0 5 is_stmt 0                 @ ../ThirdParty/STM32F4xx_HAL_Driver/Src/stm32f4xx_hal_can.c:0:5
	b	.LBB15_19
.LBB15_19:
	movs	r0, #0
	.loc	6 1191 5 is_stmt 1              @ ../ThirdParty/STM32F4xx_HAL_Driver/Src/stm32f4xx_hal_can.c:1191:5
	strb.w	r0, [sp, #19]
	b	.LBB15_21
.Ltmp218:
.LBB15_20:
	.loc	6 1196 5                        @ ../ThirdParty/STM32F4xx_HAL_Driver/Src/stm32f4xx_hal_can.c:1196:5
	ldr	r1, [sp, #12]
	.loc	6 1196 21 is_stmt 0             @ ../ThirdParty/STM32F4xx_HAL_Driver/Src/stm32f4xx_hal_can.c:1196:21
	ldr	r0, [r1, #36]
	orr	r0, r0, #262144
	str	r0, [r1, #36]
	movs	r0, #1
	.loc	6 1198 5 is_stmt 1              @ ../ThirdParty/STM32F4xx_HAL_Driver/Src/stm32f4xx_hal_can.c:1198:5
	strb.w	r0, [sp, #19]
	b	.LBB15_21
.Ltmp219:
.LBB15_21:
	.loc	6 1200 1                        @ ../ThirdParty/STM32F4xx_HAL_Driver/Src/stm32f4xx_hal_can.c:1200:1
	ldrb.w	r0, [sp, #19]
	.loc	6 1200 1 epilogue_begin is_stmt 0 @ ../ThirdParty/STM32F4xx_HAL_Driver/Src/stm32f4xx_hal_can.c:1200:1
	add	sp, #20
	bx	lr
.Ltmp220:
.Lfunc_end15:
	.size	HAL_CAN_GetRxMessage, .Lfunc_end15-HAL_CAN_GetRxMessage
	.cfi_endproc
	.cantunwind
	.fnend
                                        @ -- End function
	.section	.text.HAL_CAN_GetRxFifoFillLevel,"ax",%progbits
	.hidden	HAL_CAN_GetRxFifoFillLevel      @ -- Begin function HAL_CAN_GetRxFifoFillLevel
	.globl	HAL_CAN_GetRxFifoFillLevel
	.p2align	2
	.type	HAL_CAN_GetRxFifoFillLevel,%function
	.code	16                              @ @HAL_CAN_GetRxFifoFillLevel
	.thumb_func
HAL_CAN_GetRxFifoFillLevel:
.Lfunc_begin16:
	.loc	6 1211 0 is_stmt 1              @ ../ThirdParty/STM32F4xx_HAL_Driver/Src/stm32f4xx_hal_can.c:1211:0
	.fnstart
	.cfi_startproc
@ %bb.0:
	.pad	#12
	sub	sp, #12
	.cfi_def_cfa_offset 12
	str	r0, [sp, #8]
	str	r1, [sp, #4]
	movs	r0, #0
.Ltmp221:
	.loc	6 1212 12 prologue_end          @ ../ThirdParty/STM32F4xx_HAL_Driver/Src/stm32f4xx_hal_can.c:1212:12
	str	r0, [sp]
.Ltmp222:
	.loc	6 1217 8                        @ ../ThirdParty/STM32F4xx_HAL_Driver/Src/stm32f4xx_hal_can.c:1217:8
	ldr	r0, [sp, #8]
	.loc	6 1217 14 is_stmt 0             @ ../ThirdParty/STM32F4xx_HAL_Driver/Src/stm32f4xx_hal_can.c:1217:14
	ldrb.w	r0, [r0, #32]
	.loc	6 1217 44                       @ ../ThirdParty/STM32F4xx_HAL_Driver/Src/stm32f4xx_hal_can.c:1217:44
	cmp	r0, #1
	beq	.LBB16_2
	b	.LBB16_1
.LBB16_1:
	.loc	6 1218 8 is_stmt 1              @ ../ThirdParty/STM32F4xx_HAL_Driver/Src/stm32f4xx_hal_can.c:1218:8
	ldr	r0, [sp, #8]
	.loc	6 1218 14 is_stmt 0             @ ../ThirdParty/STM32F4xx_HAL_Driver/Src/stm32f4xx_hal_can.c:1218:14
	ldrb.w	r0, [r0, #32]
.Ltmp223:
	.loc	6 1217 7 is_stmt 1              @ ../ThirdParty/STM32F4xx_HAL_Driver/Src/stm32f4xx_hal_can.c:1217:7
	cmp	r0, #2
	bne	.LBB16_6
	b	.LBB16_2
.LBB16_2:
.Ltmp224:
	.loc	6 1220 9                        @ ../ThirdParty/STM32F4xx_HAL_Driver/Src/stm32f4xx_hal_can.c:1220:9
	ldr	r0, [sp, #4]
.Ltmp225:
	.loc	6 1220 9 is_stmt 0              @ ../ThirdParty/STM32F4xx_HAL_Driver/Src/stm32f4xx_hal_can.c:1220:9
	cbnz	r0, .LBB16_4
	b	.LBB16_3
.LBB16_3:
.Ltmp226:
	.loc	6 1222 19 is_stmt 1             @ ../ThirdParty/STM32F4xx_HAL_Driver/Src/stm32f4xx_hal_can.c:1222:19
	ldr	r0, [sp, #8]
	.loc	6 1222 25 is_stmt 0             @ ../ThirdParty/STM32F4xx_HAL_Driver/Src/stm32f4xx_hal_can.c:1222:25
	ldr	r0, [r0]
	.loc	6 1222 35                       @ ../ThirdParty/STM32F4xx_HAL_Driver/Src/stm32f4xx_hal_can.c:1222:35
	ldr	r0, [r0, #12]
	.loc	6 1222 40                       @ ../ThirdParty/STM32F4xx_HAL_Driver/Src/stm32f4xx_hal_can.c:1222:40
	and	r0, r0, #3
	.loc	6 1222 17                       @ ../ThirdParty/STM32F4xx_HAL_Driver/Src/stm32f4xx_hal_can.c:1222:17
	str	r0, [sp]
	.loc	6 1223 5 is_stmt 1              @ ../ThirdParty/STM32F4xx_HAL_Driver/Src/stm32f4xx_hal_can.c:1223:5
	b	.LBB16_5
.Ltmp227:
.LBB16_4:
	.loc	6 1226 19                       @ ../ThirdParty/STM32F4xx_HAL_Driver/Src/stm32f4xx_hal_can.c:1226:19
	ldr	r0, [sp, #8]
	.loc	6 1226 25 is_stmt 0             @ ../ThirdParty/STM32F4xx_HAL_Driver/Src/stm32f4xx_hal_can.c:1226:25
	ldr	r0, [r0]
	.loc	6 1226 35                       @ ../ThirdParty/STM32F4xx_HAL_Driver/Src/stm32f4xx_hal_can.c:1226:35
	ldr	r0, [r0, #16]
	.loc	6 1226 40                       @ ../ThirdParty/STM32F4xx_HAL_Driver/Src/stm32f4xx_hal_can.c:1226:40
	and	r0, r0, #3
	.loc	6 1226 17                       @ ../ThirdParty/STM32F4xx_HAL_Driver/Src/stm32f4xx_hal_can.c:1226:17
	str	r0, [sp]
	b	.LBB16_5
.Ltmp228:
.LBB16_5:
	.loc	6 1228 3 is_stmt 1              @ ../ThirdParty/STM32F4xx_HAL_Driver/Src/stm32f4xx_hal_can.c:1228:3
	b	.LBB16_6
.Ltmp229:
.LBB16_6:
	.loc	6 1231 10                       @ ../ThirdParty/STM32F4xx_HAL_Driver/Src/stm32f4xx_hal_can.c:1231:10
	ldr	r0, [sp]
	.loc	6 1231 3 epilogue_begin is_stmt 0 @ ../ThirdParty/STM32F4xx_HAL_Driver/Src/stm32f4xx_hal_can.c:1231:3
	add	sp, #12
	bx	lr
.Ltmp230:
.Lfunc_end16:
	.size	HAL_CAN_GetRxFifoFillLevel, .Lfunc_end16-HAL_CAN_GetRxFifoFillLevel
	.cfi_endproc
	.cantunwind
	.fnend
                                        @ -- End function
	.section	.text.HAL_CAN_ActivateNotification,"ax",%progbits
	.hidden	HAL_CAN_ActivateNotification    @ -- Begin function HAL_CAN_ActivateNotification
	.globl	HAL_CAN_ActivateNotification
	.p2align	2
	.type	HAL_CAN_ActivateNotification,%function
	.code	16                              @ @HAL_CAN_ActivateNotification
	.thumb_func
HAL_CAN_ActivateNotification:
.Lfunc_begin17:
	.loc	6 1263 0 is_stmt 1              @ ../ThirdParty/STM32F4xx_HAL_Driver/Src/stm32f4xx_hal_can.c:1263:0
	.fnstart
	.cfi_startproc
@ %bb.0:
	.pad	#12
	sub	sp, #12
	.cfi_def_cfa_offset 12
	str	r0, [sp, #4]
	str	r1, [sp]
.Ltmp231:
	.loc	6 1267 8 prologue_end           @ ../ThirdParty/STM32F4xx_HAL_Driver/Src/stm32f4xx_hal_can.c:1267:8
	ldr	r0, [sp, #4]
	.loc	6 1267 14 is_stmt 0             @ ../ThirdParty/STM32F4xx_HAL_Driver/Src/stm32f4xx_hal_can.c:1267:14
	ldrb.w	r0, [r0, #32]
	.loc	6 1267 44                       @ ../ThirdParty/STM32F4xx_HAL_Driver/Src/stm32f4xx_hal_can.c:1267:44
	cmp	r0, #1
	beq	.LBB17_2
	b	.LBB17_1
.LBB17_1:
	.loc	6 1268 8 is_stmt 1              @ ../ThirdParty/STM32F4xx_HAL_Driver/Src/stm32f4xx_hal_can.c:1268:8
	ldr	r0, [sp, #4]
	.loc	6 1268 14 is_stmt 0             @ ../ThirdParty/STM32F4xx_HAL_Driver/Src/stm32f4xx_hal_can.c:1268:14
	ldrb.w	r0, [r0, #32]
.Ltmp232:
	.loc	6 1267 7 is_stmt 1              @ ../ThirdParty/STM32F4xx_HAL_Driver/Src/stm32f4xx_hal_can.c:1267:7
	cmp	r0, #2
	bne	.LBB17_3
	b	.LBB17_2
.LBB17_2:
.Ltmp233:
	.loc	6 1271 5                        @ ../ThirdParty/STM32F4xx_HAL_Driver/Src/stm32f4xx_hal_can.c:1271:5
	ldr	r2, [sp]
	ldr	r0, [sp, #4]
	ldr	r1, [r0]
	ldr	r0, [r1, #20]
	orrs	r0, r2
	str	r0, [r1, #20]
	movs	r0, #0
	.loc	6 1274 5                        @ ../ThirdParty/STM32F4xx_HAL_Driver/Src/stm32f4xx_hal_can.c:1274:5
	strb.w	r0, [sp, #11]
	b	.LBB17_4
.Ltmp234:
.LBB17_3:
	.loc	6 1279 5                        @ ../ThirdParty/STM32F4xx_HAL_Driver/Src/stm32f4xx_hal_can.c:1279:5
	ldr	r1, [sp, #4]
	.loc	6 1279 21 is_stmt 0             @ ../ThirdParty/STM32F4xx_HAL_Driver/Src/stm32f4xx_hal_can.c:1279:21
	ldr	r0, [r1, #36]
	orr	r0, r0, #262144
	str	r0, [r1, #36]
	movs	r0, #1
	.loc	6 1281 5 is_stmt 1              @ ../ThirdParty/STM32F4xx_HAL_Driver/Src/stm32f4xx_hal_can.c:1281:5
	strb.w	r0, [sp, #11]
	b	.LBB17_4
.Ltmp235:
.LBB17_4:
	.loc	6 1283 1                        @ ../ThirdParty/STM32F4xx_HAL_Driver/Src/stm32f4xx_hal_can.c:1283:1
	ldrb.w	r0, [sp, #11]
	.loc	6 1283 1 epilogue_begin is_stmt 0 @ ../ThirdParty/STM32F4xx_HAL_Driver/Src/stm32f4xx_hal_can.c:1283:1
	add	sp, #12
	bx	lr
.Ltmp236:
.Lfunc_end17:
	.size	HAL_CAN_ActivateNotification, .Lfunc_end17-HAL_CAN_ActivateNotification
	.cfi_endproc
	.cantunwind
	.fnend
                                        @ -- End function
	.section	.text.HAL_CAN_DeactivateNotification,"ax",%progbits
	.hidden	HAL_CAN_DeactivateNotification  @ -- Begin function HAL_CAN_DeactivateNotification
	.globl	HAL_CAN_DeactivateNotification
	.p2align	2
	.type	HAL_CAN_DeactivateNotification,%function
	.code	16                              @ @HAL_CAN_DeactivateNotification
	.thumb_func
HAL_CAN_DeactivateNotification:
.Lfunc_begin18:
	.loc	6 1294 0 is_stmt 1              @ ../ThirdParty/STM32F4xx_HAL_Driver/Src/stm32f4xx_hal_can.c:1294:0
	.fnstart
	.cfi_startproc
@ %bb.0:
	.pad	#12
	sub	sp, #12
	.cfi_def_cfa_offset 12
	str	r0, [sp, #4]
	str	r1, [sp]
.Ltmp237:
	.loc	6 1298 8 prologue_end           @ ../ThirdParty/STM32F4xx_HAL_Driver/Src/stm32f4xx_hal_can.c:1298:8
	ldr	r0, [sp, #4]
	.loc	6 1298 14 is_stmt 0             @ ../ThirdParty/STM32F4xx_HAL_Driver/Src/stm32f4xx_hal_can.c:1298:14
	ldrb.w	r0, [r0, #32]
	.loc	6 1298 44                       @ ../ThirdParty/STM32F4xx_HAL_Driver/Src/stm32f4xx_hal_can.c:1298:44
	cmp	r0, #1
	beq	.LBB18_2
	b	.LBB18_1
.LBB18_1:
	.loc	6 1299 8 is_stmt 1              @ ../ThirdParty/STM32F4xx_HAL_Driver/Src/stm32f4xx_hal_can.c:1299:8
	ldr	r0, [sp, #4]
	.loc	6 1299 14 is_stmt 0             @ ../ThirdParty/STM32F4xx_HAL_Driver/Src/stm32f4xx_hal_can.c:1299:14
	ldrb.w	r0, [r0, #32]
.Ltmp238:
	.loc	6 1298 7 is_stmt 1              @ ../ThirdParty/STM32F4xx_HAL_Driver/Src/stm32f4xx_hal_can.c:1298:7
	cmp	r0, #2
	bne	.LBB18_3
	b	.LBB18_2
.LBB18_2:
.Ltmp239:
	.loc	6 1302 5                        @ ../ThirdParty/STM32F4xx_HAL_Driver/Src/stm32f4xx_hal_can.c:1302:5
	ldr	r2, [sp]
	ldr	r0, [sp, #4]
	ldr	r1, [r0]
	ldr	r0, [r1, #20]
	bics	r0, r2
	str	r0, [r1, #20]
	movs	r0, #0
	.loc	6 1305 5                        @ ../ThirdParty/STM32F4xx_HAL_Driver/Src/stm32f4xx_hal_can.c:1305:5
	strb.w	r0, [sp, #11]
	b	.LBB18_4
.Ltmp240:
.LBB18_3:
	.loc	6 1310 5                        @ ../ThirdParty/STM32F4xx_HAL_Driver/Src/stm32f4xx_hal_can.c:1310:5
	ldr	r1, [sp, #4]
	.loc	6 1310 21 is_stmt 0             @ ../ThirdParty/STM32F4xx_HAL_Driver/Src/stm32f4xx_hal_can.c:1310:21
	ldr	r0, [r1, #36]
	orr	r0, r0, #262144
	str	r0, [r1, #36]
	movs	r0, #1
	.loc	6 1312 5 is_stmt 1              @ ../ThirdParty/STM32F4xx_HAL_Driver/Src/stm32f4xx_hal_can.c:1312:5
	strb.w	r0, [sp, #11]
	b	.LBB18_4
.Ltmp241:
.LBB18_4:
	.loc	6 1314 1                        @ ../ThirdParty/STM32F4xx_HAL_Driver/Src/stm32f4xx_hal_can.c:1314:1
	ldrb.w	r0, [sp, #11]
	.loc	6 1314 1 epilogue_begin is_stmt 0 @ ../ThirdParty/STM32F4xx_HAL_Driver/Src/stm32f4xx_hal_can.c:1314:1
	add	sp, #12
	bx	lr
.Ltmp242:
.Lfunc_end18:
	.size	HAL_CAN_DeactivateNotification, .Lfunc_end18-HAL_CAN_DeactivateNotification
	.cfi_endproc
	.cantunwind
	.fnend
                                        @ -- End function
	.section	.text.HAL_CAN_IRQHandler,"ax",%progbits
	.hidden	HAL_CAN_IRQHandler              @ -- Begin function HAL_CAN_IRQHandler
	.globl	HAL_CAN_IRQHandler
	.p2align	2
	.type	HAL_CAN_IRQHandler,%function
	.code	16                              @ @HAL_CAN_IRQHandler
	.thumb_func
HAL_CAN_IRQHandler:
.Lfunc_begin19:
	.loc	6 1323 0 is_stmt 1              @ ../ThirdParty/STM32F4xx_HAL_Driver/Src/stm32f4xx_hal_can.c:1323:0
	.fnstart
	.cfi_startproc
@ %bb.0:
	.save	{r7, lr}
	push	{r7, lr}
	.cfi_def_cfa_offset 8
	.cfi_offset lr, -4
	.cfi_offset r7, -8
	.pad	#40
	sub	sp, #40
	.cfi_def_cfa_offset 48
	str	r0, [sp, #36]
	movs	r0, #0
.Ltmp243:
	.loc	6 1324 12 prologue_end          @ ../ThirdParty/STM32F4xx_HAL_Driver/Src/stm32f4xx_hal_can.c:1324:12
	str	r0, [sp, #32]
	.loc	6 1325 25                       @ ../ThirdParty/STM32F4xx_HAL_Driver/Src/stm32f4xx_hal_can.c:1325:25
	ldr	r0, [sp, #36]
	ldr	r0, [r0]
	ldr	r0, [r0, #20]
	.loc	6 1325 12 is_stmt 0             @ ../ThirdParty/STM32F4xx_HAL_Driver/Src/stm32f4xx_hal_can.c:1325:12
	str	r0, [sp, #28]
	.loc	6 1326 23 is_stmt 1             @ ../ThirdParty/STM32F4xx_HAL_Driver/Src/stm32f4xx_hal_can.c:1326:23
	ldr	r0, [sp, #36]
	ldr	r0, [r0]
	ldr	r0, [r0, #4]
	.loc	6 1326 12 is_stmt 0             @ ../ThirdParty/STM32F4xx_HAL_Driver/Src/stm32f4xx_hal_can.c:1326:12
	str	r0, [sp, #24]
	.loc	6 1327 23 is_stmt 1             @ ../ThirdParty/STM32F4xx_HAL_Driver/Src/stm32f4xx_hal_can.c:1327:23
	ldr	r0, [sp, #36]
	ldr	r0, [r0]
	ldr	r0, [r0, #8]
	.loc	6 1327 12 is_stmt 0             @ ../ThirdParty/STM32F4xx_HAL_Driver/Src/stm32f4xx_hal_can.c:1327:12
	str	r0, [sp, #20]
	.loc	6 1328 24 is_stmt 1             @ ../ThirdParty/STM32F4xx_HAL_Driver/Src/stm32f4xx_hal_can.c:1328:24
	ldr	r0, [sp, #36]
	ldr	r0, [r0]
	ldr	r0, [r0, #12]
	.loc	6 1328 12 is_stmt 0             @ ../ThirdParty/STM32F4xx_HAL_Driver/Src/stm32f4xx_hal_can.c:1328:12
	str	r0, [sp, #16]
	.loc	6 1329 24 is_stmt 1             @ ../ThirdParty/STM32F4xx_HAL_Driver/Src/stm32f4xx_hal_can.c:1329:24
	ldr	r0, [sp, #36]
	ldr	r0, [r0]
	ldr	r0, [r0, #16]
	.loc	6 1329 12 is_stmt 0             @ ../ThirdParty/STM32F4xx_HAL_Driver/Src/stm32f4xx_hal_can.c:1329:12
	str	r0, [sp, #12]
	.loc	6 1330 23 is_stmt 1             @ ../ThirdParty/STM32F4xx_HAL_Driver/Src/stm32f4xx_hal_can.c:1330:23
	ldr	r0, [sp, #36]
	ldr	r0, [r0]
	ldr	r0, [r0, #24]
	.loc	6 1330 12 is_stmt 0             @ ../ThirdParty/STM32F4xx_HAL_Driver/Src/stm32f4xx_hal_can.c:1330:12
	str	r0, [sp, #8]
	.loc	6 1333 7 is_stmt 1              @ ../ThirdParty/STM32F4xx_HAL_Driver/Src/stm32f4xx_hal_can.c:1333:7
	ldrb.w	r0, [sp, #28]
	lsls	r0, r0, #31
	cmp	r0, #0
	beq.w	.LBB19_35
	b	.LBB19_1
.LBB19_1:
.Ltmp244:
	.loc	6 1336 9                        @ ../ThirdParty/STM32F4xx_HAL_Driver/Src/stm32f4xx_hal_can.c:1336:9
	ldrb.w	r0, [sp, #20]
	lsls	r0, r0, #31
	cbz	r0, .LBB19_12
	b	.LBB19_2
.LBB19_2:
.Ltmp245:
	.loc	6 1339 7                        @ ../ThirdParty/STM32F4xx_HAL_Driver/Src/stm32f4xx_hal_can.c:1339:7
	ldr	r0, [sp, #36]
	ldr	r1, [r0]
	movs	r0, #1
	str	r0, [r1, #8]
	.loc	6 1341 11                       @ ../ThirdParty/STM32F4xx_HAL_Driver/Src/stm32f4xx_hal_can.c:1341:11
	ldrb.w	r0, [sp, #20]
	lsls	r0, r0, #30
	cmp	r0, #0
	bpl	.LBB19_4
	b	.LBB19_3
.LBB19_3:
.Ltmp246:
	.loc	6 1345 44                       @ ../ThirdParty/STM32F4xx_HAL_Driver/Src/stm32f4xx_hal_can.c:1345:44
	ldr	r0, [sp, #36]
	.loc	6 1345 9 is_stmt 0              @ ../ThirdParty/STM32F4xx_HAL_Driver/Src/stm32f4xx_hal_can.c:1345:9
	bl	HAL_CAN_TxMailbox0CompleteCallback
	.loc	6 1346 7 is_stmt 1              @ ../ThirdParty/STM32F4xx_HAL_Driver/Src/stm32f4xx_hal_can.c:1346:7
	b	.LBB19_11
.Ltmp247:
.LBB19_4:
	.loc	6 1349 13                       @ ../ThirdParty/STM32F4xx_HAL_Driver/Src/stm32f4xx_hal_can.c:1349:13
	ldrb.w	r0, [sp, #20]
	lsls	r0, r0, #29
	cmp	r0, #0
	bpl	.LBB19_6
	b	.LBB19_5
.LBB19_5:
.Ltmp248:
	.loc	6 1352 21                       @ ../ThirdParty/STM32F4xx_HAL_Driver/Src/stm32f4xx_hal_can.c:1352:21
	ldr	r0, [sp, #32]
	orr	r0, r0, #2048
	str	r0, [sp, #32]
	.loc	6 1353 9                        @ ../ThirdParty/STM32F4xx_HAL_Driver/Src/stm32f4xx_hal_can.c:1353:9
	b	.LBB19_10
.Ltmp249:
.LBB19_6:
	.loc	6 1354 18                       @ ../ThirdParty/STM32F4xx_HAL_Driver/Src/stm32f4xx_hal_can.c:1354:18
	ldrb.w	r0, [sp, #20]
	lsls	r0, r0, #28
	cmp	r0, #0
	bpl	.LBB19_8
	b	.LBB19_7
.LBB19_7:
.Ltmp250:
	.loc	6 1357 21                       @ ../ThirdParty/STM32F4xx_HAL_Driver/Src/stm32f4xx_hal_can.c:1357:21
	ldr	r0, [sp, #32]
	orr	r0, r0, #4096
	str	r0, [sp, #32]
	.loc	6 1358 9                        @ ../ThirdParty/STM32F4xx_HAL_Driver/Src/stm32f4xx_hal_can.c:1358:9
	b	.LBB19_9
.Ltmp251:
.LBB19_8:
	.loc	6 1363 43                       @ ../ThirdParty/STM32F4xx_HAL_Driver/Src/stm32f4xx_hal_can.c:1363:43
	ldr	r0, [sp, #36]
	.loc	6 1363 11 is_stmt 0             @ ../ThirdParty/STM32F4xx_HAL_Driver/Src/stm32f4xx_hal_can.c:1363:11
	bl	HAL_CAN_TxMailbox0AbortCallback
	b	.LBB19_9
.Ltmp252:
.LBB19_9:
	.loc	6 0 11                          @ ../ThirdParty/STM32F4xx_HAL_Driver/Src/stm32f4xx_hal_can.c:0:11
	b	.LBB19_10
.LBB19_10:
	b	.LBB19_11
.LBB19_11:
	.loc	6 1366 5 is_stmt 1              @ ../ThirdParty/STM32F4xx_HAL_Driver/Src/stm32f4xx_hal_can.c:1366:5
	b	.LBB19_12
.Ltmp253:
.LBB19_12:
	.loc	6 1369 9                        @ ../ThirdParty/STM32F4xx_HAL_Driver/Src/stm32f4xx_hal_can.c:1369:9
	ldrb.w	r0, [sp, #21]
	lsls	r0, r0, #31
	cbz	r0, .LBB19_23
	b	.LBB19_13
.LBB19_13:
.Ltmp254:
	.loc	6 1372 7                        @ ../ThirdParty/STM32F4xx_HAL_Driver/Src/stm32f4xx_hal_can.c:1372:7
	ldr	r0, [sp, #36]
	ldr	r1, [r0]
	mov.w	r0, #256
	str	r0, [r1, #8]
	.loc	6 1374 11                       @ ../ThirdParty/STM32F4xx_HAL_Driver/Src/stm32f4xx_hal_can.c:1374:11
	ldrb.w	r0, [sp, #21]
	lsls	r0, r0, #30
	cmp	r0, #0
	bpl	.LBB19_15
	b	.LBB19_14
.LBB19_14:
.Ltmp255:
	.loc	6 1378 44                       @ ../ThirdParty/STM32F4xx_HAL_Driver/Src/stm32f4xx_hal_can.c:1378:44
	ldr	r0, [sp, #36]
	.loc	6 1378 9 is_stmt 0              @ ../ThirdParty/STM32F4xx_HAL_Driver/Src/stm32f4xx_hal_can.c:1378:9
	bl	HAL_CAN_TxMailbox1CompleteCallback
	.loc	6 1379 7 is_stmt 1              @ ../ThirdParty/STM32F4xx_HAL_Driver/Src/stm32f4xx_hal_can.c:1379:7
	b	.LBB19_22
.Ltmp256:
.LBB19_15:
	.loc	6 1382 13                       @ ../ThirdParty/STM32F4xx_HAL_Driver/Src/stm32f4xx_hal_can.c:1382:13
	ldrb.w	r0, [sp, #21]
	lsls	r0, r0, #29
	cmp	r0, #0
	bpl	.LBB19_17
	b	.LBB19_16
.LBB19_16:
.Ltmp257:
	.loc	6 1385 21                       @ ../ThirdParty/STM32F4xx_HAL_Driver/Src/stm32f4xx_hal_can.c:1385:21
	ldr	r0, [sp, #32]
	orr	r0, r0, #8192
	str	r0, [sp, #32]
	.loc	6 1386 9                        @ ../ThirdParty/STM32F4xx_HAL_Driver/Src/stm32f4xx_hal_can.c:1386:9
	b	.LBB19_21
.Ltmp258:
.LBB19_17:
	.loc	6 1387 18                       @ ../ThirdParty/STM32F4xx_HAL_Driver/Src/stm32f4xx_hal_can.c:1387:18
	ldrb.w	r0, [sp, #21]
	lsls	r0, r0, #28
	cmp	r0, #0
	bpl	.LBB19_19
	b	.LBB19_18
.LBB19_18:
.Ltmp259:
	.loc	6 1390 21                       @ ../ThirdParty/STM32F4xx_HAL_Driver/Src/stm32f4xx_hal_can.c:1390:21
	ldr	r0, [sp, #32]
	orr	r0, r0, #16384
	str	r0, [sp, #32]
	.loc	6 1391 9                        @ ../ThirdParty/STM32F4xx_HAL_Driver/Src/stm32f4xx_hal_can.c:1391:9
	b	.LBB19_20
.Ltmp260:
.LBB19_19:
	.loc	6 1396 43                       @ ../ThirdParty/STM32F4xx_HAL_Driver/Src/stm32f4xx_hal_can.c:1396:43
	ldr	r0, [sp, #36]
	.loc	6 1396 11 is_stmt 0             @ ../ThirdParty/STM32F4xx_HAL_Driver/Src/stm32f4xx_hal_can.c:1396:11
	bl	HAL_CAN_TxMailbox1AbortCallback
	b	.LBB19_20
.Ltmp261:
.LBB19_20:
	.loc	6 0 11                          @ ../ThirdParty/STM32F4xx_HAL_Driver/Src/stm32f4xx_hal_can.c:0:11
	b	.LBB19_21
.LBB19_21:
	b	.LBB19_22
.LBB19_22:
	.loc	6 1399 5 is_stmt 1              @ ../ThirdParty/STM32F4xx_HAL_Driver/Src/stm32f4xx_hal_can.c:1399:5
	b	.LBB19_23
.Ltmp262:
.LBB19_23:
	.loc	6 1402 9                        @ ../ThirdParty/STM32F4xx_HAL_Driver/Src/stm32f4xx_hal_can.c:1402:9
	ldrb.w	r0, [sp, #22]
	lsls	r0, r0, #31
	cbz	r0, .LBB19_34
	b	.LBB19_24
.LBB19_24:
.Ltmp263:
	.loc	6 1405 7                        @ ../ThirdParty/STM32F4xx_HAL_Driver/Src/stm32f4xx_hal_can.c:1405:7
	ldr	r0, [sp, #36]
	ldr	r1, [r0]
	mov.w	r0, #65536
	str	r0, [r1, #8]
	.loc	6 1407 11                       @ ../ThirdParty/STM32F4xx_HAL_Driver/Src/stm32f4xx_hal_can.c:1407:11
	ldrb.w	r0, [sp, #22]
	lsls	r0, r0, #30
	cmp	r0, #0
	bpl	.LBB19_26
	b	.LBB19_25
.LBB19_25:
.Ltmp264:
	.loc	6 1411 44                       @ ../ThirdParty/STM32F4xx_HAL_Driver/Src/stm32f4xx_hal_can.c:1411:44
	ldr	r0, [sp, #36]
	.loc	6 1411 9 is_stmt 0              @ ../ThirdParty/STM32F4xx_HAL_Driver/Src/stm32f4xx_hal_can.c:1411:9
	bl	HAL_CAN_TxMailbox2CompleteCallback
	.loc	6 1412 7 is_stmt 1              @ ../ThirdParty/STM32F4xx_HAL_Driver/Src/stm32f4xx_hal_can.c:1412:7
	b	.LBB19_33
.Ltmp265:
.LBB19_26:
	.loc	6 1415 13                       @ ../ThirdParty/STM32F4xx_HAL_Driver/Src/stm32f4xx_hal_can.c:1415:13
	ldrb.w	r0, [sp, #22]
	lsls	r0, r0, #29
	cmp	r0, #0
	bpl	.LBB19_28
	b	.LBB19_27
.LBB19_27:
.Ltmp266:
	.loc	6 1418 21                       @ ../ThirdParty/STM32F4xx_HAL_Driver/Src/stm32f4xx_hal_can.c:1418:21
	ldr	r0, [sp, #32]
	orr	r0, r0, #32768
	str	r0, [sp, #32]
	.loc	6 1419 9                        @ ../ThirdParty/STM32F4xx_HAL_Driver/Src/stm32f4xx_hal_can.c:1419:9
	b	.LBB19_32
.Ltmp267:
.LBB19_28:
	.loc	6 1420 18                       @ ../ThirdParty/STM32F4xx_HAL_Driver/Src/stm32f4xx_hal_can.c:1420:18
	ldrb.w	r0, [sp, #22]
	lsls	r0, r0, #28
	cmp	r0, #0
	bpl	.LBB19_30
	b	.LBB19_29
.LBB19_29:
.Ltmp268:
	.loc	6 1423 21                       @ ../ThirdParty/STM32F4xx_HAL_Driver/Src/stm32f4xx_hal_can.c:1423:21
	ldr	r0, [sp, #32]
	orr	r0, r0, #65536
	str	r0, [sp, #32]
	.loc	6 1424 9                        @ ../ThirdParty/STM32F4xx_HAL_Driver/Src/stm32f4xx_hal_can.c:1424:9
	b	.LBB19_31
.Ltmp269:
.LBB19_30:
	.loc	6 1429 43                       @ ../ThirdParty/STM32F4xx_HAL_Driver/Src/stm32f4xx_hal_can.c:1429:43
	ldr	r0, [sp, #36]
	.loc	6 1429 11 is_stmt 0             @ ../ThirdParty/STM32F4xx_HAL_Driver/Src/stm32f4xx_hal_can.c:1429:11
	bl	HAL_CAN_TxMailbox2AbortCallback
	b	.LBB19_31
.Ltmp270:
.LBB19_31:
	.loc	6 0 11                          @ ../ThirdParty/STM32F4xx_HAL_Driver/Src/stm32f4xx_hal_can.c:0:11
	b	.LBB19_32
.LBB19_32:
	b	.LBB19_33
.LBB19_33:
	.loc	6 1432 5 is_stmt 1              @ ../ThirdParty/STM32F4xx_HAL_Driver/Src/stm32f4xx_hal_can.c:1432:5
	b	.LBB19_34
.Ltmp271:
.LBB19_34:
	.loc	6 1433 3                        @ ../ThirdParty/STM32F4xx_HAL_Driver/Src/stm32f4xx_hal_can.c:1433:3
	b	.LBB19_35
.Ltmp272:
.LBB19_35:
	.loc	6 1436 7                        @ ../ThirdParty/STM32F4xx_HAL_Driver/Src/stm32f4xx_hal_can.c:1436:7
	ldrb.w	r0, [sp, #28]
	lsls	r0, r0, #28
	cmp	r0, #0
	bpl	.LBB19_39
	b	.LBB19_36
.LBB19_36:
.Ltmp273:
	.loc	6 1438 9                        @ ../ThirdParty/STM32F4xx_HAL_Driver/Src/stm32f4xx_hal_can.c:1438:9
	ldrb.w	r0, [sp, #16]
	lsls	r0, r0, #27
	cmp	r0, #0
	bpl	.LBB19_38
	b	.LBB19_37
.LBB19_37:
.Ltmp274:
	.loc	6 1441 17                       @ ../ThirdParty/STM32F4xx_HAL_Driver/Src/stm32f4xx_hal_can.c:1441:17
	ldr	r0, [sp, #32]
	orr	r0, r0, #512
	str	r0, [sp, #32]
	.loc	6 1444 7                        @ ../ThirdParty/STM32F4xx_HAL_Driver/Src/stm32f4xx_hal_can.c:1444:7
	ldr	r0, [sp, #36]
	ldr	r1, [r0]
	movs	r0, #16
	str	r0, [r1, #12]
	.loc	6 1445 5                        @ ../ThirdParty/STM32F4xx_HAL_Driver/Src/stm32f4xx_hal_can.c:1445:5
	b	.LBB19_38
.Ltmp275:
.LBB19_38:
	.loc	6 1446 3                        @ ../ThirdParty/STM32F4xx_HAL_Driver/Src/stm32f4xx_hal_can.c:1446:3
	b	.LBB19_39
.Ltmp276:
.LBB19_39:
	.loc	6 1449 7                        @ ../ThirdParty/STM32F4xx_HAL_Driver/Src/stm32f4xx_hal_can.c:1449:7
	ldrb.w	r0, [sp, #28]
	lsls	r0, r0, #29
	cmp	r0, #0
	bpl	.LBB19_43
	b	.LBB19_40
.LBB19_40:
.Ltmp277:
	.loc	6 1451 9                        @ ../ThirdParty/STM32F4xx_HAL_Driver/Src/stm32f4xx_hal_can.c:1451:9
	ldrb.w	r0, [sp, #16]
	lsls	r0, r0, #28
	cmp	r0, #0
	bpl	.LBB19_42
	b	.LBB19_41
.LBB19_41:
.Ltmp278:
	.loc	6 1454 7                        @ ../ThirdParty/STM32F4xx_HAL_Driver/Src/stm32f4xx_hal_can.c:1454:7
	ldr	r0, [sp, #36]
	ldr	r1, [r0]
	movs	r0, #8
	str	r0, [r1, #12]
	.loc	6 1458 35                       @ ../ThirdParty/STM32F4xx_HAL_Driver/Src/stm32f4xx_hal_can.c:1458:35
	ldr	r0, [sp, #36]
	.loc	6 1458 7 is_stmt 0              @ ../ThirdParty/STM32F4xx_HAL_Driver/Src/stm32f4xx_hal_can.c:1458:7
	bl	HAL_CAN_RxFifo0FullCallback
	.loc	6 1459 5 is_stmt 1              @ ../ThirdParty/STM32F4xx_HAL_Driver/Src/stm32f4xx_hal_can.c:1459:5
	b	.LBB19_42
.Ltmp279:
.LBB19_42:
	.loc	6 1460 3                        @ ../ThirdParty/STM32F4xx_HAL_Driver/Src/stm32f4xx_hal_can.c:1460:3
	b	.LBB19_43
.Ltmp280:
.LBB19_43:
	.loc	6 1463 7                        @ ../ThirdParty/STM32F4xx_HAL_Driver/Src/stm32f4xx_hal_can.c:1463:7
	ldrb.w	r0, [sp, #28]
	lsls	r0, r0, #30
	cmp	r0, #0
	bpl	.LBB19_47
	b	.LBB19_44
.LBB19_44:
.Ltmp281:
	.loc	6 1466 10                       @ ../ThirdParty/STM32F4xx_HAL_Driver/Src/stm32f4xx_hal_can.c:1466:10
	ldr	r0, [sp, #36]
	.loc	6 1466 16 is_stmt 0             @ ../ThirdParty/STM32F4xx_HAL_Driver/Src/stm32f4xx_hal_can.c:1466:16
	ldr	r0, [r0]
	.loc	6 1466 26                       @ ../ThirdParty/STM32F4xx_HAL_Driver/Src/stm32f4xx_hal_can.c:1466:26
	ldr	r0, [r0, #12]
.Ltmp282:
	.loc	6 1466 9                        @ ../ThirdParty/STM32F4xx_HAL_Driver/Src/stm32f4xx_hal_can.c:1466:9
	lsls	r0, r0, #30
	cbz	r0, .LBB19_46
	b	.LBB19_45
.LBB19_45:
.Ltmp283:
	.loc	6 1470 41 is_stmt 1             @ ../ThirdParty/STM32F4xx_HAL_Driver/Src/stm32f4xx_hal_can.c:1470:41
	ldr	r0, [sp, #36]
	.loc	6 1470 7 is_stmt 0              @ ../ThirdParty/STM32F4xx_HAL_Driver/Src/stm32f4xx_hal_can.c:1470:7
	bl	HAL_CAN_RxFifo0MsgPendingCallback
	.loc	6 1471 5 is_stmt 1              @ ../ThirdParty/STM32F4xx_HAL_Driver/Src/stm32f4xx_hal_can.c:1471:5
	b	.LBB19_46
.Ltmp284:
.LBB19_46:
	.loc	6 1472 3                        @ ../ThirdParty/STM32F4xx_HAL_Driver/Src/stm32f4xx_hal_can.c:1472:3
	b	.LBB19_47
.Ltmp285:
.LBB19_47:
	.loc	6 1475 7                        @ ../ThirdParty/STM32F4xx_HAL_Driver/Src/stm32f4xx_hal_can.c:1475:7
	ldrb.w	r0, [sp, #28]
	lsls	r0, r0, #25
	cmp	r0, #0
	bpl	.LBB19_51
	b	.LBB19_48
.LBB19_48:
.Ltmp286:
	.loc	6 1477 9                        @ ../ThirdParty/STM32F4xx_HAL_Driver/Src/stm32f4xx_hal_can.c:1477:9
	ldrb.w	r0, [sp, #12]
	lsls	r0, r0, #27
	cmp	r0, #0
	bpl	.LBB19_50
	b	.LBB19_49
.LBB19_49:
.Ltmp287:
	.loc	6 1480 17                       @ ../ThirdParty/STM32F4xx_HAL_Driver/Src/stm32f4xx_hal_can.c:1480:17
	ldr	r0, [sp, #32]
	orr	r0, r0, #1024
	str	r0, [sp, #32]
	.loc	6 1483 7                        @ ../ThirdParty/STM32F4xx_HAL_Driver/Src/stm32f4xx_hal_can.c:1483:7
	ldr	r0, [sp, #36]
	ldr	r1, [r0]
	movs	r0, #16
	str	r0, [r1, #16]
	.loc	6 1484 5                        @ ../ThirdParty/STM32F4xx_HAL_Driver/Src/stm32f4xx_hal_can.c:1484:5
	b	.LBB19_50
.Ltmp288:
.LBB19_50:
	.loc	6 1485 3                        @ ../ThirdParty/STM32F4xx_HAL_Driver/Src/stm32f4xx_hal_can.c:1485:3
	b	.LBB19_51
.Ltmp289:
.LBB19_51:
	.loc	6 1488 7                        @ ../ThirdParty/STM32F4xx_HAL_Driver/Src/stm32f4xx_hal_can.c:1488:7
	ldrb.w	r0, [sp, #28]
	lsls	r0, r0, #26
	cmp	r0, #0
	bpl	.LBB19_55
	b	.LBB19_52
.LBB19_52:
.Ltmp290:
	.loc	6 1490 9                        @ ../ThirdParty/STM32F4xx_HAL_Driver/Src/stm32f4xx_hal_can.c:1490:9
	ldrb.w	r0, [sp, #12]
	lsls	r0, r0, #28
	cmp	r0, #0
	bpl	.LBB19_54
	b	.LBB19_53
.LBB19_53:
.Ltmp291:
	.loc	6 1493 7                        @ ../ThirdParty/STM32F4xx_HAL_Driver/Src/stm32f4xx_hal_can.c:1493:7
	ldr	r0, [sp, #36]
	ldr	r1, [r0]
	movs	r0, #8
	str	r0, [r1, #16]
	.loc	6 1497 35                       @ ../ThirdParty/STM32F4xx_HAL_Driver/Src/stm32f4xx_hal_can.c:1497:35
	ldr	r0, [sp, #36]
	.loc	6 1497 7 is_stmt 0              @ ../ThirdParty/STM32F4xx_HAL_Driver/Src/stm32f4xx_hal_can.c:1497:7
	bl	HAL_CAN_RxFifo1FullCallback
	.loc	6 1498 5 is_stmt 1              @ ../ThirdParty/STM32F4xx_HAL_Driver/Src/stm32f4xx_hal_can.c:1498:5
	b	.LBB19_54
.Ltmp292:
.LBB19_54:
	.loc	6 1499 3                        @ ../ThirdParty/STM32F4xx_HAL_Driver/Src/stm32f4xx_hal_can.c:1499:3
	b	.LBB19_55
.Ltmp293:
.LBB19_55:
	.loc	6 1502 7                        @ ../ThirdParty/STM32F4xx_HAL_Driver/Src/stm32f4xx_hal_can.c:1502:7
	ldrb.w	r0, [sp, #28]
	lsls	r0, r0, #27
	cmp	r0, #0
	bpl	.LBB19_59
	b	.LBB19_56
.LBB19_56:
.Ltmp294:
	.loc	6 1505 10                       @ ../ThirdParty/STM32F4xx_HAL_Driver/Src/stm32f4xx_hal_can.c:1505:10
	ldr	r0, [sp, #36]
	.loc	6 1505 16 is_stmt 0             @ ../ThirdParty/STM32F4xx_HAL_Driver/Src/stm32f4xx_hal_can.c:1505:16
	ldr	r0, [r0]
	.loc	6 1505 26                       @ ../ThirdParty/STM32F4xx_HAL_Driver/Src/stm32f4xx_hal_can.c:1505:26
	ldr	r0, [r0, #16]
.Ltmp295:
	.loc	6 1505 9                        @ ../ThirdParty/STM32F4xx_HAL_Driver/Src/stm32f4xx_hal_can.c:1505:9
	lsls	r0, r0, #30
	cbz	r0, .LBB19_58
	b	.LBB19_57
.LBB19_57:
.Ltmp296:
	.loc	6 1509 41 is_stmt 1             @ ../ThirdParty/STM32F4xx_HAL_Driver/Src/stm32f4xx_hal_can.c:1509:41
	ldr	r0, [sp, #36]
	.loc	6 1509 7 is_stmt 0              @ ../ThirdParty/STM32F4xx_HAL_Driver/Src/stm32f4xx_hal_can.c:1509:7
	bl	HAL_CAN_RxFifo1MsgPendingCallback
	.loc	6 1510 5 is_stmt 1              @ ../ThirdParty/STM32F4xx_HAL_Driver/Src/stm32f4xx_hal_can.c:1510:5
	b	.LBB19_58
.Ltmp297:
.LBB19_58:
	.loc	6 1511 3                        @ ../ThirdParty/STM32F4xx_HAL_Driver/Src/stm32f4xx_hal_can.c:1511:3
	b	.LBB19_59
.Ltmp298:
.LBB19_59:
	.loc	6 1514 7                        @ ../ThirdParty/STM32F4xx_HAL_Driver/Src/stm32f4xx_hal_can.c:1514:7
	ldrb.w	r0, [sp, #30]
	lsls	r0, r0, #30
	cmp	r0, #0
	bpl	.LBB19_63
	b	.LBB19_60
.LBB19_60:
.Ltmp299:
	.loc	6 1516 9                        @ ../ThirdParty/STM32F4xx_HAL_Driver/Src/stm32f4xx_hal_can.c:1516:9
	ldrb.w	r0, [sp, #24]
	lsls	r0, r0, #27
	cmp	r0, #0
	bpl	.LBB19_62
	b	.LBB19_61
.LBB19_61:
.Ltmp300:
	.loc	6 1519 7                        @ ../ThirdParty/STM32F4xx_HAL_Driver/Src/stm32f4xx_hal_can.c:1519:7
	ldr	r0, [sp, #36]
	ldr	r1, [r0]
	movs	r0, #16
	str	r0, [r1, #4]
	.loc	6 1523 29                       @ ../ThirdParty/STM32F4xx_HAL_Driver/Src/stm32f4xx_hal_can.c:1523:29
	ldr	r0, [sp, #36]
	.loc	6 1523 7 is_stmt 0              @ ../ThirdParty/STM32F4xx_HAL_Driver/Src/stm32f4xx_hal_can.c:1523:7
	bl	HAL_CAN_SleepCallback
	.loc	6 1524 5 is_stmt 1              @ ../ThirdParty/STM32F4xx_HAL_Driver/Src/stm32f4xx_hal_can.c:1524:5
	b	.LBB19_62
.Ltmp301:
.LBB19_62:
	.loc	6 1525 3                        @ ../ThirdParty/STM32F4xx_HAL_Driver/Src/stm32f4xx_hal_can.c:1525:3
	b	.LBB19_63
.Ltmp302:
.LBB19_63:
	.loc	6 1528 7                        @ ../ThirdParty/STM32F4xx_HAL_Driver/Src/stm32f4xx_hal_can.c:1528:7
	ldrb.w	r0, [sp, #30]
	lsls	r0, r0, #31
	cbz	r0, .LBB19_67
	b	.LBB19_64
.LBB19_64:
.Ltmp303:
	.loc	6 1530 9                        @ ../ThirdParty/STM32F4xx_HAL_Driver/Src/stm32f4xx_hal_can.c:1530:9
	ldrb.w	r0, [sp, #24]
	lsls	r0, r0, #28
	cmp	r0, #0
	bpl	.LBB19_66
	b	.LBB19_65
.LBB19_65:
.Ltmp304:
	.loc	6 1533 7                        @ ../ThirdParty/STM32F4xx_HAL_Driver/Src/stm32f4xx_hal_can.c:1533:7
	ldr	r0, [sp, #36]
	ldr	r1, [r0]
	movs	r0, #8
	str	r0, [r1, #4]
	.loc	6 1537 39                       @ ../ThirdParty/STM32F4xx_HAL_Driver/Src/stm32f4xx_hal_can.c:1537:39
	ldr	r0, [sp, #36]
	.loc	6 1537 7 is_stmt 0              @ ../ThirdParty/STM32F4xx_HAL_Driver/Src/stm32f4xx_hal_can.c:1537:7
	bl	HAL_CAN_WakeUpFromRxMsgCallback
	.loc	6 1538 5 is_stmt 1              @ ../ThirdParty/STM32F4xx_HAL_Driver/Src/stm32f4xx_hal_can.c:1538:5
	b	.LBB19_66
.Ltmp305:
.LBB19_66:
	.loc	6 1539 3                        @ ../ThirdParty/STM32F4xx_HAL_Driver/Src/stm32f4xx_hal_can.c:1539:3
	b	.LBB19_67
.Ltmp306:
.LBB19_67:
	.loc	6 1542 7                        @ ../ThirdParty/STM32F4xx_HAL_Driver/Src/stm32f4xx_hal_can.c:1542:7
	ldrb.w	r0, [sp, #29]
	lsls	r0, r0, #24
	cmp	r0, #0
	bpl.w	.LBB19_96
	b	.LBB19_68
.LBB19_68:
.Ltmp307:
	.loc	6 1544 9                        @ ../ThirdParty/STM32F4xx_HAL_Driver/Src/stm32f4xx_hal_can.c:1544:9
	ldrb.w	r0, [sp, #24]
	lsls	r0, r0, #29
	cmp	r0, #0
	bpl.w	.LBB19_95
	b	.LBB19_69
.LBB19_69:
.Ltmp308:
	.loc	6 1547 58                       @ ../ThirdParty/STM32F4xx_HAL_Driver/Src/stm32f4xx_hal_can.c:1547:58
	ldrb.w	r0, [sp, #29]
	lsls	r0, r0, #31
	cbz	r0, .LBB19_72
	b	.LBB19_70
.Ltmp309:
.LBB19_70:
	.loc	6 1547 11 is_stmt 0             @ ../ThirdParty/STM32F4xx_HAL_Driver/Src/stm32f4xx_hal_can.c:1547:11
	ldrb.w	r0, [sp, #8]
	lsls	r0, r0, #31
	cbz	r0, .LBB19_72
	b	.LBB19_71
.LBB19_71:
.Ltmp310:
	.loc	6 1551 19 is_stmt 1             @ ../ThirdParty/STM32F4xx_HAL_Driver/Src/stm32f4xx_hal_can.c:1551:19
	ldr	r0, [sp, #32]
	orr	r0, r0, #1
	str	r0, [sp, #32]
	.loc	6 1554 7                        @ ../ThirdParty/STM32F4xx_HAL_Driver/Src/stm32f4xx_hal_can.c:1554:7
	b	.LBB19_72
.Ltmp311:
.LBB19_72:
	.loc	6 1557 58                       @ ../ThirdParty/STM32F4xx_HAL_Driver/Src/stm32f4xx_hal_can.c:1557:58
	ldrb.w	r0, [sp, #29]
	lsls	r0, r0, #30
	cmp	r0, #0
	bpl	.LBB19_75
	b	.LBB19_73
.Ltmp312:
.LBB19_73:
	.loc	6 1557 11 is_stmt 0             @ ../ThirdParty/STM32F4xx_HAL_Driver/Src/stm32f4xx_hal_can.c:1557:11
	ldrb.w	r0, [sp, #8]
	lsls	r0, r0, #30
	cmp	r0, #0
	bpl	.LBB19_75
	b	.LBB19_74
.LBB19_74:
.Ltmp313:
	.loc	6 1561 19 is_stmt 1             @ ../ThirdParty/STM32F4xx_HAL_Driver/Src/stm32f4xx_hal_can.c:1561:19
	ldr	r0, [sp, #32]
	orr	r0, r0, #2
	str	r0, [sp, #32]
	.loc	6 1564 7                        @ ../ThirdParty/STM32F4xx_HAL_Driver/Src/stm32f4xx_hal_can.c:1564:7
	b	.LBB19_75
.Ltmp314:
.LBB19_75:
	.loc	6 1567 51                       @ ../ThirdParty/STM32F4xx_HAL_Driver/Src/stm32f4xx_hal_can.c:1567:51
	ldrb.w	r0, [sp, #29]
	lsls	r0, r0, #29
	cmp	r0, #0
	bpl	.LBB19_78
	b	.LBB19_76
.Ltmp315:
.LBB19_76:
	.loc	6 1567 11 is_stmt 0             @ ../ThirdParty/STM32F4xx_HAL_Driver/Src/stm32f4xx_hal_can.c:1567:11
	ldrb.w	r0, [sp, #8]
	lsls	r0, r0, #29
	cmp	r0, #0
	bpl	.LBB19_78
	b	.LBB19_77
.LBB19_77:
.Ltmp316:
	.loc	6 1571 19 is_stmt 1             @ ../ThirdParty/STM32F4xx_HAL_Driver/Src/stm32f4xx_hal_can.c:1571:19
	ldr	r0, [sp, #32]
	orr	r0, r0, #4
	str	r0, [sp, #32]
	.loc	6 1574 7                        @ ../ThirdParty/STM32F4xx_HAL_Driver/Src/stm32f4xx_hal_can.c:1574:7
	b	.LBB19_78
.Ltmp317:
.LBB19_78:
	.loc	6 1577 60                       @ ../ThirdParty/STM32F4xx_HAL_Driver/Src/stm32f4xx_hal_can.c:1577:60
	ldrb.w	r0, [sp, #29]
	lsls	r0, r0, #28
	cmp	r0, #0
	bpl	.LBB19_94
	b	.LBB19_79
.Ltmp318:
.LBB19_79:
	.loc	6 1577 11 is_stmt 0             @ ../ThirdParty/STM32F4xx_HAL_Driver/Src/stm32f4xx_hal_can.c:1577:11
	ldrb.w	r0, [sp, #8]
	tst.w	r0, #112
	beq	.LBB19_94
	b	.LBB19_80
.LBB19_80:
.Ltmp319:
	.loc	6 1580 17 is_stmt 1             @ ../ThirdParty/STM32F4xx_HAL_Driver/Src/stm32f4xx_hal_can.c:1580:17
	ldr	r0, [sp, #8]
	.loc	6 1580 26 is_stmt 0             @ ../ThirdParty/STM32F4xx_HAL_Driver/Src/stm32f4xx_hal_can.c:1580:26
	and	r0, r0, #112
	.loc	6 1580 9                        @ ../ThirdParty/STM32F4xx_HAL_Driver/Src/stm32f4xx_hal_can.c:1580:9
	mov	r1, r0
	str	r1, [sp, #4]                    @ 4-byte Spill
	cmp	r0, #16
	beq	.LBB19_86
	b	.LBB19_81
.LBB19_81:
	ldr	r0, [sp, #4]                    @ 4-byte Reload
	cmp	r0, #32
	beq	.LBB19_87
	b	.LBB19_82
.LBB19_82:
	ldr	r0, [sp, #4]                    @ 4-byte Reload
	cmp	r0, #48
	beq	.LBB19_88
	b	.LBB19_83
.LBB19_83:
	ldr	r0, [sp, #4]                    @ 4-byte Reload
	cmp	r0, #64
	beq	.LBB19_89
	b	.LBB19_84
.LBB19_84:
	ldr	r0, [sp, #4]                    @ 4-byte Reload
	cmp	r0, #80
	beq	.LBB19_90
	b	.LBB19_85
.LBB19_85:
	ldr	r0, [sp, #4]                    @ 4-byte Reload
	cmp	r0, #96
	beq	.LBB19_91
	b	.LBB19_92
.LBB19_86:
.Ltmp320:
	.loc	6 1584 23 is_stmt 1             @ ../ThirdParty/STM32F4xx_HAL_Driver/Src/stm32f4xx_hal_can.c:1584:23
	ldr	r0, [sp, #32]
	orr	r0, r0, #8
	str	r0, [sp, #32]
	.loc	6 1585 13                       @ ../ThirdParty/STM32F4xx_HAL_Driver/Src/stm32f4xx_hal_can.c:1585:13
	b	.LBB19_93
.LBB19_87:
	.loc	6 1588 23                       @ ../ThirdParty/STM32F4xx_HAL_Driver/Src/stm32f4xx_hal_can.c:1588:23
	ldr	r0, [sp, #32]
	orr	r0, r0, #16
	str	r0, [sp, #32]
	.loc	6 1589 13                       @ ../ThirdParty/STM32F4xx_HAL_Driver/Src/stm32f4xx_hal_can.c:1589:13
	b	.LBB19_93
.LBB19_88:
	.loc	6 1592 23                       @ ../ThirdParty/STM32F4xx_HAL_Driver/Src/stm32f4xx_hal_can.c:1592:23
	ldr	r0, [sp, #32]
	orr	r0, r0, #32
	str	r0, [sp, #32]
	.loc	6 1593 13                       @ ../ThirdParty/STM32F4xx_HAL_Driver/Src/stm32f4xx_hal_can.c:1593:13
	b	.LBB19_93
.LBB19_89:
	.loc	6 1596 23                       @ ../ThirdParty/STM32F4xx_HAL_Driver/Src/stm32f4xx_hal_can.c:1596:23
	ldr	r0, [sp, #32]
	orr	r0, r0, #64
	str	r0, [sp, #32]
	.loc	6 1597 13                       @ ../ThirdParty/STM32F4xx_HAL_Driver/Src/stm32f4xx_hal_can.c:1597:13
	b	.LBB19_93
.LBB19_90:
	.loc	6 1600 23                       @ ../ThirdParty/STM32F4xx_HAL_Driver/Src/stm32f4xx_hal_can.c:1600:23
	ldr	r0, [sp, #32]
	orr	r0, r0, #128
	str	r0, [sp, #32]
	.loc	6 1601 13                       @ ../ThirdParty/STM32F4xx_HAL_Driver/Src/stm32f4xx_hal_can.c:1601:13
	b	.LBB19_93
.LBB19_91:
	.loc	6 1604 23                       @ ../ThirdParty/STM32F4xx_HAL_Driver/Src/stm32f4xx_hal_can.c:1604:23
	ldr	r0, [sp, #32]
	orr	r0, r0, #256
	str	r0, [sp, #32]
	.loc	6 1605 13                       @ ../ThirdParty/STM32F4xx_HAL_Driver/Src/stm32f4xx_hal_can.c:1605:13
	b	.LBB19_93
.LBB19_92:
	.loc	6 1607 13                       @ ../ThirdParty/STM32F4xx_HAL_Driver/Src/stm32f4xx_hal_can.c:1607:13
	b	.LBB19_93
.Ltmp321:
.LBB19_93:
	.loc	6 1611 9                        @ ../ThirdParty/STM32F4xx_HAL_Driver/Src/stm32f4xx_hal_can.c:1611:9
	ldr	r0, [sp, #36]
	ldr	r1, [r0]
	ldr	r0, [r1, #24]
	bic	r0, r0, #112
	str	r0, [r1, #24]
	.loc	6 1612 7                        @ ../ThirdParty/STM32F4xx_HAL_Driver/Src/stm32f4xx_hal_can.c:1612:7
	b	.LBB19_94
.Ltmp322:
.LBB19_94:
	.loc	6 1613 5                        @ ../ThirdParty/STM32F4xx_HAL_Driver/Src/stm32f4xx_hal_can.c:1613:5
	b	.LBB19_95
.Ltmp323:
.LBB19_95:
	.loc	6 1616 5                        @ ../ThirdParty/STM32F4xx_HAL_Driver/Src/stm32f4xx_hal_can.c:1616:5
	ldr	r0, [sp, #36]
	ldr	r1, [r0]
	movs	r0, #4
	str	r0, [r1, #4]
	.loc	6 1617 3                        @ ../ThirdParty/STM32F4xx_HAL_Driver/Src/stm32f4xx_hal_can.c:1617:3
	b	.LBB19_96
.Ltmp324:
.LBB19_96:
	.loc	6 1620 7                        @ ../ThirdParty/STM32F4xx_HAL_Driver/Src/stm32f4xx_hal_can.c:1620:7
	ldr	r0, [sp, #32]
.Ltmp325:
	.loc	6 1620 7 is_stmt 0              @ ../ThirdParty/STM32F4xx_HAL_Driver/Src/stm32f4xx_hal_can.c:1620:7
	cbz	r0, .LBB19_98
	b	.LBB19_97
.LBB19_97:
.Ltmp326:
	.loc	6 1623 24 is_stmt 1             @ ../ThirdParty/STM32F4xx_HAL_Driver/Src/stm32f4xx_hal_can.c:1623:24
	ldr	r2, [sp, #32]
	.loc	6 1623 5 is_stmt 0              @ ../ThirdParty/STM32F4xx_HAL_Driver/Src/stm32f4xx_hal_can.c:1623:5
	ldr	r1, [sp, #36]
	.loc	6 1623 21                       @ ../ThirdParty/STM32F4xx_HAL_Driver/Src/stm32f4xx_hal_can.c:1623:21
	ldr	r0, [r1, #36]
	orrs	r0, r2
	str	r0, [r1, #36]
	.loc	6 1627 27 is_stmt 1             @ ../ThirdParty/STM32F4xx_HAL_Driver/Src/stm32f4xx_hal_can.c:1627:27
	ldr	r0, [sp, #36]
	.loc	6 1627 5 is_stmt 0              @ ../ThirdParty/STM32F4xx_HAL_Driver/Src/stm32f4xx_hal_can.c:1627:5
	bl	HAL_CAN_ErrorCallback
	.loc	6 1628 3 is_stmt 1              @ ../ThirdParty/STM32F4xx_HAL_Driver/Src/stm32f4xx_hal_can.c:1628:3
	b	.LBB19_98
.Ltmp327:
.LBB19_98:
	.loc	6 1629 1 epilogue_begin         @ ../ThirdParty/STM32F4xx_HAL_Driver/Src/stm32f4xx_hal_can.c:1629:1
	add	sp, #40
	pop	{r7, pc}
.Ltmp328:
.Lfunc_end19:
	.size	HAL_CAN_IRQHandler, .Lfunc_end19-HAL_CAN_IRQHandler
	.cfi_endproc
	.cantunwind
	.fnend
                                        @ -- End function
	.section	.text.HAL_CAN_TxMailbox0CompleteCallback,"ax",%progbits
	.hidden	HAL_CAN_TxMailbox0CompleteCallback @ -- Begin function HAL_CAN_TxMailbox0CompleteCallback
	.weak	HAL_CAN_TxMailbox0CompleteCallback
	.p2align	2
	.type	HAL_CAN_TxMailbox0CompleteCallback,%function
	.code	16                              @ @HAL_CAN_TxMailbox0CompleteCallback
	.thumb_func
HAL_CAN_TxMailbox0CompleteCallback:
.Lfunc_begin20:
	.loc	6 1669 0                        @ ../ThirdParty/STM32F4xx_HAL_Driver/Src/stm32f4xx_hal_can.c:1669:0
	.fnstart
	.cfi_startproc
@ %bb.0:
	.pad	#4
	sub	sp, #4
	.cfi_def_cfa_offset 4
	str	r0, [sp]
.Ltmp329:
	.loc	6 1677 1 prologue_end epilogue_begin @ ../ThirdParty/STM32F4xx_HAL_Driver/Src/stm32f4xx_hal_can.c:1677:1
	add	sp, #4
	bx	lr
.Ltmp330:
.Lfunc_end20:
	.size	HAL_CAN_TxMailbox0CompleteCallback, .Lfunc_end20-HAL_CAN_TxMailbox0CompleteCallback
	.cfi_endproc
	.cantunwind
	.fnend
                                        @ -- End function
	.section	.text.HAL_CAN_TxMailbox0AbortCallback,"ax",%progbits
	.hidden	HAL_CAN_TxMailbox0AbortCallback @ -- Begin function HAL_CAN_TxMailbox0AbortCallback
	.weak	HAL_CAN_TxMailbox0AbortCallback
	.p2align	2
	.type	HAL_CAN_TxMailbox0AbortCallback,%function
	.code	16                              @ @HAL_CAN_TxMailbox0AbortCallback
	.thumb_func
HAL_CAN_TxMailbox0AbortCallback:
.Lfunc_begin21:
	.loc	6 1720 0                        @ ../ThirdParty/STM32F4xx_HAL_Driver/Src/stm32f4xx_hal_can.c:1720:0
	.fnstart
	.cfi_startproc
@ %bb.0:
	.pad	#4
	sub	sp, #4
	.cfi_def_cfa_offset 4
	str	r0, [sp]
.Ltmp331:
	.loc	6 1728 1 prologue_end epilogue_begin @ ../ThirdParty/STM32F4xx_HAL_Driver/Src/stm32f4xx_hal_can.c:1728:1
	add	sp, #4
	bx	lr
.Ltmp332:
.Lfunc_end21:
	.size	HAL_CAN_TxMailbox0AbortCallback, .Lfunc_end21-HAL_CAN_TxMailbox0AbortCallback
	.cfi_endproc
	.cantunwind
	.fnend
                                        @ -- End function
	.section	.text.HAL_CAN_TxMailbox1CompleteCallback,"ax",%progbits
	.hidden	HAL_CAN_TxMailbox1CompleteCallback @ -- Begin function HAL_CAN_TxMailbox1CompleteCallback
	.weak	HAL_CAN_TxMailbox1CompleteCallback
	.p2align	2
	.type	HAL_CAN_TxMailbox1CompleteCallback,%function
	.code	16                              @ @HAL_CAN_TxMailbox1CompleteCallback
	.thumb_func
HAL_CAN_TxMailbox1CompleteCallback:
.Lfunc_begin22:
	.loc	6 1686 0                        @ ../ThirdParty/STM32F4xx_HAL_Driver/Src/stm32f4xx_hal_can.c:1686:0
	.fnstart
	.cfi_startproc
@ %bb.0:
	.pad	#4
	sub	sp, #4
	.cfi_def_cfa_offset 4
	str	r0, [sp]
.Ltmp333:
	.loc	6 1694 1 prologue_end epilogue_begin @ ../ThirdParty/STM32F4xx_HAL_Driver/Src/stm32f4xx_hal_can.c:1694:1
	add	sp, #4
	bx	lr
.Ltmp334:
.Lfunc_end22:
	.size	HAL_CAN_TxMailbox1CompleteCallback, .Lfunc_end22-HAL_CAN_TxMailbox1CompleteCallback
	.cfi_endproc
	.cantunwind
	.fnend
                                        @ -- End function
	.section	.text.HAL_CAN_TxMailbox1AbortCallback,"ax",%progbits
	.hidden	HAL_CAN_TxMailbox1AbortCallback @ -- Begin function HAL_CAN_TxMailbox1AbortCallback
	.weak	HAL_CAN_TxMailbox1AbortCallback
	.p2align	2
	.type	HAL_CAN_TxMailbox1AbortCallback,%function
	.code	16                              @ @HAL_CAN_TxMailbox1AbortCallback
	.thumb_func
HAL_CAN_TxMailbox1AbortCallback:
.Lfunc_begin23:
	.loc	6 1737 0                        @ ../ThirdParty/STM32F4xx_HAL_Driver/Src/stm32f4xx_hal_can.c:1737:0
	.fnstart
	.cfi_startproc
@ %bb.0:
	.pad	#4
	sub	sp, #4
	.cfi_def_cfa_offset 4
	str	r0, [sp]
.Ltmp335:
	.loc	6 1745 1 prologue_end epilogue_begin @ ../ThirdParty/STM32F4xx_HAL_Driver/Src/stm32f4xx_hal_can.c:1745:1
	add	sp, #4
	bx	lr
.Ltmp336:
.Lfunc_end23:
	.size	HAL_CAN_TxMailbox1AbortCallback, .Lfunc_end23-HAL_CAN_TxMailbox1AbortCallback
	.cfi_endproc
	.cantunwind
	.fnend
                                        @ -- End function
	.section	.text.HAL_CAN_TxMailbox2CompleteCallback,"ax",%progbits
	.hidden	HAL_CAN_TxMailbox2CompleteCallback @ -- Begin function HAL_CAN_TxMailbox2CompleteCallback
	.weak	HAL_CAN_TxMailbox2CompleteCallback
	.p2align	2
	.type	HAL_CAN_TxMailbox2CompleteCallback,%function
	.code	16                              @ @HAL_CAN_TxMailbox2CompleteCallback
	.thumb_func
HAL_CAN_TxMailbox2CompleteCallback:
.Lfunc_begin24:
	.loc	6 1703 0                        @ ../ThirdParty/STM32F4xx_HAL_Driver/Src/stm32f4xx_hal_can.c:1703:0
	.fnstart
	.cfi_startproc
@ %bb.0:
	.pad	#4
	sub	sp, #4
	.cfi_def_cfa_offset 4
	str	r0, [sp]
.Ltmp337:
	.loc	6 1711 1 prologue_end epilogue_begin @ ../ThirdParty/STM32F4xx_HAL_Driver/Src/stm32f4xx_hal_can.c:1711:1
	add	sp, #4
	bx	lr
.Ltmp338:
.Lfunc_end24:
	.size	HAL_CAN_TxMailbox2CompleteCallback, .Lfunc_end24-HAL_CAN_TxMailbox2CompleteCallback
	.cfi_endproc
	.cantunwind
	.fnend
                                        @ -- End function
	.section	.text.HAL_CAN_TxMailbox2AbortCallback,"ax",%progbits
	.hidden	HAL_CAN_TxMailbox2AbortCallback @ -- Begin function HAL_CAN_TxMailbox2AbortCallback
	.weak	HAL_CAN_TxMailbox2AbortCallback
	.p2align	2
	.type	HAL_CAN_TxMailbox2AbortCallback,%function
	.code	16                              @ @HAL_CAN_TxMailbox2AbortCallback
	.thumb_func
HAL_CAN_TxMailbox2AbortCallback:
.Lfunc_begin25:
	.loc	6 1754 0                        @ ../ThirdParty/STM32F4xx_HAL_Driver/Src/stm32f4xx_hal_can.c:1754:0
	.fnstart
	.cfi_startproc
@ %bb.0:
	.pad	#4
	sub	sp, #4
	.cfi_def_cfa_offset 4
	str	r0, [sp]
.Ltmp339:
	.loc	6 1762 1 prologue_end epilogue_begin @ ../ThirdParty/STM32F4xx_HAL_Driver/Src/stm32f4xx_hal_can.c:1762:1
	add	sp, #4
	bx	lr
.Ltmp340:
.Lfunc_end25:
	.size	HAL_CAN_TxMailbox2AbortCallback, .Lfunc_end25-HAL_CAN_TxMailbox2AbortCallback
	.cfi_endproc
	.cantunwind
	.fnend
                                        @ -- End function
	.section	.text.HAL_CAN_RxFifo0FullCallback,"ax",%progbits
	.hidden	HAL_CAN_RxFifo0FullCallback     @ -- Begin function HAL_CAN_RxFifo0FullCallback
	.weak	HAL_CAN_RxFifo0FullCallback
	.p2align	2
	.type	HAL_CAN_RxFifo0FullCallback,%function
	.code	16                              @ @HAL_CAN_RxFifo0FullCallback
	.thumb_func
HAL_CAN_RxFifo0FullCallback:
.Lfunc_begin26:
	.loc	6 1788 0                        @ ../ThirdParty/STM32F4xx_HAL_Driver/Src/stm32f4xx_hal_can.c:1788:0
	.fnstart
	.cfi_startproc
@ %bb.0:
	.pad	#4
	sub	sp, #4
	.cfi_def_cfa_offset 4
	str	r0, [sp]
.Ltmp341:
	.loc	6 1796 1 prologue_end epilogue_begin @ ../ThirdParty/STM32F4xx_HAL_Driver/Src/stm32f4xx_hal_can.c:1796:1
	add	sp, #4
	bx	lr
.Ltmp342:
.Lfunc_end26:
	.size	HAL_CAN_RxFifo0FullCallback, .Lfunc_end26-HAL_CAN_RxFifo0FullCallback
	.cfi_endproc
	.cantunwind
	.fnend
                                        @ -- End function
	.section	.text.HAL_CAN_RxFifo0MsgPendingCallback,"ax",%progbits
	.hidden	HAL_CAN_RxFifo0MsgPendingCallback @ -- Begin function HAL_CAN_RxFifo0MsgPendingCallback
	.weak	HAL_CAN_RxFifo0MsgPendingCallback
	.p2align	2
	.type	HAL_CAN_RxFifo0MsgPendingCallback,%function
	.code	16                              @ @HAL_CAN_RxFifo0MsgPendingCallback
	.thumb_func
HAL_CAN_RxFifo0MsgPendingCallback:
.Lfunc_begin27:
	.loc	6 1771 0                        @ ../ThirdParty/STM32F4xx_HAL_Driver/Src/stm32f4xx_hal_can.c:1771:0
	.fnstart
	.cfi_startproc
@ %bb.0:
	.pad	#4
	sub	sp, #4
	.cfi_def_cfa_offset 4
	str	r0, [sp]
.Ltmp343:
	.loc	6 1779 1 prologue_end epilogue_begin @ ../ThirdParty/STM32F4xx_HAL_Driver/Src/stm32f4xx_hal_can.c:1779:1
	add	sp, #4
	bx	lr
.Ltmp344:
.Lfunc_end27:
	.size	HAL_CAN_RxFifo0MsgPendingCallback, .Lfunc_end27-HAL_CAN_RxFifo0MsgPendingCallback
	.cfi_endproc
	.cantunwind
	.fnend
                                        @ -- End function
	.section	.text.HAL_CAN_RxFifo1FullCallback,"ax",%progbits
	.hidden	HAL_CAN_RxFifo1FullCallback     @ -- Begin function HAL_CAN_RxFifo1FullCallback
	.weak	HAL_CAN_RxFifo1FullCallback
	.p2align	2
	.type	HAL_CAN_RxFifo1FullCallback,%function
	.code	16                              @ @HAL_CAN_RxFifo1FullCallback
	.thumb_func
HAL_CAN_RxFifo1FullCallback:
.Lfunc_begin28:
	.loc	6 1822 0                        @ ../ThirdParty/STM32F4xx_HAL_Driver/Src/stm32f4xx_hal_can.c:1822:0
	.fnstart
	.cfi_startproc
@ %bb.0:
	.pad	#4
	sub	sp, #4
	.cfi_def_cfa_offset 4
	str	r0, [sp]
.Ltmp345:
	.loc	6 1830 1 prologue_end epilogue_begin @ ../ThirdParty/STM32F4xx_HAL_Driver/Src/stm32f4xx_hal_can.c:1830:1
	add	sp, #4
	bx	lr
.Ltmp346:
.Lfunc_end28:
	.size	HAL_CAN_RxFifo1FullCallback, .Lfunc_end28-HAL_CAN_RxFifo1FullCallback
	.cfi_endproc
	.cantunwind
	.fnend
                                        @ -- End function
	.section	.text.HAL_CAN_RxFifo1MsgPendingCallback,"ax",%progbits
	.hidden	HAL_CAN_RxFifo1MsgPendingCallback @ -- Begin function HAL_CAN_RxFifo1MsgPendingCallback
	.weak	HAL_CAN_RxFifo1MsgPendingCallback
	.p2align	2
	.type	HAL_CAN_RxFifo1MsgPendingCallback,%function
	.code	16                              @ @HAL_CAN_RxFifo1MsgPendingCallback
	.thumb_func
HAL_CAN_RxFifo1MsgPendingCallback:
.Lfunc_begin29:
	.loc	6 1805 0                        @ ../ThirdParty/STM32F4xx_HAL_Driver/Src/stm32f4xx_hal_can.c:1805:0
	.fnstart
	.cfi_startproc
@ %bb.0:
	.pad	#4
	sub	sp, #4
	.cfi_def_cfa_offset 4
	str	r0, [sp]
.Ltmp347:
	.loc	6 1813 1 prologue_end epilogue_begin @ ../ThirdParty/STM32F4xx_HAL_Driver/Src/stm32f4xx_hal_can.c:1813:1
	add	sp, #4
	bx	lr
.Ltmp348:
.Lfunc_end29:
	.size	HAL_CAN_RxFifo1MsgPendingCallback, .Lfunc_end29-HAL_CAN_RxFifo1MsgPendingCallback
	.cfi_endproc
	.cantunwind
	.fnend
                                        @ -- End function
	.section	.text.HAL_CAN_SleepCallback,"ax",%progbits
	.hidden	HAL_CAN_SleepCallback           @ -- Begin function HAL_CAN_SleepCallback
	.weak	HAL_CAN_SleepCallback
	.p2align	2
	.type	HAL_CAN_SleepCallback,%function
	.code	16                              @ @HAL_CAN_SleepCallback
	.thumb_func
HAL_CAN_SleepCallback:
.Lfunc_begin30:
	.loc	6 1839 0                        @ ../ThirdParty/STM32F4xx_HAL_Driver/Src/stm32f4xx_hal_can.c:1839:0
	.fnstart
	.cfi_startproc
@ %bb.0:
	.pad	#4
	sub	sp, #4
	.cfi_def_cfa_offset 4
	str	r0, [sp]
.Ltmp349:
	.loc	6 1846 1 prologue_end epilogue_begin @ ../ThirdParty/STM32F4xx_HAL_Driver/Src/stm32f4xx_hal_can.c:1846:1
	add	sp, #4
	bx	lr
.Ltmp350:
.Lfunc_end30:
	.size	HAL_CAN_SleepCallback, .Lfunc_end30-HAL_CAN_SleepCallback
	.cfi_endproc
	.cantunwind
	.fnend
                                        @ -- End function
	.section	.text.HAL_CAN_WakeUpFromRxMsgCallback,"ax",%progbits
	.hidden	HAL_CAN_WakeUpFromRxMsgCallback @ -- Begin function HAL_CAN_WakeUpFromRxMsgCallback
	.weak	HAL_CAN_WakeUpFromRxMsgCallback
	.p2align	2
	.type	HAL_CAN_WakeUpFromRxMsgCallback,%function
	.code	16                              @ @HAL_CAN_WakeUpFromRxMsgCallback
	.thumb_func
HAL_CAN_WakeUpFromRxMsgCallback:
.Lfunc_begin31:
	.loc	6 1855 0                        @ ../ThirdParty/STM32F4xx_HAL_Driver/Src/stm32f4xx_hal_can.c:1855:0
	.fnstart
	.cfi_startproc
@ %bb.0:
	.pad	#4
	sub	sp, #4
	.cfi_def_cfa_offset 4
	str	r0, [sp]
.Ltmp351:
	.loc	6 1863 1 prologue_end epilogue_begin @ ../ThirdParty/STM32F4xx_HAL_Driver/Src/stm32f4xx_hal_can.c:1863:1
	add	sp, #4
	bx	lr
.Ltmp352:
.Lfunc_end31:
	.size	HAL_CAN_WakeUpFromRxMsgCallback, .Lfunc_end31-HAL_CAN_WakeUpFromRxMsgCallback
	.cfi_endproc
	.cantunwind
	.fnend
                                        @ -- End function
	.section	.text.HAL_CAN_ErrorCallback,"ax",%progbits
	.hidden	HAL_CAN_ErrorCallback           @ -- Begin function HAL_CAN_ErrorCallback
	.weak	HAL_CAN_ErrorCallback
	.p2align	2
	.type	HAL_CAN_ErrorCallback,%function
	.code	16                              @ @HAL_CAN_ErrorCallback
	.thumb_func
HAL_CAN_ErrorCallback:
.Lfunc_begin32:
	.loc	6 1872 0                        @ ../ThirdParty/STM32F4xx_HAL_Driver/Src/stm32f4xx_hal_can.c:1872:0
	.fnstart
	.cfi_startproc
@ %bb.0:
	.pad	#4
	sub	sp, #4
	.cfi_def_cfa_offset 4
	str	r0, [sp]
.Ltmp353:
	.loc	6 1879 1 prologue_end epilogue_begin @ ../ThirdParty/STM32F4xx_HAL_Driver/Src/stm32f4xx_hal_can.c:1879:1
	add	sp, #4
	bx	lr
.Ltmp354:
.Lfunc_end32:
	.size	HAL_CAN_ErrorCallback, .Lfunc_end32-HAL_CAN_ErrorCallback
	.cfi_endproc
	.cantunwind
	.fnend
                                        @ -- End function
	.section	.text.HAL_CAN_GetState,"ax",%progbits
	.hidden	HAL_CAN_GetState                @ -- Begin function HAL_CAN_GetState
	.globl	HAL_CAN_GetState
	.p2align	2
	.type	HAL_CAN_GetState,%function
	.code	16                              @ @HAL_CAN_GetState
	.thumb_func
HAL_CAN_GetState:
.Lfunc_begin33:
	.loc	6 1909 0                        @ ../ThirdParty/STM32F4xx_HAL_Driver/Src/stm32f4xx_hal_can.c:1909:0
	.fnstart
	.cfi_startproc
@ %bb.0:
	.pad	#8
	sub	sp, #8
	.cfi_def_cfa_offset 8
	str	r0, [sp, #4]
.Ltmp355:
	.loc	6 1910 32 prologue_end          @ ../ThirdParty/STM32F4xx_HAL_Driver/Src/stm32f4xx_hal_can.c:1910:32
	ldr	r0, [sp, #4]
	.loc	6 1910 38 is_stmt 0             @ ../ThirdParty/STM32F4xx_HAL_Driver/Src/stm32f4xx_hal_can.c:1910:38
	ldrb.w	r0, [r0, #32]
	.loc	6 1910 24                       @ ../ThirdParty/STM32F4xx_HAL_Driver/Src/stm32f4xx_hal_can.c:1910:24
	strb.w	r0, [sp, #3]
.Ltmp356:
	.loc	6 1912 8 is_stmt 1              @ ../ThirdParty/STM32F4xx_HAL_Driver/Src/stm32f4xx_hal_can.c:1912:8
	ldr	r0, [sp, #4]
	.loc	6 1912 14 is_stmt 0             @ ../ThirdParty/STM32F4xx_HAL_Driver/Src/stm32f4xx_hal_can.c:1912:14
	ldrb.w	r0, [r0, #32]
	.loc	6 1912 44                       @ ../ThirdParty/STM32F4xx_HAL_Driver/Src/stm32f4xx_hal_can.c:1912:44
	cmp	r0, #1
	beq	.LBB33_2
	b	.LBB33_1
.LBB33_1:
	.loc	6 1913 8 is_stmt 1              @ ../ThirdParty/STM32F4xx_HAL_Driver/Src/stm32f4xx_hal_can.c:1913:8
	ldr	r0, [sp, #4]
	.loc	6 1913 14 is_stmt 0             @ ../ThirdParty/STM32F4xx_HAL_Driver/Src/stm32f4xx_hal_can.c:1913:14
	ldrb.w	r0, [r0, #32]
.Ltmp357:
	.loc	6 1912 7 is_stmt 1              @ ../ThirdParty/STM32F4xx_HAL_Driver/Src/stm32f4xx_hal_can.c:1912:7
	cmp	r0, #2
	bne	.LBB33_8
	b	.LBB33_2
.LBB33_2:
.Ltmp358:
	.loc	6 1916 10                       @ ../ThirdParty/STM32F4xx_HAL_Driver/Src/stm32f4xx_hal_can.c:1916:10
	ldr	r0, [sp, #4]
	.loc	6 1916 16 is_stmt 0             @ ../ThirdParty/STM32F4xx_HAL_Driver/Src/stm32f4xx_hal_can.c:1916:16
	ldr	r0, [r0]
	.loc	6 1916 26                       @ ../ThirdParty/STM32F4xx_HAL_Driver/Src/stm32f4xx_hal_can.c:1916:26
	ldr	r0, [r0, #4]
.Ltmp359:
	.loc	6 1916 9                        @ ../ThirdParty/STM32F4xx_HAL_Driver/Src/stm32f4xx_hal_can.c:1916:9
	lsls	r0, r0, #30
	cmp	r0, #0
	bpl	.LBB33_4
	b	.LBB33_3
.LBB33_3:
	.loc	6 0 9                           @ ../ThirdParty/STM32F4xx_HAL_Driver/Src/stm32f4xx_hal_can.c:0:9
	movs	r0, #4
.Ltmp360:
	.loc	6 1919 13 is_stmt 1             @ ../ThirdParty/STM32F4xx_HAL_Driver/Src/stm32f4xx_hal_can.c:1919:13
	strb.w	r0, [sp, #3]
	.loc	6 1920 5                        @ ../ThirdParty/STM32F4xx_HAL_Driver/Src/stm32f4xx_hal_can.c:1920:5
	b	.LBB33_7
.Ltmp361:
.LBB33_4:
	.loc	6 1922 15                       @ ../ThirdParty/STM32F4xx_HAL_Driver/Src/stm32f4xx_hal_can.c:1922:15
	ldr	r0, [sp, #4]
	.loc	6 1922 21 is_stmt 0             @ ../ThirdParty/STM32F4xx_HAL_Driver/Src/stm32f4xx_hal_can.c:1922:21
	ldr	r0, [r0]
	.loc	6 1922 31                       @ ../ThirdParty/STM32F4xx_HAL_Driver/Src/stm32f4xx_hal_can.c:1922:31
	ldr	r0, [r0]
.Ltmp362:
	.loc	6 1922 14                       @ ../ThirdParty/STM32F4xx_HAL_Driver/Src/stm32f4xx_hal_can.c:1922:14
	lsls	r0, r0, #30
	cmp	r0, #0
	bpl	.LBB33_6
	b	.LBB33_5
.LBB33_5:
	.loc	6 0 14                          @ ../ThirdParty/STM32F4xx_HAL_Driver/Src/stm32f4xx_hal_can.c:0:14
	movs	r0, #3
.Ltmp363:
	.loc	6 1925 13 is_stmt 1             @ ../ThirdParty/STM32F4xx_HAL_Driver/Src/stm32f4xx_hal_can.c:1925:13
	strb.w	r0, [sp, #3]
	.loc	6 1926 5                        @ ../ThirdParty/STM32F4xx_HAL_Driver/Src/stm32f4xx_hal_can.c:1926:5
	b	.LBB33_6
.Ltmp364:
.LBB33_6:
	.loc	6 0 5 is_stmt 0                 @ ../ThirdParty/STM32F4xx_HAL_Driver/Src/stm32f4xx_hal_can.c:0:5
	b	.LBB33_7
.LBB33_7:
	.loc	6 1927 3 is_stmt 1              @ ../ThirdParty/STM32F4xx_HAL_Driver/Src/stm32f4xx_hal_can.c:1927:3
	b	.LBB33_8
.Ltmp365:
.LBB33_8:
	.loc	6 1930 10                       @ ../ThirdParty/STM32F4xx_HAL_Driver/Src/stm32f4xx_hal_can.c:1930:10
	ldrb.w	r0, [sp, #3]
	.loc	6 1930 3 epilogue_begin is_stmt 0 @ ../ThirdParty/STM32F4xx_HAL_Driver/Src/stm32f4xx_hal_can.c:1930:3
	add	sp, #8
	bx	lr
.Ltmp366:
.Lfunc_end33:
	.size	HAL_CAN_GetState, .Lfunc_end33-HAL_CAN_GetState
	.cfi_endproc
	.cantunwind
	.fnend
                                        @ -- End function
	.section	.text.HAL_CAN_GetError,"ax",%progbits
	.hidden	HAL_CAN_GetError                @ -- Begin function HAL_CAN_GetError
	.globl	HAL_CAN_GetError
	.p2align	2
	.type	HAL_CAN_GetError,%function
	.code	16                              @ @HAL_CAN_GetError
	.thumb_func
HAL_CAN_GetError:
.Lfunc_begin34:
	.loc	6 1940 0 is_stmt 1              @ ../ThirdParty/STM32F4xx_HAL_Driver/Src/stm32f4xx_hal_can.c:1940:0
	.fnstart
	.cfi_startproc
@ %bb.0:
	.pad	#4
	sub	sp, #4
	.cfi_def_cfa_offset 4
	str	r0, [sp]
.Ltmp367:
	.loc	6 1942 10 prologue_end          @ ../ThirdParty/STM32F4xx_HAL_Driver/Src/stm32f4xx_hal_can.c:1942:10
	ldr	r0, [sp]
	.loc	6 1942 16 is_stmt 0             @ ../ThirdParty/STM32F4xx_HAL_Driver/Src/stm32f4xx_hal_can.c:1942:16
	ldr	r0, [r0, #36]
	.loc	6 1942 3 epilogue_begin         @ ../ThirdParty/STM32F4xx_HAL_Driver/Src/stm32f4xx_hal_can.c:1942:3
	add	sp, #4
	bx	lr
.Ltmp368:
.Lfunc_end34:
	.size	HAL_CAN_GetError, .Lfunc_end34-HAL_CAN_GetError
	.cfi_endproc
	.cantunwind
	.fnend
                                        @ -- End function
	.section	.text.HAL_CAN_ResetError,"ax",%progbits
	.hidden	HAL_CAN_ResetError              @ -- Begin function HAL_CAN_ResetError
	.globl	HAL_CAN_ResetError
	.p2align	2
	.type	HAL_CAN_ResetError,%function
	.code	16                              @ @HAL_CAN_ResetError
	.thumb_func
HAL_CAN_ResetError:
.Lfunc_begin35:
	.loc	6 1952 0 is_stmt 1              @ ../ThirdParty/STM32F4xx_HAL_Driver/Src/stm32f4xx_hal_can.c:1952:0
	.fnstart
	.cfi_startproc
@ %bb.0:
	.pad	#8
	sub	sp, #8
	.cfi_def_cfa_offset 8
	str	r0, [sp, #4]
	movs	r0, #0
.Ltmp369:
	.loc	6 1953 21 prologue_end          @ ../ThirdParty/STM32F4xx_HAL_Driver/Src/stm32f4xx_hal_can.c:1953:21
	strb.w	r0, [sp, #3]
.Ltmp370:
	.loc	6 1955 8                        @ ../ThirdParty/STM32F4xx_HAL_Driver/Src/stm32f4xx_hal_can.c:1955:8
	ldr	r0, [sp, #4]
	.loc	6 1955 14 is_stmt 0             @ ../ThirdParty/STM32F4xx_HAL_Driver/Src/stm32f4xx_hal_can.c:1955:14
	ldrb.w	r0, [r0, #32]
	.loc	6 1955 44                       @ ../ThirdParty/STM32F4xx_HAL_Driver/Src/stm32f4xx_hal_can.c:1955:44
	cmp	r0, #1
	beq	.LBB35_2
	b	.LBB35_1
.LBB35_1:
	.loc	6 1956 8 is_stmt 1              @ ../ThirdParty/STM32F4xx_HAL_Driver/Src/stm32f4xx_hal_can.c:1956:8
	ldr	r0, [sp, #4]
	.loc	6 1956 14 is_stmt 0             @ ../ThirdParty/STM32F4xx_HAL_Driver/Src/stm32f4xx_hal_can.c:1956:14
	ldrb.w	r0, [r0, #32]
.Ltmp371:
	.loc	6 1955 7 is_stmt 1              @ ../ThirdParty/STM32F4xx_HAL_Driver/Src/stm32f4xx_hal_can.c:1955:7
	cmp	r0, #2
	bne	.LBB35_3
	b	.LBB35_2
.LBB35_2:
.Ltmp372:
	.loc	6 1959 5                        @ ../ThirdParty/STM32F4xx_HAL_Driver/Src/stm32f4xx_hal_can.c:1959:5
	ldr	r1, [sp, #4]
	movs	r0, #0
	.loc	6 1959 21 is_stmt 0             @ ../ThirdParty/STM32F4xx_HAL_Driver/Src/stm32f4xx_hal_can.c:1959:21
	str	r0, [r1, #36]
	.loc	6 1960 3 is_stmt 1              @ ../ThirdParty/STM32F4xx_HAL_Driver/Src/stm32f4xx_hal_can.c:1960:3
	b	.LBB35_4
.Ltmp373:
.LBB35_3:
	.loc	6 1964 5                        @ ../ThirdParty/STM32F4xx_HAL_Driver/Src/stm32f4xx_hal_can.c:1964:5
	ldr	r1, [sp, #4]
	.loc	6 1964 21 is_stmt 0             @ ../ThirdParty/STM32F4xx_HAL_Driver/Src/stm32f4xx_hal_can.c:1964:21
	ldr	r0, [r1, #36]
	orr	r0, r0, #262144
	str	r0, [r1, #36]
	movs	r0, #1
	.loc	6 1966 12 is_stmt 1             @ ../ThirdParty/STM32F4xx_HAL_Driver/Src/stm32f4xx_hal_can.c:1966:12
	strb.w	r0, [sp, #3]
	b	.LBB35_4
.Ltmp374:
.LBB35_4:
	.loc	6 1970 10                       @ ../ThirdParty/STM32F4xx_HAL_Driver/Src/stm32f4xx_hal_can.c:1970:10
	ldrb.w	r0, [sp, #3]
	.loc	6 1970 3 epilogue_begin is_stmt 0 @ ../ThirdParty/STM32F4xx_HAL_Driver/Src/stm32f4xx_hal_can.c:1970:3
	add	sp, #8
	bx	lr
.Ltmp375:
.Lfunc_end35:
	.size	HAL_CAN_ResetError, .Lfunc_end35-HAL_CAN_ResetError
	.cfi_endproc
	.cantunwind
	.fnend
                                        @ -- End function
	.section	".note.GNU-stack","",%progbits
	.eabi_attribute	30, 6	@ Tag_ABI_optimization_goals
	.ARM_attribute	16, 1	@ Tag_AV_eba