	.text
	.syntax unified
	.eabi_attribute	67, "2.09"	@ Tag_conformance
	.cpu	cortex-m4
	.eabi_attribute	6, 13	@ Tag_CPU_arch
	.eabi_attribute	7, 77	@ Tag_CPU_arch_profile
	.eabi_attribute	8, 0	@ Tag_ARM_ISA_use
	.eabi_attribute	9, 2	@ Tag_THUMB_ISA_use
	.fpu	fpv4-sp-d16
	.eabi_attribute	27, 1	@ Tag_ABI_HardFP_use
	.eabi_attribute	36, 1	@ Tag_FP_HP_extension
	.eabi_attribute	34, 1	@ Tag_CPU_unaligned_access
	.eabi_attribute	17, 1	@ Tag_ABI_PCS_GOT_use
	.eabi_attribute	20, 2	@ Tag_ABI_FP_denormal
	.eabi_attribute	21, 0	@ Tag_ABI_FP_exceptions
	.eabi_attribute	23, 1	@ Tag_ABI_FP_number_model
	.eabi_attribute	24, 1	@ Tag_ABI_align_needed
	.eabi_attribute	25, 1	@ Tag_ABI_align_preserved
	.eabi_attribute	28, 1	@ Tag_ABI_VFP_args
	.eabi_attribute	38, 1	@ Tag_ABI_FP_16bit_format
	.eabi_attribute	18, 2	@ Tag_ABI_PCS_wchar_t
	.eabi_attribute	26, 1	@ Tag_ABI_enum_size
	.eabi_attribute	14, 0	@ Tag_ABI_PCS_R9_use
	.file	"stm32f4xx_hal_adc.c"
	.file	1 "D:\\ikingtec\\Robot\\ODrive\\Firmware\\MDK-ARM" "../ThirdParty/STM32F4xx_HAL_Driver/Inc/stm32f4xx_hal_def.h"
	.file	2 "D:\\ikingtec\\Robot\\ODrive\\Firmware\\MDK-ARM" "../ThirdParty/STM32F4xx_HAL_Driver/Inc\\stm32f4xx_hal_dma.h"
	.file	3 "D:\\ikingtec\\Robot\\ODrive\\Firmware\\MDK-ARM" "../ThirdParty/CMSIS/Device/ST/STM32F4xx/Include\\stm32f4xx.h"
	.file	4 "D:\\Embed\\MDK\\MDK\\ARM\\ARMCompilerV621\\Bin\\..\\include" "stdint.h"
	.file	5 "D:\\ikingtec\\Robot\\ODrive\\Firmware\\MDK-ARM" "../ThirdParty/CMSIS/Device/ST/STM32F4xx/Include/stm32f405xx.h"
	.file	6 "D:\\ikingtec\\Robot\\ODrive\\Firmware\\MDK-ARM" "../ThirdParty/STM32F4xx_HAL_Driver/Inc\\stm32f4xx_hal_adc.h"
	.section	.text.HAL_ADC_Init,"ax",%progbits
	.hidden	HAL_ADC_Init                    @ -- Begin function HAL_ADC_Init
	.globl	HAL_ADC_Init
	.p2align	2
	.type	HAL_ADC_Init,%function
	.code	16                              @ @HAL_ADC_Init
	.thumb_func
HAL_ADC_Init:
.Lfunc_begin0:
	.file	7 "D:\\ikingtec\\Robot\\ODrive\\Firmware\\MDK-ARM" "../ThirdParty/STM32F4xx_HAL_Driver/Src/stm32f4xx_hal_adc.c"
	.loc	7 257 0                         @ ../ThirdParty/STM32F4xx_HAL_Driver/Src/stm32f4xx_hal_adc.c:257:0
	.fnstart
	.cfi_sections .debug_frame
	.cfi_startproc
@ %bb.0:
	.save	{r7, lr}
	push	{r7, lr}
	.cfi_def_cfa_offset 8
	.cfi_offset lr, -4
	.cfi_offset r7, -8
	.pad	#16
	sub	sp, #16
	.cfi_def_cfa_offset 24
	str	r0, [sp, #8]
	movs	r0, #0
.Ltmp0:
	.loc	7 258 21 prologue_end           @ ../ThirdParty/STM32F4xx_HAL_Driver/Src/stm32f4xx_hal_adc.c:258:21
	strb.w	r0, [sp, #7]
.Ltmp1:
	.loc	7 261 6                         @ ../ThirdParty/STM32F4xx_HAL_Driver/Src/stm32f4xx_hal_adc.c:261:6
	ldr	r0, [sp, #8]
.Ltmp2:
	.loc	7 261 6 is_stmt 0               @ ../ThirdParty/STM32F4xx_HAL_Driver/Src/stm32f4xx_hal_adc.c:261:6
	cbnz	r0, .LBB0_2
	b	.LBB0_1
.LBB0_1:
	.loc	7 0 6                           @ ../ThirdParty/STM32F4xx_HAL_Driver/Src/stm32f4xx_hal_adc.c:0:6
	movs	r0, #1
.Ltmp3:
	.loc	7 263 5 is_stmt 1               @ ../ThirdParty/STM32F4xx_HAL_Driver/Src/stm32f4xx_hal_adc.c:263:5
	strb.w	r0, [sp, #15]
	b	.LBB0_12
.Ltmp4:
.LBB0_2:
	.loc	7 279 6                         @ ../ThirdParty/STM32F4xx_HAL_Driver/Src/stm32f4xx_hal_adc.c:279:6
	ldr	r0, [sp, #8]
	.loc	7 279 17 is_stmt 0              @ ../ThirdParty/STM32F4xx_HAL_Driver/Src/stm32f4xx_hal_adc.c:279:17
	ldr	r0, [r0, #40]
	movs	r1, #1
	movt	r1, #3840
.Ltmp5:
	.loc	7 279 6                         @ ../ThirdParty/STM32F4xx_HAL_Driver/Src/stm32f4xx_hal_adc.c:279:6
	cmp	r0, r1
	beq	.LBB0_4
	b	.LBB0_3
.LBB0_3:
.Ltmp6:
	.loc	7 282 3 is_stmt 1               @ ../ThirdParty/STM32F4xx_HAL_Driver/Src/stm32f4xx_hal_adc.c:282:3
	b	.LBB0_4
.Ltmp7:
.LBB0_4:
	.loc	7 284 6                         @ ../ThirdParty/STM32F4xx_HAL_Driver/Src/stm32f4xx_hal_adc.c:284:6
	ldr	r0, [sp, #8]
	.loc	7 284 12 is_stmt 0              @ ../ThirdParty/STM32F4xx_HAL_Driver/Src/stm32f4xx_hal_adc.c:284:12
	ldr	r0, [r0, #64]
.Ltmp8:
	.loc	7 284 6                         @ ../ThirdParty/STM32F4xx_HAL_Driver/Src/stm32f4xx_hal_adc.c:284:6
	cbnz	r0, .LBB0_6
	b	.LBB0_5
.LBB0_5:
.Ltmp9:
	.loc	7 287 5 is_stmt 1               @ ../ThirdParty/STM32F4xx_HAL_Driver/Src/stm32f4xx_hal_adc.c:287:5
	ldr	r1, [sp, #8]
	movs	r0, #0
	str	r0, [r1, #68]
	.loc	7 290 5                         @ ../ThirdParty/STM32F4xx_HAL_Driver/Src/stm32f4xx_hal_adc.c:290:5
	ldr	r1, [sp, #8]
	.loc	7 290 16 is_stmt 0              @ ../ThirdParty/STM32F4xx_HAL_Driver/Src/stm32f4xx_hal_adc.c:290:16
	strb.w	r0, [r1, #60]
	.loc	7 293 21 is_stmt 1              @ ../ThirdParty/STM32F4xx_HAL_Driver/Src/stm32f4xx_hal_adc.c:293:21
	ldr	r0, [sp, #8]
	.loc	7 293 5 is_stmt 0               @ ../ThirdParty/STM32F4xx_HAL_Driver/Src/stm32f4xx_hal_adc.c:293:5
	bl	HAL_ADC_MspInit
	.loc	7 294 3 is_stmt 1               @ ../ThirdParty/STM32F4xx_HAL_Driver/Src/stm32f4xx_hal_adc.c:294:3
	b	.LBB0_6
.Ltmp10:
.LBB0_6:
	.loc	7 298 7                         @ ../ThirdParty/STM32F4xx_HAL_Driver/Src/stm32f4xx_hal_adc.c:298:7
	ldr	r0, [sp, #8]
	ldr	r0, [r0, #64]
.Ltmp11:
	.loc	7 298 7 is_stmt 0               @ ../ThirdParty/STM32F4xx_HAL_Driver/Src/stm32f4xx_hal_adc.c:298:7
	lsls	r0, r0, #27
	cmp	r0, #0
	bmi	.LBB0_8
	b	.LBB0_7
.LBB0_7:
.Ltmp12:
	.loc	7 301 5 is_stmt 1               @ ../ThirdParty/STM32F4xx_HAL_Driver/Src/stm32f4xx_hal_adc.c:301:5
	ldr	r0, [sp, #8]
	ldr	r0, [r0, #64]
	orr	r0, r0, #2
	bic	r0, r0, #4352
	ldr	r1, [sp, #8]
	str	r0, [r1, #64]
	.loc	7 306 14                        @ ../ThirdParty/STM32F4xx_HAL_Driver/Src/stm32f4xx_hal_adc.c:306:14
	ldr	r0, [sp, #8]
	.loc	7 306 5 is_stmt 0               @ ../ThirdParty/STM32F4xx_HAL_Driver/Src/stm32f4xx_hal_adc.c:306:5
	bl	ADC_Init
	.loc	7 309 5 is_stmt 1               @ ../ThirdParty/STM32F4xx_HAL_Driver/Src/stm32f4xx_hal_adc.c:309:5
	ldr	r1, [sp, #8]
	movs	r0, #0
	str	r0, [r1, #68]
	.loc	7 312 5                         @ ../ThirdParty/STM32F4xx_HAL_Driver/Src/stm32f4xx_hal_adc.c:312:5
	ldr	r0, [sp, #8]
	ldr	r0, [r0, #64]
	orr	r0, r0, #1
	bic	r0, r0, #2
	ldr	r1, [sp, #8]
	str	r0, [r1, #64]
	.loc	7 315 3                         @ ../ThirdParty/STM32F4xx_HAL_Driver/Src/stm32f4xx_hal_adc.c:315:3
	b	.LBB0_9
.Ltmp13:
.LBB0_8:
	.loc	7 0 3 is_stmt 0                 @ ../ThirdParty/STM32F4xx_HAL_Driver/Src/stm32f4xx_hal_adc.c:0:3
	movs	r0, #1
.Ltmp14:
	.loc	7 318 20 is_stmt 1              @ ../ThirdParty/STM32F4xx_HAL_Driver/Src/stm32f4xx_hal_adc.c:318:20
	strb.w	r0, [sp, #7]
	b	.LBB0_9
.Ltmp15:
.LBB0_9:
	.loc	7 322 3                         @ ../ThirdParty/STM32F4xx_HAL_Driver/Src/stm32f4xx_hal_adc.c:322:3
	b	.LBB0_10
.LBB0_10:
.Ltmp16:
	.loc	7 322 3 is_stmt 0               @ ../ThirdParty/STM32F4xx_HAL_Driver/Src/stm32f4xx_hal_adc.c:322:3
	ldr	r1, [sp, #8]
	movs	r0, #0
	strb.w	r0, [r1, #60]
	b	.LBB0_11
.Ltmp17:
.LBB0_11:
	.loc	7 325 10 is_stmt 1              @ ../ThirdParty/STM32F4xx_HAL_Driver/Src/stm32f4xx_hal_adc.c:325:10
	ldrb.w	r0, [sp, #7]
	.loc	7 325 3 is_stmt 0               @ ../ThirdParty/STM32F4xx_HAL_Driver/Src/stm32f4xx_hal_adc.c:325:3
	strb.w	r0, [sp, #15]
	b	.LBB0_12
.LBB0_12:
	.loc	7 326 1 is_stmt 1               @ ../ThirdParty/STM32F4xx_HAL_Driver/Src/stm32f4xx_hal_adc.c:326:1
	ldrb.w	r0, [sp, #15]
	.loc	7 326 1 epilogue_begin is_stmt 0 @ ../ThirdParty/STM32F4xx_HAL_Driver/Src/stm32f4xx_hal_adc.c:326:1
	add	sp, #16
	pop	{r7, pc}
.Ltmp18:
.Lfunc_end0:
	.size	HAL_ADC_Init, .Lfunc_end0-HAL_ADC_Init
	.cfi_endproc
	.cantunwind
	.fnend
                                        @ -- End function
	.section	.text.HAL_ADC_MspInit,"ax",%progbits
	.hidden	HAL_ADC_MspInit                 @ -- Begin function HAL_ADC_MspInit
	.weak	HAL_ADC_MspInit
	.p2align	2
	.type	HAL_ADC_MspInit,%function
	.code	16                              @ @HAL_ADC_MspInit
	.thumb_func
HAL_ADC_MspInit:
.Lfunc_begin1:
	.loc	7 382 0 is_stmt 1               @ ../ThirdParty/STM32F4xx_HAL_Driver/Src/stm32f4xx_hal_adc.c:382:0
	.fnstart
	.cfi_startproc
@ %bb.0:
	.pad	#4
	sub	sp, #4
	.cfi_def_cfa_offset 4
	str	r0, [sp]
.Ltmp19:
	.loc	7 388 1 prologue_end epilogue_begin @ ../ThirdParty/STM32F4xx_HAL_Driver/Src/stm32f4xx_hal_adc.c:388:1
	add	sp, #4
	bx	lr
.Ltmp20:
.Lfunc_end1:
	.size	HAL_ADC_MspInit, .Lfunc_end1-HAL_ADC_MspInit
	.cfi_endproc
	.cantunwind
	.fnend
                                        @ -- End function
	.section	.text.ADC_Init,"ax",%progbits
	.p2align	2                               @ -- Begin function ADC_Init
	.type	ADC_Init,%function
	.code	16                              @ @ADC_Init
	.thumb_func
ADC_Init:
.Lfunc_begin2:
	.loc	7 1522 0                        @ ../ThirdParty/STM32F4xx_HAL_Driver/Src/stm32f4xx_hal_adc.c:1522:0
	.fnstart
	.cfi_startproc
@ %bb.0:
	.pad	#8
	sub	sp, #8
	.cfi_def_cfa_offset 8
	str	r0, [sp, #4]
	movw	r0, #8960
	movt	r0, #16385
.Ltmp21:
	.loc	7 1529 17 prologue_end          @ ../ThirdParty/STM32F4xx_HAL_Driver/Src/stm32f4xx_hal_adc.c:1529:17
	str	r0, [sp]
	.loc	7 1532 3                        @ ../ThirdParty/STM32F4xx_HAL_Driver/Src/stm32f4xx_hal_adc.c:1532:3
	ldr	r1, [sp]
	.loc	7 1532 22 is_stmt 0             @ ../ThirdParty/STM32F4xx_HAL_Driver/Src/stm32f4xx_hal_adc.c:1532:22
	ldr	r0, [r1, #4]
	bic	r0, r0, #196608
	str	r0, [r1, #4]
	.loc	7 1533 26 is_stmt 1             @ ../ThirdParty/STM32F4xx_HAL_Driver/Src/stm32f4xx_hal_adc.c:1533:26
	ldr	r0, [sp, #4]
	.loc	7 1533 37 is_stmt 0             @ ../ThirdParty/STM32F4xx_HAL_Driver/Src/stm32f4xx_hal_adc.c:1533:37
	ldr	r2, [r0, #4]
	.loc	7 1533 3                        @ ../ThirdParty/STM32F4xx_HAL_Driver/Src/stm32f4xx_hal_adc.c:1533:3
	ldr	r1, [sp]
	.loc	7 1533 22                       @ ../ThirdParty/STM32F4xx_HAL_Driver/Src/stm32f4xx_hal_adc.c:1533:22
	ldr	r0, [r1, #4]
	orrs	r0, r2
	str	r0, [r1, #4]
	.loc	7 1536 3 is_stmt 1              @ ../ThirdParty/STM32F4xx_HAL_Driver/Src/stm32f4xx_hal_adc.c:1536:3
	ldr	r0, [sp, #4]
	.loc	7 1536 9 is_stmt 0              @ ../ThirdParty/STM32F4xx_HAL_Driver/Src/stm32f4xx_hal_adc.c:1536:9
	ldr	r1, [r0]
	.loc	7 1536 23                       @ ../ThirdParty/STM32F4xx_HAL_Driver/Src/stm32f4xx_hal_adc.c:1536:23
	ldr	r0, [r1, #4]
	bic	r0, r0, #256
	str	r0, [r1, #4]
	.loc	7 1537 27 is_stmt 1             @ ../ThirdParty/STM32F4xx_HAL_Driver/Src/stm32f4xx_hal_adc.c:1537:27
	ldr	r0, [sp, #4]
	.loc	7 1537 9 is_stmt 0              @ ../ThirdParty/STM32F4xx_HAL_Driver/Src/stm32f4xx_hal_adc.c:1537:9
	ldr	r1, [r0]
	.loc	7 1537 27                       @ ../ThirdParty/STM32F4xx_HAL_Driver/Src/stm32f4xx_hal_adc.c:1537:27
	ldr	r2, [r0, #16]
	.loc	7 1537 23                       @ ../ThirdParty/STM32F4xx_HAL_Driver/Src/stm32f4xx_hal_adc.c:1537:23
	ldr	r0, [r1, #4]
	orr.w	r0, r0, r2, lsl #8
	str	r0, [r1, #4]
	.loc	7 1540 3 is_stmt 1              @ ../ThirdParty/STM32F4xx_HAL_Driver/Src/stm32f4xx_hal_adc.c:1540:3
	ldr	r0, [sp, #4]
	.loc	7 1540 9 is_stmt 0              @ ../ThirdParty/STM32F4xx_HAL_Driver/Src/stm32f4xx_hal_adc.c:1540:9
	ldr	r1, [r0]
	.loc	7 1540 23                       @ ../ThirdParty/STM32F4xx_HAL_Driver/Src/stm32f4xx_hal_adc.c:1540:23
	ldr	r0, [r1, #4]
	bic	r0, r0, #50331648
	str	r0, [r1, #4]
	.loc	7 1541 27 is_stmt 1             @ ../ThirdParty/STM32F4xx_HAL_Driver/Src/stm32f4xx_hal_adc.c:1541:27
	ldr	r0, [sp, #4]
	.loc	7 1541 9 is_stmt 0              @ ../ThirdParty/STM32F4xx_HAL_Driver/Src/stm32f4xx_hal_adc.c:1541:9
	ldr	r1, [r0]
	.loc	7 1541 38                       @ ../ThirdParty/STM32F4xx_HAL_Driver/Src/stm32f4xx_hal_adc.c:1541:38
	ldr	r2, [r0, #8]
	.loc	7 1541 23                       @ ../ThirdParty/STM32F4xx_HAL_Driver/Src/stm32f4xx_hal_adc.c:1541:23
	ldr	r0, [r1, #4]
	orrs	r0, r2
	str	r0, [r1, #4]
	.loc	7 1544 3 is_stmt 1              @ ../ThirdParty/STM32F4xx_HAL_Driver/Src/stm32f4xx_hal_adc.c:1544:3
	ldr	r0, [sp, #4]
	.loc	7 1544 9 is_stmt 0              @ ../ThirdParty/STM32F4xx_HAL_Driver/Src/stm32f4xx_hal_adc.c:1544:9
	ldr	r1, [r0]
	.loc	7 1544 23                       @ ../ThirdParty/STM32F4xx_HAL_Driver/Src/stm32f4xx_hal_adc.c:1544:23
	ldr	r0, [r1, #8]
	bic	r0, r0, #2048
	str	r0, [r1, #8]
	.loc	7 1545 26 is_stmt 1             @ ../ThirdParty/STM32F4xx_HAL_Driver/Src/stm32f4xx_hal_adc.c:1545:26
	ldr	r0, [sp, #4]
	.loc	7 1545 9 is_stmt 0              @ ../ThirdParty/STM32F4xx_HAL_Driver/Src/stm32f4xx_hal_adc.c:1545:9
	ldr	r1, [r0]
	.loc	7 1545 37                       @ ../ThirdParty/STM32F4xx_HAL_Driver/Src/stm32f4xx_hal_adc.c:1545:37
	ldr	r2, [r0, #12]
	.loc	7 1545 23                       @ ../ThirdParty/STM32F4xx_HAL_Driver/Src/stm32f4xx_hal_adc.c:1545:23
	ldr	r0, [r1, #8]
	orrs	r0, r2
	str	r0, [r1, #8]
.Ltmp22:
	.loc	7 1552 6 is_stmt 1              @ ../ThirdParty/STM32F4xx_HAL_Driver/Src/stm32f4xx_hal_adc.c:1552:6
	ldr	r0, [sp, #4]
	.loc	7 1552 17 is_stmt 0             @ ../ThirdParty/STM32F4xx_HAL_Driver/Src/stm32f4xx_hal_adc.c:1552:17
	ldr	r0, [r0, #40]
	movs	r1, #1
	movt	r1, #3840
.Ltmp23:
	.loc	7 1552 6                        @ ../ThirdParty/STM32F4xx_HAL_Driver/Src/stm32f4xx_hal_adc.c:1552:6
	cmp	r0, r1
	beq	.LBB2_2
	b	.LBB2_1
.LBB2_1:
.Ltmp24:
	.loc	7 1555 5 is_stmt 1              @ ../ThirdParty/STM32F4xx_HAL_Driver/Src/stm32f4xx_hal_adc.c:1555:5
	ldr	r0, [sp, #4]
	.loc	7 1555 11 is_stmt 0             @ ../ThirdParty/STM32F4xx_HAL_Driver/Src/stm32f4xx_hal_adc.c:1555:11
	ldr	r1, [r0]
	.loc	7 1555 25                       @ ../ThirdParty/STM32F4xx_HAL_Driver/Src/stm32f4xx_hal_adc.c:1555:25
	ldr	r0, [r1, #8]
	bic	r0, r0, #251658240
	str	r0, [r1, #8]
	.loc	7 1556 28 is_stmt 1             @ ../ThirdParty/STM32F4xx_HAL_Driver/Src/stm32f4xx_hal_adc.c:1556:28
	ldr	r0, [sp, #4]
	.loc	7 1556 11 is_stmt 0             @ ../ThirdParty/STM32F4xx_HAL_Driver/Src/stm32f4xx_hal_adc.c:1556:11
	ldr	r1, [r0]
	.loc	7 1556 39                       @ ../ThirdParty/STM32F4xx_HAL_Driver/Src/stm32f4xx_hal_adc.c:1556:39
	ldr	r2, [r0, #40]
	.loc	7 1556 25                       @ ../ThirdParty/STM32F4xx_HAL_Driver/Src/stm32f4xx_hal_adc.c:1556:25
	ldr	r0, [r1, #8]
	orrs	r0, r2
	str	r0, [r1, #8]
	.loc	7 1559 5 is_stmt 1              @ ../ThirdParty/STM32F4xx_HAL_Driver/Src/stm32f4xx_hal_adc.c:1559:5
	ldr	r0, [sp, #4]
	.loc	7 1559 11 is_stmt 0             @ ../ThirdParty/STM32F4xx_HAL_Driver/Src/stm32f4xx_hal_adc.c:1559:11
	ldr	r1, [r0]
	.loc	7 1559 25                       @ ../ThirdParty/STM32F4xx_HAL_Driver/Src/stm32f4xx_hal_adc.c:1559:25
	ldr	r0, [r1, #8]
	bic	r0, r0, #805306368
	str	r0, [r1, #8]
	.loc	7 1560 28 is_stmt 1             @ ../ThirdParty/STM32F4xx_HAL_Driver/Src/stm32f4xx_hal_adc.c:1560:28
	ldr	r0, [sp, #4]
	.loc	7 1560 11 is_stmt 0             @ ../ThirdParty/STM32F4xx_HAL_Driver/Src/stm32f4xx_hal_adc.c:1560:11
	ldr	r1, [r0]
	.loc	7 1560 39                       @ ../ThirdParty/STM32F4xx_HAL_Driver/Src/stm32f4xx_hal_adc.c:1560:39
	ldr	r2, [r0, #44]
	.loc	7 1560 25                       @ ../ThirdParty/STM32F4xx_HAL_Driver/Src/stm32f4xx_hal_adc.c:1560:25
	ldr	r0, [r1, #8]
	orrs	r0, r2
	str	r0, [r1, #8]
	.loc	7 1561 3 is_stmt 1              @ ../ThirdParty/STM32F4xx_HAL_Driver/Src/stm32f4xx_hal_adc.c:1561:3
	b	.LBB2_3
.Ltmp25:
.LBB2_2:
	.loc	7 1565 5                        @ ../ThirdParty/STM32F4xx_HAL_Driver/Src/stm32f4xx_hal_adc.c:1565:5
	ldr	r0, [sp, #4]
	.loc	7 1565 11 is_stmt 0             @ ../ThirdParty/STM32F4xx_HAL_Driver/Src/stm32f4xx_hal_adc.c:1565:11
	ldr	r1, [r0]
	.loc	7 1565 25                       @ ../ThirdParty/STM32F4xx_HAL_Driver/Src/stm32f4xx_hal_adc.c:1565:25
	ldr	r0, [r1, #8]
	bic	r0, r0, #251658240
	str	r0, [r1, #8]
	.loc	7 1566 5 is_stmt 1              @ ../ThirdParty/STM32F4xx_HAL_Driver/Src/stm32f4xx_hal_adc.c:1566:5
	ldr	r0, [sp, #4]
	.loc	7 1566 11 is_stmt 0             @ ../ThirdParty/STM32F4xx_HAL_Driver/Src/stm32f4xx_hal_adc.c:1566:11
	ldr	r1, [r0]
	.loc	7 1566 25                       @ ../ThirdParty/STM32F4xx_HAL_Driver/Src/stm32f4xx_hal_adc.c:1566:25
	ldr	r0, [r1, #8]
	bic	r0, r0, #805306368
	str	r0, [r1, #8]
	b	.LBB2_3
.Ltmp26:
.LBB2_3:
	.loc	7 1570 3 is_stmt 1              @ ../ThirdParty/STM32F4xx_HAL_Driver/Src/stm32f4xx_hal_adc.c:1570:3
	ldr	r0, [sp, #4]
	.loc	7 1570 9 is_stmt 0              @ ../ThirdParty/STM32F4xx_HAL_Driver/Src/stm32f4xx_hal_adc.c:1570:9
	ldr	r1, [r0]
	.loc	7 1570 23                       @ ../ThirdParty/STM32F4xx_HAL_Driver/Src/stm32f4xx_hal_adc.c:1570:23
	ldr	r0, [r1, #8]
	bic	r0, r0, #2
	str	r0, [r1, #8]
	.loc	7 1571 26 is_stmt 1             @ ../ThirdParty/STM32F4xx_HAL_Driver/Src/stm32f4xx_hal_adc.c:1571:26
	ldr	r0, [sp, #4]
	.loc	7 1571 9 is_stmt 0              @ ../ThirdParty/STM32F4xx_HAL_Driver/Src/stm32f4xx_hal_adc.c:1571:9
	ldr	r1, [r0]
	.loc	7 1571 26                       @ ../ThirdParty/STM32F4xx_HAL_Driver/Src/stm32f4xx_hal_adc.c:1571:26
	ldr	r2, [r0, #24]
	.loc	7 1571 23                       @ ../ThirdParty/STM32F4xx_HAL_Driver/Src/stm32f4xx_hal_adc.c:1571:23
	ldr	r0, [r1, #8]
	orr.w	r0, r0, r2, lsl #1
	str	r0, [r1, #8]
.Ltmp27:
	.loc	7 1573 6 is_stmt 1              @ ../ThirdParty/STM32F4xx_HAL_Driver/Src/stm32f4xx_hal_adc.c:1573:6
	ldr	r0, [sp, #4]
	.loc	7 1573 17 is_stmt 0             @ ../ThirdParty/STM32F4xx_HAL_Driver/Src/stm32f4xx_hal_adc.c:1573:17
	ldr	r0, [r0, #32]
.Ltmp28:
	.loc	7 1573 6                        @ ../ThirdParty/STM32F4xx_HAL_Driver/Src/stm32f4xx_hal_adc.c:1573:6
	cbz	r0, .LBB2_5
	b	.LBB2_4
.LBB2_4:
.Ltmp29:
	.loc	7 1578 5 is_stmt 1              @ ../ThirdParty/STM32F4xx_HAL_Driver/Src/stm32f4xx_hal_adc.c:1578:5
	ldr	r0, [sp, #4]
	.loc	7 1578 11 is_stmt 0             @ ../ThirdParty/STM32F4xx_HAL_Driver/Src/stm32f4xx_hal_adc.c:1578:11
	ldr	r1, [r0]
	.loc	7 1578 25                       @ ../ThirdParty/STM32F4xx_HAL_Driver/Src/stm32f4xx_hal_adc.c:1578:25
	ldr	r0, [r1, #4]
	orr	r0, r0, #2048
	str	r0, [r1, #4]
	.loc	7 1581 5 is_stmt 1              @ ../ThirdParty/STM32F4xx_HAL_Driver/Src/stm32f4xx_hal_adc.c:1581:5
	ldr	r0, [sp, #4]
	.loc	7 1581 11 is_stmt 0             @ ../ThirdParty/STM32F4xx_HAL_Driver/Src/stm32f4xx_hal_adc.c:1581:11
	ldr	r1, [r0]
	.loc	7 1581 25                       @ ../ThirdParty/STM32F4xx_HAL_Driver/Src/stm32f4xx_hal_adc.c:1581:25
	ldr	r0, [r1, #4]
	bic	r0, r0, #57344
	str	r0, [r1, #4]
	.loc	7 1582 29 is_stmt 1             @ ../ThirdParty/STM32F4xx_HAL_Driver/Src/stm32f4xx_hal_adc.c:1582:29
	ldr	r0, [sp, #4]
	.loc	7 1582 11 is_stmt 0             @ ../ThirdParty/STM32F4xx_HAL_Driver/Src/stm32f4xx_hal_adc.c:1582:11
	ldr	r1, [r0]
	.loc	7 1582 29                       @ ../ThirdParty/STM32F4xx_HAL_Driver/Src/stm32f4xx_hal_adc.c:1582:29
	ldr	r2, [r0, #36]
	movw	r0, #57344
	movt	r0, #65535
	add.w	r2, r0, r2, lsl #13
	.loc	7 1582 25                       @ ../ThirdParty/STM32F4xx_HAL_Driver/Src/stm32f4xx_hal_adc.c:1582:25
	ldr	r0, [r1, #4]
	orrs	r0, r2
	str	r0, [r1, #4]
	.loc	7 1583 3 is_stmt 1              @ ../ThirdParty/STM32F4xx_HAL_Driver/Src/stm32f4xx_hal_adc.c:1583:3
	b	.LBB2_6
.Ltmp30:
.LBB2_5:
	.loc	7 1587 5                        @ ../ThirdParty/STM32F4xx_HAL_Driver/Src/stm32f4xx_hal_adc.c:1587:5
	ldr	r0, [sp, #4]
	.loc	7 1587 11 is_stmt 0             @ ../ThirdParty/STM32F4xx_HAL_Driver/Src/stm32f4xx_hal_adc.c:1587:11
	ldr	r1, [r0]
	.loc	7 1587 25                       @ ../ThirdParty/STM32F4xx_HAL_Driver/Src/stm32f4xx_hal_adc.c:1587:25
	ldr	r0, [r1, #4]
	bic	r0, r0, #2048
	str	r0, [r1, #4]
	b	.LBB2_6
.Ltmp31:
.LBB2_6:
	.loc	7 1591 3 is_stmt 1              @ ../ThirdParty/STM32F4xx_HAL_Driver/Src/stm32f4xx_hal_adc.c:1591:3
	ldr	r0, [sp, #4]
	.loc	7 1591 9 is_stmt 0              @ ../ThirdParty/STM32F4xx_HAL_Driver/Src/stm32f4xx_hal_adc.c:1591:9
	ldr	r1, [r0]
	.loc	7 1591 24                       @ ../ThirdParty/STM32F4xx_HAL_Driver/Src/stm32f4xx_hal_adc.c:1591:24
	ldr	r0, [r1, #44]
	bic	r0, r0, #15728640
	str	r0, [r1, #44]
	.loc	7 1592 28 is_stmt 1             @ ../ThirdParty/STM32F4xx_HAL_Driver/Src/stm32f4xx_hal_adc.c:1592:28
	ldr	r0, [sp, #4]
	.loc	7 1592 9 is_stmt 0              @ ../ThirdParty/STM32F4xx_HAL_Driver/Src/stm32f4xx_hal_adc.c:1592:9
	ldr	r1, [r0]
	.loc	7 1592 28                       @ ../ThirdParty/STM32F4xx_HAL_Driver/Src/stm32f4xx_hal_adc.c:1592:28
	ldr	r2, [r0, #28]
	movs	r0, #0
	movt	r0, #65520
	add.w	r2, r0, r2, lsl #20
	.loc	7 1592 24                       @ ../ThirdParty/STM32F4xx_HAL_Driver/Src/stm32f4xx_hal_adc.c:1592:24
	ldr	r0, [r1, #44]
	orrs	r0, r2
	str	r0, [r1, #44]
	.loc	7 1595 3 is_stmt 1              @ ../ThirdParty/STM32F4xx_HAL_Driver/Src/stm32f4xx_hal_adc.c:1595:3
	ldr	r0, [sp, #4]
	.loc	7 1595 9 is_stmt 0              @ ../ThirdParty/STM32F4xx_HAL_Driver/Src/stm32f4xx_hal_adc.c:1595:9
	ldr	r1, [r0]
	.loc	7 1595 23                       @ ../ThirdParty/STM32F4xx_HAL_Driver/Src/stm32f4xx_hal_adc.c:1595:23
	ldr	r0, [r1, #8]
	bic	r0, r0, #512
	str	r0, [r1, #8]
	.loc	7 1596 26 is_stmt 1             @ ../ThirdParty/STM32F4xx_HAL_Driver/Src/stm32f4xx_hal_adc.c:1596:26
	ldr	r0, [sp, #4]
	.loc	7 1596 9 is_stmt 0              @ ../ThirdParty/STM32F4xx_HAL_Driver/Src/stm32f4xx_hal_adc.c:1596:9
	ldr	r1, [r0]
	.loc	7 1596 26                       @ ../ThirdParty/STM32F4xx_HAL_Driver/Src/stm32f4xx_hal_adc.c:1596:26
	ldr	r2, [r0, #48]
	.loc	7 1596 23                       @ ../ThirdParty/STM32F4xx_HAL_Driver/Src/stm32f4xx_hal_adc.c:1596:23
	ldr	r0, [r1, #8]
	orr.w	r0, r0, r2, lsl #9
	str	r0, [r1, #8]
	.loc	7 1599 3 is_stmt 1              @ ../ThirdParty/STM32F4xx_HAL_Driver/Src/stm32f4xx_hal_adc.c:1599:3
	ldr	r0, [sp, #4]
	.loc	7 1599 9 is_stmt 0              @ ../ThirdParty/STM32F4xx_HAL_Driver/Src/stm32f4xx_hal_adc.c:1599:9
	ldr	r1, [r0]
	.loc	7 1599 23                       @ ../ThirdParty/STM32F4xx_HAL_Driver/Src/stm32f4xx_hal_adc.c:1599:23
	ldr	r0, [r1, #8]
	bic	r0, r0, #1024
	str	r0, [r1, #8]
	.loc	7 1600 26 is_stmt 1             @ ../ThirdParty/STM32F4xx_HAL_Driver/Src/stm32f4xx_hal_adc.c:1600:26
	ldr	r0, [sp, #4]
	.loc	7 1600 9 is_stmt 0              @ ../ThirdParty/STM32F4xx_HAL_Driver/Src/stm32f4xx_hal_adc.c:1600:9
	ldr	r1, [r0]
	.loc	7 1600 26                       @ ../ThirdParty/STM32F4xx_HAL_Driver/Src/stm32f4xx_hal_adc.c:1600:26
	ldr	r2, [r0, #20]
	.loc	7 1600 23                       @ ../ThirdParty/STM32F4xx_HAL_Driver/Src/stm32f4xx_hal_adc.c:1600:23
	ldr	r0, [r1, #8]
	orr.w	r0, r0, r2, lsl #10
	str	r0, [r1, #8]
	.loc	7 1601 1 epilogue_begin is_stmt 1 @ ../ThirdParty/STM32F4xx_HAL_Driver/Src/stm32f4xx_hal_adc.c:1601:1
	add	sp, #8
	bx	lr
.Ltmp32:
.Lfunc_end2:
	.size	ADC_Init, .Lfunc_end2-ADC_Init
	.cfi_endproc
	.cantunwind
	.fnend
                                        @ -- End function
	.section	.text.HAL_ADC_DeInit,"ax",%progbits
	.hidden	HAL_ADC_DeInit                  @ -- Begin function HAL_ADC_DeInit
	.globl	HAL_ADC_DeInit
	.p2align	2
	.type	HAL_ADC_DeInit,%function
	.code	16                              @ @HAL_ADC_DeInit
	.thumb_func
HAL_ADC_DeInit:
.Lfunc_begin3:
	.loc	7 335 0                         @ ../ThirdParty/STM32F4xx_HAL_Driver/Src/stm32f4xx_hal_adc.c:335:0
	.fnstart
	.cfi_startproc
@ %bb.0:
	.save	{r7, lr}
	push	{r7, lr}
	.cfi_def_cfa_offset 8
	.cfi_offset lr, -4
	.cfi_offset r7, -8
	.pad	#16
	sub	sp, #16
	.cfi_def_cfa_offset 24
	str	r0, [sp, #8]
	movs	r0, #0
.Ltmp33:
	.loc	7 336 21 prologue_end           @ ../ThirdParty/STM32F4xx_HAL_Driver/Src/stm32f4xx_hal_adc.c:336:21
	strb.w	r0, [sp, #7]
.Ltmp34:
	.loc	7 339 6                         @ ../ThirdParty/STM32F4xx_HAL_Driver/Src/stm32f4xx_hal_adc.c:339:6
	ldr	r0, [sp, #8]
.Ltmp35:
	.loc	7 339 6 is_stmt 0               @ ../ThirdParty/STM32F4xx_HAL_Driver/Src/stm32f4xx_hal_adc.c:339:6
	cbnz	r0, .LBB3_2
	b	.LBB3_1
.LBB3_1:
	.loc	7 0 6                           @ ../ThirdParty/STM32F4xx_HAL_Driver/Src/stm32f4xx_hal_adc.c:0:6
	movs	r0, #1
.Ltmp36:
	.loc	7 341 5 is_stmt 1               @ ../ThirdParty/STM32F4xx_HAL_Driver/Src/stm32f4xx_hal_adc.c:341:5
	strb.w	r0, [sp, #15]
	b	.LBB3_7
.Ltmp37:
.LBB3_2:
	.loc	7 348 3                         @ ../ThirdParty/STM32F4xx_HAL_Driver/Src/stm32f4xx_hal_adc.c:348:3
	ldr	r1, [sp, #8]
	ldr	r0, [r1, #64]
	orr	r0, r0, #2
	str	r0, [r1, #64]
	.loc	7 352 3                         @ ../ThirdParty/STM32F4xx_HAL_Driver/Src/stm32f4xx_hal_adc.c:352:3
	ldr	r0, [sp, #8]
	ldr	r1, [r0]
	ldr	r0, [r1, #8]
	bic	r0, r0, #1
	str	r0, [r1, #8]
.Ltmp38:
	.loc	7 356 6                         @ ../ThirdParty/STM32F4xx_HAL_Driver/Src/stm32f4xx_hal_adc.c:356:6
	ldr	r0, [sp, #8]
	ldr	r0, [r0]
	ldr	r0, [r0, #8]
.Ltmp39:
	.loc	7 356 6 is_stmt 0               @ ../ThirdParty/STM32F4xx_HAL_Driver/Src/stm32f4xx_hal_adc.c:356:6
	lsls	r0, r0, #31
	cbnz	r0, .LBB3_4
	b	.LBB3_3
.LBB3_3:
.Ltmp40:
	.loc	7 359 23 is_stmt 1              @ ../ThirdParty/STM32F4xx_HAL_Driver/Src/stm32f4xx_hal_adc.c:359:23
	ldr	r0, [sp, #8]
	.loc	7 359 5 is_stmt 0               @ ../ThirdParty/STM32F4xx_HAL_Driver/Src/stm32f4xx_hal_adc.c:359:5
	bl	HAL_ADC_MspDeInit
	.loc	7 362 5 is_stmt 1               @ ../ThirdParty/STM32F4xx_HAL_Driver/Src/stm32f4xx_hal_adc.c:362:5
	ldr	r1, [sp, #8]
	movs	r0, #0
	str	r0, [r1, #68]
	.loc	7 365 5                         @ ../ThirdParty/STM32F4xx_HAL_Driver/Src/stm32f4xx_hal_adc.c:365:5
	ldr	r1, [sp, #8]
	.loc	7 365 17 is_stmt 0              @ ../ThirdParty/STM32F4xx_HAL_Driver/Src/stm32f4xx_hal_adc.c:365:17
	str	r0, [r1, #64]
	.loc	7 366 3 is_stmt 1               @ ../ThirdParty/STM32F4xx_HAL_Driver/Src/stm32f4xx_hal_adc.c:366:3
	b	.LBB3_4
.Ltmp41:
.LBB3_4:
	.loc	7 369 3                         @ ../ThirdParty/STM32F4xx_HAL_Driver/Src/stm32f4xx_hal_adc.c:369:3
	b	.LBB3_5
.LBB3_5:
.Ltmp42:
	.loc	7 369 3 is_stmt 0               @ ../ThirdParty/STM32F4xx_HAL_Driver/Src/stm32f4xx_hal_adc.c:369:3
	ldr	r1, [sp, #8]
	movs	r0, #0
	strb.w	r0, [r1, #60]
	b	.LBB3_6
.Ltmp43:
.LBB3_6:
	.loc	7 372 10 is_stmt 1              @ ../ThirdParty/STM32F4xx_HAL_Driver/Src/stm32f4xx_hal_adc.c:372:10
	ldrb.w	r0, [sp, #7]
	.loc	7 372 3 is_stmt 0               @ ../ThirdParty/STM32F4xx_HAL_Driver/Src/stm32f4xx_hal_adc.c:372:3
	strb.w	r0, [sp, #15]
	b	.LBB3_7
.LBB3_7:
	.loc	7 373 1 is_stmt 1               @ ../ThirdParty/STM32F4xx_HAL_Driver/Src/stm32f4xx_hal_adc.c:373:1
	ldrb.w	r0, [sp, #15]
	.loc	7 373 1 epilogue_begin is_stmt 0 @ ../ThirdParty/STM32F4xx_HAL_Driver/Src/stm32f4xx_hal_adc.c:373:1
	add	sp, #16
	pop	{r7, pc}
.Ltmp44:
.Lfunc_end3:
	.size	HAL_ADC_DeInit, .Lfunc_end3-HAL_ADC_DeInit
	.cfi_endproc
	.cantunwind
	.fnend
                                        @ -- End function
	.section	.text.HAL_ADC_MspDeInit,"ax",%progbits
	.hidden	HAL_ADC_MspDeInit               @ -- Begin function HAL_ADC_MspDeInit
	.weak	HAL_ADC_MspDeInit
	.p2align	2
	.type	HAL_ADC_MspDeInit,%function
	.code	16                              @ @HAL_ADC_MspDeInit
	.thumb_func
HAL_ADC_MspDeInit:
.Lfunc_begin4:
	.loc	7 397 0 is_stmt 1               @ ../ThirdParty/STM32F4xx_HAL_Driver/Src/stm32f4xx_hal_adc.c:397:0
	.fnstart
	.cfi_startproc
@ %bb.0:
	.pad	#4
	sub	sp, #4
	.cfi_def_cfa_offset 4
	str	r0, [sp]
.Ltmp45:
	.loc	7 403 1 prologue_end epilogue_begin @ ../ThirdParty/STM32F4xx_HAL_Driver/Src/stm32f4xx_hal_adc.c:403:1
	add	sp, #4
	bx	lr
.Ltmp46:
.Lfunc_end4:
	.size	HAL_ADC_MspDeInit, .Lfunc_end4-HAL_ADC_MspDeInit
	.cfi_endproc
	.cantunwind
	.fnend
                                        @ -- End function
	.section	.text.HAL_ADC_Start,"ax",%progbits
	.hidden	HAL_ADC_Start                   @ -- Begin function HAL_ADC_Start
	.globl	HAL_ADC_Start
	.p2align	2
	.type	HAL_ADC_Start,%function
	.code	16                              @ @HAL_ADC_Start
	.thumb_func
HAL_ADC_Start:
.Lfunc_begin5:
	.loc	7 436 0                         @ ../ThirdParty/STM32F4xx_HAL_Driver/Src/stm32f4xx_hal_adc.c:436:0
	.fnstart
	.cfi_startproc
@ %bb.0:
	.pad	#16
	sub	sp, #16
	.cfi_def_cfa_offset 16
	str	r0, [sp, #8]
	movs	r0, #0
.Ltmp47:
	.loc	7 437 17 prologue_end           @ ../ThirdParty/STM32F4xx_HAL_Driver/Src/stm32f4xx_hal_adc.c:437:17
	str	r0, [sp, #4]
	.loc	7 445 3                         @ ../ThirdParty/STM32F4xx_HAL_Driver/Src/stm32f4xx_hal_adc.c:445:3
	b	.LBB5_1
.LBB5_1:
.Ltmp48:
	.loc	7 445 3 is_stmt 0               @ ../ThirdParty/STM32F4xx_HAL_Driver/Src/stm32f4xx_hal_adc.c:445:3
	ldr	r0, [sp, #8]
	ldrb.w	r0, [r0, #60]
.Ltmp49:
	.loc	7 445 3                         @ ../ThirdParty/STM32F4xx_HAL_Driver/Src/stm32f4xx_hal_adc.c:445:3
	cmp	r0, #1
	bne	.LBB5_3
	b	.LBB5_2
.LBB5_2:
	.loc	7 0 3                           @ ../ThirdParty/STM32F4xx_HAL_Driver/Src/stm32f4xx_hal_adc.c:0:3
	movs	r0, #2
.Ltmp50:
	.loc	7 445 3                         @ ../ThirdParty/STM32F4xx_HAL_Driver/Src/stm32f4xx_hal_adc.c:445:3
	strb.w	r0, [sp, #15]
	b	.LBB5_28
.Ltmp51:
.LBB5_3:
	.loc	7 445 3                         @ ../ThirdParty/STM32F4xx_HAL_Driver/Src/stm32f4xx_hal_adc.c:445:3
	ldr	r1, [sp, #8]
	movs	r0, #1
	strb.w	r0, [r1, #60]
	b	.LBB5_4
.Ltmp52:
.LBB5_4:
	.loc	7 445 3                         @ ../ThirdParty/STM32F4xx_HAL_Driver/Src/stm32f4xx_hal_adc.c:445:3
	b	.LBB5_5
.Ltmp53:
.LBB5_5:
	.loc	7 450 7 is_stmt 1               @ ../ThirdParty/STM32F4xx_HAL_Driver/Src/stm32f4xx_hal_adc.c:450:7
	ldr	r0, [sp, #8]
	.loc	7 450 13 is_stmt 0              @ ../ThirdParty/STM32F4xx_HAL_Driver/Src/stm32f4xx_hal_adc.c:450:13
	ldr	r0, [r0]
	.loc	7 450 23                        @ ../ThirdParty/STM32F4xx_HAL_Driver/Src/stm32f4xx_hal_adc.c:450:23
	ldr	r0, [r0, #8]
.Ltmp54:
	.loc	7 450 6                         @ ../ThirdParty/STM32F4xx_HAL_Driver/Src/stm32f4xx_hal_adc.c:450:6
	lsls	r0, r0, #31
	cbnz	r0, .LBB5_10
	b	.LBB5_6
.LBB5_6:
.Ltmp55:
	.loc	7 453 5 is_stmt 1               @ ../ThirdParty/STM32F4xx_HAL_Driver/Src/stm32f4xx_hal_adc.c:453:5
	ldr	r0, [sp, #8]
	ldr	r1, [r0]
	ldr	r0, [r1, #8]
	orr	r0, r0, #1
	str	r0, [r1, #8]
	.loc	7 457 37                        @ ../ThirdParty/STM32F4xx_HAL_Driver/Src/stm32f4xx_hal_adc.c:457:37
	movw	r0, :lower16:SystemCoreClock
	movt	r0, :upper16:SystemCoreClock
	ldr	r0, [r0]
	movw	r1, #56963
	movt	r1, #17179
	.loc	7 457 53 is_stmt 0              @ ../ThirdParty/STM32F4xx_HAL_Driver/Src/stm32f4xx_hal_adc.c:457:53
	umull	r1, r0, r0, r1
	lsrs	r0, r0, #18
	.loc	7 457 34                        @ ../ThirdParty/STM32F4xx_HAL_Driver/Src/stm32f4xx_hal_adc.c:457:34
	add.w	r0, r0, r0, lsl #1
	.loc	7 457 13                        @ ../ThirdParty/STM32F4xx_HAL_Driver/Src/stm32f4xx_hal_adc.c:457:13
	str	r0, [sp, #4]
	.loc	7 458 5 is_stmt 1               @ ../ThirdParty/STM32F4xx_HAL_Driver/Src/stm32f4xx_hal_adc.c:458:5
	b	.LBB5_7
.LBB5_7:                                @ =>This Inner Loop Header: Depth=1
	.loc	7 458 11 is_stmt 0              @ ../ThirdParty/STM32F4xx_HAL_Driver/Src/stm32f4xx_hal_adc.c:458:11
	ldr	r0, [sp, #4]
	.loc	7 458 5                         @ ../ThirdParty/STM32F4xx_HAL_Driver/Src/stm32f4xx_hal_adc.c:458:5
	cbz	r0, .LBB5_9
	b	.LBB5_8
.LBB5_8:                                @   in Loop: Header=BB5_7 Depth=1
.Ltmp56:
	.loc	7 460 14 is_stmt 1              @ ../ThirdParty/STM32F4xx_HAL_Driver/Src/stm32f4xx_hal_adc.c:460:14
	ldr	r0, [sp, #4]
	subs	r0, #1
	str	r0, [sp, #4]
.Ltmp57:
	.loc	7 458 5                         @ ../ThirdParty/STM32F4xx_HAL_Driver/Src/stm32f4xx_hal_adc.c:458:5
	b	.LBB5_7
.LBB5_9:
	.loc	7 462 3                         @ ../ThirdParty/STM32F4xx_HAL_Driver/Src/stm32f4xx_hal_adc.c:462:3
	b	.LBB5_10
.Ltmp58:
.LBB5_10:
	.loc	7 465 6                         @ ../ThirdParty/STM32F4xx_HAL_Driver/Src/stm32f4xx_hal_adc.c:465:6
	ldr	r0, [sp, #8]
	ldr	r0, [r0]
	ldr	r0, [r0, #8]
.Ltmp59:
	.loc	7 465 6 is_stmt 0               @ ../ThirdParty/STM32F4xx_HAL_Driver/Src/stm32f4xx_hal_adc.c:465:6
	lsls	r0, r0, #31
	cmp	r0, #0
	beq	.LBB5_27
	b	.LBB5_11
.LBB5_11:
.Ltmp60:
	.loc	7 470 5 is_stmt 1               @ ../ThirdParty/STM32F4xx_HAL_Driver/Src/stm32f4xx_hal_adc.c:470:5
	ldr	r0, [sp, #8]
	ldr	r0, [r0, #64]
	orr	r0, r0, #256
	movw	r1, #1537
	bics	r0, r1
	ldr	r1, [sp, #8]
	str	r0, [r1, #64]
.Ltmp61:
	.loc	7 476 9                         @ ../ThirdParty/STM32F4xx_HAL_Driver/Src/stm32f4xx_hal_adc.c:476:9
	ldr	r0, [sp, #8]
	ldr	r0, [r0]
	ldr	r0, [r0, #4]
.Ltmp62:
	.loc	7 476 9 is_stmt 0               @ ../ThirdParty/STM32F4xx_HAL_Driver/Src/stm32f4xx_hal_adc.c:476:9
	lsls	r0, r0, #21
	cmp	r0, #0
	bpl	.LBB5_13
	b	.LBB5_12
.LBB5_12:
.Ltmp63:
	.loc	7 478 7 is_stmt 1               @ ../ThirdParty/STM32F4xx_HAL_Driver/Src/stm32f4xx_hal_adc.c:478:7
	ldr	r0, [sp, #8]
	ldr	r0, [r0, #64]
	orr	r0, r0, #4096
	bic	r0, r0, #8192
	ldr	r1, [sp, #8]
	str	r0, [r1, #64]
	.loc	7 479 5                         @ ../ThirdParty/STM32F4xx_HAL_Driver/Src/stm32f4xx_hal_adc.c:479:5
	b	.LBB5_13
.Ltmp64:
.LBB5_13:
	.loc	7 482 9                         @ ../ThirdParty/STM32F4xx_HAL_Driver/Src/stm32f4xx_hal_adc.c:482:9
	ldr	r0, [sp, #8]
	ldr	r0, [r0, #64]
.Ltmp65:
	.loc	7 482 9 is_stmt 0               @ ../ThirdParty/STM32F4xx_HAL_Driver/Src/stm32f4xx_hal_adc.c:482:9
	lsls	r0, r0, #19
	cmp	r0, #0
	bpl	.LBB5_15
	b	.LBB5_14
.LBB5_14:
.Ltmp66:
	.loc	7 485 7 is_stmt 1               @ ../ThirdParty/STM32F4xx_HAL_Driver/Src/stm32f4xx_hal_adc.c:485:7
	ldr	r1, [sp, #8]
	ldr	r0, [r1, #68]
	bic	r0, r0, #6
	str	r0, [r1, #68]
	.loc	7 486 5                         @ ../ThirdParty/STM32F4xx_HAL_Driver/Src/stm32f4xx_hal_adc.c:486:5
	b	.LBB5_16
.Ltmp67:
.LBB5_15:
	.loc	7 490 7                         @ ../ThirdParty/STM32F4xx_HAL_Driver/Src/stm32f4xx_hal_adc.c:490:7
	ldr	r1, [sp, #8]
	movs	r0, #0
	str	r0, [r1, #68]
	b	.LBB5_16
.Ltmp68:
.LBB5_16:
	.loc	7 496 5                         @ ../ThirdParty/STM32F4xx_HAL_Driver/Src/stm32f4xx_hal_adc.c:496:5
	b	.LBB5_17
.LBB5_17:
.Ltmp69:
	.loc	7 496 5 is_stmt 0               @ ../ThirdParty/STM32F4xx_HAL_Driver/Src/stm32f4xx_hal_adc.c:496:5
	ldr	r1, [sp, #8]
	movs	r0, #0
	strb.w	r0, [r1, #60]
	b	.LBB5_18
.Ltmp70:
.LBB5_18:
	.loc	7 0 5                           @ ../ThirdParty/STM32F4xx_HAL_Driver/Src/stm32f4xx_hal_adc.c:0:5
	movw	r0, #8960
	movt	r0, #16385
	.loc	7 501 19 is_stmt 1              @ ../ThirdParty/STM32F4xx_HAL_Driver/Src/stm32f4xx_hal_adc.c:501:19
	str	r0, [sp]
	.loc	7 505 5                         @ ../ThirdParty/STM32F4xx_HAL_Driver/Src/stm32f4xx_hal_adc.c:505:5
	ldr	r0, [sp, #8]
	ldr	r1, [r0]
	mvn	r0, #34
	str	r0, [r1]
.Ltmp71:
	.loc	7 508 8                         @ ../ThirdParty/STM32F4xx_HAL_Driver/Src/stm32f4xx_hal_adc.c:508:8
	ldr	r0, [sp]
	ldr	r0, [r0, #4]
.Ltmp72:
	.loc	7 508 8 is_stmt 0               @ ../ThirdParty/STM32F4xx_HAL_Driver/Src/stm32f4xx_hal_adc.c:508:8
	lsls	r0, r0, #27
	cbnz	r0, .LBB5_22
	b	.LBB5_19
.LBB5_19:
.Ltmp73:
	.loc	7 511 11 is_stmt 1              @ ../ThirdParty/STM32F4xx_HAL_Driver/Src/stm32f4xx_hal_adc.c:511:11
	ldr	r0, [sp, #8]
	.loc	7 511 17 is_stmt 0              @ ../ThirdParty/STM32F4xx_HAL_Driver/Src/stm32f4xx_hal_adc.c:511:17
	ldr	r0, [r0]
	.loc	7 511 27                        @ ../ThirdParty/STM32F4xx_HAL_Driver/Src/stm32f4xx_hal_adc.c:511:27
	ldr	r0, [r0, #8]
.Ltmp74:
	.loc	7 511 10                        @ ../ThirdParty/STM32F4xx_HAL_Driver/Src/stm32f4xx_hal_adc.c:511:10
	tst.w	r0, #805306368
	bne	.LBB5_21
	b	.LBB5_20
.LBB5_20:
.Ltmp75:
	.loc	7 514 9 is_stmt 1               @ ../ThirdParty/STM32F4xx_HAL_Driver/Src/stm32f4xx_hal_adc.c:514:9
	ldr	r0, [sp, #8]
	.loc	7 514 15 is_stmt 0              @ ../ThirdParty/STM32F4xx_HAL_Driver/Src/stm32f4xx_hal_adc.c:514:15
	ldr	r1, [r0]
	.loc	7 514 29                        @ ../ThirdParty/STM32F4xx_HAL_Driver/Src/stm32f4xx_hal_adc.c:514:29
	ldr	r0, [r1, #8]
	orr	r0, r0, #1073741824
	str	r0, [r1, #8]
	.loc	7 515 7 is_stmt 1               @ ../ThirdParty/STM32F4xx_HAL_Driver/Src/stm32f4xx_hal_adc.c:515:7
	b	.LBB5_21
.Ltmp76:
.LBB5_21:
	.loc	7 516 5                         @ ../ThirdParty/STM32F4xx_HAL_Driver/Src/stm32f4xx_hal_adc.c:516:5
	b	.LBB5_26
.Ltmp77:
.LBB5_22:
	.loc	7 520 11                        @ ../ThirdParty/STM32F4xx_HAL_Driver/Src/stm32f4xx_hal_adc.c:520:11
	ldr	r0, [sp, #8]
	.loc	7 520 17 is_stmt 0              @ ../ThirdParty/STM32F4xx_HAL_Driver/Src/stm32f4xx_hal_adc.c:520:17
	ldr	r0, [r0]
	movw	r1, #8192
	movt	r1, #16385
	.loc	7 520 35                        @ ../ThirdParty/STM32F4xx_HAL_Driver/Src/stm32f4xx_hal_adc.c:520:35
	cmp	r0, r1
	bne	.LBB5_25
	b	.LBB5_23
.LBB5_23:
	.loc	7 520 40                        @ ../ThirdParty/STM32F4xx_HAL_Driver/Src/stm32f4xx_hal_adc.c:520:40
	ldr	r0, [sp, #8]
	.loc	7 520 46                        @ ../ThirdParty/STM32F4xx_HAL_Driver/Src/stm32f4xx_hal_adc.c:520:46
	ldr	r0, [r0]
	.loc	7 520 56                        @ ../ThirdParty/STM32F4xx_HAL_Driver/Src/stm32f4xx_hal_adc.c:520:56
	ldr	r0, [r0, #8]
.Ltmp78:
	.loc	7 520 10                        @ ../ThirdParty/STM32F4xx_HAL_Driver/Src/stm32f4xx_hal_adc.c:520:10
	tst.w	r0, #805306368
	bne	.LBB5_25
	b	.LBB5_24
.LBB5_24:
.Ltmp79:
	.loc	7 523 11 is_stmt 1              @ ../ThirdParty/STM32F4xx_HAL_Driver/Src/stm32f4xx_hal_adc.c:523:11
	ldr	r0, [sp, #8]
	.loc	7 523 17 is_stmt 0              @ ../ThirdParty/STM32F4xx_HAL_Driver/Src/stm32f4xx_hal_adc.c:523:17
	ldr	r1, [r0]
	.loc	7 523 31                        @ ../ThirdParty/STM32F4xx_HAL_Driver/Src/stm32f4xx_hal_adc.c:523:31
	ldr	r0, [r1, #8]
	orr	r0, r0, #1073741824
	str	r0, [r1, #8]
	.loc	7 524 7 is_stmt 1               @ ../ThirdParty/STM32F4xx_HAL_Driver/Src/stm32f4xx_hal_adc.c:524:7
	b	.LBB5_25
.Ltmp80:
.LBB5_25:
	.loc	7 0 7 is_stmt 0                 @ ../ThirdParty/STM32F4xx_HAL_Driver/Src/stm32f4xx_hal_adc.c:0:7
	b	.LBB5_26
.LBB5_26:
	.loc	7 526 3 is_stmt 1               @ ../ThirdParty/STM32F4xx_HAL_Driver/Src/stm32f4xx_hal_adc.c:526:3
	b	.LBB5_27
.Ltmp81:
.LBB5_27:
	.loc	7 0 3 is_stmt 0                 @ ../ThirdParty/STM32F4xx_HAL_Driver/Src/stm32f4xx_hal_adc.c:0:3
	movs	r0, #0
	.loc	7 529 3 is_stmt 1               @ ../ThirdParty/STM32F4xx_HAL_Driver/Src/stm32f4xx_hal_adc.c:529:3
	strb.w	r0, [sp, #15]
	b	.LBB5_28
.LBB5_28:
	.loc	7 530 1                         @ ../ThirdParty/STM32F4xx_HAL_Driver/Src/stm32f4xx_hal_adc.c:530:1
	ldrb.w	r0, [sp, #15]
	.loc	7 530 1 epilogue_begin is_stmt 0 @ ../ThirdParty/STM32F4xx_HAL_Driver/Src/stm32f4xx_hal_adc.c:530:1
	add	sp, #16
	bx	lr
.Ltmp82:
.Lfunc_end5:
	.size	HAL_ADC_Start, .Lfunc_end5-HAL_ADC_Start
	.cfi_endproc
	.cantunwind
	.fnend
                                        @ -- End function
	.section	.text.HAL_ADC_Stop,"ax",%progbits
	.hidden	HAL_ADC_Stop                    @ -- Begin function HAL_ADC_Stop
	.globl	HAL_ADC_Stop
	.p2align	2
	.type	HAL_ADC_Stop,%function
	.code	16                              @ @HAL_ADC_Stop
	.thumb_func
HAL_ADC_Stop:
.Lfunc_begin6:
	.loc	7 543 0 is_stmt 1               @ ../ThirdParty/STM32F4xx_HAL_Driver/Src/stm32f4xx_hal_adc.c:543:0
	.fnstart
	.cfi_startproc
@ %bb.0:
	.pad	#8
	sub	sp, #8
	.cfi_def_cfa_offset 8
	str	r0, [sp]
.Ltmp83:
	.loc	7 548 3 prologue_end            @ ../ThirdParty/STM32F4xx_HAL_Driver/Src/stm32f4xx_hal_adc.c:548:3
	b	.LBB6_1
.LBB6_1:
.Ltmp84:
	.loc	7 548 3 is_stmt 0               @ ../ThirdParty/STM32F4xx_HAL_Driver/Src/stm32f4xx_hal_adc.c:548:3
	ldr	r0, [sp]
	ldrb.w	r0, [r0, #60]
.Ltmp85:
	.loc	7 548 3                         @ ../ThirdParty/STM32F4xx_HAL_Driver/Src/stm32f4xx_hal_adc.c:548:3
	cmp	r0, #1
	bne	.LBB6_3
	b	.LBB6_2
.LBB6_2:
	.loc	7 0 3                           @ ../ThirdParty/STM32F4xx_HAL_Driver/Src/stm32f4xx_hal_adc.c:0:3
	movs	r0, #2
.Ltmp86:
	.loc	7 548 3                         @ ../ThirdParty/STM32F4xx_HAL_Driver/Src/stm32f4xx_hal_adc.c:548:3
	strb.w	r0, [sp, #7]
	b	.LBB6_10
.Ltmp87:
.LBB6_3:
	.loc	7 548 3                         @ ../ThirdParty/STM32F4xx_HAL_Driver/Src/stm32f4xx_hal_adc.c:548:3
	ldr	r1, [sp]
	movs	r0, #1
	strb.w	r0, [r1, #60]
	b	.LBB6_4
.Ltmp88:
.LBB6_4:
	.loc	7 548 3                         @ ../ThirdParty/STM32F4xx_HAL_Driver/Src/stm32f4xx_hal_adc.c:548:3
	b	.LBB6_5
.Ltmp89:
.LBB6_5:
	.loc	7 552 3 is_stmt 1               @ ../ThirdParty/STM32F4xx_HAL_Driver/Src/stm32f4xx_hal_adc.c:552:3
	ldr	r0, [sp]
	ldr	r1, [r0]
	ldr	r0, [r1, #8]
	bic	r0, r0, #1
	str	r0, [r1, #8]
.Ltmp90:
	.loc	7 555 6                         @ ../ThirdParty/STM32F4xx_HAL_Driver/Src/stm32f4xx_hal_adc.c:555:6
	ldr	r0, [sp]
	ldr	r0, [r0]
	ldr	r0, [r0, #8]
.Ltmp91:
	.loc	7 555 6 is_stmt 0               @ ../ThirdParty/STM32F4xx_HAL_Driver/Src/stm32f4xx_hal_adc.c:555:6
	lsls	r0, r0, #31
	cbnz	r0, .LBB6_7
	b	.LBB6_6
.LBB6_6:
.Ltmp92:
	.loc	7 558 5 is_stmt 1               @ ../ThirdParty/STM32F4xx_HAL_Driver/Src/stm32f4xx_hal_adc.c:558:5
	ldr	r0, [sp]
	ldr	r0, [r0, #64]
	orr	r0, r0, #1
	bic	r0, r0, #4352
	ldr	r1, [sp]
	str	r0, [r1, #64]
	.loc	7 561 3                         @ ../ThirdParty/STM32F4xx_HAL_Driver/Src/stm32f4xx_hal_adc.c:561:3
	b	.LBB6_7
.Ltmp93:
.LBB6_7:
	.loc	7 564 3                         @ ../ThirdParty/STM32F4xx_HAL_Driver/Src/stm32f4xx_hal_adc.c:564:3
	b	.LBB6_8
.LBB6_8:
.Ltmp94:
	.loc	7 564 3 is_stmt 0               @ ../ThirdParty/STM32F4xx_HAL_Driver/Src/stm32f4xx_hal_adc.c:564:3
	ldr	r1, [sp]
	movs	r0, #0
	strb.w	r0, [r1, #60]
	b	.LBB6_9
.Ltmp95:
.LBB6_9:
	.loc	7 0 3                           @ ../ThirdParty/STM32F4xx_HAL_Driver/Src/stm32f4xx_hal_adc.c:0:3
	movs	r0, #0
	.loc	7 567 3 is_stmt 1               @ ../ThirdParty/STM32F4xx_HAL_Driver/Src/stm32f4xx_hal_adc.c:567:3
	strb.w	r0, [sp, #7]
	b	.LBB6_10
.LBB6_10:
	.loc	7 568 1                         @ ../ThirdParty/STM32F4xx_HAL_Driver/Src/stm32f4xx_hal_adc.c:568:1
	ldrb.w	r0, [sp, #7]
	.loc	7 568 1 epilogue_begin is_stmt 0 @ ../ThirdParty/STM32F4xx_HAL_Driver/Src/stm32f4xx_hal_adc.c:568:1
	add	sp, #8
	bx	lr
.Ltmp96:
.Lfunc_end6:
	.size	HAL_ADC_Stop, .Lfunc_end6-HAL_ADC_Stop
	.cfi_endproc
	.cantunwind
	.fnend
                                        @ -- End function
	.section	.text.HAL_ADC_PollForConversion,"ax",%progbits
	.hidden	HAL_ADC_PollForConversion       @ -- Begin function HAL_ADC_PollForConversion
	.globl	HAL_ADC_PollForConversion
	.p2align	2
	.type	HAL_ADC_PollForConversion,%function
	.code	16                              @ @HAL_ADC_PollForConversion
	.thumb_func
HAL_ADC_PollForConversion:
.Lfunc_begin7:
	.loc	7 586 0 is_stmt 1               @ ../ThirdParty/STM32F4xx_HAL_Driver/Src/stm32f4xx_hal_adc.c:586:0
	.fnstart
	.cfi_startproc
@ %bb.0:
	.save	{r7, lr}
	push	{r7, lr}
	.cfi_def_cfa_offset 8
	.cfi_offset lr, -4
	.cfi_offset r7, -8
	.pad	#16
	sub	sp, #16
	.cfi_def_cfa_offset 24
	str	r0, [sp, #8]
	str	r1, [sp, #4]
	movs	r0, #0
.Ltmp97:
	.loc	7 587 12 prologue_end           @ ../ThirdParty/STM32F4xx_HAL_Driver/Src/stm32f4xx_hal_adc.c:587:12
	str	r0, [sp]
.Ltmp98:
	.loc	7 595 7                         @ ../ThirdParty/STM32F4xx_HAL_Driver/Src/stm32f4xx_hal_adc.c:595:7
	ldr	r0, [sp, #8]
	ldr	r0, [r0]
	ldr	r0, [r0, #8]
	.loc	7 595 57 is_stmt 0              @ ../ThirdParty/STM32F4xx_HAL_Driver/Src/stm32f4xx_hal_adc.c:595:57
	lsls	r0, r0, #21
	cmp	r0, #0
	bpl	.LBB7_5
	b	.LBB7_1
.LBB7_1:
	.loc	7 596 7 is_stmt 1               @ ../ThirdParty/STM32F4xx_HAL_Driver/Src/stm32f4xx_hal_adc.c:596:7
	ldr	r0, [sp, #8]
	ldr	r0, [r0]
	ldr	r0, [r0, #8]
.Ltmp99:
	.loc	7 595 7                         @ ../ThirdParty/STM32F4xx_HAL_Driver/Src/stm32f4xx_hal_adc.c:595:7
	lsls	r0, r0, #23
	cmp	r0, #0
	bpl	.LBB7_5
	b	.LBB7_2
.LBB7_2:
.Ltmp100:
	.loc	7 599 5                         @ ../ThirdParty/STM32F4xx_HAL_Driver/Src/stm32f4xx_hal_adc.c:599:5
	ldr	r1, [sp, #8]
	ldr	r0, [r1, #64]
	orr	r0, r0, #32
	str	r0, [r1, #64]
	.loc	7 602 5                         @ ../ThirdParty/STM32F4xx_HAL_Driver/Src/stm32f4xx_hal_adc.c:602:5
	b	.LBB7_3
.LBB7_3:
.Ltmp101:
	.loc	7 602 5 is_stmt 0               @ ../ThirdParty/STM32F4xx_HAL_Driver/Src/stm32f4xx_hal_adc.c:602:5
	ldr	r1, [sp, #8]
	movs	r0, #0
	strb.w	r0, [r1, #60]
	b	.LBB7_4
.Ltmp102:
.LBB7_4:
	.loc	7 0 5                           @ ../ThirdParty/STM32F4xx_HAL_Driver/Src/stm32f4xx_hal_adc.c:0:5
	movs	r0, #1
	.loc	7 604 5 is_stmt 1               @ ../ThirdParty/STM32F4xx_HAL_Driver/Src/stm32f4xx_hal_adc.c:604:5
	strb.w	r0, [sp, #15]
	b	.LBB7_23
.Ltmp103:
.LBB7_5:
	.loc	7 608 15                        @ ../ThirdParty/STM32F4xx_HAL_Driver/Src/stm32f4xx_hal_adc.c:608:15
	bl	HAL_GetTick
	.loc	7 608 13 is_stmt 0              @ ../ThirdParty/STM32F4xx_HAL_Driver/Src/stm32f4xx_hal_adc.c:608:13
	str	r0, [sp]
	.loc	7 611 3 is_stmt 1               @ ../ThirdParty/STM32F4xx_HAL_Driver/Src/stm32f4xx_hal_adc.c:611:3
	b	.LBB7_6
.LBB7_6:                                @ =>This Inner Loop Header: Depth=1
	.loc	7 611 11 is_stmt 0              @ ../ThirdParty/STM32F4xx_HAL_Driver/Src/stm32f4xx_hal_adc.c:611:11
	ldr	r0, [sp, #8]
	ldr	r0, [r0]
	ldr	r0, [r0]
	and	r0, r0, #2
	.loc	7 611 3                         @ ../ThirdParty/STM32F4xx_HAL_Driver/Src/stm32f4xx_hal_adc.c:611:3
	cmp	r0, #2
	beq	.LBB7_15
	b	.LBB7_7
.LBB7_7:                                @   in Loop: Header=BB7_6 Depth=1
.Ltmp104:
	.loc	7 614 8 is_stmt 1               @ ../ThirdParty/STM32F4xx_HAL_Driver/Src/stm32f4xx_hal_adc.c:614:8
	ldr	r0, [sp, #4]
.Ltmp105:
	.loc	7 614 8 is_stmt 0               @ ../ThirdParty/STM32F4xx_HAL_Driver/Src/stm32f4xx_hal_adc.c:614:8
	adds	r0, #1
	cbz	r0, .LBB7_14
	b	.LBB7_8
.LBB7_8:                                @   in Loop: Header=BB7_6 Depth=1
.Ltmp106:
	.loc	7 616 11 is_stmt 1              @ ../ThirdParty/STM32F4xx_HAL_Driver/Src/stm32f4xx_hal_adc.c:616:11
	ldr	r0, [sp, #4]
	.loc	7 616 26 is_stmt 0              @ ../ThirdParty/STM32F4xx_HAL_Driver/Src/stm32f4xx_hal_adc.c:616:26
	cbz	r0, .LBB7_10
	b	.LBB7_9
.LBB7_9:                                @   in Loop: Header=BB7_6 Depth=1
	.loc	7 616 31                        @ ../ThirdParty/STM32F4xx_HAL_Driver/Src/stm32f4xx_hal_adc.c:616:31
	bl	HAL_GetTick
	.loc	7 616 47                        @ ../ThirdParty/STM32F4xx_HAL_Driver/Src/stm32f4xx_hal_adc.c:616:47
	ldr	r1, [sp]
	.loc	7 616 45                        @ ../ThirdParty/STM32F4xx_HAL_Driver/Src/stm32f4xx_hal_adc.c:616:45
	subs	r0, r0, r1
	.loc	7 616 61                        @ ../ThirdParty/STM32F4xx_HAL_Driver/Src/stm32f4xx_hal_adc.c:616:61
	ldr	r1, [sp, #4]
.Ltmp107:
	.loc	7 616 10                        @ ../ThirdParty/STM32F4xx_HAL_Driver/Src/stm32f4xx_hal_adc.c:616:10
	cmp	r0, r1
	bls	.LBB7_13
	b	.LBB7_10
.LBB7_10:
.Ltmp108:
	.loc	7 619 9 is_stmt 1               @ ../ThirdParty/STM32F4xx_HAL_Driver/Src/stm32f4xx_hal_adc.c:619:9
	ldr	r1, [sp, #8]
	ldr	r0, [r1, #64]
	orr	r0, r0, #4
	str	r0, [r1, #64]
	.loc	7 622 9                         @ ../ThirdParty/STM32F4xx_HAL_Driver/Src/stm32f4xx_hal_adc.c:622:9
	b	.LBB7_11
.LBB7_11:
.Ltmp109:
	.loc	7 622 9 is_stmt 0               @ ../ThirdParty/STM32F4xx_HAL_Driver/Src/stm32f4xx_hal_adc.c:622:9
	ldr	r1, [sp, #8]
	movs	r0, #0
	strb.w	r0, [r1, #60]
	b	.LBB7_12
.Ltmp110:
.LBB7_12:
	.loc	7 0 9                           @ ../ThirdParty/STM32F4xx_HAL_Driver/Src/stm32f4xx_hal_adc.c:0:9
	movs	r0, #3
	.loc	7 624 9 is_stmt 1               @ ../ThirdParty/STM32F4xx_HAL_Driver/Src/stm32f4xx_hal_adc.c:624:9
	strb.w	r0, [sp, #15]
	b	.LBB7_23
.Ltmp111:
.LBB7_13:                               @   in Loop: Header=BB7_6 Depth=1
	.loc	7 626 5                         @ ../ThirdParty/STM32F4xx_HAL_Driver/Src/stm32f4xx_hal_adc.c:626:5
	b	.LBB7_14
.Ltmp112:
.LBB7_14:                               @   in Loop: Header=BB7_6 Depth=1
	.loc	7 611 3                         @ ../ThirdParty/STM32F4xx_HAL_Driver/Src/stm32f4xx_hal_adc.c:611:3
	b	.LBB7_6
.LBB7_15:
	.loc	7 630 3                         @ ../ThirdParty/STM32F4xx_HAL_Driver/Src/stm32f4xx_hal_adc.c:630:3
	ldr	r0, [sp, #8]
	ldr	r1, [r0]
	mvn	r0, #18
	str	r0, [r1]
	.loc	7 633 3                         @ ../ThirdParty/STM32F4xx_HAL_Driver/Src/stm32f4xx_hal_adc.c:633:3
	ldr	r1, [sp, #8]
	ldr	r0, [r1, #64]
	orr	r0, r0, #512
	str	r0, [r1, #64]
.Ltmp113:
	.loc	7 641 6                         @ ../ThirdParty/STM32F4xx_HAL_Driver/Src/stm32f4xx_hal_adc.c:641:6
	ldr	r0, [sp, #8]
	ldr	r0, [r0]
	ldr	r0, [r0, #8]
	.loc	7 641 60 is_stmt 0              @ ../ThirdParty/STM32F4xx_HAL_Driver/Src/stm32f4xx_hal_adc.c:641:60
	tst.w	r0, #805306368
	bne	.LBB7_22
	b	.LBB7_16
.LBB7_16:
	.loc	7 642 7 is_stmt 1               @ ../ThirdParty/STM32F4xx_HAL_Driver/Src/stm32f4xx_hal_adc.c:642:7
	ldr	r0, [sp, #8]
	.loc	7 642 18 is_stmt 0              @ ../ThirdParty/STM32F4xx_HAL_Driver/Src/stm32f4xx_hal_adc.c:642:18
	ldr	r0, [r0, #24]
	.loc	7 642 60                        @ ../ThirdParty/STM32F4xx_HAL_Driver/Src/stm32f4xx_hal_adc.c:642:60
	cbnz	r0, .LBB7_22
	b	.LBB7_17
.LBB7_17:
	.loc	7 643 7 is_stmt 1               @ ../ThirdParty/STM32F4xx_HAL_Driver/Src/stm32f4xx_hal_adc.c:643:7
	ldr	r0, [sp, #8]
	ldr	r0, [r0]
	ldr	r0, [r0, #44]
	.loc	7 643 56 is_stmt 0              @ ../ThirdParty/STM32F4xx_HAL_Driver/Src/stm32f4xx_hal_adc.c:643:56
	tst.w	r0, #15728640
	beq	.LBB7_19
	b	.LBB7_18
.LBB7_18:
	.loc	7 644 7 is_stmt 1               @ ../ThirdParty/STM32F4xx_HAL_Driver/Src/stm32f4xx_hal_adc.c:644:7
	ldr	r0, [sp, #8]
	ldr	r0, [r0]
	ldr	r0, [r0, #8]
.Ltmp114:
	.loc	7 641 6                         @ ../ThirdParty/STM32F4xx_HAL_Driver/Src/stm32f4xx_hal_adc.c:641:6
	lsls	r0, r0, #21
	cmp	r0, #0
	bmi	.LBB7_22
	b	.LBB7_19
.LBB7_19:
.Ltmp115:
	.loc	7 647 5                         @ ../ThirdParty/STM32F4xx_HAL_Driver/Src/stm32f4xx_hal_adc.c:647:5
	ldr	r1, [sp, #8]
	ldr	r0, [r1, #64]
	bic	r0, r0, #256
	str	r0, [r1, #64]
.Ltmp116:
	.loc	7 649 9                         @ ../ThirdParty/STM32F4xx_HAL_Driver/Src/stm32f4xx_hal_adc.c:649:9
	ldr	r0, [sp, #8]
	ldr	r0, [r0, #64]
.Ltmp117:
	.loc	7 649 9 is_stmt 0               @ ../ThirdParty/STM32F4xx_HAL_Driver/Src/stm32f4xx_hal_adc.c:649:9
	lsls	r0, r0, #19
	cmp	r0, #0
	bmi	.LBB7_21
	b	.LBB7_20
.LBB7_20:
.Ltmp118:
	.loc	7 651 7 is_stmt 1               @ ../ThirdParty/STM32F4xx_HAL_Driver/Src/stm32f4xx_hal_adc.c:651:7
	ldr	r1, [sp, #8]
	ldr	r0, [r1, #64]
	orr	r0, r0, #1
	str	r0, [r1, #64]
	.loc	7 652 5                         @ ../ThirdParty/STM32F4xx_HAL_Driver/Src/stm32f4xx_hal_adc.c:652:5
	b	.LBB7_21
.Ltmp119:
.LBB7_21:
	.loc	7 653 3                         @ ../ThirdParty/STM32F4xx_HAL_Driver/Src/stm32f4xx_hal_adc.c:653:3
	b	.LBB7_22
.Ltmp120:
.LBB7_22:
	.loc	7 0 3 is_stmt 0                 @ ../ThirdParty/STM32F4xx_HAL_Driver/Src/stm32f4xx_hal_adc.c:0:3
	movs	r0, #0
	.loc	7 656 3 is_stmt 1               @ ../ThirdParty/STM32F4xx_HAL_Driver/Src/stm32f4xx_hal_adc.c:656:3
	strb.w	r0, [sp, #15]
	b	.LBB7_23
.LBB7_23:
	.loc	7 657 1                         @ ../ThirdParty/STM32F4xx_HAL_Driver/Src/stm32f4xx_hal_adc.c:657:1
	ldrb.w	r0, [sp, #15]
	.loc	7 657 1 epilogue_begin is_stmt 0 @ ../ThirdParty/STM32F4xx_HAL_Driver/Src/stm32f4xx_hal_adc.c:657:1
	add	sp, #16
	pop	{r7, pc}
.Ltmp121:
.Lfunc_end7:
	.size	HAL_ADC_PollForConversion, .Lfunc_end7-HAL_ADC_PollForConversion
	.cfi_endproc
	.cantunwind
	.fnend
                                        @ -- End function
	.section	.text.HAL_ADC_PollForEvent,"ax",%progbits
	.hidden	HAL_ADC_PollForEvent            @ -- Begin function HAL_ADC_PollForEvent
	.globl	HAL_ADC_PollForEvent
	.p2align	2
	.type	HAL_ADC_PollForEvent,%function
	.code	16                              @ @HAL_ADC_PollForEvent
	.thumb_func
HAL_ADC_PollForEvent:
.Lfunc_begin8:
	.loc	7 671 0 is_stmt 1               @ ../ThirdParty/STM32F4xx_HAL_Driver/Src/stm32f4xx_hal_adc.c:671:0
	.fnstart
	.cfi_startproc
@ %bb.0:
	.save	{r7, lr}
	push	{r7, lr}
	.cfi_def_cfa_offset 8
	.cfi_offset lr, -4
	.cfi_offset r7, -8
	.pad	#24
	sub	sp, #24
	.cfi_def_cfa_offset 32
	str	r0, [sp, #16]
	str	r1, [sp, #12]
	str	r2, [sp, #8]
	movs	r0, #0
.Ltmp122:
	.loc	7 672 12 prologue_end           @ ../ThirdParty/STM32F4xx_HAL_Driver/Src/stm32f4xx_hal_adc.c:672:12
	str	r0, [sp, #4]
	.loc	7 679 15                        @ ../ThirdParty/STM32F4xx_HAL_Driver/Src/stm32f4xx_hal_adc.c:679:15
	bl	HAL_GetTick
	.loc	7 679 13 is_stmt 0              @ ../ThirdParty/STM32F4xx_HAL_Driver/Src/stm32f4xx_hal_adc.c:679:13
	str	r0, [sp, #4]
	.loc	7 682 3 is_stmt 1               @ ../ThirdParty/STM32F4xx_HAL_Driver/Src/stm32f4xx_hal_adc.c:682:3
	b	.LBB8_1
.LBB8_1:                                @ =>This Inner Loop Header: Depth=1
	.loc	7 682 11 is_stmt 0              @ ../ThirdParty/STM32F4xx_HAL_Driver/Src/stm32f4xx_hal_adc.c:682:11
	ldr	r0, [sp, #16]
	ldr	r0, [r0]
	ldr	r0, [r0]
	ldr	r1, [sp, #12]
	ands	r0, r1
	.loc	7 682 3                         @ ../ThirdParty/STM32F4xx_HAL_Driver/Src/stm32f4xx_hal_adc.c:682:3
	cmp	r0, r1
	beq	.LBB8_10
	b	.LBB8_2
.LBB8_2:                                @   in Loop: Header=BB8_1 Depth=1
.Ltmp123:
	.loc	7 685 8 is_stmt 1               @ ../ThirdParty/STM32F4xx_HAL_Driver/Src/stm32f4xx_hal_adc.c:685:8
	ldr	r0, [sp, #8]
.Ltmp124:
	.loc	7 685 8 is_stmt 0               @ ../ThirdParty/STM32F4xx_HAL_Driver/Src/stm32f4xx_hal_adc.c:685:8
	adds	r0, #1
	cbz	r0, .LBB8_9
	b	.LBB8_3
.LBB8_3:                                @   in Loop: Header=BB8_1 Depth=1
.Ltmp125:
	.loc	7 687 11 is_stmt 1              @ ../ThirdParty/STM32F4xx_HAL_Driver/Src/stm32f4xx_hal_adc.c:687:11
	ldr	r0, [sp, #8]
	.loc	7 687 26 is_stmt 0              @ ../ThirdParty/STM32F4xx_HAL_Driver/Src/stm32f4xx_hal_adc.c:687:26
	cbz	r0, .LBB8_5
	b	.LBB8_4
.LBB8_4:                                @   in Loop: Header=BB8_1 Depth=1
	.loc	7 687 31                        @ ../ThirdParty/STM32F4xx_HAL_Driver/Src/stm32f4xx_hal_adc.c:687:31
	bl	HAL_GetTick
	.loc	7 687 47                        @ ../ThirdParty/STM32F4xx_HAL_Driver/Src/stm32f4xx_hal_adc.c:687:47
	ldr	r1, [sp, #4]
	.loc	7 687 45                        @ ../ThirdParty/STM32F4xx_HAL_Driver/Src/stm32f4xx_hal_adc.c:687:45
	subs	r0, r0, r1
	.loc	7 687 61                        @ ../ThirdParty/STM32F4xx_HAL_Driver/Src/stm32f4xx_hal_adc.c:687:61
	ldr	r1, [sp, #8]
.Ltmp126:
	.loc	7 687 10                        @ ../ThirdParty/STM32F4xx_HAL_Driver/Src/stm32f4xx_hal_adc.c:687:10
	cmp	r0, r1
	bls	.LBB8_8
	b	.LBB8_5
.LBB8_5:
.Ltmp127:
	.loc	7 690 9 is_stmt 1               @ ../ThirdParty/STM32F4xx_HAL_Driver/Src/stm32f4xx_hal_adc.c:690:9
	ldr	r1, [sp, #16]
	ldr	r0, [r1, #64]
	orr	r0, r0, #4
	str	r0, [r1, #64]
	.loc	7 693 9                         @ ../ThirdParty/STM32F4xx_HAL_Driver/Src/stm32f4xx_hal_adc.c:693:9
	b	.LBB8_6
.LBB8_6:
.Ltmp128:
	.loc	7 693 9 is_stmt 0               @ ../ThirdParty/STM32F4xx_HAL_Driver/Src/stm32f4xx_hal_adc.c:693:9
	ldr	r1, [sp, #16]
	movs	r0, #0
	strb.w	r0, [r1, #60]
	b	.LBB8_7
.Ltmp129:
.LBB8_7:
	.loc	7 0 9                           @ ../ThirdParty/STM32F4xx_HAL_Driver/Src/stm32f4xx_hal_adc.c:0:9
	movs	r0, #3
	.loc	7 695 9 is_stmt 1               @ ../ThirdParty/STM32F4xx_HAL_Driver/Src/stm32f4xx_hal_adc.c:695:9
	strb.w	r0, [sp, #23]
	b	.LBB8_14
.Ltmp130:
.LBB8_8:                                @   in Loop: Header=BB8_1 Depth=1
	.loc	7 697 5                         @ ../ThirdParty/STM32F4xx_HAL_Driver/Src/stm32f4xx_hal_adc.c:697:5
	b	.LBB8_9
.Ltmp131:
.LBB8_9:                                @   in Loop: Header=BB8_1 Depth=1
	.loc	7 682 3                         @ ../ThirdParty/STM32F4xx_HAL_Driver/Src/stm32f4xx_hal_adc.c:682:3
	b	.LBB8_1
.LBB8_10:
.Ltmp132:
	.loc	7 701 6                         @ ../ThirdParty/STM32F4xx_HAL_Driver/Src/stm32f4xx_hal_adc.c:701:6
	ldr	r0, [sp, #12]
.Ltmp133:
	.loc	7 701 6 is_stmt 0               @ ../ThirdParty/STM32F4xx_HAL_Driver/Src/stm32f4xx_hal_adc.c:701:6
	cmp	r0, #1
	bne	.LBB8_12
	b	.LBB8_11
.LBB8_11:
.Ltmp134:
	.loc	7 704 5 is_stmt 1               @ ../ThirdParty/STM32F4xx_HAL_Driver/Src/stm32f4xx_hal_adc.c:704:5
	ldr	r1, [sp, #16]
	ldr	r0, [r1, #64]
	orr	r0, r0, #65536
	str	r0, [r1, #64]
	.loc	7 707 5                         @ ../ThirdParty/STM32F4xx_HAL_Driver/Src/stm32f4xx_hal_adc.c:707:5
	ldr	r0, [sp, #16]
	ldr	r1, [r0]
	mvn	r0, #1
	str	r0, [r1]
	.loc	7 708 3                         @ ../ThirdParty/STM32F4xx_HAL_Driver/Src/stm32f4xx_hal_adc.c:708:3
	b	.LBB8_13
.Ltmp135:
.LBB8_12:
	.loc	7 713 5                         @ ../ThirdParty/STM32F4xx_HAL_Driver/Src/stm32f4xx_hal_adc.c:713:5
	ldr	r1, [sp, #16]
	ldr	r0, [r1, #64]
	orr	r0, r0, #1024
	str	r0, [r1, #64]
	.loc	7 715 5                         @ ../ThirdParty/STM32F4xx_HAL_Driver/Src/stm32f4xx_hal_adc.c:715:5
	ldr	r1, [sp, #16]
	ldr	r0, [r1, #68]
	orr	r0, r0, #2
	str	r0, [r1, #68]
	.loc	7 718 5                         @ ../ThirdParty/STM32F4xx_HAL_Driver/Src/stm32f4xx_hal_adc.c:718:5
	ldr	r0, [sp, #16]
	ldr	r1, [r0]
	mvn	r0, #32
	str	r0, [r1]
	b	.LBB8_13
.Ltmp136:
.LBB8_13:
	.loc	7 0 5 is_stmt 0                 @ ../ThirdParty/STM32F4xx_HAL_Driver/Src/stm32f4xx_hal_adc.c:0:5
	movs	r0, #0
	.loc	7 722 3 is_stmt 1               @ ../ThirdParty/STM32F4xx_HAL_Driver/Src/stm32f4xx_hal_adc.c:722:3
	strb.w	r0, [sp, #23]
	b	.LBB8_14
.LBB8_14:
	.loc	7 723 1                         @ ../ThirdParty/STM32F4xx_HAL_Driver/Src/stm32f4xx_hal_adc.c:723:1
	ldrb.w	r0, [sp, #23]
	.loc	7 723 1 epilogue_begin is_stmt 0 @ ../ThirdParty/STM32F4xx_HAL_Driver/Src/stm32f4xx_hal_adc.c:723:1
	add	sp, #24
	pop	{r7, pc}
.Ltmp137:
.Lfunc_end8:
	.size	HAL_ADC_PollForEvent, .Lfunc_end8-HAL_ADC_PollForEvent
	.cfi_endproc
	.cantunwind
	.fnend
                                        @ -- End function
	.section	.text.HAL_ADC_Start_IT,"ax",%progbits
	.hidden	HAL_ADC_Start_IT                @ -- Begin function HAL_ADC_Start_IT
	.globl	HAL_ADC_Start_IT
	.p2align	2
	.type	HAL_ADC_Start_IT,%function
	.code	16                              @ @HAL_ADC_Start_IT
	.thumb_func
HAL_ADC_Start_IT:
.Lfunc_begin9:
	.loc	7 733 0 is_stmt 1               @ ../ThirdParty/STM32F4xx_HAL_Driver/Src/stm32f4xx_hal_adc.c:733:0
	.fnstart
	.cfi_startproc
@ %bb.0:
	.pad	#16
	sub	sp, #16
	.cfi_def_cfa_offset 16
	str	r0, [sp, #8]
	movs	r0, #0
.Ltmp138:
	.loc	7 734 17 prologue_end           @ ../ThirdParty/STM32F4xx_HAL_Driver/Src/stm32f4xx_hal_adc.c:734:17
	str	r0, [sp, #4]
	.loc	7 742 3                         @ ../ThirdParty/STM32F4xx_HAL_Driver/Src/stm32f4xx_hal_adc.c:742:3
	b	.LBB9_1
.LBB9_1:
.Ltmp139:
	.loc	7 742 3 is_stmt 0               @ ../ThirdParty/STM32F4xx_HAL_Driver/Src/stm32f4xx_hal_adc.c:742:3
	ldr	r0, [sp, #8]
	ldrb.w	r0, [r0, #60]
.Ltmp140:
	.loc	7 742 3                         @ ../ThirdParty/STM32F4xx_HAL_Driver/Src/stm32f4xx_hal_adc.c:742:3
	cmp	r0, #1
	bne	.LBB9_3
	b	.LBB9_2
.LBB9_2:
	.loc	7 0 3                           @ ../ThirdParty/STM32F4xx_HAL_Driver/Src/stm32f4xx_hal_adc.c:0:3
	movs	r0, #2
.Ltmp141:
	.loc	7 742 3                         @ ../ThirdParty/STM32F4xx_HAL_Driver/Src/stm32f4xx_hal_adc.c:742:3
	strb.w	r0, [sp, #15]
	b	.LBB9_28
.Ltmp142:
.LBB9_3:
	.loc	7 742 3                         @ ../ThirdParty/STM32F4xx_HAL_Driver/Src/stm32f4xx_hal_adc.c:742:3
	ldr	r1, [sp, #8]
	movs	r0, #1
	strb.w	r0, [r1, #60]
	b	.LBB9_4
.Ltmp143:
.LBB9_4:
	.loc	7 742 3                         @ ../ThirdParty/STM32F4xx_HAL_Driver/Src/stm32f4xx_hal_adc.c:742:3
	b	.LBB9_5
.Ltmp144:
.LBB9_5:
	.loc	7 747 7 is_stmt 1               @ ../ThirdParty/STM32F4xx_HAL_Driver/Src/stm32f4xx_hal_adc.c:747:7
	ldr	r0, [sp, #8]
	.loc	7 747 13 is_stmt 0              @ ../ThirdParty/STM32F4xx_HAL_Driver/Src/stm32f4xx_hal_adc.c:747:13
	ldr	r0, [r0]
	.loc	7 747 23                        @ ../ThirdParty/STM32F4xx_HAL_Driver/Src/stm32f4xx_hal_adc.c:747:23
	ldr	r0, [r0, #8]
.Ltmp145:
	.loc	7 747 6                         @ ../ThirdParty/STM32F4xx_HAL_Driver/Src/stm32f4xx_hal_adc.c:747:6
	lsls	r0, r0, #31
	cbnz	r0, .LBB9_10
	b	.LBB9_6
.LBB9_6:
.Ltmp146:
	.loc	7 750 5 is_stmt 1               @ ../ThirdParty/STM32F4xx_HAL_Driver/Src/stm32f4xx_hal_adc.c:750:5
	ldr	r0, [sp, #8]
	ldr	r1, [r0]
	ldr	r0, [r1, #8]
	orr	r0, r0, #1
	str	r0, [r1, #8]
	.loc	7 754 37                        @ ../ThirdParty/STM32F4xx_HAL_Driver/Src/stm32f4xx_hal_adc.c:754:37
	movw	r0, :lower16:SystemCoreClock
	movt	r0, :upper16:SystemCoreClock
	ldr	r0, [r0]
	movw	r1, #56963
	movt	r1, #17179
	.loc	7 754 53 is_stmt 0              @ ../ThirdParty/STM32F4xx_HAL_Driver/Src/stm32f4xx_hal_adc.c:754:53
	umull	r1, r0, r0, r1
	lsrs	r0, r0, #18
	.loc	7 754 34                        @ ../ThirdParty/STM32F4xx_HAL_Driver/Src/stm32f4xx_hal_adc.c:754:34
	add.w	r0, r0, r0, lsl #1
	.loc	7 754 13                        @ ../ThirdParty/STM32F4xx_HAL_Driver/Src/stm32f4xx_hal_adc.c:754:13
	str	r0, [sp, #4]
	.loc	7 755 5 is_stmt 1               @ ../ThirdParty/STM32F4xx_HAL_Driver/Src/stm32f4xx_hal_adc.c:755:5
	b	.LBB9_7
.LBB9_7:                                @ =>This Inner Loop Header: Depth=1
	.loc	7 755 11 is_stmt 0              @ ../ThirdParty/STM32F4xx_HAL_Driver/Src/stm32f4xx_hal_adc.c:755:11
	ldr	r0, [sp, #4]
	.loc	7 755 5                         @ ../ThirdParty/STM32F4xx_HAL_Driver/Src/stm32f4xx_hal_adc.c:755:5
	cbz	r0, .LBB9_9
	b	.LBB9_8
.LBB9_8:                                @   in Loop: Header=BB9_7 Depth=1
.Ltmp147:
	.loc	7 757 14 is_stmt 1              @ ../ThirdParty/STM32F4xx_HAL_Driver/Src/stm32f4xx_hal_adc.c:757:14
	ldr	r0, [sp, #4]
	subs	r0, #1
	str	r0, [sp, #4]
.Ltmp148:
	.loc	7 755 5                         @ ../ThirdParty/STM32F4xx_HAL_Driver/Src/stm32f4xx_hal_adc.c:755:5
	b	.LBB9_7
.LBB9_9:
	.loc	7 759 3                         @ ../ThirdParty/STM32F4xx_HAL_Driver/Src/stm32f4xx_hal_adc.c:759:3
	b	.LBB9_10
.Ltmp149:
.LBB9_10:
	.loc	7 762 6                         @ ../ThirdParty/STM32F4xx_HAL_Driver/Src/stm32f4xx_hal_adc.c:762:6
	ldr	r0, [sp, #8]
	ldr	r0, [r0]
	ldr	r0, [r0, #8]
.Ltmp150:
	.loc	7 762 6 is_stmt 0               @ ../ThirdParty/STM32F4xx_HAL_Driver/Src/stm32f4xx_hal_adc.c:762:6
	lsls	r0, r0, #31
	cmp	r0, #0
	beq	.LBB9_27
	b	.LBB9_11
.LBB9_11:
.Ltmp151:
	.loc	7 767 5 is_stmt 1               @ ../ThirdParty/STM32F4xx_HAL_Driver/Src/stm32f4xx_hal_adc.c:767:5
	ldr	r0, [sp, #8]
	ldr	r0, [r0, #64]
	orr	r0, r0, #256
	movw	r1, #1537
	bics	r0, r1
	ldr	r1, [sp, #8]
	str	r0, [r1, #64]
.Ltmp152:
	.loc	7 773 9                         @ ../ThirdParty/STM32F4xx_HAL_Driver/Src/stm32f4xx_hal_adc.c:773:9
	ldr	r0, [sp, #8]
	ldr	r0, [r0]
	ldr	r0, [r0, #4]
.Ltmp153:
	.loc	7 773 9 is_stmt 0               @ ../ThirdParty/STM32F4xx_HAL_Driver/Src/stm32f4xx_hal_adc.c:773:9
	lsls	r0, r0, #21
	cmp	r0, #0
	bpl	.LBB9_13
	b	.LBB9_12
.LBB9_12:
.Ltmp154:
	.loc	7 775 7 is_stmt 1               @ ../ThirdParty/STM32F4xx_HAL_Driver/Src/stm32f4xx_hal_adc.c:775:7
	ldr	r0, [sp, #8]
	ldr	r0, [r0, #64]
	orr	r0, r0, #4096
	bic	r0, r0, #8192
	ldr	r1, [sp, #8]
	str	r0, [r1, #64]
	.loc	7 776 5                         @ ../ThirdParty/STM32F4xx_HAL_Driver/Src/stm32f4xx_hal_adc.c:776:5
	b	.LBB9_13
.Ltmp155:
.LBB9_13:
	.loc	7 779 9                         @ ../ThirdParty/STM32F4xx_HAL_Driver/Src/stm32f4xx_hal_adc.c:779:9
	ldr	r0, [sp, #8]
	ldr	r0, [r0, #64]
.Ltmp156:
	.loc	7 779 9 is_stmt 0               @ ../ThirdParty/STM32F4xx_HAL_Driver/Src/stm32f4xx_hal_adc.c:779:9
	lsls	r0, r0, #19
	cmp	r0, #0
	bpl	.LBB9_15
	b	.LBB9_14
.LBB9_14:
.Ltmp157:
	.loc	7 782 7 is_stmt 1               @ ../ThirdParty/STM32F4xx_HAL_Driver/Src/stm32f4xx_hal_adc.c:782:7
	ldr	r1, [sp, #8]
	ldr	r0, [r1, #68]
	bic	r0, r0, #6
	str	r0, [r1, #68]
	.loc	7 783 5                         @ ../ThirdParty/STM32F4xx_HAL_Driver/Src/stm32f4xx_hal_adc.c:783:5
	b	.LBB9_16
.Ltmp158:
.LBB9_15:
	.loc	7 787 7                         @ ../ThirdParty/STM32F4xx_HAL_Driver/Src/stm32f4xx_hal_adc.c:787:7
	ldr	r1, [sp, #8]
	movs	r0, #0
	str	r0, [r1, #68]
	b	.LBB9_16
.Ltmp159:
.LBB9_16:
	.loc	7 793 5                         @ ../ThirdParty/STM32F4xx_HAL_Driver/Src/stm32f4xx_hal_adc.c:793:5
	b	.LBB9_17
.LBB9_17:
.Ltmp160:
	.loc	7 793 5 is_stmt 0               @ ../ThirdParty/STM32F4xx_HAL_Driver/Src/stm32f4xx_hal_adc.c:793:5
	ldr	r1, [sp, #8]
	movs	r0, #0
	strb.w	r0, [r1, #60]
	b	.LBB9_18
.Ltmp161:
.LBB9_18:
	.loc	7 0 5                           @ ../ThirdParty/STM32F4xx_HAL_Driver/Src/stm32f4xx_hal_adc.c:0:5
	movw	r0, #8960
	movt	r0, #16385
	.loc	7 798 19 is_stmt 1              @ ../ThirdParty/STM32F4xx_HAL_Driver/Src/stm32f4xx_hal_adc.c:798:19
	str	r0, [sp]
	.loc	7 802 5                         @ ../ThirdParty/STM32F4xx_HAL_Driver/Src/stm32f4xx_hal_adc.c:802:5
	ldr	r0, [sp, #8]
	ldr	r1, [r0]
	mvn	r0, #34
	str	r0, [r1]
	.loc	7 805 5                         @ ../ThirdParty/STM32F4xx_HAL_Driver/Src/stm32f4xx_hal_adc.c:805:5
	ldr	r0, [sp, #8]
	ldr	r1, [r0]
	ldr	r0, [r1, #4]
	movs	r2, #32
	movt	r2, #1024
	orrs	r0, r2
	str	r0, [r1, #4]
.Ltmp162:
	.loc	7 808 8                         @ ../ThirdParty/STM32F4xx_HAL_Driver/Src/stm32f4xx_hal_adc.c:808:8
	ldr	r0, [sp]
	ldr	r0, [r0, #4]
.Ltmp163:
	.loc	7 808 8 is_stmt 0               @ ../ThirdParty/STM32F4xx_HAL_Driver/Src/stm32f4xx_hal_adc.c:808:8
	lsls	r0, r0, #27
	cbnz	r0, .LBB9_22
	b	.LBB9_19
.LBB9_19:
.Ltmp164:
	.loc	7 811 11 is_stmt 1              @ ../ThirdParty/STM32F4xx_HAL_Driver/Src/stm32f4xx_hal_adc.c:811:11
	ldr	r0, [sp, #8]
	.loc	7 811 17 is_stmt 0              @ ../ThirdParty/STM32F4xx_HAL_Driver/Src/stm32f4xx_hal_adc.c:811:17
	ldr	r0, [r0]
	.loc	7 811 27                        @ ../ThirdParty/STM32F4xx_HAL_Driver/Src/stm32f4xx_hal_adc.c:811:27
	ldr	r0, [r0, #8]
.Ltmp165:
	.loc	7 811 10                        @ ../ThirdParty/STM32F4xx_HAL_Driver/Src/stm32f4xx_hal_adc.c:811:10
	tst.w	r0, #805306368
	bne	.LBB9_21
	b	.LBB9_20
.LBB9_20:
.Ltmp166:
	.loc	7 814 9 is_stmt 1               @ ../ThirdParty/STM32F4xx_HAL_Driver/Src/stm32f4xx_hal_adc.c:814:9
	ldr	r0, [sp, #8]
	.loc	7 814 15 is_stmt 0              @ ../ThirdParty/STM32F4xx_HAL_Driver/Src/stm32f4xx_hal_adc.c:814:15
	ldr	r1, [r0]
	.loc	7 814 29                        @ ../ThirdParty/STM32F4xx_HAL_Driver/Src/stm32f4xx_hal_adc.c:814:29
	ldr	r0, [r1, #8]
	orr	r0, r0, #1073741824
	str	r0, [r1, #8]
	.loc	7 815 7 is_stmt 1               @ ../ThirdParty/STM32F4xx_HAL_Driver/Src/stm32f4xx_hal_adc.c:815:7
	b	.LBB9_21
.Ltmp167:
.LBB9_21:
	.loc	7 816 5                         @ ../ThirdParty/STM32F4xx_HAL_Driver/Src/stm32f4xx_hal_adc.c:816:5
	b	.LBB9_26
.Ltmp168:
.LBB9_22:
	.loc	7 820 11                        @ ../ThirdParty/STM32F4xx_HAL_Driver/Src/stm32f4xx_hal_adc.c:820:11
	ldr	r0, [sp, #8]
	.loc	7 820 17 is_stmt 0              @ ../ThirdParty/STM32F4xx_HAL_Driver/Src/stm32f4xx_hal_adc.c:820:17
	ldr	r0, [r0]
	movw	r1, #8192
	movt	r1, #16385
	.loc	7 820 35                        @ ../ThirdParty/STM32F4xx_HAL_Driver/Src/stm32f4xx_hal_adc.c:820:35
	cmp	r0, r1
	bne	.LBB9_25
	b	.LBB9_23
.LBB9_23:
	.loc	7 820 40                        @ ../ThirdParty/STM32F4xx_HAL_Driver/Src/stm32f4xx_hal_adc.c:820:40
	ldr	r0, [sp, #8]
	.loc	7 820 46                        @ ../ThirdParty/STM32F4xx_HAL_Driver/Src/stm32f4xx_hal_adc.c:820:46
	ldr	r0, [r0]
	.loc	7 820 56                        @ ../ThirdParty/STM32F4xx_HAL_Driver/Src/stm32f4xx_hal_adc.c:820:56
	ldr	r0, [r0, #8]
.Ltmp169:
	.loc	7 820 10                        @ ../ThirdParty/STM32F4xx_HAL_Driver/Src/stm32f4xx_hal_adc.c:820:10
	tst.w	r0, #805306368
	bne	.LBB9_25
	b	.LBB9_24
.LBB9_24:
.Ltmp170:
	.loc	7 823 11 is_stmt 1              @ ../ThirdParty/STM32F4xx_HAL_Driver/Src/stm32f4xx_hal_adc.c:823:11
	ldr	r0, [sp, #8]
	.loc	7 823 17 is_stmt 0              @ ../ThirdParty/STM32F4xx_HAL_Driver/Src/stm32f4xx_hal_adc.c:823:17
	ldr	r1, [r0]
	.loc	7 823 31                        @ ../ThirdParty/STM32F4xx_HAL_Driver/Src/stm32f4xx_hal_adc.c:823:31
	ldr	r0, [r1, #8]
	orr	r0, r0, #1073741824
	str	r0, [r1, #8]
	.loc	7 824 7 is_stmt 1               @ ../ThirdParty/STM32F4xx_HAL_Driver/Src/stm32f4xx_hal_adc.c:824:7
	b	.LBB9_25
.Ltmp171:
.LBB9_25:
	.loc	7 0 7 is_stmt 0                 @ ../ThirdParty/STM32F4xx_HAL_Driver/Src/stm32f4xx_hal_adc.c:0:7
	b	.LBB9_26
.LBB9_26:
	.loc	7 826 3 is_stmt 1               @ ../ThirdParty/STM32F4xx_HAL_Driver/Src/stm32f4xx_hal_adc.c:826:3
	b	.LBB9_27
.Ltmp172:
.LBB9_27:
	.loc	7 0 3 is_stmt 0                 @ ../ThirdParty/STM32F4xx_HAL_Driver/Src/stm32f4xx_hal_adc.c:0:3
	movs	r0, #0
	.loc	7 829 3 is_stmt 1               @ ../ThirdParty/STM32F4xx_HAL_Driver/Src/stm32f4xx_hal_adc.c:829:3
	strb.w	r0, [sp, #15]
	b	.LBB9_28
.LBB9_28:
	.loc	7 830 1                         @ ../ThirdParty/STM32F4xx_HAL_Driver/Src/stm32f4xx_hal_adc.c:830:1
	ldrb.w	r0, [sp, #15]
	.loc	7 830 1 epilogue_begin is_stmt 0 @ ../ThirdParty/STM32F4xx_HAL_Driver/Src/stm32f4xx_hal_adc.c:830:1
	add	sp, #16
	bx	lr
.Ltmp173:
.Lfunc_end9:
	.size	HAL_ADC_Start_IT, .Lfunc_end9-HAL_ADC_Start_IT
	.cfi_endproc
	.cantunwind
	.fnend
                                        @ -- End function
	.section	.text.HAL_ADC_Stop_IT,"ax",%progbits
	.hidden	HAL_ADC_Stop_IT                 @ -- Begin function HAL_ADC_Stop_IT
	.globl	HAL_ADC_Stop_IT
	.p2align	2
	.type	HAL_ADC_Stop_IT,%function
	.code	16                              @ @HAL_ADC_Stop_IT
	.thumb_func
HAL_ADC_Stop_IT:
.Lfunc_begin10:
	.loc	7 842 0 is_stmt 1               @ ../ThirdParty/STM32F4xx_HAL_Driver/Src/stm32f4xx_hal_adc.c:842:0
	.fnstart
	.cfi_startproc
@ %bb.0:
	.pad	#8
	sub	sp, #8
	.cfi_def_cfa_offset 8
	str	r0, [sp]
.Ltmp174:
	.loc	7 847 3 prologue_end            @ ../ThirdParty/STM32F4xx_HAL_Driver/Src/stm32f4xx_hal_adc.c:847:3
	b	.LBB10_1
.LBB10_1:
.Ltmp175:
	.loc	7 847 3 is_stmt 0               @ ../ThirdParty/STM32F4xx_HAL_Driver/Src/stm32f4xx_hal_adc.c:847:3
	ldr	r0, [sp]
	ldrb.w	r0, [r0, #60]
.Ltmp176:
	.loc	7 847 3                         @ ../ThirdParty/STM32F4xx_HAL_Driver/Src/stm32f4xx_hal_adc.c:847:3
	cmp	r0, #1
	bne	.LBB10_3
	b	.LBB10_2
.LBB10_2:
	.loc	7 0 3                           @ ../ThirdParty/STM32F4xx_HAL_Driver/Src/stm32f4xx_hal_adc.c:0:3
	movs	r0, #2
.Ltmp177:
	.loc	7 847 3                         @ ../ThirdParty/STM32F4xx_HAL_Driver/Src/stm32f4xx_hal_adc.c:847:3
	strb.w	r0, [sp, #7]
	b	.LBB10_10
.Ltmp178:
.LBB10_3:
	.loc	7 847 3                         @ ../ThirdParty/STM32F4xx_HAL_Driver/Src/stm32f4xx_hal_adc.c:847:3
	ldr	r1, [sp]
	movs	r0, #1
	strb.w	r0, [r1, #60]
	b	.LBB10_4
.Ltmp179:
.LBB10_4:
	.loc	7 847 3                         @ ../ThirdParty/STM32F4xx_HAL_Driver/Src/stm32f4xx_hal_adc.c:847:3
	b	.LBB10_5
.Ltmp180:
.LBB10_5:
	.loc	7 851 3 is_stmt 1               @ ../ThirdParty/STM32F4xx_HAL_Driver/Src/stm32f4xx_hal_adc.c:851:3
	ldr	r0, [sp]
	ldr	r1, [r0]
	ldr	r0, [r1, #8]
	bic	r0, r0, #1
	str	r0, [r1, #8]
.Ltmp181:
	.loc	7 854 6                         @ ../ThirdParty/STM32F4xx_HAL_Driver/Src/stm32f4xx_hal_adc.c:854:6
	ldr	r0, [sp]
	ldr	r0, [r0]
	ldr	r0, [r0, #8]
.Ltmp182:
	.loc	7 854 6 is_stmt 0               @ ../ThirdParty/STM32F4xx_HAL_Driver/Src/stm32f4xx_hal_adc.c:854:6
	lsls	r0, r0, #31
	cbnz	r0, .LBB10_7
	b	.LBB10_6
.LBB10_6:
.Ltmp183:
	.loc	7 857 5 is_stmt 1               @ ../ThirdParty/STM32F4xx_HAL_Driver/Src/stm32f4xx_hal_adc.c:857:5
	ldr	r0, [sp]
	ldr	r1, [r0]
	ldr	r0, [r1, #4]
	movw	r2, #65503
	movt	r2, #64511
	ands	r0, r2
	str	r0, [r1, #4]
	.loc	7 860 5                         @ ../ThirdParty/STM32F4xx_HAL_Driver/Src/stm32f4xx_hal_adc.c:860:5
	ldr	r0, [sp]
	ldr	r0, [r0, #64]
	orr	r0, r0, #1
	bic	r0, r0, #4352
	ldr	r1, [sp]
	str	r0, [r1, #64]
	.loc	7 863 3                         @ ../ThirdParty/STM32F4xx_HAL_Driver/Src/stm32f4xx_hal_adc.c:863:3
	b	.LBB10_7
.Ltmp184:
.LBB10_7:
	.loc	7 866 3                         @ ../ThirdParty/STM32F4xx_HAL_Driver/Src/stm32f4xx_hal_adc.c:866:3
	b	.LBB10_8
.LBB10_8:
.Ltmp185:
	.loc	7 866 3 is_stmt 0               @ ../ThirdParty/STM32F4xx_HAL_Driver/Src/stm32f4xx_hal_adc.c:866:3
	ldr	r1, [sp]
	movs	r0, #0
	strb.w	r0, [r1, #60]
	b	.LBB10_9
.Ltmp186:
.LBB10_9:
	.loc	7 0 3                           @ ../ThirdParty/STM32F4xx_HAL_Driver/Src/stm32f4xx_hal_adc.c:0:3
	movs	r0, #0
	.loc	7 869 3 is_stmt 1               @ ../ThirdParty/STM32F4xx_HAL_Driver/Src/stm32f4xx_hal_adc.c:869:3
	strb.w	r0, [sp, #7]
	b	.LBB10_10
.LBB10_10:
	.loc	7 870 1                         @ ../ThirdParty/STM32F4xx_HAL_Driver/Src/stm32f4xx_hal_adc.c:870:1
	ldrb.w	r0, [sp, #7]
	.loc	7 870 1 epilogue_begin is_stmt 0 @ ../ThirdParty/STM32F4xx_HAL_Driver/Src/stm32f4xx_hal_adc.c:870:1
	add	sp, #8
	bx	lr
.Ltmp187:
.Lfunc_end10:
	.size	HAL_ADC_Stop_IT, .Lfunc_end10-HAL_ADC_Stop_IT
	.cfi_endproc
	.cantunwind
	.fnend
                                        @ -- End function
	.section	.text.HAL_ADC_IRQHandler,"ax",%progbits
	.hidden	HAL_ADC_IRQHandler              @ -- Begin function HAL_ADC_IRQHandler
	.globl	HAL_ADC_IRQHandler
	.p2align	2
	.type	HAL_ADC_IRQHandler,%function
	.code	16                              @ @HAL_ADC_IRQHandler
	.thumb_func
HAL_ADC_IRQHandler:
.Lfunc_begin11:
	.loc	7 879 0 is_stmt 1               @ ../ThirdParty/STM32F4xx_HAL_Driver/Src/stm32f4xx_hal_adc.c:879:0
	.fnstart
	.cfi_startproc
@ %bb.0:
	.save	{r7, lr}
	push	{r7, lr}
	.cfi_def_cfa_offset 8
	.cfi_offset lr, -4
	.cfi_offset r7, -8
	.pad	#16
	sub	sp, #16
	.cfi_def_cfa_offset 24
	str	r0, [sp, #12]
	movs	r0, #0
.Ltmp188:
	.loc	7 880 12 prologue_end           @ ../ThirdParty/STM32F4xx_HAL_Driver/Src/stm32f4xx_hal_adc.c:880:12
	str	r0, [sp, #8]
	.loc	7 880 23 is_stmt 0              @ ../ThirdParty/STM32F4xx_HAL_Driver/Src/stm32f4xx_hal_adc.c:880:23
	str	r0, [sp, #4]
	.loc	7 887 10 is_stmt 1              @ ../ThirdParty/STM32F4xx_HAL_Driver/Src/stm32f4xx_hal_adc.c:887:10
	ldr	r0, [sp, #12]
	ldr	r0, [r0]
	ldr	r0, [r0]
	ubfx	r0, r0, #1, #1
	.loc	7 887 8 is_stmt 0               @ ../ThirdParty/STM32F4xx_HAL_Driver/Src/stm32f4xx_hal_adc.c:887:8
	str	r0, [sp, #8]
	.loc	7 888 10 is_stmt 1              @ ../ThirdParty/STM32F4xx_HAL_Driver/Src/stm32f4xx_hal_adc.c:888:10
	ldr	r0, [sp, #12]
	ldr	r0, [r0]
	ldr	r0, [r0, #4]
	ubfx	r0, r0, #5, #1
	.loc	7 888 8 is_stmt 0               @ ../ThirdParty/STM32F4xx_HAL_Driver/Src/stm32f4xx_hal_adc.c:888:8
	str	r0, [sp, #4]
.Ltmp189:
	.loc	7 890 6 is_stmt 1               @ ../ThirdParty/STM32F4xx_HAL_Driver/Src/stm32f4xx_hal_adc.c:890:6
	ldr	r0, [sp, #8]
	.loc	7 890 11 is_stmt 0              @ ../ThirdParty/STM32F4xx_HAL_Driver/Src/stm32f4xx_hal_adc.c:890:11
	cmp	r0, #0
	beq	.LBB11_12
	b	.LBB11_1
.LBB11_1:
	.loc	7 890 14                        @ ../ThirdParty/STM32F4xx_HAL_Driver/Src/stm32f4xx_hal_adc.c:890:14
	ldr	r0, [sp, #4]
.Ltmp190:
	.loc	7 890 6                         @ ../ThirdParty/STM32F4xx_HAL_Driver/Src/stm32f4xx_hal_adc.c:890:6
	cmp	r0, #0
	beq	.LBB11_12
	b	.LBB11_2
.LBB11_2:
.Ltmp191:
	.loc	7 893 9 is_stmt 1               @ ../ThirdParty/STM32F4xx_HAL_Driver/Src/stm32f4xx_hal_adc.c:893:9
	ldr	r0, [sp, #12]
	ldr	r0, [r0, #64]
.Ltmp192:
	.loc	7 893 9 is_stmt 0               @ ../ThirdParty/STM32F4xx_HAL_Driver/Src/stm32f4xx_hal_adc.c:893:9
	lsls	r0, r0, #27
	cmp	r0, #0
	bmi	.LBB11_4
	b	.LBB11_3
.LBB11_3:
.Ltmp193:
	.loc	7 896 7 is_stmt 1               @ ../ThirdParty/STM32F4xx_HAL_Driver/Src/stm32f4xx_hal_adc.c:896:7
	ldr	r1, [sp, #12]
	ldr	r0, [r1, #64]
	orr	r0, r0, #512
	str	r0, [r1, #64]
	.loc	7 897 5                         @ ../ThirdParty/STM32F4xx_HAL_Driver/Src/stm32f4xx_hal_adc.c:897:5
	b	.LBB11_4
.Ltmp194:
.LBB11_4:
	.loc	7 905 8                         @ ../ThirdParty/STM32F4xx_HAL_Driver/Src/stm32f4xx_hal_adc.c:905:8
	ldr	r0, [sp, #12]
	ldr	r0, [r0]
	ldr	r0, [r0, #8]
	.loc	7 905 62 is_stmt 0              @ ../ThirdParty/STM32F4xx_HAL_Driver/Src/stm32f4xx_hal_adc.c:905:62
	tst.w	r0, #805306368
	bne	.LBB11_11
	b	.LBB11_5
.LBB11_5:
	.loc	7 906 9 is_stmt 1               @ ../ThirdParty/STM32F4xx_HAL_Driver/Src/stm32f4xx_hal_adc.c:906:9
	ldr	r0, [sp, #12]
	.loc	7 906 20 is_stmt 0              @ ../ThirdParty/STM32F4xx_HAL_Driver/Src/stm32f4xx_hal_adc.c:906:20
	ldr	r0, [r0, #24]
	.loc	7 906 62                        @ ../ThirdParty/STM32F4xx_HAL_Driver/Src/stm32f4xx_hal_adc.c:906:62
	cbnz	r0, .LBB11_11
	b	.LBB11_6
.LBB11_6:
	.loc	7 907 9 is_stmt 1               @ ../ThirdParty/STM32F4xx_HAL_Driver/Src/stm32f4xx_hal_adc.c:907:9
	ldr	r0, [sp, #12]
	ldr	r0, [r0]
	ldr	r0, [r0, #44]
	.loc	7 907 58 is_stmt 0              @ ../ThirdParty/STM32F4xx_HAL_Driver/Src/stm32f4xx_hal_adc.c:907:58
	tst.w	r0, #15728640
	beq	.LBB11_8
	b	.LBB11_7
.LBB11_7:
	.loc	7 908 9 is_stmt 1               @ ../ThirdParty/STM32F4xx_HAL_Driver/Src/stm32f4xx_hal_adc.c:908:9
	ldr	r0, [sp, #12]
	ldr	r0, [r0]
	ldr	r0, [r0, #8]
.Ltmp195:
	.loc	7 905 8                         @ ../ThirdParty/STM32F4xx_HAL_Driver/Src/stm32f4xx_hal_adc.c:905:8
	lsls	r0, r0, #21
	cmp	r0, #0
	bmi	.LBB11_11
	b	.LBB11_8
.LBB11_8:
.Ltmp196:
	.loc	7 914 7                         @ ../ThirdParty/STM32F4xx_HAL_Driver/Src/stm32f4xx_hal_adc.c:914:7
	ldr	r0, [sp, #12]
	ldr	r1, [r0]
	ldr	r0, [r1, #4]
	bic	r0, r0, #32
	str	r0, [r1, #4]
	.loc	7 917 7                         @ ../ThirdParty/STM32F4xx_HAL_Driver/Src/stm32f4xx_hal_adc.c:917:7
	ldr	r1, [sp, #12]
	ldr	r0, [r1, #64]
	bic	r0, r0, #256
	str	r0, [r1, #64]
.Ltmp197:
	.loc	7 919 11                        @ ../ThirdParty/STM32F4xx_HAL_Driver/Src/stm32f4xx_hal_adc.c:919:11
	ldr	r0, [sp, #12]
	ldr	r0, [r0, #64]
.Ltmp198:
	.loc	7 919 11 is_stmt 0              @ ../ThirdParty/STM32F4xx_HAL_Driver/Src/stm32f4xx_hal_adc.c:919:11
	lsls	r0, r0, #19
	cmp	r0, #0
	bmi	.LBB11_10
	b	.LBB11_9
.LBB11_9:
.Ltmp199:
	.loc	7 921 9 is_stmt 1               @ ../ThirdParty/STM32F4xx_HAL_Driver/Src/stm32f4xx_hal_adc.c:921:9
	ldr	r1, [sp, #12]
	ldr	r0, [r1, #64]
	orr	r0, r0, #1
	str	r0, [r1, #64]
	.loc	7 922 7                         @ ../ThirdParty/STM32F4xx_HAL_Driver/Src/stm32f4xx_hal_adc.c:922:7
	b	.LBB11_10
.Ltmp200:
.LBB11_10:
	.loc	7 923 5                         @ ../ThirdParty/STM32F4xx_HAL_Driver/Src/stm32f4xx_hal_adc.c:923:5
	b	.LBB11_11
.Ltmp201:
.LBB11_11:
	.loc	7 926 30                        @ ../ThirdParty/STM32F4xx_HAL_Driver/Src/stm32f4xx_hal_adc.c:926:30
	ldr	r0, [sp, #12]
	.loc	7 926 5 is_stmt 0               @ ../ThirdParty/STM32F4xx_HAL_Driver/Src/stm32f4xx_hal_adc.c:926:5
	bl	HAL_ADC_ConvCpltCallback
	.loc	7 929 5 is_stmt 1               @ ../ThirdParty/STM32F4xx_HAL_Driver/Src/stm32f4xx_hal_adc.c:929:5
	ldr	r0, [sp, #12]
	ldr	r1, [r0]
	mvn	r0, #18
	str	r0, [r1]
	.loc	7 930 3                         @ ../ThirdParty/STM32F4xx_HAL_Driver/Src/stm32f4xx_hal_adc.c:930:3
	b	.LBB11_12
.Ltmp202:
.LBB11_12:
	.loc	7 932 10                        @ ../ThirdParty/STM32F4xx_HAL_Driver/Src/stm32f4xx_hal_adc.c:932:10
	ldr	r0, [sp, #12]
	ldr	r0, [r0]
	ldr	r0, [r0]
	ubfx	r0, r0, #2, #1
	.loc	7 932 8 is_stmt 0               @ ../ThirdParty/STM32F4xx_HAL_Driver/Src/stm32f4xx_hal_adc.c:932:8
	str	r0, [sp, #8]
	.loc	7 933 10 is_stmt 1              @ ../ThirdParty/STM32F4xx_HAL_Driver/Src/stm32f4xx_hal_adc.c:933:10
	ldr	r0, [sp, #12]
	ldr	r0, [r0]
	ldr	r0, [r0, #4]
	uxtb	r0, r0
	lsrs	r0, r0, #7
	.loc	7 933 8 is_stmt 0               @ ../ThirdParty/STM32F4xx_HAL_Driver/Src/stm32f4xx_hal_adc.c:933:8
	str	r0, [sp, #4]
.Ltmp203:
	.loc	7 935 6 is_stmt 1               @ ../ThirdParty/STM32F4xx_HAL_Driver/Src/stm32f4xx_hal_adc.c:935:6
	ldr	r0, [sp, #8]
	.loc	7 935 11 is_stmt 0              @ ../ThirdParty/STM32F4xx_HAL_Driver/Src/stm32f4xx_hal_adc.c:935:11
	cmp	r0, #0
	beq	.LBB11_26
	b	.LBB11_13
.LBB11_13:
	.loc	7 935 14                        @ ../ThirdParty/STM32F4xx_HAL_Driver/Src/stm32f4xx_hal_adc.c:935:14
	ldr	r0, [sp, #4]
.Ltmp204:
	.loc	7 935 6                         @ ../ThirdParty/STM32F4xx_HAL_Driver/Src/stm32f4xx_hal_adc.c:935:6
	cmp	r0, #0
	beq	.LBB11_26
	b	.LBB11_14
.LBB11_14:
.Ltmp205:
	.loc	7 938 9 is_stmt 1               @ ../ThirdParty/STM32F4xx_HAL_Driver/Src/stm32f4xx_hal_adc.c:938:9
	ldr	r0, [sp, #12]
	ldr	r0, [r0, #64]
.Ltmp206:
	.loc	7 938 9 is_stmt 0               @ ../ThirdParty/STM32F4xx_HAL_Driver/Src/stm32f4xx_hal_adc.c:938:9
	lsls	r0, r0, #27
	cmp	r0, #0
	bmi	.LBB11_16
	b	.LBB11_15
.LBB11_15:
.Ltmp207:
	.loc	7 941 7 is_stmt 1               @ ../ThirdParty/STM32F4xx_HAL_Driver/Src/stm32f4xx_hal_adc.c:941:7
	ldr	r1, [sp, #12]
	ldr	r0, [r1, #64]
	orr	r0, r0, #8192
	str	r0, [r1, #64]
	.loc	7 942 5                         @ ../ThirdParty/STM32F4xx_HAL_Driver/Src/stm32f4xx_hal_adc.c:942:5
	b	.LBB11_16
.Ltmp208:
.LBB11_16:
	.loc	7 948 8                         @ ../ThirdParty/STM32F4xx_HAL_Driver/Src/stm32f4xx_hal_adc.c:948:8
	ldr	r0, [sp, #12]
	ldr	r0, [r0]
	ldr	r0, [r0, #8]
	.loc	7 948 64 is_stmt 0              @ ../ThirdParty/STM32F4xx_HAL_Driver/Src/stm32f4xx_hal_adc.c:948:64
	tst.w	r0, #3145728
	bne	.LBB11_25
	b	.LBB11_17
.LBB11_17:
	.loc	7 949 9 is_stmt 1               @ ../ThirdParty/STM32F4xx_HAL_Driver/Src/stm32f4xx_hal_adc.c:949:9
	ldr	r0, [sp, #12]
	ldr	r0, [r0]
	ldr	r0, [r0, #56]
	.loc	7 949 60 is_stmt 0              @ ../ThirdParty/STM32F4xx_HAL_Driver/Src/stm32f4xx_hal_adc.c:949:60
	tst.w	r0, #3145728
	beq	.LBB11_19
	b	.LBB11_18
.LBB11_18:
	.loc	7 950 9 is_stmt 1               @ ../ThirdParty/STM32F4xx_HAL_Driver/Src/stm32f4xx_hal_adc.c:950:9
	ldr	r0, [sp, #12]
	ldr	r0, [r0]
	ldr	r0, [r0, #8]
	.loc	7 950 64 is_stmt 0              @ ../ThirdParty/STM32F4xx_HAL_Driver/Src/stm32f4xx_hal_adc.c:950:64
	lsls	r0, r0, #21
	cmp	r0, #0
	bmi	.LBB11_25
	b	.LBB11_19
.LBB11_19:
	.loc	7 951 9 is_stmt 1               @ ../ThirdParty/STM32F4xx_HAL_Driver/Src/stm32f4xx_hal_adc.c:951:9
	ldr	r0, [sp, #12]
	ldr	r0, [r0]
	ldr	r0, [r0, #4]
	.loc	7 951 60 is_stmt 0              @ ../ThirdParty/STM32F4xx_HAL_Driver/Src/stm32f4xx_hal_adc.c:951:60
	lsls	r0, r0, #21
	cmp	r0, #0
	bmi	.LBB11_25
	b	.LBB11_20
.LBB11_20:
	.loc	7 952 10 is_stmt 1              @ ../ThirdParty/STM32F4xx_HAL_Driver/Src/stm32f4xx_hal_adc.c:952:10
	ldr	r0, [sp, #12]
	ldr	r0, [r0]
	ldr	r0, [r0, #8]
	.loc	7 952 52 is_stmt 0              @ ../ThirdParty/STM32F4xx_HAL_Driver/Src/stm32f4xx_hal_adc.c:952:52
	tst.w	r0, #805306368
	bne	.LBB11_25
	b	.LBB11_21
.LBB11_21:
	.loc	7 953 10 is_stmt 1              @ ../ThirdParty/STM32F4xx_HAL_Driver/Src/stm32f4xx_hal_adc.c:953:10
	ldr	r0, [sp, #12]
	.loc	7 953 21 is_stmt 0              @ ../ThirdParty/STM32F4xx_HAL_Driver/Src/stm32f4xx_hal_adc.c:953:21
	ldr	r0, [r0, #24]
.Ltmp209:
	.loc	7 948 8 is_stmt 1               @ ../ThirdParty/STM32F4xx_HAL_Driver/Src/stm32f4xx_hal_adc.c:948:8
	cbnz	r0, .LBB11_25
	b	.LBB11_22
.LBB11_22:
.Ltmp210:
	.loc	7 956 7                         @ ../ThirdParty/STM32F4xx_HAL_Driver/Src/stm32f4xx_hal_adc.c:956:7
	ldr	r0, [sp, #12]
	ldr	r1, [r0]
	ldr	r0, [r1, #4]
	bic	r0, r0, #128
	str	r0, [r1, #4]
	.loc	7 959 7                         @ ../ThirdParty/STM32F4xx_HAL_Driver/Src/stm32f4xx_hal_adc.c:959:7
	ldr	r1, [sp, #12]
	ldr	r0, [r1, #64]
	bic	r0, r0, #4096
	str	r0, [r1, #64]
.Ltmp211:
	.loc	7 961 11                        @ ../ThirdParty/STM32F4xx_HAL_Driver/Src/stm32f4xx_hal_adc.c:961:11
	ldr	r0, [sp, #12]
	ldr	r0, [r0, #64]
.Ltmp212:
	.loc	7 961 11 is_stmt 0              @ ../ThirdParty/STM32F4xx_HAL_Driver/Src/stm32f4xx_hal_adc.c:961:11
	lsls	r0, r0, #23
	cmp	r0, #0
	bmi	.LBB11_24
	b	.LBB11_23
.LBB11_23:
.Ltmp213:
	.loc	7 963 9 is_stmt 1               @ ../ThirdParty/STM32F4xx_HAL_Driver/Src/stm32f4xx_hal_adc.c:963:9
	ldr	r1, [sp, #12]
	ldr	r0, [r1, #64]
	orr	r0, r0, #1
	str	r0, [r1, #64]
	.loc	7 964 7                         @ ../ThirdParty/STM32F4xx_HAL_Driver/Src/stm32f4xx_hal_adc.c:964:7
	b	.LBB11_24
.Ltmp214:
.LBB11_24:
	.loc	7 965 5                         @ ../ThirdParty/STM32F4xx_HAL_Driver/Src/stm32f4xx_hal_adc.c:965:5
	b	.LBB11_25
.Ltmp215:
.LBB11_25:
	.loc	7 968 40                        @ ../ThirdParty/STM32F4xx_HAL_Driver/Src/stm32f4xx_hal_adc.c:968:40
	ldr	r0, [sp, #12]
	.loc	7 968 5 is_stmt 0               @ ../ThirdParty/STM32F4xx_HAL_Driver/Src/stm32f4xx_hal_adc.c:968:5
	bl	HAL_ADCEx_InjectedConvCpltCallback
	.loc	7 971 5 is_stmt 1               @ ../ThirdParty/STM32F4xx_HAL_Driver/Src/stm32f4xx_hal_adc.c:971:5
	ldr	r0, [sp, #12]
	ldr	r1, [r0]
	mvn	r0, #12
	str	r0, [r1]
	.loc	7 972 3                         @ ../ThirdParty/STM32F4xx_HAL_Driver/Src/stm32f4xx_hal_adc.c:972:3
	b	.LBB11_26
.Ltmp216:
.LBB11_26:
	.loc	7 974 10                        @ ../ThirdParty/STM32F4xx_HAL_Driver/Src/stm32f4xx_hal_adc.c:974:10
	ldr	r0, [sp, #12]
	ldr	r0, [r0]
	ldr	r0, [r0]
	and	r0, r0, #1
	.loc	7 974 8 is_stmt 0               @ ../ThirdParty/STM32F4xx_HAL_Driver/Src/stm32f4xx_hal_adc.c:974:8
	str	r0, [sp, #8]
	.loc	7 975 10 is_stmt 1              @ ../ThirdParty/STM32F4xx_HAL_Driver/Src/stm32f4xx_hal_adc.c:975:10
	ldr	r0, [sp, #12]
	ldr	r0, [r0]
	ldr	r0, [r0, #4]
	ubfx	r0, r0, #6, #1
	.loc	7 975 8 is_stmt 0               @ ../ThirdParty/STM32F4xx_HAL_Driver/Src/stm32f4xx_hal_adc.c:975:8
	str	r0, [sp, #4]
.Ltmp217:
	.loc	7 977 6 is_stmt 1               @ ../ThirdParty/STM32F4xx_HAL_Driver/Src/stm32f4xx_hal_adc.c:977:6
	ldr	r0, [sp, #8]
	.loc	7 977 11 is_stmt 0              @ ../ThirdParty/STM32F4xx_HAL_Driver/Src/stm32f4xx_hal_adc.c:977:11
	cbz	r0, .LBB11_31
	b	.LBB11_27
.LBB11_27:
	.loc	7 977 14                        @ ../ThirdParty/STM32F4xx_HAL_Driver/Src/stm32f4xx_hal_adc.c:977:14
	ldr	r0, [sp, #4]
.Ltmp218:
	.loc	7 977 6                         @ ../ThirdParty/STM32F4xx_HAL_Driver/Src/stm32f4xx_hal_adc.c:977:6
	cbz	r0, .LBB11_31
	b	.LBB11_28
.LBB11_28:
.Ltmp219:
	.loc	7 979 8 is_stmt 1               @ ../ThirdParty/STM32F4xx_HAL_Driver/Src/stm32f4xx_hal_adc.c:979:8
	ldr	r0, [sp, #12]
	ldr	r0, [r0]
	ldr	r0, [r0]
.Ltmp220:
	.loc	7 979 8 is_stmt 0               @ ../ThirdParty/STM32F4xx_HAL_Driver/Src/stm32f4xx_hal_adc.c:979:8
	lsls	r0, r0, #31
	cbz	r0, .LBB11_30
	b	.LBB11_29
.LBB11_29:
.Ltmp221:
	.loc	7 982 7 is_stmt 1               @ ../ThirdParty/STM32F4xx_HAL_Driver/Src/stm32f4xx_hal_adc.c:982:7
	ldr	r1, [sp, #12]
	ldr	r0, [r1, #64]
	orr	r0, r0, #65536
	str	r0, [r1, #64]
	.loc	7 985 40                        @ ../ThirdParty/STM32F4xx_HAL_Driver/Src/stm32f4xx_hal_adc.c:985:40
	ldr	r0, [sp, #12]
	.loc	7 985 7 is_stmt 0               @ ../ThirdParty/STM32F4xx_HAL_Driver/Src/stm32f4xx_hal_adc.c:985:7
	bl	HAL_ADC_LevelOutOfWindowCallback
	.loc	7 988 7 is_stmt 1               @ ../ThirdParty/STM32F4xx_HAL_Driver/Src/stm32f4xx_hal_adc.c:988:7
	ldr	r0, [sp, #12]
	ldr	r1, [r0]
	mvn	r0, #1
	str	r0, [r1]
	.loc	7 989 5                         @ ../ThirdParty/STM32F4xx_HAL_Driver/Src/stm32f4xx_hal_adc.c:989:5
	b	.LBB11_30
.Ltmp222:
.LBB11_30:
	.loc	7 990 3                         @ ../ThirdParty/STM32F4xx_HAL_Driver/Src/stm32f4xx_hal_adc.c:990:3
	b	.LBB11_31
.Ltmp223:
.LBB11_31:
	.loc	7 992 10                        @ ../ThirdParty/STM32F4xx_HAL_Driver/Src/stm32f4xx_hal_adc.c:992:10
	ldr	r0, [sp, #12]
	ldr	r0, [r0]
	ldr	r0, [r0]
	ubfx	r0, r0, #5, #1
	.loc	7 992 8 is_stmt 0               @ ../ThirdParty/STM32F4xx_HAL_Driver/Src/stm32f4xx_hal_adc.c:992:8
	str	r0, [sp, #8]
	.loc	7 993 10 is_stmt 1              @ ../ThirdParty/STM32F4xx_HAL_Driver/Src/stm32f4xx_hal_adc.c:993:10
	ldr	r0, [sp, #12]
	ldr	r0, [r0]
	ldr	r0, [r0, #4]
	ubfx	r0, r0, #26, #1
	.loc	7 993 8 is_stmt 0               @ ../ThirdParty/STM32F4xx_HAL_Driver/Src/stm32f4xx_hal_adc.c:993:8
	str	r0, [sp, #4]
.Ltmp224:
	.loc	7 995 6 is_stmt 1               @ ../ThirdParty/STM32F4xx_HAL_Driver/Src/stm32f4xx_hal_adc.c:995:6
	ldr	r0, [sp, #8]
	.loc	7 995 11 is_stmt 0              @ ../ThirdParty/STM32F4xx_HAL_Driver/Src/stm32f4xx_hal_adc.c:995:11
	cbz	r0, .LBB11_34
	b	.LBB11_32
.LBB11_32:
	.loc	7 995 14                        @ ../ThirdParty/STM32F4xx_HAL_Driver/Src/stm32f4xx_hal_adc.c:995:14
	ldr	r0, [sp, #4]
.Ltmp225:
	.loc	7 995 6                         @ ../ThirdParty/STM32F4xx_HAL_Driver/Src/stm32f4xx_hal_adc.c:995:6
	cbz	r0, .LBB11_34
	b	.LBB11_33
.LBB11_33:
.Ltmp226:
	.loc	7 1002 5 is_stmt 1              @ ../ThirdParty/STM32F4xx_HAL_Driver/Src/stm32f4xx_hal_adc.c:1002:5
	ldr	r1, [sp, #12]
	ldr	r0, [r1, #68]
	orr	r0, r0, #2
	str	r0, [r1, #68]
	.loc	7 1005 5                        @ ../ThirdParty/STM32F4xx_HAL_Driver/Src/stm32f4xx_hal_adc.c:1005:5
	ldr	r0, [sp, #12]
	ldr	r1, [r0]
	mvn	r0, #32
	str	r0, [sp]                        @ 4-byte Spill
	str	r0, [r1]
	.loc	7 1008 27                       @ ../ThirdParty/STM32F4xx_HAL_Driver/Src/stm32f4xx_hal_adc.c:1008:27
	ldr	r0, [sp, #12]
	.loc	7 1008 5 is_stmt 0              @ ../ThirdParty/STM32F4xx_HAL_Driver/Src/stm32f4xx_hal_adc.c:1008:5
	bl	HAL_ADC_ErrorCallback
	ldr	r0, [sp]                        @ 4-byte Reload
	.loc	7 1011 5 is_stmt 1              @ ../ThirdParty/STM32F4xx_HAL_Driver/Src/stm32f4xx_hal_adc.c:1011:5
	ldr	r1, [sp, #12]
	ldr	r1, [r1]
	str	r0, [r1]
	.loc	7 1012 3                        @ ../ThirdParty/STM32F4xx_HAL_Driver/Src/stm32f4xx_hal_adc.c:1012:3
	b	.LBB11_34
.Ltmp227:
.LBB11_34:
	.loc	7 1013 1 epilogue_begin         @ ../ThirdParty/STM32F4xx_HAL_Driver/Src/stm32f4xx_hal_adc.c:1013:1
	add	sp, #16
	pop	{r7, pc}
.Ltmp228:
.Lfunc_end11:
	.size	HAL_ADC_IRQHandler, .Lfunc_end11-HAL_ADC_IRQHandler
	.cfi_endproc
	.cantunwind
	.fnend
                                        @ -- End function
	.section	.text.HAL_ADC_ConvCpltCallback,"ax",%progbits
	.hidden	HAL_ADC_ConvCpltCallback        @ -- Begin function HAL_ADC_ConvCpltCallback
	.weak	HAL_ADC_ConvCpltCallback
	.p2align	2
	.type	HAL_ADC_ConvCpltCallback,%function
	.code	16                              @ @HAL_ADC_ConvCpltCallback
	.thumb_func
HAL_ADC_ConvCpltCallback:
.Lfunc_begin12:
	.loc	7 1207 0                        @ ../ThirdParty/STM32F4xx_HAL_Driver/Src/stm32f4xx_hal_adc.c:1207:0
	.fnstart
	.cfi_startproc
@ %bb.0:
	.pad	#4
	sub	sp, #4
	.cfi_def_cfa_offset 4
	str	r0, [sp]
.Ltmp229:
	.loc	7 1213 1 prologue_end epilogue_begin @ ../ThirdParty/STM32F4xx_HAL_Driver/Src/stm32f4xx_hal_adc.c:1213:1
	add	sp, #4
	bx	lr
.Ltmp230:
.Lfunc_end12:
	.size	HAL_ADC_ConvCpltCallback, .Lfunc_end12-HAL_ADC_ConvCpltCallback
	.cfi_endproc
	.cantunwind
	.fnend
                                        @ -- End function
	.section	.text.HAL_ADC_LevelOutOfWindowCallback,"ax",%progbits
	.hidden	HAL_ADC_LevelOutOfWindowCallback @ -- Begin function HAL_ADC_LevelOutOfWindowCallback
	.weak	HAL_ADC_LevelOutOfWindowCallback
	.p2align	2
	.type	HAL_ADC_LevelOutOfWindowCallback,%function
	.code	16                              @ @HAL_ADC_LevelOutOfWindowCallback
	.thumb_func
HAL_ADC_LevelOutOfWindowCallback:
.Lfunc_begin13:
	.loc	7 1237 0                        @ ../ThirdParty/STM32F4xx_HAL_Driver/Src/stm32f4xx_hal_adc.c:1237:0
	.fnstart
	.cfi_startproc
@ %bb.0:
	.pad	#4
	sub	sp, #4
	.cfi_def_cfa_offset 4
	str	r0, [sp]
.Ltmp231:
	.loc	7 1243 1 prologue_end epilogue_begin @ ../ThirdParty/STM32F4xx_HAL_Driver/Src/stm32f4xx_hal_adc.c:1243:1
	add	sp, #4
	bx	lr
.Ltmp232:
.Lfunc_end13:
	.size	HAL_ADC_LevelOutOfWindowCallback, .Lfunc_end13-HAL_ADC_LevelOutOfWindowCallback
	.cfi_endproc
	.cantunwind
	.fnend
                                        @ -- End function
	.section	.text.HAL_ADC_ErrorCallback,"ax",%progbits
	.hidden	HAL_ADC_ErrorCallback           @ -- Begin function HAL_ADC_ErrorCallback
	.weak	HAL_ADC_ErrorCallback
	.p2align	2
	.type	HAL_ADC_ErrorCallback,%function
	.code	16                              @ @HAL_ADC_ErrorCallback
	.thumb_func
HAL_ADC_ErrorCallback:
.Lfunc_begin14:
	.loc	7 1258 0                        @ ../ThirdParty/STM32F4xx_HAL_Driver/Src/stm32f4xx_hal_adc.c:1258:0
	.fnstart
	.cfi_startproc
@ %bb.0:
	.pad	#4
	sub	sp, #4
	.cfi_def_cfa_offset 4
	str	r0, [sp]
.Ltmp233:
	.loc	7 1264 1 prologue_end epilogue_begin @ ../ThirdParty/STM32F4xx_HAL_Driver/Src/stm32f4xx_hal_adc.c:1264:1
	add	sp, #4
	bx	lr
.Ltmp234:
.Lfunc_end14:
	.size	HAL_ADC_ErrorCallback, .Lfunc_end14-HAL_ADC_ErrorCallback
	.cfi_endproc
	.cantunwind
	.fnend
                                        @ -- End function
	.section	.text.HAL_ADC_Start_DMA,"ax",%progbits
	.hidden	HAL_ADC_Start_DMA               @ -- Begin function HAL_ADC_Start_DMA
	.globl	HAL_ADC_Start_DMA
	.p2align	2
	.type	HAL_ADC_Start_DMA,%function
	.code	16                              @ @HAL_ADC_Start_DMA
	.thumb_func
HAL_ADC_Start_DMA:
.Lfunc_begin15:
	.loc	7 1024 0                        @ ../ThirdParty/STM32F4xx_HAL_Driver/Src/stm32f4xx_hal_adc.c:1024:0
	.fnstart
	.cfi_startproc
@ %bb.0:
	.save	{r7, lr}
	push	{r7, lr}
	.cfi_def_cfa_offset 8
	.cfi_offset lr, -4
	.cfi_offset r7, -8
	.pad	#24
	sub	sp, #24
	.cfi_def_cfa_offset 32
	str	r0, [sp, #16]
	str	r1, [sp, #12]
	str	r2, [sp, #8]
	movs	r0, #0
.Ltmp235:
	.loc	7 1025 17 prologue_end          @ ../ThirdParty/STM32F4xx_HAL_Driver/Src/stm32f4xx_hal_adc.c:1025:17
	str	r0, [sp, #4]
	.loc	7 1033 3                        @ ../ThirdParty/STM32F4xx_HAL_Driver/Src/stm32f4xx_hal_adc.c:1033:3
	b	.LBB15_1
.LBB15_1:
.Ltmp236:
	.loc	7 1033 3 is_stmt 0              @ ../ThirdParty/STM32F4xx_HAL_Driver/Src/stm32f4xx_hal_adc.c:1033:3
	ldr	r0, [sp, #16]
	ldrb.w	r0, [r0, #60]
.Ltmp237:
	.loc	7 1033 3                        @ ../ThirdParty/STM32F4xx_HAL_Driver/Src/stm32f4xx_hal_adc.c:1033:3
	cmp	r0, #1
	bne	.LBB15_3
	b	.LBB15_2
.LBB15_2:
	.loc	7 0 3                           @ ../ThirdParty/STM32F4xx_HAL_Driver/Src/stm32f4xx_hal_adc.c:0:3
	movs	r0, #2
.Ltmp238:
	.loc	7 1033 3                        @ ../ThirdParty/STM32F4xx_HAL_Driver/Src/stm32f4xx_hal_adc.c:1033:3
	strb.w	r0, [sp, #23]
	b	.LBB15_28
.Ltmp239:
.LBB15_3:
	.loc	7 1033 3                        @ ../ThirdParty/STM32F4xx_HAL_Driver/Src/stm32f4xx_hal_adc.c:1033:3
	ldr	r1, [sp, #16]
	movs	r0, #1
	strb.w	r0, [r1, #60]
	b	.LBB15_4
.Ltmp240:
.LBB15_4:
	.loc	7 1033 3                        @ ../ThirdParty/STM32F4xx_HAL_Driver/Src/stm32f4xx_hal_adc.c:1033:3
	b	.LBB15_5
.Ltmp241:
.LBB15_5:
	.loc	7 1038 7 is_stmt 1              @ ../ThirdParty/STM32F4xx_HAL_Driver/Src/stm32f4xx_hal_adc.c:1038:7
	ldr	r0, [sp, #16]
	.loc	7 1038 13 is_stmt 0             @ ../ThirdParty/STM32F4xx_HAL_Driver/Src/stm32f4xx_hal_adc.c:1038:13
	ldr	r0, [r0]
	.loc	7 1038 23                       @ ../ThirdParty/STM32F4xx_HAL_Driver/Src/stm32f4xx_hal_adc.c:1038:23
	ldr	r0, [r0, #8]
.Ltmp242:
	.loc	7 1038 6                        @ ../ThirdParty/STM32F4xx_HAL_Driver/Src/stm32f4xx_hal_adc.c:1038:6
	lsls	r0, r0, #31
	cbnz	r0, .LBB15_10
	b	.LBB15_6
.LBB15_6:
.Ltmp243:
	.loc	7 1041 5 is_stmt 1              @ ../ThirdParty/STM32F4xx_HAL_Driver/Src/stm32f4xx_hal_adc.c:1041:5
	ldr	r0, [sp, #16]
	ldr	r1, [r0]
	ldr	r0, [r1, #8]
	orr	r0, r0, #1
	str	r0, [r1, #8]
	.loc	7 1045 37                       @ ../ThirdParty/STM32F4xx_HAL_Driver/Src/stm32f4xx_hal_adc.c:1045:37
	movw	r0, :lower16:SystemCoreClock
	movt	r0, :upper16:SystemCoreClock
	ldr	r0, [r0]
	movw	r1, #56963
	movt	r1, #17179
	.loc	7 1045 53 is_stmt 0             @ ../ThirdParty/STM32F4xx_HAL_Driver/Src/stm32f4xx_hal_adc.c:1045:53
	umull	r1, r0, r0, r1
	lsrs	r0, r0, #18
	.loc	7 1045 34                       @ ../ThirdParty/STM32F4xx_HAL_Driver/Src/stm32f4xx_hal_adc.c:1045:34
	add.w	r0, r0, r0, lsl #1
	.loc	7 1045 13                       @ ../ThirdParty/STM32F4xx_HAL_Driver/Src/stm32f4xx_hal_adc.c:1045:13
	str	r0, [sp, #4]
	.loc	7 1046 5 is_stmt 1              @ ../ThirdParty/STM32F4xx_HAL_Driver/Src/stm32f4xx_hal_adc.c:1046:5
	b	.LBB15_7
.LBB15_7:                               @ =>This Inner Loop Header: Depth=1
	.loc	7 1046 11 is_stmt 0             @ ../ThirdParty/STM32F4xx_HAL_Driver/Src/stm32f4xx_hal_adc.c:1046:11
	ldr	r0, [sp, #4]
	.loc	7 1046 5                        @ ../ThirdParty/STM32F4xx_HAL_Driver/Src/stm32f4xx_hal_adc.c:1046:5
	cbz	r0, .LBB15_9
	b	.LBB15_8
.LBB15_8:                               @   in Loop: Header=BB15_7 Depth=1
.Ltmp244:
	.loc	7 1048 14 is_stmt 1             @ ../ThirdParty/STM32F4xx_HAL_Driver/Src/stm32f4xx_hal_adc.c:1048:14
	ldr	r0, [sp, #4]
	subs	r0, #1
	str	r0, [sp, #4]
.Ltmp245:
	.loc	7 1046 5                        @ ../ThirdParty/STM32F4xx_HAL_Driver/Src/stm32f4xx_hal_adc.c:1046:5
	b	.LBB15_7
.LBB15_9:
	.loc	7 1050 3                        @ ../ThirdParty/STM32F4xx_HAL_Driver/Src/stm32f4xx_hal_adc.c:1050:3
	b	.LBB15_10
.Ltmp246:
.LBB15_10:
	.loc	7 1053 6                        @ ../ThirdParty/STM32F4xx_HAL_Driver/Src/stm32f4xx_hal_adc.c:1053:6
	ldr	r0, [sp, #16]
	ldr	r0, [r0]
	ldr	r0, [r0, #8]
.Ltmp247:
	.loc	7 1053 6 is_stmt 0              @ ../ThirdParty/STM32F4xx_HAL_Driver/Src/stm32f4xx_hal_adc.c:1053:6
	lsls	r0, r0, #31
	cmp	r0, #0
	beq.w	.LBB15_27
	b	.LBB15_11
.LBB15_11:
.Ltmp248:
	.loc	7 1058 5 is_stmt 1              @ ../ThirdParty/STM32F4xx_HAL_Driver/Src/stm32f4xx_hal_adc.c:1058:5
	ldr	r0, [sp, #16]
	ldr	r0, [r0, #64]
	orr	r0, r0, #256
	movw	r1, #1537
	bics	r0, r1
	ldr	r1, [sp, #16]
	str	r0, [r1, #64]
.Ltmp249:
	.loc	7 1064 9                        @ ../ThirdParty/STM32F4xx_HAL_Driver/Src/stm32f4xx_hal_adc.c:1064:9
	ldr	r0, [sp, #16]
	ldr	r0, [r0]
	ldr	r0, [r0, #4]
.Ltmp250:
	.loc	7 1064 9 is_stmt 0              @ ../ThirdParty/STM32F4xx_HAL_Driver/Src/stm32f4xx_hal_adc.c:1064:9
	lsls	r0, r0, #21
	cmp	r0, #0
	bpl	.LBB15_13
	b	.LBB15_12
.LBB15_12:
.Ltmp251:
	.loc	7 1066 7 is_stmt 1              @ ../ThirdParty/STM32F4xx_HAL_Driver/Src/stm32f4xx_hal_adc.c:1066:7
	ldr	r0, [sp, #16]
	ldr	r0, [r0, #64]
	orr	r0, r0, #4096
	bic	r0, r0, #8192
	ldr	r1, [sp, #16]
	str	r0, [r1, #64]
	.loc	7 1067 5                        @ ../ThirdParty/STM32F4xx_HAL_Driver/Src/stm32f4xx_hal_adc.c:1067:5
	b	.LBB15_13
.Ltmp252:
.LBB15_13:
	.loc	7 1070 9                        @ ../ThirdParty/STM32F4xx_HAL_Driver/Src/stm32f4xx_hal_adc.c:1070:9
	ldr	r0, [sp, #16]
	ldr	r0, [r0, #64]
.Ltmp253:
	.loc	7 1070 9 is_stmt 0              @ ../ThirdParty/STM32F4xx_HAL_Driver/Src/stm32f4xx_hal_adc.c:1070:9
	lsls	r0, r0, #19
	cmp	r0, #0
	bpl	.LBB15_15
	b	.LBB15_14
.LBB15_14:
.Ltmp254:
	.loc	7 1073 7 is_stmt 1              @ ../ThirdParty/STM32F4xx_HAL_Driver/Src/stm32f4xx_hal_adc.c:1073:7
	ldr	r1, [sp, #16]
	ldr	r0, [r1, #68]
	bic	r0, r0, #6
	str	r0, [r1, #68]
	.loc	7 1074 5                        @ ../ThirdParty/STM32F4xx_HAL_Driver/Src/stm32f4xx_hal_adc.c:1074:5
	b	.LBB15_16
.Ltmp255:
.LBB15_15:
	.loc	7 1078 7                        @ ../ThirdParty/STM32F4xx_HAL_Driver/Src/stm32f4xx_hal_adc.c:1078:7
	ldr	r1, [sp, #16]
	movs	r0, #0
	str	r0, [r1, #68]
	b	.LBB15_16
.Ltmp256:
.LBB15_16:
	.loc	7 1084 5                        @ ../ThirdParty/STM32F4xx_HAL_Driver/Src/stm32f4xx_hal_adc.c:1084:5
	b	.LBB15_17
.LBB15_17:
.Ltmp257:
	.loc	7 1084 5 is_stmt 0              @ ../ThirdParty/STM32F4xx_HAL_Driver/Src/stm32f4xx_hal_adc.c:1084:5
	ldr	r1, [sp, #16]
	movs	r0, #0
	strb.w	r0, [r1, #60]
	b	.LBB15_18
.Ltmp258:
.LBB15_18:
	.loc	7 0 5                           @ ../ThirdParty/STM32F4xx_HAL_Driver/Src/stm32f4xx_hal_adc.c:0:5
	movw	r0, #8960
	movt	r0, #16385
	.loc	7 1089 19 is_stmt 1             @ ../ThirdParty/STM32F4xx_HAL_Driver/Src/stm32f4xx_hal_adc.c:1089:19
	str	r0, [sp]
	.loc	7 1092 5                        @ ../ThirdParty/STM32F4xx_HAL_Driver/Src/stm32f4xx_hal_adc.c:1092:5
	ldr	r0, [sp, #16]
	.loc	7 1092 11 is_stmt 0             @ ../ThirdParty/STM32F4xx_HAL_Driver/Src/stm32f4xx_hal_adc.c:1092:11
	ldr	r1, [r0, #56]
	.loc	7 1092 40                       @ ../ThirdParty/STM32F4xx_HAL_Driver/Src/stm32f4xx_hal_adc.c:1092:40
	movw	r0, :lower16:ADC_DMAConvCplt
	movt	r0, :upper16:ADC_DMAConvCplt
	str	r0, [r1, #60]
	.loc	7 1095 5 is_stmt 1              @ ../ThirdParty/STM32F4xx_HAL_Driver/Src/stm32f4xx_hal_adc.c:1095:5
	ldr	r0, [sp, #16]
	.loc	7 1095 11 is_stmt 0             @ ../ThirdParty/STM32F4xx_HAL_Driver/Src/stm32f4xx_hal_adc.c:1095:11
	ldr	r1, [r0, #56]
	.loc	7 1095 44                       @ ../ThirdParty/STM32F4xx_HAL_Driver/Src/stm32f4xx_hal_adc.c:1095:44
	movw	r0, :lower16:ADC_DMAHalfConvCplt
	movt	r0, :upper16:ADC_DMAHalfConvCplt
	str	r0, [r1, #64]
	.loc	7 1098 5 is_stmt 1              @ ../ThirdParty/STM32F4xx_HAL_Driver/Src/stm32f4xx_hal_adc.c:1098:5
	ldr	r0, [sp, #16]
	.loc	7 1098 11 is_stmt 0             @ ../ThirdParty/STM32F4xx_HAL_Driver/Src/stm32f4xx_hal_adc.c:1098:11
	ldr	r1, [r0, #56]
	.loc	7 1098 41                       @ ../ThirdParty/STM32F4xx_HAL_Driver/Src/stm32f4xx_hal_adc.c:1098:41
	movw	r0, :lower16:ADC_DMAError
	movt	r0, :upper16:ADC_DMAError
	str	r0, [r1, #76]
	.loc	7 1106 5 is_stmt 1              @ ../ThirdParty/STM32F4xx_HAL_Driver/Src/stm32f4xx_hal_adc.c:1106:5
	ldr	r0, [sp, #16]
	ldr	r1, [r0]
	mvn	r0, #34
	str	r0, [r1]
	.loc	7 1109 5                        @ ../ThirdParty/STM32F4xx_HAL_Driver/Src/stm32f4xx_hal_adc.c:1109:5
	ldr	r0, [sp, #16]
	ldr	r1, [r0]
	ldr	r0, [r1, #4]
	orr	r0, r0, #67108864
	str	r0, [r1, #4]
	.loc	7 1112 5                        @ ../ThirdParty/STM32F4xx_HAL_Driver/Src/stm32f4xx_hal_adc.c:1112:5
	ldr	r0, [sp, #16]
	.loc	7 1112 11 is_stmt 0             @ ../ThirdParty/STM32F4xx_HAL_Driver/Src/stm32f4xx_hal_adc.c:1112:11
	ldr	r1, [r0]
	.loc	7 1112 25                       @ ../ThirdParty/STM32F4xx_HAL_Driver/Src/stm32f4xx_hal_adc.c:1112:25
	ldr	r0, [r1, #8]
	orr	r0, r0, #256
	str	r0, [r1, #8]
	.loc	7 1115 22 is_stmt 1             @ ../ThirdParty/STM32F4xx_HAL_Driver/Src/stm32f4xx_hal_adc.c:1115:22
	ldr	r0, [sp, #16]
	.loc	7 1115 57 is_stmt 0             @ ../ThirdParty/STM32F4xx_HAL_Driver/Src/stm32f4xx_hal_adc.c:1115:57
	ldr	r1, [r0]
	.loc	7 1115 28                       @ ../ThirdParty/STM32F4xx_HAL_Driver/Src/stm32f4xx_hal_adc.c:1115:28
	ldr	r0, [r0, #56]
	.loc	7 1115 67                       @ ../ThirdParty/STM32F4xx_HAL_Driver/Src/stm32f4xx_hal_adc.c:1115:67
	adds	r1, #76
	.loc	7 1115 81                       @ ../ThirdParty/STM32F4xx_HAL_Driver/Src/stm32f4xx_hal_adc.c:1115:81
	ldr	r2, [sp, #12]
	.loc	7 1115 88                       @ ../ThirdParty/STM32F4xx_HAL_Driver/Src/stm32f4xx_hal_adc.c:1115:88
	ldr	r3, [sp, #8]
	.loc	7 1115 5                        @ ../ThirdParty/STM32F4xx_HAL_Driver/Src/stm32f4xx_hal_adc.c:1115:5
	bl	HAL_DMA_Start_IT
.Ltmp259:
	.loc	7 1118 8 is_stmt 1              @ ../ThirdParty/STM32F4xx_HAL_Driver/Src/stm32f4xx_hal_adc.c:1118:8
	ldr	r0, [sp]
	ldr	r0, [r0, #4]
.Ltmp260:
	.loc	7 1118 8 is_stmt 0              @ ../ThirdParty/STM32F4xx_HAL_Driver/Src/stm32f4xx_hal_adc.c:1118:8
	lsls	r0, r0, #27
	cbnz	r0, .LBB15_22
	b	.LBB15_19
.LBB15_19:
.Ltmp261:
	.loc	7 1121 11 is_stmt 1             @ ../ThirdParty/STM32F4xx_HAL_Driver/Src/stm32f4xx_hal_adc.c:1121:11
	ldr	r0, [sp, #16]
	.loc	7 1121 17 is_stmt 0             @ ../ThirdParty/STM32F4xx_HAL_Driver/Src/stm32f4xx_hal_adc.c:1121:17
	ldr	r0, [r0]
	.loc	7 1121 27                       @ ../ThirdParty/STM32F4xx_HAL_Driver/Src/stm32f4xx_hal_adc.c:1121:27
	ldr	r0, [r0, #8]
.Ltmp262:
	.loc	7 1121 10                       @ ../ThirdParty/STM32F4xx_HAL_Driver/Src/stm32f4xx_hal_adc.c:1121:10
	tst.w	r0, #805306368
	bne	.LBB15_21
	b	.LBB15_20
.LBB15_20:
.Ltmp263:
	.loc	7 1124 9 is_stmt 1              @ ../ThirdParty/STM32F4xx_HAL_Driver/Src/stm32f4xx_hal_adc.c:1124:9
	ldr	r0, [sp, #16]
	.loc	7 1124 15 is_stmt 0             @ ../ThirdParty/STM32F4xx_HAL_Driver/Src/stm32f4xx_hal_adc.c:1124:15
	ldr	r1, [r0]
	.loc	7 1124 29                       @ ../ThirdParty/STM32F4xx_HAL_Driver/Src/stm32f4xx_hal_adc.c:1124:29
	ldr	r0, [r1, #8]
	orr	r0, r0, #1073741824
	str	r0, [r1, #8]
	.loc	7 1125 7 is_stmt 1              @ ../ThirdParty/STM32F4xx_HAL_Driver/Src/stm32f4xx_hal_adc.c:1125:7
	b	.LBB15_21
.Ltmp264:
.LBB15_21:
	.loc	7 1126 5                        @ ../ThirdParty/STM32F4xx_HAL_Driver/Src/stm32f4xx_hal_adc.c:1126:5
	b	.LBB15_26
.Ltmp265:
.LBB15_22:
	.loc	7 1130 11                       @ ../ThirdParty/STM32F4xx_HAL_Driver/Src/stm32f4xx_hal_adc.c:1130:11
	ldr	r0, [sp, #16]
	.loc	7 1130 17 is_stmt 0             @ ../ThirdParty/STM32F4xx_HAL_Driver/Src/stm32f4xx_hal_adc.c:1130:17
	ldr	r0, [r0]
	movw	r1, #8192
	movt	r1, #16385
	.loc	7 1130 35                       @ ../ThirdParty/STM32F4xx_HAL_Driver/Src/stm32f4xx_hal_adc.c:1130:35
	cmp	r0, r1
	bne	.LBB15_25
	b	.LBB15_23
.LBB15_23:
	.loc	7 1130 40                       @ ../ThirdParty/STM32F4xx_HAL_Driver/Src/stm32f4xx_hal_adc.c:1130:40
	ldr	r0, [sp, #16]
	.loc	7 1130 46                       @ ../ThirdParty/STM32F4xx_HAL_Driver/Src/stm32f4xx_hal_adc.c:1130:46
	ldr	r0, [r0]
	.loc	7 1130 56                       @ ../ThirdParty/STM32F4xx_HAL_Driver/Src/stm32f4xx_hal_adc.c:1130:56
	ldr	r0, [r0, #8]
.Ltmp266:
	.loc	7 1130 10                       @ ../ThirdParty/STM32F4xx_HAL_Driver/Src/stm32f4xx_hal_adc.c:1130:10
	tst.w	r0, #805306368
	bne	.LBB15_25
	b	.LBB15_24
.LBB15_24:
.Ltmp267:
	.loc	7 1133 11 is_stmt 1             @ ../ThirdParty/STM32F4xx_HAL_Driver/Src/stm32f4xx_hal_adc.c:1133:11
	ldr	r0, [sp, #16]
	.loc	7 1133 17 is_stmt 0             @ ../ThirdParty/STM32F4xx_HAL_Driver/Src/stm32f4xx_hal_adc.c:1133:17
	ldr	r1, [r0]
	.loc	7 1133 31                       @ ../ThirdParty/STM32F4xx_HAL_Driver/Src/stm32f4xx_hal_adc.c:1133:31
	ldr	r0, [r1, #8]
	orr	r0, r0, #1073741824
	str	r0, [r1, #8]
	.loc	7 1134 7 is_stmt 1              @ ../ThirdParty/STM32F4xx_HAL_Driver/Src/stm32f4xx_hal_adc.c:1134:7
	b	.LBB15_25
.Ltmp268:
.LBB15_25:
	.loc	7 0 7 is_stmt 0                 @ ../ThirdParty/STM32F4xx_HAL_Driver/Src/stm32f4xx_hal_adc.c:0:7
	b	.LBB15_26
.LBB15_26:
	.loc	7 1136 3 is_stmt 1              @ ../ThirdParty/STM32F4xx_HAL_Driver/Src/stm32f4xx_hal_adc.c:1136:3
	b	.LBB15_27
.Ltmp269:
.LBB15_27:
	.loc	7 0 3 is_stmt 0                 @ ../ThirdParty/STM32F4xx_HAL_Driver/Src/stm32f4xx_hal_adc.c:0:3
	movs	r0, #0
	.loc	7 1139 3 is_stmt 1              @ ../ThirdParty/STM32F4xx_HAL_Driver/Src/stm32f4xx_hal_adc.c:1139:3
	strb.w	r0, [sp, #23]
	b	.LBB15_28
.LBB15_28:
	.loc	7 1140 1                        @ ../ThirdParty/STM32F4xx_HAL_Driver/Src/stm32f4xx_hal_adc.c:1140:1
	ldrb.w	r0, [sp, #23]
	.loc	7 1140 1 epilogue_begin is_stmt 0 @ ../ThirdParty/STM32F4xx_HAL_Driver/Src/stm32f4xx_hal_adc.c:1140:1
	add	sp, #24
	pop	{r7, pc}
.Ltmp270:
.Lfunc_end15:
	.size	HAL_ADC_Start_DMA, .Lfunc_end15-HAL_ADC_Start_DMA
	.cfi_endproc
	.cantunwind
	.fnend
                                        @ -- End function
	.section	.text.ADC_DMAConvCplt,"ax",%progbits
	.p2align	2                               @ -- Begin function ADC_DMAConvCplt
	.type	ADC_DMAConvCplt,%function
	.code	16                              @ @ADC_DMAConvCplt
	.thumb_func
ADC_DMAConvCplt:
.Lfunc_begin16:
	.loc	7 1610 0 is_stmt 1              @ ../ThirdParty/STM32F4xx_HAL_Driver/Src/stm32f4xx_hal_adc.c:1610:0
	.fnstart
	.cfi_startproc
@ %bb.0:
	.save	{r7, lr}
	push	{r7, lr}
	.cfi_def_cfa_offset 8
	.cfi_offset lr, -4
	.cfi_offset r7, -8
	.pad	#8
	sub	sp, #8
	.cfi_def_cfa_offset 16
	str	r0, [sp, #4]
.Ltmp271:
	.loc	7 1612 73 prologue_end          @ ../ThirdParty/STM32F4xx_HAL_Driver/Src/stm32f4xx_hal_adc.c:1612:73
	ldr	r0, [sp, #4]
	.loc	7 1612 80 is_stmt 0             @ ../ThirdParty/STM32F4xx_HAL_Driver/Src/stm32f4xx_hal_adc.c:1612:80
	ldr	r0, [r0, #56]
	.loc	7 1612 22                       @ ../ThirdParty/STM32F4xx_HAL_Driver/Src/stm32f4xx_hal_adc.c:1612:22
	str	r0, [sp]
.Ltmp272:
	.loc	7 1615 7 is_stmt 1              @ ../ThirdParty/STM32F4xx_HAL_Driver/Src/stm32f4xx_hal_adc.c:1615:7
	ldr	r0, [sp]
	ldr	r0, [r0, #64]
.Ltmp273:
	.loc	7 1615 7 is_stmt 0              @ ../ThirdParty/STM32F4xx_HAL_Driver/Src/stm32f4xx_hal_adc.c:1615:7
	tst.w	r0, #80
	bne	.LBB16_9
	b	.LBB16_1
.LBB16_1:
.Ltmp274:
	.loc	7 1618 5 is_stmt 1              @ ../ThirdParty/STM32F4xx_HAL_Driver/Src/stm32f4xx_hal_adc.c:1618:5
	ldr	r1, [sp]
	ldr	r0, [r1, #64]
	orr	r0, r0, #512
	str	r0, [r1, #64]
.Ltmp275:
	.loc	7 1626 8                        @ ../ThirdParty/STM32F4xx_HAL_Driver/Src/stm32f4xx_hal_adc.c:1626:8
	ldr	r0, [sp]
	ldr	r0, [r0]
	ldr	r0, [r0, #8]
	.loc	7 1626 62 is_stmt 0             @ ../ThirdParty/STM32F4xx_HAL_Driver/Src/stm32f4xx_hal_adc.c:1626:62
	tst.w	r0, #805306368
	bne	.LBB16_8
	b	.LBB16_2
.LBB16_2:
	.loc	7 1627 9 is_stmt 1              @ ../ThirdParty/STM32F4xx_HAL_Driver/Src/stm32f4xx_hal_adc.c:1627:9
	ldr	r0, [sp]
	.loc	7 1627 20 is_stmt 0             @ ../ThirdParty/STM32F4xx_HAL_Driver/Src/stm32f4xx_hal_adc.c:1627:20
	ldr	r0, [r0, #24]
	.loc	7 1627 62                       @ ../ThirdParty/STM32F4xx_HAL_Driver/Src/stm32f4xx_hal_adc.c:1627:62
	cbnz	r0, .LBB16_8
	b	.LBB16_3
.LBB16_3:
	.loc	7 1628 9 is_stmt 1              @ ../ThirdParty/STM32F4xx_HAL_Driver/Src/stm32f4xx_hal_adc.c:1628:9
	ldr	r0, [sp]
	ldr	r0, [r0]
	ldr	r0, [r0, #44]
	.loc	7 1628 58 is_stmt 0             @ ../ThirdParty/STM32F4xx_HAL_Driver/Src/stm32f4xx_hal_adc.c:1628:58
	tst.w	r0, #15728640
	beq	.LBB16_5
	b	.LBB16_4
.LBB16_4:
	.loc	7 1629 9 is_stmt 1              @ ../ThirdParty/STM32F4xx_HAL_Driver/Src/stm32f4xx_hal_adc.c:1629:9
	ldr	r0, [sp]
	ldr	r0, [r0]
	ldr	r0, [r0, #8]
.Ltmp276:
	.loc	7 1626 8                        @ ../ThirdParty/STM32F4xx_HAL_Driver/Src/stm32f4xx_hal_adc.c:1626:8
	lsls	r0, r0, #21
	cmp	r0, #0
	bmi	.LBB16_8
	b	.LBB16_5
.LBB16_5:
.Ltmp277:
	.loc	7 1635 7                        @ ../ThirdParty/STM32F4xx_HAL_Driver/Src/stm32f4xx_hal_adc.c:1635:7
	ldr	r0, [sp]
	ldr	r1, [r0]
	ldr	r0, [r1, #4]
	bic	r0, r0, #32
	str	r0, [r1, #4]
	.loc	7 1638 7                        @ ../ThirdParty/STM32F4xx_HAL_Driver/Src/stm32f4xx_hal_adc.c:1638:7
	ldr	r1, [sp]
	ldr	r0, [r1, #64]
	bic	r0, r0, #256
	str	r0, [r1, #64]
.Ltmp278:
	.loc	7 1640 11                       @ ../ThirdParty/STM32F4xx_HAL_Driver/Src/stm32f4xx_hal_adc.c:1640:11
	ldr	r0, [sp]
	ldr	r0, [r0, #64]
.Ltmp279:
	.loc	7 1640 11 is_stmt 0             @ ../ThirdParty/STM32F4xx_HAL_Driver/Src/stm32f4xx_hal_adc.c:1640:11
	lsls	r0, r0, #19
	cmp	r0, #0
	bmi	.LBB16_7
	b	.LBB16_6
.LBB16_6:
.Ltmp280:
	.loc	7 1642 9 is_stmt 1              @ ../ThirdParty/STM32F4xx_HAL_Driver/Src/stm32f4xx_hal_adc.c:1642:9
	ldr	r1, [sp]
	ldr	r0, [r1, #64]
	orr	r0, r0, #1
	str	r0, [r1, #64]
	.loc	7 1643 7                        @ ../ThirdParty/STM32F4xx_HAL_Driver/Src/stm32f4xx_hal_adc.c:1643:7
	b	.LBB16_7
.Ltmp281:
.LBB16_7:
	.loc	7 1644 5                        @ ../ThirdParty/STM32F4xx_HAL_Driver/Src/stm32f4xx_hal_adc.c:1644:5
	b	.LBB16_8
.Ltmp282:
.LBB16_8:
	.loc	7 1647 30                       @ ../ThirdParty/STM32F4xx_HAL_Driver/Src/stm32f4xx_hal_adc.c:1647:30
	ldr	r0, [sp]
	.loc	7 1647 5 is_stmt 0              @ ../ThirdParty/STM32F4xx_HAL_Driver/Src/stm32f4xx_hal_adc.c:1647:5
	bl	HAL_ADC_ConvCpltCallback
	.loc	7 1648 3 is_stmt 1              @ ../ThirdParty/STM32F4xx_HAL_Driver/Src/stm32f4xx_hal_adc.c:1648:3
	b	.LBB16_10
.Ltmp283:
.LBB16_9:
	.loc	7 1652 5                        @ ../ThirdParty/STM32F4xx_HAL_Driver/Src/stm32f4xx_hal_adc.c:1652:5
	ldr	r0, [sp]
	.loc	7 1652 11 is_stmt 0             @ ../ThirdParty/STM32F4xx_HAL_Driver/Src/stm32f4xx_hal_adc.c:1652:11
	ldr	r0, [r0, #56]
	.loc	7 1652 23                       @ ../ThirdParty/STM32F4xx_HAL_Driver/Src/stm32f4xx_hal_adc.c:1652:23
	ldr	r1, [r0, #76]
	.loc	7 1652 41                       @ ../ThirdParty/STM32F4xx_HAL_Driver/Src/stm32f4xx_hal_adc.c:1652:41
	ldr	r0, [sp, #4]
	.loc	7 1652 5                        @ ../ThirdParty/STM32F4xx_HAL_Driver/Src/stm32f4xx_hal_adc.c:1652:5
	blx	r1
	b	.LBB16_10
.Ltmp284:
.LBB16_10:
	.loc	7 1654 1 epilogue_begin is_stmt 1 @ ../ThirdParty/STM32F4xx_HAL_Driver/Src/stm32f4xx_hal_adc.c:1654:1
	add	sp, #8
	pop	{r7, pc}
.Ltmp285:
.Lfunc_end16:
	.size	ADC_DMAConvCplt, .Lfunc_end16-ADC_DMAConvCplt
	.cfi_endproc
	.cantunwind
	.fnend
                                        @ -- End function
	.section	.text.ADC_DMAHalfConvCplt,"ax",%progbits
	.p2align	2                               @ -- Begin function ADC_DMAHalfConvCplt
	.type	ADC_DMAHalfConvCplt,%function
	.code	16                              @ @ADC_DMAHalfConvCplt
	.thumb_func
ADC_DMAHalfConvCplt:
.Lfunc_begin17:
	.loc	7 1663 0                        @ ../ThirdParty/STM32F4xx_HAL_Driver/Src/stm32f4xx_hal_adc.c:1663:0
	.fnstart
	.cfi_startproc
@ %bb.0:
	.save	{r7, lr}
	push	{r7, lr}
	.cfi_def_cfa_offset 8
	.cfi_offset lr, -4
	.cfi_offset r7, -8
	.pad	#8
	sub	sp, #8
	.cfi_def_cfa_offset 16
	str	r0, [sp, #4]
.Ltmp286:
	.loc	7 1664 73 prologue_end          @ ../ThirdParty/STM32F4xx_HAL_Driver/Src/stm32f4xx_hal_adc.c:1664:73
	ldr	r0, [sp, #4]
	.loc	7 1664 80 is_stmt 0             @ ../ThirdParty/STM32F4xx_HAL_Driver/Src/stm32f4xx_hal_adc.c:1664:80
	ldr	r0, [r0, #56]
	.loc	7 1664 22                       @ ../ThirdParty/STM32F4xx_HAL_Driver/Src/stm32f4xx_hal_adc.c:1664:22
	str	r0, [sp]
	.loc	7 1666 32 is_stmt 1             @ ../ThirdParty/STM32F4xx_HAL_Driver/Src/stm32f4xx_hal_adc.c:1666:32
	ldr	r0, [sp]
	.loc	7 1666 3 is_stmt 0              @ ../ThirdParty/STM32F4xx_HAL_Driver/Src/stm32f4xx_hal_adc.c:1666:3
	bl	HAL_ADC_ConvHalfCpltCallback
	.loc	7 1667 1 epilogue_begin is_stmt 1 @ ../ThirdParty/STM32F4xx_HAL_Driver/Src/stm32f4xx_hal_adc.c:1667:1
	add	sp, #8
	pop	{r7, pc}
.Ltmp287:
.Lfunc_end17:
	.size	ADC_DMAHalfConvCplt, .Lfunc_end17-ADC_DMAHalfConvCplt
	.cfi_endproc
	.cantunwind
	.fnend
                                        @ -- End function
	.section	.text.ADC_DMAError,"ax",%progbits
	.p2align	2                               @ -- Begin function ADC_DMAError
	.type	ADC_DMAError,%function
	.code	16                              @ @ADC_DMAError
	.thumb_func
ADC_DMAError:
.Lfunc_begin18:
	.loc	7 1676 0                        @ ../ThirdParty/STM32F4xx_HAL_Driver/Src/stm32f4xx_hal_adc.c:1676:0
	.fnstart
	.cfi_startproc
@ %bb.0:
	.save	{r7, lr}
	push	{r7, lr}
	.cfi_def_cfa_offset 8
	.cfi_offset lr, -4
	.cfi_offset r7, -8
	.pad	#8
	sub	sp, #8
	.cfi_def_cfa_offset 16
	str	r0, [sp, #4]
.Ltmp288:
	.loc	7 1677 73 prologue_end          @ ../ThirdParty/STM32F4xx_HAL_Driver/Src/stm32f4xx_hal_adc.c:1677:73
	ldr	r0, [sp, #4]
	.loc	7 1677 80 is_stmt 0             @ ../ThirdParty/STM32F4xx_HAL_Driver/Src/stm32f4xx_hal_adc.c:1677:80
	ldr	r0, [r0, #56]
	.loc	7 1677 22                       @ ../ThirdParty/STM32F4xx_HAL_Driver/Src/stm32f4xx_hal_adc.c:1677:22
	str	r0, [sp]
	.loc	7 1678 3 is_stmt 1              @ ../ThirdParty/STM32F4xx_HAL_Driver/Src/stm32f4xx_hal_adc.c:1678:3
	ldr	r1, [sp]
	movs	r0, #64
	.loc	7 1678 14 is_stmt 0             @ ../ThirdParty/STM32F4xx_HAL_Driver/Src/stm32f4xx_hal_adc.c:1678:14
	str	r0, [r1, #64]
	.loc	7 1680 3 is_stmt 1              @ ../ThirdParty/STM32F4xx_HAL_Driver/Src/stm32f4xx_hal_adc.c:1680:3
	ldr	r1, [sp]
	.loc	7 1680 19 is_stmt 0             @ ../ThirdParty/STM32F4xx_HAL_Driver/Src/stm32f4xx_hal_adc.c:1680:19
	ldr	r0, [r1, #68]
	orr	r0, r0, #4
	str	r0, [r1, #68]
	.loc	7 1681 25 is_stmt 1             @ ../ThirdParty/STM32F4xx_HAL_Driver/Src/stm32f4xx_hal_adc.c:1681:25
	ldr	r0, [sp]
	.loc	7 1681 3 is_stmt 0              @ ../ThirdParty/STM32F4xx_HAL_Driver/Src/stm32f4xx_hal_adc.c:1681:3
	bl	HAL_ADC_ErrorCallback
	.loc	7 1682 1 epilogue_begin is_stmt 1 @ ../ThirdParty/STM32F4xx_HAL_Driver/Src/stm32f4xx_hal_adc.c:1682:1
	add	sp, #8
	pop	{r7, pc}
.Ltmp289:
.Lfunc_end18:
	.size	ADC_DMAError, .Lfunc_end18-ADC_DMAError
	.cfi_endproc
	.cantunwind
	.fnend
                                        @ -- End function
	.section	.text.HAL_ADC_Stop_DMA,"ax",%progbits
	.hidden	HAL_ADC_Stop_DMA                @ -- Begin function HAL_ADC_Stop_DMA
	.globl	HAL_ADC_Stop_DMA
	.p2align	2
	.type	HAL_ADC_Stop_DMA,%function
	.code	16                              @ @HAL_ADC_Stop_DMA
	.thumb_func
HAL_ADC_Stop_DMA:
.Lfunc_begin19:
	.loc	7 1149 0                        @ ../ThirdParty/STM32F4xx_HAL_Driver/Src/stm32f4xx_hal_adc.c:1149:0
	.fnstart
	.cfi_startproc
@ %bb.0:
	.save	{r7, lr}
	push	{r7, lr}
	.cfi_def_cfa_offset 8
	.cfi_offset lr, -4
	.cfi_offset r7, -8
	.pad	#16
	sub	sp, #16
	.cfi_def_cfa_offset 24
	str	r0, [sp, #8]
	movs	r0, #0
.Ltmp290:
	.loc	7 1150 21 prologue_end          @ ../ThirdParty/STM32F4xx_HAL_Driver/Src/stm32f4xx_hal_adc.c:1150:21
	strb.w	r0, [sp, #7]
	.loc	7 1156 3                        @ ../ThirdParty/STM32F4xx_HAL_Driver/Src/stm32f4xx_hal_adc.c:1156:3
	b	.LBB19_1
.LBB19_1:
.Ltmp291:
	.loc	7 1156 3 is_stmt 0              @ ../ThirdParty/STM32F4xx_HAL_Driver/Src/stm32f4xx_hal_adc.c:1156:3
	ldr	r0, [sp, #8]
	ldrb.w	r0, [r0, #60]
.Ltmp292:
	.loc	7 1156 3                        @ ../ThirdParty/STM32F4xx_HAL_Driver/Src/stm32f4xx_hal_adc.c:1156:3
	cmp	r0, #1
	bne	.LBB19_3
	b	.LBB19_2
.LBB19_2:
	.loc	7 0 3                           @ ../ThirdParty/STM32F4xx_HAL_Driver/Src/stm32f4xx_hal_adc.c:0:3
	movs	r0, #2
.Ltmp293:
	.loc	7 1156 3                        @ ../ThirdParty/STM32F4xx_HAL_Driver/Src/stm32f4xx_hal_adc.c:1156:3
	strb.w	r0, [sp, #15]
	b	.LBB19_10
.Ltmp294:
.LBB19_3:
	.loc	7 1156 3                        @ ../ThirdParty/STM32F4xx_HAL_Driver/Src/stm32f4xx_hal_adc.c:1156:3
	ldr	r1, [sp, #8]
	movs	r0, #1
	strb.w	r0, [r1, #60]
	b	.LBB19_4
.Ltmp295:
.LBB19_4:
	.loc	7 1156 3                        @ ../ThirdParty/STM32F4xx_HAL_Driver/Src/stm32f4xx_hal_adc.c:1156:3
	b	.LBB19_5
.Ltmp296:
.LBB19_5:
	.loc	7 1160 3 is_stmt 1              @ ../ThirdParty/STM32F4xx_HAL_Driver/Src/stm32f4xx_hal_adc.c:1160:3
	ldr	r0, [sp, #8]
	ldr	r1, [r0]
	ldr	r0, [r1, #8]
	bic	r0, r0, #1
	str	r0, [r1, #8]
.Ltmp297:
	.loc	7 1163 6                        @ ../ThirdParty/STM32F4xx_HAL_Driver/Src/stm32f4xx_hal_adc.c:1163:6
	ldr	r0, [sp, #8]
	ldr	r0, [r0]
	ldr	r0, [r0, #8]
.Ltmp298:
	.loc	7 1163 6 is_stmt 0              @ ../ThirdParty/STM32F4xx_HAL_Driver/Src/stm32f4xx_hal_adc.c:1163:6
	lsls	r0, r0, #31
	cbnz	r0, .LBB19_7
	b	.LBB19_6
.LBB19_6:
.Ltmp299:
	.loc	7 1166 5 is_stmt 1              @ ../ThirdParty/STM32F4xx_HAL_Driver/Src/stm32f4xx_hal_adc.c:1166:5
	ldr	r0, [sp, #8]
	.loc	7 1166 11 is_stmt 0             @ ../ThirdParty/STM32F4xx_HAL_Driver/Src/stm32f4xx_hal_adc.c:1166:11
	ldr	r1, [r0]
	.loc	7 1166 25                       @ ../ThirdParty/STM32F4xx_HAL_Driver/Src/stm32f4xx_hal_adc.c:1166:25
	ldr	r0, [r1, #8]
	bic	r0, r0, #256
	str	r0, [r1, #8]
	.loc	7 1170 36 is_stmt 1             @ ../ThirdParty/STM32F4xx_HAL_Driver/Src/stm32f4xx_hal_adc.c:1170:36
	ldr	r0, [sp, #8]
	.loc	7 1170 42 is_stmt 0             @ ../ThirdParty/STM32F4xx_HAL_Driver/Src/stm32f4xx_hal_adc.c:1170:42
	ldr	r0, [r0, #56]
	.loc	7 1170 22                       @ ../ThirdParty/STM32F4xx_HAL_Driver/Src/stm32f4xx_hal_adc.c:1170:22
	bl	HAL_DMA_Abort
	.loc	7 1170 20                       @ ../ThirdParty/STM32F4xx_HAL_Driver/Src/stm32f4xx_hal_adc.c:1170:20
	strb.w	r0, [sp, #7]
	.loc	7 1173 5 is_stmt 1              @ ../ThirdParty/STM32F4xx_HAL_Driver/Src/stm32f4xx_hal_adc.c:1173:5
	ldr	r0, [sp, #8]
	ldr	r1, [r0]
	ldr	r0, [r1, #4]
	bic	r0, r0, #67108864
	str	r0, [r1, #4]
	.loc	7 1176 5                        @ ../ThirdParty/STM32F4xx_HAL_Driver/Src/stm32f4xx_hal_adc.c:1176:5
	ldr	r0, [sp, #8]
	ldr	r0, [r0, #64]
	orr	r0, r0, #1
	bic	r0, r0, #4352
	ldr	r1, [sp, #8]
	str	r0, [r1, #64]
	.loc	7 1179 3                        @ ../ThirdParty/STM32F4xx_HAL_Driver/Src/stm32f4xx_hal_adc.c:1179:3
	b	.LBB19_7
.Ltmp300:
.LBB19_7:
	.loc	7 1182 3                        @ ../ThirdParty/STM32F4xx_HAL_Driver/Src/stm32f4xx_hal_adc.c:1182:3
	b	.LBB19_8
.LBB19_8:
.Ltmp301:
	.loc	7 1182 3 is_stmt 0              @ ../ThirdParty/STM32F4xx_HAL_Driver/Src/stm32f4xx_hal_adc.c:1182:3
	ldr	r1, [sp, #8]
	movs	r0, #0
	strb.w	r0, [r1, #60]
	b	.LBB19_9
.Ltmp302:
.LBB19_9:
	.loc	7 1185 10 is_stmt 1             @ ../ThirdParty/STM32F4xx_HAL_Driver/Src/stm32f4xx_hal_adc.c:1185:10
	ldrb.w	r0, [sp, #7]
	.loc	7 1185 3 is_stmt 0              @ ../ThirdParty/STM32F4xx_HAL_Driver/Src/stm32f4xx_hal_adc.c:1185:3
	strb.w	r0, [sp, #15]
	b	.LBB19_10
.LBB19_10:
	.loc	7 1186 1 is_stmt 1              @ ../ThirdParty/STM32F4xx_HAL_Driver/Src/stm32f4xx_hal_adc.c:1186:1
	ldrb.w	r0, [sp, #15]
	.loc	7 1186 1 epilogue_begin is_stmt 0 @ ../ThirdParty/STM32F4xx_HAL_Driver/Src/stm32f4xx_hal_adc.c:1186:1
	add	sp, #16
	pop	{r7, pc}
.Ltmp303:
.Lfunc_end19:
	.size	HAL_ADC_Stop_DMA, .Lfunc_end19-HAL_ADC_Stop_DMA
	.cfi_endproc
	.cantunwind
	.fnend
                                        @ -- End function
	.section	.text.HAL_ADC_GetValue,"ax",%progbits
	.hidden	HAL_ADC_GetValue                @ -- Begin function HAL_ADC_GetValue
	.globl	HAL_ADC_GetValue
	.p2align	2
	.type	HAL_ADC_GetValue,%function
	.code	16                              @ @HAL_ADC_GetValue
	.thumb_func
HAL_ADC_GetValue:
.Lfunc_begin20:
	.loc	7 1195 0 is_stmt 1              @ ../ThirdParty/STM32F4xx_HAL_Driver/Src/stm32f4xx_hal_adc.c:1195:0
	.fnstart
	.cfi_startproc
@ %bb.0:
	.pad	#4
	sub	sp, #4
	.cfi_def_cfa_offset 4
	str	r0, [sp]
.Ltmp304:
	.loc	7 1197 10 prologue_end          @ ../ThirdParty/STM32F4xx_HAL_Driver/Src/stm32f4xx_hal_adc.c:1197:10
	ldr	r0, [sp]
	.loc	7 1197 16 is_stmt 0             @ ../ThirdParty/STM32F4xx_HAL_Driver/Src/stm32f4xx_hal_adc.c:1197:16
	ldr	r0, [r0]
	.loc	7 1197 26                       @ ../ThirdParty/STM32F4xx_HAL_Driver/Src/stm32f4xx_hal_adc.c:1197:26
	ldr	r0, [r0, #76]
	.loc	7 1197 3 epilogue_begin         @ ../ThirdParty/STM32F4xx_HAL_Driver/Src/stm32f4xx_hal_adc.c:1197:3
	add	sp, #4
	bx	lr
.Ltmp305:
.Lfunc_end20:
	.size	HAL_ADC_GetValue, .Lfunc_end20-HAL_ADC_GetValue
	.cfi_endproc
	.cantunwind
	.fnend
                                        @ -- End function
	.section	.text.HAL_ADC_ConvHalfCpltCallback,"ax",%progbits
	.hidden	HAL_ADC_ConvHalfCpltCallback    @ -- Begin function HAL_ADC_ConvHalfCpltCallback
	.weak	HAL_ADC_ConvHalfCpltCallback
	.p2align	2
	.type	HAL_ADC_ConvHalfCpltCallback,%function
	.code	16                              @ @HAL_ADC_ConvHalfCpltCallback
	.thumb_func
HAL_ADC_ConvHalfCpltCallback:
.Lfunc_begin21:
	.loc	7 1222 0 is_stmt 1              @ ../ThirdParty/STM32F4xx_HAL_Driver/Src/stm32f4xx_hal_adc.c:1222:0
	.fnstart
	.cfi_startproc
@ %bb.0:
	.pad	#4
	sub	sp, #4
	.cfi_def_cfa_offset 4
	str	r0, [sp]
.Ltmp306:
	.loc	7 1228 1 prologue_end epilogue_begin @ ../ThirdParty/STM32F4xx_HAL_Driver/Src/stm32f4xx_hal_adc.c:1228:1
	add	sp, #4
	bx	lr
.Ltmp307:
.Lfunc_end21:
	.size	HAL_ADC_ConvHalfCpltCallback, .Lfunc_end21-HAL_ADC_ConvHalfCpltCallback
	.cfi_endproc
	.cantunwind
	.fnend
                                        @ -- End function
	.section	.text.HAL_ADC_ConfigChannel,"ax",%progbits
	.hidden	HAL_ADC_ConfigChannel           @ -- Begin function HAL_ADC_ConfigChannel
	.globl	HAL_ADC_ConfigChannel
	.p2align	2
	.type	HAL_ADC_ConfigChannel,%function
	.code	16                              @ @HAL_ADC_ConfigChannel
	.thumb_func
HAL_ADC_ConfigChannel:
.Lfunc_begin22:
	.loc	7 1296 0                        @ ../ThirdParty/STM32F4xx_HAL_Driver/Src/stm32f4xx_hal_adc.c:1296:0
	.fnstart
	.cfi_startproc
@ %bb.0:
	.pad	#20
	sub	sp, #20
	.cfi_def_cfa_offset 20
	str	r0, [sp, #12]
	str	r1, [sp, #8]
	movs	r0, #0
.Ltmp308:
	.loc	7 1297 17 prologue_end          @ ../ThirdParty/STM32F4xx_HAL_Driver/Src/stm32f4xx_hal_adc.c:1297:17
	str	r0, [sp, #4]
	.loc	7 1306 3                        @ ../ThirdParty/STM32F4xx_HAL_Driver/Src/stm32f4xx_hal_adc.c:1306:3
	b	.LBB22_1
.LBB22_1:
.Ltmp309:
	.loc	7 1306 3 is_stmt 0              @ ../ThirdParty/STM32F4xx_HAL_Driver/Src/stm32f4xx_hal_adc.c:1306:3
	ldr	r0, [sp, #12]
	ldrb.w	r0, [r0, #60]
.Ltmp310:
	.loc	7 1306 3                        @ ../ThirdParty/STM32F4xx_HAL_Driver/Src/stm32f4xx_hal_adc.c:1306:3
	cmp	r0, #1
	bne	.LBB22_3
	b	.LBB22_2
.LBB22_2:
	.loc	7 0 3                           @ ../ThirdParty/STM32F4xx_HAL_Driver/Src/stm32f4xx_hal_adc.c:0:3
	movs	r0, #2
.Ltmp311:
	.loc	7 1306 3                        @ ../ThirdParty/STM32F4xx_HAL_Driver/Src/stm32f4xx_hal_adc.c:1306:3
	strb.w	r0, [sp, #19]
	b	.LBB22_29
.Ltmp312:
.LBB22_3:
	.loc	7 1306 3                        @ ../ThirdParty/STM32F4xx_HAL_Driver/Src/stm32f4xx_hal_adc.c:1306:3
	ldr	r1, [sp, #12]
	movs	r0, #1
	strb.w	r0, [r1, #60]
	b	.LBB22_4
.Ltmp313:
.LBB22_4:
	.loc	7 1306 3                        @ ../ThirdParty/STM32F4xx_HAL_Driver/Src/stm32f4xx_hal_adc.c:1306:3
	b	.LBB22_5
.Ltmp314:
.LBB22_5:
	.loc	7 1309 7 is_stmt 1              @ ../ThirdParty/STM32F4xx_HAL_Driver/Src/stm32f4xx_hal_adc.c:1309:7
	ldr	r0, [sp, #8]
	.loc	7 1309 16 is_stmt 0             @ ../ThirdParty/STM32F4xx_HAL_Driver/Src/stm32f4xx_hal_adc.c:1309:16
	ldr	r0, [r0]
.Ltmp315:
	.loc	7 1309 7                        @ ../ThirdParty/STM32F4xx_HAL_Driver/Src/stm32f4xx_hal_adc.c:1309:7
	cmp	r0, #10
	blo	.LBB22_7
	b	.LBB22_6
.LBB22_6:
.Ltmp316:
	.loc	7 1312 31 is_stmt 1             @ ../ThirdParty/STM32F4xx_HAL_Driver/Src/stm32f4xx_hal_adc.c:1312:31
	ldr	r0, [sp, #8]
	ldrh	r0, [r0]
	add.w	r0, r0, r0, lsl #1
	sub.w	r1, r0, #30
	movs	r0, #7
	lsl.w	r2, r0, r1
	.loc	7 1312 5 is_stmt 0              @ ../ThirdParty/STM32F4xx_HAL_Driver/Src/stm32f4xx_hal_adc.c:1312:5
	ldr	r0, [sp, #12]
	.loc	7 1312 11                       @ ../ThirdParty/STM32F4xx_HAL_Driver/Src/stm32f4xx_hal_adc.c:1312:11
	ldr	r1, [r0]
	.loc	7 1312 27                       @ ../ThirdParty/STM32F4xx_HAL_Driver/Src/stm32f4xx_hal_adc.c:1312:27
	ldr	r0, [r1, #12]
	bics	r0, r2
	str	r0, [r1, #12]
	.loc	7 1315 30 is_stmt 1             @ ../ThirdParty/STM32F4xx_HAL_Driver/Src/stm32f4xx_hal_adc.c:1315:30
	ldr	r1, [sp, #8]
	ldr	r0, [r1, #8]
	ldrh	r1, [r1]
	add.w	r1, r1, r1, lsl #1
	subs	r1, #30
	lsl.w	r2, r0, r1
	.loc	7 1315 5 is_stmt 0              @ ../ThirdParty/STM32F4xx_HAL_Driver/Src/stm32f4xx_hal_adc.c:1315:5
	ldr	r0, [sp, #12]
	.loc	7 1315 11                       @ ../ThirdParty/STM32F4xx_HAL_Driver/Src/stm32f4xx_hal_adc.c:1315:11
	ldr	r1, [r0]
	.loc	7 1315 27                       @ ../ThirdParty/STM32F4xx_HAL_Driver/Src/stm32f4xx_hal_adc.c:1315:27
	ldr	r0, [r1, #12]
	orrs	r0, r2
	str	r0, [r1, #12]
	.loc	7 1316 3 is_stmt 1              @ ../ThirdParty/STM32F4xx_HAL_Driver/Src/stm32f4xx_hal_adc.c:1316:3
	b	.LBB22_8
.Ltmp317:
.LBB22_7:
	.loc	7 1320 31                       @ ../ThirdParty/STM32F4xx_HAL_Driver/Src/stm32f4xx_hal_adc.c:1320:31
	ldr	r0, [sp, #8]
	ldrh	r0, [r0]
	add.w	r1, r0, r0, lsl #1
	movs	r0, #7
	lsl.w	r2, r0, r1
	.loc	7 1320 5 is_stmt 0              @ ../ThirdParty/STM32F4xx_HAL_Driver/Src/stm32f4xx_hal_adc.c:1320:5
	ldr	r0, [sp, #12]
	.loc	7 1320 11                       @ ../ThirdParty/STM32F4xx_HAL_Driver/Src/stm32f4xx_hal_adc.c:1320:11
	ldr	r1, [r0]
	.loc	7 1320 27                       @ ../ThirdParty/STM32F4xx_HAL_Driver/Src/stm32f4xx_hal_adc.c:1320:27
	ldr	r0, [r1, #16]
	bics	r0, r2
	str	r0, [r1, #16]
	.loc	7 1323 30 is_stmt 1             @ ../ThirdParty/STM32F4xx_HAL_Driver/Src/stm32f4xx_hal_adc.c:1323:30
	ldr	r1, [sp, #8]
	ldr	r0, [r1, #8]
	ldrh	r1, [r1]
	add.w	r1, r1, r1, lsl #1
	lsl.w	r2, r0, r1
	.loc	7 1323 5 is_stmt 0              @ ../ThirdParty/STM32F4xx_HAL_Driver/Src/stm32f4xx_hal_adc.c:1323:5
	ldr	r0, [sp, #12]
	.loc	7 1323 11                       @ ../ThirdParty/STM32F4xx_HAL_Driver/Src/stm32f4xx_hal_adc.c:1323:11
	ldr	r1, [r0]
	.loc	7 1323 27                       @ ../ThirdParty/STM32F4xx_HAL_Driver/Src/stm32f4xx_hal_adc.c:1323:27
	ldr	r0, [r1, #16]
	orrs	r0, r2
	str	r0, [r1, #16]
	b	.LBB22_8
.Ltmp318:
.LBB22_8:
	.loc	7 1327 7 is_stmt 1              @ ../ThirdParty/STM32F4xx_HAL_Driver/Src/stm32f4xx_hal_adc.c:1327:7
	ldr	r0, [sp, #8]
	.loc	7 1327 16 is_stmt 0             @ ../ThirdParty/STM32F4xx_HAL_Driver/Src/stm32f4xx_hal_adc.c:1327:16
	ldr	r0, [r0, #4]
.Ltmp319:
	.loc	7 1327 7                        @ ../ThirdParty/STM32F4xx_HAL_Driver/Src/stm32f4xx_hal_adc.c:1327:7
	cmp	r0, #6
	bhi	.LBB22_10
	b	.LBB22_9
.LBB22_9:
.Ltmp320:
	.loc	7 1330 30 is_stmt 1             @ ../ThirdParty/STM32F4xx_HAL_Driver/Src/stm32f4xx_hal_adc.c:1330:30
	ldr	r0, [sp, #8]
	ldr	r0, [r0, #4]
	add.w	r0, r0, r0, lsl #2
	subs	r1, r0, #5
	movs	r0, #31
	lsl.w	r2, r0, r1
	.loc	7 1330 5 is_stmt 0              @ ../ThirdParty/STM32F4xx_HAL_Driver/Src/stm32f4xx_hal_adc.c:1330:5
	ldr	r0, [sp, #12]
	.loc	7 1330 11                       @ ../ThirdParty/STM32F4xx_HAL_Driver/Src/stm32f4xx_hal_adc.c:1330:11
	ldr	r1, [r0]
	.loc	7 1330 26                       @ ../ThirdParty/STM32F4xx_HAL_Driver/Src/stm32f4xx_hal_adc.c:1330:26
	ldr	r0, [r1, #52]
	bics	r0, r2
	str	r0, [r1, #52]
	.loc	7 1333 29 is_stmt 1             @ ../ThirdParty/STM32F4xx_HAL_Driver/Src/stm32f4xx_hal_adc.c:1333:29
	ldr	r1, [sp, #8]
	ldrh	r0, [r1]
	ldr	r1, [r1, #4]
	add.w	r1, r1, r1, lsl #2
	subs	r1, #5
	lsl.w	r2, r0, r1
	.loc	7 1333 5 is_stmt 0              @ ../ThirdParty/STM32F4xx_HAL_Driver/Src/stm32f4xx_hal_adc.c:1333:5
	ldr	r0, [sp, #12]
	.loc	7 1333 11                       @ ../ThirdParty/STM32F4xx_HAL_Driver/Src/stm32f4xx_hal_adc.c:1333:11
	ldr	r1, [r0]
	.loc	7 1333 26                       @ ../ThirdParty/STM32F4xx_HAL_Driver/Src/stm32f4xx_hal_adc.c:1333:26
	ldr	r0, [r1, #52]
	orrs	r0, r2
	str	r0, [r1, #52]
	.loc	7 1334 3 is_stmt 1              @ ../ThirdParty/STM32F4xx_HAL_Driver/Src/stm32f4xx_hal_adc.c:1334:3
	b	.LBB22_14
.Ltmp321:
.LBB22_10:
	.loc	7 1336 12                       @ ../ThirdParty/STM32F4xx_HAL_Driver/Src/stm32f4xx_hal_adc.c:1336:12
	ldr	r0, [sp, #8]
	.loc	7 1336 21 is_stmt 0             @ ../ThirdParty/STM32F4xx_HAL_Driver/Src/stm32f4xx_hal_adc.c:1336:21
	ldr	r0, [r0, #4]
.Ltmp322:
	.loc	7 1336 12                       @ ../ThirdParty/STM32F4xx_HAL_Driver/Src/stm32f4xx_hal_adc.c:1336:12
	cmp	r0, #12
	bhi	.LBB22_12
	b	.LBB22_11
.LBB22_11:
.Ltmp323:
	.loc	7 1339 30 is_stmt 1             @ ../ThirdParty/STM32F4xx_HAL_Driver/Src/stm32f4xx_hal_adc.c:1339:30
	ldr	r0, [sp, #8]
	ldr	r0, [r0, #4]
	add.w	r0, r0, r0, lsl #2
	sub.w	r1, r0, #35
	movs	r0, #31
	lsl.w	r2, r0, r1
	.loc	7 1339 5 is_stmt 0              @ ../ThirdParty/STM32F4xx_HAL_Driver/Src/stm32f4xx_hal_adc.c:1339:5
	ldr	r0, [sp, #12]
	.loc	7 1339 11                       @ ../ThirdParty/STM32F4xx_HAL_Driver/Src/stm32f4xx_hal_adc.c:1339:11
	ldr	r1, [r0]
	.loc	7 1339 26                       @ ../ThirdParty/STM32F4xx_HAL_Driver/Src/stm32f4xx_hal_adc.c:1339:26
	ldr	r0, [r1, #48]
	bics	r0, r2
	str	r0, [r1, #48]
	.loc	7 1342 29 is_stmt 1             @ ../ThirdParty/STM32F4xx_HAL_Driver/Src/stm32f4xx_hal_adc.c:1342:29
	ldr	r1, [sp, #8]
	ldrh	r0, [r1]
	ldr	r1, [r1, #4]
	add.w	r1, r1, r1, lsl #2
	subs	r1, #35
	lsl.w	r2, r0, r1
	.loc	7 1342 5 is_stmt 0              @ ../ThirdParty/STM32F4xx_HAL_Driver/Src/stm32f4xx_hal_adc.c:1342:5
	ldr	r0, [sp, #12]
	.loc	7 1342 11                       @ ../ThirdParty/STM32F4xx_HAL_Driver/Src/stm32f4xx_hal_adc.c:1342:11
	ldr	r1, [r0]
	.loc	7 1342 26                       @ ../ThirdParty/STM32F4xx_HAL_Driver/Src/stm32f4xx_hal_adc.c:1342:26
	ldr	r0, [r1, #48]
	orrs	r0, r2
	str	r0, [r1, #48]
	.loc	7 1343 3 is_stmt 1              @ ../ThirdParty/STM32F4xx_HAL_Driver/Src/stm32f4xx_hal_adc.c:1343:3
	b	.LBB22_13
.Ltmp324:
.LBB22_12:
	.loc	7 1348 30                       @ ../ThirdParty/STM32F4xx_HAL_Driver/Src/stm32f4xx_hal_adc.c:1348:30
	ldr	r0, [sp, #8]
	ldr	r0, [r0, #4]
	add.w	r0, r0, r0, lsl #2
	sub.w	r1, r0, #65
	movs	r0, #31
	lsl.w	r2, r0, r1
	.loc	7 1348 5 is_stmt 0              @ ../ThirdParty/STM32F4xx_HAL_Driver/Src/stm32f4xx_hal_adc.c:1348:5
	ldr	r0, [sp, #12]
	.loc	7 1348 11                       @ ../ThirdParty/STM32F4xx_HAL_Driver/Src/stm32f4xx_hal_adc.c:1348:11
	ldr	r1, [r0]
	.loc	7 1348 26                       @ ../ThirdParty/STM32F4xx_HAL_Driver/Src/stm32f4xx_hal_adc.c:1348:26
	ldr	r0, [r1, #44]
	bics	r0, r2
	str	r0, [r1, #44]
	.loc	7 1351 29 is_stmt 1             @ ../ThirdParty/STM32F4xx_HAL_Driver/Src/stm32f4xx_hal_adc.c:1351:29
	ldr	r1, [sp, #8]
	ldrh	r0, [r1]
	ldr	r1, [r1, #4]
	add.w	r1, r1, r1, lsl #2
	subs	r1, #65
	lsl.w	r2, r0, r1
	.loc	7 1351 5 is_stmt 0              @ ../ThirdParty/STM32F4xx_HAL_Driver/Src/stm32f4xx_hal_adc.c:1351:5
	ldr	r0, [sp, #12]
	.loc	7 1351 11                       @ ../ThirdParty/STM32F4xx_HAL_Driver/Src/stm32f4xx_hal_adc.c:1351:11
	ldr	r1, [r0]
	.loc	7 1351 26                       @ ../ThirdParty/STM32F4xx_HAL_Driver/Src/stm32f4xx_hal_adc.c:1351:26
	ldr	r0, [r1, #44]
	orrs	r0, r2
	str	r0, [r1, #44]
	b	.LBB22_13
.Ltmp325:
.LBB22_13:
	.loc	7 0 26                          @ ../ThirdParty/STM32F4xx_HAL_Driver/Src/stm32f4xx_hal_adc.c:0:26
	b	.LBB22_14
.LBB22_14:
	movw	r0, #8960
	movt	r0, #16385
	.loc	7 1357 19 is_stmt 1             @ ../ThirdParty/STM32F4xx_HAL_Driver/Src/stm32f4xx_hal_adc.c:1357:19
	str	r0, [sp]
.Ltmp326:
	.loc	7 1360 8                        @ ../ThirdParty/STM32F4xx_HAL_Driver/Src/stm32f4xx_hal_adc.c:1360:8
	ldr	r0, [sp, #12]
	.loc	7 1360 14 is_stmt 0             @ ../ThirdParty/STM32F4xx_HAL_Driver/Src/stm32f4xx_hal_adc.c:1360:14
	ldr	r0, [r0]
	movw	r1, #8192
	movt	r1, #16385
	.loc	7 1360 32                       @ ../ThirdParty/STM32F4xx_HAL_Driver/Src/stm32f4xx_hal_adc.c:1360:32
	cmp	r0, r1
	bne	.LBB22_17
	b	.LBB22_15
.LBB22_15:
	.loc	7 1360 36                       @ ../ThirdParty/STM32F4xx_HAL_Driver/Src/stm32f4xx_hal_adc.c:1360:36
	ldr	r0, [sp, #8]
	.loc	7 1360 45                       @ ../ThirdParty/STM32F4xx_HAL_Driver/Src/stm32f4xx_hal_adc.c:1360:45
	ldr	r0, [r0]
.Ltmp327:
	.loc	7 1360 7                        @ ../ThirdParty/STM32F4xx_HAL_Driver/Src/stm32f4xx_hal_adc.c:1360:7
	cmp	r0, #18
	bne	.LBB22_17
	b	.LBB22_16
.LBB22_16:
.Ltmp328:
	.loc	7 1363 5 is_stmt 1              @ ../ThirdParty/STM32F4xx_HAL_Driver/Src/stm32f4xx_hal_adc.c:1363:5
	ldr	r1, [sp]
	.loc	7 1363 24 is_stmt 0             @ ../ThirdParty/STM32F4xx_HAL_Driver/Src/stm32f4xx_hal_adc.c:1363:24
	ldr	r0, [r1, #4]
	orr	r0, r0, #4194304
	str	r0, [r1, #4]
	.loc	7 1364 3 is_stmt 1              @ ../ThirdParty/STM32F4xx_HAL_Driver/Src/stm32f4xx_hal_adc.c:1364:3
	b	.LBB22_17
.Ltmp329:
.LBB22_17:
	.loc	7 1367 8                        @ ../ThirdParty/STM32F4xx_HAL_Driver/Src/stm32f4xx_hal_adc.c:1367:8
	ldr	r0, [sp, #12]
	.loc	7 1367 14 is_stmt 0             @ ../ThirdParty/STM32F4xx_HAL_Driver/Src/stm32f4xx_hal_adc.c:1367:14
	ldr	r0, [r0]
	movw	r1, #8192
	movt	r1, #16385
	.loc	7 1367 32                       @ ../ThirdParty/STM32F4xx_HAL_Driver/Src/stm32f4xx_hal_adc.c:1367:32
	cmp	r0, r1
	bne	.LBB22_26
	b	.LBB22_18
.LBB22_18:
	.loc	7 1367 37                       @ ../ThirdParty/STM32F4xx_HAL_Driver/Src/stm32f4xx_hal_adc.c:1367:37
	ldr	r0, [sp, #8]
	.loc	7 1367 46                       @ ../ThirdParty/STM32F4xx_HAL_Driver/Src/stm32f4xx_hal_adc.c:1367:46
	ldr	r0, [r0]
	.loc	7 1367 81                       @ ../ThirdParty/STM32F4xx_HAL_Driver/Src/stm32f4xx_hal_adc.c:1367:81
	cmp	r0, #16
	beq	.LBB22_20
	b	.LBB22_19
.LBB22_19:
	.loc	7 1367 85                       @ ../ThirdParty/STM32F4xx_HAL_Driver/Src/stm32f4xx_hal_adc.c:1367:85
	ldr	r0, [sp, #8]
	.loc	7 1367 94                       @ ../ThirdParty/STM32F4xx_HAL_Driver/Src/stm32f4xx_hal_adc.c:1367:94
	ldr	r0, [r0]
.Ltmp330:
	.loc	7 1367 7                        @ ../ThirdParty/STM32F4xx_HAL_Driver/Src/stm32f4xx_hal_adc.c:1367:7
	cmp	r0, #17
	bne	.LBB22_26
	b	.LBB22_20
.LBB22_20:
.Ltmp331:
	.loc	7 1370 5 is_stmt 1              @ ../ThirdParty/STM32F4xx_HAL_Driver/Src/stm32f4xx_hal_adc.c:1370:5
	ldr	r1, [sp]
	.loc	7 1370 24 is_stmt 0             @ ../ThirdParty/STM32F4xx_HAL_Driver/Src/stm32f4xx_hal_adc.c:1370:24
	ldr	r0, [r1, #4]
	orr	r0, r0, #8388608
	str	r0, [r1, #4]
.Ltmp332:
	.loc	7 1372 9 is_stmt 1              @ ../ThirdParty/STM32F4xx_HAL_Driver/Src/stm32f4xx_hal_adc.c:1372:9
	ldr	r0, [sp, #8]
	.loc	7 1372 18 is_stmt 0             @ ../ThirdParty/STM32F4xx_HAL_Driver/Src/stm32f4xx_hal_adc.c:1372:18
	ldr	r0, [r0]
.Ltmp333:
	.loc	7 1372 8                        @ ../ThirdParty/STM32F4xx_HAL_Driver/Src/stm32f4xx_hal_adc.c:1372:8
	cmp	r0, #16
	bne	.LBB22_25
	b	.LBB22_21
.LBB22_21:
.Ltmp334:
	.loc	7 1376 45 is_stmt 1             @ ../ThirdParty/STM32F4xx_HAL_Driver/Src/stm32f4xx_hal_adc.c:1376:45
	movw	r0, :lower16:SystemCoreClock
	movt	r0, :upper16:SystemCoreClock
	ldr	r0, [r0]
	movw	r1, #56963
	movt	r1, #17179
	.loc	7 1376 61 is_stmt 0             @ ../ThirdParty/STM32F4xx_HAL_Driver/Src/stm32f4xx_hal_adc.c:1376:61
	umull	r1, r0, r0, r1
	lsrs	r0, r0, #18
	.loc	7 1376 42                       @ ../ThirdParty/STM32F4xx_HAL_Driver/Src/stm32f4xx_hal_adc.c:1376:42
	add.w	r0, r0, r0, lsl #2
	lsls	r0, r0, #1
	.loc	7 1376 15                       @ ../ThirdParty/STM32F4xx_HAL_Driver/Src/stm32f4xx_hal_adc.c:1376:15
	str	r0, [sp, #4]
	.loc	7 1377 7 is_stmt 1              @ ../ThirdParty/STM32F4xx_HAL_Driver/Src/stm32f4xx_hal_adc.c:1377:7
	b	.LBB22_22
.LBB22_22:                              @ =>This Inner Loop Header: Depth=1
	.loc	7 1377 13 is_stmt 0             @ ../ThirdParty/STM32F4xx_HAL_Driver/Src/stm32f4xx_hal_adc.c:1377:13
	ldr	r0, [sp, #4]
	.loc	7 1377 7                        @ ../ThirdParty/STM32F4xx_HAL_Driver/Src/stm32f4xx_hal_adc.c:1377:7
	cbz	r0, .LBB22_24
	b	.LBB22_23
.LBB22_23:                              @   in Loop: Header=BB22_22 Depth=1
.Ltmp335:
	.loc	7 1379 16 is_stmt 1             @ ../ThirdParty/STM32F4xx_HAL_Driver/Src/stm32f4xx_hal_adc.c:1379:16
	ldr	r0, [sp, #4]
	subs	r0, #1
	str	r0, [sp, #4]
.Ltmp336:
	.loc	7 1377 7                        @ ../ThirdParty/STM32F4xx_HAL_Driver/Src/stm32f4xx_hal_adc.c:1377:7
	b	.LBB22_22
.LBB22_24:
	.loc	7 1381 5                        @ ../ThirdParty/STM32F4xx_HAL_Driver/Src/stm32f4xx_hal_adc.c:1381:5
	b	.LBB22_25
.Ltmp337:
.LBB22_25:
	.loc	7 1382 3                        @ ../ThirdParty/STM32F4xx_HAL_Driver/Src/stm32f4xx_hal_adc.c:1382:3
	b	.LBB22_26
.Ltmp338:
.LBB22_26:
	.loc	7 1385 3                        @ ../ThirdParty/STM32F4xx_HAL_Driver/Src/stm32f4xx_hal_adc.c:1385:3
	b	.LBB22_27
.LBB22_27:
.Ltmp339:
	.loc	7 1385 3 is_stmt 0              @ ../ThirdParty/STM32F4xx_HAL_Driver/Src/stm32f4xx_hal_adc.c:1385:3
	ldr	r1, [sp, #12]
	movs	r0, #0
	strb.w	r0, [r1, #60]
	b	.LBB22_28
.Ltmp340:
.LBB22_28:
	.loc	7 0 3                           @ ../ThirdParty/STM32F4xx_HAL_Driver/Src/stm32f4xx_hal_adc.c:0:3
	movs	r0, #0
	.loc	7 1388 3 is_stmt 1              @ ../ThirdParty/STM32F4xx_HAL_Driver/Src/stm32f4xx_hal_adc.c:1388:3
	strb.w	r0, [sp, #19]
	b	.LBB22_29
.LBB22_29:
	.loc	7 1389 1                        @ ../ThirdParty/STM32F4xx_HAL_Driver/Src/stm32f4xx_hal_adc.c:1389:1
	ldrb.w	r0, [sp, #19]
	.loc	7 1389 1 epilogue_begin is_stmt 0 @ ../ThirdParty/STM32F4xx_HAL_Driver/Src/stm32f4xx_hal_adc.c:1389:1
	add	sp, #20
	bx	lr
.Ltmp341:
.Lfunc_end22:
	.size	HAL_ADC_ConfigChannel, .Lfunc_end22-HAL_ADC_ConfigChannel
	.cfi_endproc
	.cantunwind
	.fnend
                                        @ -- End function
	.section	.text.HAL_ADC_AnalogWDGConfig,"ax",%progbits
	.hidden	HAL_ADC_AnalogWDGConfig         @ -- Begin function HAL_ADC_AnalogWDGConfig
	.globl	HAL_ADC_AnalogWDGConfig
	.p2align	2
	.type	HAL_ADC_AnalogWDGConfig,%function
	.code	16                              @ @HAL_ADC_AnalogWDGConfig
	.thumb_func
HAL_ADC_AnalogWDGConfig:
.Lfunc_begin23:
	.loc	7 1408 0 is_stmt 1              @ ../ThirdParty/STM32F4xx_HAL_Driver/Src/stm32f4xx_hal_adc.c:1408:0
	.fnstart
	.cfi_startproc
@ %bb.0:
	.pad	#12
	sub	sp, #12
	.cfi_def_cfa_offset 12
	str	r0, [sp, #4]
	str	r1, [sp]
.Ltmp342:
	.loc	7 1425 3 prologue_end           @ ../ThirdParty/STM32F4xx_HAL_Driver/Src/stm32f4xx_hal_adc.c:1425:3
	b	.LBB23_1
.LBB23_1:
.Ltmp343:
	.loc	7 1425 3 is_stmt 0              @ ../ThirdParty/STM32F4xx_HAL_Driver/Src/stm32f4xx_hal_adc.c:1425:3
	ldr	r0, [sp, #4]
	ldrb.w	r0, [r0, #60]
.Ltmp344:
	.loc	7 1425 3                        @ ../ThirdParty/STM32F4xx_HAL_Driver/Src/stm32f4xx_hal_adc.c:1425:3
	cmp	r0, #1
	bne	.LBB23_3
	b	.LBB23_2
.LBB23_2:
	.loc	7 0 3                           @ ../ThirdParty/STM32F4xx_HAL_Driver/Src/stm32f4xx_hal_adc.c:0:3
	movs	r0, #2
.Ltmp345:
	.loc	7 1425 3                        @ ../ThirdParty/STM32F4xx_HAL_Driver/Src/stm32f4xx_hal_adc.c:1425:3
	strb.w	r0, [sp, #11]
	b	.LBB23_11
.Ltmp346:
.LBB23_3:
	.loc	7 1425 3                        @ ../ThirdParty/STM32F4xx_HAL_Driver/Src/stm32f4xx_hal_adc.c:1425:3
	ldr	r1, [sp, #4]
	movs	r0, #1
	strb.w	r0, [r1, #60]
	b	.LBB23_4
.Ltmp347:
.LBB23_4:
	.loc	7 1425 3                        @ ../ThirdParty/STM32F4xx_HAL_Driver/Src/stm32f4xx_hal_adc.c:1425:3
	b	.LBB23_5
.Ltmp348:
.LBB23_5:
	.loc	7 1427 6 is_stmt 1              @ ../ThirdParty/STM32F4xx_HAL_Driver/Src/stm32f4xx_hal_adc.c:1427:6
	ldr	r0, [sp]
	.loc	7 1427 23 is_stmt 0             @ ../ThirdParty/STM32F4xx_HAL_Driver/Src/stm32f4xx_hal_adc.c:1427:23
	ldr	r0, [r0, #16]
.Ltmp349:
	.loc	7 1427 6                        @ ../ThirdParty/STM32F4xx_HAL_Driver/Src/stm32f4xx_hal_adc.c:1427:6
	cmp	r0, #1
	bne	.LBB23_7
	b	.LBB23_6
.LBB23_6:
.Ltmp350:
	.loc	7 1430 5 is_stmt 1              @ ../ThirdParty/STM32F4xx_HAL_Driver/Src/stm32f4xx_hal_adc.c:1430:5
	ldr	r0, [sp, #4]
	ldr	r1, [r0]
	ldr	r0, [r1, #4]
	orr	r0, r0, #64
	str	r0, [r1, #4]
	.loc	7 1431 3                        @ ../ThirdParty/STM32F4xx_HAL_Driver/Src/stm32f4xx_hal_adc.c:1431:3
	b	.LBB23_8
.Ltmp351:
.LBB23_7:
	.loc	7 1435 5                        @ ../ThirdParty/STM32F4xx_HAL_Driver/Src/stm32f4xx_hal_adc.c:1435:5
	ldr	r0, [sp, #4]
	ldr	r1, [r0]
	ldr	r0, [r1, #4]
	bic	r0, r0, #64
	str	r0, [r1, #4]
	b	.LBB23_8
.Ltmp352:
.LBB23_8:
	.loc	7 1439 3                        @ ../ThirdParty/STM32F4xx_HAL_Driver/Src/stm32f4xx_hal_adc.c:1439:3
	ldr	r0, [sp, #4]
	.loc	7 1439 9 is_stmt 0              @ ../ThirdParty/STM32F4xx_HAL_Driver/Src/stm32f4xx_hal_adc.c:1439:9
	ldr	r1, [r0]
	.loc	7 1439 23                       @ ../ThirdParty/STM32F4xx_HAL_Driver/Src/stm32f4xx_hal_adc.c:1439:23
	ldr	r0, [r1, #4]
	movw	r2, #65023
	movt	r2, #65343
	ands	r0, r2
	str	r0, [r1, #4]
	.loc	7 1442 26 is_stmt 1             @ ../ThirdParty/STM32F4xx_HAL_Driver/Src/stm32f4xx_hal_adc.c:1442:26
	ldr	r0, [sp]
	.loc	7 1442 43 is_stmt 0             @ ../ThirdParty/STM32F4xx_HAL_Driver/Src/stm32f4xx_hal_adc.c:1442:43
	ldr	r2, [r0]
	.loc	7 1442 3                        @ ../ThirdParty/STM32F4xx_HAL_Driver/Src/stm32f4xx_hal_adc.c:1442:3
	ldr	r0, [sp, #4]
	.loc	7 1442 9                        @ ../ThirdParty/STM32F4xx_HAL_Driver/Src/stm32f4xx_hal_adc.c:1442:9
	ldr	r1, [r0]
	.loc	7 1442 23                       @ ../ThirdParty/STM32F4xx_HAL_Driver/Src/stm32f4xx_hal_adc.c:1442:23
	ldr	r0, [r1, #4]
	orrs	r0, r2
	str	r0, [r1, #4]
	.loc	7 1445 25 is_stmt 1             @ ../ThirdParty/STM32F4xx_HAL_Driver/Src/stm32f4xx_hal_adc.c:1445:25
	ldr	r0, [sp]
	.loc	7 1445 42 is_stmt 0             @ ../ThirdParty/STM32F4xx_HAL_Driver/Src/stm32f4xx_hal_adc.c:1445:42
	ldr	r0, [r0, #4]
	.loc	7 1445 3                        @ ../ThirdParty/STM32F4xx_HAL_Driver/Src/stm32f4xx_hal_adc.c:1445:3
	ldr	r1, [sp, #4]
	.loc	7 1445 9                        @ ../ThirdParty/STM32F4xx_HAL_Driver/Src/stm32f4xx_hal_adc.c:1445:9
	ldr	r1, [r1]
	.loc	7 1445 23                       @ ../ThirdParty/STM32F4xx_HAL_Driver/Src/stm32f4xx_hal_adc.c:1445:23
	str	r0, [r1, #36]
	.loc	7 1448 25 is_stmt 1             @ ../ThirdParty/STM32F4xx_HAL_Driver/Src/stm32f4xx_hal_adc.c:1448:25
	ldr	r0, [sp]
	.loc	7 1448 42 is_stmt 0             @ ../ThirdParty/STM32F4xx_HAL_Driver/Src/stm32f4xx_hal_adc.c:1448:42
	ldr	r0, [r0, #8]
	.loc	7 1448 3                        @ ../ThirdParty/STM32F4xx_HAL_Driver/Src/stm32f4xx_hal_adc.c:1448:3
	ldr	r1, [sp, #4]
	.loc	7 1448 9                        @ ../ThirdParty/STM32F4xx_HAL_Driver/Src/stm32f4xx_hal_adc.c:1448:9
	ldr	r1, [r1]
	.loc	7 1448 23                       @ ../ThirdParty/STM32F4xx_HAL_Driver/Src/stm32f4xx_hal_adc.c:1448:23
	str	r0, [r1, #40]
	.loc	7 1451 3 is_stmt 1              @ ../ThirdParty/STM32F4xx_HAL_Driver/Src/stm32f4xx_hal_adc.c:1451:3
	ldr	r0, [sp, #4]
	.loc	7 1451 9 is_stmt 0              @ ../ThirdParty/STM32F4xx_HAL_Driver/Src/stm32f4xx_hal_adc.c:1451:9
	ldr	r1, [r0]
	.loc	7 1451 23                       @ ../ThirdParty/STM32F4xx_HAL_Driver/Src/stm32f4xx_hal_adc.c:1451:23
	ldr	r0, [r1, #4]
	bic	r0, r0, #31
	str	r0, [r1, #4]
	.loc	7 1454 48 is_stmt 1             @ ../ThirdParty/STM32F4xx_HAL_Driver/Src/stm32f4xx_hal_adc.c:1454:48
	ldr	r0, [sp]
	.loc	7 1454 65 is_stmt 0             @ ../ThirdParty/STM32F4xx_HAL_Driver/Src/stm32f4xx_hal_adc.c:1454:65
	ldrh	r2, [r0, #12]
	.loc	7 1454 3                        @ ../ThirdParty/STM32F4xx_HAL_Driver/Src/stm32f4xx_hal_adc.c:1454:3
	ldr	r0, [sp, #4]
	.loc	7 1454 9                        @ ../ThirdParty/STM32F4xx_HAL_Driver/Src/stm32f4xx_hal_adc.c:1454:9
	ldr	r1, [r0]
	.loc	7 1454 23                       @ ../ThirdParty/STM32F4xx_HAL_Driver/Src/stm32f4xx_hal_adc.c:1454:23
	ldr	r0, [r1, #4]
	orrs	r0, r2
	str	r0, [r1, #4]
	.loc	7 1457 3 is_stmt 1              @ ../ThirdParty/STM32F4xx_HAL_Driver/Src/stm32f4xx_hal_adc.c:1457:3
	b	.LBB23_9
.LBB23_9:
.Ltmp353:
	.loc	7 1457 3 is_stmt 0              @ ../ThirdParty/STM32F4xx_HAL_Driver/Src/stm32f4xx_hal_adc.c:1457:3
	ldr	r1, [sp, #4]
	movs	r0, #0
	strb.w	r0, [r1, #60]
	b	.LBB23_10
.Ltmp354:
.LBB23_10:
	.loc	7 0 3                           @ ../ThirdParty/STM32F4xx_HAL_Driver/Src/stm32f4xx_hal_adc.c:0:3
	movs	r0, #0
	.loc	7 1460 3 is_stmt 1              @ ../ThirdParty/STM32F4xx_HAL_Driver/Src/stm32f4xx_hal_adc.c:1460:3
	strb.w	r0, [sp, #11]
	b	.LBB23_11
.LBB23_11:
	.loc	7 1461 1                        @ ../ThirdParty/STM32F4xx_HAL_Driver/Src/stm32f4xx_hal_adc.c:1461:1
	ldrb.w	r0, [sp, #11]
	.loc	7 1461 1 epilogue_begin is_stmt 0 @ ../ThirdParty/STM32F4xx_HAL_Driver/Src/stm32f4xx_hal_adc.c:1461:1
	add	sp, #12
	bx	lr
.Ltmp355:
.Lfunc_end23:
	.size	HAL_ADC_AnalogWDGConfig, .Lfunc_end23-HAL_ADC_AnalogWDGConfig
	.cfi_endproc
	.cantunwind
	.fnend
                                        @ -- End function
	.section	.text.HAL_ADC_GetState,"ax",%progbits
	.hidden	HAL_ADC_GetState                @ -- Begin function HAL_ADC_GetState
	.globl	HAL_ADC_GetState
	.p2align	2
	.type	HAL_ADC_GetState,%function
	.code	16                              @ @HAL_ADC_GetState
	.thumb_func
HAL_ADC_GetState:
.Lfunc_begin24:
	.loc	7 1490 0 is_stmt 1              @ ../ThirdParty/STM32F4xx_HAL_Driver/Src/stm32f4xx_hal_adc.c:1490:0
	.fnstart
	.cfi_startproc
@ %bb.0:
	.pad	#4
	sub	sp, #4
	.cfi_def_cfa_offset 4
	str	r0, [sp]
.Ltmp356:
	.loc	7 1492 10 prologue_end          @ ../ThirdParty/STM32F4xx_HAL_Driver/Src/stm32f4xx_hal_adc.c:1492:10
	ldr	r0, [sp]
	.loc	7 1492 16 is_stmt 0             @ ../ThirdParty/STM32F4xx_HAL_Driver/Src/stm32f4xx_hal_adc.c:1492:16
	ldr	r0, [r0, #64]
	.loc	7 1492 3 epilogue_begin         @ ../ThirdParty/STM32F4xx_HAL_Driver/Src/stm32f4xx_hal_adc.c:1492:3
	add	sp, #4
	bx	lr
.Ltmp357:
.Lfunc_end24:
	.size	HAL_ADC_GetState, .Lfunc_end24-HAL_ADC_GetState
	.cfi_endproc
	.cantunwind
	.fnend
                                        @ -- End function
	.section	.text.HAL_ADC_GetError,"ax",%progbits
	.hidden	HAL_ADC_GetError                @ -- Begin function HAL_ADC_GetError
	.globl	HAL_ADC_GetError
	.p2align	2
	.type	HAL_ADC_GetError,%function
	.code	16                              @ @HAL_ADC_GetError
	.thumb_func
HAL_ADC_GetError:
.Lfunc_begin25:
	.loc	7 1502 0 is_stmt 1              @ ../ThirdParty/STM32F4xx_HAL_Driver/Src/stm32f4xx_hal_adc.c:1502:0
	.fnstart
	.cfi_startproc
@ %bb.0:
	.pad	#4
	sub	sp, #4
	.cfi_def_cfa_offset 4
	str	r0, [sp]
.Ltmp358:
	.loc	7 1503 10 prologue_end          @ ../ThirdParty/STM32F4xx_HAL_Driver/Src/stm32f4xx_hal_adc.c:1503:10
	ldr	r0, [sp]
	.loc	7 1503 16 is_stmt 0             @ ../ThirdParty/STM32F4xx_HAL_Driver/Src/stm32f4xx_hal_adc.c:1503:16
	ldr	r0, [r0, #68]
	.loc	7 1503 3 epilogue_begin         @ ../ThirdParty/STM32F4xx_HAL_Driver/Src/stm32f4xx_hal_adc.c:1503:3
	add	sp, #4
	bx	lr
.Ltmp359:
.Lfunc_end25:
	.size	HAL_ADC_GetError, .Lfunc_end25-HAL_ADC_GetError
	.cfi_endproc
	.cantunwind
	.fnend
                                        @ -- End function
	.section	".note.GNU-stack","",%progbits
	.eabi_attribute	30, 6	@ Tag_ABI_optimization_goals
	.ARM_attribute	16, 1	@ Tag_AV_eba