	.text
	.syntax unified
	.eabi_attribute	67, "2.09"	@ Tag_conformance
	.cpu	cortex-m4
	.eabi_attribute	6, 13	@ Tag_CPU_arch
	.eabi_attribute	7, 77	@ Tag_CPU_arch_profile
	.eabi_attribute	8, 0	@ Tag_ARM_ISA_use
	.eabi_attribute	9, 2	@ Tag_THUMB_ISA_use
	.fpu	fpv4-sp-d16
	.eabi_attribute	27, 1	@ Tag_ABI_HardFP_use
	.eabi_attribute	36, 1	@ Tag_FP_HP_extension
	.eabi_attribute	34, 1	@ Tag_CPU_unaligned_access
	.eabi_attribute	17, 1	@ Tag_ABI_PCS_GOT_use
	.eabi_attribute	20, 2	@ Tag_ABI_FP_denormal
	.eabi_attribute	21, 0	@ Tag_ABI_FP_exceptions
	.eabi_attribute	23, 1	@ Tag_ABI_FP_number_model
	.eabi_attribute	24, 1	@ Tag_ABI_align_needed
	.eabi_attribute	25, 1	@ Tag_ABI_align_preserved
	.eabi_attribute	28, 1	@ Tag_ABI_VFP_args
	.eabi_attribute	38, 1	@ Tag_ABI_FP_16bit_format
	.eabi_attribute	18, 2	@ Tag_ABI_PCS_wchar_t
	.eabi_attribute	26, 1	@ Tag_ABI_enum_size
	.eabi_attribute	14, 0	@ Tag_ABI_PCS_R9_use
	.file	"stm32f4xx_hal_pwr_ex.c"
	.file	1 "D:\\ikingtec\\Robot\\ODrive\\Firmware\\MDK-ARM" "../ThirdParty/STM32F4xx_HAL_Driver/Inc/stm32f4xx_hal_def.h"
	.file	2 "D:\\ikingtec\\Robot\\ODrive\\Firmware\\MDK-ARM" "../ThirdParty/CMSIS/Device/ST/STM32F4xx/Include\\stm32f4xx.h"
	.file	3 "D:\\Embed\\MDK\\MDK\\ARM\\ARMCompilerV621\\Bin\\..\\include" "stdint.h"
	.file	4 "D:\\ikingtec\\Robot\\ODrive\\Firmware\\MDK-ARM" "../ThirdParty/CMSIS/Device/ST/STM32F4xx/Include/stm32f405xx.h"
	.section	.text.HAL_PWREx_EnableBkUpReg,"ax",%progbits
	.hidden	HAL_PWREx_EnableBkUpReg         @ -- Begin function HAL_PWREx_EnableBkUpReg
	.globl	HAL_PWREx_EnableBkUpReg
	.p2align	2
	.type	HAL_PWREx_EnableBkUpReg,%function
	.code	16                              @ @HAL_PWREx_EnableBkUpReg
	.thumb_func
HAL_PWREx_EnableBkUpReg:
.Lfunc_begin0:
	.file	5 "D:\\ikingtec\\Robot\\ODrive\\Firmware\\MDK-ARM" "../ThirdParty/STM32F4xx_HAL_Driver/Src/stm32f4xx_hal_pwr_ex.c"
	.loc	5 160 0                         @ ../ThirdParty/STM32F4xx_HAL_Driver/Src/stm32f4xx_hal_pwr_ex.c:160:0
	.fnstart
	.cfi_sections .debug_frame
	.cfi_startproc
@ %bb.0:
	.save	{r7, lr}
	push	{r7, lr}
	.cfi_def_cfa_offset 8
	.cfi_offset lr, -4
	.cfi_offset r7, -8
	.pad	#8
	sub	sp, #8
	.cfi_def_cfa_offset 16
	movs	r0, #0
.Ltmp0:
	.loc	5 161 12 prologue_end           @ ../ThirdParty/STM32F4xx_HAL_Driver/Src/stm32f4xx_hal_pwr_ex.c:161:12
	str	r0, [sp]
	movs	r1, #164
	movt	r1, #16910
	movs	r0, #1
	.loc	5 163 33                        @ ../ThirdParty/STM32F4xx_HAL_Driver/Src/stm32f4xx_hal_pwr_ex.c:163:33
	str	r0, [r1]
	.loc	5 166 15                        @ ../ThirdParty/STM32F4xx_HAL_Driver/Src/stm32f4xx_hal_pwr_ex.c:166:15
	bl	HAL_GetTick
	.loc	5 166 13 is_stmt 0              @ ../ThirdParty/STM32F4xx_HAL_Driver/Src/stm32f4xx_hal_pwr_ex.c:166:13
	str	r0, [sp]
	.loc	5 169 3 is_stmt 1               @ ../ThirdParty/STM32F4xx_HAL_Driver/Src/stm32f4xx_hal_pwr_ex.c:169:3
	b	.LBB0_1
.LBB0_1:                                @ =>This Inner Loop Header: Depth=1
	.loc	5 0 3 is_stmt 0                 @ ../ThirdParty/STM32F4xx_HAL_Driver/Src/stm32f4xx_hal_pwr_ex.c:0:3
	movw	r0, #28676
	movt	r0, #16384
	.loc	5 169 9                         @ ../ThirdParty/STM32F4xx_HAL_Driver/Src/stm32f4xx_hal_pwr_ex.c:169:9
	ldr	r0, [r0]
	and	r1, r0, #8
	movs	r0, #0
	.loc	5 169 3                         @ ../ThirdParty/STM32F4xx_HAL_Driver/Src/stm32f4xx_hal_pwr_ex.c:169:3
	cmp.w	r0, r1, lsr #3
	bne	.LBB0_5
	b	.LBB0_2
.LBB0_2:                                @   in Loop: Header=BB0_1 Depth=1
.Ltmp1:
	.loc	5 171 9 is_stmt 1               @ ../ThirdParty/STM32F4xx_HAL_Driver/Src/stm32f4xx_hal_pwr_ex.c:171:9
	bl	HAL_GetTick
	.loc	5 171 25 is_stmt 0              @ ../ThirdParty/STM32F4xx_HAL_Driver/Src/stm32f4xx_hal_pwr_ex.c:171:25
	ldr	r1, [sp]
	.loc	5 171 23                        @ ../ThirdParty/STM32F4xx_HAL_Driver/Src/stm32f4xx_hal_pwr_ex.c:171:23
	subs	r0, r0, r1
.Ltmp2:
	.loc	5 171 8                         @ ../ThirdParty/STM32F4xx_HAL_Driver/Src/stm32f4xx_hal_pwr_ex.c:171:8
	cmp.w	r0, #1000
	bls	.LBB0_4
	b	.LBB0_3
.LBB0_3:
	.loc	5 0 8                           @ ../ThirdParty/STM32F4xx_HAL_Driver/Src/stm32f4xx_hal_pwr_ex.c:0:8
	movs	r0, #3
.Ltmp3:
	.loc	5 173 7 is_stmt 1               @ ../ThirdParty/STM32F4xx_HAL_Driver/Src/stm32f4xx_hal_pwr_ex.c:173:7
	strb.w	r0, [sp, #7]
	b	.LBB0_6
.Ltmp4:
.LBB0_4:                                @   in Loop: Header=BB0_1 Depth=1
	.loc	5 169 3                         @ ../ThirdParty/STM32F4xx_HAL_Driver/Src/stm32f4xx_hal_pwr_ex.c:169:3
	b	.LBB0_1
.LBB0_5:
	.loc	5 0 3 is_stmt 0                 @ ../ThirdParty/STM32F4xx_HAL_Driver/Src/stm32f4xx_hal_pwr_ex.c:0:3
	movs	r0, #0
	.loc	5 176 3 is_stmt 1               @ ../ThirdParty/STM32F4xx_HAL_Driver/Src/stm32f4xx_hal_pwr_ex.c:176:3
	strb.w	r0, [sp, #7]
	b	.LBB0_6
.LBB0_6:
	.loc	5 177 1                         @ ../ThirdParty/STM32F4xx_HAL_Driver/Src/stm32f4xx_hal_pwr_ex.c:177:1
	ldrb.w	r0, [sp, #7]
	.loc	5 177 1 epilogue_begin is_stmt 0 @ ../ThirdParty/STM32F4xx_HAL_Driver/Src/stm32f4xx_hal_pwr_ex.c:177:1
	add	sp, #8
	pop	{r7, pc}
.Ltmp5:
.Lfunc_end0:
	.size	HAL_PWREx_EnableBkUpReg, .Lfunc_end0-HAL_PWREx_EnableBkUpReg
	.cfi_endproc
	.cantunwind
	.fnend
                                        @ -- End function
	.section	.text.HAL_PWREx_DisableBkUpReg,"ax",%progbits
	.hidden	HAL_PWREx_DisableBkUpReg        @ -- Begin function HAL_PWREx_DisableBkUpReg
	.globl	HAL_PWREx_DisableBkUpReg
	.p2align	2
	.type	HAL_PWREx_DisableBkUpReg,%function
	.code	16                              @ @HAL_PWREx_DisableBkUpReg
	.thumb_func
HAL_PWREx_DisableBkUpReg:
.Lfunc_begin1:
	.loc	5 184 0 is_stmt 1               @ ../ThirdParty/STM32F4xx_HAL_Driver/Src/stm32f4xx_hal_pwr_ex.c:184:0
	.fnstart
	.cfi_startproc
@ %bb.0:
	.save	{r7, lr}
	push	{r7, lr}
	.cfi_def_cfa_offset 8
	.cfi_offset lr, -4
	.cfi_offset r7, -8
	.pad	#8
	sub	sp, #8
	.cfi_def_cfa_offset 16
	movs	r0, #0
.Ltmp6:
	.loc	5 185 12 prologue_end           @ ../ThirdParty/STM32F4xx_HAL_Driver/Src/stm32f4xx_hal_pwr_ex.c:185:12
	str	r0, [sp]
	movs	r1, #164
	movt	r1, #16910
	.loc	5 187 33                        @ ../ThirdParty/STM32F4xx_HAL_Driver/Src/stm32f4xx_hal_pwr_ex.c:187:33
	str	r0, [r1]
	.loc	5 190 15                        @ ../ThirdParty/STM32F4xx_HAL_Driver/Src/stm32f4xx_hal_pwr_ex.c:190:15
	bl	HAL_GetTick
	.loc	5 190 13 is_stmt 0              @ ../ThirdParty/STM32F4xx_HAL_Driver/Src/stm32f4xx_hal_pwr_ex.c:190:13
	str	r0, [sp]
	.loc	5 193 3 is_stmt 1               @ ../ThirdParty/STM32F4xx_HAL_Driver/Src/stm32f4xx_hal_pwr_ex.c:193:3
	b	.LBB1_1
.LBB1_1:                                @ =>This Inner Loop Header: Depth=1
	.loc	5 0 3 is_stmt 0                 @ ../ThirdParty/STM32F4xx_HAL_Driver/Src/stm32f4xx_hal_pwr_ex.c:0:3
	movw	r0, #28676
	movt	r0, #16384
	.loc	5 193 9                         @ ../ThirdParty/STM32F4xx_HAL_Driver/Src/stm32f4xx_hal_pwr_ex.c:193:9
	ldr	r0, [r0]
	and	r1, r0, #8
	movs	r0, #0
	.loc	5 193 3                         @ ../ThirdParty/STM32F4xx_HAL_Driver/Src/stm32f4xx_hal_pwr_ex.c:193:3
	cmp.w	r0, r1, lsr #3
	beq	.LBB1_5
	b	.LBB1_2
.LBB1_2:                                @   in Loop: Header=BB1_1 Depth=1
.Ltmp7:
	.loc	5 195 9 is_stmt 1               @ ../ThirdParty/STM32F4xx_HAL_Driver/Src/stm32f4xx_hal_pwr_ex.c:195:9
	bl	HAL_GetTick
	.loc	5 195 25 is_stmt 0              @ ../ThirdParty/STM32F4xx_HAL_Driver/Src/stm32f4xx_hal_pwr_ex.c:195:25
	ldr	r1, [sp]
	.loc	5 195 23                        @ ../ThirdParty/STM32F4xx_HAL_Driver/Src/stm32f4xx_hal_pwr_ex.c:195:23
	subs	r0, r0, r1
.Ltmp8:
	.loc	5 195 8                         @ ../ThirdParty/STM32F4xx_HAL_Driver/Src/stm32f4xx_hal_pwr_ex.c:195:8
	cmp.w	r0, #1000
	bls	.LBB1_4
	b	.LBB1_3
.LBB1_3:
	.loc	5 0 8                           @ ../ThirdParty/STM32F4xx_HAL_Driver/Src/stm32f4xx_hal_pwr_ex.c:0:8
	movs	r0, #3
.Ltmp9:
	.loc	5 197 7 is_stmt 1               @ ../ThirdParty/STM32F4xx_HAL_Driver/Src/stm32f4xx_hal_pwr_ex.c:197:7
	strb.w	r0, [sp, #7]
	b	.LBB1_6
.Ltmp10:
.LBB1_4:                                @   in Loop: Header=BB1_1 Depth=1
	.loc	5 193 3                         @ ../ThirdParty/STM32F4xx_HAL_Driver/Src/stm32f4xx_hal_pwr_ex.c:193:3
	b	.LBB1_1
.LBB1_5:
	.loc	5 0 3 is_stmt 0                 @ ../ThirdParty/STM32F4xx_HAL_Driver/Src/stm32f4xx_hal_pwr_ex.c:0:3
	movs	r0, #0
	.loc	5 200 3 is_stmt 1               @ ../ThirdParty/STM32F4xx_HAL_Driver/Src/stm32f4xx_hal_pwr_ex.c:200:3
	strb.w	r0, [sp, #7]
	b	.LBB1_6
.LBB1_6:
	.loc	5 201 1                         @ ../ThirdParty/STM32F4xx_HAL_Driver/Src/stm32f4xx_hal_pwr_ex.c:201:1
	ldrb.w	r0, [sp, #7]
	.loc	5 201 1 epilogue_begin is_stmt 0 @ ../ThirdParty/STM32F4xx_HAL_Driver/Src/stm32f4xx_hal_pwr_ex.c:201:1
	add	sp, #8
	pop	{r7, pc}
.Ltmp11:
.Lfunc_end1:
	.size	HAL_PWREx_DisableBkUpReg, .Lfunc_end1-HAL_PWREx_DisableBkUpReg
	.cfi_endproc
	.cantunwind
	.fnend
                                        @ -- End function
	.section	.text.HAL_PWREx_EnableFlashPowerDown,"ax",%progbits
	.hidden	HAL_PWREx_EnableFlashPowerDown  @ -- Begin function HAL_PWREx_EnableFlashPowerDown
	.globl	HAL_PWREx_EnableFlashPowerDown
	.p2align	2
	.type	HAL_PWREx_EnableFlashPowerDown,%function
	.code	16                              @ @HAL_PWREx_EnableFlashPowerDown
	.thumb_func
HAL_PWREx_EnableFlashPowerDown:
.Lfunc_begin2:
	.loc	5 208 0 is_stmt 1               @ ../ThirdParty/STM32F4xx_HAL_Driver/Src/stm32f4xx_hal_pwr_ex.c:208:0
	.fnstart
	.cfi_startproc
@ %bb.0:
	movs	r1, #36
	movt	r1, #16910
	movs	r0, #1
.Ltmp12:
	.loc	5 209 33 prologue_end           @ ../ThirdParty/STM32F4xx_HAL_Driver/Src/stm32f4xx_hal_pwr_ex.c:209:33
	str	r0, [r1]
	.loc	5 210 1                         @ ../ThirdParty/STM32F4xx_HAL_Driver/Src/stm32f4xx_hal_pwr_ex.c:210:1
	bx	lr
.Ltmp13:
.Lfunc_end2:
	.size	HAL_PWREx_EnableFlashPowerDown, .Lfunc_end2-HAL_PWREx_EnableFlashPowerDown
	.cfi_endproc
	.cantunwind
	.fnend
                                        @ -- End function
	.section	.text.HAL_PWREx_DisableFlashPowerDown,"ax",%progbits
	.hidden	HAL_PWREx_DisableFlashPowerDown @ -- Begin function HAL_PWREx_DisableFlashPowerDown
	.globl	HAL_PWREx_DisableFlashPowerDown
	.p2align	2
	.type	HAL_PWREx_DisableFlashPowerDown,%function
	.code	16                              @ @HAL_PWREx_DisableFlashPowerDown
	.thumb_func
HAL_PWREx_DisableFlashPowerDown:
.Lfunc_begin3:
	.loc	5 217 0                         @ ../ThirdParty/STM32F4xx_HAL_Driver/Src/stm32f4xx_hal_pwr_ex.c:217:0
	.fnstart
	.cfi_startproc
@ %bb.0:
	movs	r1, #36
	movt	r1, #16910
	movs	r0, #0
.Ltmp14:
	.loc	5 218 33 prologue_end           @ ../ThirdParty/STM32F4xx_HAL_Driver/Src/stm32f4xx_hal_pwr_ex.c:218:33
	str	r0, [r1]
	.loc	5 219 1                         @ ../ThirdParty/STM32F4xx_HAL_Driver/Src/stm32f4xx_hal_pwr_ex.c:219:1
	bx	lr
.Ltmp15:
.Lfunc_end3:
	.size	HAL_PWREx_DisableFlashPowerDown, .Lfunc_end3-HAL_PWREx_DisableFlashPowerDown
	.cfi_endproc
	.cantunwind
	.fnend
                                        @ -- End function
	.section	.text.HAL_PWREx_GetVoltageRange,"ax",%progbits
	.hidden	HAL_PWREx_GetVoltageRange       @ -- Begin function HAL_PWREx_GetVoltageRange
	.globl	HAL_PWREx_GetVoltageRange
	.p2align	2
	.type	HAL_PWREx_GetVoltageRange,%function
	.code	16                              @ @HAL_PWREx_GetVoltageRange
	.thumb_func
HAL_PWREx_GetVoltageRange:
.Lfunc_begin4:
	.loc	5 230 0                         @ ../ThirdParty/STM32F4xx_HAL_Driver/Src/stm32f4xx_hal_pwr_ex.c:230:0
	.fnstart
	.cfi_startproc
@ %bb.0:
	movw	r0, #28672
	movt	r0, #16384
.Ltmp16:
	.loc	5 231 16 prologue_end           @ ../ThirdParty/STM32F4xx_HAL_Driver/Src/stm32f4xx_hal_pwr_ex.c:231:16
	ldr	r0, [r0]
	.loc	5 231 19 is_stmt 0              @ ../ThirdParty/STM32F4xx_HAL_Driver/Src/stm32f4xx_hal_pwr_ex.c:231:19
	and	r0, r0, #16384
	.loc	5 231 3                         @ ../ThirdParty/STM32F4xx_HAL_Driver/Src/stm32f4xx_hal_pwr_ex.c:231:3
	bx	lr
.Ltmp17:
.Lfunc_end4:
	.size	HAL_PWREx_GetVoltageRange, .Lfunc_end4-HAL_PWREx_GetVoltageRange
	.cfi_endproc
	.cantunwind
	.fnend
                                        @ -- End function
	.section	.text.HAL_PWREx_ControlVoltageScaling,"ax",%progbits
	.hidden	HAL_PWREx_ControlVoltageScaling @ -- Begin function HAL_PWREx_ControlVoltageScaling
	.globl	HAL_PWREx_ControlVoltageScaling
	.p2align	2
	.type	HAL_PWREx_ControlVoltageScaling,%function
	.code	16                              @ @HAL_PWREx_ControlVoltageScaling
	.thumb_func
HAL_PWREx_ControlVoltageScaling:
.Lfunc_begin5:
	.loc	5 251 0 is_stmt 1               @ ../ThirdParty/STM32F4xx_HAL_Driver/Src/stm32f4xx_hal_pwr_ex.c:251:0
	.fnstart
	.cfi_startproc
@ %bb.0:
	.save	{r7, lr}
	push	{r7, lr}
	.cfi_def_cfa_offset 8
	.cfi_offset lr, -4
	.cfi_offset r7, -8
	.pad	#24
	sub	sp, #24
	.cfi_def_cfa_offset 32
	str	r0, [sp, #16]
	movs	r0, #0
.Ltmp18:
	.loc	5 252 12 prologue_end           @ ../ThirdParty/STM32F4xx_HAL_Driver/Src/stm32f4xx_hal_pwr_ex.c:252:12
	str	r0, [sp, #12]
	.loc	5 257 3                         @ ../ThirdParty/STM32F4xx_HAL_Driver/Src/stm32f4xx_hal_pwr_ex.c:257:3
	b	.LBB5_1
.LBB5_1:
	.loc	5 0 3 is_stmt 0                 @ ../ThirdParty/STM32F4xx_HAL_Driver/Src/stm32f4xx_hal_pwr_ex.c:0:3
	movs	r0, #0
.Ltmp19:
	.loc	5 257 3                         @ ../ThirdParty/STM32F4xx_HAL_Driver/Src/stm32f4xx_hal_pwr_ex.c:257:3
	str	r0, [sp, #8]
	movw	r0, #14400
	movt	r0, #16386
	ldr	r1, [r0]
	orr	r1, r1, #268435456
	str	r1, [r0]
	ldr	r0, [r0]
	and	r0, r0, #268435456
	str	r0, [sp, #8]
	ldr	r0, [sp, #8]
	b	.LBB5_2
.Ltmp20:
.LBB5_2:
	.loc	5 260 3 is_stmt 1               @ ../ThirdParty/STM32F4xx_HAL_Driver/Src/stm32f4xx_hal_pwr_ex.c:260:3
	b	.LBB5_3
.LBB5_3:
	.loc	5 0 3 is_stmt 0                 @ ../ThirdParty/STM32F4xx_HAL_Driver/Src/stm32f4xx_hal_pwr_ex.c:0:3
	movs	r0, #0
.Ltmp21:
	.loc	5 260 3                         @ ../ThirdParty/STM32F4xx_HAL_Driver/Src/stm32f4xx_hal_pwr_ex.c:260:3
	str	r0, [sp, #4]
	movw	r0, #28672
	movt	r0, #16384
	ldr	r1, [r0]
	bic	r1, r1, #16384
	ldr	r2, [sp, #16]
	orrs	r1, r2
	str	r1, [r0]
	ldr	r0, [r0]
	and	r0, r0, #16384
	str	r0, [sp, #4]
	ldr	r0, [sp, #4]
	b	.LBB5_4
.Ltmp22:
.LBB5_4:
	.loc	5 263 15 is_stmt 1              @ ../ThirdParty/STM32F4xx_HAL_Driver/Src/stm32f4xx_hal_pwr_ex.c:263:15
	bl	HAL_GetTick
	.loc	5 263 13 is_stmt 0              @ ../ThirdParty/STM32F4xx_HAL_Driver/Src/stm32f4xx_hal_pwr_ex.c:263:13
	str	r0, [sp, #12]
	.loc	5 264 3 is_stmt 1               @ ../ThirdParty/STM32F4xx_HAL_Driver/Src/stm32f4xx_hal_pwr_ex.c:264:3
	b	.LBB5_5
.LBB5_5:                                @ =>This Inner Loop Header: Depth=1
	.loc	5 0 3 is_stmt 0                 @ ../ThirdParty/STM32F4xx_HAL_Driver/Src/stm32f4xx_hal_pwr_ex.c:0:3
	movw	r0, #28676
	movt	r0, #16384
	.loc	5 264 10                        @ ../ThirdParty/STM32F4xx_HAL_Driver/Src/stm32f4xx_hal_pwr_ex.c:264:10
	ldr	r0, [r0]
	and	r1, r0, #16384
	movs	r0, #0
	.loc	5 264 3                         @ ../ThirdParty/STM32F4xx_HAL_Driver/Src/stm32f4xx_hal_pwr_ex.c:264:3
	cmp.w	r0, r1, lsr #14
	bne	.LBB5_9
	b	.LBB5_6
.LBB5_6:                                @   in Loop: Header=BB5_5 Depth=1
.Ltmp23:
	.loc	5 266 9 is_stmt 1               @ ../ThirdParty/STM32F4xx_HAL_Driver/Src/stm32f4xx_hal_pwr_ex.c:266:9
	bl	HAL_GetTick
	.loc	5 266 25 is_stmt 0              @ ../ThirdParty/STM32F4xx_HAL_Driver/Src/stm32f4xx_hal_pwr_ex.c:266:25
	ldr	r1, [sp, #12]
	.loc	5 266 23                        @ ../ThirdParty/STM32F4xx_HAL_Driver/Src/stm32f4xx_hal_pwr_ex.c:266:23
	subs	r0, r0, r1
.Ltmp24:
	.loc	5 266 8                         @ ../ThirdParty/STM32F4xx_HAL_Driver/Src/stm32f4xx_hal_pwr_ex.c:266:8
	cmp.w	r0, #1000
	bls	.LBB5_8
	b	.LBB5_7
.LBB5_7:
	.loc	5 0 8                           @ ../ThirdParty/STM32F4xx_HAL_Driver/Src/stm32f4xx_hal_pwr_ex.c:0:8
	movs	r0, #3
.Ltmp25:
	.loc	5 268 7 is_stmt 1               @ ../ThirdParty/STM32F4xx_HAL_Driver/Src/stm32f4xx_hal_pwr_ex.c:268:7
	strb.w	r0, [sp, #23]
	b	.LBB5_10
.Ltmp26:
.LBB5_8:                                @   in Loop: Header=BB5_5 Depth=1
	.loc	5 264 3                         @ ../ThirdParty/STM32F4xx_HAL_Driver/Src/stm32f4xx_hal_pwr_ex.c:264:3
	b	.LBB5_5
.LBB5_9:
	.loc	5 0 3 is_stmt 0                 @ ../ThirdParty/STM32F4xx_HAL_Driver/Src/stm32f4xx_hal_pwr_ex.c:0:3
	movs	r0, #0
	.loc	5 272 3 is_stmt 1               @ ../ThirdParty/STM32F4xx_HAL_Driver/Src/stm32f4xx_hal_pwr_ex.c:272:3
	strb.w	r0, [sp, #23]
	b	.LBB5_10
.LBB5_10:
	.loc	5 273 1                         @ ../ThirdParty/STM32F4xx_HAL_Driver/Src/stm32f4xx_hal_pwr_ex.c:273:1
	ldrb.w	r0, [sp, #23]
	.loc	5 273 1 epilogue_begin is_stmt 0 @ ../ThirdParty/STM32F4xx_HAL_Driver/Src/stm32f4xx_hal_pwr_ex.c:273:1
	add	sp, #24
	pop	{r7, pc}
.Ltmp27:
.Lfunc_end5:
	.size	HAL_PWREx_ControlVoltageScaling, .Lfunc_end5-HAL_PWREx_ControlVoltageScaling
	.cfi_endproc
	.cantunwind
	.fnend
                                        @ -- End function
	.section	".note.GNU-stack","",%progbits
	.eabi_attribute	30, 6	@ Tag_ABI_optimization_goals
	.ARM_attribute	16, 1	@ Tag_AV_eba