	.text
	.syntax unified
	.eabi_attribute	67, "2.09"	@ Tag_conformance
	.cpu	cortex-m4
	.eabi_attribute	6, 13	@ Tag_CPU_arch
	.eabi_attribute	7, 77	@ Tag_CPU_arch_profile
	.eabi_attribute	8, 0	@ Tag_ARM_ISA_use
	.eabi_attribute	9, 2	@ Tag_THUMB_ISA_use
	.fpu	fpv4-sp-d16
	.eabi_attribute	27, 1	@ Tag_ABI_HardFP_use
	.eabi_attribute	36, 1	@ Tag_FP_HP_extension
	.eabi_attribute	34, 1	@ Tag_CPU_unaligned_access
	.eabi_attribute	17, 1	@ Tag_ABI_PCS_GOT_use
	.eabi_attribute	20, 2	@ Tag_ABI_FP_denormal
	.eabi_attribute	21, 0	@ Tag_ABI_FP_exceptions
	.eabi_attribute	23, 1	@ Tag_ABI_FP_number_model
	.eabi_attribute	24, 1	@ Tag_ABI_align_needed
	.eabi_attribute	25, 1	@ Tag_ABI_align_preserved
	.eabi_attribute	28, 1	@ Tag_ABI_VFP_args
	.eabi_attribute	38, 1	@ Tag_ABI_FP_16bit_format
	.eabi_attribute	18, 2	@ Tag_ABI_PCS_wchar_t
	.eabi_attribute	26, 1	@ Tag_ABI_enum_size
	.eabi_attribute	14, 0	@ Tag_ABI_PCS_R9_use
	.file	"stm32f4xx_hal_rcc_ex.c"
	.file	1 "D:\\ikingtec\\Robot\\ODrive\\Firmware\\MDK-ARM" "../ThirdParty/STM32F4xx_HAL_Driver/Inc/stm32f4xx_hal_def.h"
	.file	2 "D:\\ikingtec\\Robot\\ODrive\\Firmware\\MDK-ARM" "../ThirdParty/CMSIS/Device/ST/STM32F4xx/Include\\stm32f4xx.h"
	.file	3 "D:\\Embed\\MDK\\MDK\\ARM\\ARMCompilerV621\\Bin\\..\\include" "stdint.h"
	.file	4 "D:\\ikingtec\\Robot\\ODrive\\Firmware\\MDK-ARM" "../ThirdParty/CMSIS/Device/ST/STM32F4xx/Include/stm32f405xx.h"
	.section	.text.HAL_RCCEx_PeriphCLKConfig,"ax",%progbits
	.hidden	HAL_RCCEx_PeriphCLKConfig       @ -- Begin function HAL_RCCEx_PeriphCLKConfig
	.globl	HAL_RCCEx_PeriphCLKConfig
	.p2align	2
	.type	HAL_RCCEx_PeriphCLKConfig,%function
	.code	16                              @ @HAL_RCCEx_PeriphCLKConfig
	.thumb_func
HAL_RCCEx_PeriphCLKConfig:
.Lfunc_begin0:
	.file	5 "D:\\ikingtec\\Robot\\ODrive\\Firmware\\MDK-ARM" "../ThirdParty/STM32F4xx_HAL_Driver/Src/stm32f4xx_hal_rcc_ex.c"
	.loc	5 2520 0                        @ ../ThirdParty/STM32F4xx_HAL_Driver/Src/stm32f4xx_hal_rcc_ex.c:2520:0
	.fnstart
	.cfi_sections .debug_frame
	.cfi_startproc
@ %bb.0:
	.save	{r7, lr}
	push	{r7, lr}
	.cfi_def_cfa_offset 8
	.cfi_offset lr, -4
	.cfi_offset r7, -8
	.pad	#24
	sub	sp, #24
	.cfi_def_cfa_offset 32
	str	r0, [sp, #16]
	movs	r0, #0
.Ltmp0:
	.loc	5 2521 12 prologue_end          @ ../ThirdParty/STM32F4xx_HAL_Driver/Src/stm32f4xx_hal_rcc_ex.c:2521:12
	str	r0, [sp, #12]
	.loc	5 2522 12                       @ ../ThirdParty/STM32F4xx_HAL_Driver/Src/stm32f4xx_hal_rcc_ex.c:2522:12
	str	r0, [sp, #8]
.Ltmp1:
	.loc	5 2528 9                        @ ../ThirdParty/STM32F4xx_HAL_Driver/Src/stm32f4xx_hal_rcc_ex.c:2528:9
	ldr	r0, [sp, #16]
	.loc	5 2528 89 is_stmt 0             @ ../ThirdParty/STM32F4xx_HAL_Driver/Src/stm32f4xx_hal_rcc_ex.c:2528:89
	ldrb	r0, [r0]
	lsls	r0, r0, #31
	cbnz	r0, .LBB0_2
	b	.LBB0_1
.LBB0_1:
	.loc	5 2529 9 is_stmt 1              @ ../ThirdParty/STM32F4xx_HAL_Driver/Src/stm32f4xx_hal_rcc_ex.c:2529:9
	ldr	r0, [sp, #16]
.Ltmp2:
	.loc	5 2528 6                        @ ../ThirdParty/STM32F4xx_HAL_Driver/Src/stm32f4xx_hal_rcc_ex.c:2528:6
	ldrb	r0, [r0]
	lsls	r0, r0, #29
	cmp	r0, #0
	bpl	.LBB0_13
	b	.LBB0_2
.LBB0_2:
	.loc	5 0 6 is_stmt 0                 @ ../ThirdParty/STM32F4xx_HAL_Driver/Src/stm32f4xx_hal_rcc_ex.c:0:6
	movs	r1, #104
	movt	r1, #16967
	movs	r0, #0
.Ltmp3:
	.loc	5 2538 5 is_stmt 1              @ ../ThirdParty/STM32F4xx_HAL_Driver/Src/stm32f4xx_hal_rcc_ex.c:2538:5
	str	r0, [r1]
	.loc	5 2540 17                       @ ../ThirdParty/STM32F4xx_HAL_Driver/Src/stm32f4xx_hal_rcc_ex.c:2540:17
	bl	HAL_GetTick
	.loc	5 2540 15 is_stmt 0             @ ../ThirdParty/STM32F4xx_HAL_Driver/Src/stm32f4xx_hal_rcc_ex.c:2540:15
	str	r0, [sp, #12]
	.loc	5 2542 5 is_stmt 1              @ ../ThirdParty/STM32F4xx_HAL_Driver/Src/stm32f4xx_hal_rcc_ex.c:2542:5
	b	.LBB0_3
.LBB0_3:                                @ =>This Inner Loop Header: Depth=1
	.loc	5 0 5 is_stmt 0                 @ ../ThirdParty/STM32F4xx_HAL_Driver/Src/stm32f4xx_hal_rcc_ex.c:0:5
	movw	r0, #14336
	movt	r0, #16386
	.loc	5 2542 11                       @ ../ThirdParty/STM32F4xx_HAL_Driver/Src/stm32f4xx_hal_rcc_ex.c:2542:11
	ldr	r0, [r0]
	and	r1, r0, #134217728
	movs	r0, #0
	.loc	5 2542 5                        @ ../ThirdParty/STM32F4xx_HAL_Driver/Src/stm32f4xx_hal_rcc_ex.c:2542:5
	cmp.w	r0, r1, lsr #27
	beq	.LBB0_7
	b	.LBB0_4
.LBB0_4:                                @   in Loop: Header=BB0_3 Depth=1
.Ltmp4:
	.loc	5 2544 11 is_stmt 1             @ ../ThirdParty/STM32F4xx_HAL_Driver/Src/stm32f4xx_hal_rcc_ex.c:2544:11
	bl	HAL_GetTick
	.loc	5 2544 27 is_stmt 0             @ ../ThirdParty/STM32F4xx_HAL_Driver/Src/stm32f4xx_hal_rcc_ex.c:2544:27
	ldr	r1, [sp, #12]
	.loc	5 2544 25                       @ ../ThirdParty/STM32F4xx_HAL_Driver/Src/stm32f4xx_hal_rcc_ex.c:2544:25
	subs	r0, r0, r1
.Ltmp5:
	.loc	5 2544 10                       @ ../ThirdParty/STM32F4xx_HAL_Driver/Src/stm32f4xx_hal_rcc_ex.c:2544:10
	cmp	r0, #3
	blo	.LBB0_6
	b	.LBB0_5
.LBB0_5:
	.loc	5 0 10                          @ ../ThirdParty/STM32F4xx_HAL_Driver/Src/stm32f4xx_hal_rcc_ex.c:0:10
	movs	r0, #3
.Ltmp6:
	.loc	5 2547 9 is_stmt 1              @ ../ThirdParty/STM32F4xx_HAL_Driver/Src/stm32f4xx_hal_rcc_ex.c:2547:9
	strb.w	r0, [sp, #23]
	b	.LBB0_38
.Ltmp7:
.LBB0_6:                                @   in Loop: Header=BB0_3 Depth=1
	.loc	5 2542 5                        @ ../ThirdParty/STM32F4xx_HAL_Driver/Src/stm32f4xx_hal_rcc_ex.c:2542:5
	b	.LBB0_3
.LBB0_7:
	.loc	5 2560 5                        @ ../ThirdParty/STM32F4xx_HAL_Driver/Src/stm32f4xx_hal_rcc_ex.c:2560:5
	ldr	r1, [sp, #16]
	ldr	r0, [r1, #4]
	ldr	r1, [r1, #8]
	lsls	r0, r0, #6
	orr.w	r0, r0, r1, lsl #28
	movw	r1, #14468
	movt	r1, #16386
	str	r0, [r1]
	movs	r1, #104
	movt	r1, #16967
	movs	r0, #1
	.loc	5 2564 5                        @ ../ThirdParty/STM32F4xx_HAL_Driver/Src/stm32f4xx_hal_rcc_ex.c:2564:5
	str	r0, [r1]
	.loc	5 2566 17                       @ ../ThirdParty/STM32F4xx_HAL_Driver/Src/stm32f4xx_hal_rcc_ex.c:2566:17
	bl	HAL_GetTick
	.loc	5 2566 15 is_stmt 0             @ ../ThirdParty/STM32F4xx_HAL_Driver/Src/stm32f4xx_hal_rcc_ex.c:2566:15
	str	r0, [sp, #12]
	.loc	5 2568 5 is_stmt 1              @ ../ThirdParty/STM32F4xx_HAL_Driver/Src/stm32f4xx_hal_rcc_ex.c:2568:5
	b	.LBB0_8
.LBB0_8:                                @ =>This Inner Loop Header: Depth=1
	.loc	5 0 5 is_stmt 0                 @ ../ThirdParty/STM32F4xx_HAL_Driver/Src/stm32f4xx_hal_rcc_ex.c:0:5
	movw	r0, #14336
	movt	r0, #16386
	.loc	5 2568 11                       @ ../ThirdParty/STM32F4xx_HAL_Driver/Src/stm32f4xx_hal_rcc_ex.c:2568:11
	ldr	r0, [r0]
	and	r1, r0, #134217728
	movs	r0, #0
	.loc	5 2568 5                        @ ../ThirdParty/STM32F4xx_HAL_Driver/Src/stm32f4xx_hal_rcc_ex.c:2568:5
	cmp.w	r0, r1, lsr #27
	bne	.LBB0_12
	b	.LBB0_9
.LBB0_9:                                @   in Loop: Header=BB0_8 Depth=1
.Ltmp8:
	.loc	5 2570 11 is_stmt 1             @ ../ThirdParty/STM32F4xx_HAL_Driver/Src/stm32f4xx_hal_rcc_ex.c:2570:11
	bl	HAL_GetTick
	.loc	5 2570 27 is_stmt 0             @ ../ThirdParty/STM32F4xx_HAL_Driver/Src/stm32f4xx_hal_rcc_ex.c:2570:27
	ldr	r1, [sp, #12]
	.loc	5 2570 25                       @ ../ThirdParty/STM32F4xx_HAL_Driver/Src/stm32f4xx_hal_rcc_ex.c:2570:25
	subs	r0, r0, r1
.Ltmp9:
	.loc	5 2570 10                       @ ../ThirdParty/STM32F4xx_HAL_Driver/Src/stm32f4xx_hal_rcc_ex.c:2570:10
	cmp	r0, #3
	blo	.LBB0_11
	b	.LBB0_10
.LBB0_10:
	.loc	5 0 10                          @ ../ThirdParty/STM32F4xx_HAL_Driver/Src/stm32f4xx_hal_rcc_ex.c:0:10
	movs	r0, #3
.Ltmp10:
	.loc	5 2573 9 is_stmt 1              @ ../ThirdParty/STM32F4xx_HAL_Driver/Src/stm32f4xx_hal_rcc_ex.c:2573:9
	strb.w	r0, [sp, #23]
	b	.LBB0_38
.Ltmp11:
.LBB0_11:                               @   in Loop: Header=BB0_8 Depth=1
	.loc	5 2568 5                        @ ../ThirdParty/STM32F4xx_HAL_Driver/Src/stm32f4xx_hal_rcc_ex.c:2568:5
	b	.LBB0_8
.LBB0_12:
	.loc	5 2576 3                        @ ../ThirdParty/STM32F4xx_HAL_Driver/Src/stm32f4xx_hal_rcc_ex.c:2576:3
	b	.LBB0_13
.Ltmp12:
.LBB0_13:
	.loc	5 2579 8                        @ ../ThirdParty/STM32F4xx_HAL_Driver/Src/stm32f4xx_hal_rcc_ex.c:2579:8
	ldr	r0, [sp, #16]
.Ltmp13:
	.loc	5 2579 6 is_stmt 0              @ ../ThirdParty/STM32F4xx_HAL_Driver/Src/stm32f4xx_hal_rcc_ex.c:2579:6
	ldrb	r0, [r0]
	lsls	r0, r0, #30
	cmp	r0, #0
	bpl.w	.LBB0_37
	b	.LBB0_14
.LBB0_14:
.Ltmp14:
	.loc	5 2585 5 is_stmt 1              @ ../ThirdParty/STM32F4xx_HAL_Driver/Src/stm32f4xx_hal_rcc_ex.c:2585:5
	b	.LBB0_15
.LBB0_15:
	.loc	5 0 5 is_stmt 0                 @ ../ThirdParty/STM32F4xx_HAL_Driver/Src/stm32f4xx_hal_rcc_ex.c:0:5
	movs	r0, #0
.Ltmp15:
	.loc	5 2585 5                        @ ../ThirdParty/STM32F4xx_HAL_Driver/Src/stm32f4xx_hal_rcc_ex.c:2585:5
	str	r0, [sp, #4]
	movw	r0, #14400
	movt	r0, #16386
	ldr	r1, [r0]
	orr	r1, r1, #268435456
	str	r1, [r0]
	ldr	r0, [r0]
	and	r0, r0, #268435456
	str	r0, [sp, #4]
	ldr	r0, [sp, #4]
	b	.LBB0_16
.Ltmp16:
.LBB0_16:
	.loc	5 0 5                           @ ../ThirdParty/STM32F4xx_HAL_Driver/Src/stm32f4xx_hal_rcc_ex.c:0:5
	movw	r1, #28672
	movt	r1, #16384
	.loc	5 2588 13 is_stmt 1             @ ../ThirdParty/STM32F4xx_HAL_Driver/Src/stm32f4xx_hal_rcc_ex.c:2588:13
	ldr	r0, [r1]
	orr	r0, r0, #256
	str	r0, [r1]
	.loc	5 2591 17                       @ ../ThirdParty/STM32F4xx_HAL_Driver/Src/stm32f4xx_hal_rcc_ex.c:2591:17
	bl	HAL_GetTick
	.loc	5 2591 15 is_stmt 0             @ ../ThirdParty/STM32F4xx_HAL_Driver/Src/stm32f4xx_hal_rcc_ex.c:2591:15
	str	r0, [sp, #12]
	.loc	5 2593 5 is_stmt 1              @ ../ThirdParty/STM32F4xx_HAL_Driver/Src/stm32f4xx_hal_rcc_ex.c:2593:5
	b	.LBB0_17
.LBB0_17:                               @ =>This Inner Loop Header: Depth=1
	.loc	5 0 5 is_stmt 0                 @ ../ThirdParty/STM32F4xx_HAL_Driver/Src/stm32f4xx_hal_rcc_ex.c:0:5
	movw	r0, #28672
	movt	r0, #16384
	.loc	5 2593 17                       @ ../ThirdParty/STM32F4xx_HAL_Driver/Src/stm32f4xx_hal_rcc_ex.c:2593:17
	ldr	r0, [r0]
	.loc	5 2593 5                        @ ../ThirdParty/STM32F4xx_HAL_Driver/Src/stm32f4xx_hal_rcc_ex.c:2593:5
	lsls	r0, r0, #23
	cmp	r0, #0
	bmi	.LBB0_21
	b	.LBB0_18
.LBB0_18:                               @   in Loop: Header=BB0_17 Depth=1
.Ltmp17:
	.loc	5 2595 11 is_stmt 1             @ ../ThirdParty/STM32F4xx_HAL_Driver/Src/stm32f4xx_hal_rcc_ex.c:2595:11
	bl	HAL_GetTick
	.loc	5 2595 27 is_stmt 0             @ ../ThirdParty/STM32F4xx_HAL_Driver/Src/stm32f4xx_hal_rcc_ex.c:2595:27
	ldr	r1, [sp, #12]
	.loc	5 2595 25                       @ ../ThirdParty/STM32F4xx_HAL_Driver/Src/stm32f4xx_hal_rcc_ex.c:2595:25
	subs	r0, r0, r1
.Ltmp18:
	.loc	5 2595 10                       @ ../ThirdParty/STM32F4xx_HAL_Driver/Src/stm32f4xx_hal_rcc_ex.c:2595:10
	cmp	r0, #3
	blo	.LBB0_20
	b	.LBB0_19
.LBB0_19:
	.loc	5 0 10                          @ ../ThirdParty/STM32F4xx_HAL_Driver/Src/stm32f4xx_hal_rcc_ex.c:0:10
	movs	r0, #3
.Ltmp19:
	.loc	5 2597 9 is_stmt 1              @ ../ThirdParty/STM32F4xx_HAL_Driver/Src/stm32f4xx_hal_rcc_ex.c:2597:9
	strb.w	r0, [sp, #23]
	b	.LBB0_38
.Ltmp20:
.LBB0_20:                               @   in Loop: Header=BB0_17 Depth=1
	.loc	5 2593 5                        @ ../ThirdParty/STM32F4xx_HAL_Driver/Src/stm32f4xx_hal_rcc_ex.c:2593:5
	b	.LBB0_17
.LBB0_21:
	.loc	5 0 5 is_stmt 0                 @ ../ThirdParty/STM32F4xx_HAL_Driver/Src/stm32f4xx_hal_rcc_ex.c:0:5
	movw	r0, #14448
	movt	r0, #16386
	.loc	5 2601 21 is_stmt 1             @ ../ThirdParty/STM32F4xx_HAL_Driver/Src/stm32f4xx_hal_rcc_ex.c:2601:21
	ldr	r0, [r0]
	.loc	5 2601 26 is_stmt 0             @ ../ThirdParty/STM32F4xx_HAL_Driver/Src/stm32f4xx_hal_rcc_ex.c:2601:26
	and	r0, r0, #768
	.loc	5 2601 13                       @ ../ThirdParty/STM32F4xx_HAL_Driver/Src/stm32f4xx_hal_rcc_ex.c:2601:13
	str	r0, [sp, #8]
.Ltmp21:
	.loc	5 2602 9 is_stmt 1              @ ../ThirdParty/STM32F4xx_HAL_Driver/Src/stm32f4xx_hal_rcc_ex.c:2602:9
	ldr	r0, [sp, #8]
	.loc	5 2602 33 is_stmt 0             @ ../ThirdParty/STM32F4xx_HAL_Driver/Src/stm32f4xx_hal_rcc_ex.c:2602:33
	cmp	r0, #0
	beq	.LBB0_31
	b	.LBB0_22
.LBB0_22:
	.loc	5 2602 38                       @ ../ThirdParty/STM32F4xx_HAL_Driver/Src/stm32f4xx_hal_rcc_ex.c:2602:38
	ldr	r0, [sp, #8]
	.loc	5 2602 51                       @ ../ThirdParty/STM32F4xx_HAL_Driver/Src/stm32f4xx_hal_rcc_ex.c:2602:51
	ldr	r1, [sp, #16]
	.loc	5 2602 66                       @ ../ThirdParty/STM32F4xx_HAL_Driver/Src/stm32f4xx_hal_rcc_ex.c:2602:66
	ldr	r1, [r1, #12]
	.loc	5 2602 84                       @ ../ThirdParty/STM32F4xx_HAL_Driver/Src/stm32f4xx_hal_rcc_ex.c:2602:84
	and	r1, r1, #768
.Ltmp22:
	.loc	5 2602 8                        @ ../ThirdParty/STM32F4xx_HAL_Driver/Src/stm32f4xx_hal_rcc_ex.c:2602:8
	cmp	r0, r1
	beq	.LBB0_31
	b	.LBB0_23
.LBB0_23:
	.loc	5 0 8                           @ ../ThirdParty/STM32F4xx_HAL_Driver/Src/stm32f4xx_hal_rcc_ex.c:0:8
	movw	r0, #14448
	movt	r0, #16386
.Ltmp23:
	.loc	5 2605 23 is_stmt 1             @ ../ThirdParty/STM32F4xx_HAL_Driver/Src/stm32f4xx_hal_rcc_ex.c:2605:23
	ldr	r1, [r0]
	.loc	5 2605 28 is_stmt 0             @ ../ThirdParty/STM32F4xx_HAL_Driver/Src/stm32f4xx_hal_rcc_ex.c:2605:28
	bic	r1, r1, #768
	.loc	5 2605 15                       @ ../ThirdParty/STM32F4xx_HAL_Driver/Src/stm32f4xx_hal_rcc_ex.c:2605:15
	str	r1, [sp, #8]
	movw	r2, #3648
	movt	r2, #16967
	movs	r1, #1
	.loc	5 2607 7 is_stmt 1              @ ../ThirdParty/STM32F4xx_HAL_Driver/Src/stm32f4xx_hal_rcc_ex.c:2607:7
	str	r1, [r2]
	movs	r1, #0
	.loc	5 2608 7                        @ ../ThirdParty/STM32F4xx_HAL_Driver/Src/stm32f4xx_hal_rcc_ex.c:2608:7
	str	r1, [r2]
	.loc	5 2610 19                       @ ../ThirdParty/STM32F4xx_HAL_Driver/Src/stm32f4xx_hal_rcc_ex.c:2610:19
	ldr	r1, [sp, #8]
	.loc	5 2610 17 is_stmt 0             @ ../ThirdParty/STM32F4xx_HAL_Driver/Src/stm32f4xx_hal_rcc_ex.c:2610:17
	str	r1, [r0]
.Ltmp24:
	.loc	5 2613 10 is_stmt 1             @ ../ThirdParty/STM32F4xx_HAL_Driver/Src/stm32f4xx_hal_rcc_ex.c:2613:10
	ldr	r0, [r0]
.Ltmp25:
	.loc	5 2613 10 is_stmt 0             @ ../ThirdParty/STM32F4xx_HAL_Driver/Src/stm32f4xx_hal_rcc_ex.c:2613:10
	lsls	r0, r0, #31
	cbz	r0, .LBB0_30
	b	.LBB0_24
.LBB0_24:
.Ltmp26:
	.loc	5 2616 21 is_stmt 1             @ ../ThirdParty/STM32F4xx_HAL_Driver/Src/stm32f4xx_hal_rcc_ex.c:2616:21
	bl	HAL_GetTick
	.loc	5 2616 19 is_stmt 0             @ ../ThirdParty/STM32F4xx_HAL_Driver/Src/stm32f4xx_hal_rcc_ex.c:2616:19
	str	r0, [sp, #12]
	.loc	5 2619 9 is_stmt 1              @ ../ThirdParty/STM32F4xx_HAL_Driver/Src/stm32f4xx_hal_rcc_ex.c:2619:9
	b	.LBB0_25
.LBB0_25:                               @ =>This Inner Loop Header: Depth=1
	.loc	5 0 9 is_stmt 0                 @ ../ThirdParty/STM32F4xx_HAL_Driver/Src/stm32f4xx_hal_rcc_ex.c:0:9
	movw	r0, #14448
	movt	r0, #16386
	.loc	5 2619 15                       @ ../ThirdParty/STM32F4xx_HAL_Driver/Src/stm32f4xx_hal_rcc_ex.c:2619:15
	ldr	r0, [r0]
	and	r1, r0, #2
	movs	r0, #0
	.loc	5 2619 9                        @ ../ThirdParty/STM32F4xx_HAL_Driver/Src/stm32f4xx_hal_rcc_ex.c:2619:9
	cmp.w	r0, r1, lsr #1
	bne	.LBB0_29
	b	.LBB0_26
.LBB0_26:                               @   in Loop: Header=BB0_25 Depth=1
.Ltmp27:
	.loc	5 2621 15 is_stmt 1             @ ../ThirdParty/STM32F4xx_HAL_Driver/Src/stm32f4xx_hal_rcc_ex.c:2621:15
	bl	HAL_GetTick
	.loc	5 2621 31 is_stmt 0             @ ../ThirdParty/STM32F4xx_HAL_Driver/Src/stm32f4xx_hal_rcc_ex.c:2621:31
	ldr	r1, [sp, #12]
	.loc	5 2621 29                       @ ../ThirdParty/STM32F4xx_HAL_Driver/Src/stm32f4xx_hal_rcc_ex.c:2621:29
	subs	r0, r0, r1
	movw	r1, #5001
.Ltmp28:
	.loc	5 2621 14                       @ ../ThirdParty/STM32F4xx_HAL_Driver/Src/stm32f4xx_hal_rcc_ex.c:2621:14
	cmp	r0, r1
	blo	.LBB0_28
	b	.LBB0_27
.LBB0_27:
	.loc	5 0 14                          @ ../ThirdParty/STM32F4xx_HAL_Driver/Src/stm32f4xx_hal_rcc_ex.c:0:14
	movs	r0, #3
.Ltmp29:
	.loc	5 2623 13 is_stmt 1             @ ../ThirdParty/STM32F4xx_HAL_Driver/Src/stm32f4xx_hal_rcc_ex.c:2623:13
	strb.w	r0, [sp, #23]
	b	.LBB0_38
.Ltmp30:
.LBB0_28:                               @   in Loop: Header=BB0_25 Depth=1
	.loc	5 2619 9                        @ ../ThirdParty/STM32F4xx_HAL_Driver/Src/stm32f4xx_hal_rcc_ex.c:2619:9
	b	.LBB0_25
.LBB0_29:
	.loc	5 2626 7                        @ ../ThirdParty/STM32F4xx_HAL_Driver/Src/stm32f4xx_hal_rcc_ex.c:2626:7
	b	.LBB0_30
.Ltmp31:
.LBB0_30:
	.loc	5 2627 5                        @ ../ThirdParty/STM32F4xx_HAL_Driver/Src/stm32f4xx_hal_rcc_ex.c:2627:5
	b	.LBB0_31
.Ltmp32:
.LBB0_31:
	.loc	5 2628 5                        @ ../ThirdParty/STM32F4xx_HAL_Driver/Src/stm32f4xx_hal_rcc_ex.c:2628:5
	b	.LBB0_32
.LBB0_32:
.Ltmp33:
	.loc	5 2628 5 is_stmt 0              @ ../ThirdParty/STM32F4xx_HAL_Driver/Src/stm32f4xx_hal_rcc_ex.c:2628:5
	ldr	r0, [sp, #16]
	ldr	r0, [r0, #12]
	and	r0, r0, #768
	cmp.w	r0, #768
	bne	.LBB0_34
	b	.LBB0_33
.LBB0_33:
	.loc	5 0 5                           @ ../ThirdParty/STM32F4xx_HAL_Driver/Src/stm32f4xx_hal_rcc_ex.c:0:5
	movw	r1, #14344
	movt	r1, #16386
	.loc	5 2628 5                        @ ../ThirdParty/STM32F4xx_HAL_Driver/Src/stm32f4xx_hal_rcc_ex.c:2628:5
	ldr	r0, [r1]
	bic	r0, r0, #2031616
	ldr	r2, [sp, #16]
	ldr	r2, [r2, #12]
	movw	r3, #64767
	movt	r3, #4095
	ands	r2, r3
	orrs	r0, r2
                                        @ kill: def $r2 killed $r0
	str	r0, [r1]
	b	.LBB0_35
.LBB0_34:
	.loc	5 0 5                           @ ../ThirdParty/STM32F4xx_HAL_Driver/Src/stm32f4xx_hal_rcc_ex.c:0:5
	movw	r1, #14344
	movt	r1, #16386
	.loc	5 2628 5                        @ ../ThirdParty/STM32F4xx_HAL_Driver/Src/stm32f4xx_hal_rcc_ex.c:2628:5
	ldr	r0, [r1]
	bic	r0, r0, #2031616
                                        @ kill: def $r2 killed $r0
	str	r0, [r1]
	b	.LBB0_35
.LBB0_35:
	ldr	r0, [sp, #16]
	ldr	r2, [r0, #12]
	bfc	r2, #12, #20
	movw	r1, #14448
	movt	r1, #16386
	ldr	r0, [r1]
	orrs	r0, r2
	str	r0, [r1]
	b	.LBB0_36
.Ltmp34:
.LBB0_36:
	.loc	5 2629 3 is_stmt 1              @ ../ThirdParty/STM32F4xx_HAL_Driver/Src/stm32f4xx_hal_rcc_ex.c:2629:3
	b	.LBB0_37
.Ltmp35:
.LBB0_37:
	.loc	5 0 3 is_stmt 0                 @ ../ThirdParty/STM32F4xx_HAL_Driver/Src/stm32f4xx_hal_rcc_ex.c:0:3
	movs	r0, #0
	.loc	5 2637 3 is_stmt 1              @ ../ThirdParty/STM32F4xx_HAL_Driver/Src/stm32f4xx_hal_rcc_ex.c:2637:3
	strb.w	r0, [sp, #23]
	b	.LBB0_38
.LBB0_38:
	.loc	5 2638 1                        @ ../ThirdParty/STM32F4xx_HAL_Driver/Src/stm32f4xx_hal_rcc_ex.c:2638:1
	ldrb.w	r0, [sp, #23]
	.loc	5 2638 1 epilogue_begin is_stmt 0 @ ../ThirdParty/STM32F4xx_HAL_Driver/Src/stm32f4xx_hal_rcc_ex.c:2638:1
	add	sp, #24
	pop	{r7, pc}
.Ltmp36:
.Lfunc_end0:
	.size	HAL_RCCEx_PeriphCLKConfig, .Lfunc_end0-HAL_RCCEx_PeriphCLKConfig
	.cfi_endproc
	.cantunwind
	.fnend
                                        @ -- End function
	.section	.text.HAL_RCCEx_GetPeriphCLKConfig,"ax",%progbits
	.hidden	HAL_RCCEx_GetPeriphCLKConfig    @ -- Begin function HAL_RCCEx_GetPeriphCLKConfig
	.globl	HAL_RCCEx_GetPeriphCLKConfig
	.p2align	2
	.type	HAL_RCCEx_GetPeriphCLKConfig,%function
	.code	16                              @ @HAL_RCCEx_GetPeriphCLKConfig
	.thumb_func
HAL_RCCEx_GetPeriphCLKConfig:
.Lfunc_begin1:
	.loc	5 2648 0 is_stmt 1              @ ../ThirdParty/STM32F4xx_HAL_Driver/Src/stm32f4xx_hal_rcc_ex.c:2648:0
	.fnstart
	.cfi_startproc
@ %bb.0:
	.pad	#8
	sub	sp, #8
	.cfi_def_cfa_offset 8
	str	r0, [sp, #4]
.Ltmp37:
	.loc	5 2652 3 prologue_end           @ ../ThirdParty/STM32F4xx_HAL_Driver/Src/stm32f4xx_hal_rcc_ex.c:2652:3
	ldr	r1, [sp, #4]
	movs	r0, #3
	.loc	5 2652 39 is_stmt 0             @ ../ThirdParty/STM32F4xx_HAL_Driver/Src/stm32f4xx_hal_rcc_ex.c:2652:39
	str	r0, [r1]
	movw	r0, #14468
	movt	r0, #16386
	.loc	5 2655 52 is_stmt 1             @ ../ThirdParty/STM32F4xx_HAL_Driver/Src/stm32f4xx_hal_rcc_ex.c:2655:52
	ldr	r1, [r0]
	.loc	5 2655 89 is_stmt 0             @ ../ThirdParty/STM32F4xx_HAL_Driver/Src/stm32f4xx_hal_rcc_ex.c:2655:89
	ubfx	r1, r1, #6, #9
	.loc	5 2655 3                        @ ../ThirdParty/STM32F4xx_HAL_Driver/Src/stm32f4xx_hal_rcc_ex.c:2655:3
	ldr	r2, [sp, #4]
	.loc	5 2655 33                       @ ../ThirdParty/STM32F4xx_HAL_Driver/Src/stm32f4xx_hal_rcc_ex.c:2655:33
	str	r1, [r2, #4]
	.loc	5 2656 52 is_stmt 1             @ ../ThirdParty/STM32F4xx_HAL_Driver/Src/stm32f4xx_hal_rcc_ex.c:2656:52
	ldr	r0, [r0]
	.loc	5 2656 89 is_stmt 0             @ ../ThirdParty/STM32F4xx_HAL_Driver/Src/stm32f4xx_hal_rcc_ex.c:2656:89
	ubfx	r0, r0, #28, #3
	.loc	5 2656 3                        @ ../ThirdParty/STM32F4xx_HAL_Driver/Src/stm32f4xx_hal_rcc_ex.c:2656:3
	ldr	r1, [sp, #4]
	.loc	5 2656 33                       @ ../ThirdParty/STM32F4xx_HAL_Driver/Src/stm32f4xx_hal_rcc_ex.c:2656:33
	str	r0, [r1, #8]
	movw	r0, #14344
	movt	r0, #16386
	.loc	5 2661 19 is_stmt 1             @ ../ThirdParty/STM32F4xx_HAL_Driver/Src/stm32f4xx_hal_rcc_ex.c:2661:19
	ldr	r0, [r0]
	.loc	5 2661 24 is_stmt 0             @ ../ThirdParty/STM32F4xx_HAL_Driver/Src/stm32f4xx_hal_rcc_ex.c:2661:24
	and	r0, r0, #2031616
	.loc	5 2661 11                       @ ../ThirdParty/STM32F4xx_HAL_Driver/Src/stm32f4xx_hal_rcc_ex.c:2661:11
	str	r0, [sp]
	.loc	5 2662 50 is_stmt 1             @ ../ThirdParty/STM32F4xx_HAL_Driver/Src/stm32f4xx_hal_rcc_ex.c:2662:50
	ldr	r0, [sp]
	movw	r1, #14448
	movt	r1, #16386
	.loc	5 2662 67 is_stmt 0             @ ../ThirdParty/STM32F4xx_HAL_Driver/Src/stm32f4xx_hal_rcc_ex.c:2662:67
	ldr	r1, [r1]
	.loc	5 2662 72                       @ ../ThirdParty/STM32F4xx_HAL_Driver/Src/stm32f4xx_hal_rcc_ex.c:2662:72
	and	r1, r1, #768
	.loc	5 2662 59                       @ ../ThirdParty/STM32F4xx_HAL_Driver/Src/stm32f4xx_hal_rcc_ex.c:2662:59
	orrs	r0, r1
	.loc	5 2662 3                        @ ../ThirdParty/STM32F4xx_HAL_Driver/Src/stm32f4xx_hal_rcc_ex.c:2662:3
	ldr	r1, [sp, #4]
	.loc	5 2662 36                       @ ../ThirdParty/STM32F4xx_HAL_Driver/Src/stm32f4xx_hal_rcc_ex.c:2662:36
	str	r0, [r1, #12]
	.loc	5 2675 1 epilogue_begin is_stmt 1 @ ../ThirdParty/STM32F4xx_HAL_Driver/Src/stm32f4xx_hal_rcc_ex.c:2675:1
	add	sp, #8
	bx	lr
.Ltmp38:
.Lfunc_end1:
	.size	HAL_RCCEx_GetPeriphCLKConfig, .Lfunc_end1-HAL_RCCEx_GetPeriphCLKConfig
	.cfi_endproc
	.cantunwind
	.fnend
                                        @ -- End function
	.section	.text.HAL_RCCEx_GetPeriphCLKFreq,"ax",%progbits
	.hidden	HAL_RCCEx_GetPeriphCLKFreq      @ -- Begin function HAL_RCCEx_GetPeriphCLKFreq
	.globl	HAL_RCCEx_GetPeriphCLKFreq
	.p2align	2
	.type	HAL_RCCEx_GetPeriphCLKFreq,%function
	.code	16                              @ @HAL_RCCEx_GetPeriphCLKFreq
	.thumb_func
HAL_RCCEx_GetPeriphCLKFreq:
.Lfunc_begin2:
	.loc	5 2686 0                        @ ../ThirdParty/STM32F4xx_HAL_Driver/Src/stm32f4xx_hal_rcc_ex.c:2686:0
	.fnstart
	.cfi_startproc
@ %bb.0:
	.pad	#24
	sub	sp, #24
	.cfi_def_cfa_offset 24
	str	r0, [sp, #20]
	movs	r0, #0
.Ltmp39:
	.loc	5 2688 12 prologue_end          @ ../ThirdParty/STM32F4xx_HAL_Driver/Src/stm32f4xx_hal_rcc_ex.c:2688:12
	str	r0, [sp, #16]
	.loc	5 2690 12                       @ ../ThirdParty/STM32F4xx_HAL_Driver/Src/stm32f4xx_hal_rcc_ex.c:2690:12
	str	r0, [sp, #12]
	.loc	5 2691 12                       @ ../ThirdParty/STM32F4xx_HAL_Driver/Src/stm32f4xx_hal_rcc_ex.c:2691:12
	str	r0, [sp, #8]
	.loc	5 2693 12                       @ ../ThirdParty/STM32F4xx_HAL_Driver/Src/stm32f4xx_hal_rcc_ex.c:2693:12
	str	r0, [sp, #4]
	.loc	5 2694 11                       @ ../ThirdParty/STM32F4xx_HAL_Driver/Src/stm32f4xx_hal_rcc_ex.c:2694:11
	ldr	r0, [sp, #20]
	.loc	5 2694 3 is_stmt 0              @ ../ThirdParty/STM32F4xx_HAL_Driver/Src/stm32f4xx_hal_rcc_ex.c:2694:3
	cmp	r0, #1
	bne	.LBB2_10
	b	.LBB2_1
.LBB2_1:
	.loc	5 0 3                           @ ../ThirdParty/STM32F4xx_HAL_Driver/Src/stm32f4xx_hal_rcc_ex.c:0:3
	movw	r0, #14344
	movt	r0, #16386
.Ltmp40:
	.loc	5 2699 16 is_stmt 1             @ ../ThirdParty/STM32F4xx_HAL_Driver/Src/stm32f4xx_hal_rcc_ex.c:2699:16
	ldr	r0, [r0]
	and	r0, r0, #8388608
	.loc	5 2699 14 is_stmt 0             @ ../ThirdParty/STM32F4xx_HAL_Driver/Src/stm32f4xx_hal_rcc_ex.c:2699:14
	str	r0, [sp, #8]
	.loc	5 2700 15 is_stmt 1             @ ../ThirdParty/STM32F4xx_HAL_Driver/Src/stm32f4xx_hal_rcc_ex.c:2700:15
	ldr	r0, [sp, #8]
	.loc	5 2700 7 is_stmt 0              @ ../ThirdParty/STM32F4xx_HAL_Driver/Src/stm32f4xx_hal_rcc_ex.c:2700:7
	str	r0, [sp]                        @ 4-byte Spill
	cbz	r0, .LBB2_4
	b	.LBB2_2
.LBB2_2:
	ldr	r0, [sp]                        @ 4-byte Reload
	cmp	r0, #1
	bne	.LBB2_8
	b	.LBB2_3
.LBB2_3:
	.loc	5 0 7                           @ ../ThirdParty/STM32F4xx_HAL_Driver/Src/stm32f4xx_hal_rcc_ex.c:0:7
	movw	r0, #32768
	movt	r0, #187
.Ltmp41:
	.loc	5 2706 21 is_stmt 1             @ ../ThirdParty/STM32F4xx_HAL_Driver/Src/stm32f4xx_hal_rcc_ex.c:2706:21
	str	r0, [sp, #16]
	.loc	5 2707 11                       @ ../ThirdParty/STM32F4xx_HAL_Driver/Src/stm32f4xx_hal_rcc_ex.c:2707:11
	b	.LBB2_9
.Ltmp42:
.LBB2_4:
	.loc	5 0 11 is_stmt 0                @ ../ThirdParty/STM32F4xx_HAL_Driver/Src/stm32f4xx_hal_rcc_ex.c:0:11
	movw	r0, #14340
	movt	r0, #16386
.Ltmp43:
	.loc	5 2728 20 is_stmt 1             @ ../ThirdParty/STM32F4xx_HAL_Driver/Src/stm32f4xx_hal_rcc_ex.c:2728:20
	ldr	r0, [r0]
.Ltmp44:
	.loc	5 2728 14 is_stmt 0             @ ../ThirdParty/STM32F4xx_HAL_Driver/Src/stm32f4xx_hal_rcc_ex.c:2728:14
	lsls	r0, r0, #9
	cmp	r0, #0
	bpl	.LBB2_6
	b	.LBB2_5
.LBB2_5:
	.loc	5 0 14                          @ ../ThirdParty/STM32F4xx_HAL_Driver/Src/stm32f4xx_hal_rcc_ex.c:0:14
	movw	r0, #14340
	movt	r0, #16386
.Ltmp45:
	.loc	5 2731 63 is_stmt 1             @ ../ThirdParty/STM32F4xx_HAL_Driver/Src/stm32f4xx_hal_rcc_ex.c:2731:63
	ldr	r0, [r0]
	.loc	5 2731 71 is_stmt 0             @ ../ThirdParty/STM32F4xx_HAL_Driver/Src/stm32f4xx_hal_rcc_ex.c:2731:71
	and	r1, r0, #63
	movw	r0, #4608
	movt	r0, #122
	.loc	5 2731 45                       @ ../ThirdParty/STM32F4xx_HAL_Driver/Src/stm32f4xx_hal_rcc_ex.c:2731:45
	udiv	r0, r0, r1
	.loc	5 2731 22                       @ ../ThirdParty/STM32F4xx_HAL_Driver/Src/stm32f4xx_hal_rcc_ex.c:2731:22
	str	r0, [sp, #12]
	.loc	5 2732 11 is_stmt 1             @ ../ThirdParty/STM32F4xx_HAL_Driver/Src/stm32f4xx_hal_rcc_ex.c:2732:11
	b	.LBB2_7
.Ltmp46:
.LBB2_6:
	.loc	5 0 11 is_stmt 0                @ ../ThirdParty/STM32F4xx_HAL_Driver/Src/stm32f4xx_hal_rcc_ex.c:0:11
	movw	r0, #14340
	movt	r0, #16386
.Ltmp47:
	.loc	5 2736 63 is_stmt 1             @ ../ThirdParty/STM32F4xx_HAL_Driver/Src/stm32f4xx_hal_rcc_ex.c:2736:63
	ldr	r0, [r0]
	.loc	5 2736 71 is_stmt 0             @ ../ThirdParty/STM32F4xx_HAL_Driver/Src/stm32f4xx_hal_rcc_ex.c:2736:71
	and	r1, r0, #63
	movw	r0, #9216
	movt	r0, #244
	.loc	5 2736 45                       @ ../ThirdParty/STM32F4xx_HAL_Driver/Src/stm32f4xx_hal_rcc_ex.c:2736:45
	udiv	r0, r0, r1
	.loc	5 2736 22                       @ ../ThirdParty/STM32F4xx_HAL_Driver/Src/stm32f4xx_hal_rcc_ex.c:2736:22
	str	r0, [sp, #12]
	b	.LBB2_7
.Ltmp48:
.LBB2_7:
	.loc	5 2740 34 is_stmt 1             @ ../ThirdParty/STM32F4xx_HAL_Driver/Src/stm32f4xx_hal_rcc_ex.c:2740:34
	ldr	r0, [sp, #12]
	movw	r1, #14468
	movt	r1, #16386
	.loc	5 2740 53 is_stmt 0             @ ../ThirdParty/STM32F4xx_HAL_Driver/Src/stm32f4xx_hal_rcc_ex.c:2740:53
	ldr	r2, [r1]
	.loc	5 2740 90                       @ ../ThirdParty/STM32F4xx_HAL_Driver/Src/stm32f4xx_hal_rcc_ex.c:2740:90
	ubfx	r2, r2, #6, #9
	.loc	5 2740 43                       @ ../ThirdParty/STM32F4xx_HAL_Driver/Src/stm32f4xx_hal_rcc_ex.c:2740:43
	muls	r0, r2, r0
	.loc	5 2740 21                       @ ../ThirdParty/STM32F4xx_HAL_Driver/Src/stm32f4xx_hal_rcc_ex.c:2740:21
	str	r0, [sp, #4]
	.loc	5 2742 34 is_stmt 1             @ ../ThirdParty/STM32F4xx_HAL_Driver/Src/stm32f4xx_hal_rcc_ex.c:2742:34
	ldr	r0, [sp, #4]
	.loc	5 2742 53 is_stmt 0             @ ../ThirdParty/STM32F4xx_HAL_Driver/Src/stm32f4xx_hal_rcc_ex.c:2742:53
	ldr	r1, [r1]
	.loc	5 2742 90                       @ ../ThirdParty/STM32F4xx_HAL_Driver/Src/stm32f4xx_hal_rcc_ex.c:2742:90
	ubfx	r1, r1, #28, #3
	.loc	5 2742 44                       @ ../ThirdParty/STM32F4xx_HAL_Driver/Src/stm32f4xx_hal_rcc_ex.c:2742:44
	udiv	r0, r0, r1
	.loc	5 2742 21                       @ ../ThirdParty/STM32F4xx_HAL_Driver/Src/stm32f4xx_hal_rcc_ex.c:2742:21
	str	r0, [sp, #16]
	.loc	5 2743 11 is_stmt 1             @ ../ThirdParty/STM32F4xx_HAL_Driver/Src/stm32f4xx_hal_rcc_ex.c:2743:11
	b	.LBB2_9
.Ltmp49:
.LBB2_8:
	.loc	5 0 11 is_stmt 0                @ ../ThirdParty/STM32F4xx_HAL_Driver/Src/stm32f4xx_hal_rcc_ex.c:0:11
	movs	r0, #0
.Ltmp50:
	.loc	5 2748 21 is_stmt 1             @ ../ThirdParty/STM32F4xx_HAL_Driver/Src/stm32f4xx_hal_rcc_ex.c:2748:21
	str	r0, [sp, #16]
	.loc	5 2749 11                       @ ../ThirdParty/STM32F4xx_HAL_Driver/Src/stm32f4xx_hal_rcc_ex.c:2749:11
	b	.LBB2_9
.Ltmp51:
.LBB2_9:
	.loc	5 2752 7                        @ ../ThirdParty/STM32F4xx_HAL_Driver/Src/stm32f4xx_hal_rcc_ex.c:2752:7
	b	.LBB2_10
.Ltmp52:
.LBB2_10:
	.loc	5 2755 10                       @ ../ThirdParty/STM32F4xx_HAL_Driver/Src/stm32f4xx_hal_rcc_ex.c:2755:10
	ldr	r0, [sp, #16]
	.loc	5 2755 3 epilogue_begin is_stmt 0 @ ../ThirdParty/STM32F4xx_HAL_Driver/Src/stm32f4xx_hal_rcc_ex.c:2755:3
	add	sp, #24
	bx	lr
.Ltmp53:
.Lfunc_end2:
	.size	HAL_RCCEx_GetPeriphCLKFreq, .Lfunc_end2-HAL_RCCEx_GetPeriphCLKFreq
	.cfi_endproc
	.cantunwind
	.fnend
                                        @ -- End function
	.section	.text.HAL_RCCEx_EnablePLLI2S,"ax",%progbits
	.hidden	HAL_RCCEx_EnablePLLI2S          @ -- Begin function HAL_RCCEx_EnablePLLI2S
	.globl	HAL_RCCEx_EnablePLLI2S
	.p2align	2
	.type	HAL_RCCEx_EnablePLLI2S,%function
	.code	16                              @ @HAL_RCCEx_EnablePLLI2S
	.thumb_func
HAL_RCCEx_EnablePLLI2S:
.Lfunc_begin3:
	.loc	5 2810 0 is_stmt 1              @ ../ThirdParty/STM32F4xx_HAL_Driver/Src/stm32f4xx_hal_rcc_ex.c:2810:0
	.fnstart
	.cfi_startproc
@ %bb.0:
	.save	{r7, lr}
	push	{r7, lr}
	.cfi_def_cfa_offset 8
	.cfi_offset lr, -4
	.cfi_offset r7, -8
	.pad	#16
	sub	sp, #16
	.cfi_def_cfa_offset 24
	str	r0, [sp, #8]
	movs	r1, #104
	movt	r1, #16967
	movs	r0, #0
.Ltmp54:
	.loc	5 2827 3 prologue_end           @ ../ThirdParty/STM32F4xx_HAL_Driver/Src/stm32f4xx_hal_rcc_ex.c:2827:3
	str	r0, [r1]
	.loc	5 2830 15                       @ ../ThirdParty/STM32F4xx_HAL_Driver/Src/stm32f4xx_hal_rcc_ex.c:2830:15
	bl	HAL_GetTick
	.loc	5 2830 13 is_stmt 0             @ ../ThirdParty/STM32F4xx_HAL_Driver/Src/stm32f4xx_hal_rcc_ex.c:2830:13
	str	r0, [sp, #4]
	.loc	5 2831 3 is_stmt 1              @ ../ThirdParty/STM32F4xx_HAL_Driver/Src/stm32f4xx_hal_rcc_ex.c:2831:3
	b	.LBB3_1
.LBB3_1:                                @ =>This Inner Loop Header: Depth=1
	.loc	5 0 3 is_stmt 0                 @ ../ThirdParty/STM32F4xx_HAL_Driver/Src/stm32f4xx_hal_rcc_ex.c:0:3
	movw	r0, #14336
	movt	r0, #16386
	.loc	5 2831 9                        @ ../ThirdParty/STM32F4xx_HAL_Driver/Src/stm32f4xx_hal_rcc_ex.c:2831:9
	ldr	r0, [r0]
	and	r1, r0, #134217728
	movs	r0, #0
	.loc	5 2831 3                        @ ../ThirdParty/STM32F4xx_HAL_Driver/Src/stm32f4xx_hal_rcc_ex.c:2831:3
	cmp.w	r0, r1, lsr #27
	beq	.LBB3_5
	b	.LBB3_2
.LBB3_2:                                @   in Loop: Header=BB3_1 Depth=1
.Ltmp55:
	.loc	5 2833 9 is_stmt 1              @ ../ThirdParty/STM32F4xx_HAL_Driver/Src/stm32f4xx_hal_rcc_ex.c:2833:9
	bl	HAL_GetTick
	.loc	5 2833 25 is_stmt 0             @ ../ThirdParty/STM32F4xx_HAL_Driver/Src/stm32f4xx_hal_rcc_ex.c:2833:25
	ldr	r1, [sp, #4]
	.loc	5 2833 23                       @ ../ThirdParty/STM32F4xx_HAL_Driver/Src/stm32f4xx_hal_rcc_ex.c:2833:23
	subs	r0, r0, r1
.Ltmp56:
	.loc	5 2833 8                        @ ../ThirdParty/STM32F4xx_HAL_Driver/Src/stm32f4xx_hal_rcc_ex.c:2833:8
	cmp	r0, #3
	blo	.LBB3_4
	b	.LBB3_3
.LBB3_3:
	.loc	5 0 8                           @ ../ThirdParty/STM32F4xx_HAL_Driver/Src/stm32f4xx_hal_rcc_ex.c:0:8
	movs	r0, #3
.Ltmp57:
	.loc	5 2836 7 is_stmt 1              @ ../ThirdParty/STM32F4xx_HAL_Driver/Src/stm32f4xx_hal_rcc_ex.c:2836:7
	strb.w	r0, [sp, #15]
	b	.LBB3_11
.Ltmp58:
.LBB3_4:                                @   in Loop: Header=BB3_1 Depth=1
	.loc	5 2831 3                        @ ../ThirdParty/STM32F4xx_HAL_Driver/Src/stm32f4xx_hal_rcc_ex.c:2831:3
	b	.LBB3_1
.LBB3_5:
	.loc	5 2868 3                        @ ../ThirdParty/STM32F4xx_HAL_Driver/Src/stm32f4xx_hal_rcc_ex.c:2868:3
	ldr	r1, [sp, #8]
	ldr	r0, [r1]
	ldr	r1, [r1, #4]
	lsls	r0, r0, #6
	orr.w	r0, r0, r1, lsl #28
	movw	r1, #14468
	movt	r1, #16386
	str	r0, [r1]
	movs	r1, #104
	movt	r1, #16967
	movs	r0, #1
	.loc	5 2872 3                        @ ../ThirdParty/STM32F4xx_HAL_Driver/Src/stm32f4xx_hal_rcc_ex.c:2872:3
	str	r0, [r1]
	.loc	5 2875 15                       @ ../ThirdParty/STM32F4xx_HAL_Driver/Src/stm32f4xx_hal_rcc_ex.c:2875:15
	bl	HAL_GetTick
	.loc	5 2875 13 is_stmt 0             @ ../ThirdParty/STM32F4xx_HAL_Driver/Src/stm32f4xx_hal_rcc_ex.c:2875:13
	str	r0, [sp, #4]
	.loc	5 2876 3 is_stmt 1              @ ../ThirdParty/STM32F4xx_HAL_Driver/Src/stm32f4xx_hal_rcc_ex.c:2876:3
	b	.LBB3_6
.LBB3_6:                                @ =>This Inner Loop Header: Depth=1
	.loc	5 0 3 is_stmt 0                 @ ../ThirdParty/STM32F4xx_HAL_Driver/Src/stm32f4xx_hal_rcc_ex.c:0:3
	movw	r0, #14336
	movt	r0, #16386
	.loc	5 2876 9                        @ ../ThirdParty/STM32F4xx_HAL_Driver/Src/stm32f4xx_hal_rcc_ex.c:2876:9
	ldr	r0, [r0]
	and	r1, r0, #134217728
	movs	r0, #0
	.loc	5 2876 3                        @ ../ThirdParty/STM32F4xx_HAL_Driver/Src/stm32f4xx_hal_rcc_ex.c:2876:3
	cmp.w	r0, r1, lsr #27
	bne	.LBB3_10
	b	.LBB3_7
.LBB3_7:                                @   in Loop: Header=BB3_6 Depth=1
.Ltmp59:
	.loc	5 2878 9 is_stmt 1              @ ../ThirdParty/STM32F4xx_HAL_Driver/Src/stm32f4xx_hal_rcc_ex.c:2878:9
	bl	HAL_GetTick
	.loc	5 2878 25 is_stmt 0             @ ../ThirdParty/STM32F4xx_HAL_Driver/Src/stm32f4xx_hal_rcc_ex.c:2878:25
	ldr	r1, [sp, #4]
	.loc	5 2878 23                       @ ../ThirdParty/STM32F4xx_HAL_Driver/Src/stm32f4xx_hal_rcc_ex.c:2878:23
	subs	r0, r0, r1
.Ltmp60:
	.loc	5 2878 8                        @ ../ThirdParty/STM32F4xx_HAL_Driver/Src/stm32f4xx_hal_rcc_ex.c:2878:8
	cmp	r0, #3
	blo	.LBB3_9
	b	.LBB3_8
.LBB3_8:
	.loc	5 0 8                           @ ../ThirdParty/STM32F4xx_HAL_Driver/Src/stm32f4xx_hal_rcc_ex.c:0:8
	movs	r0, #3
.Ltmp61:
	.loc	5 2881 7 is_stmt 1              @ ../ThirdParty/STM32F4xx_HAL_Driver/Src/stm32f4xx_hal_rcc_ex.c:2881:7
	strb.w	r0, [sp, #15]
	b	.LBB3_11
.Ltmp62:
.LBB3_9:                                @   in Loop: Header=BB3_6 Depth=1
	.loc	5 2876 3                        @ ../ThirdParty/STM32F4xx_HAL_Driver/Src/stm32f4xx_hal_rcc_ex.c:2876:3
	b	.LBB3_6
.LBB3_10:
	.loc	5 0 3 is_stmt 0                 @ ../ThirdParty/STM32F4xx_HAL_Driver/Src/stm32f4xx_hal_rcc_ex.c:0:3
	movs	r0, #0
	.loc	5 2885 2 is_stmt 1              @ ../ThirdParty/STM32F4xx_HAL_Driver/Src/stm32f4xx_hal_rcc_ex.c:2885:2
	strb.w	r0, [sp, #15]
	b	.LBB3_11
.LBB3_11:
	.loc	5 2886 1                        @ ../ThirdParty/STM32F4xx_HAL_Driver/Src/stm32f4xx_hal_rcc_ex.c:2886:1
	ldrb.w	r0, [sp, #15]
	.loc	5 2886 1 epilogue_begin is_stmt 0 @ ../ThirdParty/STM32F4xx_HAL_Driver/Src/stm32f4xx_hal_rcc_ex.c:2886:1
	add	sp, #16
	pop	{r7, pc}
.Ltmp63:
.Lfunc_end3:
	.size	HAL_RCCEx_EnablePLLI2S, .Lfunc_end3-HAL_RCCEx_EnablePLLI2S
	.cfi_endproc
	.cantunwind
	.fnend
                                        @ -- End function
	.section	.text.HAL_RCCEx_DisablePLLI2S,"ax",%progbits
	.hidden	HAL_RCCEx_DisablePLLI2S         @ -- Begin function HAL_RCCEx_DisablePLLI2S
	.globl	HAL_RCCEx_DisablePLLI2S
	.p2align	2
	.type	HAL_RCCEx_DisablePLLI2S,%function
	.code	16                              @ @HAL_RCCEx_DisablePLLI2S
	.thumb_func
HAL_RCCEx_DisablePLLI2S:
.Lfunc_begin4:
	.loc	5 2893 0 is_stmt 1              @ ../ThirdParty/STM32F4xx_HAL_Driver/Src/stm32f4xx_hal_rcc_ex.c:2893:0
	.fnstart
	.cfi_startproc
@ %bb.0:
	.save	{r7, lr}
	push	{r7, lr}
	.cfi_def_cfa_offset 8
	.cfi_offset lr, -4
	.cfi_offset r7, -8
	.pad	#8
	sub	sp, #8
	.cfi_def_cfa_offset 16
	movs	r1, #104
	movt	r1, #16967
	movs	r0, #0
.Ltmp64:
	.loc	5 2897 3 prologue_end           @ ../ThirdParty/STM32F4xx_HAL_Driver/Src/stm32f4xx_hal_rcc_ex.c:2897:3
	str	r0, [r1]
	.loc	5 2900 15                       @ ../ThirdParty/STM32F4xx_HAL_Driver/Src/stm32f4xx_hal_rcc_ex.c:2900:15
	bl	HAL_GetTick
	.loc	5 2900 13 is_stmt 0             @ ../ThirdParty/STM32F4xx_HAL_Driver/Src/stm32f4xx_hal_rcc_ex.c:2900:13
	str	r0, [sp]
	.loc	5 2901 3 is_stmt 1              @ ../ThirdParty/STM32F4xx_HAL_Driver/Src/stm32f4xx_hal_rcc_ex.c:2901:3
	b	.LBB4_1
.LBB4_1:                                @ =>This Inner Loop Header: Depth=1
	.loc	5 0 3 is_stmt 0                 @ ../ThirdParty/STM32F4xx_HAL_Driver/Src/stm32f4xx_hal_rcc_ex.c:0:3
	movw	r0, #14336
	movt	r0, #16386
	.loc	5 2901 9                        @ ../ThirdParty/STM32F4xx_HAL_Driver/Src/stm32f4xx_hal_rcc_ex.c:2901:9
	ldr	r0, [r0]
	.loc	5 2901 3                        @ ../ThirdParty/STM32F4xx_HAL_Driver/Src/stm32f4xx_hal_rcc_ex.c:2901:3
	lsls	r0, r0, #4
	cmp	r0, #0
	bpl	.LBB4_5
	b	.LBB4_2
.LBB4_2:                                @   in Loop: Header=BB4_1 Depth=1
.Ltmp65:
	.loc	5 2903 9 is_stmt 1              @ ../ThirdParty/STM32F4xx_HAL_Driver/Src/stm32f4xx_hal_rcc_ex.c:2903:9
	bl	HAL_GetTick
	.loc	5 2903 25 is_stmt 0             @ ../ThirdParty/STM32F4xx_HAL_Driver/Src/stm32f4xx_hal_rcc_ex.c:2903:25
	ldr	r1, [sp]
	.loc	5 2903 23                       @ ../ThirdParty/STM32F4xx_HAL_Driver/Src/stm32f4xx_hal_rcc_ex.c:2903:23
	subs	r0, r0, r1
.Ltmp66:
	.loc	5 2903 8                        @ ../ThirdParty/STM32F4xx_HAL_Driver/Src/stm32f4xx_hal_rcc_ex.c:2903:8
	cmp	r0, #3
	blo	.LBB4_4
	b	.LBB4_3
.LBB4_3:
	.loc	5 0 8                           @ ../ThirdParty/STM32F4xx_HAL_Driver/Src/stm32f4xx_hal_rcc_ex.c:0:8
	movs	r0, #3
.Ltmp67:
	.loc	5 2906 7 is_stmt 1              @ ../ThirdParty/STM32F4xx_HAL_Driver/Src/stm32f4xx_hal_rcc_ex.c:2906:7
	strb.w	r0, [sp, #7]
	b	.LBB4_6
.Ltmp68:
.LBB4_4:                                @   in Loop: Header=BB4_1 Depth=1
	.loc	5 2901 3                        @ ../ThirdParty/STM32F4xx_HAL_Driver/Src/stm32f4xx_hal_rcc_ex.c:2901:3
	b	.LBB4_1
.LBB4_5:
	.loc	5 0 3 is_stmt 0                 @ ../ThirdParty/STM32F4xx_HAL_Driver/Src/stm32f4xx_hal_rcc_ex.c:0:3
	movs	r0, #0
	.loc	5 2910 3 is_stmt 1              @ ../ThirdParty/STM32F4xx_HAL_Driver/Src/stm32f4xx_hal_rcc_ex.c:2910:3
	strb.w	r0, [sp, #7]
	b	.LBB4_6
.LBB4_6:
	.loc	5 2911 1                        @ ../ThirdParty/STM32F4xx_HAL_Driver/Src/stm32f4xx_hal_rcc_ex.c:2911:1
	ldrb.w	r0, [sp, #7]
	.loc	5 2911 1 epilogue_begin is_stmt 0 @ ../ThirdParty/STM32F4xx_HAL_Driver/Src/stm32f4xx_hal_rcc_ex.c:2911:1
	add	sp, #8
	pop	{r7, pc}
.Ltmp69:
.Lfunc_end4:
	.size	HAL_RCCEx_DisablePLLI2S, .Lfunc_end4-HAL_RCCEx_DisablePLLI2S
	.cfi_endproc
	.cantunwind
	.fnend
                                        @ -- End function
	.section	.text.HAL_RCC_DeInit,"ax",%progbits
	.hidden	HAL_RCC_DeInit                  @ -- Begin function HAL_RCC_DeInit
	.globl	HAL_RCC_DeInit
	.p2align	2
	.type	HAL_RCC_DeInit,%function
	.code	16                              @ @HAL_RCC_DeInit
	.thumb_func
HAL_RCC_DeInit:
.Lfunc_begin5:
	.loc	5 3150 0 is_stmt 1              @ ../ThirdParty/STM32F4xx_HAL_Driver/Src/stm32f4xx_hal_rcc_ex.c:3150:0
	.fnstart
	.cfi_startproc
@ %bb.0:
	.save	{r7, lr}
	push	{r7, lr}
	.cfi_def_cfa_offset 8
	.cfi_offset lr, -4
	.cfi_offset r7, -8
	.pad	#16
	sub	sp, #16
	.cfi_def_cfa_offset 24
.Ltmp70:
	.loc	5 3154 15 prologue_end          @ ../ThirdParty/STM32F4xx_HAL_Driver/Src/stm32f4xx_hal_rcc_ex.c:3154:15
	bl	HAL_GetTick
	.loc	5 3154 13 is_stmt 0             @ ../ThirdParty/STM32F4xx_HAL_Driver/Src/stm32f4xx_hal_rcc_ex.c:3154:13
	str	r0, [sp, #8]
	movw	r1, #14336
	movt	r1, #16386
	.loc	5 3157 3 is_stmt 1              @ ../ThirdParty/STM32F4xx_HAL_Driver/Src/stm32f4xx_hal_rcc_ex.c:3157:3
	ldr	r0, [r1]
	orr	r0, r0, #1
	str	r0, [r1]
	.loc	5 3160 3                        @ ../ThirdParty/STM32F4xx_HAL_Driver/Src/stm32f4xx_hal_rcc_ex.c:3160:3
	b	.LBB5_1
.LBB5_1:                                @ =>This Inner Loop Header: Depth=1
	.loc	5 0 3 is_stmt 0                 @ ../ThirdParty/STM32F4xx_HAL_Driver/Src/stm32f4xx_hal_rcc_ex.c:0:3
	movw	r0, #14336
	movt	r0, #16386
	.loc	5 3160 10                       @ ../ThirdParty/STM32F4xx_HAL_Driver/Src/stm32f4xx_hal_rcc_ex.c:3160:10
	ldr	r0, [r0]
	.loc	5 3160 3                        @ ../ThirdParty/STM32F4xx_HAL_Driver/Src/stm32f4xx_hal_rcc_ex.c:3160:3
	lsls	r0, r0, #30
	cmp	r0, #0
	bmi	.LBB5_5
	b	.LBB5_2
.LBB5_2:                                @   in Loop: Header=BB5_1 Depth=1
.Ltmp71:
	.loc	5 3162 10 is_stmt 1             @ ../ThirdParty/STM32F4xx_HAL_Driver/Src/stm32f4xx_hal_rcc_ex.c:3162:10
	bl	HAL_GetTick
	.loc	5 3162 26 is_stmt 0             @ ../ThirdParty/STM32F4xx_HAL_Driver/Src/stm32f4xx_hal_rcc_ex.c:3162:26
	ldr	r1, [sp, #8]
	.loc	5 3162 24                       @ ../ThirdParty/STM32F4xx_HAL_Driver/Src/stm32f4xx_hal_rcc_ex.c:3162:24
	subs	r0, r0, r1
.Ltmp72:
	.loc	5 3162 9                        @ ../ThirdParty/STM32F4xx_HAL_Driver/Src/stm32f4xx_hal_rcc_ex.c:3162:9
	cmp	r0, #3
	blo	.LBB5_4
	b	.LBB5_3
.LBB5_3:
	.loc	5 0 9                           @ ../ThirdParty/STM32F4xx_HAL_Driver/Src/stm32f4xx_hal_rcc_ex.c:0:9
	movs	r0, #3
.Ltmp73:
	.loc	5 3164 7 is_stmt 1              @ ../ThirdParty/STM32F4xx_HAL_Driver/Src/stm32f4xx_hal_rcc_ex.c:3164:7
	strb.w	r0, [sp, #15]
	b	.LBB5_28
.Ltmp74:
.LBB5_4:                                @   in Loop: Header=BB5_1 Depth=1
	.loc	5 3160 3                        @ ../ThirdParty/STM32F4xx_HAL_Driver/Src/stm32f4xx_hal_rcc_ex.c:3160:3
	b	.LBB5_1
.LBB5_5:
	.loc	5 0 3 is_stmt 0                 @ ../ThirdParty/STM32F4xx_HAL_Driver/Src/stm32f4xx_hal_rcc_ex.c:0:3
	movw	r1, #14336
	movt	r1, #16386
	.loc	5 3169 3 is_stmt 1              @ ../ThirdParty/STM32F4xx_HAL_Driver/Src/stm32f4xx_hal_rcc_ex.c:3169:3
	ldr	r0, [r1]
	orr	r0, r0, #128
	str	r0, [r1]
	.loc	5 3172 15                       @ ../ThirdParty/STM32F4xx_HAL_Driver/Src/stm32f4xx_hal_rcc_ex.c:3172:15
	bl	HAL_GetTick
	.loc	5 3172 13 is_stmt 0             @ ../ThirdParty/STM32F4xx_HAL_Driver/Src/stm32f4xx_hal_rcc_ex.c:3172:13
	str	r0, [sp, #8]
	movw	r1, #14344
	movt	r1, #16386
	movs	r0, #0
	.loc	5 3175 3 is_stmt 1              @ ../ThirdParty/STM32F4xx_HAL_Driver/Src/stm32f4xx_hal_rcc_ex.c:3175:3
	str	r0, [r1]
	.loc	5 3178 3                        @ ../ThirdParty/STM32F4xx_HAL_Driver/Src/stm32f4xx_hal_rcc_ex.c:3178:3
	b	.LBB5_6
.LBB5_6:                                @ =>This Inner Loop Header: Depth=1
	.loc	5 0 3 is_stmt 0                 @ ../ThirdParty/STM32F4xx_HAL_Driver/Src/stm32f4xx_hal_rcc_ex.c:0:3
	movw	r0, #14344
	movt	r0, #16386
	.loc	5 3178 10                       @ ../ThirdParty/STM32F4xx_HAL_Driver/Src/stm32f4xx_hal_rcc_ex.c:3178:10
	ldr	r0, [r0]
	.loc	5 3178 3                        @ ../ThirdParty/STM32F4xx_HAL_Driver/Src/stm32f4xx_hal_rcc_ex.c:3178:3
	tst.w	r0, #12
	beq	.LBB5_10
	b	.LBB5_7
.LBB5_7:                                @   in Loop: Header=BB5_6 Depth=1
.Ltmp75:
	.loc	5 3180 10 is_stmt 1             @ ../ThirdParty/STM32F4xx_HAL_Driver/Src/stm32f4xx_hal_rcc_ex.c:3180:10
	bl	HAL_GetTick
	.loc	5 3180 26 is_stmt 0             @ ../ThirdParty/STM32F4xx_HAL_Driver/Src/stm32f4xx_hal_rcc_ex.c:3180:26
	ldr	r1, [sp, #8]
	.loc	5 3180 24                       @ ../ThirdParty/STM32F4xx_HAL_Driver/Src/stm32f4xx_hal_rcc_ex.c:3180:24
	subs	r0, r0, r1
	movw	r1, #5001
.Ltmp76:
	.loc	5 3180 9                        @ ../ThirdParty/STM32F4xx_HAL_Driver/Src/stm32f4xx_hal_rcc_ex.c:3180:9
	cmp	r0, r1
	blo	.LBB5_9
	b	.LBB5_8
.LBB5_8:
	.loc	5 0 9                           @ ../ThirdParty/STM32F4xx_HAL_Driver/Src/stm32f4xx_hal_rcc_ex.c:0:9
	movs	r0, #3
.Ltmp77:
	.loc	5 3182 7 is_stmt 1              @ ../ThirdParty/STM32F4xx_HAL_Driver/Src/stm32f4xx_hal_rcc_ex.c:3182:7
	strb.w	r0, [sp, #15]
	b	.LBB5_28
.Ltmp78:
.LBB5_9:                                @   in Loop: Header=BB5_6 Depth=1
	.loc	5 3178 3                        @ ../ThirdParty/STM32F4xx_HAL_Driver/Src/stm32f4xx_hal_rcc_ex.c:3178:3
	b	.LBB5_6
.LBB5_10:
	.loc	5 3187 15                       @ ../ThirdParty/STM32F4xx_HAL_Driver/Src/stm32f4xx_hal_rcc_ex.c:3187:15
	bl	HAL_GetTick
	.loc	5 3187 13 is_stmt 0             @ ../ThirdParty/STM32F4xx_HAL_Driver/Src/stm32f4xx_hal_rcc_ex.c:3187:13
	str	r0, [sp, #8]
	movw	r1, #14336
	movt	r1, #16386
	.loc	5 3190 3 is_stmt 1              @ ../ThirdParty/STM32F4xx_HAL_Driver/Src/stm32f4xx_hal_rcc_ex.c:3190:3
	ldr	r0, [r1]
	bic	r0, r0, #851968
	str	r0, [r1]
	.loc	5 3193 3                        @ ../ThirdParty/STM32F4xx_HAL_Driver/Src/stm32f4xx_hal_rcc_ex.c:3193:3
	b	.LBB5_11
.LBB5_11:                               @ =>This Inner Loop Header: Depth=1
	.loc	5 0 3 is_stmt 0                 @ ../ThirdParty/STM32F4xx_HAL_Driver/Src/stm32f4xx_hal_rcc_ex.c:0:3
	movw	r0, #14336
	movt	r0, #16386
	.loc	5 3193 10                       @ ../ThirdParty/STM32F4xx_HAL_Driver/Src/stm32f4xx_hal_rcc_ex.c:3193:10
	ldr	r0, [r0]
	.loc	5 3193 3                        @ ../ThirdParty/STM32F4xx_HAL_Driver/Src/stm32f4xx_hal_rcc_ex.c:3193:3
	lsls	r0, r0, #14
	cmp	r0, #0
	bpl	.LBB5_15
	b	.LBB5_12
.LBB5_12:                               @   in Loop: Header=BB5_11 Depth=1
.Ltmp79:
	.loc	5 3195 10 is_stmt 1             @ ../ThirdParty/STM32F4xx_HAL_Driver/Src/stm32f4xx_hal_rcc_ex.c:3195:10
	bl	HAL_GetTick
	.loc	5 3195 26 is_stmt 0             @ ../ThirdParty/STM32F4xx_HAL_Driver/Src/stm32f4xx_hal_rcc_ex.c:3195:26
	ldr	r1, [sp, #8]
	.loc	5 3195 24                       @ ../ThirdParty/STM32F4xx_HAL_Driver/Src/stm32f4xx_hal_rcc_ex.c:3195:24
	subs	r0, r0, r1
.Ltmp80:
	.loc	5 3195 9                        @ ../ThirdParty/STM32F4xx_HAL_Driver/Src/stm32f4xx_hal_rcc_ex.c:3195:9
	cmp	r0, #101
	blo	.LBB5_14
	b	.LBB5_13
.LBB5_13:
	.loc	5 0 9                           @ ../ThirdParty/STM32F4xx_HAL_Driver/Src/stm32f4xx_hal_rcc_ex.c:0:9
	movs	r0, #3
.Ltmp81:
	.loc	5 3197 7 is_stmt 1              @ ../ThirdParty/STM32F4xx_HAL_Driver/Src/stm32f4xx_hal_rcc_ex.c:3197:7
	strb.w	r0, [sp, #15]
	b	.LBB5_28
.Ltmp82:
.LBB5_14:                               @   in Loop: Header=BB5_11 Depth=1
	.loc	5 3193 3                        @ ../ThirdParty/STM32F4xx_HAL_Driver/Src/stm32f4xx_hal_rcc_ex.c:3193:3
	b	.LBB5_11
.LBB5_15:
	.loc	5 3202 15                       @ ../ThirdParty/STM32F4xx_HAL_Driver/Src/stm32f4xx_hal_rcc_ex.c:3202:15
	bl	HAL_GetTick
	.loc	5 3202 13 is_stmt 0             @ ../ThirdParty/STM32F4xx_HAL_Driver/Src/stm32f4xx_hal_rcc_ex.c:3202:13
	str	r0, [sp, #8]
	movw	r1, #14336
	movt	r1, #16386
	.loc	5 3205 3 is_stmt 1              @ ../ThirdParty/STM32F4xx_HAL_Driver/Src/stm32f4xx_hal_rcc_ex.c:3205:3
	ldr	r0, [r1]
	bic	r0, r0, #16777216
	str	r0, [r1]
	.loc	5 3208 3                        @ ../ThirdParty/STM32F4xx_HAL_Driver/Src/stm32f4xx_hal_rcc_ex.c:3208:3
	b	.LBB5_16
.LBB5_16:                               @ =>This Inner Loop Header: Depth=1
	.loc	5 0 3 is_stmt 0                 @ ../ThirdParty/STM32F4xx_HAL_Driver/Src/stm32f4xx_hal_rcc_ex.c:0:3
	movw	r0, #14336
	movt	r0, #16386
	.loc	5 3208 10                       @ ../ThirdParty/STM32F4xx_HAL_Driver/Src/stm32f4xx_hal_rcc_ex.c:3208:10
	ldr	r0, [r0]
	.loc	5 3208 3                        @ ../ThirdParty/STM32F4xx_HAL_Driver/Src/stm32f4xx_hal_rcc_ex.c:3208:3
	lsls	r0, r0, #6
	cmp	r0, #0
	bpl	.LBB5_20
	b	.LBB5_17
.LBB5_17:                               @   in Loop: Header=BB5_16 Depth=1
.Ltmp83:
	.loc	5 3210 10 is_stmt 1             @ ../ThirdParty/STM32F4xx_HAL_Driver/Src/stm32f4xx_hal_rcc_ex.c:3210:10
	bl	HAL_GetTick
	.loc	5 3210 26 is_stmt 0             @ ../ThirdParty/STM32F4xx_HAL_Driver/Src/stm32f4xx_hal_rcc_ex.c:3210:26
	ldr	r1, [sp, #8]
	.loc	5 3210 24                       @ ../ThirdParty/STM32F4xx_HAL_Driver/Src/stm32f4xx_hal_rcc_ex.c:3210:24
	subs	r0, r0, r1
.Ltmp84:
	.loc	5 3210 9                        @ ../ThirdParty/STM32F4xx_HAL_Driver/Src/stm32f4xx_hal_rcc_ex.c:3210:9
	cmp	r0, #3
	blo	.LBB5_19
	b	.LBB5_18
.LBB5_18:
	.loc	5 0 9                           @ ../ThirdParty/STM32F4xx_HAL_Driver/Src/stm32f4xx_hal_rcc_ex.c:0:9
	movs	r0, #3
.Ltmp85:
	.loc	5 3212 7 is_stmt 1              @ ../ThirdParty/STM32F4xx_HAL_Driver/Src/stm32f4xx_hal_rcc_ex.c:3212:7
	strb.w	r0, [sp, #15]
	b	.LBB5_28
.Ltmp86:
.LBB5_19:                               @   in Loop: Header=BB5_16 Depth=1
	.loc	5 3208 3                        @ ../ThirdParty/STM32F4xx_HAL_Driver/Src/stm32f4xx_hal_rcc_ex.c:3208:3
	b	.LBB5_16
.LBB5_20:
	.loc	5 3218 15                       @ ../ThirdParty/STM32F4xx_HAL_Driver/Src/stm32f4xx_hal_rcc_ex.c:3218:15
	bl	HAL_GetTick
	.loc	5 3218 13 is_stmt 0             @ ../ThirdParty/STM32F4xx_HAL_Driver/Src/stm32f4xx_hal_rcc_ex.c:3218:13
	str	r0, [sp, #8]
	movw	r1, #14336
	movt	r1, #16386
	.loc	5 3221 3 is_stmt 1              @ ../ThirdParty/STM32F4xx_HAL_Driver/Src/stm32f4xx_hal_rcc_ex.c:3221:3
	ldr	r0, [r1]
	bic	r0, r0, #67108864
	str	r0, [r1]
	.loc	5 3224 3                        @ ../ThirdParty/STM32F4xx_HAL_Driver/Src/stm32f4xx_hal_rcc_ex.c:3224:3
	b	.LBB5_21
.LBB5_21:                               @ =>This Inner Loop Header: Depth=1
	.loc	5 0 3 is_stmt 0                 @ ../ThirdParty/STM32F4xx_HAL_Driver/Src/stm32f4xx_hal_rcc_ex.c:0:3
	movw	r0, #14336
	movt	r0, #16386
	.loc	5 3224 10                       @ ../ThirdParty/STM32F4xx_HAL_Driver/Src/stm32f4xx_hal_rcc_ex.c:3224:10
	ldr	r0, [r0]
	.loc	5 3224 3                        @ ../ThirdParty/STM32F4xx_HAL_Driver/Src/stm32f4xx_hal_rcc_ex.c:3224:3
	lsls	r0, r0, #4
	cmp	r0, #0
	bpl	.LBB5_25
	b	.LBB5_22
.LBB5_22:                               @   in Loop: Header=BB5_21 Depth=1
.Ltmp87:
	.loc	5 3226 10 is_stmt 1             @ ../ThirdParty/STM32F4xx_HAL_Driver/Src/stm32f4xx_hal_rcc_ex.c:3226:10
	bl	HAL_GetTick
	.loc	5 3226 26 is_stmt 0             @ ../ThirdParty/STM32F4xx_HAL_Driver/Src/stm32f4xx_hal_rcc_ex.c:3226:26
	ldr	r1, [sp, #8]
	.loc	5 3226 24                       @ ../ThirdParty/STM32F4xx_HAL_Driver/Src/stm32f4xx_hal_rcc_ex.c:3226:24
	subs	r0, r0, r1
.Ltmp88:
	.loc	5 3226 9                        @ ../ThirdParty/STM32F4xx_HAL_Driver/Src/stm32f4xx_hal_rcc_ex.c:3226:9
	cmp	r0, #3
	blo	.LBB5_24
	b	.LBB5_23
.LBB5_23:
	.loc	5 0 9                           @ ../ThirdParty/STM32F4xx_HAL_Driver/Src/stm32f4xx_hal_rcc_ex.c:0:9
	movs	r0, #3
.Ltmp89:
	.loc	5 3228 7 is_stmt 1              @ ../ThirdParty/STM32F4xx_HAL_Driver/Src/stm32f4xx_hal_rcc_ex.c:3228:7
	strb.w	r0, [sp, #15]
	b	.LBB5_28
.Ltmp90:
.LBB5_24:                               @   in Loop: Header=BB5_21 Depth=1
	.loc	5 3224 3                        @ ../ThirdParty/STM32F4xx_HAL_Driver/Src/stm32f4xx_hal_rcc_ex.c:3224:3
	b	.LBB5_21
.LBB5_25:
	.loc	5 0 3 is_stmt 0                 @ ../ThirdParty/STM32F4xx_HAL_Driver/Src/stm32f4xx_hal_rcc_ex.c:0:3
	movw	r1, #14340
	movt	r1, #16386
	movw	r0, #12304
	movt	r0, #1024
	.loc	5 3257 16 is_stmt 1             @ ../ThirdParty/STM32F4xx_HAL_Driver/Src/stm32f4xx_hal_rcc_ex.c:3257:16
	str	r0, [r1]
	movw	r1, #14468
	movt	r1, #16386
	movw	r0, #12288
	movt	r0, #8192
	.loc	5 3265 19                       @ ../ThirdParty/STM32F4xx_HAL_Driver/Src/stm32f4xx_hal_rcc_ex.c:3265:19
	str	r0, [r1]
	movw	r1, #14348
	movt	r1, #16386
	.loc	5 3280 3                        @ ../ThirdParty/STM32F4xx_HAL_Driver/Src/stm32f4xx_hal_rcc_ex.c:3280:3
	str	r1, [sp, #4]                    @ 4-byte Spill
	ldr	r0, [r1]
	bic	r0, r0, #7936
	str	r0, [r1]
	.loc	5 3283 3                        @ ../ThirdParty/STM32F4xx_HAL_Driver/Src/stm32f4xx_hal_rcc_ex.c:3283:3
	ldr	r0, [r1]
	bic	r0, r0, #8192
	str	r0, [r1]
	.loc	5 3291 3                        @ ../ThirdParty/STM32F4xx_HAL_Driver/Src/stm32f4xx_hal_rcc_ex.c:3291:3
	ldr	r0, [r1]
	orr	r0, r0, #10420224
	str	r0, [r1]
	.loc	5 3294 3                        @ ../ThirdParty/STM32F4xx_HAL_Driver/Src/stm32f4xx_hal_rcc_ex.c:3294:3
	ldr	r0, [r1]
	orr	r0, r0, #2097152
	str	r0, [r1]
	movw	r1, #14452
	movt	r1, #16386
	.loc	5 3302 3                        @ ../ThirdParty/STM32F4xx_HAL_Driver/Src/stm32f4xx_hal_rcc_ex.c:3302:3
	ldr	r0, [r1]
	bic	r0, r0, #1
	str	r0, [r1]
	.loc	5 3305 3                        @ ../ThirdParty/STM32F4xx_HAL_Driver/Src/stm32f4xx_hal_rcc_ex.c:3305:3
	ldr	r0, [r1]
	orr	r0, r0, #16777216
	str	r0, [r1]
	.loc	5 3308 19                       @ ../ThirdParty/STM32F4xx_HAL_Driver/Src/stm32f4xx_hal_rcc_ex.c:3308:19
	movw	r1, :lower16:SystemCoreClock
	movt	r1, :upper16:SystemCoreClock
	movw	r0, #9216
	movt	r0, #244
	str	r0, [r1]
	movs	r0, #6
.Ltmp91:
	.loc	5 3311 6                        @ ../ThirdParty/STM32F4xx_HAL_Driver/Src/stm32f4xx_hal_rcc_ex.c:3311:6
	bl	HAL_InitTick
.Ltmp92:
	.loc	5 3311 6 is_stmt 0              @ ../ThirdParty/STM32F4xx_HAL_Driver/Src/stm32f4xx_hal_rcc_ex.c:3311:6
	cbz	r0, .LBB5_27
	b	.LBB5_26
.LBB5_26:
	.loc	5 0 6                           @ ../ThirdParty/STM32F4xx_HAL_Driver/Src/stm32f4xx_hal_rcc_ex.c:0:6
	movs	r0, #1
.Ltmp93:
	.loc	5 3313 5 is_stmt 1              @ ../ThirdParty/STM32F4xx_HAL_Driver/Src/stm32f4xx_hal_rcc_ex.c:3313:5
	strb.w	r0, [sp, #15]
	b	.LBB5_28
.Ltmp94:
.LBB5_27:
	.loc	5 0 5 is_stmt 0                 @ ../ThirdParty/STM32F4xx_HAL_Driver/Src/stm32f4xx_hal_rcc_ex.c:0:5
	movs	r0, #0
.Ltmp95:
	.loc	5 3317 5 is_stmt 1              @ ../ThirdParty/STM32F4xx_HAL_Driver/Src/stm32f4xx_hal_rcc_ex.c:3317:5
	strb.w	r0, [sp, #15]
	b	.LBB5_28
.Ltmp96:
.LBB5_28:
	.loc	5 3319 1                        @ ../ThirdParty/STM32F4xx_HAL_Driver/Src/stm32f4xx_hal_rcc_ex.c:3319:1
	ldrb.w	r0, [sp, #15]
	.loc	5 3319 1 epilogue_begin is_stmt 0 @ ../ThirdParty/STM32F4xx_HAL_Driver/Src/stm32f4xx_hal_rcc_ex.c:3319:1
	add	sp, #16
	pop	{r7, pc}
.Ltmp97:
.Lfunc_end5:
	.size	HAL_RCC_DeInit, .Lfunc_end5-HAL_RCC_DeInit
	.cfi_endproc
	.cantunwind
	.fnend
                                        @ -- End function
	.file	6 "D:\\ikingtec\\Robot\\ODrive\\Firmware\\MDK-ARM" "../ThirdParty/STM32F4xx_HAL_Driver/Inc/stm32f4xx_hal_rcc_ex.h"
	.section	".note.GNU-stack","",%progbits
	.eabi_attribute	30, 6	@ Tag_ABI_optimization_goals
	.ARM_attribute	16, 1	@ Tag_AV_eba