	.text
	.syntax unified
	.eabi_attribute	67, "2.09"	@ Tag_conformance
	.cpu	cortex-m4
	.eabi_attribute	6, 13	@ Tag_CPU_arch
	.eabi_attribute	7, 77	@ Tag_CPU_arch_profile
	.eabi_attribute	8, 0	@ Tag_ARM_ISA_use
	.eabi_attribute	9, 2	@ Tag_THUMB_ISA_use
	.fpu	fpv4-sp-d16
	.eabi_attribute	27, 1	@ Tag_ABI_HardFP_use
	.eabi_attribute	36, 1	@ Tag_FP_HP_extension
	.eabi_attribute	34, 1	@ Tag_CPU_unaligned_access
	.eabi_attribute	17, 1	@ Tag_ABI_PCS_GOT_use
	.eabi_attribute	20, 2	@ Tag_ABI_FP_denormal
	.eabi_attribute	21, 0	@ Tag_ABI_FP_exceptions
	.eabi_attribute	23, 1	@ Tag_ABI_FP_number_model
	.eabi_attribute	24, 1	@ Tag_ABI_align_needed
	.eabi_attribute	25, 1	@ Tag_ABI_align_preserved
	.eabi_attribute	28, 1	@ Tag_ABI_VFP_args
	.eabi_attribute	38, 1	@ Tag_ABI_FP_16bit_format
	.eabi_attribute	18, 2	@ Tag_ABI_PCS_wchar_t
	.eabi_attribute	26, 1	@ Tag_ABI_enum_size
	.eabi_attribute	14, 0	@ Tag_ABI_PCS_R9_use
	.file	"stm32_nvm.c"
	.file	1 "D:\\Embed\\MDK\\MDK\\ARM\\ARMCompilerV621\\Bin\\..\\include" "stdlib.h"
	.file	2 "D:\\ikingtec\\Robot\\ODrive\\Firmware\\MDK-ARM" "../Drivers/STM32/stm32_nvm.c"
	.file	3 "D:\\Embed\\MDK\\MDK\\ARM\\ARMCompilerV621\\Bin\\..\\include" "stdint.h"
	.file	4 "D:\\ikingtec\\Robot\\ODrive\\Firmware\\MDK-ARM" "../ThirdParty/STM32F4xx_HAL_Driver/Inc/stm32f4xx_hal_def.h"
	.file	5 "D:\\ikingtec\\Robot\\ODrive\\Firmware\\MDK-ARM" "../ThirdParty/CMSIS/Device/ST/STM32F4xx/Include\\stm32f405xx.h"
	.section	.text.erase,"ax",%progbits
	.hidden	erase                           @ -- Begin function erase
	.globl	erase
	.p2align	2
	.type	erase,%function
	.code	16                              @ @erase
	.thumb_func
erase:
.Lfunc_begin0:
	.loc	2 131 0                         @ ../Drivers/STM32/stm32_nvm.c:131:0
	.fnstart
	.cfi_sections .debug_frame
	.cfi_startproc
@ %bb.0:
	.save	{r7, lr}
	push	{r7, lr}
	.cfi_def_cfa_offset 8
	.cfi_offset lr, -4
	.cfi_offset r7, -8
	.pad	#32
	sub	sp, #32
	.cfi_def_cfa_offset 40
	str	r0, [sp, #24]
	movs	r0, #0
.Ltmp0:
	.loc	2 132 43 prologue_end           @ ../Drivers/STM32/stm32_nvm.c:132:43
	str	r0, [sp, #4]
	str	r0, [sp, #8]
	.loc	2 137 19                        @ ../Drivers/STM32/stm32_nvm.c:137:19
	ldr	r0, [sp, #24]
	.loc	2 137 27 is_stmt 0              @ ../Drivers/STM32/stm32_nvm.c:137:27
	ldr	r0, [r0, #4]
	.loc	2 132 43 is_stmt 1              @ ../Drivers/STM32/stm32_nvm.c:132:43
	str	r0, [sp, #12]
	movs	r0, #1
	str	r0, [sp, #16]
	movs	r0, #2
	str	r0, [sp, #20]
	.loc	2 141 5                         @ ../Drivers/STM32/stm32_nvm.c:141:5
	bl	HAL_FLASH_Unlock
	.loc	2 142 5                         @ ../Drivers/STM32/stm32_nvm.c:142:5
	bl	HAL_FLASH_ClearError
	add	r0, sp, #4
	mov	r1, sp
.Ltmp1:
	.loc	2 144 9                         @ ../Drivers/STM32/stm32_nvm.c:144:9
	bl	HAL_FLASHEx_Erase
.Ltmp2:
	.loc	2 144 9 is_stmt 0               @ ../Drivers/STM32/stm32_nvm.c:144:9
	cbz	r0, .LBB0_2
	b	.LBB0_1
.LBB0_1:
.Ltmp3:
	.loc	2 145 9 is_stmt 1               @ ../Drivers/STM32/stm32_nvm.c:145:9
	b	.LBB0_3
.Ltmp4:
.LBB0_2:
	.loc	2 146 21                        @ ../Drivers/STM32/stm32_nvm.c:146:21
	ldr	r1, [sp, #24]
	.loc	2 146 29 is_stmt 0              @ ../Drivers/STM32/stm32_nvm.c:146:29
	ldr	r0, [r1, #12]
	.loc	2 146 19                        @ ../Drivers/STM32/stm32_nvm.c:146:19
	str	r0, [r1]
	.loc	2 148 5 is_stmt 1               @ ../Drivers/STM32/stm32_nvm.c:148:5
	bl	HAL_FLASH_Lock
	movs	r0, #0
	.loc	2 149 5                         @ ../Drivers/STM32/stm32_nvm.c:149:5
	str	r0, [sp, #28]
	b	.LBB0_4
.LBB0_3:
.Ltmp5:
	@DEBUG_LABEL: erase:fail
	.loc	2 151 5                         @ ../Drivers/STM32/stm32_nvm.c:151:5
	bl	HAL_FLASH_Lock
	.loc	2 153 12                        @ ../Drivers/STM32/stm32_nvm.c:153:12
	bl	HAL_FLASH_GetError
	.loc	2 153 5 is_stmt 0               @ ../Drivers/STM32/stm32_nvm.c:153:5
	str	r0, [sp, #28]
	b	.LBB0_4
.LBB0_4:
	.loc	2 154 1 is_stmt 1               @ ../Drivers/STM32/stm32_nvm.c:154:1
	ldr	r0, [sp, #28]
	.loc	2 154 1 epilogue_begin is_stmt 0 @ ../Drivers/STM32/stm32_nvm.c:154:1
	add	sp, #32
	pop	{r7, pc}
.Ltmp6:
.Lfunc_end0:
	.size	erase, .Lfunc_end0-erase
	.cfi_endproc
	.cantunwind
	.fnend
                                        @ -- End function
	.section	.text.set_allocation_state,"ax",%progbits
	.hidden	set_allocation_state            @ -- Begin function set_allocation_state
	.globl	set_allocation_state
	.p2align	2
	.type	set_allocation_state,%function
	.code	16                              @ @set_allocation_state
	.thumb_func
set_allocation_state:
.Lfunc_begin1:
	.loc	2 161 0 is_stmt 1               @ ../Drivers/STM32/stm32_nvm.c:161:0
	.fnstart
	.cfi_startproc
@ %bb.0:
	.save	{r7, lr}
	push	{r7, lr}
	.cfi_def_cfa_offset 8
	.cfi_offset lr, -4
	.cfi_offset r7, -8
	.pad	#24
	sub	sp, #24
	.cfi_def_cfa_offset 32
                                        @ kill: def $r12 killed $r3
	str	r0, [sp, #16]
	str	r1, [sp, #12]
	str	r2, [sp, #8]
	strb.w	r3, [sp, #7]
.Ltmp7:
	.loc	2 162 9 prologue_end            @ ../Drivers/STM32/stm32_nvm.c:162:9
	ldr	r0, [sp, #12]
	.loc	2 162 17 is_stmt 0              @ ../Drivers/STM32/stm32_nvm.c:162:17
	ldr	r1, [sp, #16]
	.loc	2 162 25                        @ ../Drivers/STM32/stm32_nvm.c:162:25
	ldr	r1, [r1, #12]
.Ltmp8:
	.loc	2 162 9                         @ ../Drivers/STM32/stm32_nvm.c:162:9
	cmp	r0, r1
	bhs	.LBB1_2
	b	.LBB1_1
.LBB1_1:
	.loc	2 0 9                           @ ../Drivers/STM32/stm32_nvm.c:0:9
	mov.w	r0, #-1
.Ltmp9:
	.loc	2 163 9 is_stmt 1               @ ../Drivers/STM32/stm32_nvm.c:163:9
	str	r0, [sp, #20]
	b	.LBB1_16
.Ltmp10:
.LBB1_2:
	.loc	2 164 9                         @ ../Drivers/STM32/stm32_nvm.c:164:9
	ldr	r0, [sp, #12]
	.loc	2 164 17 is_stmt 0              @ ../Drivers/STM32/stm32_nvm.c:164:17
	ldr	r1, [sp, #8]
	.loc	2 164 15                        @ ../Drivers/STM32/stm32_nvm.c:164:15
	add	r0, r1
	.loc	2 164 26                        @ ../Drivers/STM32/stm32_nvm.c:164:26
	ldr	r1, [sp, #16]
	.loc	2 164 34                        @ ../Drivers/STM32/stm32_nvm.c:164:34
	ldr	r1, [r1, #8]
.Ltmp11:
	.loc	2 164 9                         @ ../Drivers/STM32/stm32_nvm.c:164:9
	cmp	r0, r1
	blo	.LBB1_4
	b	.LBB1_3
.LBB1_3:
	.loc	2 0 9                           @ ../Drivers/STM32/stm32_nvm.c:0:9
	mov.w	r0, #-1
.Ltmp12:
	.loc	2 165 9 is_stmt 1               @ ../Drivers/STM32/stm32_nvm.c:165:9
	str	r0, [sp, #20]
	b	.LBB1_16
.Ltmp13:
.LBB1_4:
	.loc	2 168 29                        @ ../Drivers/STM32/stm32_nvm.c:168:29
	ldrb.w	r1, [sp, #7]
	.loc	2 168 41 is_stmt 0              @ ../Drivers/STM32/stm32_nvm.c:168:41
	orr.w	r0, r1, r1, lsl #2
	.loc	2 168 56                        @ ../Drivers/STM32/stm32_nvm.c:168:56
	orr.w	r0, r0, r1, lsl #4
	.loc	2 168 71                        @ ../Drivers/STM32/stm32_nvm.c:168:71
	orr.w	r0, r0, r1, lsl #6
	.loc	2 168 19                        @ ../Drivers/STM32/stm32_nvm.c:168:19
	strb.w	r0, [sp, #6]
	.loc	2 171 32 is_stmt 1              @ ../Drivers/STM32/stm32_nvm.c:171:32
	ldr	r0, [sp, #12]
	.loc	2 171 38 is_stmt 0              @ ../Drivers/STM32/stm32_nvm.c:171:38
	and	r0, r0, #3
	.loc	2 171 45                        @ ../Drivers/STM32/stm32_nvm.c:171:45
	lsls	r1, r0, #1
	movs	r0, #255
	.loc	2 171 27                        @ ../Drivers/STM32/stm32_nvm.c:171:27
	lsls	r0, r1
	.loc	2 171 20                        @ ../Drivers/STM32/stm32_nvm.c:171:20
	mvns	r0, r0
	.loc	2 171 13                        @ ../Drivers/STM32/stm32_nvm.c:171:13
	strb.w	r0, [sp, #5]
	.loc	2 172 14 is_stmt 1              @ ../Drivers/STM32/stm32_nvm.c:172:14
	ldr	r0, [sp, #12]
	.loc	2 172 20 is_stmt 0              @ ../Drivers/STM32/stm32_nvm.c:172:20
	and	r1, r0, #3
	.loc	2 172 11                        @ ../Drivers/STM32/stm32_nvm.c:172:11
	ldr	r0, [sp, #8]
	add	r0, r1
	str	r0, [sp, #8]
	.loc	2 173 14 is_stmt 1              @ ../Drivers/STM32/stm32_nvm.c:173:14
	ldr	r0, [sp, #12]
	.loc	2 173 11 is_stmt 0              @ ../Drivers/STM32/stm32_nvm.c:173:11
	bic	r0, r0, #3
	str	r0, [sp, #12]
	.loc	2 175 5 is_stmt 1               @ ../Drivers/STM32/stm32_nvm.c:175:5
	bl	HAL_FLASH_Unlock
	.loc	2 176 5                         @ ../Drivers/STM32/stm32_nvm.c:176:5
	bl	HAL_FLASH_ClearError
	.loc	2 179 5                         @ ../Drivers/STM32/stm32_nvm.c:179:5
	b	.LBB1_5
.LBB1_5:                                @ =>This Inner Loop Header: Depth=1
.Ltmp14:
	.loc	2 179 12 is_stmt 0              @ ../Drivers/STM32/stm32_nvm.c:179:12
	ldr	r0, [sp, #8]
.Ltmp15:
	.loc	2 179 5                         @ ../Drivers/STM32/stm32_nvm.c:179:5
	cmp	r0, #4
	blo	.LBB1_10
	b	.LBB1_6
.LBB1_6:                                @   in Loop: Header=BB1_5 Depth=1
.Ltmp16:
	.loc	2 180 67 is_stmt 1              @ ../Drivers/STM32/stm32_nvm.c:180:67
	ldr	r0, [sp, #16]
	.loc	2 180 75 is_stmt 0              @ ../Drivers/STM32/stm32_nvm.c:180:75
	ldr	r0, [r0, #16]
	.loc	2 180 87                        @ ../Drivers/STM32/stm32_nvm.c:180:87
	ldr	r1, [sp, #12]
	.loc	2 180 67                        @ ../Drivers/STM32/stm32_nvm.c:180:67
	add.w	r1, r0, r1, lsr #2
	.loc	2 180 100                       @ ../Drivers/STM32/stm32_nvm.c:180:100
	ldrb.w	r0, [sp, #6]
	.loc	2 180 109                       @ ../Drivers/STM32/stm32_nvm.c:180:109
	ldrb.w	r2, [sp, #5]
	.loc	2 180 107                       @ ../Drivers/STM32/stm32_nvm.c:180:107
	orrs	r2, r0
	movs	r3, #0
	.loc	2 180 13                        @ ../Drivers/STM32/stm32_nvm.c:180:13
	mov	r0, r3
	bl	HAL_FLASH_Program
.Ltmp17:
	.loc	2 180 13                        @ ../Drivers/STM32/stm32_nvm.c:180:13
	cbz	r0, .LBB1_8
	b	.LBB1_7
.LBB1_7:
.Ltmp18:
	.loc	2 181 13 is_stmt 1              @ ../Drivers/STM32/stm32_nvm.c:181:13
	b	.LBB1_15
.Ltmp19:
.LBB1_8:                                @   in Loop: Header=BB1_5 Depth=1
	.loc	2 0 13 is_stmt 0                @ ../Drivers/STM32/stm32_nvm.c:0:13
	movs	r0, #0
	.loc	2 182 14 is_stmt 1              @ ../Drivers/STM32/stm32_nvm.c:182:14
	strb.w	r0, [sp, #5]
	.loc	2 183 5                         @ ../Drivers/STM32/stm32_nvm.c:183:5
	b	.LBB1_9
.Ltmp20:
.LBB1_9:                                @   in Loop: Header=BB1_5 Depth=1
	.loc	2 179 30                        @ ../Drivers/STM32/stm32_nvm.c:179:30
	ldr	r0, [sp, #8]
	subs	r0, #4
	str	r0, [sp, #8]
	.loc	2 179 42 is_stmt 0              @ ../Drivers/STM32/stm32_nvm.c:179:42
	ldr	r0, [sp, #12]
	adds	r0, #4
	str	r0, [sp, #12]
	.loc	2 179 5                         @ ../Drivers/STM32/stm32_nvm.c:179:5
	b	.LBB1_5
.Ltmp21:
.LBB1_10:
	.loc	2 186 9 is_stmt 1               @ ../Drivers/STM32/stm32_nvm.c:186:9
	ldr	r0, [sp, #8]
.Ltmp22:
	.loc	2 186 9 is_stmt 0               @ ../Drivers/STM32/stm32_nvm.c:186:9
	cbz	r0, .LBB1_14
	b	.LBB1_11
.LBB1_11:
.Ltmp23:
	.loc	2 187 33 is_stmt 1              @ ../Drivers/STM32/stm32_nvm.c:187:33
	ldr	r0, [sp, #8]
	.loc	2 187 31 is_stmt 0              @ ../Drivers/STM32/stm32_nvm.c:187:31
	rsb.w	r0, r0, #4
	.loc	2 187 40                        @ ../Drivers/STM32/stm32_nvm.c:187:40
	lsls	r1, r0, #1
	movs	r0, #255
	.loc	2 187 24                        @ ../Drivers/STM32/stm32_nvm.c:187:24
	lsr.w	r1, r0, r1
	.loc	2 187 14                        @ ../Drivers/STM32/stm32_nvm.c:187:14
	ldrb.w	r0, [sp, #5]
	orn	r0, r0, r1
	strb.w	r0, [sp, #5]
.Ltmp24:
	.loc	2 188 67 is_stmt 1              @ ../Drivers/STM32/stm32_nvm.c:188:67
	ldr	r0, [sp, #16]
	.loc	2 188 75 is_stmt 0              @ ../Drivers/STM32/stm32_nvm.c:188:75
	ldr	r0, [r0, #16]
	.loc	2 188 87                        @ ../Drivers/STM32/stm32_nvm.c:188:87
	ldr	r1, [sp, #12]
	.loc	2 188 67                        @ ../Drivers/STM32/stm32_nvm.c:188:67
	add.w	r1, r0, r1, lsr #2
	.loc	2 188 100                       @ ../Drivers/STM32/stm32_nvm.c:188:100
	ldrb.w	r0, [sp, #6]
	.loc	2 188 109                       @ ../Drivers/STM32/stm32_nvm.c:188:109
	ldrb.w	r2, [sp, #5]
	.loc	2 188 107                       @ ../Drivers/STM32/stm32_nvm.c:188:107
	orrs	r2, r0
	movs	r3, #0
	.loc	2 188 13                        @ ../Drivers/STM32/stm32_nvm.c:188:13
	mov	r0, r3
	bl	HAL_FLASH_Program
.Ltmp25:
	.loc	2 188 13                        @ ../Drivers/STM32/stm32_nvm.c:188:13
	cbz	r0, .LBB1_13
	b	.LBB1_12
.LBB1_12:
.Ltmp26:
	.loc	2 189 13 is_stmt 1              @ ../Drivers/STM32/stm32_nvm.c:189:13
	b	.LBB1_15
.Ltmp27:
.LBB1_13:
	.loc	2 190 5                         @ ../Drivers/STM32/stm32_nvm.c:190:5
	b	.LBB1_14
.Ltmp28:
.LBB1_14:
	.loc	2 192 5                         @ ../Drivers/STM32/stm32_nvm.c:192:5
	bl	HAL_FLASH_Lock
	movs	r0, #0
	.loc	2 193 5                         @ ../Drivers/STM32/stm32_nvm.c:193:5
	str	r0, [sp, #20]
	b	.LBB1_16
.LBB1_15:
.Ltmp29:
	@DEBUG_LABEL: set_allocation_state:fail
	.loc	2 195 5                         @ ../Drivers/STM32/stm32_nvm.c:195:5
	bl	HAL_FLASH_Lock
	.loc	2 196 12                        @ ../Drivers/STM32/stm32_nvm.c:196:12
	bl	HAL_FLASH_GetError
	.loc	2 196 5 is_stmt 0               @ ../Drivers/STM32/stm32_nvm.c:196:5
	str	r0, [sp, #20]
	b	.LBB1_16
.LBB1_16:
	.loc	2 197 1 is_stmt 1               @ ../Drivers/STM32/stm32_nvm.c:197:1
	ldr	r0, [sp, #20]
	.loc	2 197 1 epilogue_begin is_stmt 0 @ ../Drivers/STM32/stm32_nvm.c:197:1
	add	sp, #24
	pop	{r7, pc}
.Ltmp30:
.Lfunc_end1:
	.size	set_allocation_state, .Lfunc_end1-set_allocation_state
	.cfi_endproc
	.cantunwind
	.fnend
                                        @ -- End function
	.section	.text.scan_allocation_table,"ax",%progbits
	.hidden	scan_allocation_table           @ -- Begin function scan_allocation_table
	.globl	scan_allocation_table
	.p2align	2
	.type	scan_allocation_table,%function
	.code	16                              @ @scan_allocation_table
	.thumb_func
scan_allocation_table:
.Lfunc_begin2:
	.loc	2 208 0 is_stmt 1               @ ../Drivers/STM32/stm32_nvm.c:208:0
	.fnstart
	.cfi_startproc
@ %bb.0:
	.pad	#36
	sub	sp, #36
	.cfi_def_cfa_offset 36
                                        @ kill: def $r12 killed $r2
	str	r0, [sp, #32]
	str	r1, [sp, #28]
	strb.w	r2, [sp, #27]
	str	r3, [sp, #20]
.Ltmp31:
	.loc	2 209 33 prologue_end           @ ../Drivers/STM32/stm32_nvm.c:209:33
	ldrb.w	r1, [sp, #27]
	.loc	2 209 49 is_stmt 0              @ ../Drivers/STM32/stm32_nvm.c:209:49
	orr.w	r0, r1, r1, lsl #2
	.loc	2 209 68                        @ ../Drivers/STM32/stm32_nvm.c:209:68
	orr.w	r0, r0, r1, lsl #4
	.loc	2 209 87                        @ ../Drivers/STM32/stm32_nvm.c:209:87
	orr.w	r0, r0, r1, lsl #6
	.loc	2 209 19                        @ ../Drivers/STM32/stm32_nvm.c:209:19
	strb.w	r0, [sp, #19]
	.loc	2 210 23 is_stmt 1              @ ../Drivers/STM32/stm32_nvm.c:210:23
	ldr	r0, [sp, #28]
	.loc	2 210 33 is_stmt 0              @ ../Drivers/STM32/stm32_nvm.c:210:33
	adds	r0, #3
	.loc	2 210 44                        @ ../Drivers/STM32/stm32_nvm.c:210:44
	bic	r0, r0, #3
	.loc	2 210 12                        @ ../Drivers/STM32/stm32_nvm.c:210:12
	str	r0, [sp, #12]
	.loc	2 211 21 is_stmt 1              @ ../Drivers/STM32/stm32_nvm.c:211:21
	ldr	r0, [sp, #12]
	.loc	2 211 29 is_stmt 0              @ ../Drivers/STM32/stm32_nvm.c:211:29
	ldr	r1, [sp, #28]
	.loc	2 211 27                        @ ../Drivers/STM32/stm32_nvm.c:211:27
	subs	r0, r0, r1
	.loc	2 211 12                        @ ../Drivers/STM32/stm32_nvm.c:211:12
	str	r0, [sp, #8]
	.loc	2 212 22 is_stmt 1              @ ../Drivers/STM32/stm32_nvm.c:212:22
	ldrb.w	r0, [sp, #19]
	.loc	2 212 13 is_stmt 0              @ ../Drivers/STM32/stm32_nvm.c:212:13
	strb.w	r0, [sp, #7]
	.loc	2 217 5 is_stmt 1               @ ../Drivers/STM32/stm32_nvm.c:217:5
	b	.LBB2_1
.LBB2_1:                                @ =>This Inner Loop Header: Depth=1
.Ltmp32:
	.loc	2 217 12 is_stmt 0              @ ../Drivers/STM32/stm32_nvm.c:217:12
	ldr	r0, [sp, #12]
	.loc	2 217 22                        @ ../Drivers/STM32/stm32_nvm.c:217:22
	ldr	r1, [sp, #32]
	.loc	2 217 30                        @ ../Drivers/STM32/stm32_nvm.c:217:30
	ldr	r1, [r1, #12]
	.loc	2 217 41                        @ ../Drivers/STM32/stm32_nvm.c:217:41
	adds	r1, #4
.Ltmp33:
	.loc	2 217 5                         @ ../Drivers/STM32/stm32_nvm.c:217:5
	cmp	r0, r1
	blo	.LBB2_8
	b	.LBB2_2
.LBB2_2:                                @   in Loop: Header=BB2_1 Depth=1
.Ltmp34:
	.loc	2 218 18 is_stmt 1              @ ../Drivers/STM32/stm32_nvm.c:218:18
	ldr	r0, [sp, #32]
	.loc	2 218 26 is_stmt 0              @ ../Drivers/STM32/stm32_nvm.c:218:26
	ldr	r0, [r0, #16]
	.loc	2 218 39                        @ ../Drivers/STM32/stm32_nvm.c:218:39
	ldr	r1, [sp, #12]
	.loc	2 218 45                        @ ../Drivers/STM32/stm32_nvm.c:218:45
	subs	r1, #1
	.loc	2 218 50                        @ ../Drivers/STM32/stm32_nvm.c:218:50
	lsrs	r1, r1, #2
	.loc	2 218 18                        @ ../Drivers/STM32/stm32_nvm.c:218:18
	ldrb	r0, [r0, r1]
	.loc	2 218 16                        @ ../Drivers/STM32/stm32_nvm.c:218:16
	strb.w	r0, [sp, #7]
.Ltmp35:
	.loc	2 219 13 is_stmt 1              @ ../Drivers/STM32/stm32_nvm.c:219:13
	ldr	r0, [sp, #8]
.Ltmp36:
	.loc	2 219 13 is_stmt 0              @ ../Drivers/STM32/stm32_nvm.c:219:13
	cbz	r0, .LBB2_4
	b	.LBB2_3
.LBB2_3:                                @   in Loop: Header=BB2_1 Depth=1
.Ltmp37:
	.loc	2 220 46 is_stmt 1              @ ../Drivers/STM32/stm32_nvm.c:220:46
	ldr	r0, [sp, #8]
	.loc	2 220 53 is_stmt 0              @ ../Drivers/STM32/stm32_nvm.c:220:53
	lsls	r1, r0, #1
	movs	r0, #255
	.loc	2 220 42                        @ ../Drivers/STM32/stm32_nvm.c:220:42
	lsrs	r0, r1
	.loc	2 220 35                        @ ../Drivers/STM32/stm32_nvm.c:220:35
	mvns	r0, r0
	.loc	2 220 21                        @ ../Drivers/STM32/stm32_nvm.c:220:21
	strb.w	r0, [sp, #6]
	.loc	2 221 23 is_stmt 1              @ ../Drivers/STM32/stm32_nvm.c:221:23
	ldrb.w	r0, [sp, #7]
	.loc	2 221 33 is_stmt 0              @ ../Drivers/STM32/stm32_nvm.c:221:33
	ldrb.w	r2, [sp, #6]
	.loc	2 221 30                        @ ../Drivers/STM32/stm32_nvm.c:221:30
	bics	r0, r2
	.loc	2 221 49                        @ ../Drivers/STM32/stm32_nvm.c:221:49
	ldrb.w	r1, [sp, #19]
	.loc	2 221 60                        @ ../Drivers/STM32/stm32_nvm.c:221:60
	ands	r1, r2
	.loc	2 221 46                        @ ../Drivers/STM32/stm32_nvm.c:221:46
	add	r0, r1
	.loc	2 221 20                        @ ../Drivers/STM32/stm32_nvm.c:221:20
	strb.w	r0, [sp, #7]
	movs	r0, #0
	.loc	2 222 20 is_stmt 1              @ ../Drivers/STM32/stm32_nvm.c:222:20
	str	r0, [sp, #8]
	.loc	2 223 9                         @ ../Drivers/STM32/stm32_nvm.c:223:9
	b	.LBB2_4
.Ltmp38:
.LBB2_4:                                @   in Loop: Header=BB2_1 Depth=1
	.loc	2 224 13                        @ ../Drivers/STM32/stm32_nvm.c:224:13
	ldrb.w	r0, [sp, #7]
	.loc	2 224 23 is_stmt 0              @ ../Drivers/STM32/stm32_nvm.c:224:23
	ldrb.w	r1, [sp, #19]
.Ltmp39:
	.loc	2 224 13                        @ ../Drivers/STM32/stm32_nvm.c:224:13
	cmp	r0, r1
	beq	.LBB2_6
	b	.LBB2_5
.LBB2_5:
.Ltmp40:
	.loc	2 225 13 is_stmt 1              @ ../Drivers/STM32/stm32_nvm.c:225:13
	b	.LBB2_8
.Ltmp41:
.LBB2_6:                                @   in Loop: Header=BB2_1 Depth=1
	.loc	2 226 5                         @ ../Drivers/STM32/stm32_nvm.c:226:5
	b	.LBB2_7
.Ltmp42:
.LBB2_7:                                @   in Loop: Header=BB2_1 Depth=1
	.loc	2 217 53                        @ ../Drivers/STM32/stm32_nvm.c:217:53
	ldr	r0, [sp, #12]
	subs	r0, #4
	str	r0, [sp, #12]
	.loc	2 217 5 is_stmt 0               @ ../Drivers/STM32/stm32_nvm.c:217:5
	b	.LBB2_1
.Ltmp43:
.LBB2_8:
	.loc	2 229 5 is_stmt 1               @ ../Drivers/STM32/stm32_nvm.c:229:5
	b	.LBB2_9
.LBB2_9:                                @ =>This Inner Loop Header: Depth=1
.Ltmp44:
	.loc	2 229 14 is_stmt 0              @ ../Drivers/STM32/stm32_nvm.c:229:14
	ldrb.w	r2, [sp, #7]
	.loc	2 229 31                        @ ../Drivers/STM32/stm32_nvm.c:229:31
	ldrb.w	r0, [sp, #19]
	.loc	2 229 42                        @ ../Drivers/STM32/stm32_nvm.c:229:42
	and	r1, r0, #3
	movs	r0, #0
	.loc	2 229 50                        @ ../Drivers/STM32/stm32_nvm.c:229:50
	cmp.w	r1, r2, lsr #6
	str	r0, [sp]                        @ 4-byte Spill
	bne	.LBB2_11
	b	.LBB2_10
.LBB2_10:                               @   in Loop: Header=BB2_9 Depth=1
	.loc	2 229 54                        @ ../Drivers/STM32/stm32_nvm.c:229:54
	ldr	r1, [sp, #12]
	.loc	2 229 62                        @ ../Drivers/STM32/stm32_nvm.c:229:62
	ldr	r0, [sp, #32]
	.loc	2 229 70                        @ ../Drivers/STM32/stm32_nvm.c:229:70
	ldr	r2, [r0, #12]
	movs	r0, #0
	.loc	2 229 60                        @ ../Drivers/STM32/stm32_nvm.c:229:60
	cmp	r1, r2
	it	hi
	movhi	r0, #1
	str	r0, [sp]                        @ 4-byte Spill
	b	.LBB2_11
.LBB2_11:                               @   in Loop: Header=BB2_9 Depth=1
	.loc	2 0 0                           @ ../Drivers/STM32/stm32_nvm.c:0:0
	ldr	r0, [sp]                        @ 4-byte Reload
.Ltmp45:
	.loc	2 229 5                         @ ../Drivers/STM32/stm32_nvm.c:229:5
	lsls	r0, r0, #31
	cbz	r0, .LBB2_14
	b	.LBB2_12
.LBB2_12:                               @   in Loop: Header=BB2_9 Depth=1
.Ltmp46:
	.loc	2 230 16 is_stmt 1              @ ../Drivers/STM32/stm32_nvm.c:230:16
	ldrb.w	r0, [sp, #7]
	lsls	r0, r0, #2
	strb.w	r0, [sp, #7]
	.loc	2 231 5                         @ ../Drivers/STM32/stm32_nvm.c:231:5
	b	.LBB2_13
.Ltmp47:
.LBB2_13:                               @   in Loop: Header=BB2_9 Depth=1
	.loc	2 229 88                        @ ../Drivers/STM32/stm32_nvm.c:229:88
	ldr	r0, [sp, #12]
	subs	r0, #1
	str	r0, [sp, #12]
	.loc	2 229 5 is_stmt 0               @ ../Drivers/STM32/stm32_nvm.c:229:5
	b	.LBB2_9
.Ltmp48:
.LBB2_14:
	.loc	2 233 14 is_stmt 1              @ ../Drivers/STM32/stm32_nvm.c:233:14
	ldrb.w	r0, [sp, #7]
	.loc	2 233 21 is_stmt 0              @ ../Drivers/STM32/stm32_nvm.c:233:21
	lsrs	r0, r0, #6
	.loc	2 233 6                         @ ../Drivers/STM32/stm32_nvm.c:233:6
	ldr	r1, [sp, #20]
	.loc	2 233 12                        @ ../Drivers/STM32/stm32_nvm.c:233:12
	strb	r0, [r1]
	.loc	2 235 12 is_stmt 1              @ ../Drivers/STM32/stm32_nvm.c:235:12
	ldr	r0, [sp, #12]
	.loc	2 235 5 epilogue_begin is_stmt 0 @ ../Drivers/STM32/stm32_nvm.c:235:5
	add	sp, #36
	bx	lr
.Ltmp49:
.Lfunc_end2:
	.size	scan_allocation_table, .Lfunc_end2-scan_allocation_table
	.cfi_endproc
	.cantunwind
	.fnend
                                        @ -- End function
	.section	.text.NVM_init,"ax",%progbits
	.hidden	NVM_init                        @ -- Begin function NVM_init
	.globl	NVM_init
	.p2align	2
	.type	NVM_init,%function
	.code	16                              @ @NVM_init
	.thumb_func
NVM_init:
.Lfunc_begin3:
	.loc	2 242 0 is_stmt 1               @ ../Drivers/STM32/stm32_nvm.c:242:0
	.fnstart
	.cfi_startproc
@ %bb.0:
	.save	{r7, lr}
	push	{r7, lr}
	.cfi_def_cfa_offset 8
	.cfi_offset lr, -4
	.cfi_offset r7, -8
	.pad	#32
	sub	sp, #32
	.cfi_def_cfa_offset 40
.Ltmp50:
	.loc	2 244 70 prologue_end           @ ../Drivers/STM32/stm32_nvm.c:244:70
	movw	r0, :lower16:sectors
	movt	r0, :upper16:sectors
	str	r0, [sp, #8]                    @ 4-byte Spill
	ldr	r1, [r0, #8]
	movs	r2, #3
	str	r2, [sp, #4]                    @ 4-byte Spill
	add.w	r3, sp, #31
	.loc	2 244 24 is_stmt 0              @ ../Drivers/STM32/stm32_nvm.c:244:24
	bl	scan_allocation_table
	ldr	r2, [sp, #4]                    @ 4-byte Reload
	mov	r1, r0
	.loc	2 244 22                        @ ../Drivers/STM32/stm32_nvm.c:244:22
	ldr	r0, [sp, #8]                    @ 4-byte Reload
	str	r1, [r0]
	.loc	2 246 70 is_stmt 1              @ ../Drivers/STM32/stm32_nvm.c:246:70
	ldr	r1, [r0, #32]
	adds	r0, #24
	add.w	r3, sp, #30
	.loc	2 246 24 is_stmt 0              @ ../Drivers/STM32/stm32_nvm.c:246:24
	bl	scan_allocation_table
	ldr	r1, [sp, #8]                    @ 4-byte Reload
	.loc	2 246 22                        @ ../Drivers/STM32/stm32_nvm.c:246:22
	str	r0, [r1, #24]
	.loc	2 253 18 is_stmt 1              @ ../Drivers/STM32/stm32_nvm.c:253:18
	movw	r1, :lower16:read_sector_
	movt	r1, :upper16:read_sector_
	movs	r0, #0
	strb	r0, [r1]
.Ltmp51:
	.loc	2 254 9                         @ ../Drivers/STM32/stm32_nvm.c:254:9
	ldrb.w	r0, [sp, #30]
.Ltmp52:
	.loc	2 254 9 is_stmt 0               @ ../Drivers/STM32/stm32_nvm.c:254:9
	cbnz	r0, .LBB3_2
	b	.LBB3_1
.LBB3_1:
.Ltmp53:
	.loc	2 255 22 is_stmt 1              @ ../Drivers/STM32/stm32_nvm.c:255:22
	movw	r1, :lower16:read_sector_
	movt	r1, :upper16:read_sector_
	movs	r0, #1
	strb	r0, [r1]
	.loc	2 255 9 is_stmt 0               @ ../Drivers/STM32/stm32_nvm.c:255:9
	b	.LBB3_2
.Ltmp54:
.LBB3_2:
	.loc	2 258 38 is_stmt 1              @ ../Drivers/STM32/stm32_nvm.c:258:38
	movw	r0, :lower16:read_sector_
	movt	r0, :upper16:read_sector_
	ldrb	r0, [r0]
	.loc	2 258 30 is_stmt 0              @ ../Drivers/STM32/stm32_nvm.c:258:30
	add.w	r1, r0, r0, lsl #1
	movw	r0, :lower16:sectors
	movt	r0, :upper16:sectors
	add.w	r0, r0, r1, lsl #3
	.loc	2 258 15                        @ ../Drivers/STM32/stm32_nvm.c:258:15
	str	r0, [sp, #24]
	.loc	2 260 52 is_stmt 1              @ ../Drivers/STM32/stm32_nvm.c:260:52
	ldr	r0, [sp, #24]
	.loc	2 260 78 is_stmt 0              @ ../Drivers/STM32/stm32_nvm.c:260:78
	ldr	r1, [r0]
	movs	r2, #0
	str	r2, [sp]                        @ 4-byte Spill
	add.w	r3, sp, #23
	.loc	2 260 30                        @ ../Drivers/STM32/stm32_nvm.c:260:30
	bl	scan_allocation_table
	mov	r1, r0
	.loc	2 260 12                        @ ../Drivers/STM32/stm32_nvm.c:260:12
	ldr	r0, [sp]                        @ 4-byte Reload
	str	r1, [sp, #16]
	.loc	2 262 16 is_stmt 1              @ ../Drivers/STM32/stm32_nvm.c:262:16
	ldr	r1, [sp, #24]
	.loc	2 262 29 is_stmt 0              @ ../Drivers/STM32/stm32_nvm.c:262:29
	ldr	r1, [r1]
	.loc	2 262 37                        @ ../Drivers/STM32/stm32_nvm.c:262:37
	ldr	r2, [sp, #16]
	.loc	2 262 35                        @ ../Drivers/STM32/stm32_nvm.c:262:35
	subs	r1, r1, r2
	.loc	2 262 14                        @ ../Drivers/STM32/stm32_nvm.c:262:14
	movw	r2, :lower16:n_valid_
	movt	r2, :upper16:n_valid_
	str	r1, [r2]
	.loc	2 264 21 is_stmt 1              @ ../Drivers/STM32/stm32_nvm.c:264:21
	movw	r1, :lower16:n_staging_area_
	movt	r1, :upper16:n_staging_area_
	str	r0, [r1]
	.loc	2 266 9                         @ ../Drivers/STM32/stm32_nvm.c:266:9
	str	r0, [sp, #12]
	.loc	2 274 12                        @ ../Drivers/STM32/stm32_nvm.c:274:12
	ldr	r0, [sp, #12]
	.loc	2 274 5 epilogue_begin is_stmt 0 @ ../Drivers/STM32/stm32_nvm.c:274:5
	add	sp, #32
	pop	{r7, pc}
.Ltmp55:
.Lfunc_end3:
	.size	NVM_init, .Lfunc_end3-NVM_init
	.cfi_endproc
	.cantunwind
	.fnend
                                        @ -- End function
	.section	.text.NVM_erase,"ax",%progbits
	.hidden	NVM_erase                       @ -- Begin function NVM_erase
	.globl	NVM_erase
	.p2align	2
	.type	NVM_erase,%function
	.code	16                              @ @NVM_erase
	.thumb_func
NVM_erase:
.Lfunc_begin4:
	.loc	2 284 0 is_stmt 1               @ ../Drivers/STM32/stm32_nvm.c:284:0
	.fnstart
	.cfi_startproc
@ %bb.0:
	.save	{r7, lr}
	push	{r7, lr}
	.cfi_def_cfa_offset 8
	.cfi_offset lr, -4
	.cfi_offset r7, -8
	.pad	#8
	sub	sp, #8
	.cfi_def_cfa_offset 16
.Ltmp56:
	.loc	2 285 18 prologue_end           @ ../Drivers/STM32/stm32_nvm.c:285:18
	movw	r0, :lower16:read_sector_
	movt	r0, :upper16:read_sector_
	movs	r1, #0
	strb	r1, [r0]
	.loc	2 286 35                        @ ../Drivers/STM32/stm32_nvm.c:286:35
	movw	r0, :lower16:sectors
	movt	r0, :upper16:sectors
	ldr	r2, [r0, #12]
	.loc	2 286 22 is_stmt 0              @ ../Drivers/STM32/stm32_nvm.c:286:22
	str	r2, [r0]
	.loc	2 287 35 is_stmt 1              @ ../Drivers/STM32/stm32_nvm.c:287:35
	ldr	r3, [r0, #36]
	.loc	2 287 22 is_stmt 0              @ ../Drivers/STM32/stm32_nvm.c:287:22
	mov	r2, r0
	str	r3, [r2, #24]!
	.loc	2 289 9 is_stmt 1               @ ../Drivers/STM32/stm32_nvm.c:289:9
	str	r2, [sp]                        @ 4-byte Spill
	str	r1, [sp, #4]
	.loc	2 290 14                        @ ../Drivers/STM32/stm32_nvm.c:290:14
	bl	erase
	mov	r2, r0
	.loc	2 290 11 is_stmt 0              @ ../Drivers/STM32/stm32_nvm.c:290:11
	ldr	r0, [sp]                        @ 4-byte Reload
	ldr	r1, [sp, #4]
	orrs	r1, r2
	str	r1, [sp, #4]
	.loc	2 291 14 is_stmt 1              @ ../Drivers/STM32/stm32_nvm.c:291:14
	bl	erase
	mov	r1, r0
	.loc	2 291 11 is_stmt 0              @ ../Drivers/STM32/stm32_nvm.c:291:11
	ldr	r0, [sp, #4]
	orrs	r0, r1
	str	r0, [sp, #4]
	.loc	2 292 12 is_stmt 1              @ ../Drivers/STM32/stm32_nvm.c:292:12
	ldr	r0, [sp, #4]
	.loc	2 292 5 epilogue_begin is_stmt 0 @ ../Drivers/STM32/stm32_nvm.c:292:5
	add	sp, #8
	pop	{r7, pc}
.Ltmp57:
.Lfunc_end4:
	.size	NVM_erase, .Lfunc_end4-NVM_erase
	.cfi_endproc
	.cantunwind
	.fnend
                                        @ -- End function
	.section	.text.NVM_get_max_read_length,"ax",%progbits
	.hidden	NVM_get_max_read_length         @ -- Begin function NVM_get_max_read_length
	.globl	NVM_get_max_read_length
	.p2align	2
	.type	NVM_get_max_read_length,%function
	.code	16                              @ @NVM_get_max_read_length
	.thumb_func
NVM_get_max_read_length:
.Lfunc_begin5:
	.fnstart
	.cfi_startproc
@ %bb.0:
	.loc	2 298 12 prologue_end is_stmt 1 @ ../Drivers/STM32/stm32_nvm.c:298:12
	movw	r0, :lower16:n_valid_
	movt	r0, :upper16:n_valid_
	ldr	r0, [r0]
	.loc	2 298 21 is_stmt 0              @ ../Drivers/STM32/stm32_nvm.c:298:21
	lsls	r0, r0, #3
	.loc	2 298 5                         @ ../Drivers/STM32/stm32_nvm.c:298:5
	bx	lr
.Ltmp58:
.Lfunc_end5:
	.size	NVM_get_max_read_length, .Lfunc_end5-NVM_get_max_read_length
	.cfi_endproc
	.cantunwind
	.fnend
                                        @ -- End function
	.section	.text.NVM_get_max_write_length,"ax",%progbits
	.hidden	NVM_get_max_write_length        @ -- Begin function NVM_get_max_write_length
	.globl	NVM_get_max_write_length
	.p2align	2
	.type	NVM_get_max_write_length,%function
	.code	16                              @ @NVM_get_max_write_length
	.thumb_func
NVM_get_max_write_length:
.Lfunc_begin6:
	.loc	2 303 0 is_stmt 1               @ ../Drivers/STM32/stm32_nvm.c:303:0
	.fnstart
	.cfi_startproc
@ %bb.0:
	.pad	#4
	sub	sp, #4
	.cfi_def_cfa_offset 4
.Ltmp59:
	.loc	2 304 37 prologue_end           @ ../Drivers/STM32/stm32_nvm.c:304:37
	movw	r0, :lower16:read_sector_
	movt	r0, :upper16:read_sector_
	ldrb	r0, [r0]
	.loc	2 304 35 is_stmt 0              @ ../Drivers/STM32/stm32_nvm.c:304:35
	rsb.w	r0, r0, #1
	.loc	2 304 25                        @ ../Drivers/STM32/stm32_nvm.c:304:25
	add.w	r1, r0, r0, lsl #1
	movw	r0, :lower16:sectors
	movt	r0, :upper16:sectors
	add.w	r0, r0, r1, lsl #3
	.loc	2 304 15                        @ ../Drivers/STM32/stm32_nvm.c:304:15
	str	r0, [sp]
	.loc	2 305 13 is_stmt 1              @ ../Drivers/STM32/stm32_nvm.c:305:13
	ldr	r1, [sp]
	.loc	2 305 21 is_stmt 0              @ ../Drivers/STM32/stm32_nvm.c:305:21
	ldr	r0, [r1, #8]
	.loc	2 305 38                        @ ../Drivers/STM32/stm32_nvm.c:305:38
	ldr	r1, [r1, #12]
	.loc	2 305 28                        @ ../Drivers/STM32/stm32_nvm.c:305:28
	subs	r0, r0, r1
	.loc	2 305 50                        @ ../Drivers/STM32/stm32_nvm.c:305:50
	lsls	r0, r0, #3
	.loc	2 305 5 epilogue_begin          @ ../Drivers/STM32/stm32_nvm.c:305:5
	add	sp, #4
	bx	lr
.Ltmp60:
.Lfunc_end6:
	.size	NVM_get_max_write_length, .Lfunc_end6-NVM_get_max_write_length
	.cfi_endproc
	.cantunwind
	.fnend
                                        @ -- End function
	.section	.text.NVM_read,"ax",%progbits
	.hidden	NVM_read                        @ -- Begin function NVM_read
	.globl	NVM_read
	.p2align	2
	.type	NVM_read,%function
	.code	16                              @ @NVM_read
	.thumb_func
NVM_read:
.Lfunc_begin7:
	.loc	2 314 0 is_stmt 1               @ ../Drivers/STM32/stm32_nvm.c:314:0
	.fnstart
	.cfi_startproc
@ %bb.0:
	.save	{r7, lr}
	push	{r7, lr}
	.cfi_def_cfa_offset 8
	.cfi_offset lr, -4
	.cfi_offset r7, -8
	.pad	#24
	sub	sp, #24
	.cfi_def_cfa_offset 32
	str	r0, [sp, #16]
	str	r1, [sp, #12]
	str	r2, [sp, #8]
.Ltmp61:
	.loc	2 315 9 prologue_end            @ ../Drivers/STM32/stm32_nvm.c:315:9
	ldr	r0, [sp, #16]
	.loc	2 315 18 is_stmt 0              @ ../Drivers/STM32/stm32_nvm.c:315:18
	ldr	r1, [sp, #8]
	.loc	2 315 16                        @ ../Drivers/STM32/stm32_nvm.c:315:16
	add	r0, r1
	.loc	2 315 28                        @ ../Drivers/STM32/stm32_nvm.c:315:28
	movw	r1, :lower16:n_valid_
	movt	r1, :upper16:n_valid_
	ldr	r1, [r1]
.Ltmp62:
	.loc	2 315 9                         @ ../Drivers/STM32/stm32_nvm.c:315:9
	cmp.w	r0, r1, lsl #3
	bls	.LBB7_2
	b	.LBB7_1
.LBB7_1:
	.loc	2 0 9                           @ ../Drivers/STM32/stm32_nvm.c:0:9
	mov.w	r0, #-1
.Ltmp63:
	.loc	2 316 9 is_stmt 1               @ ../Drivers/STM32/stm32_nvm.c:316:9
	str	r0, [sp, #20]
	b	.LBB7_3
.Ltmp64:
.LBB7_2:
	.loc	2 317 38                        @ ../Drivers/STM32/stm32_nvm.c:317:38
	movw	r0, :lower16:read_sector_
	movt	r0, :upper16:read_sector_
	ldrb	r0, [r0]
	.loc	2 317 30 is_stmt 0              @ ../Drivers/STM32/stm32_nvm.c:317:30
	add.w	r1, r0, r0, lsl #1
	movw	r0, :lower16:sectors
	movt	r0, :upper16:sectors
	add.w	r0, r0, r1, lsl #3
	.loc	2 317 15                        @ ../Drivers/STM32/stm32_nvm.c:317:15
	str	r0, [sp, #4]
	.loc	2 318 49 is_stmt 1              @ ../Drivers/STM32/stm32_nvm.c:318:49
	ldr	r0, [sp, #4]
	.loc	2 318 80 is_stmt 0              @ ../Drivers/STM32/stm32_nvm.c:318:80
	ldr	r1, [r0]
	.loc	2 318 62                        @ ../Drivers/STM32/stm32_nvm.c:318:62
	ldr	r0, [r0, #20]
	.loc	2 318 88                        @ ../Drivers/STM32/stm32_nvm.c:318:88
	movw	r2, :lower16:n_valid_
	movt	r2, :upper16:n_valid_
	ldr	r2, [r2]
	.loc	2 318 86                        @ ../Drivers/STM32/stm32_nvm.c:318:86
	subs	r1, r1, r2
	.loc	2 318 49                        @ ../Drivers/STM32/stm32_nvm.c:318:49
	add.w	r0, r0, r1, lsl #3
	.loc	2 318 101                       @ ../Drivers/STM32/stm32_nvm.c:318:101
	ldr	r1, [sp, #16]
	.loc	2 318 99                        @ ../Drivers/STM32/stm32_nvm.c:318:99
	add	r0, r1
	.loc	2 318 20                        @ ../Drivers/STM32/stm32_nvm.c:318:20
	str	r0, [sp]
	.loc	2 319 12 is_stmt 1              @ ../Drivers/STM32/stm32_nvm.c:319:12
	ldr	r0, [sp, #12]
	.loc	2 319 18 is_stmt 0              @ ../Drivers/STM32/stm32_nvm.c:319:18
	ldr	r1, [sp]
	.loc	2 319 27                        @ ../Drivers/STM32/stm32_nvm.c:319:27
	ldr	r2, [sp, #8]
	.loc	2 319 5                         @ ../Drivers/STM32/stm32_nvm.c:319:5
	bl	__aeabi_memcpy
	movs	r0, #0
	.loc	2 320 5 is_stmt 1               @ ../Drivers/STM32/stm32_nvm.c:320:5
	str	r0, [sp, #20]
	b	.LBB7_3
.LBB7_3:
	.loc	2 321 1                         @ ../Drivers/STM32/stm32_nvm.c:321:1
	ldr	r0, [sp, #20]
	.loc	2 321 1 epilogue_begin is_stmt 0 @ ../Drivers/STM32/stm32_nvm.c:321:1
	add	sp, #24
	pop	{r7, pc}
.Ltmp65:
.Lfunc_end7:
	.size	NVM_read, .Lfunc_end7-NVM_read
	.cfi_endproc
	.cantunwind
	.fnend
                                        @ -- End function
	.section	.text.NVM_start_write,"ax",%progbits
	.hidden	NVM_start_write                 @ -- Begin function NVM_start_write
	.globl	NVM_start_write
	.p2align	2
	.type	NVM_start_write,%function
	.code	16                              @ @NVM_start_write
	.thumb_func
NVM_start_write:
.Lfunc_begin8:
	.loc	2 329 0 is_stmt 1               @ ../Drivers/STM32/stm32_nvm.c:329:0
	.fnstart
	.cfi_startproc
@ %bb.0:
	.save	{r7, lr}
	push	{r7, lr}
	.cfi_def_cfa_offset 8
	.cfi_offset lr, -4
	.cfi_offset r7, -8
	.pad	#16
	sub	sp, #16
	.cfi_def_cfa_offset 24
	str	r0, [sp, #8]
	movs	r0, #0
.Ltmp66:
	.loc	2 330 9 prologue_end            @ ../Drivers/STM32/stm32_nvm.c:330:9
	str	r0, [sp, #4]
	.loc	2 331 37                        @ ../Drivers/STM32/stm32_nvm.c:331:37
	movw	r0, :lower16:read_sector_
	movt	r0, :upper16:read_sector_
	ldrb	r0, [r0]
	.loc	2 331 35 is_stmt 0              @ ../Drivers/STM32/stm32_nvm.c:331:35
	rsb.w	r0, r0, #1
	.loc	2 331 25                        @ ../Drivers/STM32/stm32_nvm.c:331:25
	add.w	r1, r0, r0, lsl #1
	movw	r0, :lower16:sectors
	movt	r0, :upper16:sectors
	add.w	r0, r0, r1, lsl #3
	.loc	2 331 15                        @ ../Drivers/STM32/stm32_nvm.c:331:15
	str	r0, [sp]
	.loc	2 333 15 is_stmt 1              @ ../Drivers/STM32/stm32_nvm.c:333:15
	ldr	r0, [sp, #8]
	.loc	2 333 22 is_stmt 0              @ ../Drivers/STM32/stm32_nvm.c:333:22
	adds	r0, #7
	.loc	2 333 27                        @ ../Drivers/STM32/stm32_nvm.c:333:27
	lsrs	r0, r0, #3
	.loc	2 333 12                        @ ../Drivers/STM32/stm32_nvm.c:333:12
	str	r0, [sp, #8]
.Ltmp67:
	.loc	2 334 9 is_stmt 1               @ ../Drivers/STM32/stm32_nvm.c:334:9
	ldr	r0, [sp, #8]
	.loc	2 334 18 is_stmt 0              @ ../Drivers/STM32/stm32_nvm.c:334:18
	ldr	r2, [sp]
	.loc	2 334 26                        @ ../Drivers/STM32/stm32_nvm.c:334:26
	ldr	r1, [r2, #8]
	.loc	2 334 43                        @ ../Drivers/STM32/stm32_nvm.c:334:43
	ldr	r2, [r2, #12]
	.loc	2 334 33                        @ ../Drivers/STM32/stm32_nvm.c:334:33
	subs	r1, r1, r2
.Ltmp68:
	.loc	2 334 9                         @ ../Drivers/STM32/stm32_nvm.c:334:9
	cmp	r0, r1
	bls	.LBB8_2
	b	.LBB8_1
.LBB8_1:
	.loc	2 0 9                           @ ../Drivers/STM32/stm32_nvm.c:0:9
	mov.w	r0, #-1
.Ltmp69:
	.loc	2 335 9 is_stmt 1               @ ../Drivers/STM32/stm32_nvm.c:335:9
	str	r0, [sp, #12]
	b	.LBB8_9
.Ltmp70:
.LBB8_2:
	.loc	2 338 9                         @ ../Drivers/STM32/stm32_nvm.c:338:9
	ldr	r0, [sp, #8]
	.loc	2 338 18 is_stmt 0              @ ../Drivers/STM32/stm32_nvm.c:338:18
	ldr	r1, [sp]
	.loc	2 338 43                        @ ../Drivers/STM32/stm32_nvm.c:338:43
	ldr	r2, [r1]
	.loc	2 338 26                        @ ../Drivers/STM32/stm32_nvm.c:338:26
	ldr	r1, [r1, #8]
	.loc	2 338 33                        @ ../Drivers/STM32/stm32_nvm.c:338:33
	subs	r1, r1, r2
.Ltmp71:
	.loc	2 338 9                         @ ../Drivers/STM32/stm32_nvm.c:338:9
	cmp	r0, r1
	bls	.LBB8_6
	b	.LBB8_3
.LBB8_3:
.Ltmp72:
	.loc	2 339 29 is_stmt 1              @ ../Drivers/STM32/stm32_nvm.c:339:29
	ldr	r0, [sp]
	.loc	2 339 23 is_stmt 0              @ ../Drivers/STM32/stm32_nvm.c:339:23
	bl	erase
	.loc	2 339 21                        @ ../Drivers/STM32/stm32_nvm.c:339:21
	str	r0, [sp, #4]
.Ltmp73:
	.loc	2 339 13                        @ ../Drivers/STM32/stm32_nvm.c:339:13
	cbz	r0, .LBB8_5
	b	.LBB8_4
.LBB8_4:
.Ltmp74:
	.loc	2 340 20 is_stmt 1              @ ../Drivers/STM32/stm32_nvm.c:340:20
	ldr	r0, [sp, #4]
	.loc	2 340 13 is_stmt 0              @ ../Drivers/STM32/stm32_nvm.c:340:13
	str	r0, [sp, #12]
	b	.LBB8_9
.LBB8_5:
	.loc	2 339 36 is_stmt 1              @ ../Drivers/STM32/stm32_nvm.c:339:36
	b	.LBB8_6
.Ltmp75:
.LBB8_6:
	.loc	2 343 35                        @ ../Drivers/STM32/stm32_nvm.c:343:35
	ldr	r0, [sp]
	.loc	2 343 51 is_stmt 0              @ ../Drivers/STM32/stm32_nvm.c:343:51
	ldr	r1, [r0]
	.loc	2 343 58                        @ ../Drivers/STM32/stm32_nvm.c:343:58
	ldr	r2, [sp, #8]
	movs	r3, #1
	.loc	2 343 14                        @ ../Drivers/STM32/stm32_nvm.c:343:14
	bl	set_allocation_state
	.loc	2 343 12                        @ ../Drivers/STM32/stm32_nvm.c:343:12
	str	r0, [sp, #4]
.Ltmp76:
	.loc	2 344 9 is_stmt 1               @ ../Drivers/STM32/stm32_nvm.c:344:9
	ldr	r0, [sp, #4]
.Ltmp77:
	.loc	2 344 9 is_stmt 0               @ ../Drivers/STM32/stm32_nvm.c:344:9
	cbz	r0, .LBB8_8
	b	.LBB8_7
.LBB8_7:
.Ltmp78:
	.loc	2 345 16 is_stmt 1              @ ../Drivers/STM32/stm32_nvm.c:345:16
	ldr	r0, [sp, #4]
	.loc	2 345 9 is_stmt 0               @ ../Drivers/STM32/stm32_nvm.c:345:9
	str	r0, [sp, #12]
	b	.LBB8_9
.Ltmp79:
.LBB8_8:
	.loc	2 347 23 is_stmt 1              @ ../Drivers/STM32/stm32_nvm.c:347:23
	ldr	r0, [sp, #8]
	.loc	2 347 21 is_stmt 0              @ ../Drivers/STM32/stm32_nvm.c:347:21
	movw	r1, :lower16:n_staging_area_
	movt	r1, :upper16:n_staging_area_
	str	r0, [r1]
	movs	r0, #0
	.loc	2 348 5 is_stmt 1               @ ../Drivers/STM32/stm32_nvm.c:348:5
	str	r0, [sp, #12]
	b	.LBB8_9
.LBB8_9:
	.loc	2 349 1                         @ ../Drivers/STM32/stm32_nvm.c:349:1
	ldr	r0, [sp, #12]
	.loc	2 349 1 epilogue_begin is_stmt 0 @ ../Drivers/STM32/stm32_nvm.c:349:1
	add	sp, #16
	pop	{r7, pc}
.Ltmp80:
.Lfunc_end8:
	.size	NVM_start_write, .Lfunc_end8-NVM_start_write
	.cfi_endproc
	.cantunwind
	.fnend
                                        @ -- End function
	.section	.text.NVM_write,"ax",%progbits
	.hidden	NVM_write                       @ -- Begin function NVM_write
	.globl	NVM_write
	.p2align	2
	.type	NVM_write,%function
	.code	16                              @ @NVM_write
	.thumb_func
NVM_write:
.Lfunc_begin9:
	.loc	2 361 0 is_stmt 1               @ ../Drivers/STM32/stm32_nvm.c:361:0
	.fnstart
	.cfi_startproc
@ %bb.0:
	.save	{r7, lr}
	push	{r7, lr}
	.cfi_def_cfa_offset 8
	.cfi_offset lr, -4
	.cfi_offset r7, -8
	.pad	#24
	sub	sp, #24
	.cfi_def_cfa_offset 32
	str	r0, [sp, #16]
	str	r1, [sp, #12]
	str	r2, [sp, #8]
.Ltmp81:
	.loc	2 362 9 prologue_end            @ ../Drivers/STM32/stm32_nvm.c:362:9
	ldr	r0, [sp, #16]
	.loc	2 362 18 is_stmt 0              @ ../Drivers/STM32/stm32_nvm.c:362:18
	ldr	r1, [sp, #8]
	.loc	2 362 16                        @ ../Drivers/STM32/stm32_nvm.c:362:16
	add	r0, r1
	.loc	2 362 28                        @ ../Drivers/STM32/stm32_nvm.c:362:28
	movw	r1, :lower16:n_staging_area_
	movt	r1, :upper16:n_staging_area_
	ldr	r1, [r1]
.Ltmp82:
	.loc	2 362 9                         @ ../Drivers/STM32/stm32_nvm.c:362:9
	cmp.w	r0, r1, lsl #3
	bls	.LBB9_2
	b	.LBB9_1
.LBB9_1:
	.loc	2 0 9                           @ ../Drivers/STM32/stm32_nvm.c:0:9
	mov.w	r0, #-1
.Ltmp83:
	.loc	2 363 9 is_stmt 1               @ ../Drivers/STM32/stm32_nvm.c:363:9
	str	r0, [sp, #20]
	b	.LBB9_24
.Ltmp84:
.LBB9_2:
	.loc	2 364 37                        @ ../Drivers/STM32/stm32_nvm.c:364:37
	movw	r0, :lower16:read_sector_
	movt	r0, :upper16:read_sector_
	ldrb	r0, [r0]
	.loc	2 364 35 is_stmt 0              @ ../Drivers/STM32/stm32_nvm.c:364:35
	rsb.w	r0, r0, #1
	.loc	2 364 25                        @ ../Drivers/STM32/stm32_nvm.c:364:25
	add.w	r1, r0, r0, lsl #1
	movw	r0, :lower16:sectors
	movt	r0, :upper16:sectors
	add.w	r0, r0, r1, lsl #3
	.loc	2 364 15                        @ ../Drivers/STM32/stm32_nvm.c:364:15
	str	r0, [sp, #4]
	.loc	2 366 5 is_stmt 1               @ ../Drivers/STM32/stm32_nvm.c:366:5
	bl	HAL_FLASH_Unlock
	.loc	2 367 5                         @ ../Drivers/STM32/stm32_nvm.c:367:5
	bl	HAL_FLASH_ClearError
	.loc	2 370 5                         @ ../Drivers/STM32/stm32_nvm.c:370:5
	b	.LBB9_3
.LBB9_3:                                @ =>This Inner Loop Header: Depth=1
	.loc	2 0 5 is_stmt 0                 @ ../Drivers/STM32/stm32_nvm.c:0:5
	movs	r0, #0
.Ltmp85:
	.loc	2 370 27                        @ ../Drivers/STM32/stm32_nvm.c:370:27
	ldrb.w	r1, [sp, #16]
	lsls	r1, r1, #30
	str	r0, [sp]                        @ 4-byte Spill
	cbz	r1, .LBB9_5
	b	.LBB9_4
.LBB9_4:                                @   in Loop: Header=BB9_3 Depth=1
	.loc	2 370 30                        @ ../Drivers/STM32/stm32_nvm.c:370:30
	ldr	r0, [sp, #8]
	.loc	2 370 27                        @ ../Drivers/STM32/stm32_nvm.c:370:27
	cmp	r0, #0
	it	ne
	movne	r0, #1
	str	r0, [sp]                        @ 4-byte Spill
	b	.LBB9_5
.LBB9_5:                                @   in Loop: Header=BB9_3 Depth=1
	.loc	2 0 0                           @ ../Drivers/STM32/stm32_nvm.c:0:0
	ldr	r0, [sp]                        @ 4-byte Reload
.Ltmp86:
	.loc	2 370 5                         @ ../Drivers/STM32/stm32_nvm.c:370:5
	lsls	r0, r0, #31
	cbz	r0, .LBB9_10
	b	.LBB9_6
.LBB9_6:                                @   in Loop: Header=BB9_3 Depth=1
.Ltmp87:
	.loc	2 372 30 is_stmt 1              @ ../Drivers/STM32/stm32_nvm.c:372:30
	ldr	r0, [sp, #4]
	.loc	2 372 51 is_stmt 0              @ ../Drivers/STM32/stm32_nvm.c:372:51
	ldr	r1, [r0]
	.loc	2 372 38                        @ ../Drivers/STM32/stm32_nvm.c:372:38
	ldr	r0, [r0, #20]
	.loc	2 372 30                        @ ../Drivers/STM32/stm32_nvm.c:372:30
	add.w	r0, r0, r1, lsl #3
	.loc	2 372 61                        @ ../Drivers/STM32/stm32_nvm.c:372:61
	ldr	r1, [sp, #16]
	.loc	2 372 59                        @ ../Drivers/STM32/stm32_nvm.c:372:59
	add	r1, r0
	.loc	2 372 70                        @ ../Drivers/STM32/stm32_nvm.c:372:70
	ldr	r0, [sp, #12]
	.loc	2 372 69                        @ ../Drivers/STM32/stm32_nvm.c:372:69
	ldrb	r2, [r0]
	movs	r3, #0
	.loc	2 371 13 is_stmt 1              @ ../Drivers/STM32/stm32_nvm.c:371:13
	mov	r0, r3
	bl	HAL_FLASH_Program
.Ltmp88:
	.loc	2 371 13 is_stmt 0              @ ../Drivers/STM32/stm32_nvm.c:371:13
	cbz	r0, .LBB9_8
	b	.LBB9_7
.LBB9_7:
.Ltmp89:
	.loc	2 373 13 is_stmt 1              @ ../Drivers/STM32/stm32_nvm.c:373:13
	b	.LBB9_23
.LBB9_8:                                @   in Loop: Header=BB9_3 Depth=1
	.loc	2 372 79                        @ ../Drivers/STM32/stm32_nvm.c:372:79
	b	.LBB9_9
.Ltmp90:
.LBB9_9:                                @   in Loop: Header=BB9_3 Depth=1
	.loc	2 370 38                        @ ../Drivers/STM32/stm32_nvm.c:370:38
	ldr	r0, [sp, #12]
	adds	r0, #1
	str	r0, [sp, #12]
	.loc	2 370 46 is_stmt 0              @ ../Drivers/STM32/stm32_nvm.c:370:46
	ldr	r0, [sp, #16]
	adds	r0, #1
	str	r0, [sp, #16]
	.loc	2 370 56                        @ ../Drivers/STM32/stm32_nvm.c:370:56
	ldr	r0, [sp, #8]
	subs	r0, #1
	str	r0, [sp, #8]
	.loc	2 370 5                         @ ../Drivers/STM32/stm32_nvm.c:370:5
	b	.LBB9_3
.Ltmp91:
.LBB9_10:
	.loc	2 376 5 is_stmt 1               @ ../Drivers/STM32/stm32_nvm.c:376:5
	b	.LBB9_11
.LBB9_11:                               @ =>This Inner Loop Header: Depth=1
.Ltmp92:
	.loc	2 376 12 is_stmt 0              @ ../Drivers/STM32/stm32_nvm.c:376:12
	ldr	r0, [sp, #8]
.Ltmp93:
	.loc	2 376 5                         @ ../Drivers/STM32/stm32_nvm.c:376:5
	cmp	r0, #4
	blo	.LBB9_16
	b	.LBB9_12
.LBB9_12:                               @   in Loop: Header=BB9_11 Depth=1
.Ltmp94:
	.loc	2 378 30 is_stmt 1              @ ../Drivers/STM32/stm32_nvm.c:378:30
	ldr	r0, [sp, #4]
	.loc	2 378 51 is_stmt 0              @ ../Drivers/STM32/stm32_nvm.c:378:51
	ldr	r1, [r0]
	.loc	2 378 38                        @ ../Drivers/STM32/stm32_nvm.c:378:38
	ldr	r0, [r0, #20]
	.loc	2 378 30                        @ ../Drivers/STM32/stm32_nvm.c:378:30
	add.w	r0, r0, r1, lsl #3
	.loc	2 378 61                        @ ../Drivers/STM32/stm32_nvm.c:378:61
	ldr	r1, [sp, #16]
	.loc	2 378 59                        @ ../Drivers/STM32/stm32_nvm.c:378:59
	add	r1, r0
	.loc	2 378 81                        @ ../Drivers/STM32/stm32_nvm.c:378:81
	ldr	r0, [sp, #12]
	.loc	2 378 69                        @ ../Drivers/STM32/stm32_nvm.c:378:69
	ldr	r2, [r0]
	movs	r0, #2
	movs	r3, #0
	.loc	2 377 13 is_stmt 1              @ ../Drivers/STM32/stm32_nvm.c:377:13
	bl	HAL_FLASH_Program
.Ltmp95:
	.loc	2 377 13 is_stmt 0              @ ../Drivers/STM32/stm32_nvm.c:377:13
	cbz	r0, .LBB9_14
	b	.LBB9_13
.LBB9_13:
.Ltmp96:
	.loc	2 379 13 is_stmt 1              @ ../Drivers/STM32/stm32_nvm.c:379:13
	b	.LBB9_23
.LBB9_14:                               @   in Loop: Header=BB9_11 Depth=1
	.loc	2 378 90                        @ ../Drivers/STM32/stm32_nvm.c:378:90
	b	.LBB9_15
.Ltmp97:
.LBB9_15:                               @   in Loop: Header=BB9_11 Depth=1
	.loc	2 376 30                        @ ../Drivers/STM32/stm32_nvm.c:376:30
	ldr	r0, [sp, #12]
	adds	r0, #4
	str	r0, [sp, #12]
	.loc	2 376 43 is_stmt 0              @ ../Drivers/STM32/stm32_nvm.c:376:43
	ldr	r0, [sp, #16]
	adds	r0, #4
	str	r0, [sp, #16]
	.loc	2 376 56                        @ ../Drivers/STM32/stm32_nvm.c:376:56
	ldr	r0, [sp, #8]
	subs	r0, #4
	str	r0, [sp, #8]
	.loc	2 376 5                         @ ../Drivers/STM32/stm32_nvm.c:376:5
	b	.LBB9_11
.Ltmp98:
.LBB9_16:
	.loc	2 382 5 is_stmt 1               @ ../Drivers/STM32/stm32_nvm.c:382:5
	b	.LBB9_17
.LBB9_17:                               @ =>This Inner Loop Header: Depth=1
.Ltmp99:
	.loc	2 382 12 is_stmt 0              @ ../Drivers/STM32/stm32_nvm.c:382:12
	ldr	r0, [sp, #8]
.Ltmp100:
	.loc	2 382 5                         @ ../Drivers/STM32/stm32_nvm.c:382:5
	cbz	r0, .LBB9_22
	b	.LBB9_18
.LBB9_18:                               @   in Loop: Header=BB9_17 Depth=1
.Ltmp101:
	.loc	2 384 30 is_stmt 1              @ ../Drivers/STM32/stm32_nvm.c:384:30
	ldr	r0, [sp, #4]
	.loc	2 384 51 is_stmt 0              @ ../Drivers/STM32/stm32_nvm.c:384:51
	ldr	r1, [r0]
	.loc	2 384 38                        @ ../Drivers/STM32/stm32_nvm.c:384:38
	ldr	r0, [r0, #20]
	.loc	2 384 30                        @ ../Drivers/STM32/stm32_nvm.c:384:30
	add.w	r0, r0, r1, lsl #3
	.loc	2 384 61                        @ ../Drivers/STM32/stm32_nvm.c:384:61
	ldr	r1, [sp, #16]
	.loc	2 384 59                        @ ../Drivers/STM32/stm32_nvm.c:384:59
	add	r1, r0
	.loc	2 384 70                        @ ../Drivers/STM32/stm32_nvm.c:384:70
	ldr	r0, [sp, #12]
	.loc	2 384 69                        @ ../Drivers/STM32/stm32_nvm.c:384:69
	ldrb	r2, [r0]
	movs	r3, #0
	.loc	2 383 13 is_stmt 1              @ ../Drivers/STM32/stm32_nvm.c:383:13
	mov	r0, r3
	bl	HAL_FLASH_Program
.Ltmp102:
	.loc	2 383 13 is_stmt 0              @ ../Drivers/STM32/stm32_nvm.c:383:13
	cbz	r0, .LBB9_20
	b	.LBB9_19
.LBB9_19:
.Ltmp103:
	.loc	2 385 13 is_stmt 1              @ ../Drivers/STM32/stm32_nvm.c:385:13
	b	.LBB9_23
.LBB9_20:                               @   in Loop: Header=BB9_17 Depth=1
	.loc	2 384 79                        @ ../Drivers/STM32/stm32_nvm.c:384:79
	b	.LBB9_21
.Ltmp104:
.LBB9_21:                               @   in Loop: Header=BB9_17 Depth=1
	.loc	2 382 20                        @ ../Drivers/STM32/stm32_nvm.c:382:20
	ldr	r0, [sp, #12]
	adds	r0, #1
	str	r0, [sp, #12]
	.loc	2 382 28 is_stmt 0              @ ../Drivers/STM32/stm32_nvm.c:382:28
	ldr	r0, [sp, #16]
	adds	r0, #1
	str	r0, [sp, #16]
	.loc	2 382 38                        @ ../Drivers/STM32/stm32_nvm.c:382:38
	ldr	r0, [sp, #8]
	subs	r0, #1
	str	r0, [sp, #8]
	.loc	2 382 5                         @ ../Drivers/STM32/stm32_nvm.c:382:5
	b	.LBB9_17
.Ltmp105:
.LBB9_22:
	.loc	2 387 5 is_stmt 1               @ ../Drivers/STM32/stm32_nvm.c:387:5
	bl	HAL_FLASH_Lock
	movs	r0, #0
	.loc	2 388 5                         @ ../Drivers/STM32/stm32_nvm.c:388:5
	str	r0, [sp, #20]
	b	.LBB9_24
.LBB9_23:
.Ltmp106:
	@DEBUG_LABEL: NVM_write:fail
	.loc	2 390 5                         @ ../Drivers/STM32/stm32_nvm.c:390:5
	bl	HAL_FLASH_Lock
	.loc	2 391 12                        @ ../Drivers/STM32/stm32_nvm.c:391:12
	bl	HAL_FLASH_GetError
	.loc	2 391 5 is_stmt 0               @ ../Drivers/STM32/stm32_nvm.c:391:5
	str	r0, [sp, #20]
	b	.LBB9_24
.LBB9_24:
	.loc	2 392 1 is_stmt 1               @ ../Drivers/STM32/stm32_nvm.c:392:1
	ldr	r0, [sp, #20]
	.loc	2 392 1 epilogue_begin is_stmt 0 @ ../Drivers/STM32/stm32_nvm.c:392:1
	add	sp, #24
	pop	{r7, pc}
.Ltmp107:
.Lfunc_end9:
	.size	NVM_write, .Lfunc_end9-NVM_write
	.cfi_endproc
	.cantunwind
	.fnend
                                        @ -- End function
	.section	.text.NVM_commit,"ax",%progbits
	.hidden	NVM_commit                      @ -- Begin function NVM_commit
	.globl	NVM_commit
	.p2align	2
	.type	NVM_commit,%function
	.code	16                              @ @NVM_commit
	.thumb_func
NVM_commit:
.Lfunc_begin10:
	.loc	2 395 0 is_stmt 1               @ ../Drivers/STM32/stm32_nvm.c:395:0
	.fnstart
	.cfi_startproc
@ %bb.0:
	.save	{r7, lr}
	push	{r7, lr}
	.cfi_def_cfa_offset 8
	.cfi_offset lr, -4
	.cfi_offset r7, -8
	.pad	#16
	sub	sp, #16
	.cfi_def_cfa_offset 24
.Ltmp108:
	.loc	2 396 38 prologue_end           @ ../Drivers/STM32/stm32_nvm.c:396:38
	movw	r1, :lower16:read_sector_
	movt	r1, :upper16:read_sector_
	ldrb	r0, [r1]
	.loc	2 396 30 is_stmt 0              @ ../Drivers/STM32/stm32_nvm.c:396:30
	add.w	r2, r0, r0, lsl #1
	movw	r0, :lower16:sectors
	movt	r0, :upper16:sectors
	add.w	r2, r0, r2, lsl #3
	.loc	2 396 15                        @ ../Drivers/STM32/stm32_nvm.c:396:15
	str	r2, [sp, #8]
	.loc	2 397 43 is_stmt 1              @ ../Drivers/STM32/stm32_nvm.c:397:43
	ldrb	r1, [r1]
	.loc	2 397 41 is_stmt 0              @ ../Drivers/STM32/stm32_nvm.c:397:41
	rsb.w	r1, r1, #1
	.loc	2 397 31                        @ ../Drivers/STM32/stm32_nvm.c:397:31
	add.w	r1, r1, r1, lsl #1
	add.w	r0, r0, r1, lsl #3
	.loc	2 397 15                        @ ../Drivers/STM32/stm32_nvm.c:397:15
	str	r0, [sp, #4]
	.loc	2 400 39 is_stmt 1              @ ../Drivers/STM32/stm32_nvm.c:400:39
	ldr	r0, [sp, #4]
	.loc	2 400 67 is_stmt 0              @ ../Drivers/STM32/stm32_nvm.c:400:67
	ldr	r1, [r0]
	.loc	2 400 74                        @ ../Drivers/STM32/stm32_nvm.c:400:74
	movw	r2, :lower16:n_staging_area_
	movt	r2, :upper16:n_staging_area_
	ldr	r2, [r2]
	movs	r3, #0
	.loc	2 400 18                        @ ../Drivers/STM32/stm32_nvm.c:400:18
	bl	set_allocation_state
	.loc	2 400 9                         @ ../Drivers/STM32/stm32_nvm.c:400:9
	str	r0, [sp]
.Ltmp109:
	.loc	2 401 9 is_stmt 1               @ ../Drivers/STM32/stm32_nvm.c:401:9
	ldr	r0, [sp]
.Ltmp110:
	.loc	2 401 9 is_stmt 0               @ ../Drivers/STM32/stm32_nvm.c:401:9
	cbz	r0, .LBB10_2
	b	.LBB10_1
.LBB10_1:
.Ltmp111:
	.loc	2 402 16 is_stmt 1              @ ../Drivers/STM32/stm32_nvm.c:402:16
	ldr	r0, [sp]
	.loc	2 402 9 is_stmt 0               @ ../Drivers/STM32/stm32_nvm.c:402:9
	str	r0, [sp, #12]
	b	.LBB10_6
.Ltmp112:
.LBB10_2:
	.loc	2 404 28 is_stmt 1              @ ../Drivers/STM32/stm32_nvm.c:404:28
	movw	r1, :lower16:n_staging_area_
	movt	r1, :upper16:n_staging_area_
	ldr	r3, [r1]
	.loc	2 404 5 is_stmt 0               @ ../Drivers/STM32/stm32_nvm.c:404:5
	ldr	r2, [sp, #4]
	.loc	2 404 25                        @ ../Drivers/STM32/stm32_nvm.c:404:25
	ldr	r0, [r2]
	add	r0, r3
	str	r0, [r2]
	.loc	2 405 16 is_stmt 1              @ ../Drivers/STM32/stm32_nvm.c:405:16
	ldr	r0, [r1]
	.loc	2 405 14 is_stmt 0              @ ../Drivers/STM32/stm32_nvm.c:405:14
	movw	r2, :lower16:n_valid_
	movt	r2, :upper16:n_valid_
	str	r0, [r2]
	movs	r0, #0
	.loc	2 406 21 is_stmt 1              @ ../Drivers/STM32/stm32_nvm.c:406:21
	str	r0, [r1]
	.loc	2 407 24                        @ ../Drivers/STM32/stm32_nvm.c:407:24
	movw	r1, :lower16:read_sector_
	movt	r1, :upper16:read_sector_
	ldrb	r0, [r1]
	.loc	2 407 22 is_stmt 0              @ ../Drivers/STM32/stm32_nvm.c:407:22
	rsb.w	r0, r0, #1
	.loc	2 407 18                        @ ../Drivers/STM32/stm32_nvm.c:407:18
	strb	r0, [r1]
.Ltmp113:
	.loc	2 410 9 is_stmt 1               @ ../Drivers/STM32/stm32_nvm.c:410:9
	ldr	r1, [sp, #8]
	.loc	2 410 22 is_stmt 0              @ ../Drivers/STM32/stm32_nvm.c:410:22
	ldr	r0, [r1]
	.loc	2 410 43                        @ ../Drivers/STM32/stm32_nvm.c:410:43
	ldr	r1, [r1, #8]
.Ltmp114:
	.loc	2 410 9                         @ ../Drivers/STM32/stm32_nvm.c:410:9
	cmp	r0, r1
	bhs	.LBB10_4
	b	.LBB10_3
.LBB10_3:
.Ltmp115:
	.loc	2 411 39 is_stmt 1              @ ../Drivers/STM32/stm32_nvm.c:411:39
	ldr	r0, [sp, #8]
	.loc	2 411 65 is_stmt 0              @ ../Drivers/STM32/stm32_nvm.c:411:65
	ldr	r1, [r0]
	movs	r3, #1
	.loc	2 411 18                        @ ../Drivers/STM32/stm32_nvm.c:411:18
	mov	r2, r3
	bl	set_allocation_state
	.loc	2 411 16                        @ ../Drivers/STM32/stm32_nvm.c:411:16
	str	r0, [sp]
	.loc	2 412 9 is_stmt 1               @ ../Drivers/STM32/stm32_nvm.c:412:9
	ldr	r1, [sp, #8]
	.loc	2 412 28 is_stmt 0              @ ../Drivers/STM32/stm32_nvm.c:412:28
	ldr	r0, [r1]
	adds	r0, #1
	str	r0, [r1]
	.loc	2 413 5 is_stmt 1               @ ../Drivers/STM32/stm32_nvm.c:413:5
	b	.LBB10_5
.Ltmp116:
.LBB10_4:
	.loc	2 414 24                        @ ../Drivers/STM32/stm32_nvm.c:414:24
	ldr	r0, [sp, #8]
	.loc	2 414 18 is_stmt 0              @ ../Drivers/STM32/stm32_nvm.c:414:18
	bl	erase
	.loc	2 414 16                        @ ../Drivers/STM32/stm32_nvm.c:414:16
	str	r0, [sp]
	b	.LBB10_5
.Ltmp117:
.LBB10_5:
	.loc	2 417 12 is_stmt 1              @ ../Drivers/STM32/stm32_nvm.c:417:12
	ldr	r0, [sp]
	.loc	2 417 5 is_stmt 0               @ ../Drivers/STM32/stm32_nvm.c:417:5
	str	r0, [sp, #12]
	b	.LBB10_6
.LBB10_6:
	.loc	2 418 1 is_stmt 1               @ ../Drivers/STM32/stm32_nvm.c:418:1
	ldr	r0, [sp, #12]
	.loc	2 418 1 epilogue_begin is_stmt 0 @ ../Drivers/STM32/stm32_nvm.c:418:1
	add	sp, #16
	pop	{r7, pc}
.Ltmp118:
.Lfunc_end10:
	.size	NVM_commit, .Lfunc_end10-NVM_commit
	.cfi_endproc
	.cantunwind
	.fnend
                                        @ -- End function
	.section	.text.NVM_demo,"ax",%progbits
	.hidden	NVM_demo                        @ -- Begin function NVM_demo
	.globl	NVM_demo
	.p2align	2
	.type	NVM_demo,%function
	.code	16                              @ @NVM_demo
	.thumb_func
NVM_demo:
.Lfunc_begin11:
	.loc	2 451 0 is_stmt 1               @ ../Drivers/STM32/stm32_nvm.c:451:0
	.fnstart
	.cfi_startproc
@ %bb.0:
	.save	{r4, r6, r7, lr}
	push	{r4, r6, r7, lr}
	.cfi_def_cfa_offset 16
	.cfi_offset lr, -4
	.cfi_offset r7, -8
	.cfi_offset r6, -12
	.cfi_offset r4, -16
	.setfp	r7, sp, #8
	add	r7, sp, #8
	.cfi_def_cfa r7, 8
	.pad	#88
	sub	sp, #88
	movs	r0, #38
.Ltmp119:
	.loc	2 452 18 prologue_end           @ ../Drivers/STM32/stm32_nvm.c:452:18
	str	r0, [r7, #-12]
	.loc	2 453 5                         @ ../Drivers/STM32/stm32_nvm.c:453:5
	mov	r0, sp
	str	r0, [r7, #-16]
	movs	r0, #0
	.loc	2 454 9                         @ ../Drivers/STM32/stm32_nvm.c:454:9
	str	r0, [r7, #-20]
	.loc	2 455 13                        @ ../Drivers/STM32/stm32_nvm.c:455:13
	strb	r0, [r7, #-21]
	movs	r0, #100
	.loc	2 457 5                         @ ../Drivers/STM32/stm32_nvm.c:457:5
	bl	osDelay
	.loc	2 458 5                         @ ../Drivers/STM32/stm32_nvm.c:458:5
	movw	r0, :lower16:.L.str
	movt	r0, :upper16:.L.str
	bl	printf
	movs	r0, #5
	.loc	2 458 37 is_stmt 0              @ ../Drivers/STM32/stm32_nvm.c:458:37
	bl	osDelay
.Ltmp120:
	.loc	2 460 17 is_stmt 1              @ ../Drivers/STM32/stm32_nvm.c:460:17
	ldr	r0, [r7, #-20]
	adds	r0, #1
	str	r0, [r7, #-20]
	.loc	2 460 21 is_stmt 0              @ ../Drivers/STM32/stm32_nvm.c:460:21
	bl	NVM_init
.Ltmp121:
	.loc	2 460 9                         @ ../Drivers/STM32/stm32_nvm.c:460:9
	cbz	r0, .LBB11_2
	b	.LBB11_1
.LBB11_1:
.Ltmp122:
	.loc	2 461 9 is_stmt 1               @ ../Drivers/STM32/stm32_nvm.c:461:9
	b	.LBB11_30
.Ltmp123:
.LBB11_2:
	.loc	2 464 24                        @ ../Drivers/STM32/stm32_nvm.c:464:24
	bl	NVM_get_max_read_length
	.loc	2 464 12 is_stmt 0              @ ../Drivers/STM32/stm32_nvm.c:464:12
	str	r0, [r7, #-28]
.Ltmp124:
	.loc	2 465 9 is_stmt 1               @ ../Drivers/STM32/stm32_nvm.c:465:9
	ldr	r0, [r7, #-28]
.Ltmp125:
	.loc	2 465 9 is_stmt 0               @ ../Drivers/STM32/stm32_nvm.c:465:9
	cmp	r0, #0
	beq	.LBB11_16
	b	.LBB11_3
.LBB11_3:
.Ltmp126:
	.loc	2 466 52 is_stmt 1              @ ../Drivers/STM32/stm32_nvm.c:466:52
	ldr	r1, [r7, #-28]
	.loc	2 466 9 is_stmt 0               @ ../Drivers/STM32/stm32_nvm.c:466:9
	movw	r0, :lower16:.L.str.1
	movt	r0, :upper16:.L.str.1
	bl	printf
	movs	r0, #5
	.loc	2 466 64                        @ ../Drivers/STM32/stm32_nvm.c:466:64
	bl	osDelay
	.loc	2 467 21 is_stmt 1              @ ../Drivers/STM32/stm32_nvm.c:467:21
	ldr	r0, [r7, #-28]
	.loc	2 467 9 is_stmt 0               @ ../Drivers/STM32/stm32_nvm.c:467:9
	mov	r1, sp
	str	r1, [r7, #-32]
	adds	r1, r0, #7
	bic	r2, r1, #7
	mov	r1, sp
	subs	r1, r1, r2
.Ltmp127:
	@DEBUG_VALUE: buf <- [$r1+0]
	mov	sp, r1
	mov	r2, r1
	str	r2, [r7, #-92]                  @ 4-byte Spill
	str	r0, [r7, #-36]
.Ltmp128:
	.loc	2 468 21 is_stmt 1              @ ../Drivers/STM32/stm32_nvm.c:468:21
	ldr	r0, [r7, #-20]
	adds	r0, #1
	str	r0, [r7, #-20]
	.loc	2 468 42 is_stmt 0              @ ../Drivers/STM32/stm32_nvm.c:468:42
	ldr	r2, [r7, #-28]
	movs	r0, #0
	.loc	2 468 25                        @ ../Drivers/STM32/stm32_nvm.c:468:25
	bl	NVM_read
.Ltmp129:
	.loc	2 468 13                        @ ../Drivers/STM32/stm32_nvm.c:468:13
	cbz	r0, .LBB11_5
	b	.LBB11_4
.LBB11_4:
	.loc	2 0 13                          @ ../Drivers/STM32/stm32_nvm.c:0:13
	movs	r0, #2
	str	r0, [r7, #-44]
.Ltmp130:
	.loc	2 469 13 is_stmt 1              @ ../Drivers/STM32/stm32_nvm.c:469:13
	b	.LBB11_13
.Ltmp131:
.LBB11_5:
	.loc	2 0 13 is_stmt 0                @ ../Drivers/STM32/stm32_nvm.c:0:13
	movs	r0, #0
.Ltmp132:
	.loc	2 470 21 is_stmt 1              @ ../Drivers/STM32/stm32_nvm.c:470:21
	str	r0, [r7, #-40]
	.loc	2 470 14 is_stmt 0              @ ../Drivers/STM32/stm32_nvm.c:470:14
	b	.LBB11_6
.LBB11_6:                               @ =>This Inner Loop Header: Depth=1
.Ltmp133:
	.loc	2 470 30                        @ ../Drivers/STM32/stm32_nvm.c:470:30
	ldr	r0, [r7, #-40]
	.loc	2 470 36                        @ ../Drivers/STM32/stm32_nvm.c:470:36
	ldr	r1, [r7, #-28]
.Ltmp134:
	.loc	2 470 9                         @ ../Drivers/STM32/stm32_nvm.c:470:9
	cmp	r0, r1
	bhs	.LBB11_12
	b	.LBB11_7
.LBB11_7:                               @   in Loop: Header=BB11_6 Depth=1
.Ltmp135:
	.loc	2 471 25 is_stmt 1              @ ../Drivers/STM32/stm32_nvm.c:471:25
	ldr	r0, [r7, #-92]                  @ 4-byte Reload
	ldr	r1, [r7, #-40]
	.loc	2 471 21 is_stmt 0              @ ../Drivers/STM32/stm32_nvm.c:471:21
	ldrb	r2, [r0, r1]
	.loc	2 471 18                        @ ../Drivers/STM32/stm32_nvm.c:471:18
	ldrb	r1, [r7, #-21]
	add	r1, r2
	strb	r1, [r7, #-21]
	.loc	2 472 33 is_stmt 1              @ ../Drivers/STM32/stm32_nvm.c:472:33
	ldr	r1, [r7, #-40]
	.loc	2 472 29 is_stmt 0              @ ../Drivers/STM32/stm32_nvm.c:472:29
	ldrb	r1, [r0, r1]
	.loc	2 472 13                        @ ../Drivers/STM32/stm32_nvm.c:472:13
	movw	r0, :lower16:.L.str.2
	movt	r0, :upper16:.L.str.2
	bl	printf
.Ltmp136:
	.loc	2 473 20 is_stmt 1              @ ../Drivers/STM32/stm32_nvm.c:473:20
	ldr	r0, [r7, #-40]
	.loc	2 473 24 is_stmt 0              @ ../Drivers/STM32/stm32_nvm.c:473:24
	adds	r0, #1
	.loc	2 473 41                        @ ../Drivers/STM32/stm32_nvm.c:473:41
	lsls	r0, r0, #28
	cbz	r0, .LBB11_9
	b	.LBB11_8
.LBB11_8:                               @   in Loop: Header=BB11_6 Depth=1
	.loc	2 473 46                        @ ../Drivers/STM32/stm32_nvm.c:473:46
	ldr	r0, [r7, #-40]
	.loc	2 473 50                        @ ../Drivers/STM32/stm32_nvm.c:473:50
	adds	r0, #1
	.loc	2 473 58                        @ ../Drivers/STM32/stm32_nvm.c:473:58
	ldr	r1, [r7, #-28]
.Ltmp137:
	.loc	2 473 17                        @ ../Drivers/STM32/stm32_nvm.c:473:17
	cmp	r0, r1
	bne	.LBB11_10
	b	.LBB11_9
.LBB11_9:                               @   in Loop: Header=BB11_6 Depth=1
.Ltmp138:
	.loc	2 474 17 is_stmt 1              @ ../Drivers/STM32/stm32_nvm.c:474:17
	movw	r0, :lower16:.L.str.3
	movt	r0, :upper16:.L.str.3
	bl	printf
	b	.LBB11_10
.Ltmp139:
.LBB11_10:                              @   in Loop: Header=BB11_6 Depth=1
	.loc	2 0 17 is_stmt 0                @ ../Drivers/STM32/stm32_nvm.c:0:17
	movs	r0, #2
	.loc	2 475 13 is_stmt 1              @ ../Drivers/STM32/stm32_nvm.c:475:13
	bl	osDelay
	.loc	2 476 9                         @ ../Drivers/STM32/stm32_nvm.c:476:9
	b	.LBB11_11
.Ltmp140:
.LBB11_11:                              @   in Loop: Header=BB11_6 Depth=1
	.loc	2 470 47                        @ ../Drivers/STM32/stm32_nvm.c:470:47
	ldr	r0, [r7, #-40]
	adds	r0, #1
	str	r0, [r7, #-40]
	.loc	2 470 9 is_stmt 0               @ ../Drivers/STM32/stm32_nvm.c:470:9
	b	.LBB11_6
.Ltmp141:
.LBB11_12:
	.loc	2 0 9                           @ ../Drivers/STM32/stm32_nvm.c:0:9
	movs	r0, #0
	.loc	2 477 5 is_stmt 1               @ ../Drivers/STM32/stm32_nvm.c:477:5
	str	r0, [r7, #-44]
	b	.LBB11_13
.LBB11_13:
	ldr	r0, [r7, #-32]
	mov	sp, r0
	ldr	r0, [r7, #-44]
	str	r0, [r7, #-96]                  @ 4-byte Spill
	cbz	r0, .LBB11_15
	b	.LBB11_14
.LBB11_14:
	.loc	2 0 5 is_stmt 0                 @ ../Drivers/STM32/stm32_nvm.c:0:5
	ldr	r0, [r7, #-96]                  @ 4-byte Reload
	cmp	r0, #2
	beq	.LBB11_30
	b	.LBB11_31
.LBB11_15:
.Ltmp142:
	.loc	2 477 5                         @ ../Drivers/STM32/stm32_nvm.c:477:5
	b	.LBB11_17
.Ltmp143:
.LBB11_16:
	.loc	2 478 9 is_stmt 1               @ ../Drivers/STM32/stm32_nvm.c:478:9
	movw	r0, :lower16:.L.str.4
	movt	r0, :upper16:.L.str.4
	bl	printf
	movs	r0, #5
	.loc	2 478 37 is_stmt 0              @ ../Drivers/STM32/stm32_nvm.c:478:37
	bl	osDelay
	b	.LBB11_17
.Ltmp144:
.LBB11_17:
	.loc	2 482 52 is_stmt 1              @ ../Drivers/STM32/stm32_nvm.c:482:52
	ldrb	r1, [r7, #-21]
	.loc	2 482 69 is_stmt 0              @ ../Drivers/STM32/stm32_nvm.c:482:69
	add.w	r2, r1, #37
	.loc	2 482 5                         @ ../Drivers/STM32/stm32_nvm.c:482:5
	movw	r0, :lower16:.L.str.5
	movt	r0, :upper16:.L.str.5
	bl	printf
	movs	r0, #5
	.loc	2 482 75                        @ ../Drivers/STM32/stm32_nvm.c:482:75
	bl	osDelay
	movs	r0, #0
.Ltmp145:
	.loc	2 483 17 is_stmt 1              @ ../Drivers/STM32/stm32_nvm.c:483:17
	str	r0, [r7, #-48]
	.loc	2 483 10 is_stmt 0              @ ../Drivers/STM32/stm32_nvm.c:483:10
	b	.LBB11_18
.LBB11_18:                              @ =>This Inner Loop Header: Depth=1
.Ltmp146:
	.loc	2 483 24                        @ ../Drivers/STM32/stm32_nvm.c:483:24
	ldr	r0, [r7, #-48]
.Ltmp147:
	.loc	2 483 5                         @ ../Drivers/STM32/stm32_nvm.c:483:5
	cmp	r0, #37
	bhi	.LBB11_21
	b	.LBB11_19
.LBB11_19:                              @   in Loop: Header=BB11_18 Depth=1
.Ltmp148:
	.loc	2 484 23 is_stmt 1              @ ../Drivers/STM32/stm32_nvm.c:484:23
	ldrb	r0, [r7, #-21]
	adds	r1, r0, #1
	strb	r1, [r7, #-21]
	.loc	2 484 14 is_stmt 0              @ ../Drivers/STM32/stm32_nvm.c:484:14
	ldr	r2, [r7, #-48]
	sub.w	r1, r7, #86
	.loc	2 484 17                        @ ../Drivers/STM32/stm32_nvm.c:484:17
	strb	r0, [r1, r2]
	.loc	2 484 9                         @ ../Drivers/STM32/stm32_nvm.c:484:9
	b	.LBB11_20
.LBB11_20:                              @   in Loop: Header=BB11_18 Depth=1
	.loc	2 483 34 is_stmt 1              @ ../Drivers/STM32/stm32_nvm.c:483:34
	ldr	r0, [r7, #-48]
	adds	r0, #1
	str	r0, [r7, #-48]
	.loc	2 483 5 is_stmt 0               @ ../Drivers/STM32/stm32_nvm.c:483:5
	b	.LBB11_18
.Ltmp149:
.LBB11_21:
	.loc	2 485 17 is_stmt 1              @ ../Drivers/STM32/stm32_nvm.c:485:17
	ldr	r0, [r7, #-20]
	adds	r0, #1
	str	r0, [r7, #-20]
	movs	r0, #38
	.loc	2 485 21 is_stmt 0              @ ../Drivers/STM32/stm32_nvm.c:485:21
	bl	NVM_start_write
.Ltmp150:
	.loc	2 485 9                         @ ../Drivers/STM32/stm32_nvm.c:485:9
	cbz	r0, .LBB11_23
	b	.LBB11_22
.LBB11_22:
.Ltmp151:
	.loc	2 486 9 is_stmt 1               @ ../Drivers/STM32/stm32_nvm.c:486:9
	b	.LBB11_30
.Ltmp152:
.LBB11_23:
	.loc	2 487 17                        @ ../Drivers/STM32/stm32_nvm.c:487:17
	ldr	r0, [r7, #-20]
	adds	r0, #1
	str	r0, [r7, #-20]
	movs	r0, #0
	sub.w	r1, r7, #86
	movs	r2, #19
	.loc	2 487 21 is_stmt 0              @ ../Drivers/STM32/stm32_nvm.c:487:21
	bl	NVM_write
.Ltmp153:
	.loc	2 487 9                         @ ../Drivers/STM32/stm32_nvm.c:487:9
	cbz	r0, .LBB11_25
	b	.LBB11_24
.LBB11_24:
.Ltmp154:
	.loc	2 488 9 is_stmt 1               @ ../Drivers/STM32/stm32_nvm.c:488:9
	b	.LBB11_30
.Ltmp155:
.LBB11_25:
	.loc	2 489 17                        @ ../Drivers/STM32/stm32_nvm.c:489:17
	ldr	r0, [r7, #-20]
	adds	r0, #1
	str	r0, [r7, #-20]
	sub.w	r0, r7, #86
	.loc	2 489 41 is_stmt 0              @ ../Drivers/STM32/stm32_nvm.c:489:41
	add.w	r1, r0, #19
	movs	r2, #19
	.loc	2 489 21                        @ ../Drivers/STM32/stm32_nvm.c:489:21
	mov	r0, r2
	bl	NVM_write
.Ltmp156:
	.loc	2 489 9                         @ ../Drivers/STM32/stm32_nvm.c:489:9
	cbz	r0, .LBB11_27
	b	.LBB11_26
.LBB11_26:
.Ltmp157:
	.loc	2 490 9 is_stmt 1               @ ../Drivers/STM32/stm32_nvm.c:490:9
	b	.LBB11_30
.Ltmp158:
.LBB11_27:
	.loc	2 491 17                        @ ../Drivers/STM32/stm32_nvm.c:491:17
	ldr	r0, [r7, #-20]
	adds	r0, #1
	str	r0, [r7, #-20]
	.loc	2 491 21 is_stmt 0              @ ../Drivers/STM32/stm32_nvm.c:491:21
	bl	NVM_commit
.Ltmp159:
	.loc	2 491 9                         @ ../Drivers/STM32/stm32_nvm.c:491:9
	cbz	r0, .LBB11_29
	b	.LBB11_28
.LBB11_28:
.Ltmp160:
	.loc	2 492 9 is_stmt 1               @ ../Drivers/STM32/stm32_nvm.c:492:9
	b	.LBB11_30
.Ltmp161:
.LBB11_29:
	.loc	2 493 5                         @ ../Drivers/STM32/stm32_nvm.c:493:5
	movw	r0, :lower16:.L.str.6
	movt	r0, :upper16:.L.str.6
	bl	printf
	movs	r0, #5
	.loc	2 493 46 is_stmt 0              @ ../Drivers/STM32/stm32_nvm.c:493:46
	bl	osDelay
	movs	r0, #1
	str	r0, [r7, #-44]
	.loc	2 495 5 is_stmt 1               @ ../Drivers/STM32/stm32_nvm.c:495:5
	b	.LBB11_31
.LBB11_30:
.Ltmp162:
	@DEBUG_LABEL: NVM_demo:fail
	.loc	2 498 42                        @ ../Drivers/STM32/stm32_nvm.c:498:42
	ldr	r1, [r7, #-20]
	.loc	2 498 5 is_stmt 0               @ ../Drivers/STM32/stm32_nvm.c:498:5
	movw	r0, :lower16:.L.str.7
	movt	r0, :upper16:.L.str.7
	bl	printf
	movs	r0, #0
	.loc	2 499 1 is_stmt 1               @ ../Drivers/STM32/stm32_nvm.c:499:1
	str	r0, [r7, #-44]
	b	.LBB11_31
.LBB11_31:
	ldr	r0, [r7, #-16]
	mov	sp, r0
@ %bb.32:
	.loc	2 499 1 epilogue_begin is_stmt 0 @ ../Drivers/STM32/stm32_nvm.c:499:1
	sub.w	r4, r7, #8
	mov	sp, r4
	pop	{r4, r6, r7, pc}
.Ltmp163:
@ %bb.33:
.Lfunc_end11:
	.size	NVM_demo, .Lfunc_end11-NVM_demo
	.cfi_endproc
	.cantunwind
	.fnend
                                        @ -- End function
	.section	.text.HAL_FLASH_ClearError,"ax",%progbits
	.p2align	2                               @ -- Begin function HAL_FLASH_ClearError
	.type	HAL_FLASH_ClearError,%function
	.code	16                              @ @HAL_FLASH_ClearError
	.thumb_func
HAL_FLASH_ClearError:
.Lfunc_begin12:
	.loc	2 123 0 is_stmt 1               @ ../Drivers/STM32/stm32_nvm.c:123:0
	.fnstart
	.cfi_startproc
@ %bb.0:
	movw	r1, #15372
	movt	r1, #16386
	movs	r0, #243
.Ltmp164:
	.loc	2 124 5 prologue_end            @ ../Drivers/STM32/stm32_nvm.c:124:5
	str	r0, [r1]
	.loc	2 125 1                         @ ../Drivers/STM32/stm32_nvm.c:125:1
	bx	lr
.Ltmp165:
.Lfunc_end12:
	.size	HAL_FLASH_ClearError, .Lfunc_end12-HAL_FLASH_ClearError
	.cfi_endproc
	.cantunwind
	.fnend
                                        @ -- End function
	.hidden	sectors                         @ @sectors
	.type	sectors,%object
	.section	.data.sectors,"aw",%progbits
	.globl	sectors
	.p2align	2, 0x0
sectors:
	.long	0                               @ 0x0
	.long	10                              @ 0xa
	.long	16384                           @ 0x4000
	.long	512                             @ 0x200
	.long	135004160
	.long	135004160
	.long	0                               @ 0x0
	.long	11                              @ 0xb
	.long	16384                           @ 0x4000
	.long	512                             @ 0x200
	.long	135135232
	.long	135135232
	.size	sectors, 48

	.hidden	read_sector_                    @ @read_sector_
	.type	read_sector_,%object
	.section	.bss.read_sector_,"aw",%nobits
	.globl	read_sector_
read_sector_:
	.byte	0                               @ 0x0
	.size	read_sector_, 1

	.hidden	n_valid_                        @ @n_valid_
	.type	n_valid_,%object
	.section	.bss.n_valid_,"aw",%nobits
	.globl	n_valid_
	.p2align	2, 0x0
n_valid_:
	.long	0                               @ 0x0
	.size	n_valid_, 4

	.hidden	n_staging_area_                 @ @n_staging_area_
	.type	n_staging_area_,%object
	.section	.bss.n_staging_area_,"aw",%nobits
	.globl	n_staging_area_
	.p2align	2, 0x0
n_staging_area_:
	.long	0                               @ 0x0
	.size	n_staging_area_, 4

	.type	.L.str,%object                  @ @.str
	.section	.rodata.str1.1,"aMS",%progbits,1
.L.str:
	.asciz	"=== NVM TEST ===\r\n"
	.size	.L.str, 19

	.type	.L.str.1,%object                @ @.str.1
.L.str.1:
	.asciz	"NVM contains %d valid bytes:\r\n"
	.size	.L.str.1, 31

	.type	.L.str.2,%object                @ @.str.2
.L.str.2:
	.asciz	" %02x"
	.size	.L.str.2, 6

	.type	.L.str.3,%object                @ @.str.3
.L.str.3:
	.asciz	"\r\n"
	.size	.L.str.3, 3

	.type	.L.str.4,%object                @ @.str.4
.L.str.4:
	.asciz	"NVM is empty\r\n"
	.size	.L.str.4, 15

	.type	.L.str.5,%object                @ @.str.5
.L.str.5:
	.asciz	"write 0x%02x, ..., 0x%02x to NVM\r\n"
	.size	.L.str.5, 35

	.type	.L.str.6,%object                @ @.str.6
.L.str.6:
	.asciz	"new data committed to NVM\r\n"
	.size	.L.str.6, 28

	.type	.L.str.7,%object                @ @.str.7
.L.str.7:
	.asciz	"NVM test failed at %d!\r\n"
	.size	.L.str.7, 25

	.file	6 "D:\\ikingtec\\Robot\\ODrive\\Firmware\\MDK-ARM" "../ThirdParty/STM32F4xx_HAL_Driver/Inc/stm32f4xx_hal_flash_ex.h"
	.section	".note.GNU-stack","",%progbits
	.eabi_attribute	30, 6	@ Tag_ABI_optimization_goals
	.ARM_attribute	16, 1	@ Tag_AV_eba