	.text
	.syntax unified
	.eabi_attribute	67, "2.09"	@ Tag_conformance
	.cpu	cortex-m4
	.eabi_attribute	6, 13	@ Tag_CPU_arch
	.eabi_attribute	7, 77	@ Tag_CPU_arch_profile
	.eabi_attribute	8, 0	@ Tag_ARM_ISA_use
	.eabi_attribute	9, 2	@ Tag_THUMB_ISA_use
	.fpu	fpv4-sp-d16
	.eabi_attribute	27, 1	@ Tag_ABI_HardFP_use
	.eabi_attribute	36, 1	@ Tag_FP_HP_extension
	.eabi_attribute	34, 1	@ Tag_CPU_unaligned_access
	.eabi_attribute	17, 1	@ Tag_ABI_PCS_GOT_use
	.eabi_attribute	20, 2	@ Tag_ABI_FP_denormal
	.eabi_attribute	21, 0	@ Tag_ABI_FP_exceptions
	.eabi_attribute	23, 1	@ Tag_ABI_FP_number_model
	.eabi_attribute	24, 1	@ Tag_ABI_align_needed
	.eabi_attribute	25, 1	@ Tag_ABI_align_preserved
	.eabi_attribute	28, 1	@ Tag_ABI_VFP_args
	.eabi_attribute	38, 1	@ Tag_ABI_FP_16bit_format
	.eabi_attribute	18, 2	@ Tag_ABI_PCS_wchar_t
	.eabi_attribute	26, 1	@ Tag_ABI_enum_size
	.eabi_attribute	14, 0	@ Tag_ABI_PCS_R9_use
	.file	"stm32f4xx_hal_msp.c"
	.file	1 "D:\\ikingtec\\Robot\\ODrive\\Firmware\\MDK-ARM" "../ThirdParty/CMSIS/Device/ST/STM32F4xx/Include/stm32f405xx.h"
	.file	2 "D:\\Embed\\MDK\\MDK\\ARM\\ARMCompilerV621\\Bin\\..\\include" "stdint.h"
	.section	.text.HAL_MspInit,"ax",%progbits
	.hidden	HAL_MspInit                     @ -- Begin function HAL_MspInit
	.globl	HAL_MspInit
	.p2align	2
	.type	HAL_MspInit,%function
	.code	16                              @ @HAL_MspInit
	.thumb_func
HAL_MspInit:
.Lfunc_begin0:
	.file	3 "D:\\ikingtec\\Robot\\ODrive\\Firmware\\MDK-ARM" "../Board/v3/Src/stm32f4xx_hal_msp.c"
	.loc	3 59 0                          @ ../Board/v3/Src/stm32f4xx_hal_msp.c:59:0
	.fnstart
	.cfi_sections .debug_frame
	.cfi_startproc
@ %bb.0:
	.save	{r7, lr}
	push	{r7, lr}
	.cfi_def_cfa_offset 8
	.cfi_offset lr, -4
	.cfi_offset r7, -8
	.pad	#24
	sub	sp, #24
	.cfi_def_cfa_offset 32
.Ltmp0:
	.loc	3 64 3 prologue_end             @ ../Board/v3/Src/stm32f4xx_hal_msp.c:64:3
	b	.LBB0_1
.LBB0_1:
	.loc	3 0 3 is_stmt 0                 @ ../Board/v3/Src/stm32f4xx_hal_msp.c:0:3
	movs	r0, #0
.Ltmp1:
	.loc	3 64 3                          @ ../Board/v3/Src/stm32f4xx_hal_msp.c:64:3
	str	r0, [sp, #20]
	movw	r0, #14404
	movt	r0, #16386
	ldr	r1, [r0]
	orr	r1, r1, #16384
	str	r1, [r0]
	ldr	r0, [r0]
	and	r0, r0, #16384
	str	r0, [sp, #20]
	ldr	r0, [sp, #20]
	b	.LBB0_2
.Ltmp2:
.LBB0_2:
	.loc	3 65 3 is_stmt 1                @ ../Board/v3/Src/stm32f4xx_hal_msp.c:65:3
	b	.LBB0_3
.LBB0_3:
	.loc	3 0 3 is_stmt 0                 @ ../Board/v3/Src/stm32f4xx_hal_msp.c:0:3
	movs	r0, #0
.Ltmp3:
	.loc	3 65 3                          @ ../Board/v3/Src/stm32f4xx_hal_msp.c:65:3
	str	r0, [sp, #16]
	movw	r0, #14400
	movt	r0, #16386
	ldr	r1, [r0]
	orr	r1, r1, #268435456
	str	r1, [r0]
	ldr	r0, [r0]
	and	r0, r0, #268435456
	str	r0, [sp, #16]
	ldr	r0, [sp, #16]
	b	.LBB0_4
.Ltmp4:
.LBB0_4:
	.loc	3 0 3                           @ ../Board/v3/Src/stm32f4xx_hal_msp.c:0:3
	movs	r0, #3
	.loc	3 67 3 is_stmt 1                @ ../Board/v3/Src/stm32f4xx_hal_msp.c:67:3
	str	r0, [sp, #4]                    @ 4-byte Spill
	bl	HAL_NVIC_SetPriorityGrouping
	mvn	r0, #11
	movs	r2, #0
	.loc	3 71 3                          @ ../Board/v3/Src/stm32f4xx_hal_msp.c:71:3
	str	r2, [sp, #12]                   @ 4-byte Spill
	mov	r1, r2
	bl	HAL_NVIC_SetPriority
	ldr	r2, [sp, #12]                   @ 4-byte Reload
	mvn	r0, #10
	.loc	3 73 3                          @ ../Board/v3/Src/stm32f4xx_hal_msp.c:73:3
	mov	r1, r2
	bl	HAL_NVIC_SetPriority
	ldr	r2, [sp, #12]                   @ 4-byte Reload
	mvn	r0, #9
	.loc	3 75 3                          @ ../Board/v3/Src/stm32f4xx_hal_msp.c:75:3
	mov	r1, r2
	bl	HAL_NVIC_SetPriority
	ldr	r1, [sp, #4]                    @ 4-byte Reload
	ldr	r2, [sp, #12]                   @ 4-byte Reload
	mvn	r0, #4
	.loc	3 77 3                          @ ../Board/v3/Src/stm32f4xx_hal_msp.c:77:3
	bl	HAL_NVIC_SetPriority
	ldr	r2, [sp, #12]                   @ 4-byte Reload
	mvn	r0, #3
	.loc	3 79 3                          @ ../Board/v3/Src/stm32f4xx_hal_msp.c:79:3
	mov	r1, r2
	bl	HAL_NVIC_SetPriority
	ldr	r2, [sp, #12]                   @ 4-byte Reload
	mvn	r0, #1
	movs	r1, #15
	.loc	3 81 3                          @ ../Board/v3/Src/stm32f4xx_hal_msp.c:81:3
	str	r1, [sp, #8]                    @ 4-byte Spill
	bl	HAL_NVIC_SetPriority
	ldr	r1, [sp, #8]                    @ 4-byte Reload
	ldr	r2, [sp, #12]                   @ 4-byte Reload
	mov.w	r0, #-1
	.loc	3 83 3                          @ ../Board/v3/Src/stm32f4xx_hal_msp.c:83:3
	bl	HAL_NVIC_SetPriority
	.loc	3 88 1 epilogue_begin           @ ../Board/v3/Src/stm32f4xx_hal_msp.c:88:1
	add	sp, #24
	pop	{r7, pc}
.Ltmp5:
.Lfunc_end0:
	.size	HAL_MspInit, .Lfunc_end0-HAL_MspInit
	.cfi_endproc
	.cantunwind
	.fnend
                                        @ -- End function
	.section	".note.GNU-stack","",%progbits
	.eabi_attribute	30, 6	@ Tag_ABI_optimization_goals
	.ARM_attribute	16, 1	@ Tag_AV_eba