	.text
	.syntax unified
	.eabi_attribute	67, "2.09"	@ Tag_conformance
	.cpu	cortex-m4
	.eabi_attribute	6, 13	@ Tag_CPU_arch
	.eabi_attribute	7, 77	@ Tag_CPU_arch_profile
	.eabi_attribute	8, 0	@ Tag_ARM_ISA_use
	.eabi_attribute	9, 2	@ Tag_THUMB_ISA_use
	.fpu	fpv4-sp-d16
	.eabi_attribute	27, 1	@ Tag_ABI_HardFP_use
	.eabi_attribute	36, 1	@ Tag_FP_HP_extension
	.eabi_attribute	34, 1	@ Tag_CPU_unaligned_access
	.eabi_attribute	17, 1	@ Tag_ABI_PCS_GOT_use
	.eabi_attribute	20, 2	@ Tag_ABI_FP_denormal
	.eabi_attribute	21, 0	@ Tag_ABI_FP_exceptions
	.eabi_attribute	23, 1	@ Tag_ABI_FP_number_model
	.eabi_attribute	24, 1	@ Tag_ABI_align_needed
	.eabi_attribute	25, 1	@ Tag_ABI_align_preserved
	.eabi_attribute	28, 1	@ Tag_ABI_VFP_args
	.eabi_attribute	38, 1	@ Tag_ABI_FP_16bit_format
	.eabi_attribute	18, 2	@ Tag_ABI_PCS_wchar_t
	.eabi_attribute	26, 1	@ Tag_ABI_enum_size
	.eabi_attribute	14, 0	@ Tag_ABI_PCS_R9_use
	.file	"stm32f4xx_hal_i2c.c"
	.file	1 "D:\\ikingtec\\Robot\\ODrive\\Firmware\\MDK-ARM" "../ThirdParty/STM32F4xx_HAL_Driver/Inc/stm32f4xx_hal_def.h"
	.file	2 "D:\\ikingtec\\Robot\\ODrive\\Firmware\\MDK-ARM" "../ThirdParty/STM32F4xx_HAL_Driver/Inc\\stm32f4xx_hal_dma.h"
	.file	3 "D:\\ikingtec\\Robot\\ODrive\\Firmware\\MDK-ARM" "../ThirdParty/STM32F4xx_HAL_Driver/Inc\\stm32f4xx_hal_i2c.h"
	.file	4 "D:\\ikingtec\\Robot\\ODrive\\Firmware\\MDK-ARM" "../ThirdParty/CMSIS/Device/ST/STM32F4xx/Include\\stm32f4xx.h"
	.file	5 "D:\\Embed\\MDK\\MDK\\ARM\\ARMCompilerV621\\Bin\\..\\include" "stdint.h"
	.file	6 "D:\\ikingtec\\Robot\\ODrive\\Firmware\\MDK-ARM" "../ThirdParty/CMSIS/Device/ST/STM32F4xx/Include/stm32f405xx.h"
	.section	.text.HAL_I2C_Init,"ax",%progbits
	.hidden	HAL_I2C_Init                    @ -- Begin function HAL_I2C_Init
	.globl	HAL_I2C_Init
	.p2align	2
	.type	HAL_I2C_Init,%function
	.code	16                              @ @HAL_I2C_Init
	.thumb_func
HAL_I2C_Init:
.Lfunc_begin0:
	.file	7 "D:\\ikingtec\\Robot\\ODrive\\Firmware\\MDK-ARM" "../ThirdParty/STM32F4xx_HAL_Driver/Src/stm32f4xx_hal_i2c.c"
	.loc	7 355 0                         @ ../ThirdParty/STM32F4xx_HAL_Driver/Src/stm32f4xx_hal_i2c.c:355:0
	.fnstart
	.cfi_sections .debug_frame
	.cfi_startproc
@ %bb.0:
	.save	{r7, lr}
	push	{r7, lr}
	.cfi_def_cfa_offset 8
	.cfi_offset lr, -4
	.cfi_offset r7, -8
	.pad	#40
	sub	sp, #40
	.cfi_def_cfa_offset 48
	str	r0, [sp, #32]
	movs	r0, #0
.Ltmp0:
	.loc	7 356 12 prologue_end           @ ../ThirdParty/STM32F4xx_HAL_Driver/Src/stm32f4xx_hal_i2c.c:356:12
	str	r0, [sp, #28]
	.loc	7 357 12                        @ ../ThirdParty/STM32F4xx_HAL_Driver/Src/stm32f4xx_hal_i2c.c:357:12
	str	r0, [sp, #24]
.Ltmp1:
	.loc	7 360 6                         @ ../ThirdParty/STM32F4xx_HAL_Driver/Src/stm32f4xx_hal_i2c.c:360:6
	ldr	r0, [sp, #32]
.Ltmp2:
	.loc	7 360 6 is_stmt 0               @ ../ThirdParty/STM32F4xx_HAL_Driver/Src/stm32f4xx_hal_i2c.c:360:6
	cbnz	r0, .LBB0_2
	b	.LBB0_1
.LBB0_1:
	.loc	7 0 6                           @ ../ThirdParty/STM32F4xx_HAL_Driver/Src/stm32f4xx_hal_i2c.c:0:6
	movs	r0, #1
.Ltmp3:
	.loc	7 362 5 is_stmt 1               @ ../ThirdParty/STM32F4xx_HAL_Driver/Src/stm32f4xx_hal_i2c.c:362:5
	strb.w	r0, [sp, #39]
	b	.LBB0_23
.Ltmp4:
.LBB0_2:
	.loc	7 376 6                         @ ../ThirdParty/STM32F4xx_HAL_Driver/Src/stm32f4xx_hal_i2c.c:376:6
	ldr	r0, [sp, #32]
	.loc	7 376 12 is_stmt 0              @ ../ThirdParty/STM32F4xx_HAL_Driver/Src/stm32f4xx_hal_i2c.c:376:12
	ldrb.w	r0, [r0, #61]
.Ltmp5:
	.loc	7 376 6                         @ ../ThirdParty/STM32F4xx_HAL_Driver/Src/stm32f4xx_hal_i2c.c:376:6
	cbnz	r0, .LBB0_4
	b	.LBB0_3
.LBB0_3:
.Ltmp6:
	.loc	7 379 5 is_stmt 1               @ ../ThirdParty/STM32F4xx_HAL_Driver/Src/stm32f4xx_hal_i2c.c:379:5
	ldr	r1, [sp, #32]
	movs	r0, #0
	.loc	7 379 16 is_stmt 0              @ ../ThirdParty/STM32F4xx_HAL_Driver/Src/stm32f4xx_hal_i2c.c:379:16
	strb.w	r0, [r1, #60]
	.loc	7 381 21 is_stmt 1              @ ../ThirdParty/STM32F4xx_HAL_Driver/Src/stm32f4xx_hal_i2c.c:381:21
	ldr	r0, [sp, #32]
	.loc	7 381 5 is_stmt 0               @ ../ThirdParty/STM32F4xx_HAL_Driver/Src/stm32f4xx_hal_i2c.c:381:5
	bl	HAL_I2C_MspInit
	.loc	7 382 3 is_stmt 1               @ ../ThirdParty/STM32F4xx_HAL_Driver/Src/stm32f4xx_hal_i2c.c:382:3
	b	.LBB0_4
.Ltmp7:
.LBB0_4:
	.loc	7 384 3                         @ ../ThirdParty/STM32F4xx_HAL_Driver/Src/stm32f4xx_hal_i2c.c:384:3
	ldr	r1, [sp, #32]
	movs	r0, #36
	.loc	7 384 15 is_stmt 0              @ ../ThirdParty/STM32F4xx_HAL_Driver/Src/stm32f4xx_hal_i2c.c:384:15
	strb.w	r0, [r1, #61]
	.loc	7 387 3 is_stmt 1               @ ../ThirdParty/STM32F4xx_HAL_Driver/Src/stm32f4xx_hal_i2c.c:387:3
	ldr	r0, [sp, #32]
	ldr	r1, [r0]
	ldr	r0, [r1]
	bic	r0, r0, #1
	str	r0, [r1]
	.loc	7 390 11                        @ ../ThirdParty/STM32F4xx_HAL_Driver/Src/stm32f4xx_hal_i2c.c:390:11
	bl	HAL_RCC_GetPCLK1Freq
	.loc	7 390 9 is_stmt 0               @ ../ThirdParty/STM32F4xx_HAL_Driver/Src/stm32f4xx_hal_i2c.c:390:9
	str	r0, [sp, #24]
	.loc	7 393 15 is_stmt 1              @ ../ThirdParty/STM32F4xx_HAL_Driver/Src/stm32f4xx_hal_i2c.c:393:15
	ldr	r0, [sp, #24]
	movw	r1, #56963
	movt	r1, #17179
	umull	r1, r0, r0, r1
	lsrs	r0, r0, #18
	.loc	7 393 13 is_stmt 0              @ ../ThirdParty/STM32F4xx_HAL_Driver/Src/stm32f4xx_hal_i2c.c:393:13
	str	r0, [sp, #28]
	.loc	7 397 25 is_stmt 1              @ ../ThirdParty/STM32F4xx_HAL_Driver/Src/stm32f4xx_hal_i2c.c:397:25
	ldr	r0, [sp, #28]
	.loc	7 397 3 is_stmt 0               @ ../ThirdParty/STM32F4xx_HAL_Driver/Src/stm32f4xx_hal_i2c.c:397:3
	ldr	r1, [sp, #32]
	.loc	7 397 9                         @ ../ThirdParty/STM32F4xx_HAL_Driver/Src/stm32f4xx_hal_i2c.c:397:9
	ldr	r1, [r1]
	.loc	7 397 23                        @ ../ThirdParty/STM32F4xx_HAL_Driver/Src/stm32f4xx_hal_i2c.c:397:23
	str	r0, [r1, #4]
	.loc	7 401 27 is_stmt 1              @ ../ThirdParty/STM32F4xx_HAL_Driver/Src/stm32f4xx_hal_i2c.c:401:27
	ldr	r0, [sp, #32]
	ldr	r0, [r0, #4]
	movw	r1, #34464
	movt	r1, #1
	cmp	r0, r1
	bhi	.LBB0_6
	b	.LBB0_5
.LBB0_5:
	ldr	r0, [sp, #28]
	adds	r0, #1
	str	r0, [sp, #20]                   @ 4-byte Spill
	b	.LBB0_7
.LBB0_6:
	ldr	r0, [sp, #28]
	mov.w	r1, #300
	muls	r0, r1, r0
	movw	r1, #19923
	movt	r1, #4194
	umull	r0, r1, r0, r1
	movs	r0, #1
	add.w	r0, r0, r1, lsr #6
	str	r0, [sp, #20]                   @ 4-byte Spill
	b	.LBB0_7
.LBB0_7:
	ldr	r0, [sp, #20]                   @ 4-byte Reload
	.loc	7 401 3 is_stmt 0               @ ../ThirdParty/STM32F4xx_HAL_Driver/Src/stm32f4xx_hal_i2c.c:401:3
	ldr	r1, [sp, #32]
	.loc	7 401 9                         @ ../ThirdParty/STM32F4xx_HAL_Driver/Src/stm32f4xx_hal_i2c.c:401:9
	ldr	r1, [r1]
	.loc	7 401 25                        @ ../ThirdParty/STM32F4xx_HAL_Driver/Src/stm32f4xx_hal_i2c.c:401:25
	str	r0, [r1, #32]
	.loc	7 405 25 is_stmt 1              @ ../ThirdParty/STM32F4xx_HAL_Driver/Src/stm32f4xx_hal_i2c.c:405:25
	ldr	r0, [sp, #32]
	ldr	r0, [r0, #4]
	movw	r1, #34464
	movt	r1, #1
	cmp	r0, r1
	bhi	.LBB0_12
	b	.LBB0_8
.LBB0_8:
	ldr	r0, [sp, #24]
	ldr	r1, [sp, #32]
	ldr	r1, [r1, #4]
	lsls	r1, r1, #1
	udiv	r0, r0, r1
	bfc	r0, #12, #20
	cmp	r0, #3
	bhi	.LBB0_10
	b	.LBB0_9
.LBB0_9:
	.loc	7 0 25 is_stmt 0                @ ../ThirdParty/STM32F4xx_HAL_Driver/Src/stm32f4xx_hal_i2c.c:0:25
	movs	r0, #4
	.loc	7 405 25                        @ ../ThirdParty/STM32F4xx_HAL_Driver/Src/stm32f4xx_hal_i2c.c:405:25
	str	r0, [sp, #16]                   @ 4-byte Spill
	b	.LBB0_11
.LBB0_10:
	ldr	r0, [sp, #24]
	ldr	r1, [sp, #32]
	ldr	r1, [r1, #4]
	lsls	r1, r1, #1
	udiv	r0, r0, r1
	str	r0, [sp, #16]                   @ 4-byte Spill
	b	.LBB0_11
.LBB0_11:
	ldr	r0, [sp, #16]                   @ 4-byte Reload
	str	r0, [sp, #12]                   @ 4-byte Spill
	b	.LBB0_22
.LBB0_12:
	ldr	r0, [sp, #32]
	ldr	r0, [r0, #8]
	cbnz	r0, .LBB0_14
	b	.LBB0_13
.LBB0_13:
	ldr	r0, [sp, #24]
	ldr	r1, [sp, #32]
	ldr	r1, [r1, #4]
	add.w	r1, r1, r1, lsl #1
	udiv	r0, r0, r1
	str	r0, [sp, #8]                    @ 4-byte Spill
	b	.LBB0_15
.LBB0_14:
	ldr	r0, [sp, #24]
	ldr	r1, [sp, #32]
	ldr	r1, [r1, #4]
	movs	r2, #25
	muls	r1, r2, r1
	udiv	r0, r0, r1
	orr	r0, r0, #16384
	str	r0, [sp, #8]                    @ 4-byte Spill
	b	.LBB0_15
.LBB0_15:
	ldr	r0, [sp, #8]                    @ 4-byte Reload
	lsls	r0, r0, #20
	cbnz	r0, .LBB0_17
	b	.LBB0_16
.LBB0_16:
	.loc	7 0 25                          @ ../ThirdParty/STM32F4xx_HAL_Driver/Src/stm32f4xx_hal_i2c.c:0:25
	movs	r0, #1
	.loc	7 405 25                        @ ../ThirdParty/STM32F4xx_HAL_Driver/Src/stm32f4xx_hal_i2c.c:405:25
	str	r0, [sp, #4]                    @ 4-byte Spill
	b	.LBB0_21
.LBB0_17:
	ldr	r0, [sp, #32]
	ldr	r0, [r0, #8]
	cbnz	r0, .LBB0_19
	b	.LBB0_18
.LBB0_18:
	ldr	r0, [sp, #24]
	ldr	r1, [sp, #32]
	ldr	r1, [r1, #4]
	add.w	r1, r1, r1, lsl #1
	udiv	r0, r0, r1
	str	r0, [sp]                        @ 4-byte Spill
	b	.LBB0_20
.LBB0_19:
	ldr	r0, [sp, #24]
	ldr	r1, [sp, #32]
	ldr	r1, [r1, #4]
	movs	r2, #25
	muls	r1, r2, r1
	udiv	r0, r0, r1
	orr	r0, r0, #16384
	str	r0, [sp]                        @ 4-byte Spill
	b	.LBB0_20
.LBB0_20:
	ldr	r0, [sp]                        @ 4-byte Reload
	orr	r0, r0, #32768
	str	r0, [sp, #4]                    @ 4-byte Spill
	b	.LBB0_21
.LBB0_21:
	ldr	r0, [sp, #4]                    @ 4-byte Reload
	str	r0, [sp, #12]                   @ 4-byte Spill
	b	.LBB0_22
.LBB0_22:
	ldr	r0, [sp, #12]                   @ 4-byte Reload
	.loc	7 405 3                         @ ../ThirdParty/STM32F4xx_HAL_Driver/Src/stm32f4xx_hal_i2c.c:405:3
	ldr	r1, [sp, #32]
	.loc	7 405 9                         @ ../ThirdParty/STM32F4xx_HAL_Driver/Src/stm32f4xx_hal_i2c.c:405:9
	ldr	r1, [r1]
	.loc	7 405 23                        @ ../ThirdParty/STM32F4xx_HAL_Driver/Src/stm32f4xx_hal_i2c.c:405:23
	str	r0, [r1, #28]
	.loc	7 409 26 is_stmt 1              @ ../ThirdParty/STM32F4xx_HAL_Driver/Src/stm32f4xx_hal_i2c.c:409:26
	ldr	r2, [sp, #32]
	.loc	7 409 9 is_stmt 0               @ ../ThirdParty/STM32F4xx_HAL_Driver/Src/stm32f4xx_hal_i2c.c:409:9
	ldr	r1, [r2]
	.loc	7 409 37                        @ ../ThirdParty/STM32F4xx_HAL_Driver/Src/stm32f4xx_hal_i2c.c:409:37
	ldr	r0, [r2, #28]
	.loc	7 409 66                        @ ../ThirdParty/STM32F4xx_HAL_Driver/Src/stm32f4xx_hal_i2c.c:409:66
	ldr	r2, [r2, #32]
	.loc	7 409 53                        @ ../ThirdParty/STM32F4xx_HAL_Driver/Src/stm32f4xx_hal_i2c.c:409:53
	orrs	r0, r2
	.loc	7 409 23                        @ ../ThirdParty/STM32F4xx_HAL_Driver/Src/stm32f4xx_hal_i2c.c:409:23
	str	r0, [r1]
	.loc	7 413 27 is_stmt 1              @ ../ThirdParty/STM32F4xx_HAL_Driver/Src/stm32f4xx_hal_i2c.c:413:27
	ldr	r0, [sp, #32]
	.loc	7 413 9 is_stmt 0               @ ../ThirdParty/STM32F4xx_HAL_Driver/Src/stm32f4xx_hal_i2c.c:413:9
	ldr	r1, [r0]
	.loc	7 413 66                        @ ../ThirdParty/STM32F4xx_HAL_Driver/Src/stm32f4xx_hal_i2c.c:413:66
	ldr	r2, [r0, #12]
	.loc	7 413 38                        @ ../ThirdParty/STM32F4xx_HAL_Driver/Src/stm32f4xx_hal_i2c.c:413:38
	ldr	r0, [r0, #16]
	.loc	7 413 53                        @ ../ThirdParty/STM32F4xx_HAL_Driver/Src/stm32f4xx_hal_i2c.c:413:53
	orrs	r0, r2
	.loc	7 413 24                        @ ../ThirdParty/STM32F4xx_HAL_Driver/Src/stm32f4xx_hal_i2c.c:413:24
	str	r0, [r1, #8]
	.loc	7 417 27 is_stmt 1              @ ../ThirdParty/STM32F4xx_HAL_Driver/Src/stm32f4xx_hal_i2c.c:417:27
	ldr	r2, [sp, #32]
	.loc	7 417 9 is_stmt 0               @ ../ThirdParty/STM32F4xx_HAL_Driver/Src/stm32f4xx_hal_i2c.c:417:9
	ldr	r1, [r2]
	.loc	7 417 38                        @ ../ThirdParty/STM32F4xx_HAL_Driver/Src/stm32f4xx_hal_i2c.c:417:38
	ldr	r0, [r2, #20]
	.loc	7 417 67                        @ ../ThirdParty/STM32F4xx_HAL_Driver/Src/stm32f4xx_hal_i2c.c:417:67
	ldr	r2, [r2, #24]
	.loc	7 417 54                        @ ../ThirdParty/STM32F4xx_HAL_Driver/Src/stm32f4xx_hal_i2c.c:417:54
	orrs	r0, r2
	.loc	7 417 24                        @ ../ThirdParty/STM32F4xx_HAL_Driver/Src/stm32f4xx_hal_i2c.c:417:24
	str	r0, [r1, #12]
	.loc	7 420 3 is_stmt 1               @ ../ThirdParty/STM32F4xx_HAL_Driver/Src/stm32f4xx_hal_i2c.c:420:3
	ldr	r0, [sp, #32]
	ldr	r1, [r0]
	ldr	r0, [r1]
	orr	r0, r0, #1
	str	r0, [r1]
	.loc	7 422 3                         @ ../ThirdParty/STM32F4xx_HAL_Driver/Src/stm32f4xx_hal_i2c.c:422:3
	ldr	r1, [sp, #32]
	movs	r0, #0
	.loc	7 422 19 is_stmt 0              @ ../ThirdParty/STM32F4xx_HAL_Driver/Src/stm32f4xx_hal_i2c.c:422:19
	str	r0, [r1, #64]
	.loc	7 423 3 is_stmt 1               @ ../ThirdParty/STM32F4xx_HAL_Driver/Src/stm32f4xx_hal_i2c.c:423:3
	ldr	r2, [sp, #32]
	movs	r1, #32
	.loc	7 423 15 is_stmt 0              @ ../ThirdParty/STM32F4xx_HAL_Driver/Src/stm32f4xx_hal_i2c.c:423:15
	strb.w	r1, [r2, #61]
	.loc	7 424 3 is_stmt 1               @ ../ThirdParty/STM32F4xx_HAL_Driver/Src/stm32f4xx_hal_i2c.c:424:3
	ldr	r1, [sp, #32]
	.loc	7 424 23 is_stmt 0              @ ../ThirdParty/STM32F4xx_HAL_Driver/Src/stm32f4xx_hal_i2c.c:424:23
	str	r0, [r1, #48]
	.loc	7 425 3 is_stmt 1               @ ../ThirdParty/STM32F4xx_HAL_Driver/Src/stm32f4xx_hal_i2c.c:425:3
	ldr	r1, [sp, #32]
	.loc	7 425 14 is_stmt 0              @ ../ThirdParty/STM32F4xx_HAL_Driver/Src/stm32f4xx_hal_i2c.c:425:14
	strb.w	r0, [r1, #62]
	.loc	7 427 3 is_stmt 1               @ ../ThirdParty/STM32F4xx_HAL_Driver/Src/stm32f4xx_hal_i2c.c:427:3
	strb.w	r0, [sp, #39]
	b	.LBB0_23
.LBB0_23:
	.loc	7 428 1                         @ ../ThirdParty/STM32F4xx_HAL_Driver/Src/stm32f4xx_hal_i2c.c:428:1
	ldrb.w	r0, [sp, #39]
	.loc	7 428 1 epilogue_begin is_stmt 0 @ ../ThirdParty/STM32F4xx_HAL_Driver/Src/stm32f4xx_hal_i2c.c:428:1
	add	sp, #40
	pop	{r7, pc}
.Ltmp8:
.Lfunc_end0:
	.size	HAL_I2C_Init, .Lfunc_end0-HAL_I2C_Init
	.cfi_endproc
	.cantunwind
	.fnend
                                        @ -- End function
	.section	.text.HAL_I2C_MspInit,"ax",%progbits
	.hidden	HAL_I2C_MspInit                 @ -- Begin function HAL_I2C_MspInit
	.weak	HAL_I2C_MspInit
	.p2align	2
	.type	HAL_I2C_MspInit,%function
	.code	16                              @ @HAL_I2C_MspInit
	.thumb_func
HAL_I2C_MspInit:
.Lfunc_begin1:
	.loc	7 473 0 is_stmt 1               @ ../ThirdParty/STM32F4xx_HAL_Driver/Src/stm32f4xx_hal_i2c.c:473:0
	.fnstart
	.cfi_startproc
@ %bb.0:
	.pad	#4
	sub	sp, #4
	.cfi_def_cfa_offset 4
	str	r0, [sp]
.Ltmp9:
	.loc	7 479 1 prologue_end epilogue_begin @ ../ThirdParty/STM32F4xx_HAL_Driver/Src/stm32f4xx_hal_i2c.c:479:1
	add	sp, #4
	bx	lr
.Ltmp10:
.Lfunc_end1:
	.size	HAL_I2C_MspInit, .Lfunc_end1-HAL_I2C_MspInit
	.cfi_endproc
	.cantunwind
	.fnend
                                        @ -- End function
	.section	.text.HAL_I2C_DeInit,"ax",%progbits
	.hidden	HAL_I2C_DeInit                  @ -- Begin function HAL_I2C_DeInit
	.globl	HAL_I2C_DeInit
	.p2align	2
	.type	HAL_I2C_DeInit,%function
	.code	16                              @ @HAL_I2C_DeInit
	.thumb_func
HAL_I2C_DeInit:
.Lfunc_begin2:
	.loc	7 437 0                         @ ../ThirdParty/STM32F4xx_HAL_Driver/Src/stm32f4xx_hal_i2c.c:437:0
	.fnstart
	.cfi_startproc
@ %bb.0:
	.save	{r7, lr}
	push	{r7, lr}
	.cfi_def_cfa_offset 8
	.cfi_offset lr, -4
	.cfi_offset r7, -8
	.pad	#8
	sub	sp, #8
	.cfi_def_cfa_offset 16
	str	r0, [sp]
.Ltmp11:
	.loc	7 439 6 prologue_end            @ ../ThirdParty/STM32F4xx_HAL_Driver/Src/stm32f4xx_hal_i2c.c:439:6
	ldr	r0, [sp]
.Ltmp12:
	.loc	7 439 6 is_stmt 0               @ ../ThirdParty/STM32F4xx_HAL_Driver/Src/stm32f4xx_hal_i2c.c:439:6
	cbnz	r0, .LBB2_2
	b	.LBB2_1
.LBB2_1:
	.loc	7 0 6                           @ ../ThirdParty/STM32F4xx_HAL_Driver/Src/stm32f4xx_hal_i2c.c:0:6
	movs	r0, #1
.Ltmp13:
	.loc	7 441 5 is_stmt 1               @ ../ThirdParty/STM32F4xx_HAL_Driver/Src/stm32f4xx_hal_i2c.c:441:5
	strb.w	r0, [sp, #7]
	b	.LBB2_5
.Ltmp14:
.LBB2_2:
	.loc	7 447 3                         @ ../ThirdParty/STM32F4xx_HAL_Driver/Src/stm32f4xx_hal_i2c.c:447:3
	ldr	r1, [sp]
	movs	r0, #36
	.loc	7 447 15 is_stmt 0              @ ../ThirdParty/STM32F4xx_HAL_Driver/Src/stm32f4xx_hal_i2c.c:447:15
	strb.w	r0, [r1, #61]
	.loc	7 450 3 is_stmt 1               @ ../ThirdParty/STM32F4xx_HAL_Driver/Src/stm32f4xx_hal_i2c.c:450:3
	ldr	r0, [sp]
	ldr	r1, [r0]
	ldr	r0, [r1]
	bic	r0, r0, #1
	str	r0, [r1]
	.loc	7 453 21                        @ ../ThirdParty/STM32F4xx_HAL_Driver/Src/stm32f4xx_hal_i2c.c:453:21
	ldr	r0, [sp]
	.loc	7 453 3 is_stmt 0               @ ../ThirdParty/STM32F4xx_HAL_Driver/Src/stm32f4xx_hal_i2c.c:453:3
	bl	HAL_I2C_MspDeInit
	.loc	7 455 3 is_stmt 1               @ ../ThirdParty/STM32F4xx_HAL_Driver/Src/stm32f4xx_hal_i2c.c:455:3
	ldr	r1, [sp]
	movs	r0, #0
	.loc	7 455 23 is_stmt 0              @ ../ThirdParty/STM32F4xx_HAL_Driver/Src/stm32f4xx_hal_i2c.c:455:23
	str	r0, [r1, #64]
	.loc	7 456 3 is_stmt 1               @ ../ThirdParty/STM32F4xx_HAL_Driver/Src/stm32f4xx_hal_i2c.c:456:3
	ldr	r1, [sp]
	.loc	7 456 23 is_stmt 0              @ ../ThirdParty/STM32F4xx_HAL_Driver/Src/stm32f4xx_hal_i2c.c:456:23
	strb.w	r0, [r1, #61]
	.loc	7 457 3 is_stmt 1               @ ../ThirdParty/STM32F4xx_HAL_Driver/Src/stm32f4xx_hal_i2c.c:457:3
	ldr	r1, [sp]
	.loc	7 457 23 is_stmt 0              @ ../ThirdParty/STM32F4xx_HAL_Driver/Src/stm32f4xx_hal_i2c.c:457:23
	str	r0, [r1, #48]
	.loc	7 458 3 is_stmt 1               @ ../ThirdParty/STM32F4xx_HAL_Driver/Src/stm32f4xx_hal_i2c.c:458:3
	ldr	r1, [sp]
	.loc	7 458 23 is_stmt 0              @ ../ThirdParty/STM32F4xx_HAL_Driver/Src/stm32f4xx_hal_i2c.c:458:23
	strb.w	r0, [r1, #62]
	.loc	7 461 3 is_stmt 1               @ ../ThirdParty/STM32F4xx_HAL_Driver/Src/stm32f4xx_hal_i2c.c:461:3
	b	.LBB2_3
.LBB2_3:
.Ltmp15:
	.loc	7 461 3 is_stmt 0               @ ../ThirdParty/STM32F4xx_HAL_Driver/Src/stm32f4xx_hal_i2c.c:461:3
	ldr	r1, [sp]
	movs	r0, #0
	strb.w	r0, [r1, #60]
	b	.LBB2_4
.Ltmp16:
.LBB2_4:
	.loc	7 0 3                           @ ../ThirdParty/STM32F4xx_HAL_Driver/Src/stm32f4xx_hal_i2c.c:0:3
	movs	r0, #0
	.loc	7 463 3 is_stmt 1               @ ../ThirdParty/STM32F4xx_HAL_Driver/Src/stm32f4xx_hal_i2c.c:463:3
	strb.w	r0, [sp, #7]
	b	.LBB2_5
.LBB2_5:
	.loc	7 464 1                         @ ../ThirdParty/STM32F4xx_HAL_Driver/Src/stm32f4xx_hal_i2c.c:464:1
	ldrb.w	r0, [sp, #7]
	.loc	7 464 1 epilogue_begin is_stmt 0 @ ../ThirdParty/STM32F4xx_HAL_Driver/Src/stm32f4xx_hal_i2c.c:464:1
	add	sp, #8
	pop	{r7, pc}
.Ltmp17:
.Lfunc_end2:
	.size	HAL_I2C_DeInit, .Lfunc_end2-HAL_I2C_DeInit
	.cfi_endproc
	.cantunwind
	.fnend
                                        @ -- End function
	.section	.text.HAL_I2C_MspDeInit,"ax",%progbits
	.hidden	HAL_I2C_MspDeInit               @ -- Begin function HAL_I2C_MspDeInit
	.weak	HAL_I2C_MspDeInit
	.p2align	2
	.type	HAL_I2C_MspDeInit,%function
	.code	16                              @ @HAL_I2C_MspDeInit
	.thumb_func
HAL_I2C_MspDeInit:
.Lfunc_begin3:
	.loc	7 488 0 is_stmt 1               @ ../ThirdParty/STM32F4xx_HAL_Driver/Src/stm32f4xx_hal_i2c.c:488:0
	.fnstart
	.cfi_startproc
@ %bb.0:
	.pad	#4
	sub	sp, #4
	.cfi_def_cfa_offset 4
	str	r0, [sp]
.Ltmp18:
	.loc	7 494 1 prologue_end epilogue_begin @ ../ThirdParty/STM32F4xx_HAL_Driver/Src/stm32f4xx_hal_i2c.c:494:1
	add	sp, #4
	bx	lr
.Ltmp19:
.Lfunc_end3:
	.size	HAL_I2C_MspDeInit, .Lfunc_end3-HAL_I2C_MspDeInit
	.cfi_endproc
	.cantunwind
	.fnend
                                        @ -- End function
	.section	.text.HAL_I2C_Master_Transmit,"ax",%progbits
	.hidden	HAL_I2C_Master_Transmit         @ -- Begin function HAL_I2C_Master_Transmit
	.globl	HAL_I2C_Master_Transmit
	.p2align	2
	.type	HAL_I2C_Master_Transmit,%function
	.code	16                              @ @HAL_I2C_Master_Transmit
	.thumb_func
HAL_I2C_Master_Transmit:
.Lfunc_begin4:
	.loc	7 576 0                         @ ../ThirdParty/STM32F4xx_HAL_Driver/Src/stm32f4xx_hal_i2c.c:576:0
	.fnstart
	.cfi_startproc
@ %bb.0:
	.save	{r7, lr}
	push	{r7, lr}
	.cfi_def_cfa_offset 8
	.cfi_offset lr, -4
	.cfi_offset r7, -8
	.pad	#32
	sub	sp, #32
	.cfi_def_cfa_offset 40
	ldr.w	r12, [sp, #40]
                                        @ kill: def $r12 killed $r3
                                        @ kill: def $r12 killed $r1
	str	r0, [sp, #24]
	strh.w	r1, [sp, #22]
	str	r2, [sp, #16]
	strh.w	r3, [sp, #14]
	movs	r0, #0
.Ltmp20:
	.loc	7 577 12 prologue_end           @ ../ThirdParty/STM32F4xx_HAL_Driver/Src/stm32f4xx_hal_i2c.c:577:12
	str	r0, [sp, #8]
	.loc	7 580 15                        @ ../ThirdParty/STM32F4xx_HAL_Driver/Src/stm32f4xx_hal_i2c.c:580:15
	bl	HAL_GetTick
	.loc	7 580 13 is_stmt 0              @ ../ThirdParty/STM32F4xx_HAL_Driver/Src/stm32f4xx_hal_i2c.c:580:13
	str	r0, [sp, #8]
.Ltmp21:
	.loc	7 582 6 is_stmt 1               @ ../ThirdParty/STM32F4xx_HAL_Driver/Src/stm32f4xx_hal_i2c.c:582:6
	ldr	r0, [sp, #24]
	.loc	7 582 12 is_stmt 0              @ ../ThirdParty/STM32F4xx_HAL_Driver/Src/stm32f4xx_hal_i2c.c:582:12
	ldrb.w	r0, [r0, #61]
.Ltmp22:
	.loc	7 582 6                         @ ../ThirdParty/STM32F4xx_HAL_Driver/Src/stm32f4xx_hal_i2c.c:582:6
	cmp	r0, #32
	bne.w	.LBB4_37
	b	.LBB4_1
.LBB4_1:
.Ltmp23:
	.loc	7 585 35 is_stmt 1              @ ../ThirdParty/STM32F4xx_HAL_Driver/Src/stm32f4xx_hal_i2c.c:585:35
	ldr	r0, [sp, #24]
	.loc	7 585 84 is_stmt 0              @ ../ThirdParty/STM32F4xx_HAL_Driver/Src/stm32f4xx_hal_i2c.c:585:84
	ldr	r1, [sp, #8]
	.loc	7 585 8                         @ ../ThirdParty/STM32F4xx_HAL_Driver/Src/stm32f4xx_hal_i2c.c:585:8
	mov	r2, sp
	str	r1, [r2]
	movs	r1, #2
	movt	r1, #16
	movs	r2, #1
	movs	r3, #25
	bl	I2C_WaitOnFlagUntilTimeout
.Ltmp24:
	.loc	7 585 8                         @ ../ThirdParty/STM32F4xx_HAL_Driver/Src/stm32f4xx_hal_i2c.c:585:8
	cbz	r0, .LBB4_3
	b	.LBB4_2
.LBB4_2:
	.loc	7 0 8                           @ ../ThirdParty/STM32F4xx_HAL_Driver/Src/stm32f4xx_hal_i2c.c:0:8
	movs	r0, #2
.Ltmp25:
	.loc	7 587 7 is_stmt 1               @ ../ThirdParty/STM32F4xx_HAL_Driver/Src/stm32f4xx_hal_i2c.c:587:7
	strb.w	r0, [sp, #31]
	b	.LBB4_38
.Ltmp26:
.LBB4_3:
	.loc	7 591 5                         @ ../ThirdParty/STM32F4xx_HAL_Driver/Src/stm32f4xx_hal_i2c.c:591:5
	b	.LBB4_4
.LBB4_4:
.Ltmp27:
	.loc	7 591 5 is_stmt 0               @ ../ThirdParty/STM32F4xx_HAL_Driver/Src/stm32f4xx_hal_i2c.c:591:5
	ldr	r0, [sp, #24]
	ldrb.w	r0, [r0, #60]
.Ltmp28:
	.loc	7 591 5                         @ ../ThirdParty/STM32F4xx_HAL_Driver/Src/stm32f4xx_hal_i2c.c:591:5
	cmp	r0, #1
	bne	.LBB4_6
	b	.LBB4_5
.LBB4_5:
	.loc	7 0 5                           @ ../ThirdParty/STM32F4xx_HAL_Driver/Src/stm32f4xx_hal_i2c.c:0:5
	movs	r0, #2
.Ltmp29:
	.loc	7 591 5                         @ ../ThirdParty/STM32F4xx_HAL_Driver/Src/stm32f4xx_hal_i2c.c:591:5
	strb.w	r0, [sp, #31]
	b	.LBB4_38
.Ltmp30:
.LBB4_6:
	.loc	7 591 5                         @ ../ThirdParty/STM32F4xx_HAL_Driver/Src/stm32f4xx_hal_i2c.c:591:5
	ldr	r1, [sp, #24]
	movs	r0, #1
	strb.w	r0, [r1, #60]
	b	.LBB4_7
.Ltmp31:
.LBB4_7:
	.loc	7 591 5                         @ ../ThirdParty/STM32F4xx_HAL_Driver/Src/stm32f4xx_hal_i2c.c:591:5
	b	.LBB4_8
.Ltmp32:
.LBB4_8:
	.loc	7 594 9 is_stmt 1               @ ../ThirdParty/STM32F4xx_HAL_Driver/Src/stm32f4xx_hal_i2c.c:594:9
	ldr	r0, [sp, #24]
	.loc	7 594 15 is_stmt 0              @ ../ThirdParty/STM32F4xx_HAL_Driver/Src/stm32f4xx_hal_i2c.c:594:15
	ldr	r0, [r0]
	.loc	7 594 25                        @ ../ThirdParty/STM32F4xx_HAL_Driver/Src/stm32f4xx_hal_i2c.c:594:25
	ldr	r0, [r0]
.Ltmp33:
	.loc	7 594 8                         @ ../ThirdParty/STM32F4xx_HAL_Driver/Src/stm32f4xx_hal_i2c.c:594:8
	lsls	r0, r0, #31
	cbnz	r0, .LBB4_10
	b	.LBB4_9
.LBB4_9:
.Ltmp34:
	.loc	7 597 7 is_stmt 1               @ ../ThirdParty/STM32F4xx_HAL_Driver/Src/stm32f4xx_hal_i2c.c:597:7
	ldr	r0, [sp, #24]
	ldr	r1, [r0]
	ldr	r0, [r1]
	orr	r0, r0, #1
	str	r0, [r1]
	.loc	7 598 5                         @ ../ThirdParty/STM32F4xx_HAL_Driver/Src/stm32f4xx_hal_i2c.c:598:5
	b	.LBB4_10
.Ltmp35:
.LBB4_10:
	.loc	7 601 5                         @ ../ThirdParty/STM32F4xx_HAL_Driver/Src/stm32f4xx_hal_i2c.c:601:5
	ldr	r0, [sp, #24]
	.loc	7 601 11 is_stmt 0              @ ../ThirdParty/STM32F4xx_HAL_Driver/Src/stm32f4xx_hal_i2c.c:601:11
	ldr	r1, [r0]
	.loc	7 601 25                        @ ../ThirdParty/STM32F4xx_HAL_Driver/Src/stm32f4xx_hal_i2c.c:601:25
	ldr	r0, [r1]
	bic	r0, r0, #2048
	str	r0, [r1]
	.loc	7 603 5 is_stmt 1               @ ../ThirdParty/STM32F4xx_HAL_Driver/Src/stm32f4xx_hal_i2c.c:603:5
	ldr	r1, [sp, #24]
	movs	r0, #33
	.loc	7 603 21 is_stmt 0              @ ../ThirdParty/STM32F4xx_HAL_Driver/Src/stm32f4xx_hal_i2c.c:603:21
	strb.w	r0, [r1, #61]
	.loc	7 604 5 is_stmt 1               @ ../ThirdParty/STM32F4xx_HAL_Driver/Src/stm32f4xx_hal_i2c.c:604:5
	ldr	r1, [sp, #24]
	movs	r0, #16
	.loc	7 604 21 is_stmt 0              @ ../ThirdParty/STM32F4xx_HAL_Driver/Src/stm32f4xx_hal_i2c.c:604:21
	strb.w	r0, [r1, #62]
	.loc	7 605 5 is_stmt 1               @ ../ThirdParty/STM32F4xx_HAL_Driver/Src/stm32f4xx_hal_i2c.c:605:5
	ldr	r1, [sp, #24]
	movs	r0, #0
	.loc	7 605 21 is_stmt 0              @ ../ThirdParty/STM32F4xx_HAL_Driver/Src/stm32f4xx_hal_i2c.c:605:21
	str	r0, [r1, #64]
	.loc	7 608 25 is_stmt 1              @ ../ThirdParty/STM32F4xx_HAL_Driver/Src/stm32f4xx_hal_i2c.c:608:25
	ldr	r0, [sp, #16]
	.loc	7 608 5 is_stmt 0               @ ../ThirdParty/STM32F4xx_HAL_Driver/Src/stm32f4xx_hal_i2c.c:608:5
	ldr	r1, [sp, #24]
	.loc	7 608 23                        @ ../ThirdParty/STM32F4xx_HAL_Driver/Src/stm32f4xx_hal_i2c.c:608:23
	str	r0, [r1, #36]
	.loc	7 609 25 is_stmt 1              @ ../ThirdParty/STM32F4xx_HAL_Driver/Src/stm32f4xx_hal_i2c.c:609:25
	ldrh.w	r0, [sp, #14]
	.loc	7 609 5 is_stmt 0               @ ../ThirdParty/STM32F4xx_HAL_Driver/Src/stm32f4xx_hal_i2c.c:609:5
	ldr	r1, [sp, #24]
	.loc	7 609 23                        @ ../ThirdParty/STM32F4xx_HAL_Driver/Src/stm32f4xx_hal_i2c.c:609:23
	strh	r0, [r1, #42]
	.loc	7 610 5 is_stmt 1               @ ../ThirdParty/STM32F4xx_HAL_Driver/Src/stm32f4xx_hal_i2c.c:610:5
	ldr	r1, [sp, #24]
	movs	r0, #0
	movt	r0, #65535
	.loc	7 610 23 is_stmt 0              @ ../ThirdParty/STM32F4xx_HAL_Driver/Src/stm32f4xx_hal_i2c.c:610:23
	str	r0, [r1, #44]
	.loc	7 611 25 is_stmt 1              @ ../ThirdParty/STM32F4xx_HAL_Driver/Src/stm32f4xx_hal_i2c.c:611:25
	ldr	r0, [sp, #24]
	.loc	7 611 31 is_stmt 0              @ ../ThirdParty/STM32F4xx_HAL_Driver/Src/stm32f4xx_hal_i2c.c:611:31
	ldrh	r0, [r0, #42]
	.loc	7 611 5                         @ ../ThirdParty/STM32F4xx_HAL_Driver/Src/stm32f4xx_hal_i2c.c:611:5
	ldr	r1, [sp, #24]
	.loc	7 611 23                        @ ../ThirdParty/STM32F4xx_HAL_Driver/Src/stm32f4xx_hal_i2c.c:611:23
	strh	r0, [r1, #40]
.Ltmp36:
	.loc	7 614 31 is_stmt 1              @ ../ThirdParty/STM32F4xx_HAL_Driver/Src/stm32f4xx_hal_i2c.c:614:31
	ldr	r0, [sp, #24]
	.loc	7 614 37 is_stmt 0              @ ../ThirdParty/STM32F4xx_HAL_Driver/Src/stm32f4xx_hal_i2c.c:614:37
	ldrh.w	r1, [sp, #22]
	.loc	7 614 49                        @ ../ThirdParty/STM32F4xx_HAL_Driver/Src/stm32f4xx_hal_i2c.c:614:49
	ldr	r2, [sp, #40]
	.loc	7 614 58                        @ ../ThirdParty/STM32F4xx_HAL_Driver/Src/stm32f4xx_hal_i2c.c:614:58
	ldr	r3, [sp, #8]
	.loc	7 614 8                         @ ../ThirdParty/STM32F4xx_HAL_Driver/Src/stm32f4xx_hal_i2c.c:614:8
	bl	I2C_MasterRequestWrite
.Ltmp37:
	.loc	7 614 8                         @ ../ThirdParty/STM32F4xx_HAL_Driver/Src/stm32f4xx_hal_i2c.c:614:8
	cbz	r0, .LBB4_18
	b	.LBB4_11
.LBB4_11:
.Ltmp38:
	.loc	7 616 10 is_stmt 1              @ ../ThirdParty/STM32F4xx_HAL_Driver/Src/stm32f4xx_hal_i2c.c:616:10
	ldr	r0, [sp, #24]
	.loc	7 616 16 is_stmt 0              @ ../ThirdParty/STM32F4xx_HAL_Driver/Src/stm32f4xx_hal_i2c.c:616:16
	ldr	r0, [r0, #64]
.Ltmp39:
	.loc	7 616 10                        @ ../ThirdParty/STM32F4xx_HAL_Driver/Src/stm32f4xx_hal_i2c.c:616:10
	cmp	r0, #4
	bne	.LBB4_15
	b	.LBB4_12
.LBB4_12:
.Ltmp40:
	.loc	7 619 9 is_stmt 1               @ ../ThirdParty/STM32F4xx_HAL_Driver/Src/stm32f4xx_hal_i2c.c:619:9
	b	.LBB4_13
.LBB4_13:
.Ltmp41:
	.loc	7 619 9 is_stmt 0               @ ../ThirdParty/STM32F4xx_HAL_Driver/Src/stm32f4xx_hal_i2c.c:619:9
	ldr	r1, [sp, #24]
	movs	r0, #0
	strb.w	r0, [r1, #60]
	b	.LBB4_14
.Ltmp42:
.LBB4_14:
	.loc	7 0 9                           @ ../ThirdParty/STM32F4xx_HAL_Driver/Src/stm32f4xx_hal_i2c.c:0:9
	movs	r0, #1
	.loc	7 620 9 is_stmt 1               @ ../ThirdParty/STM32F4xx_HAL_Driver/Src/stm32f4xx_hal_i2c.c:620:9
	strb.w	r0, [sp, #31]
	b	.LBB4_38
.Ltmp43:
.LBB4_15:
	.loc	7 625 9                         @ ../ThirdParty/STM32F4xx_HAL_Driver/Src/stm32f4xx_hal_i2c.c:625:9
	b	.LBB4_16
.LBB4_16:
.Ltmp44:
	.loc	7 625 9 is_stmt 0               @ ../ThirdParty/STM32F4xx_HAL_Driver/Src/stm32f4xx_hal_i2c.c:625:9
	ldr	r1, [sp, #24]
	movs	r0, #0
	strb.w	r0, [r1, #60]
	b	.LBB4_17
.Ltmp45:
.LBB4_17:
	.loc	7 0 9                           @ ../ThirdParty/STM32F4xx_HAL_Driver/Src/stm32f4xx_hal_i2c.c:0:9
	movs	r0, #3
	.loc	7 626 9 is_stmt 1               @ ../ThirdParty/STM32F4xx_HAL_Driver/Src/stm32f4xx_hal_i2c.c:626:9
	strb.w	r0, [sp, #31]
	b	.LBB4_38
.Ltmp46:
.LBB4_18:
	.loc	7 631 5                         @ ../ThirdParty/STM32F4xx_HAL_Driver/Src/stm32f4xx_hal_i2c.c:631:5
	b	.LBB4_19
.LBB4_19:
	.loc	7 0 5 is_stmt 0                 @ ../ThirdParty/STM32F4xx_HAL_Driver/Src/stm32f4xx_hal_i2c.c:0:5
	movs	r0, #0
.Ltmp47:
	.loc	7 631 5                         @ ../ThirdParty/STM32F4xx_HAL_Driver/Src/stm32f4xx_hal_i2c.c:631:5
	str	r0, [sp, #4]
	ldr	r0, [sp, #24]
	ldr	r0, [r0]
	ldr	r0, [r0, #20]
	str	r0, [sp, #4]
	ldr	r0, [sp, #24]
	ldr	r0, [r0]
	ldr	r0, [r0, #24]
	str	r0, [sp, #4]
	ldr	r0, [sp, #4]
	b	.LBB4_20
.Ltmp48:
.LBB4_20:
	.loc	7 633 5 is_stmt 1               @ ../ThirdParty/STM32F4xx_HAL_Driver/Src/stm32f4xx_hal_i2c.c:633:5
	b	.LBB4_21
.LBB4_21:                               @ =>This Inner Loop Header: Depth=1
	.loc	7 633 11 is_stmt 0              @ ../ThirdParty/STM32F4xx_HAL_Driver/Src/stm32f4xx_hal_i2c.c:633:11
	ldr	r0, [sp, #24]
	.loc	7 633 17                        @ ../ThirdParty/STM32F4xx_HAL_Driver/Src/stm32f4xx_hal_i2c.c:633:17
	ldrh	r0, [r0, #40]
	.loc	7 633 5                         @ ../ThirdParty/STM32F4xx_HAL_Driver/Src/stm32f4xx_hal_i2c.c:633:5
	cmp	r0, #0
	beq	.LBB4_34
	b	.LBB4_22
.LBB4_22:                               @   in Loop: Header=BB4_21 Depth=1
.Ltmp49:
	.loc	7 636 40 is_stmt 1              @ ../ThirdParty/STM32F4xx_HAL_Driver/Src/stm32f4xx_hal_i2c.c:636:40
	ldr	r0, [sp, #24]
	.loc	7 636 46 is_stmt 0              @ ../ThirdParty/STM32F4xx_HAL_Driver/Src/stm32f4xx_hal_i2c.c:636:46
	ldr	r1, [sp, #40]
	.loc	7 636 55                        @ ../ThirdParty/STM32F4xx_HAL_Driver/Src/stm32f4xx_hal_i2c.c:636:55
	ldr	r2, [sp, #8]
	.loc	7 636 10                        @ ../ThirdParty/STM32F4xx_HAL_Driver/Src/stm32f4xx_hal_i2c.c:636:10
	bl	I2C_WaitOnTXEFlagUntilTimeout
.Ltmp50:
	.loc	7 636 10                        @ ../ThirdParty/STM32F4xx_HAL_Driver/Src/stm32f4xx_hal_i2c.c:636:10
	cbz	r0, .LBB4_26
	b	.LBB4_23
.LBB4_23:
.Ltmp51:
	.loc	7 638 12 is_stmt 1              @ ../ThirdParty/STM32F4xx_HAL_Driver/Src/stm32f4xx_hal_i2c.c:638:12
	ldr	r0, [sp, #24]
	.loc	7 638 18 is_stmt 0              @ ../ThirdParty/STM32F4xx_HAL_Driver/Src/stm32f4xx_hal_i2c.c:638:18
	ldr	r0, [r0, #64]
.Ltmp52:
	.loc	7 638 12                        @ ../ThirdParty/STM32F4xx_HAL_Driver/Src/stm32f4xx_hal_i2c.c:638:12
	cmp	r0, #4
	bne	.LBB4_25
	b	.LBB4_24
.LBB4_24:
.Ltmp53:
	.loc	7 641 11 is_stmt 1              @ ../ThirdParty/STM32F4xx_HAL_Driver/Src/stm32f4xx_hal_i2c.c:641:11
	ldr	r0, [sp, #24]
	.loc	7 641 17 is_stmt 0              @ ../ThirdParty/STM32F4xx_HAL_Driver/Src/stm32f4xx_hal_i2c.c:641:17
	ldr	r1, [r0]
	.loc	7 641 31                        @ ../ThirdParty/STM32F4xx_HAL_Driver/Src/stm32f4xx_hal_i2c.c:641:31
	ldr	r0, [r1]
	orr	r0, r0, #512
	str	r0, [r1]
	movs	r0, #1
	.loc	7 642 11 is_stmt 1              @ ../ThirdParty/STM32F4xx_HAL_Driver/Src/stm32f4xx_hal_i2c.c:642:11
	strb.w	r0, [sp, #31]
	b	.LBB4_38
.Ltmp54:
.LBB4_25:
	.loc	7 0 11 is_stmt 0                @ ../ThirdParty/STM32F4xx_HAL_Driver/Src/stm32f4xx_hal_i2c.c:0:11
	movs	r0, #3
.Ltmp55:
	.loc	7 646 11 is_stmt 1              @ ../ThirdParty/STM32F4xx_HAL_Driver/Src/stm32f4xx_hal_i2c.c:646:11
	strb.w	r0, [sp, #31]
	b	.LBB4_38
.Ltmp56:
.LBB4_26:                               @   in Loop: Header=BB4_21 Depth=1
	.loc	7 651 30                        @ ../ThirdParty/STM32F4xx_HAL_Driver/Src/stm32f4xx_hal_i2c.c:651:30
	ldr	r2, [sp, #24]
	.loc	7 651 44 is_stmt 0              @ ../ThirdParty/STM32F4xx_HAL_Driver/Src/stm32f4xx_hal_i2c.c:651:44
	ldr	r0, [r2, #36]
	adds	r1, r0, #1
	str	r1, [r2, #36]
	.loc	7 651 29                        @ ../ThirdParty/STM32F4xx_HAL_Driver/Src/stm32f4xx_hal_i2c.c:651:29
	ldrb	r0, [r0]
	.loc	7 651 7                         @ ../ThirdParty/STM32F4xx_HAL_Driver/Src/stm32f4xx_hal_i2c.c:651:7
	ldr	r1, [sp, #24]
	.loc	7 651 13                        @ ../ThirdParty/STM32F4xx_HAL_Driver/Src/stm32f4xx_hal_i2c.c:651:13
	ldr	r1, [r1]
	.loc	7 651 26                        @ ../ThirdParty/STM32F4xx_HAL_Driver/Src/stm32f4xx_hal_i2c.c:651:26
	str	r0, [r1, #16]
	.loc	7 652 7 is_stmt 1               @ ../ThirdParty/STM32F4xx_HAL_Driver/Src/stm32f4xx_hal_i2c.c:652:7
	ldr	r1, [sp, #24]
	.loc	7 652 22 is_stmt 0              @ ../ThirdParty/STM32F4xx_HAL_Driver/Src/stm32f4xx_hal_i2c.c:652:22
	ldrh	r0, [r1, #42]
	subs	r0, #1
	strh	r0, [r1, #42]
	.loc	7 653 7 is_stmt 1               @ ../ThirdParty/STM32F4xx_HAL_Driver/Src/stm32f4xx_hal_i2c.c:653:7
	ldr	r1, [sp, #24]
	.loc	7 653 21 is_stmt 0              @ ../ThirdParty/STM32F4xx_HAL_Driver/Src/stm32f4xx_hal_i2c.c:653:21
	ldrh	r0, [r1, #40]
	subs	r0, #1
	strh	r0, [r1, #40]
.Ltmp57:
	.loc	7 655 11 is_stmt 1              @ ../ThirdParty/STM32F4xx_HAL_Driver/Src/stm32f4xx_hal_i2c.c:655:11
	ldr	r0, [sp, #24]
	ldr	r0, [r0]
	ldr	r0, [r0, #20]
	and	r1, r0, #4
	movs	r0, #1
	.loc	7 655 58 is_stmt 0              @ ../ThirdParty/STM32F4xx_HAL_Driver/Src/stm32f4xx_hal_i2c.c:655:58
	cmp.w	r0, r1, lsr #2
	bne	.LBB4_29
	b	.LBB4_27
.LBB4_27:                               @   in Loop: Header=BB4_21 Depth=1
	.loc	7 655 62                        @ ../ThirdParty/STM32F4xx_HAL_Driver/Src/stm32f4xx_hal_i2c.c:655:62
	ldr	r0, [sp, #24]
	.loc	7 655 68                        @ ../ThirdParty/STM32F4xx_HAL_Driver/Src/stm32f4xx_hal_i2c.c:655:68
	ldrh	r0, [r0, #40]
.Ltmp58:
	.loc	7 655 10                        @ ../ThirdParty/STM32F4xx_HAL_Driver/Src/stm32f4xx_hal_i2c.c:655:10
	cbz	r0, .LBB4_29
	b	.LBB4_28
.LBB4_28:                               @   in Loop: Header=BB4_21 Depth=1
.Ltmp59:
	.loc	7 658 32 is_stmt 1              @ ../ThirdParty/STM32F4xx_HAL_Driver/Src/stm32f4xx_hal_i2c.c:658:32
	ldr	r2, [sp, #24]
	.loc	7 658 46 is_stmt 0              @ ../ThirdParty/STM32F4xx_HAL_Driver/Src/stm32f4xx_hal_i2c.c:658:46
	ldr	r0, [r2, #36]
	adds	r1, r0, #1
	str	r1, [r2, #36]
	.loc	7 658 31                        @ ../ThirdParty/STM32F4xx_HAL_Driver/Src/stm32f4xx_hal_i2c.c:658:31
	ldrb	r0, [r0]
	.loc	7 658 9                         @ ../ThirdParty/STM32F4xx_HAL_Driver/Src/stm32f4xx_hal_i2c.c:658:9
	ldr	r1, [sp, #24]
	.loc	7 658 15                        @ ../ThirdParty/STM32F4xx_HAL_Driver/Src/stm32f4xx_hal_i2c.c:658:15
	ldr	r1, [r1]
	.loc	7 658 28                        @ ../ThirdParty/STM32F4xx_HAL_Driver/Src/stm32f4xx_hal_i2c.c:658:28
	str	r0, [r1, #16]
	.loc	7 659 9 is_stmt 1               @ ../ThirdParty/STM32F4xx_HAL_Driver/Src/stm32f4xx_hal_i2c.c:659:9
	ldr	r1, [sp, #24]
	.loc	7 659 24 is_stmt 0              @ ../ThirdParty/STM32F4xx_HAL_Driver/Src/stm32f4xx_hal_i2c.c:659:24
	ldrh	r0, [r1, #42]
	subs	r0, #1
	strh	r0, [r1, #42]
	.loc	7 660 9 is_stmt 1               @ ../ThirdParty/STM32F4xx_HAL_Driver/Src/stm32f4xx_hal_i2c.c:660:9
	ldr	r1, [sp, #24]
	.loc	7 660 23 is_stmt 0              @ ../ThirdParty/STM32F4xx_HAL_Driver/Src/stm32f4xx_hal_i2c.c:660:23
	ldrh	r0, [r1, #40]
	subs	r0, #1
	strh	r0, [r1, #40]
	.loc	7 661 7 is_stmt 1               @ ../ThirdParty/STM32F4xx_HAL_Driver/Src/stm32f4xx_hal_i2c.c:661:7
	b	.LBB4_29
.Ltmp60:
.LBB4_29:                               @   in Loop: Header=BB4_21 Depth=1
	.loc	7 664 40                        @ ../ThirdParty/STM32F4xx_HAL_Driver/Src/stm32f4xx_hal_i2c.c:664:40
	ldr	r0, [sp, #24]
	.loc	7 664 46 is_stmt 0              @ ../ThirdParty/STM32F4xx_HAL_Driver/Src/stm32f4xx_hal_i2c.c:664:46
	ldr	r1, [sp, #40]
	.loc	7 664 55                        @ ../ThirdParty/STM32F4xx_HAL_Driver/Src/stm32f4xx_hal_i2c.c:664:55
	ldr	r2, [sp, #8]
	.loc	7 664 10                        @ ../ThirdParty/STM32F4xx_HAL_Driver/Src/stm32f4xx_hal_i2c.c:664:10
	bl	I2C_WaitOnBTFFlagUntilTimeout
.Ltmp61:
	.loc	7 664 10                        @ ../ThirdParty/STM32F4xx_HAL_Driver/Src/stm32f4xx_hal_i2c.c:664:10
	cbz	r0, .LBB4_33
	b	.LBB4_30
.LBB4_30:
.Ltmp62:
	.loc	7 666 12 is_stmt 1              @ ../ThirdParty/STM32F4xx_HAL_Driver/Src/stm32f4xx_hal_i2c.c:666:12
	ldr	r0, [sp, #24]
	.loc	7 666 18 is_stmt 0              @ ../ThirdParty/STM32F4xx_HAL_Driver/Src/stm32f4xx_hal_i2c.c:666:18
	ldr	r0, [r0, #64]
.Ltmp63:
	.loc	7 666 12                        @ ../ThirdParty/STM32F4xx_HAL_Driver/Src/stm32f4xx_hal_i2c.c:666:12
	cmp	r0, #4
	bne	.LBB4_32
	b	.LBB4_31
.LBB4_31:
.Ltmp64:
	.loc	7 669 11 is_stmt 1              @ ../ThirdParty/STM32F4xx_HAL_Driver/Src/stm32f4xx_hal_i2c.c:669:11
	ldr	r0, [sp, #24]
	.loc	7 669 17 is_stmt 0              @ ../ThirdParty/STM32F4xx_HAL_Driver/Src/stm32f4xx_hal_i2c.c:669:17
	ldr	r1, [r0]
	.loc	7 669 31                        @ ../ThirdParty/STM32F4xx_HAL_Driver/Src/stm32f4xx_hal_i2c.c:669:31
	ldr	r0, [r1]
	orr	r0, r0, #512
	str	r0, [r1]
	movs	r0, #1
	.loc	7 670 11 is_stmt 1              @ ../ThirdParty/STM32F4xx_HAL_Driver/Src/stm32f4xx_hal_i2c.c:670:11
	strb.w	r0, [sp, #31]
	b	.LBB4_38
.Ltmp65:
.LBB4_32:
	.loc	7 0 11 is_stmt 0                @ ../ThirdParty/STM32F4xx_HAL_Driver/Src/stm32f4xx_hal_i2c.c:0:11
	movs	r0, #3
.Ltmp66:
	.loc	7 674 11 is_stmt 1              @ ../ThirdParty/STM32F4xx_HAL_Driver/Src/stm32f4xx_hal_i2c.c:674:11
	strb.w	r0, [sp, #31]
	b	.LBB4_38
.Ltmp67:
.LBB4_33:                               @   in Loop: Header=BB4_21 Depth=1
	.loc	7 633 5                         @ ../ThirdParty/STM32F4xx_HAL_Driver/Src/stm32f4xx_hal_i2c.c:633:5
	b	.LBB4_21
.LBB4_34:
	.loc	7 680 5                         @ ../ThirdParty/STM32F4xx_HAL_Driver/Src/stm32f4xx_hal_i2c.c:680:5
	ldr	r0, [sp, #24]
	.loc	7 680 11 is_stmt 0              @ ../ThirdParty/STM32F4xx_HAL_Driver/Src/stm32f4xx_hal_i2c.c:680:11
	ldr	r1, [r0]
	.loc	7 680 25                        @ ../ThirdParty/STM32F4xx_HAL_Driver/Src/stm32f4xx_hal_i2c.c:680:25
	ldr	r0, [r1]
	orr	r0, r0, #512
	str	r0, [r1]
	.loc	7 682 5 is_stmt 1               @ ../ThirdParty/STM32F4xx_HAL_Driver/Src/stm32f4xx_hal_i2c.c:682:5
	ldr	r1, [sp, #24]
	movs	r0, #32
	.loc	7 682 17 is_stmt 0              @ ../ThirdParty/STM32F4xx_HAL_Driver/Src/stm32f4xx_hal_i2c.c:682:17
	strb.w	r0, [r1, #61]
	.loc	7 683 5 is_stmt 1               @ ../ThirdParty/STM32F4xx_HAL_Driver/Src/stm32f4xx_hal_i2c.c:683:5
	ldr	r1, [sp, #24]
	movs	r0, #0
	.loc	7 683 16 is_stmt 0              @ ../ThirdParty/STM32F4xx_HAL_Driver/Src/stm32f4xx_hal_i2c.c:683:16
	strb.w	r0, [r1, #62]
	.loc	7 686 5 is_stmt 1               @ ../ThirdParty/STM32F4xx_HAL_Driver/Src/stm32f4xx_hal_i2c.c:686:5
	b	.LBB4_35
.LBB4_35:
.Ltmp68:
	.loc	7 686 5 is_stmt 0               @ ../ThirdParty/STM32F4xx_HAL_Driver/Src/stm32f4xx_hal_i2c.c:686:5
	ldr	r1, [sp, #24]
	movs	r0, #0
	strb.w	r0, [r1, #60]
	b	.LBB4_36
.Ltmp69:
.LBB4_36:
	.loc	7 0 5                           @ ../ThirdParty/STM32F4xx_HAL_Driver/Src/stm32f4xx_hal_i2c.c:0:5
	movs	r0, #0
	.loc	7 688 5 is_stmt 1               @ ../ThirdParty/STM32F4xx_HAL_Driver/Src/stm32f4xx_hal_i2c.c:688:5
	strb.w	r0, [sp, #31]
	b	.LBB4_38
.Ltmp70:
.LBB4_37:
	.loc	7 0 5 is_stmt 0                 @ ../ThirdParty/STM32F4xx_HAL_Driver/Src/stm32f4xx_hal_i2c.c:0:5
	movs	r0, #2
.Ltmp71:
	.loc	7 692 5 is_stmt 1               @ ../ThirdParty/STM32F4xx_HAL_Driver/Src/stm32f4xx_hal_i2c.c:692:5
	strb.w	r0, [sp, #31]
	b	.LBB4_38
.Ltmp72:
.LBB4_38:
	.loc	7 694 1                         @ ../ThirdParty/STM32F4xx_HAL_Driver/Src/stm32f4xx_hal_i2c.c:694:1
	ldrb.w	r0, [sp, #31]
	.loc	7 694 1 epilogue_begin is_stmt 0 @ ../ThirdParty/STM32F4xx_HAL_Driver/Src/stm32f4xx_hal_i2c.c:694:1
	add	sp, #32
	pop	{r7, pc}
.Ltmp73:
.Lfunc_end4:
	.size	HAL_I2C_Master_Transmit, .Lfunc_end4-HAL_I2C_Master_Transmit
	.cfi_endproc
	.cantunwind
	.fnend
                                        @ -- End function
	.section	.text.I2C_WaitOnFlagUntilTimeout,"ax",%progbits
	.p2align	2                               @ -- Begin function I2C_WaitOnFlagUntilTimeout
	.type	I2C_WaitOnFlagUntilTimeout,%function
	.code	16                              @ @I2C_WaitOnFlagUntilTimeout
	.thumb_func
I2C_WaitOnFlagUntilTimeout:
.Lfunc_begin5:
	.loc	7 5231 0 is_stmt 1              @ ../ThirdParty/STM32F4xx_HAL_Driver/Src/stm32f4xx_hal_i2c.c:5231:0
	.fnstart
	.cfi_startproc
@ %bb.0:
	.save	{r7, lr}
	push	{r7, lr}
	.cfi_def_cfa_offset 8
	.cfi_offset lr, -4
	.cfi_offset r7, -8
	.pad	#24
	sub	sp, #24
	.cfi_def_cfa_offset 32
	ldr.w	r12, [sp, #32]
                                        @ kill: def $r12 killed $r2
	str	r0, [sp, #16]
	str	r1, [sp, #12]
	strb.w	r2, [sp, #11]
	str	r3, [sp, #4]
.Ltmp74:
	.loc	7 5233 3 prologue_end           @ ../ThirdParty/STM32F4xx_HAL_Driver/Src/stm32f4xx_hal_i2c.c:5233:3
	b	.LBB5_1
.LBB5_1:                                @ =>This Inner Loop Header: Depth=1
	.loc	7 5233 10 is_stmt 0             @ ../ThirdParty/STM32F4xx_HAL_Driver/Src/stm32f4xx_hal_i2c.c:5233:10
	ldrb.w	r0, [sp, #14]
	cmp	r0, #1
	bne	.LBB5_3
	b	.LBB5_2
.LBB5_2:                                @   in Loop: Header=BB5_1 Depth=1
	ldr	r0, [sp, #16]
	ldr	r0, [r0]
	ldr	r0, [r0, #20]
	ldrh.w	r1, [sp, #12]
	ands	r0, r1
	subs	r0, r0, r1
	clz	r0, r0
	lsrs	r0, r0, #5
	str	r0, [sp]                        @ 4-byte Spill
	b	.LBB5_4
.LBB5_3:                                @   in Loop: Header=BB5_1 Depth=1
	ldr	r0, [sp, #16]
	ldr	r0, [r0]
	ldr	r0, [r0, #24]
	ldrh.w	r1, [sp, #12]
	ands	r0, r1
	subs	r0, r0, r1
	clz	r0, r0
	lsrs	r0, r0, #5
	str	r0, [sp]                        @ 4-byte Spill
	b	.LBB5_4
.LBB5_4:                                @   in Loop: Header=BB5_1 Depth=1
	ldr	r0, [sp]                        @ 4-byte Reload
	cmp	r0, #0
	it	ne
	movne	r0, #1
	.loc	7 5233 59                       @ ../ThirdParty/STM32F4xx_HAL_Driver/Src/stm32f4xx_hal_i2c.c:5233:59
	ldrb.w	r1, [sp, #11]
	.loc	7 5233 3                        @ ../ThirdParty/STM32F4xx_HAL_Driver/Src/stm32f4xx_hal_i2c.c:5233:3
	cmp	r0, r1
	bne	.LBB5_13
	b	.LBB5_5
.LBB5_5:                                @   in Loop: Header=BB5_1 Depth=1
.Ltmp75:
	.loc	7 5236 8 is_stmt 1              @ ../ThirdParty/STM32F4xx_HAL_Driver/Src/stm32f4xx_hal_i2c.c:5236:8
	ldr	r0, [sp, #4]
.Ltmp76:
	.loc	7 5236 8 is_stmt 0              @ ../ThirdParty/STM32F4xx_HAL_Driver/Src/stm32f4xx_hal_i2c.c:5236:8
	adds	r0, #1
	cbz	r0, .LBB5_12
	b	.LBB5_6
.LBB5_6:                                @   in Loop: Header=BB5_1 Depth=1
.Ltmp77:
	.loc	7 5238 11 is_stmt 1             @ ../ThirdParty/STM32F4xx_HAL_Driver/Src/stm32f4xx_hal_i2c.c:5238:11
	ldr	r0, [sp, #4]
	.loc	7 5238 25 is_stmt 0             @ ../ThirdParty/STM32F4xx_HAL_Driver/Src/stm32f4xx_hal_i2c.c:5238:25
	cbz	r0, .LBB5_8
	b	.LBB5_7
.LBB5_7:                                @   in Loop: Header=BB5_1 Depth=1
	.loc	7 5238 29                       @ ../ThirdParty/STM32F4xx_HAL_Driver/Src/stm32f4xx_hal_i2c.c:5238:29
	bl	HAL_GetTick
	.loc	7 5238 45                       @ ../ThirdParty/STM32F4xx_HAL_Driver/Src/stm32f4xx_hal_i2c.c:5238:45
	ldr	r1, [sp, #32]
	.loc	7 5238 43                       @ ../ThirdParty/STM32F4xx_HAL_Driver/Src/stm32f4xx_hal_i2c.c:5238:43
	subs	r0, r0, r1
	.loc	7 5238 59                       @ ../ThirdParty/STM32F4xx_HAL_Driver/Src/stm32f4xx_hal_i2c.c:5238:59
	ldr	r1, [sp, #4]
.Ltmp78:
	.loc	7 5238 10                       @ ../ThirdParty/STM32F4xx_HAL_Driver/Src/stm32f4xx_hal_i2c.c:5238:10
	cmp	r0, r1
	bls	.LBB5_11
	b	.LBB5_8
.LBB5_8:
.Ltmp79:
	.loc	7 5240 9 is_stmt 1              @ ../ThirdParty/STM32F4xx_HAL_Driver/Src/stm32f4xx_hal_i2c.c:5240:9
	ldr	r1, [sp, #16]
	movs	r0, #0
	.loc	7 5240 29 is_stmt 0             @ ../ThirdParty/STM32F4xx_HAL_Driver/Src/stm32f4xx_hal_i2c.c:5240:29
	str	r0, [r1, #48]
	.loc	7 5241 9 is_stmt 1              @ ../ThirdParty/STM32F4xx_HAL_Driver/Src/stm32f4xx_hal_i2c.c:5241:9
	ldr	r2, [sp, #16]
	movs	r1, #32
	.loc	7 5241 20 is_stmt 0             @ ../ThirdParty/STM32F4xx_HAL_Driver/Src/stm32f4xx_hal_i2c.c:5241:20
	strb.w	r1, [r2, #61]
	.loc	7 5242 9 is_stmt 1              @ ../ThirdParty/STM32F4xx_HAL_Driver/Src/stm32f4xx_hal_i2c.c:5242:9
	ldr	r1, [sp, #16]
	.loc	7 5242 20 is_stmt 0             @ ../ThirdParty/STM32F4xx_HAL_Driver/Src/stm32f4xx_hal_i2c.c:5242:20
	strb.w	r0, [r1, #62]
	.loc	7 5245 9 is_stmt 1              @ ../ThirdParty/STM32F4xx_HAL_Driver/Src/stm32f4xx_hal_i2c.c:5245:9
	b	.LBB5_9
.LBB5_9:
.Ltmp80:
	.loc	7 5245 9 is_stmt 0              @ ../ThirdParty/STM32F4xx_HAL_Driver/Src/stm32f4xx_hal_i2c.c:5245:9
	ldr	r1, [sp, #16]
	movs	r0, #0
	strb.w	r0, [r1, #60]
	b	.LBB5_10
.Ltmp81:
.LBB5_10:
	.loc	7 0 9                           @ ../ThirdParty/STM32F4xx_HAL_Driver/Src/stm32f4xx_hal_i2c.c:0:9
	movs	r0, #3
	.loc	7 5247 9 is_stmt 1              @ ../ThirdParty/STM32F4xx_HAL_Driver/Src/stm32f4xx_hal_i2c.c:5247:9
	strb.w	r0, [sp, #23]
	b	.LBB5_14
.Ltmp82:
.LBB5_11:                               @   in Loop: Header=BB5_1 Depth=1
	.loc	7 5249 5                        @ ../ThirdParty/STM32F4xx_HAL_Driver/Src/stm32f4xx_hal_i2c.c:5249:5
	b	.LBB5_12
.Ltmp83:
.LBB5_12:                               @   in Loop: Header=BB5_1 Depth=1
	.loc	7 5233 3                        @ ../ThirdParty/STM32F4xx_HAL_Driver/Src/stm32f4xx_hal_i2c.c:5233:3
	b	.LBB5_1
.LBB5_13:
	.loc	7 0 3 is_stmt 0                 @ ../ThirdParty/STM32F4xx_HAL_Driver/Src/stm32f4xx_hal_i2c.c:0:3
	movs	r0, #0
	.loc	7 5252 3 is_stmt 1              @ ../ThirdParty/STM32F4xx_HAL_Driver/Src/stm32f4xx_hal_i2c.c:5252:3
	strb.w	r0, [sp, #23]
	b	.LBB5_14
.LBB5_14:
	.loc	7 5253 1                        @ ../ThirdParty/STM32F4xx_HAL_Driver/Src/stm32f4xx_hal_i2c.c:5253:1
	ldrb.w	r0, [sp, #23]
	.loc	7 5253 1 epilogue_begin is_stmt 0 @ ../ThirdParty/STM32F4xx_HAL_Driver/Src/stm32f4xx_hal_i2c.c:5253:1
	add	sp, #24
	pop	{r7, pc}
.Ltmp84:
.Lfunc_end5:
	.size	I2C_WaitOnFlagUntilTimeout, .Lfunc_end5-I2C_WaitOnFlagUntilTimeout
	.cfi_endproc
	.cantunwind
	.fnend
                                        @ -- End function
	.section	.text.I2C_MasterRequestWrite,"ax",%progbits
	.p2align	2                               @ -- Begin function I2C_MasterRequestWrite
	.type	I2C_MasterRequestWrite,%function
	.code	16                              @ @I2C_MasterRequestWrite
	.thumb_func
I2C_MasterRequestWrite:
.Lfunc_begin6:
	.loc	7 4690 0 is_stmt 1              @ ../ThirdParty/STM32F4xx_HAL_Driver/Src/stm32f4xx_hal_i2c.c:4690:0
	.fnstart
	.cfi_startproc
@ %bb.0:
	.save	{r7, lr}
	push	{r7, lr}
	.cfi_def_cfa_offset 8
	.cfi_offset lr, -4
	.cfi_offset r7, -8
	.pad	#32
	sub	sp, #32
	.cfi_def_cfa_offset 40
                                        @ kill: def $r12 killed $r1
	str	r0, [sp, #24]
	strh.w	r1, [sp, #22]
	str	r2, [sp, #16]
	str	r3, [sp, #12]
.Ltmp85:
	.loc	7 4692 33 prologue_end          @ ../ThirdParty/STM32F4xx_HAL_Driver/Src/stm32f4xx_hal_i2c.c:4692:33
	ldr	r0, [sp, #24]
	.loc	7 4692 39 is_stmt 0             @ ../ThirdParty/STM32F4xx_HAL_Driver/Src/stm32f4xx_hal_i2c.c:4692:39
	ldr	r0, [r0, #44]
	.loc	7 4692 12                       @ ../ThirdParty/STM32F4xx_HAL_Driver/Src/stm32f4xx_hal_i2c.c:4692:12
	str	r0, [sp, #8]
.Ltmp86:
	.loc	7 4695 7 is_stmt 1              @ ../ThirdParty/STM32F4xx_HAL_Driver/Src/stm32f4xx_hal_i2c.c:4695:7
	ldr	r0, [sp, #8]
	.loc	7 4695 55 is_stmt 0             @ ../ThirdParty/STM32F4xx_HAL_Driver/Src/stm32f4xx_hal_i2c.c:4695:55
	cmp	r0, #4
	beq	.LBB6_3
	b	.LBB6_1
.LBB6_1:
	.loc	7 4695 59                       @ ../ThirdParty/STM32F4xx_HAL_Driver/Src/stm32f4xx_hal_i2c.c:4695:59
	ldr	r0, [sp, #8]
	.loc	7 4695 98                       @ ../ThirdParty/STM32F4xx_HAL_Driver/Src/stm32f4xx_hal_i2c.c:4695:98
	cmp	r0, #1
	beq	.LBB6_3
	b	.LBB6_2
.LBB6_2:
	.loc	7 4695 102                      @ ../ThirdParty/STM32F4xx_HAL_Driver/Src/stm32f4xx_hal_i2c.c:4695:102
	ldr	r0, [sp, #8]
.Ltmp87:
	.loc	7 4695 6                        @ ../ThirdParty/STM32F4xx_HAL_Driver/Src/stm32f4xx_hal_i2c.c:4695:6
	cmn.w	r0, #65536
	bne	.LBB6_4
	b	.LBB6_3
.LBB6_3:
.Ltmp88:
	.loc	7 4698 5 is_stmt 1              @ ../ThirdParty/STM32F4xx_HAL_Driver/Src/stm32f4xx_hal_i2c.c:4698:5
	ldr	r0, [sp, #24]
	.loc	7 4698 11 is_stmt 0             @ ../ThirdParty/STM32F4xx_HAL_Driver/Src/stm32f4xx_hal_i2c.c:4698:11
	ldr	r1, [r0]
	.loc	7 4698 25                       @ ../ThirdParty/STM32F4xx_HAL_Driver/Src/stm32f4xx_hal_i2c.c:4698:25
	ldr	r0, [r1]
	orr	r0, r0, #256
	str	r0, [r1]
	.loc	7 4699 3 is_stmt 1              @ ../ThirdParty/STM32F4xx_HAL_Driver/Src/stm32f4xx_hal_i2c.c:4699:3
	b	.LBB6_7
.Ltmp89:
.LBB6_4:
	.loc	7 4700 11                       @ ../ThirdParty/STM32F4xx_HAL_Driver/Src/stm32f4xx_hal_i2c.c:4700:11
	ldr	r0, [sp, #24]
	.loc	7 4700 17 is_stmt 0             @ ../ThirdParty/STM32F4xx_HAL_Driver/Src/stm32f4xx_hal_i2c.c:4700:17
	ldr	r0, [r0, #48]
.Ltmp90:
	.loc	7 4700 11                       @ ../ThirdParty/STM32F4xx_HAL_Driver/Src/stm32f4xx_hal_i2c.c:4700:11
	cmp	r0, #18
	bne	.LBB6_6
	b	.LBB6_5
.LBB6_5:
.Ltmp91:
	.loc	7 4703 5 is_stmt 1              @ ../ThirdParty/STM32F4xx_HAL_Driver/Src/stm32f4xx_hal_i2c.c:4703:5
	ldr	r0, [sp, #24]
	.loc	7 4703 11 is_stmt 0             @ ../ThirdParty/STM32F4xx_HAL_Driver/Src/stm32f4xx_hal_i2c.c:4703:11
	ldr	r1, [r0]
	.loc	7 4703 25                       @ ../ThirdParty/STM32F4xx_HAL_Driver/Src/stm32f4xx_hal_i2c.c:4703:25
	ldr	r0, [r1]
	orr	r0, r0, #256
	str	r0, [r1]
	.loc	7 4704 3 is_stmt 1              @ ../ThirdParty/STM32F4xx_HAL_Driver/Src/stm32f4xx_hal_i2c.c:4704:3
	b	.LBB6_6
.Ltmp92:
.LBB6_6:
	.loc	7 0 3 is_stmt 0                 @ ../ThirdParty/STM32F4xx_HAL_Driver/Src/stm32f4xx_hal_i2c.c:0:3
	b	.LBB6_7
.LBB6_7:
.Ltmp93:
	.loc	7 4707 33 is_stmt 1             @ ../ThirdParty/STM32F4xx_HAL_Driver/Src/stm32f4xx_hal_i2c.c:4707:33
	ldr	r0, [sp, #24]
	.loc	7 4707 59 is_stmt 0             @ ../ThirdParty/STM32F4xx_HAL_Driver/Src/stm32f4xx_hal_i2c.c:4707:59
	ldr	r3, [sp, #16]
	.loc	7 4707 68                       @ ../ThirdParty/STM32F4xx_HAL_Driver/Src/stm32f4xx_hal_i2c.c:4707:68
	ldr	r1, [sp, #12]
	.loc	7 4707 6                        @ ../ThirdParty/STM32F4xx_HAL_Driver/Src/stm32f4xx_hal_i2c.c:4707:6
	mov	r2, sp
	str	r1, [r2]
	mov.w	r1, #65537
	movs	r2, #0
	bl	I2C_WaitOnFlagUntilTimeout
.Ltmp94:
	.loc	7 4707 6                        @ ../ThirdParty/STM32F4xx_HAL_Driver/Src/stm32f4xx_hal_i2c.c:4707:6
	cbz	r0, .LBB6_9
	b	.LBB6_8
.LBB6_8:
	.loc	7 0 6                           @ ../ThirdParty/STM32F4xx_HAL_Driver/Src/stm32f4xx_hal_i2c.c:0:6
	movs	r0, #3
.Ltmp95:
	.loc	7 4709 5 is_stmt 1              @ ../ThirdParty/STM32F4xx_HAL_Driver/Src/stm32f4xx_hal_i2c.c:4709:5
	strb.w	r0, [sp, #31]
	b	.LBB6_21
.Ltmp96:
.LBB6_9:
	.loc	7 4712 6                        @ ../ThirdParty/STM32F4xx_HAL_Driver/Src/stm32f4xx_hal_i2c.c:4712:6
	ldr	r0, [sp, #24]
	.loc	7 4712 17 is_stmt 0             @ ../ThirdParty/STM32F4xx_HAL_Driver/Src/stm32f4xx_hal_i2c.c:4712:17
	ldr	r0, [r0, #16]
.Ltmp97:
	.loc	7 4712 6                        @ ../ThirdParty/STM32F4xx_HAL_Driver/Src/stm32f4xx_hal_i2c.c:4712:6
	cmp.w	r0, #16384
	bne	.LBB6_11
	b	.LBB6_10
.LBB6_10:
.Ltmp98:
	.loc	7 4715 26 is_stmt 1             @ ../ThirdParty/STM32F4xx_HAL_Driver/Src/stm32f4xx_hal_i2c.c:4715:26
	ldrh.w	r0, [sp, #22]
	and	r0, r0, #254
	.loc	7 4715 5 is_stmt 0              @ ../ThirdParty/STM32F4xx_HAL_Driver/Src/stm32f4xx_hal_i2c.c:4715:5
	ldr	r1, [sp, #24]
	.loc	7 4715 11                       @ ../ThirdParty/STM32F4xx_HAL_Driver/Src/stm32f4xx_hal_i2c.c:4715:11
	ldr	r1, [r1]
	.loc	7 4715 24                       @ ../ThirdParty/STM32F4xx_HAL_Driver/Src/stm32f4xx_hal_i2c.c:4715:24
	str	r0, [r1, #16]
	.loc	7 4716 3 is_stmt 1              @ ../ThirdParty/STM32F4xx_HAL_Driver/Src/stm32f4xx_hal_i2c.c:4716:3
	b	.LBB6_16
.Ltmp99:
.LBB6_11:
	.loc	7 4720 26                       @ ../ThirdParty/STM32F4xx_HAL_Driver/Src/stm32f4xx_hal_i2c.c:4720:26
	ldrh.w	r0, [sp, #22]
	and	r0, r0, #768
	lsrs	r0, r0, #7
	adds	r0, #240
	.loc	7 4720 5 is_stmt 0              @ ../ThirdParty/STM32F4xx_HAL_Driver/Src/stm32f4xx_hal_i2c.c:4720:5
	ldr	r1, [sp, #24]
	.loc	7 4720 11                       @ ../ThirdParty/STM32F4xx_HAL_Driver/Src/stm32f4xx_hal_i2c.c:4720:11
	ldr	r1, [r1]
	.loc	7 4720 24                       @ ../ThirdParty/STM32F4xx_HAL_Driver/Src/stm32f4xx_hal_i2c.c:4720:24
	str	r0, [r1, #16]
.Ltmp100:
	.loc	7 4723 48 is_stmt 1             @ ../ThirdParty/STM32F4xx_HAL_Driver/Src/stm32f4xx_hal_i2c.c:4723:48
	ldr	r0, [sp, #24]
	.loc	7 4723 70 is_stmt 0             @ ../ThirdParty/STM32F4xx_HAL_Driver/Src/stm32f4xx_hal_i2c.c:4723:70
	ldr	r2, [sp, #16]
	.loc	7 4723 79                       @ ../ThirdParty/STM32F4xx_HAL_Driver/Src/stm32f4xx_hal_i2c.c:4723:79
	ldr	r3, [sp, #12]
	movs	r1, #8
	movt	r1, #1
	.loc	7 4723 8                        @ ../ThirdParty/STM32F4xx_HAL_Driver/Src/stm32f4xx_hal_i2c.c:4723:8
	bl	I2C_WaitOnMasterAddressFlagUntilTimeout
.Ltmp101:
	.loc	7 4723 8                        @ ../ThirdParty/STM32F4xx_HAL_Driver/Src/stm32f4xx_hal_i2c.c:4723:8
	cbz	r0, .LBB6_15
	b	.LBB6_12
.LBB6_12:
.Ltmp102:
	.loc	7 4725 10 is_stmt 1             @ ../ThirdParty/STM32F4xx_HAL_Driver/Src/stm32f4xx_hal_i2c.c:4725:10
	ldr	r0, [sp, #24]
	.loc	7 4725 16 is_stmt 0             @ ../ThirdParty/STM32F4xx_HAL_Driver/Src/stm32f4xx_hal_i2c.c:4725:16
	ldr	r0, [r0, #64]
.Ltmp103:
	.loc	7 4725 10                       @ ../ThirdParty/STM32F4xx_HAL_Driver/Src/stm32f4xx_hal_i2c.c:4725:10
	cmp	r0, #4
	bne	.LBB6_14
	b	.LBB6_13
.LBB6_13:
	.loc	7 0 10                          @ ../ThirdParty/STM32F4xx_HAL_Driver/Src/stm32f4xx_hal_i2c.c:0:10
	movs	r0, #1
.Ltmp104:
	.loc	7 4727 9 is_stmt 1              @ ../ThirdParty/STM32F4xx_HAL_Driver/Src/stm32f4xx_hal_i2c.c:4727:9
	strb.w	r0, [sp, #31]
	b	.LBB6_21
.Ltmp105:
.LBB6_14:
	.loc	7 0 9 is_stmt 0                 @ ../ThirdParty/STM32F4xx_HAL_Driver/Src/stm32f4xx_hal_i2c.c:0:9
	movs	r0, #3
.Ltmp106:
	.loc	7 4731 9 is_stmt 1              @ ../ThirdParty/STM32F4xx_HAL_Driver/Src/stm32f4xx_hal_i2c.c:4731:9
	strb.w	r0, [sp, #31]
	b	.LBB6_21
.Ltmp107:
.LBB6_15:
	.loc	7 4736 26                       @ ../ThirdParty/STM32F4xx_HAL_Driver/Src/stm32f4xx_hal_i2c.c:4736:26
	ldrb.w	r0, [sp, #22]
	.loc	7 4736 5 is_stmt 0              @ ../ThirdParty/STM32F4xx_HAL_Driver/Src/stm32f4xx_hal_i2c.c:4736:5
	ldr	r1, [sp, #24]
	.loc	7 4736 11                       @ ../ThirdParty/STM32F4xx_HAL_Driver/Src/stm32f4xx_hal_i2c.c:4736:11
	ldr	r1, [r1]
	.loc	7 4736 24                       @ ../ThirdParty/STM32F4xx_HAL_Driver/Src/stm32f4xx_hal_i2c.c:4736:24
	str	r0, [r1, #16]
	b	.LBB6_16
.Ltmp108:
.LBB6_16:
	.loc	7 4740 46 is_stmt 1             @ ../ThirdParty/STM32F4xx_HAL_Driver/Src/stm32f4xx_hal_i2c.c:4740:46
	ldr	r0, [sp, #24]
	.loc	7 4740 67 is_stmt 0             @ ../ThirdParty/STM32F4xx_HAL_Driver/Src/stm32f4xx_hal_i2c.c:4740:67
	ldr	r2, [sp, #16]
	.loc	7 4740 76                       @ ../ThirdParty/STM32F4xx_HAL_Driver/Src/stm32f4xx_hal_i2c.c:4740:76
	ldr	r3, [sp, #12]
	movs	r1, #2
	movt	r1, #1
	.loc	7 4740 6                        @ ../ThirdParty/STM32F4xx_HAL_Driver/Src/stm32f4xx_hal_i2c.c:4740:6
	bl	I2C_WaitOnMasterAddressFlagUntilTimeout
.Ltmp109:
	.loc	7 4740 6                        @ ../ThirdParty/STM32F4xx_HAL_Driver/Src/stm32f4xx_hal_i2c.c:4740:6
	cbz	r0, .LBB6_20
	b	.LBB6_17
.LBB6_17:
.Ltmp110:
	.loc	7 4742 8 is_stmt 1              @ ../ThirdParty/STM32F4xx_HAL_Driver/Src/stm32f4xx_hal_i2c.c:4742:8
	ldr	r0, [sp, #24]
	.loc	7 4742 14 is_stmt 0             @ ../ThirdParty/STM32F4xx_HAL_Driver/Src/stm32f4xx_hal_i2c.c:4742:14
	ldr	r0, [r0, #64]
.Ltmp111:
	.loc	7 4742 8                        @ ../ThirdParty/STM32F4xx_HAL_Driver/Src/stm32f4xx_hal_i2c.c:4742:8
	cmp	r0, #4
	bne	.LBB6_19
	b	.LBB6_18
.LBB6_18:
	.loc	7 0 8                           @ ../ThirdParty/STM32F4xx_HAL_Driver/Src/stm32f4xx_hal_i2c.c:0:8
	movs	r0, #1
.Ltmp112:
	.loc	7 4744 7 is_stmt 1              @ ../ThirdParty/STM32F4xx_HAL_Driver/Src/stm32f4xx_hal_i2c.c:4744:7
	strb.w	r0, [sp, #31]
	b	.LBB6_21
.Ltmp113:
.LBB6_19:
	.loc	7 0 7 is_stmt 0                 @ ../ThirdParty/STM32F4xx_HAL_Driver/Src/stm32f4xx_hal_i2c.c:0:7
	movs	r0, #3
.Ltmp114:
	.loc	7 4748 7 is_stmt 1              @ ../ThirdParty/STM32F4xx_HAL_Driver/Src/stm32f4xx_hal_i2c.c:4748:7
	strb.w	r0, [sp, #31]
	b	.LBB6_21
.Ltmp115:
.LBB6_20:
	.loc	7 0 7 is_stmt 0                 @ ../ThirdParty/STM32F4xx_HAL_Driver/Src/stm32f4xx_hal_i2c.c:0:7
	movs	r0, #0
	.loc	7 4752 3 is_stmt 1              @ ../ThirdParty/STM32F4xx_HAL_Driver/Src/stm32f4xx_hal_i2c.c:4752:3
	strb.w	r0, [sp, #31]
	b	.LBB6_21
.LBB6_21:
	.loc	7 4753 1                        @ ../ThirdParty/STM32F4xx_HAL_Driver/Src/stm32f4xx_hal_i2c.c:4753:1
	ldrb.w	r0, [sp, #31]
	.loc	7 4753 1 epilogue_begin is_stmt 0 @ ../ThirdParty/STM32F4xx_HAL_Driver/Src/stm32f4xx_hal_i2c.c:4753:1
	add	sp, #32
	pop	{r7, pc}
.Ltmp116:
.Lfunc_end6:
	.size	I2C_MasterRequestWrite, .Lfunc_end6-I2C_MasterRequestWrite
	.cfi_endproc
	.cantunwind
	.fnend
                                        @ -- End function
	.section	.text.I2C_WaitOnTXEFlagUntilTimeout,"ax",%progbits
	.p2align	2                               @ -- Begin function I2C_WaitOnTXEFlagUntilTimeout
	.type	I2C_WaitOnTXEFlagUntilTimeout,%function
	.code	16                              @ @I2C_WaitOnTXEFlagUntilTimeout
	.thumb_func
I2C_WaitOnTXEFlagUntilTimeout:
.Lfunc_begin7:
	.loc	7 5313 0 is_stmt 1              @ ../ThirdParty/STM32F4xx_HAL_Driver/Src/stm32f4xx_hal_i2c.c:5313:0
	.fnstart
	.cfi_startproc
@ %bb.0:
	.save	{r7, lr}
	push	{r7, lr}
	.cfi_def_cfa_offset 8
	.cfi_offset lr, -4
	.cfi_offset r7, -8
	.pad	#16
	sub	sp, #16
	.cfi_def_cfa_offset 24
	str	r0, [sp, #8]
	str	r1, [sp, #4]
	str	r2, [sp]
.Ltmp117:
	.loc	7 5314 3 prologue_end           @ ../ThirdParty/STM32F4xx_HAL_Driver/Src/stm32f4xx_hal_i2c.c:5314:3
	b	.LBB7_1
.LBB7_1:                                @ =>This Inner Loop Header: Depth=1
	.loc	7 5314 9 is_stmt 0              @ ../ThirdParty/STM32F4xx_HAL_Driver/Src/stm32f4xx_hal_i2c.c:5314:9
	ldr	r0, [sp, #8]
	ldr	r0, [r0]
	ldr	r0, [r0, #20]
	uxtb	r1, r0
	movs	r0, #0
	.loc	7 5314 3                        @ ../ThirdParty/STM32F4xx_HAL_Driver/Src/stm32f4xx_hal_i2c.c:5314:3
	cmp.w	r0, r1, lsr #7
	bne	.LBB7_12
	b	.LBB7_2
.LBB7_2:                                @   in Loop: Header=BB7_1 Depth=1
.Ltmp118:
	.loc	7 5317 32 is_stmt 1             @ ../ThirdParty/STM32F4xx_HAL_Driver/Src/stm32f4xx_hal_i2c.c:5317:32
	ldr	r0, [sp, #8]
	.loc	7 5317 8 is_stmt 0              @ ../ThirdParty/STM32F4xx_HAL_Driver/Src/stm32f4xx_hal_i2c.c:5317:8
	bl	I2C_IsAcknowledgeFailed
.Ltmp119:
	.loc	7 5317 8                        @ ../ThirdParty/STM32F4xx_HAL_Driver/Src/stm32f4xx_hal_i2c.c:5317:8
	cbz	r0, .LBB7_4
	b	.LBB7_3
.LBB7_3:
	.loc	7 0 8                           @ ../ThirdParty/STM32F4xx_HAL_Driver/Src/stm32f4xx_hal_i2c.c:0:8
	movs	r0, #1
.Ltmp120:
	.loc	7 5319 7 is_stmt 1              @ ../ThirdParty/STM32F4xx_HAL_Driver/Src/stm32f4xx_hal_i2c.c:5319:7
	strb.w	r0, [sp, #15]
	b	.LBB7_13
.Ltmp121:
.LBB7_4:                                @   in Loop: Header=BB7_1 Depth=1
	.loc	7 5323 8                        @ ../ThirdParty/STM32F4xx_HAL_Driver/Src/stm32f4xx_hal_i2c.c:5323:8
	ldr	r0, [sp, #4]
.Ltmp122:
	.loc	7 5323 8 is_stmt 0              @ ../ThirdParty/STM32F4xx_HAL_Driver/Src/stm32f4xx_hal_i2c.c:5323:8
	adds	r0, #1
	cbz	r0, .LBB7_11
	b	.LBB7_5
.LBB7_5:                                @   in Loop: Header=BB7_1 Depth=1
.Ltmp123:
	.loc	7 5325 11 is_stmt 1             @ ../ThirdParty/STM32F4xx_HAL_Driver/Src/stm32f4xx_hal_i2c.c:5325:11
	ldr	r0, [sp, #4]
	.loc	7 5325 26 is_stmt 0             @ ../ThirdParty/STM32F4xx_HAL_Driver/Src/stm32f4xx_hal_i2c.c:5325:26
	cbz	r0, .LBB7_7
	b	.LBB7_6
.LBB7_6:                                @   in Loop: Header=BB7_1 Depth=1
	.loc	7 5325 31                       @ ../ThirdParty/STM32F4xx_HAL_Driver/Src/stm32f4xx_hal_i2c.c:5325:31
	bl	HAL_GetTick
	.loc	7 5325 45                       @ ../ThirdParty/STM32F4xx_HAL_Driver/Src/stm32f4xx_hal_i2c.c:5325:45
	ldr	r1, [sp]
	.loc	7 5325 44                       @ ../ThirdParty/STM32F4xx_HAL_Driver/Src/stm32f4xx_hal_i2c.c:5325:44
	subs	r0, r0, r1
	.loc	7 5325 58                       @ ../ThirdParty/STM32F4xx_HAL_Driver/Src/stm32f4xx_hal_i2c.c:5325:58
	ldr	r1, [sp, #4]
.Ltmp124:
	.loc	7 5325 10                       @ ../ThirdParty/STM32F4xx_HAL_Driver/Src/stm32f4xx_hal_i2c.c:5325:10
	cmp	r0, r1
	bls	.LBB7_10
	b	.LBB7_7
.LBB7_7:
.Ltmp125:
	.loc	7 5327 9 is_stmt 1              @ ../ThirdParty/STM32F4xx_HAL_Driver/Src/stm32f4xx_hal_i2c.c:5327:9
	ldr	r1, [sp, #8]
	.loc	7 5327 25 is_stmt 0             @ ../ThirdParty/STM32F4xx_HAL_Driver/Src/stm32f4xx_hal_i2c.c:5327:25
	ldr	r0, [r1, #64]
	orr	r0, r0, #32
	str	r0, [r1, #64]
	.loc	7 5328 9 is_stmt 1              @ ../ThirdParty/STM32F4xx_HAL_Driver/Src/stm32f4xx_hal_i2c.c:5328:9
	ldr	r1, [sp, #8]
	movs	r0, #0
	.loc	7 5328 29 is_stmt 0             @ ../ThirdParty/STM32F4xx_HAL_Driver/Src/stm32f4xx_hal_i2c.c:5328:29
	str	r0, [r1, #48]
	.loc	7 5329 9 is_stmt 1              @ ../ThirdParty/STM32F4xx_HAL_Driver/Src/stm32f4xx_hal_i2c.c:5329:9
	ldr	r1, [sp, #8]
	movs	r0, #32
	.loc	7 5329 20 is_stmt 0             @ ../ThirdParty/STM32F4xx_HAL_Driver/Src/stm32f4xx_hal_i2c.c:5329:20
	strb.w	r0, [r1, #61]
	.loc	7 5332 9 is_stmt 1              @ ../ThirdParty/STM32F4xx_HAL_Driver/Src/stm32f4xx_hal_i2c.c:5332:9
	b	.LBB7_8
.LBB7_8:
.Ltmp126:
	.loc	7 5332 9 is_stmt 0              @ ../ThirdParty/STM32F4xx_HAL_Driver/Src/stm32f4xx_hal_i2c.c:5332:9
	ldr	r1, [sp, #8]
	movs	r0, #0
	strb.w	r0, [r1, #60]
	b	.LBB7_9
.Ltmp127:
.LBB7_9:
	.loc	7 0 9                           @ ../ThirdParty/STM32F4xx_HAL_Driver/Src/stm32f4xx_hal_i2c.c:0:9
	movs	r0, #3
	.loc	7 5334 9 is_stmt 1              @ ../ThirdParty/STM32F4xx_HAL_Driver/Src/stm32f4xx_hal_i2c.c:5334:9
	strb.w	r0, [sp, #15]
	b	.LBB7_13
.Ltmp128:
.LBB7_10:                               @   in Loop: Header=BB7_1 Depth=1
	.loc	7 5336 5                        @ ../ThirdParty/STM32F4xx_HAL_Driver/Src/stm32f4xx_hal_i2c.c:5336:5
	b	.LBB7_11
.Ltmp129:
.LBB7_11:                               @   in Loop: Header=BB7_1 Depth=1
	.loc	7 5314 3                        @ ../ThirdParty/STM32F4xx_HAL_Driver/Src/stm32f4xx_hal_i2c.c:5314:3
	b	.LBB7_1
.LBB7_12:
	.loc	7 0 3 is_stmt 0                 @ ../ThirdParty/STM32F4xx_HAL_Driver/Src/stm32f4xx_hal_i2c.c:0:3
	movs	r0, #0
	.loc	7 5338 3 is_stmt 1              @ ../ThirdParty/STM32F4xx_HAL_Driver/Src/stm32f4xx_hal_i2c.c:5338:3
	strb.w	r0, [sp, #15]
	b	.LBB7_13
.LBB7_13:
	.loc	7 5339 1                        @ ../ThirdParty/STM32F4xx_HAL_Driver/Src/stm32f4xx_hal_i2c.c:5339:1
	ldrb.w	r0, [sp, #15]
	.loc	7 5339 1 epilogue_begin is_stmt 0 @ ../ThirdParty/STM32F4xx_HAL_Driver/Src/stm32f4xx_hal_i2c.c:5339:1
	add	sp, #16
	pop	{r7, pc}
.Ltmp130:
.Lfunc_end7:
	.size	I2C_WaitOnTXEFlagUntilTimeout, .Lfunc_end7-I2C_WaitOnTXEFlagUntilTimeout
	.cfi_endproc
	.cantunwind
	.fnend
                                        @ -- End function
	.section	.text.I2C_WaitOnBTFFlagUntilTimeout,"ax",%progbits
	.p2align	2                               @ -- Begin function I2C_WaitOnBTFFlagUntilTimeout
	.type	I2C_WaitOnBTFFlagUntilTimeout,%function
	.code	16                              @ @I2C_WaitOnBTFFlagUntilTimeout
	.thumb_func
I2C_WaitOnBTFFlagUntilTimeout:
.Lfunc_begin8:
	.loc	7 5350 0 is_stmt 1              @ ../ThirdParty/STM32F4xx_HAL_Driver/Src/stm32f4xx_hal_i2c.c:5350:0
	.fnstart
	.cfi_startproc
@ %bb.0:
	.save	{r7, lr}
	push	{r7, lr}
	.cfi_def_cfa_offset 8
	.cfi_offset lr, -4
	.cfi_offset r7, -8
	.pad	#16
	sub	sp, #16
	.cfi_def_cfa_offset 24
	str	r0, [sp, #8]
	str	r1, [sp, #4]
	str	r2, [sp]
.Ltmp131:
	.loc	7 5351 3 prologue_end           @ ../ThirdParty/STM32F4xx_HAL_Driver/Src/stm32f4xx_hal_i2c.c:5351:3
	b	.LBB8_1
.LBB8_1:                                @ =>This Inner Loop Header: Depth=1
	.loc	7 5351 9 is_stmt 0              @ ../ThirdParty/STM32F4xx_HAL_Driver/Src/stm32f4xx_hal_i2c.c:5351:9
	ldr	r0, [sp, #8]
	ldr	r0, [r0]
	ldr	r0, [r0, #20]
	and	r1, r0, #4
	movs	r0, #0
	.loc	7 5351 3                        @ ../ThirdParty/STM32F4xx_HAL_Driver/Src/stm32f4xx_hal_i2c.c:5351:3
	cmp.w	r0, r1, lsr #2
	bne	.LBB8_12
	b	.LBB8_2
.LBB8_2:                                @   in Loop: Header=BB8_1 Depth=1
.Ltmp132:
	.loc	7 5354 32 is_stmt 1             @ ../ThirdParty/STM32F4xx_HAL_Driver/Src/stm32f4xx_hal_i2c.c:5354:32
	ldr	r0, [sp, #8]
	.loc	7 5354 8 is_stmt 0              @ ../ThirdParty/STM32F4xx_HAL_Driver/Src/stm32f4xx_hal_i2c.c:5354:8
	bl	I2C_IsAcknowledgeFailed
.Ltmp133:
	.loc	7 5354 8                        @ ../ThirdParty/STM32F4xx_HAL_Driver/Src/stm32f4xx_hal_i2c.c:5354:8
	cbz	r0, .LBB8_4
	b	.LBB8_3
.LBB8_3:
	.loc	7 0 8                           @ ../ThirdParty/STM32F4xx_HAL_Driver/Src/stm32f4xx_hal_i2c.c:0:8
	movs	r0, #1
.Ltmp134:
	.loc	7 5356 7 is_stmt 1              @ ../ThirdParty/STM32F4xx_HAL_Driver/Src/stm32f4xx_hal_i2c.c:5356:7
	strb.w	r0, [sp, #15]
	b	.LBB8_13
.Ltmp135:
.LBB8_4:                                @   in Loop: Header=BB8_1 Depth=1
	.loc	7 5360 8                        @ ../ThirdParty/STM32F4xx_HAL_Driver/Src/stm32f4xx_hal_i2c.c:5360:8
	ldr	r0, [sp, #4]
.Ltmp136:
	.loc	7 5360 8 is_stmt 0              @ ../ThirdParty/STM32F4xx_HAL_Driver/Src/stm32f4xx_hal_i2c.c:5360:8
	adds	r0, #1
	cbz	r0, .LBB8_11
	b	.LBB8_5
.LBB8_5:                                @   in Loop: Header=BB8_1 Depth=1
.Ltmp137:
	.loc	7 5362 11 is_stmt 1             @ ../ThirdParty/STM32F4xx_HAL_Driver/Src/stm32f4xx_hal_i2c.c:5362:11
	ldr	r0, [sp, #4]
	.loc	7 5362 26 is_stmt 0             @ ../ThirdParty/STM32F4xx_HAL_Driver/Src/stm32f4xx_hal_i2c.c:5362:26
	cbz	r0, .LBB8_7
	b	.LBB8_6
.LBB8_6:                                @   in Loop: Header=BB8_1 Depth=1
	.loc	7 5362 31                       @ ../ThirdParty/STM32F4xx_HAL_Driver/Src/stm32f4xx_hal_i2c.c:5362:31
	bl	HAL_GetTick
	.loc	7 5362 45                       @ ../ThirdParty/STM32F4xx_HAL_Driver/Src/stm32f4xx_hal_i2c.c:5362:45
	ldr	r1, [sp]
	.loc	7 5362 44                       @ ../ThirdParty/STM32F4xx_HAL_Driver/Src/stm32f4xx_hal_i2c.c:5362:44
	subs	r0, r0, r1
	.loc	7 5362 58                       @ ../ThirdParty/STM32F4xx_HAL_Driver/Src/stm32f4xx_hal_i2c.c:5362:58
	ldr	r1, [sp, #4]
.Ltmp138:
	.loc	7 5362 10                       @ ../ThirdParty/STM32F4xx_HAL_Driver/Src/stm32f4xx_hal_i2c.c:5362:10
	cmp	r0, r1
	bls	.LBB8_10
	b	.LBB8_7
.LBB8_7:
.Ltmp139:
	.loc	7 5364 9 is_stmt 1              @ ../ThirdParty/STM32F4xx_HAL_Driver/Src/stm32f4xx_hal_i2c.c:5364:9
	ldr	r1, [sp, #8]
	.loc	7 5364 25 is_stmt 0             @ ../ThirdParty/STM32F4xx_HAL_Driver/Src/stm32f4xx_hal_i2c.c:5364:25
	ldr	r0, [r1, #64]
	orr	r0, r0, #32
	str	r0, [r1, #64]
	.loc	7 5365 9 is_stmt 1              @ ../ThirdParty/STM32F4xx_HAL_Driver/Src/stm32f4xx_hal_i2c.c:5365:9
	ldr	r1, [sp, #8]
	movs	r0, #0
	.loc	7 5365 29 is_stmt 0             @ ../ThirdParty/STM32F4xx_HAL_Driver/Src/stm32f4xx_hal_i2c.c:5365:29
	str	r0, [r1, #48]
	.loc	7 5366 9 is_stmt 1              @ ../ThirdParty/STM32F4xx_HAL_Driver/Src/stm32f4xx_hal_i2c.c:5366:9
	ldr	r1, [sp, #8]
	movs	r0, #32
	.loc	7 5366 20 is_stmt 0             @ ../ThirdParty/STM32F4xx_HAL_Driver/Src/stm32f4xx_hal_i2c.c:5366:20
	strb.w	r0, [r1, #61]
	.loc	7 5369 9 is_stmt 1              @ ../ThirdParty/STM32F4xx_HAL_Driver/Src/stm32f4xx_hal_i2c.c:5369:9
	b	.LBB8_8
.LBB8_8:
.Ltmp140:
	.loc	7 5369 9 is_stmt 0              @ ../ThirdParty/STM32F4xx_HAL_Driver/Src/stm32f4xx_hal_i2c.c:5369:9
	ldr	r1, [sp, #8]
	movs	r0, #0
	strb.w	r0, [r1, #60]
	b	.LBB8_9
.Ltmp141:
.LBB8_9:
	.loc	7 0 9                           @ ../ThirdParty/STM32F4xx_HAL_Driver/Src/stm32f4xx_hal_i2c.c:0:9
	movs	r0, #3
	.loc	7 5371 9 is_stmt 1              @ ../ThirdParty/STM32F4xx_HAL_Driver/Src/stm32f4xx_hal_i2c.c:5371:9
	strb.w	r0, [sp, #15]
	b	.LBB8_13
.Ltmp142:
.LBB8_10:                               @   in Loop: Header=BB8_1 Depth=1
	.loc	7 5373 5                        @ ../ThirdParty/STM32F4xx_HAL_Driver/Src/stm32f4xx_hal_i2c.c:5373:5
	b	.LBB8_11
.Ltmp143:
.LBB8_11:                               @   in Loop: Header=BB8_1 Depth=1
	.loc	7 5351 3                        @ ../ThirdParty/STM32F4xx_HAL_Driver/Src/stm32f4xx_hal_i2c.c:5351:3
	b	.LBB8_1
.LBB8_12:
	.loc	7 0 3 is_stmt 0                 @ ../ThirdParty/STM32F4xx_HAL_Driver/Src/stm32f4xx_hal_i2c.c:0:3
	movs	r0, #0
	.loc	7 5375 3 is_stmt 1              @ ../ThirdParty/STM32F4xx_HAL_Driver/Src/stm32f4xx_hal_i2c.c:5375:3
	strb.w	r0, [sp, #15]
	b	.LBB8_13
.LBB8_13:
	.loc	7 5376 1                        @ ../ThirdParty/STM32F4xx_HAL_Driver/Src/stm32f4xx_hal_i2c.c:5376:1
	ldrb.w	r0, [sp, #15]
	.loc	7 5376 1 epilogue_begin is_stmt 0 @ ../ThirdParty/STM32F4xx_HAL_Driver/Src/stm32f4xx_hal_i2c.c:5376:1
	add	sp, #16
	pop	{r7, pc}
.Ltmp144:
.Lfunc_end8:
	.size	I2C_WaitOnBTFFlagUntilTimeout, .Lfunc_end8-I2C_WaitOnBTFFlagUntilTimeout
	.cfi_endproc
	.cantunwind
	.fnend
                                        @ -- End function
	.section	.text.HAL_I2C_Master_Receive,"ax",%progbits
	.hidden	HAL_I2C_Master_Receive          @ -- Begin function HAL_I2C_Master_Receive
	.globl	HAL_I2C_Master_Receive
	.p2align	2
	.type	HAL_I2C_Master_Receive,%function
	.code	16                              @ @HAL_I2C_Master_Receive
	.thumb_func
HAL_I2C_Master_Receive:
.Lfunc_begin9:
	.loc	7 708 0 is_stmt 1               @ ../ThirdParty/STM32F4xx_HAL_Driver/Src/stm32f4xx_hal_i2c.c:708:0
	.fnstart
	.cfi_startproc
@ %bb.0:
	.save	{r7, lr}
	push	{r7, lr}
	.cfi_def_cfa_offset 8
	.cfi_offset lr, -4
	.cfi_offset r7, -8
	.pad	#48
	sub	sp, #48
	.cfi_def_cfa_offset 56
	ldr.w	r12, [sp, #56]
                                        @ kill: def $r12 killed $r3
                                        @ kill: def $r12 killed $r1
	str	r0, [sp, #40]
	strh.w	r1, [sp, #38]
	str	r2, [sp, #32]
	strh.w	r3, [sp, #30]
	movs	r0, #0
.Ltmp145:
	.loc	7 709 12 prologue_end           @ ../ThirdParty/STM32F4xx_HAL_Driver/Src/stm32f4xx_hal_i2c.c:709:12
	str	r0, [sp, #24]
	.loc	7 712 15                        @ ../ThirdParty/STM32F4xx_HAL_Driver/Src/stm32f4xx_hal_i2c.c:712:15
	bl	HAL_GetTick
	.loc	7 712 13 is_stmt 0              @ ../ThirdParty/STM32F4xx_HAL_Driver/Src/stm32f4xx_hal_i2c.c:712:13
	str	r0, [sp, #24]
.Ltmp146:
	.loc	7 714 6 is_stmt 1               @ ../ThirdParty/STM32F4xx_HAL_Driver/Src/stm32f4xx_hal_i2c.c:714:6
	ldr	r0, [sp, #40]
	.loc	7 714 12 is_stmt 0              @ ../ThirdParty/STM32F4xx_HAL_Driver/Src/stm32f4xx_hal_i2c.c:714:12
	ldrb.w	r0, [r0, #61]
.Ltmp147:
	.loc	7 714 6                         @ ../ThirdParty/STM32F4xx_HAL_Driver/Src/stm32f4xx_hal_i2c.c:714:6
	cmp	r0, #32
	bne.w	.LBB9_66
	b	.LBB9_1
.LBB9_1:
.Ltmp148:
	.loc	7 717 35 is_stmt 1              @ ../ThirdParty/STM32F4xx_HAL_Driver/Src/stm32f4xx_hal_i2c.c:717:35
	ldr	r0, [sp, #40]
	.loc	7 717 84 is_stmt 0              @ ../ThirdParty/STM32F4xx_HAL_Driver/Src/stm32f4xx_hal_i2c.c:717:84
	ldr	r1, [sp, #24]
	.loc	7 717 8                         @ ../ThirdParty/STM32F4xx_HAL_Driver/Src/stm32f4xx_hal_i2c.c:717:8
	mov	r2, sp
	str	r1, [r2]
	movs	r1, #2
	movt	r1, #16
	movs	r2, #1
	movs	r3, #25
	bl	I2C_WaitOnFlagUntilTimeout
.Ltmp149:
	.loc	7 717 8                         @ ../ThirdParty/STM32F4xx_HAL_Driver/Src/stm32f4xx_hal_i2c.c:717:8
	cbz	r0, .LBB9_3
	b	.LBB9_2
.LBB9_2:
	.loc	7 0 8                           @ ../ThirdParty/STM32F4xx_HAL_Driver/Src/stm32f4xx_hal_i2c.c:0:8
	movs	r0, #2
.Ltmp150:
	.loc	7 719 7 is_stmt 1               @ ../ThirdParty/STM32F4xx_HAL_Driver/Src/stm32f4xx_hal_i2c.c:719:7
	strb.w	r0, [sp, #47]
	b	.LBB9_67
.Ltmp151:
.LBB9_3:
	.loc	7 723 5                         @ ../ThirdParty/STM32F4xx_HAL_Driver/Src/stm32f4xx_hal_i2c.c:723:5
	b	.LBB9_4
.LBB9_4:
.Ltmp152:
	.loc	7 723 5 is_stmt 0               @ ../ThirdParty/STM32F4xx_HAL_Driver/Src/stm32f4xx_hal_i2c.c:723:5
	ldr	r0, [sp, #40]
	ldrb.w	r0, [r0, #60]
.Ltmp153:
	.loc	7 723 5                         @ ../ThirdParty/STM32F4xx_HAL_Driver/Src/stm32f4xx_hal_i2c.c:723:5
	cmp	r0, #1
	bne	.LBB9_6
	b	.LBB9_5
.LBB9_5:
	.loc	7 0 5                           @ ../ThirdParty/STM32F4xx_HAL_Driver/Src/stm32f4xx_hal_i2c.c:0:5
	movs	r0, #2
.Ltmp154:
	.loc	7 723 5                         @ ../ThirdParty/STM32F4xx_HAL_Driver/Src/stm32f4xx_hal_i2c.c:723:5
	strb.w	r0, [sp, #47]
	b	.LBB9_67
.Ltmp155:
.LBB9_6:
	.loc	7 723 5                         @ ../ThirdParty/STM32F4xx_HAL_Driver/Src/stm32f4xx_hal_i2c.c:723:5
	ldr	r1, [sp, #40]
	movs	r0, #1
	strb.w	r0, [r1, #60]
	b	.LBB9_7
.Ltmp156:
.LBB9_7:
	.loc	7 723 5                         @ ../ThirdParty/STM32F4xx_HAL_Driver/Src/stm32f4xx_hal_i2c.c:723:5
	b	.LBB9_8
.Ltmp157:
.LBB9_8:
	.loc	7 726 9 is_stmt 1               @ ../ThirdParty/STM32F4xx_HAL_Driver/Src/stm32f4xx_hal_i2c.c:726:9
	ldr	r0, [sp, #40]
	.loc	7 726 15 is_stmt 0              @ ../ThirdParty/STM32F4xx_HAL_Driver/Src/stm32f4xx_hal_i2c.c:726:15
	ldr	r0, [r0]
	.loc	7 726 25                        @ ../ThirdParty/STM32F4xx_HAL_Driver/Src/stm32f4xx_hal_i2c.c:726:25
	ldr	r0, [r0]
.Ltmp158:
	.loc	7 726 8                         @ ../ThirdParty/STM32F4xx_HAL_Driver/Src/stm32f4xx_hal_i2c.c:726:8
	lsls	r0, r0, #31
	cbnz	r0, .LBB9_10
	b	.LBB9_9
.LBB9_9:
.Ltmp159:
	.loc	7 729 7 is_stmt 1               @ ../ThirdParty/STM32F4xx_HAL_Driver/Src/stm32f4xx_hal_i2c.c:729:7
	ldr	r0, [sp, #40]
	ldr	r1, [r0]
	ldr	r0, [r1]
	orr	r0, r0, #1
	str	r0, [r1]
	.loc	7 730 5                         @ ../ThirdParty/STM32F4xx_HAL_Driver/Src/stm32f4xx_hal_i2c.c:730:5
	b	.LBB9_10
.Ltmp160:
.LBB9_10:
	.loc	7 733 5                         @ ../ThirdParty/STM32F4xx_HAL_Driver/Src/stm32f4xx_hal_i2c.c:733:5
	ldr	r0, [sp, #40]
	.loc	7 733 11 is_stmt 0              @ ../ThirdParty/STM32F4xx_HAL_Driver/Src/stm32f4xx_hal_i2c.c:733:11
	ldr	r1, [r0]
	.loc	7 733 25                        @ ../ThirdParty/STM32F4xx_HAL_Driver/Src/stm32f4xx_hal_i2c.c:733:25
	ldr	r0, [r1]
	bic	r0, r0, #2048
	str	r0, [r1]
	.loc	7 735 5 is_stmt 1               @ ../ThirdParty/STM32F4xx_HAL_Driver/Src/stm32f4xx_hal_i2c.c:735:5
	ldr	r1, [sp, #40]
	movs	r0, #34
	.loc	7 735 23 is_stmt 0              @ ../ThirdParty/STM32F4xx_HAL_Driver/Src/stm32f4xx_hal_i2c.c:735:23
	strb.w	r0, [r1, #61]
	.loc	7 736 5 is_stmt 1               @ ../ThirdParty/STM32F4xx_HAL_Driver/Src/stm32f4xx_hal_i2c.c:736:5
	ldr	r1, [sp, #40]
	movs	r0, #16
	.loc	7 736 23 is_stmt 0              @ ../ThirdParty/STM32F4xx_HAL_Driver/Src/stm32f4xx_hal_i2c.c:736:23
	strb.w	r0, [r1, #62]
	.loc	7 737 5 is_stmt 1               @ ../ThirdParty/STM32F4xx_HAL_Driver/Src/stm32f4xx_hal_i2c.c:737:5
	ldr	r1, [sp, #40]
	movs	r0, #0
	.loc	7 737 23 is_stmt 0              @ ../ThirdParty/STM32F4xx_HAL_Driver/Src/stm32f4xx_hal_i2c.c:737:23
	str	r0, [r1, #64]
	.loc	7 740 25 is_stmt 1              @ ../ThirdParty/STM32F4xx_HAL_Driver/Src/stm32f4xx_hal_i2c.c:740:25
	ldr	r0, [sp, #32]
	.loc	7 740 5 is_stmt 0               @ ../ThirdParty/STM32F4xx_HAL_Driver/Src/stm32f4xx_hal_i2c.c:740:5
	ldr	r1, [sp, #40]
	.loc	7 740 23                        @ ../ThirdParty/STM32F4xx_HAL_Driver/Src/stm32f4xx_hal_i2c.c:740:23
	str	r0, [r1, #36]
	.loc	7 741 25 is_stmt 1              @ ../ThirdParty/STM32F4xx_HAL_Driver/Src/stm32f4xx_hal_i2c.c:741:25
	ldrh.w	r0, [sp, #30]
	.loc	7 741 5 is_stmt 0               @ ../ThirdParty/STM32F4xx_HAL_Driver/Src/stm32f4xx_hal_i2c.c:741:5
	ldr	r1, [sp, #40]
	.loc	7 741 23                        @ ../ThirdParty/STM32F4xx_HAL_Driver/Src/stm32f4xx_hal_i2c.c:741:23
	strh	r0, [r1, #42]
	.loc	7 742 5 is_stmt 1               @ ../ThirdParty/STM32F4xx_HAL_Driver/Src/stm32f4xx_hal_i2c.c:742:5
	ldr	r1, [sp, #40]
	movs	r0, #0
	movt	r0, #65535
	.loc	7 742 23 is_stmt 0              @ ../ThirdParty/STM32F4xx_HAL_Driver/Src/stm32f4xx_hal_i2c.c:742:23
	str	r0, [r1, #44]
	.loc	7 743 25 is_stmt 1              @ ../ThirdParty/STM32F4xx_HAL_Driver/Src/stm32f4xx_hal_i2c.c:743:25
	ldr	r0, [sp, #40]
	.loc	7 743 31 is_stmt 0              @ ../ThirdParty/STM32F4xx_HAL_Driver/Src/stm32f4xx_hal_i2c.c:743:31
	ldrh	r0, [r0, #42]
	.loc	7 743 5                         @ ../ThirdParty/STM32F4xx_HAL_Driver/Src/stm32f4xx_hal_i2c.c:743:5
	ldr	r1, [sp, #40]
	.loc	7 743 23                        @ ../ThirdParty/STM32F4xx_HAL_Driver/Src/stm32f4xx_hal_i2c.c:743:23
	strh	r0, [r1, #40]
.Ltmp161:
	.loc	7 746 30 is_stmt 1              @ ../ThirdParty/STM32F4xx_HAL_Driver/Src/stm32f4xx_hal_i2c.c:746:30
	ldr	r0, [sp, #40]
	.loc	7 746 36 is_stmt 0              @ ../ThirdParty/STM32F4xx_HAL_Driver/Src/stm32f4xx_hal_i2c.c:746:36
	ldrh.w	r1, [sp, #38]
	.loc	7 746 48                        @ ../ThirdParty/STM32F4xx_HAL_Driver/Src/stm32f4xx_hal_i2c.c:746:48
	ldr	r2, [sp, #56]
	.loc	7 746 57                        @ ../ThirdParty/STM32F4xx_HAL_Driver/Src/stm32f4xx_hal_i2c.c:746:57
	ldr	r3, [sp, #24]
	.loc	7 746 8                         @ ../ThirdParty/STM32F4xx_HAL_Driver/Src/stm32f4xx_hal_i2c.c:746:8
	bl	I2C_MasterRequestRead
.Ltmp162:
	.loc	7 746 8                         @ ../ThirdParty/STM32F4xx_HAL_Driver/Src/stm32f4xx_hal_i2c.c:746:8
	cbz	r0, .LBB9_18
	b	.LBB9_11
.LBB9_11:
.Ltmp163:
	.loc	7 748 10 is_stmt 1              @ ../ThirdParty/STM32F4xx_HAL_Driver/Src/stm32f4xx_hal_i2c.c:748:10
	ldr	r0, [sp, #40]
	.loc	7 748 16 is_stmt 0              @ ../ThirdParty/STM32F4xx_HAL_Driver/Src/stm32f4xx_hal_i2c.c:748:16
	ldr	r0, [r0, #64]
.Ltmp164:
	.loc	7 748 10                        @ ../ThirdParty/STM32F4xx_HAL_Driver/Src/stm32f4xx_hal_i2c.c:748:10
	cmp	r0, #4
	bne	.LBB9_15
	b	.LBB9_12
.LBB9_12:
.Ltmp165:
	.loc	7 751 9 is_stmt 1               @ ../ThirdParty/STM32F4xx_HAL_Driver/Src/stm32f4xx_hal_i2c.c:751:9
	b	.LBB9_13
.LBB9_13:
.Ltmp166:
	.loc	7 751 9 is_stmt 0               @ ../ThirdParty/STM32F4xx_HAL_Driver/Src/stm32f4xx_hal_i2c.c:751:9
	ldr	r1, [sp, #40]
	movs	r0, #0
	strb.w	r0, [r1, #60]
	b	.LBB9_14
.Ltmp167:
.LBB9_14:
	.loc	7 0 9                           @ ../ThirdParty/STM32F4xx_HAL_Driver/Src/stm32f4xx_hal_i2c.c:0:9
	movs	r0, #1
	.loc	7 752 9 is_stmt 1               @ ../ThirdParty/STM32F4xx_HAL_Driver/Src/stm32f4xx_hal_i2c.c:752:9
	strb.w	r0, [sp, #47]
	b	.LBB9_67
.Ltmp168:
.LBB9_15:
	.loc	7 757 9                         @ ../ThirdParty/STM32F4xx_HAL_Driver/Src/stm32f4xx_hal_i2c.c:757:9
	b	.LBB9_16
.LBB9_16:
.Ltmp169:
	.loc	7 757 9 is_stmt 0               @ ../ThirdParty/STM32F4xx_HAL_Driver/Src/stm32f4xx_hal_i2c.c:757:9
	ldr	r1, [sp, #40]
	movs	r0, #0
	strb.w	r0, [r1, #60]
	b	.LBB9_17
.Ltmp170:
.LBB9_17:
	.loc	7 0 9                           @ ../ThirdParty/STM32F4xx_HAL_Driver/Src/stm32f4xx_hal_i2c.c:0:9
	movs	r0, #3
	.loc	7 758 9 is_stmt 1               @ ../ThirdParty/STM32F4xx_HAL_Driver/Src/stm32f4xx_hal_i2c.c:758:9
	strb.w	r0, [sp, #47]
	b	.LBB9_67
.Ltmp171:
.LBB9_18:
	.loc	7 762 8                         @ ../ThirdParty/STM32F4xx_HAL_Driver/Src/stm32f4xx_hal_i2c.c:762:8
	ldr	r0, [sp, #40]
	.loc	7 762 14 is_stmt 0              @ ../ThirdParty/STM32F4xx_HAL_Driver/Src/stm32f4xx_hal_i2c.c:762:14
	ldrh	r0, [r0, #40]
.Ltmp172:
	.loc	7 762 8                         @ ../ThirdParty/STM32F4xx_HAL_Driver/Src/stm32f4xx_hal_i2c.c:762:8
	cbnz	r0, .LBB9_22
	b	.LBB9_19
.LBB9_19:
.Ltmp173:
	.loc	7 765 7 is_stmt 1               @ ../ThirdParty/STM32F4xx_HAL_Driver/Src/stm32f4xx_hal_i2c.c:765:7
	b	.LBB9_20
.LBB9_20:
	.loc	7 0 7 is_stmt 0                 @ ../ThirdParty/STM32F4xx_HAL_Driver/Src/stm32f4xx_hal_i2c.c:0:7
	movs	r0, #0
.Ltmp174:
	.loc	7 765 7                         @ ../ThirdParty/STM32F4xx_HAL_Driver/Src/stm32f4xx_hal_i2c.c:765:7
	str	r0, [sp, #20]
	ldr	r0, [sp, #40]
	ldr	r0, [r0]
	ldr	r0, [r0, #20]
	str	r0, [sp, #20]
	ldr	r0, [sp, #40]
	ldr	r0, [r0]
	ldr	r0, [r0, #24]
	str	r0, [sp, #20]
	ldr	r0, [sp, #20]
	b	.LBB9_21
.Ltmp175:
.LBB9_21:
	.loc	7 768 7 is_stmt 1               @ ../ThirdParty/STM32F4xx_HAL_Driver/Src/stm32f4xx_hal_i2c.c:768:7
	ldr	r0, [sp, #40]
	.loc	7 768 13 is_stmt 0              @ ../ThirdParty/STM32F4xx_HAL_Driver/Src/stm32f4xx_hal_i2c.c:768:13
	ldr	r1, [r0]
	.loc	7 768 27                        @ ../ThirdParty/STM32F4xx_HAL_Driver/Src/stm32f4xx_hal_i2c.c:768:27
	ldr	r0, [r1]
	orr	r0, r0, #512
	str	r0, [r1]
	.loc	7 769 5 is_stmt 1               @ ../ThirdParty/STM32F4xx_HAL_Driver/Src/stm32f4xx_hal_i2c.c:769:5
	b	.LBB9_35
.Ltmp176:
.LBB9_22:
	.loc	7 770 13                        @ ../ThirdParty/STM32F4xx_HAL_Driver/Src/stm32f4xx_hal_i2c.c:770:13
	ldr	r0, [sp, #40]
	.loc	7 770 19 is_stmt 0              @ ../ThirdParty/STM32F4xx_HAL_Driver/Src/stm32f4xx_hal_i2c.c:770:19
	ldrh	r0, [r0, #40]
.Ltmp177:
	.loc	7 770 13                        @ ../ThirdParty/STM32F4xx_HAL_Driver/Src/stm32f4xx_hal_i2c.c:770:13
	cmp	r0, #1
	bne	.LBB9_26
	b	.LBB9_23
.LBB9_23:
.Ltmp178:
	.loc	7 773 7 is_stmt 1               @ ../ThirdParty/STM32F4xx_HAL_Driver/Src/stm32f4xx_hal_i2c.c:773:7
	ldr	r0, [sp, #40]
	.loc	7 773 13 is_stmt 0              @ ../ThirdParty/STM32F4xx_HAL_Driver/Src/stm32f4xx_hal_i2c.c:773:13
	ldr	r1, [r0]
	.loc	7 773 27                        @ ../ThirdParty/STM32F4xx_HAL_Driver/Src/stm32f4xx_hal_i2c.c:773:27
	ldr	r0, [r1]
	bic	r0, r0, #1024
	str	r0, [r1]
	.loc	7 776 7 is_stmt 1               @ ../ThirdParty/STM32F4xx_HAL_Driver/Src/stm32f4xx_hal_i2c.c:776:7
	b	.LBB9_24
.LBB9_24:
	.loc	7 0 7 is_stmt 0                 @ ../ThirdParty/STM32F4xx_HAL_Driver/Src/stm32f4xx_hal_i2c.c:0:7
	movs	r0, #0
.Ltmp179:
	.loc	7 776 7                         @ ../ThirdParty/STM32F4xx_HAL_Driver/Src/stm32f4xx_hal_i2c.c:776:7
	str	r0, [sp, #16]
	ldr	r0, [sp, #40]
	ldr	r0, [r0]
	ldr	r0, [r0, #20]
	str	r0, [sp, #16]
	ldr	r0, [sp, #40]
	ldr	r0, [r0]
	ldr	r0, [r0, #24]
	str	r0, [sp, #16]
	ldr	r0, [sp, #16]
	b	.LBB9_25
.Ltmp180:
.LBB9_25:
	.loc	7 779 7 is_stmt 1               @ ../ThirdParty/STM32F4xx_HAL_Driver/Src/stm32f4xx_hal_i2c.c:779:7
	ldr	r0, [sp, #40]
	.loc	7 779 13 is_stmt 0              @ ../ThirdParty/STM32F4xx_HAL_Driver/Src/stm32f4xx_hal_i2c.c:779:13
	ldr	r1, [r0]
	.loc	7 779 27                        @ ../ThirdParty/STM32F4xx_HAL_Driver/Src/stm32f4xx_hal_i2c.c:779:27
	ldr	r0, [r1]
	orr	r0, r0, #512
	str	r0, [r1]
	.loc	7 780 5 is_stmt 1               @ ../ThirdParty/STM32F4xx_HAL_Driver/Src/stm32f4xx_hal_i2c.c:780:5
	b	.LBB9_34
.Ltmp181:
.LBB9_26:
	.loc	7 781 13                        @ ../ThirdParty/STM32F4xx_HAL_Driver/Src/stm32f4xx_hal_i2c.c:781:13
	ldr	r0, [sp, #40]
	.loc	7 781 19 is_stmt 0              @ ../ThirdParty/STM32F4xx_HAL_Driver/Src/stm32f4xx_hal_i2c.c:781:19
	ldrh	r0, [r0, #40]
.Ltmp182:
	.loc	7 781 13                        @ ../ThirdParty/STM32F4xx_HAL_Driver/Src/stm32f4xx_hal_i2c.c:781:13
	cmp	r0, #2
	bne	.LBB9_30
	b	.LBB9_27
.LBB9_27:
.Ltmp183:
	.loc	7 784 7 is_stmt 1               @ ../ThirdParty/STM32F4xx_HAL_Driver/Src/stm32f4xx_hal_i2c.c:784:7
	ldr	r0, [sp, #40]
	.loc	7 784 13 is_stmt 0              @ ../ThirdParty/STM32F4xx_HAL_Driver/Src/stm32f4xx_hal_i2c.c:784:13
	ldr	r1, [r0]
	.loc	7 784 27                        @ ../ThirdParty/STM32F4xx_HAL_Driver/Src/stm32f4xx_hal_i2c.c:784:27
	ldr	r0, [r1]
	bic	r0, r0, #1024
	str	r0, [r1]
	.loc	7 787 7 is_stmt 1               @ ../ThirdParty/STM32F4xx_HAL_Driver/Src/stm32f4xx_hal_i2c.c:787:7
	ldr	r0, [sp, #40]
	.loc	7 787 13 is_stmt 0              @ ../ThirdParty/STM32F4xx_HAL_Driver/Src/stm32f4xx_hal_i2c.c:787:13
	ldr	r1, [r0]
	.loc	7 787 27                        @ ../ThirdParty/STM32F4xx_HAL_Driver/Src/stm32f4xx_hal_i2c.c:787:27
	ldr	r0, [r1]
	orr	r0, r0, #2048
	str	r0, [r1]
	.loc	7 790 7 is_stmt 1               @ ../ThirdParty/STM32F4xx_HAL_Driver/Src/stm32f4xx_hal_i2c.c:790:7
	b	.LBB9_28
.LBB9_28:
	.loc	7 0 7 is_stmt 0                 @ ../ThirdParty/STM32F4xx_HAL_Driver/Src/stm32f4xx_hal_i2c.c:0:7
	movs	r0, #0
.Ltmp184:
	.loc	7 790 7                         @ ../ThirdParty/STM32F4xx_HAL_Driver/Src/stm32f4xx_hal_i2c.c:790:7
	str	r0, [sp, #12]
	ldr	r0, [sp, #40]
	ldr	r0, [r0]
	ldr	r0, [r0, #20]
	str	r0, [sp, #12]
	ldr	r0, [sp, #40]
	ldr	r0, [r0]
	ldr	r0, [r0, #24]
	str	r0, [sp, #12]
	ldr	r0, [sp, #12]
	b	.LBB9_29
.Ltmp185:
.LBB9_29:
	.loc	7 791 5 is_stmt 1               @ ../ThirdParty/STM32F4xx_HAL_Driver/Src/stm32f4xx_hal_i2c.c:791:5
	b	.LBB9_33
.Ltmp186:
.LBB9_30:
	.loc	7 795 7                         @ ../ThirdParty/STM32F4xx_HAL_Driver/Src/stm32f4xx_hal_i2c.c:795:7
	ldr	r0, [sp, #40]
	.loc	7 795 13 is_stmt 0              @ ../ThirdParty/STM32F4xx_HAL_Driver/Src/stm32f4xx_hal_i2c.c:795:13
	ldr	r1, [r0]
	.loc	7 795 27                        @ ../ThirdParty/STM32F4xx_HAL_Driver/Src/stm32f4xx_hal_i2c.c:795:27
	ldr	r0, [r1]
	orr	r0, r0, #1024
	str	r0, [r1]
	.loc	7 798 7 is_stmt 1               @ ../ThirdParty/STM32F4xx_HAL_Driver/Src/stm32f4xx_hal_i2c.c:798:7
	b	.LBB9_31
.LBB9_31:
	.loc	7 0 7 is_stmt 0                 @ ../ThirdParty/STM32F4xx_HAL_Driver/Src/stm32f4xx_hal_i2c.c:0:7
	movs	r0, #0
.Ltmp187:
	.loc	7 798 7                         @ ../ThirdParty/STM32F4xx_HAL_Driver/Src/stm32f4xx_hal_i2c.c:798:7
	str	r0, [sp, #8]
	ldr	r0, [sp, #40]
	ldr	r0, [r0]
	ldr	r0, [r0, #20]
	str	r0, [sp, #8]
	ldr	r0, [sp, #40]
	ldr	r0, [r0]
	ldr	r0, [r0, #24]
	str	r0, [sp, #8]
	ldr	r0, [sp, #8]
	b	.LBB9_32
.Ltmp188:
.LBB9_32:
	.loc	7 0 7                           @ ../ThirdParty/STM32F4xx_HAL_Driver/Src/stm32f4xx_hal_i2c.c:0:7
	b	.LBB9_33
.LBB9_33:
	b	.LBB9_34
.LBB9_34:
	b	.LBB9_35
.LBB9_35:
	.loc	7 801 5 is_stmt 1               @ ../ThirdParty/STM32F4xx_HAL_Driver/Src/stm32f4xx_hal_i2c.c:801:5
	b	.LBB9_36
.LBB9_36:                               @ =>This Inner Loop Header: Depth=1
	.loc	7 801 11 is_stmt 0              @ ../ThirdParty/STM32F4xx_HAL_Driver/Src/stm32f4xx_hal_i2c.c:801:11
	ldr	r0, [sp, #40]
	.loc	7 801 17                        @ ../ThirdParty/STM32F4xx_HAL_Driver/Src/stm32f4xx_hal_i2c.c:801:17
	ldrh	r0, [r0, #40]
	.loc	7 801 5                         @ ../ThirdParty/STM32F4xx_HAL_Driver/Src/stm32f4xx_hal_i2c.c:801:5
	cmp	r0, #0
	beq.w	.LBB9_63
	b	.LBB9_37
.LBB9_37:                               @   in Loop: Header=BB9_36 Depth=1
.Ltmp189:
	.loc	7 803 10 is_stmt 1              @ ../ThirdParty/STM32F4xx_HAL_Driver/Src/stm32f4xx_hal_i2c.c:803:10
	ldr	r0, [sp, #40]
	.loc	7 803 16 is_stmt 0              @ ../ThirdParty/STM32F4xx_HAL_Driver/Src/stm32f4xx_hal_i2c.c:803:16
	ldrh	r0, [r0, #40]
.Ltmp190:
	.loc	7 803 10                        @ ../ThirdParty/STM32F4xx_HAL_Driver/Src/stm32f4xx_hal_i2c.c:803:10
	cmp	r0, #3
	bhi.w	.LBB9_55
	b	.LBB9_38
.LBB9_38:                               @   in Loop: Header=BB9_36 Depth=1
.Ltmp191:
	.loc	7 806 12 is_stmt 1              @ ../ThirdParty/STM32F4xx_HAL_Driver/Src/stm32f4xx_hal_i2c.c:806:12
	ldr	r0, [sp, #40]
	.loc	7 806 18 is_stmt 0              @ ../ThirdParty/STM32F4xx_HAL_Driver/Src/stm32f4xx_hal_i2c.c:806:18
	ldrh	r0, [r0, #40]
.Ltmp192:
	.loc	7 806 12                        @ ../ThirdParty/STM32F4xx_HAL_Driver/Src/stm32f4xx_hal_i2c.c:806:12
	cmp	r0, #1
	bne	.LBB9_44
	b	.LBB9_39
.LBB9_39:                               @   in Loop: Header=BB9_36 Depth=1
.Ltmp193:
	.loc	7 809 45 is_stmt 1              @ ../ThirdParty/STM32F4xx_HAL_Driver/Src/stm32f4xx_hal_i2c.c:809:45
	ldr	r0, [sp, #40]
	.loc	7 809 51 is_stmt 0              @ ../ThirdParty/STM32F4xx_HAL_Driver/Src/stm32f4xx_hal_i2c.c:809:51
	ldr	r1, [sp, #56]
	.loc	7 809 60                        @ ../ThirdParty/STM32F4xx_HAL_Driver/Src/stm32f4xx_hal_i2c.c:809:60
	ldr	r2, [sp, #24]
	.loc	7 809 14                        @ ../ThirdParty/STM32F4xx_HAL_Driver/Src/stm32f4xx_hal_i2c.c:809:14
	bl	I2C_WaitOnRXNEFlagUntilTimeout
.Ltmp194:
	.loc	7 809 14                        @ ../ThirdParty/STM32F4xx_HAL_Driver/Src/stm32f4xx_hal_i2c.c:809:14
	cbz	r0, .LBB9_43
	b	.LBB9_40
.LBB9_40:
.Ltmp195:
	.loc	7 811 16 is_stmt 1              @ ../ThirdParty/STM32F4xx_HAL_Driver/Src/stm32f4xx_hal_i2c.c:811:16
	ldr	r0, [sp, #40]
	.loc	7 811 22 is_stmt 0              @ ../ThirdParty/STM32F4xx_HAL_Driver/Src/stm32f4xx_hal_i2c.c:811:22
	ldr	r0, [r0, #64]
.Ltmp196:
	.loc	7 811 16                        @ ../ThirdParty/STM32F4xx_HAL_Driver/Src/stm32f4xx_hal_i2c.c:811:16
	cmp	r0, #32
	bne	.LBB9_42
	b	.LBB9_41
.LBB9_41:
	.loc	7 0 16                          @ ../ThirdParty/STM32F4xx_HAL_Driver/Src/stm32f4xx_hal_i2c.c:0:16
	movs	r0, #3
.Ltmp197:
	.loc	7 813 15 is_stmt 1              @ ../ThirdParty/STM32F4xx_HAL_Driver/Src/stm32f4xx_hal_i2c.c:813:15
	strb.w	r0, [sp, #47]
	b	.LBB9_67
.Ltmp198:
.LBB9_42:
	.loc	7 0 15 is_stmt 0                @ ../ThirdParty/STM32F4xx_HAL_Driver/Src/stm32f4xx_hal_i2c.c:0:15
	movs	r0, #1
.Ltmp199:
	.loc	7 817 15 is_stmt 1              @ ../ThirdParty/STM32F4xx_HAL_Driver/Src/stm32f4xx_hal_i2c.c:817:15
	strb.w	r0, [sp, #47]
	b	.LBB9_67
.Ltmp200:
.LBB9_43:                               @   in Loop: Header=BB9_36 Depth=1
	.loc	7 822 33                        @ ../ThirdParty/STM32F4xx_HAL_Driver/Src/stm32f4xx_hal_i2c.c:822:33
	ldr	r0, [sp, #40]
	.loc	7 822 39 is_stmt 0              @ ../ThirdParty/STM32F4xx_HAL_Driver/Src/stm32f4xx_hal_i2c.c:822:39
	ldr	r0, [r0]
	.loc	7 822 49                        @ ../ThirdParty/STM32F4xx_HAL_Driver/Src/stm32f4xx_hal_i2c.c:822:49
	ldr	r0, [r0, #16]
	.loc	7 822 13                        @ ../ThirdParty/STM32F4xx_HAL_Driver/Src/stm32f4xx_hal_i2c.c:822:13
	ldr	r3, [sp, #40]
	.loc	7 822 27                        @ ../ThirdParty/STM32F4xx_HAL_Driver/Src/stm32f4xx_hal_i2c.c:822:27
	ldr	r1, [r3, #36]
	adds	r2, r1, #1
	str	r2, [r3, #36]
	.loc	7 822 31                        @ ../ThirdParty/STM32F4xx_HAL_Driver/Src/stm32f4xx_hal_i2c.c:822:31
	strb	r0, [r1]
	.loc	7 823 11 is_stmt 1              @ ../ThirdParty/STM32F4xx_HAL_Driver/Src/stm32f4xx_hal_i2c.c:823:11
	ldr	r1, [sp, #40]
	.loc	7 823 25 is_stmt 0              @ ../ThirdParty/STM32F4xx_HAL_Driver/Src/stm32f4xx_hal_i2c.c:823:25
	ldrh	r0, [r1, #40]
	subs	r0, #1
	strh	r0, [r1, #40]
	.loc	7 824 11 is_stmt 1              @ ../ThirdParty/STM32F4xx_HAL_Driver/Src/stm32f4xx_hal_i2c.c:824:11
	ldr	r1, [sp, #40]
	.loc	7 824 26 is_stmt 0              @ ../ThirdParty/STM32F4xx_HAL_Driver/Src/stm32f4xx_hal_i2c.c:824:26
	ldrh	r0, [r1, #42]
	subs	r0, #1
	strh	r0, [r1, #42]
	.loc	7 825 9 is_stmt 1               @ ../ThirdParty/STM32F4xx_HAL_Driver/Src/stm32f4xx_hal_i2c.c:825:9
	b	.LBB9_54
.Ltmp201:
.LBB9_44:                               @   in Loop: Header=BB9_36 Depth=1
	.loc	7 827 17                        @ ../ThirdParty/STM32F4xx_HAL_Driver/Src/stm32f4xx_hal_i2c.c:827:17
	ldr	r0, [sp, #40]
	.loc	7 827 23 is_stmt 0              @ ../ThirdParty/STM32F4xx_HAL_Driver/Src/stm32f4xx_hal_i2c.c:827:23
	ldrh	r0, [r0, #40]
.Ltmp202:
	.loc	7 827 17                        @ ../ThirdParty/STM32F4xx_HAL_Driver/Src/stm32f4xx_hal_i2c.c:827:17
	cmp	r0, #2
	bne	.LBB9_48
	b	.LBB9_45
.LBB9_45:                               @   in Loop: Header=BB9_36 Depth=1
.Ltmp203:
	.loc	7 830 41 is_stmt 1              @ ../ThirdParty/STM32F4xx_HAL_Driver/Src/stm32f4xx_hal_i2c.c:830:41
	ldr	r0, [sp, #40]
	.loc	7 830 68 is_stmt 0              @ ../ThirdParty/STM32F4xx_HAL_Driver/Src/stm32f4xx_hal_i2c.c:830:68
	ldr	r3, [sp, #56]
	.loc	7 830 77                        @ ../ThirdParty/STM32F4xx_HAL_Driver/Src/stm32f4xx_hal_i2c.c:830:77
	ldr	r1, [sp, #24]
	.loc	7 830 14                        @ ../ThirdParty/STM32F4xx_HAL_Driver/Src/stm32f4xx_hal_i2c.c:830:14
	mov	r2, sp
	str	r1, [r2]
	movs	r1, #4
	movt	r1, #1
	movs	r2, #0
	bl	I2C_WaitOnFlagUntilTimeout
.Ltmp204:
	.loc	7 830 14                        @ ../ThirdParty/STM32F4xx_HAL_Driver/Src/stm32f4xx_hal_i2c.c:830:14
	cbz	r0, .LBB9_47
	b	.LBB9_46
.LBB9_46:
	.loc	7 0 14                          @ ../ThirdParty/STM32F4xx_HAL_Driver/Src/stm32f4xx_hal_i2c.c:0:14
	movs	r0, #3
.Ltmp205:
	.loc	7 832 13 is_stmt 1              @ ../ThirdParty/STM32F4xx_HAL_Driver/Src/stm32f4xx_hal_i2c.c:832:13
	strb.w	r0, [sp, #47]
	b	.LBB9_67
.Ltmp206:
.LBB9_47:                               @   in Loop: Header=BB9_36 Depth=1
	.loc	7 836 11                        @ ../ThirdParty/STM32F4xx_HAL_Driver/Src/stm32f4xx_hal_i2c.c:836:11
	ldr	r0, [sp, #40]
	.loc	7 836 17 is_stmt 0              @ ../ThirdParty/STM32F4xx_HAL_Driver/Src/stm32f4xx_hal_i2c.c:836:17
	ldr	r1, [r0]
	.loc	7 836 31                        @ ../ThirdParty/STM32F4xx_HAL_Driver/Src/stm32f4xx_hal_i2c.c:836:31
	ldr	r0, [r1]
	orr	r0, r0, #512
	str	r0, [r1]
	.loc	7 839 33 is_stmt 1              @ ../ThirdParty/STM32F4xx_HAL_Driver/Src/stm32f4xx_hal_i2c.c:839:33
	ldr	r0, [sp, #40]
	.loc	7 839 39 is_stmt 0              @ ../ThirdParty/STM32F4xx_HAL_Driver/Src/stm32f4xx_hal_i2c.c:839:39
	ldr	r0, [r0]
	.loc	7 839 49                        @ ../ThirdParty/STM32F4xx_HAL_Driver/Src/stm32f4xx_hal_i2c.c:839:49
	ldr	r0, [r0, #16]
	.loc	7 839 13                        @ ../ThirdParty/STM32F4xx_HAL_Driver/Src/stm32f4xx_hal_i2c.c:839:13
	ldr	r3, [sp, #40]
	.loc	7 839 27                        @ ../ThirdParty/STM32F4xx_HAL_Driver/Src/stm32f4xx_hal_i2c.c:839:27
	ldr	r1, [r3, #36]
	adds	r2, r1, #1
	str	r2, [r3, #36]
	.loc	7 839 31                        @ ../ThirdParty/STM32F4xx_HAL_Driver/Src/stm32f4xx_hal_i2c.c:839:31
	strb	r0, [r1]
	.loc	7 840 11 is_stmt 1              @ ../ThirdParty/STM32F4xx_HAL_Driver/Src/stm32f4xx_hal_i2c.c:840:11
	ldr	r1, [sp, #40]
	.loc	7 840 25 is_stmt 0              @ ../ThirdParty/STM32F4xx_HAL_Driver/Src/stm32f4xx_hal_i2c.c:840:25
	ldrh	r0, [r1, #40]
	subs	r0, #1
	strh	r0, [r1, #40]
	.loc	7 841 11 is_stmt 1              @ ../ThirdParty/STM32F4xx_HAL_Driver/Src/stm32f4xx_hal_i2c.c:841:11
	ldr	r1, [sp, #40]
	.loc	7 841 26 is_stmt 0              @ ../ThirdParty/STM32F4xx_HAL_Driver/Src/stm32f4xx_hal_i2c.c:841:26
	ldrh	r0, [r1, #42]
	subs	r0, #1
	strh	r0, [r1, #42]
	.loc	7 844 33 is_stmt 1              @ ../ThirdParty/STM32F4xx_HAL_Driver/Src/stm32f4xx_hal_i2c.c:844:33
	ldr	r0, [sp, #40]
	.loc	7 844 39 is_stmt 0              @ ../ThirdParty/STM32F4xx_HAL_Driver/Src/stm32f4xx_hal_i2c.c:844:39
	ldr	r0, [r0]
	.loc	7 844 49                        @ ../ThirdParty/STM32F4xx_HAL_Driver/Src/stm32f4xx_hal_i2c.c:844:49
	ldr	r0, [r0, #16]
	.loc	7 844 13                        @ ../ThirdParty/STM32F4xx_HAL_Driver/Src/stm32f4xx_hal_i2c.c:844:13
	ldr	r3, [sp, #40]
	.loc	7 844 27                        @ ../ThirdParty/STM32F4xx_HAL_Driver/Src/stm32f4xx_hal_i2c.c:844:27
	ldr	r1, [r3, #36]
	adds	r2, r1, #1
	str	r2, [r3, #36]
	.loc	7 844 31                        @ ../ThirdParty/STM32F4xx_HAL_Driver/Src/stm32f4xx_hal_i2c.c:844:31
	strb	r0, [r1]
	.loc	7 845 11 is_stmt 1              @ ../ThirdParty/STM32F4xx_HAL_Driver/Src/stm32f4xx_hal_i2c.c:845:11
	ldr	r1, [sp, #40]
	.loc	7 845 25 is_stmt 0              @ ../ThirdParty/STM32F4xx_HAL_Driver/Src/stm32f4xx_hal_i2c.c:845:25
	ldrh	r0, [r1, #40]
	subs	r0, #1
	strh	r0, [r1, #40]
	.loc	7 846 11 is_stmt 1              @ ../ThirdParty/STM32F4xx_HAL_Driver/Src/stm32f4xx_hal_i2c.c:846:11
	ldr	r1, [sp, #40]
	.loc	7 846 26 is_stmt 0              @ ../ThirdParty/STM32F4xx_HAL_Driver/Src/stm32f4xx_hal_i2c.c:846:26
	ldrh	r0, [r1, #42]
	subs	r0, #1
	strh	r0, [r1, #42]
	.loc	7 847 9 is_stmt 1               @ ../ThirdParty/STM32F4xx_HAL_Driver/Src/stm32f4xx_hal_i2c.c:847:9
	b	.LBB9_53
.Ltmp207:
.LBB9_48:                               @   in Loop: Header=BB9_36 Depth=1
	.loc	7 852 41                        @ ../ThirdParty/STM32F4xx_HAL_Driver/Src/stm32f4xx_hal_i2c.c:852:41
	ldr	r0, [sp, #40]
	.loc	7 852 68 is_stmt 0              @ ../ThirdParty/STM32F4xx_HAL_Driver/Src/stm32f4xx_hal_i2c.c:852:68
	ldr	r3, [sp, #56]
	.loc	7 852 77                        @ ../ThirdParty/STM32F4xx_HAL_Driver/Src/stm32f4xx_hal_i2c.c:852:77
	ldr	r1, [sp, #24]
	.loc	7 852 14                        @ ../ThirdParty/STM32F4xx_HAL_Driver/Src/stm32f4xx_hal_i2c.c:852:14
	mov	r2, sp
	str	r1, [r2]
	movs	r1, #4
	movt	r1, #1
	movs	r2, #0
	bl	I2C_WaitOnFlagUntilTimeout
.Ltmp208:
	.loc	7 852 14                        @ ../ThirdParty/STM32F4xx_HAL_Driver/Src/stm32f4xx_hal_i2c.c:852:14
	cbz	r0, .LBB9_50
	b	.LBB9_49
.LBB9_49:
	.loc	7 0 14                          @ ../ThirdParty/STM32F4xx_HAL_Driver/Src/stm32f4xx_hal_i2c.c:0:14
	movs	r0, #3
.Ltmp209:
	.loc	7 854 13 is_stmt 1              @ ../ThirdParty/STM32F4xx_HAL_Driver/Src/stm32f4xx_hal_i2c.c:854:13
	strb.w	r0, [sp, #47]
	b	.LBB9_67
.Ltmp210:
.LBB9_50:                               @   in Loop: Header=BB9_36 Depth=1
	.loc	7 858 11                        @ ../ThirdParty/STM32F4xx_HAL_Driver/Src/stm32f4xx_hal_i2c.c:858:11
	ldr	r0, [sp, #40]
	.loc	7 858 17 is_stmt 0              @ ../ThirdParty/STM32F4xx_HAL_Driver/Src/stm32f4xx_hal_i2c.c:858:17
	ldr	r1, [r0]
	.loc	7 858 31                        @ ../ThirdParty/STM32F4xx_HAL_Driver/Src/stm32f4xx_hal_i2c.c:858:31
	ldr	r0, [r1]
	bic	r0, r0, #1024
	str	r0, [r1]
	.loc	7 861 33 is_stmt 1              @ ../ThirdParty/STM32F4xx_HAL_Driver/Src/stm32f4xx_hal_i2c.c:861:33
	ldr	r0, [sp, #40]
	.loc	7 861 39 is_stmt 0              @ ../ThirdParty/STM32F4xx_HAL_Driver/Src/stm32f4xx_hal_i2c.c:861:39
	ldr	r0, [r0]
	.loc	7 861 49                        @ ../ThirdParty/STM32F4xx_HAL_Driver/Src/stm32f4xx_hal_i2c.c:861:49
	ldr	r0, [r0, #16]
	.loc	7 861 13                        @ ../ThirdParty/STM32F4xx_HAL_Driver/Src/stm32f4xx_hal_i2c.c:861:13
	ldr	r3, [sp, #40]
	.loc	7 861 27                        @ ../ThirdParty/STM32F4xx_HAL_Driver/Src/stm32f4xx_hal_i2c.c:861:27
	ldr	r1, [r3, #36]
	adds	r2, r1, #1
	str	r2, [r3, #36]
	.loc	7 861 31                        @ ../ThirdParty/STM32F4xx_HAL_Driver/Src/stm32f4xx_hal_i2c.c:861:31
	strb	r0, [r1]
	.loc	7 862 11 is_stmt 1              @ ../ThirdParty/STM32F4xx_HAL_Driver/Src/stm32f4xx_hal_i2c.c:862:11
	ldr	r1, [sp, #40]
	.loc	7 862 25 is_stmt 0              @ ../ThirdParty/STM32F4xx_HAL_Driver/Src/stm32f4xx_hal_i2c.c:862:25
	ldrh	r0, [r1, #40]
	subs	r0, #1
	strh	r0, [r1, #40]
	.loc	7 863 11 is_stmt 1              @ ../ThirdParty/STM32F4xx_HAL_Driver/Src/stm32f4xx_hal_i2c.c:863:11
	ldr	r1, [sp, #40]
	.loc	7 863 26 is_stmt 0              @ ../ThirdParty/STM32F4xx_HAL_Driver/Src/stm32f4xx_hal_i2c.c:863:26
	ldrh	r0, [r1, #42]
	subs	r0, #1
	strh	r0, [r1, #42]
.Ltmp211:
	.loc	7 866 41 is_stmt 1              @ ../ThirdParty/STM32F4xx_HAL_Driver/Src/stm32f4xx_hal_i2c.c:866:41
	ldr	r0, [sp, #40]
	.loc	7 866 68 is_stmt 0              @ ../ThirdParty/STM32F4xx_HAL_Driver/Src/stm32f4xx_hal_i2c.c:866:68
	ldr	r3, [sp, #56]
	.loc	7 866 77                        @ ../ThirdParty/STM32F4xx_HAL_Driver/Src/stm32f4xx_hal_i2c.c:866:77
	ldr	r1, [sp, #24]
	.loc	7 866 14                        @ ../ThirdParty/STM32F4xx_HAL_Driver/Src/stm32f4xx_hal_i2c.c:866:14
	mov	r2, sp
	str	r1, [r2]
	movs	r1, #4
	movt	r1, #1
	movs	r2, #0
	bl	I2C_WaitOnFlagUntilTimeout
.Ltmp212:
	.loc	7 866 14                        @ ../ThirdParty/STM32F4xx_HAL_Driver/Src/stm32f4xx_hal_i2c.c:866:14
	cbz	r0, .LBB9_52
	b	.LBB9_51
.LBB9_51:
	.loc	7 0 14                          @ ../ThirdParty/STM32F4xx_HAL_Driver/Src/stm32f4xx_hal_i2c.c:0:14
	movs	r0, #3
.Ltmp213:
	.loc	7 868 13 is_stmt 1              @ ../ThirdParty/STM32F4xx_HAL_Driver/Src/stm32f4xx_hal_i2c.c:868:13
	strb.w	r0, [sp, #47]
	b	.LBB9_67
.Ltmp214:
.LBB9_52:                               @   in Loop: Header=BB9_36 Depth=1
	.loc	7 872 11                        @ ../ThirdParty/STM32F4xx_HAL_Driver/Src/stm32f4xx_hal_i2c.c:872:11
	ldr	r0, [sp, #40]
	.loc	7 872 17 is_stmt 0              @ ../ThirdParty/STM32F4xx_HAL_Driver/Src/stm32f4xx_hal_i2c.c:872:17
	ldr	r1, [r0]
	.loc	7 872 31                        @ ../ThirdParty/STM32F4xx_HAL_Driver/Src/stm32f4xx_hal_i2c.c:872:31
	ldr	r0, [r1]
	orr	r0, r0, #512
	str	r0, [r1]
	.loc	7 875 33 is_stmt 1              @ ../ThirdParty/STM32F4xx_HAL_Driver/Src/stm32f4xx_hal_i2c.c:875:33
	ldr	r0, [sp, #40]
	.loc	7 875 39 is_stmt 0              @ ../ThirdParty/STM32F4xx_HAL_Driver/Src/stm32f4xx_hal_i2c.c:875:39
	ldr	r0, [r0]
	.loc	7 875 49                        @ ../ThirdParty/STM32F4xx_HAL_Driver/Src/stm32f4xx_hal_i2c.c:875:49
	ldr	r0, [r0, #16]
	.loc	7 875 13                        @ ../ThirdParty/STM32F4xx_HAL_Driver/Src/stm32f4xx_hal_i2c.c:875:13
	ldr	r3, [sp, #40]
	.loc	7 875 27                        @ ../ThirdParty/STM32F4xx_HAL_Driver/Src/stm32f4xx_hal_i2c.c:875:27
	ldr	r1, [r3, #36]
	adds	r2, r1, #1
	str	r2, [r3, #36]
	.loc	7 875 31                        @ ../ThirdParty/STM32F4xx_HAL_Driver/Src/stm32f4xx_hal_i2c.c:875:31
	strb	r0, [r1]
	.loc	7 876 11 is_stmt 1              @ ../ThirdParty/STM32F4xx_HAL_Driver/Src/stm32f4xx_hal_i2c.c:876:11
	ldr	r1, [sp, #40]
	.loc	7 876 25 is_stmt 0              @ ../ThirdParty/STM32F4xx_HAL_Driver/Src/stm32f4xx_hal_i2c.c:876:25
	ldrh	r0, [r1, #40]
	subs	r0, #1
	strh	r0, [r1, #40]
	.loc	7 877 11 is_stmt 1              @ ../ThirdParty/STM32F4xx_HAL_Driver/Src/stm32f4xx_hal_i2c.c:877:11
	ldr	r1, [sp, #40]
	.loc	7 877 26 is_stmt 0              @ ../ThirdParty/STM32F4xx_HAL_Driver/Src/stm32f4xx_hal_i2c.c:877:26
	ldrh	r0, [r1, #42]
	subs	r0, #1
	strh	r0, [r1, #42]
	.loc	7 880 33 is_stmt 1              @ ../ThirdParty/STM32F4xx_HAL_Driver/Src/stm32f4xx_hal_i2c.c:880:33
	ldr	r0, [sp, #40]
	.loc	7 880 39 is_stmt 0              @ ../ThirdParty/STM32F4xx_HAL_Driver/Src/stm32f4xx_hal_i2c.c:880:39
	ldr	r0, [r0]
	.loc	7 880 49                        @ ../ThirdParty/STM32F4xx_HAL_Driver/Src/stm32f4xx_hal_i2c.c:880:49
	ldr	r0, [r0, #16]
	.loc	7 880 13                        @ ../ThirdParty/STM32F4xx_HAL_Driver/Src/stm32f4xx_hal_i2c.c:880:13
	ldr	r3, [sp, #40]
	.loc	7 880 27                        @ ../ThirdParty/STM32F4xx_HAL_Driver/Src/stm32f4xx_hal_i2c.c:880:27
	ldr	r1, [r3, #36]
	adds	r2, r1, #1
	str	r2, [r3, #36]
	.loc	7 880 31                        @ ../ThirdParty/STM32F4xx_HAL_Driver/Src/stm32f4xx_hal_i2c.c:880:31
	strb	r0, [r1]
	.loc	7 881 11 is_stmt 1              @ ../ThirdParty/STM32F4xx_HAL_Driver/Src/stm32f4xx_hal_i2c.c:881:11
	ldr	r1, [sp, #40]
	.loc	7 881 25 is_stmt 0              @ ../ThirdParty/STM32F4xx_HAL_Driver/Src/stm32f4xx_hal_i2c.c:881:25
	ldrh	r0, [r1, #40]
	subs	r0, #1
	strh	r0, [r1, #40]
	.loc	7 882 11 is_stmt 1              @ ../ThirdParty/STM32F4xx_HAL_Driver/Src/stm32f4xx_hal_i2c.c:882:11
	ldr	r1, [sp, #40]
	.loc	7 882 26 is_stmt 0              @ ../ThirdParty/STM32F4xx_HAL_Driver/Src/stm32f4xx_hal_i2c.c:882:26
	ldrh	r0, [r1, #42]
	subs	r0, #1
	strh	r0, [r1, #42]
	b	.LBB9_53
.Ltmp215:
.LBB9_53:                               @   in Loop: Header=BB9_36 Depth=1
	.loc	7 0 26                          @ ../ThirdParty/STM32F4xx_HAL_Driver/Src/stm32f4xx_hal_i2c.c:0:26
	b	.LBB9_54
.LBB9_54:                               @   in Loop: Header=BB9_36 Depth=1
	.loc	7 884 7 is_stmt 1               @ ../ThirdParty/STM32F4xx_HAL_Driver/Src/stm32f4xx_hal_i2c.c:884:7
	b	.LBB9_62
.Ltmp216:
.LBB9_55:                               @   in Loop: Header=BB9_36 Depth=1
	.loc	7 888 43                        @ ../ThirdParty/STM32F4xx_HAL_Driver/Src/stm32f4xx_hal_i2c.c:888:43
	ldr	r0, [sp, #40]
	.loc	7 888 49 is_stmt 0              @ ../ThirdParty/STM32F4xx_HAL_Driver/Src/stm32f4xx_hal_i2c.c:888:49
	ldr	r1, [sp, #56]
	.loc	7 888 58                        @ ../ThirdParty/STM32F4xx_HAL_Driver/Src/stm32f4xx_hal_i2c.c:888:58
	ldr	r2, [sp, #24]
	.loc	7 888 12                        @ ../ThirdParty/STM32F4xx_HAL_Driver/Src/stm32f4xx_hal_i2c.c:888:12
	bl	I2C_WaitOnRXNEFlagUntilTimeout
.Ltmp217:
	.loc	7 888 12                        @ ../ThirdParty/STM32F4xx_HAL_Driver/Src/stm32f4xx_hal_i2c.c:888:12
	cbz	r0, .LBB9_59
	b	.LBB9_56
.LBB9_56:
.Ltmp218:
	.loc	7 890 14 is_stmt 1              @ ../ThirdParty/STM32F4xx_HAL_Driver/Src/stm32f4xx_hal_i2c.c:890:14
	ldr	r0, [sp, #40]
	.loc	7 890 20 is_stmt 0              @ ../ThirdParty/STM32F4xx_HAL_Driver/Src/stm32f4xx_hal_i2c.c:890:20
	ldr	r0, [r0, #64]
.Ltmp219:
	.loc	7 890 14                        @ ../ThirdParty/STM32F4xx_HAL_Driver/Src/stm32f4xx_hal_i2c.c:890:14
	cmp	r0, #32
	bne	.LBB9_58
	b	.LBB9_57
.LBB9_57:
	.loc	7 0 14                          @ ../ThirdParty/STM32F4xx_HAL_Driver/Src/stm32f4xx_hal_i2c.c:0:14
	movs	r0, #3
.Ltmp220:
	.loc	7 892 13 is_stmt 1              @ ../ThirdParty/STM32F4xx_HAL_Driver/Src/stm32f4xx_hal_i2c.c:892:13
	strb.w	r0, [sp, #47]
	b	.LBB9_67
.Ltmp221:
.LBB9_58:
	.loc	7 0 13 is_stmt 0                @ ../ThirdParty/STM32F4xx_HAL_Driver/Src/stm32f4xx_hal_i2c.c:0:13
	movs	r0, #1
.Ltmp222:
	.loc	7 896 13 is_stmt 1              @ ../ThirdParty/STM32F4xx_HAL_Driver/Src/stm32f4xx_hal_i2c.c:896:13
	strb.w	r0, [sp, #47]
	b	.LBB9_67
.Ltmp223:
.LBB9_59:                               @   in Loop: Header=BB9_36 Depth=1
	.loc	7 901 31                        @ ../ThirdParty/STM32F4xx_HAL_Driver/Src/stm32f4xx_hal_i2c.c:901:31
	ldr	r0, [sp, #40]
	.loc	7 901 37 is_stmt 0              @ ../ThirdParty/STM32F4xx_HAL_Driver/Src/stm32f4xx_hal_i2c.c:901:37
	ldr	r0, [r0]
	.loc	7 901 47                        @ ../ThirdParty/STM32F4xx_HAL_Driver/Src/stm32f4xx_hal_i2c.c:901:47
	ldr	r0, [r0, #16]
	.loc	7 901 11                        @ ../ThirdParty/STM32F4xx_HAL_Driver/Src/stm32f4xx_hal_i2c.c:901:11
	ldr	r3, [sp, #40]
	.loc	7 901 25                        @ ../ThirdParty/STM32F4xx_HAL_Driver/Src/stm32f4xx_hal_i2c.c:901:25
	ldr	r1, [r3, #36]
	adds	r2, r1, #1
	str	r2, [r3, #36]
	.loc	7 901 29                        @ ../ThirdParty/STM32F4xx_HAL_Driver/Src/stm32f4xx_hal_i2c.c:901:29
	strb	r0, [r1]
	.loc	7 902 9 is_stmt 1               @ ../ThirdParty/STM32F4xx_HAL_Driver/Src/stm32f4xx_hal_i2c.c:902:9
	ldr	r1, [sp, #40]
	.loc	7 902 23 is_stmt 0              @ ../ThirdParty/STM32F4xx_HAL_Driver/Src/stm32f4xx_hal_i2c.c:902:23
	ldrh	r0, [r1, #40]
	subs	r0, #1
	strh	r0, [r1, #40]
	.loc	7 903 9 is_stmt 1               @ ../ThirdParty/STM32F4xx_HAL_Driver/Src/stm32f4xx_hal_i2c.c:903:9
	ldr	r1, [sp, #40]
	.loc	7 903 24 is_stmt 0              @ ../ThirdParty/STM32F4xx_HAL_Driver/Src/stm32f4xx_hal_i2c.c:903:24
	ldrh	r0, [r1, #42]
	subs	r0, #1
	strh	r0, [r1, #42]
.Ltmp224:
	.loc	7 905 12 is_stmt 1              @ ../ThirdParty/STM32F4xx_HAL_Driver/Src/stm32f4xx_hal_i2c.c:905:12
	ldr	r0, [sp, #40]
	ldr	r0, [r0]
	ldr	r0, [r0, #20]
	and	r1, r0, #4
	movs	r0, #1
.Ltmp225:
	.loc	7 905 12 is_stmt 0              @ ../ThirdParty/STM32F4xx_HAL_Driver/Src/stm32f4xx_hal_i2c.c:905:12
	cmp.w	r0, r1, lsr #2
	bne	.LBB9_61
	b	.LBB9_60
.LBB9_60:                               @   in Loop: Header=BB9_36 Depth=1
.Ltmp226:
	.loc	7 908 33 is_stmt 1              @ ../ThirdParty/STM32F4xx_HAL_Driver/Src/stm32f4xx_hal_i2c.c:908:33
	ldr	r0, [sp, #40]
	.loc	7 908 39 is_stmt 0              @ ../ThirdParty/STM32F4xx_HAL_Driver/Src/stm32f4xx_hal_i2c.c:908:39
	ldr	r0, [r0]
	.loc	7 908 49                        @ ../ThirdParty/STM32F4xx_HAL_Driver/Src/stm32f4xx_hal_i2c.c:908:49
	ldr	r0, [r0, #16]
	.loc	7 908 13                        @ ../ThirdParty/STM32F4xx_HAL_Driver/Src/stm32f4xx_hal_i2c.c:908:13
	ldr	r3, [sp, #40]
	.loc	7 908 27                        @ ../ThirdParty/STM32F4xx_HAL_Driver/Src/stm32f4xx_hal_i2c.c:908:27
	ldr	r1, [r3, #36]
	adds	r2, r1, #1
	str	r2, [r3, #36]
	.loc	7 908 31                        @ ../ThirdParty/STM32F4xx_HAL_Driver/Src/stm32f4xx_hal_i2c.c:908:31
	strb	r0, [r1]
	.loc	7 909 11 is_stmt 1              @ ../ThirdParty/STM32F4xx_HAL_Driver/Src/stm32f4xx_hal_i2c.c:909:11
	ldr	r1, [sp, #40]
	.loc	7 909 25 is_stmt 0              @ ../ThirdParty/STM32F4xx_HAL_Driver/Src/stm32f4xx_hal_i2c.c:909:25
	ldrh	r0, [r1, #40]
	subs	r0, #1
	strh	r0, [r1, #40]
	.loc	7 910 11 is_stmt 1              @ ../ThirdParty/STM32F4xx_HAL_Driver/Src/stm32f4xx_hal_i2c.c:910:11
	ldr	r1, [sp, #40]
	.loc	7 910 26 is_stmt 0              @ ../ThirdParty/STM32F4xx_HAL_Driver/Src/stm32f4xx_hal_i2c.c:910:26
	ldrh	r0, [r1, #42]
	subs	r0, #1
	strh	r0, [r1, #42]
	.loc	7 911 9 is_stmt 1               @ ../ThirdParty/STM32F4xx_HAL_Driver/Src/stm32f4xx_hal_i2c.c:911:9
	b	.LBB9_61
.Ltmp227:
.LBB9_61:                               @   in Loop: Header=BB9_36 Depth=1
	.loc	7 0 9 is_stmt 0                 @ ../ThirdParty/STM32F4xx_HAL_Driver/Src/stm32f4xx_hal_i2c.c:0:9
	b	.LBB9_62
.LBB9_62:                               @   in Loop: Header=BB9_36 Depth=1
	.loc	7 801 5 is_stmt 1               @ ../ThirdParty/STM32F4xx_HAL_Driver/Src/stm32f4xx_hal_i2c.c:801:5
	b	.LBB9_36
.LBB9_63:
	.loc	7 915 5                         @ ../ThirdParty/STM32F4xx_HAL_Driver/Src/stm32f4xx_hal_i2c.c:915:5
	ldr	r1, [sp, #40]
	movs	r0, #32
	.loc	7 915 17 is_stmt 0              @ ../ThirdParty/STM32F4xx_HAL_Driver/Src/stm32f4xx_hal_i2c.c:915:17
	strb.w	r0, [r1, #61]
	.loc	7 916 5 is_stmt 1               @ ../ThirdParty/STM32F4xx_HAL_Driver/Src/stm32f4xx_hal_i2c.c:916:5
	ldr	r1, [sp, #40]
	movs	r0, #0
	.loc	7 916 16 is_stmt 0              @ ../ThirdParty/STM32F4xx_HAL_Driver/Src/stm32f4xx_hal_i2c.c:916:16
	strb.w	r0, [r1, #62]
	.loc	7 919 5 is_stmt 1               @ ../ThirdParty/STM32F4xx_HAL_Driver/Src/stm32f4xx_hal_i2c.c:919:5
	b	.LBB9_64
.LBB9_64:
.Ltmp228:
	.loc	7 919 5 is_stmt 0               @ ../ThirdParty/STM32F4xx_HAL_Driver/Src/stm32f4xx_hal_i2c.c:919:5
	ldr	r1, [sp, #40]
	movs	r0, #0
	strb.w	r0, [r1, #60]
	b	.LBB9_65
.Ltmp229:
.LBB9_65:
	.loc	7 0 5                           @ ../ThirdParty/STM32F4xx_HAL_Driver/Src/stm32f4xx_hal_i2c.c:0:5
	movs	r0, #0
	.loc	7 921 5 is_stmt 1               @ ../ThirdParty/STM32F4xx_HAL_Driver/Src/stm32f4xx_hal_i2c.c:921:5
	strb.w	r0, [sp, #47]
	b	.LBB9_67
.Ltmp230:
.LBB9_66:
	.loc	7 0 5 is_stmt 0                 @ ../ThirdParty/STM32F4xx_HAL_Driver/Src/stm32f4xx_hal_i2c.c:0:5
	movs	r0, #2
.Ltmp231:
	.loc	7 925 5 is_stmt 1               @ ../ThirdParty/STM32F4xx_HAL_Driver/Src/stm32f4xx_hal_i2c.c:925:5
	strb.w	r0, [sp, #47]
	b	.LBB9_67
.Ltmp232:
.LBB9_67:
	.loc	7 927 1                         @ ../ThirdParty/STM32F4xx_HAL_Driver/Src/stm32f4xx_hal_i2c.c:927:1
	ldrb.w	r0, [sp, #47]
	.loc	7 927 1 epilogue_begin is_stmt 0 @ ../ThirdParty/STM32F4xx_HAL_Driver/Src/stm32f4xx_hal_i2c.c:927:1
	add	sp, #48
	pop	{r7, pc}
.Ltmp233:
.Lfunc_end9:
	.size	HAL_I2C_Master_Receive, .Lfunc_end9-HAL_I2C_Master_Receive
	.cfi_endproc
	.cantunwind
	.fnend
                                        @ -- End function
	.section	.text.I2C_MasterRequestRead,"ax",%progbits
	.p2align	2                               @ -- Begin function I2C_MasterRequestRead
	.type	I2C_MasterRequestRead,%function
	.code	16                              @ @I2C_MasterRequestRead
	.thumb_func
I2C_MasterRequestRead:
.Lfunc_begin10:
	.loc	7 4766 0 is_stmt 1              @ ../ThirdParty/STM32F4xx_HAL_Driver/Src/stm32f4xx_hal_i2c.c:4766:0
	.fnstart
	.cfi_startproc
@ %bb.0:
	.save	{r7, lr}
	push	{r7, lr}
	.cfi_def_cfa_offset 8
	.cfi_offset lr, -4
	.cfi_offset r7, -8
	.pad	#32
	sub	sp, #32
	.cfi_def_cfa_offset 40
                                        @ kill: def $r12 killed $r1
	str	r0, [sp, #24]
	strh.w	r1, [sp, #22]
	str	r2, [sp, #16]
	str	r3, [sp, #12]
.Ltmp234:
	.loc	7 4768 33 prologue_end          @ ../ThirdParty/STM32F4xx_HAL_Driver/Src/stm32f4xx_hal_i2c.c:4768:33
	ldr	r0, [sp, #24]
	.loc	7 4768 39 is_stmt 0             @ ../ThirdParty/STM32F4xx_HAL_Driver/Src/stm32f4xx_hal_i2c.c:4768:39
	ldr	r0, [r0, #44]
	.loc	7 4768 12                       @ ../ThirdParty/STM32F4xx_HAL_Driver/Src/stm32f4xx_hal_i2c.c:4768:12
	str	r0, [sp, #8]
	.loc	7 4771 3 is_stmt 1              @ ../ThirdParty/STM32F4xx_HAL_Driver/Src/stm32f4xx_hal_i2c.c:4771:3
	ldr	r0, [sp, #24]
	.loc	7 4771 9 is_stmt 0              @ ../ThirdParty/STM32F4xx_HAL_Driver/Src/stm32f4xx_hal_i2c.c:4771:9
	ldr	r1, [r0]
	.loc	7 4771 23                       @ ../ThirdParty/STM32F4xx_HAL_Driver/Src/stm32f4xx_hal_i2c.c:4771:23
	ldr	r0, [r1]
	orr	r0, r0, #1024
	str	r0, [r1]
.Ltmp235:
	.loc	7 4774 7 is_stmt 1              @ ../ThirdParty/STM32F4xx_HAL_Driver/Src/stm32f4xx_hal_i2c.c:4774:7
	ldr	r0, [sp, #8]
	.loc	7 4774 55 is_stmt 0             @ ../ThirdParty/STM32F4xx_HAL_Driver/Src/stm32f4xx_hal_i2c.c:4774:55
	cmp	r0, #4
	beq	.LBB10_3
	b	.LBB10_1
.LBB10_1:
	.loc	7 4774 59                       @ ../ThirdParty/STM32F4xx_HAL_Driver/Src/stm32f4xx_hal_i2c.c:4774:59
	ldr	r0, [sp, #8]
	.loc	7 4774 99                       @ ../ThirdParty/STM32F4xx_HAL_Driver/Src/stm32f4xx_hal_i2c.c:4774:99
	cmp	r0, #1
	beq	.LBB10_3
	b	.LBB10_2
.LBB10_2:
	.loc	7 4774 103                      @ ../ThirdParty/STM32F4xx_HAL_Driver/Src/stm32f4xx_hal_i2c.c:4774:103
	ldr	r0, [sp, #8]
.Ltmp236:
	.loc	7 4774 6                        @ ../ThirdParty/STM32F4xx_HAL_Driver/Src/stm32f4xx_hal_i2c.c:4774:6
	cmn.w	r0, #65536
	bne	.LBB10_4
	b	.LBB10_3
.LBB10_3:
.Ltmp237:
	.loc	7 4777 5 is_stmt 1              @ ../ThirdParty/STM32F4xx_HAL_Driver/Src/stm32f4xx_hal_i2c.c:4777:5
	ldr	r0, [sp, #24]
	.loc	7 4777 11 is_stmt 0             @ ../ThirdParty/STM32F4xx_HAL_Driver/Src/stm32f4xx_hal_i2c.c:4777:11
	ldr	r1, [r0]
	.loc	7 4777 25                       @ ../ThirdParty/STM32F4xx_HAL_Driver/Src/stm32f4xx_hal_i2c.c:4777:25
	ldr	r0, [r1]
	orr	r0, r0, #256
	str	r0, [r1]
	.loc	7 4778 3 is_stmt 1              @ ../ThirdParty/STM32F4xx_HAL_Driver/Src/stm32f4xx_hal_i2c.c:4778:3
	b	.LBB10_7
.Ltmp238:
.LBB10_4:
	.loc	7 4779 11                       @ ../ThirdParty/STM32F4xx_HAL_Driver/Src/stm32f4xx_hal_i2c.c:4779:11
	ldr	r0, [sp, #24]
	.loc	7 4779 17 is_stmt 0             @ ../ThirdParty/STM32F4xx_HAL_Driver/Src/stm32f4xx_hal_i2c.c:4779:17
	ldr	r0, [r0, #48]
.Ltmp239:
	.loc	7 4779 11                       @ ../ThirdParty/STM32F4xx_HAL_Driver/Src/stm32f4xx_hal_i2c.c:4779:11
	cmp	r0, #17
	bne	.LBB10_6
	b	.LBB10_5
.LBB10_5:
.Ltmp240:
	.loc	7 4782 5 is_stmt 1              @ ../ThirdParty/STM32F4xx_HAL_Driver/Src/stm32f4xx_hal_i2c.c:4782:5
	ldr	r0, [sp, #24]
	.loc	7 4782 11 is_stmt 0             @ ../ThirdParty/STM32F4xx_HAL_Driver/Src/stm32f4xx_hal_i2c.c:4782:11
	ldr	r1, [r0]
	.loc	7 4782 25                       @ ../ThirdParty/STM32F4xx_HAL_Driver/Src/stm32f4xx_hal_i2c.c:4782:25
	ldr	r0, [r1]
	orr	r0, r0, #256
	str	r0, [r1]
	.loc	7 4783 3 is_stmt 1              @ ../ThirdParty/STM32F4xx_HAL_Driver/Src/stm32f4xx_hal_i2c.c:4783:3
	b	.LBB10_6
.Ltmp241:
.LBB10_6:
	.loc	7 0 3 is_stmt 0                 @ ../ThirdParty/STM32F4xx_HAL_Driver/Src/stm32f4xx_hal_i2c.c:0:3
	b	.LBB10_7
.LBB10_7:
.Ltmp242:
	.loc	7 4786 33 is_stmt 1             @ ../ThirdParty/STM32F4xx_HAL_Driver/Src/stm32f4xx_hal_i2c.c:4786:33
	ldr	r0, [sp, #24]
	.loc	7 4786 59 is_stmt 0             @ ../ThirdParty/STM32F4xx_HAL_Driver/Src/stm32f4xx_hal_i2c.c:4786:59
	ldr	r3, [sp, #16]
	.loc	7 4786 68                       @ ../ThirdParty/STM32F4xx_HAL_Driver/Src/stm32f4xx_hal_i2c.c:4786:68
	ldr	r1, [sp, #12]
	.loc	7 4786 6                        @ ../ThirdParty/STM32F4xx_HAL_Driver/Src/stm32f4xx_hal_i2c.c:4786:6
	mov	r2, sp
	str	r1, [r2]
	mov.w	r1, #65537
	movs	r2, #0
	bl	I2C_WaitOnFlagUntilTimeout
.Ltmp243:
	.loc	7 4786 6                        @ ../ThirdParty/STM32F4xx_HAL_Driver/Src/stm32f4xx_hal_i2c.c:4786:6
	cbz	r0, .LBB10_9
	b	.LBB10_8
.LBB10_8:
	.loc	7 0 6                           @ ../ThirdParty/STM32F4xx_HAL_Driver/Src/stm32f4xx_hal_i2c.c:0:6
	movs	r0, #3
.Ltmp244:
	.loc	7 4788 5 is_stmt 1              @ ../ThirdParty/STM32F4xx_HAL_Driver/Src/stm32f4xx_hal_i2c.c:4788:5
	strb.w	r0, [sp, #31]
	b	.LBB10_29
.Ltmp245:
.LBB10_9:
	.loc	7 4791 6                        @ ../ThirdParty/STM32F4xx_HAL_Driver/Src/stm32f4xx_hal_i2c.c:4791:6
	ldr	r0, [sp, #24]
	.loc	7 4791 17 is_stmt 0             @ ../ThirdParty/STM32F4xx_HAL_Driver/Src/stm32f4xx_hal_i2c.c:4791:17
	ldr	r0, [r0, #16]
.Ltmp246:
	.loc	7 4791 6                        @ ../ThirdParty/STM32F4xx_HAL_Driver/Src/stm32f4xx_hal_i2c.c:4791:6
	cmp.w	r0, #16384
	bne	.LBB10_11
	b	.LBB10_10
.LBB10_10:
.Ltmp247:
	.loc	7 4794 26 is_stmt 1             @ ../ThirdParty/STM32F4xx_HAL_Driver/Src/stm32f4xx_hal_i2c.c:4794:26
	ldrb.w	r0, [sp, #22]
	orr	r0, r0, #1
	.loc	7 4794 5 is_stmt 0              @ ../ThirdParty/STM32F4xx_HAL_Driver/Src/stm32f4xx_hal_i2c.c:4794:5
	ldr	r1, [sp, #24]
	.loc	7 4794 11                       @ ../ThirdParty/STM32F4xx_HAL_Driver/Src/stm32f4xx_hal_i2c.c:4794:11
	ldr	r1, [r1]
	.loc	7 4794 24                       @ ../ThirdParty/STM32F4xx_HAL_Driver/Src/stm32f4xx_hal_i2c.c:4794:24
	str	r0, [r1, #16]
	.loc	7 4795 3 is_stmt 1              @ ../ThirdParty/STM32F4xx_HAL_Driver/Src/stm32f4xx_hal_i2c.c:4795:3
	b	.LBB10_24
.Ltmp248:
.LBB10_11:
	.loc	7 4799 26                       @ ../ThirdParty/STM32F4xx_HAL_Driver/Src/stm32f4xx_hal_i2c.c:4799:26
	ldrh.w	r0, [sp, #22]
	and	r0, r0, #768
	lsrs	r0, r0, #7
	adds	r0, #240
	.loc	7 4799 5 is_stmt 0              @ ../ThirdParty/STM32F4xx_HAL_Driver/Src/stm32f4xx_hal_i2c.c:4799:5
	ldr	r1, [sp, #24]
	.loc	7 4799 11                       @ ../ThirdParty/STM32F4xx_HAL_Driver/Src/stm32f4xx_hal_i2c.c:4799:11
	ldr	r1, [r1]
	.loc	7 4799 24                       @ ../ThirdParty/STM32F4xx_HAL_Driver/Src/stm32f4xx_hal_i2c.c:4799:24
	str	r0, [r1, #16]
.Ltmp249:
	.loc	7 4802 48 is_stmt 1             @ ../ThirdParty/STM32F4xx_HAL_Driver/Src/stm32f4xx_hal_i2c.c:4802:48
	ldr	r0, [sp, #24]
	.loc	7 4802 70 is_stmt 0             @ ../ThirdParty/STM32F4xx_HAL_Driver/Src/stm32f4xx_hal_i2c.c:4802:70
	ldr	r2, [sp, #16]
	.loc	7 4802 79                       @ ../ThirdParty/STM32F4xx_HAL_Driver/Src/stm32f4xx_hal_i2c.c:4802:79
	ldr	r3, [sp, #12]
	movs	r1, #8
	movt	r1, #1
	.loc	7 4802 8                        @ ../ThirdParty/STM32F4xx_HAL_Driver/Src/stm32f4xx_hal_i2c.c:4802:8
	bl	I2C_WaitOnMasterAddressFlagUntilTimeout
.Ltmp250:
	.loc	7 4802 8                        @ ../ThirdParty/STM32F4xx_HAL_Driver/Src/stm32f4xx_hal_i2c.c:4802:8
	cbz	r0, .LBB10_15
	b	.LBB10_12
.LBB10_12:
.Ltmp251:
	.loc	7 4804 10 is_stmt 1             @ ../ThirdParty/STM32F4xx_HAL_Driver/Src/stm32f4xx_hal_i2c.c:4804:10
	ldr	r0, [sp, #24]
	.loc	7 4804 16 is_stmt 0             @ ../ThirdParty/STM32F4xx_HAL_Driver/Src/stm32f4xx_hal_i2c.c:4804:16
	ldr	r0, [r0, #64]
.Ltmp252:
	.loc	7 4804 10                       @ ../ThirdParty/STM32F4xx_HAL_Driver/Src/stm32f4xx_hal_i2c.c:4804:10
	cmp	r0, #4
	bne	.LBB10_14
	b	.LBB10_13
.LBB10_13:
	.loc	7 0 10                          @ ../ThirdParty/STM32F4xx_HAL_Driver/Src/stm32f4xx_hal_i2c.c:0:10
	movs	r0, #1
.Ltmp253:
	.loc	7 4806 9 is_stmt 1              @ ../ThirdParty/STM32F4xx_HAL_Driver/Src/stm32f4xx_hal_i2c.c:4806:9
	strb.w	r0, [sp, #31]
	b	.LBB10_29
.Ltmp254:
.LBB10_14:
	.loc	7 0 9 is_stmt 0                 @ ../ThirdParty/STM32F4xx_HAL_Driver/Src/stm32f4xx_hal_i2c.c:0:9
	movs	r0, #3
.Ltmp255:
	.loc	7 4810 9 is_stmt 1              @ ../ThirdParty/STM32F4xx_HAL_Driver/Src/stm32f4xx_hal_i2c.c:4810:9
	strb.w	r0, [sp, #31]
	b	.LBB10_29
.Ltmp256:
.LBB10_15:
	.loc	7 4815 26                       @ ../ThirdParty/STM32F4xx_HAL_Driver/Src/stm32f4xx_hal_i2c.c:4815:26
	ldrb.w	r0, [sp, #22]
	.loc	7 4815 5 is_stmt 0              @ ../ThirdParty/STM32F4xx_HAL_Driver/Src/stm32f4xx_hal_i2c.c:4815:5
	ldr	r1, [sp, #24]
	.loc	7 4815 11                       @ ../ThirdParty/STM32F4xx_HAL_Driver/Src/stm32f4xx_hal_i2c.c:4815:11
	ldr	r1, [r1]
	.loc	7 4815 24                       @ ../ThirdParty/STM32F4xx_HAL_Driver/Src/stm32f4xx_hal_i2c.c:4815:24
	str	r0, [r1, #16]
.Ltmp257:
	.loc	7 4818 48 is_stmt 1             @ ../ThirdParty/STM32F4xx_HAL_Driver/Src/stm32f4xx_hal_i2c.c:4818:48
	ldr	r0, [sp, #24]
	.loc	7 4818 69 is_stmt 0             @ ../ThirdParty/STM32F4xx_HAL_Driver/Src/stm32f4xx_hal_i2c.c:4818:69
	ldr	r2, [sp, #16]
	.loc	7 4818 78                       @ ../ThirdParty/STM32F4xx_HAL_Driver/Src/stm32f4xx_hal_i2c.c:4818:78
	ldr	r3, [sp, #12]
	movs	r1, #2
	movt	r1, #1
	.loc	7 4818 8                        @ ../ThirdParty/STM32F4xx_HAL_Driver/Src/stm32f4xx_hal_i2c.c:4818:8
	bl	I2C_WaitOnMasterAddressFlagUntilTimeout
.Ltmp258:
	.loc	7 4818 8                        @ ../ThirdParty/STM32F4xx_HAL_Driver/Src/stm32f4xx_hal_i2c.c:4818:8
	cbz	r0, .LBB10_19
	b	.LBB10_16
.LBB10_16:
.Ltmp259:
	.loc	7 4820 10 is_stmt 1             @ ../ThirdParty/STM32F4xx_HAL_Driver/Src/stm32f4xx_hal_i2c.c:4820:10
	ldr	r0, [sp, #24]
	.loc	7 4820 16 is_stmt 0             @ ../ThirdParty/STM32F4xx_HAL_Driver/Src/stm32f4xx_hal_i2c.c:4820:16
	ldr	r0, [r0, #64]
.Ltmp260:
	.loc	7 4820 10                       @ ../ThirdParty/STM32F4xx_HAL_Driver/Src/stm32f4xx_hal_i2c.c:4820:10
	cmp	r0, #4
	bne	.LBB10_18
	b	.LBB10_17
.LBB10_17:
	.loc	7 0 10                          @ ../ThirdParty/STM32F4xx_HAL_Driver/Src/stm32f4xx_hal_i2c.c:0:10
	movs	r0, #1
.Ltmp261:
	.loc	7 4822 9 is_stmt 1              @ ../ThirdParty/STM32F4xx_HAL_Driver/Src/stm32f4xx_hal_i2c.c:4822:9
	strb.w	r0, [sp, #31]
	b	.LBB10_29
.Ltmp262:
.LBB10_18:
	.loc	7 0 9 is_stmt 0                 @ ../ThirdParty/STM32F4xx_HAL_Driver/Src/stm32f4xx_hal_i2c.c:0:9
	movs	r0, #3
.Ltmp263:
	.loc	7 4826 9 is_stmt 1              @ ../ThirdParty/STM32F4xx_HAL_Driver/Src/stm32f4xx_hal_i2c.c:4826:9
	strb.w	r0, [sp, #31]
	b	.LBB10_29
.Ltmp264:
.LBB10_19:
	.loc	7 4831 5                        @ ../ThirdParty/STM32F4xx_HAL_Driver/Src/stm32f4xx_hal_i2c.c:4831:5
	b	.LBB10_20
.LBB10_20:
	.loc	7 0 5 is_stmt 0                 @ ../ThirdParty/STM32F4xx_HAL_Driver/Src/stm32f4xx_hal_i2c.c:0:5
	movs	r0, #0
.Ltmp265:
	.loc	7 4831 5                        @ ../ThirdParty/STM32F4xx_HAL_Driver/Src/stm32f4xx_hal_i2c.c:4831:5
	str	r0, [sp, #4]
	ldr	r0, [sp, #24]
	ldr	r0, [r0]
	ldr	r0, [r0, #20]
	str	r0, [sp, #4]
	ldr	r0, [sp, #24]
	ldr	r0, [r0]
	ldr	r0, [r0, #24]
	str	r0, [sp, #4]
	ldr	r0, [sp, #4]
	b	.LBB10_21
.Ltmp266:
.LBB10_21:
	.loc	7 4834 5 is_stmt 1              @ ../ThirdParty/STM32F4xx_HAL_Driver/Src/stm32f4xx_hal_i2c.c:4834:5
	ldr	r0, [sp, #24]
	.loc	7 4834 11 is_stmt 0             @ ../ThirdParty/STM32F4xx_HAL_Driver/Src/stm32f4xx_hal_i2c.c:4834:11
	ldr	r1, [r0]
	.loc	7 4834 25                       @ ../ThirdParty/STM32F4xx_HAL_Driver/Src/stm32f4xx_hal_i2c.c:4834:25
	ldr	r0, [r1]
	orr	r0, r0, #256
	str	r0, [r1]
.Ltmp267:
	.loc	7 4837 35 is_stmt 1             @ ../ThirdParty/STM32F4xx_HAL_Driver/Src/stm32f4xx_hal_i2c.c:4837:35
	ldr	r0, [sp, #24]
	.loc	7 4837 61 is_stmt 0             @ ../ThirdParty/STM32F4xx_HAL_Driver/Src/stm32f4xx_hal_i2c.c:4837:61
	ldr	r3, [sp, #16]
	.loc	7 4837 70                       @ ../ThirdParty/STM32F4xx_HAL_Driver/Src/stm32f4xx_hal_i2c.c:4837:70
	ldr	r1, [sp, #12]
	.loc	7 4837 8                        @ ../ThirdParty/STM32F4xx_HAL_Driver/Src/stm32f4xx_hal_i2c.c:4837:8
	mov	r2, sp
	str	r1, [r2]
	mov.w	r1, #65537
	movs	r2, #0
	bl	I2C_WaitOnFlagUntilTimeout
.Ltmp268:
	.loc	7 4837 8                        @ ../ThirdParty/STM32F4xx_HAL_Driver/Src/stm32f4xx_hal_i2c.c:4837:8
	cbz	r0, .LBB10_23
	b	.LBB10_22
.LBB10_22:
	.loc	7 0 8                           @ ../ThirdParty/STM32F4xx_HAL_Driver/Src/stm32f4xx_hal_i2c.c:0:8
	movs	r0, #3
.Ltmp269:
	.loc	7 4839 7 is_stmt 1              @ ../ThirdParty/STM32F4xx_HAL_Driver/Src/stm32f4xx_hal_i2c.c:4839:7
	strb.w	r0, [sp, #31]
	b	.LBB10_29
.Ltmp270:
.LBB10_23:
	.loc	7 4843 26                       @ ../ThirdParty/STM32F4xx_HAL_Driver/Src/stm32f4xx_hal_i2c.c:4843:26
	ldrh.w	r0, [sp, #22]
	and	r0, r0, #768
	lsrs	r0, r0, #7
	adds	r0, #241
	.loc	7 4843 5 is_stmt 0              @ ../ThirdParty/STM32F4xx_HAL_Driver/Src/stm32f4xx_hal_i2c.c:4843:5
	ldr	r1, [sp, #24]
	.loc	7 4843 11                       @ ../ThirdParty/STM32F4xx_HAL_Driver/Src/stm32f4xx_hal_i2c.c:4843:11
	ldr	r1, [r1]
	.loc	7 4843 24                       @ ../ThirdParty/STM32F4xx_HAL_Driver/Src/stm32f4xx_hal_i2c.c:4843:24
	str	r0, [r1, #16]
	b	.LBB10_24
.Ltmp271:
.LBB10_24:
	.loc	7 4847 46 is_stmt 1             @ ../ThirdParty/STM32F4xx_HAL_Driver/Src/stm32f4xx_hal_i2c.c:4847:46
	ldr	r0, [sp, #24]
	.loc	7 4847 67 is_stmt 0             @ ../ThirdParty/STM32F4xx_HAL_Driver/Src/stm32f4xx_hal_i2c.c:4847:67
	ldr	r2, [sp, #16]
	.loc	7 4847 76                       @ ../ThirdParty/STM32F4xx_HAL_Driver/Src/stm32f4xx_hal_i2c.c:4847:76
	ldr	r3, [sp, #12]
	movs	r1, #2
	movt	r1, #1
	.loc	7 4847 6                        @ ../ThirdParty/STM32F4xx_HAL_Driver/Src/stm32f4xx_hal_i2c.c:4847:6
	bl	I2C_WaitOnMasterAddressFlagUntilTimeout
.Ltmp272:
	.loc	7 4847 6                        @ ../ThirdParty/STM32F4xx_HAL_Driver/Src/stm32f4xx_hal_i2c.c:4847:6
	cbz	r0, .LBB10_28
	b	.LBB10_25
.LBB10_25:
.Ltmp273:
	.loc	7 4849 8 is_stmt 1              @ ../ThirdParty/STM32F4xx_HAL_Driver/Src/stm32f4xx_hal_i2c.c:4849:8
	ldr	r0, [sp, #24]
	.loc	7 4849 14 is_stmt 0             @ ../ThirdParty/STM32F4xx_HAL_Driver/Src/stm32f4xx_hal_i2c.c:4849:14
	ldr	r0, [r0, #64]
.Ltmp274:
	.loc	7 4849 8                        @ ../ThirdParty/STM32F4xx_HAL_Driver/Src/stm32f4xx_hal_i2c.c:4849:8
	cmp	r0, #4
	bne	.LBB10_27
	b	.LBB10_26
.LBB10_26:
	.loc	7 0 8                           @ ../ThirdParty/STM32F4xx_HAL_Driver/Src/stm32f4xx_hal_i2c.c:0:8
	movs	r0, #1
.Ltmp275:
	.loc	7 4851 7 is_stmt 1              @ ../ThirdParty/STM32F4xx_HAL_Driver/Src/stm32f4xx_hal_i2c.c:4851:7
	strb.w	r0, [sp, #31]
	b	.LBB10_29
.Ltmp276:
.LBB10_27:
	.loc	7 0 7 is_stmt 0                 @ ../ThirdParty/STM32F4xx_HAL_Driver/Src/stm32f4xx_hal_i2c.c:0:7
	movs	r0, #3
.Ltmp277:
	.loc	7 4855 7 is_stmt 1              @ ../ThirdParty/STM32F4xx_HAL_Driver/Src/stm32f4xx_hal_i2c.c:4855:7
	strb.w	r0, [sp, #31]
	b	.LBB10_29
.Ltmp278:
.LBB10_28:
	.loc	7 0 7 is_stmt 0                 @ ../ThirdParty/STM32F4xx_HAL_Driver/Src/stm32f4xx_hal_i2c.c:0:7
	movs	r0, #0
	.loc	7 4859 3 is_stmt 1              @ ../ThirdParty/STM32F4xx_HAL_Driver/Src/stm32f4xx_hal_i2c.c:4859:3
	strb.w	r0, [sp, #31]
	b	.LBB10_29
.LBB10_29:
	.loc	7 4860 1                        @ ../ThirdParty/STM32F4xx_HAL_Driver/Src/stm32f4xx_hal_i2c.c:4860:1
	ldrb.w	r0, [sp, #31]
	.loc	7 4860 1 epilogue_begin is_stmt 0 @ ../ThirdParty/STM32F4xx_HAL_Driver/Src/stm32f4xx_hal_i2c.c:4860:1
	add	sp, #32
	pop	{r7, pc}
.Ltmp279:
.Lfunc_end10:
	.size	I2C_MasterRequestRead, .Lfunc_end10-I2C_MasterRequestRead
	.cfi_endproc
	.cantunwind
	.fnend
                                        @ -- End function
	.section	.text.I2C_WaitOnRXNEFlagUntilTimeout,"ax",%progbits
	.p2align	2                               @ -- Begin function I2C_WaitOnRXNEFlagUntilTimeout
	.type	I2C_WaitOnRXNEFlagUntilTimeout,%function
	.code	16                              @ @I2C_WaitOnRXNEFlagUntilTimeout
	.thumb_func
I2C_WaitOnRXNEFlagUntilTimeout:
.Lfunc_begin11:
	.loc	7 5421 0 is_stmt 1              @ ../ThirdParty/STM32F4xx_HAL_Driver/Src/stm32f4xx_hal_i2c.c:5421:0
	.fnstart
	.cfi_startproc
@ %bb.0:
	.save	{r7, lr}
	push	{r7, lr}
	.cfi_def_cfa_offset 8
	.cfi_offset lr, -4
	.cfi_offset r7, -8
	.pad	#16
	sub	sp, #16
	.cfi_def_cfa_offset 24
	str	r0, [sp, #8]
	str	r1, [sp, #4]
	str	r2, [sp]
.Ltmp280:
	.loc	7 5423 3 prologue_end           @ ../ThirdParty/STM32F4xx_HAL_Driver/Src/stm32f4xx_hal_i2c.c:5423:3
	b	.LBB11_1
.LBB11_1:                               @ =>This Inner Loop Header: Depth=1
	.loc	7 5423 9 is_stmt 0              @ ../ThirdParty/STM32F4xx_HAL_Driver/Src/stm32f4xx_hal_i2c.c:5423:9
	ldr	r0, [sp, #8]
	ldr	r0, [r0]
	ldr	r0, [r0, #20]
	and	r1, r0, #64
	movs	r0, #0
	.loc	7 5423 3                        @ ../ThirdParty/STM32F4xx_HAL_Driver/Src/stm32f4xx_hal_i2c.c:5423:3
	cmp.w	r0, r1, lsr #6
	bne	.LBB11_12
	b	.LBB11_2
.LBB11_2:                               @   in Loop: Header=BB11_1 Depth=1
.Ltmp281:
	.loc	7 5426 8 is_stmt 1              @ ../ThirdParty/STM32F4xx_HAL_Driver/Src/stm32f4xx_hal_i2c.c:5426:8
	ldr	r0, [sp, #8]
	ldr	r0, [r0]
	ldr	r0, [r0, #20]
	and	r1, r0, #16
	movs	r0, #1
.Ltmp282:
	.loc	7 5426 8 is_stmt 0              @ ../ThirdParty/STM32F4xx_HAL_Driver/Src/stm32f4xx_hal_i2c.c:5426:8
	cmp.w	r0, r1, lsr #4
	bne	.LBB11_6
	b	.LBB11_3
.LBB11_3:
.Ltmp283:
	.loc	7 5429 7 is_stmt 1              @ ../ThirdParty/STM32F4xx_HAL_Driver/Src/stm32f4xx_hal_i2c.c:5429:7
	ldr	r0, [sp, #8]
	ldr	r1, [r0]
	mvn	r0, #16
	str	r0, [r1, #20]
	.loc	7 5431 7                        @ ../ThirdParty/STM32F4xx_HAL_Driver/Src/stm32f4xx_hal_i2c.c:5431:7
	ldr	r1, [sp, #8]
	movs	r0, #0
	.loc	7 5431 23 is_stmt 0             @ ../ThirdParty/STM32F4xx_HAL_Driver/Src/stm32f4xx_hal_i2c.c:5431:23
	str	r0, [r1, #64]
	.loc	7 5432 7 is_stmt 1              @ ../ThirdParty/STM32F4xx_HAL_Driver/Src/stm32f4xx_hal_i2c.c:5432:7
	ldr	r1, [sp, #8]
	.loc	7 5432 27 is_stmt 0             @ ../ThirdParty/STM32F4xx_HAL_Driver/Src/stm32f4xx_hal_i2c.c:5432:27
	str	r0, [r1, #48]
	.loc	7 5433 7 is_stmt 1              @ ../ThirdParty/STM32F4xx_HAL_Driver/Src/stm32f4xx_hal_i2c.c:5433:7
	ldr	r1, [sp, #8]
	movs	r0, #32
	.loc	7 5433 18 is_stmt 0             @ ../ThirdParty/STM32F4xx_HAL_Driver/Src/stm32f4xx_hal_i2c.c:5433:18
	strb.w	r0, [r1, #61]
	.loc	7 5436 7 is_stmt 1              @ ../ThirdParty/STM32F4xx_HAL_Driver/Src/stm32f4xx_hal_i2c.c:5436:7
	b	.LBB11_4
.LBB11_4:
.Ltmp284:
	.loc	7 5436 7 is_stmt 0              @ ../ThirdParty/STM32F4xx_HAL_Driver/Src/stm32f4xx_hal_i2c.c:5436:7
	ldr	r1, [sp, #8]
	movs	r0, #0
	strb.w	r0, [r1, #60]
	b	.LBB11_5
.Ltmp285:
.LBB11_5:
	.loc	7 0 7                           @ ../ThirdParty/STM32F4xx_HAL_Driver/Src/stm32f4xx_hal_i2c.c:0:7
	movs	r0, #1
	.loc	7 5438 7 is_stmt 1              @ ../ThirdParty/STM32F4xx_HAL_Driver/Src/stm32f4xx_hal_i2c.c:5438:7
	strb.w	r0, [sp, #15]
	b	.LBB11_13
.Ltmp286:
.LBB11_6:                               @   in Loop: Header=BB11_1 Depth=1
	.loc	7 5442 9                        @ ../ThirdParty/STM32F4xx_HAL_Driver/Src/stm32f4xx_hal_i2c.c:5442:9
	ldr	r0, [sp, #4]
	.loc	7 5442 24 is_stmt 0             @ ../ThirdParty/STM32F4xx_HAL_Driver/Src/stm32f4xx_hal_i2c.c:5442:24
	cbz	r0, .LBB11_8
	b	.LBB11_7
.LBB11_7:                               @   in Loop: Header=BB11_1 Depth=1
	.loc	7 5442 29                       @ ../ThirdParty/STM32F4xx_HAL_Driver/Src/stm32f4xx_hal_i2c.c:5442:29
	bl	HAL_GetTick
	.loc	7 5442 43                       @ ../ThirdParty/STM32F4xx_HAL_Driver/Src/stm32f4xx_hal_i2c.c:5442:43
	ldr	r1, [sp]
	.loc	7 5442 42                       @ ../ThirdParty/STM32F4xx_HAL_Driver/Src/stm32f4xx_hal_i2c.c:5442:42
	subs	r0, r0, r1
	.loc	7 5442 56                       @ ../ThirdParty/STM32F4xx_HAL_Driver/Src/stm32f4xx_hal_i2c.c:5442:56
	ldr	r1, [sp, #4]
.Ltmp287:
	.loc	7 5442 8                        @ ../ThirdParty/STM32F4xx_HAL_Driver/Src/stm32f4xx_hal_i2c.c:5442:8
	cmp	r0, r1
	bls	.LBB11_11
	b	.LBB11_8
.LBB11_8:
.Ltmp288:
	.loc	7 5444 7 is_stmt 1              @ ../ThirdParty/STM32F4xx_HAL_Driver/Src/stm32f4xx_hal_i2c.c:5444:7
	ldr	r1, [sp, #8]
	.loc	7 5444 23 is_stmt 0             @ ../ThirdParty/STM32F4xx_HAL_Driver/Src/stm32f4xx_hal_i2c.c:5444:23
	ldr	r0, [r1, #64]
	orr	r0, r0, #32
	str	r0, [r1, #64]
	.loc	7 5445 7 is_stmt 1              @ ../ThirdParty/STM32F4xx_HAL_Driver/Src/stm32f4xx_hal_i2c.c:5445:7
	ldr	r1, [sp, #8]
	movs	r0, #32
	.loc	7 5445 18 is_stmt 0             @ ../ThirdParty/STM32F4xx_HAL_Driver/Src/stm32f4xx_hal_i2c.c:5445:18
	strb.w	r0, [r1, #61]
	.loc	7 5448 7 is_stmt 1              @ ../ThirdParty/STM32F4xx_HAL_Driver/Src/stm32f4xx_hal_i2c.c:5448:7
	b	.LBB11_9
.LBB11_9:
.Ltmp289:
	.loc	7 5448 7 is_stmt 0              @ ../ThirdParty/STM32F4xx_HAL_Driver/Src/stm32f4xx_hal_i2c.c:5448:7
	ldr	r1, [sp, #8]
	movs	r0, #0
	strb.w	r0, [r1, #60]
	b	.LBB11_10
.Ltmp290:
.LBB11_10:
	.loc	7 0 7                           @ ../ThirdParty/STM32F4xx_HAL_Driver/Src/stm32f4xx_hal_i2c.c:0:7
	movs	r0, #3
	.loc	7 5450 7 is_stmt 1              @ ../ThirdParty/STM32F4xx_HAL_Driver/Src/stm32f4xx_hal_i2c.c:5450:7
	strb.w	r0, [sp, #15]
	b	.LBB11_13
.Ltmp291:
.LBB11_11:                              @   in Loop: Header=BB11_1 Depth=1
	.loc	7 5423 3                        @ ../ThirdParty/STM32F4xx_HAL_Driver/Src/stm32f4xx_hal_i2c.c:5423:3
	b	.LBB11_1
.LBB11_12:
	.loc	7 0 3 is_stmt 0                 @ ../ThirdParty/STM32F4xx_HAL_Driver/Src/stm32f4xx_hal_i2c.c:0:3
	movs	r0, #0
	.loc	7 5453 3 is_stmt 1              @ ../ThirdParty/STM32F4xx_HAL_Driver/Src/stm32f4xx_hal_i2c.c:5453:3
	strb.w	r0, [sp, #15]
	b	.LBB11_13
.LBB11_13:
	.loc	7 5454 1                        @ ../ThirdParty/STM32F4xx_HAL_Driver/Src/stm32f4xx_hal_i2c.c:5454:1
	ldrb.w	r0, [sp, #15]
	.loc	7 5454 1 epilogue_begin is_stmt 0 @ ../ThirdParty/STM32F4xx_HAL_Driver/Src/stm32f4xx_hal_i2c.c:5454:1
	add	sp, #16
	pop	{r7, pc}
.Ltmp292:
.Lfunc_end11:
	.size	I2C_WaitOnRXNEFlagUntilTimeout, .Lfunc_end11-I2C_WaitOnRXNEFlagUntilTimeout
	.cfi_endproc
	.cantunwind
	.fnend
                                        @ -- End function
	.section	.text.HAL_I2C_Slave_Transmit,"ax",%progbits
	.hidden	HAL_I2C_Slave_Transmit          @ -- Begin function HAL_I2C_Slave_Transmit
	.globl	HAL_I2C_Slave_Transmit
	.p2align	2
	.type	HAL_I2C_Slave_Transmit,%function
	.code	16                              @ @HAL_I2C_Slave_Transmit
	.thumb_func
HAL_I2C_Slave_Transmit:
.Lfunc_begin12:
	.loc	7 939 0 is_stmt 1               @ ../ThirdParty/STM32F4xx_HAL_Driver/Src/stm32f4xx_hal_i2c.c:939:0
	.fnstart
	.cfi_startproc
@ %bb.0:
	.save	{r7, lr}
	push	{r7, lr}
	.cfi_def_cfa_offset 8
	.cfi_offset lr, -4
	.cfi_offset r7, -8
	.pad	#40
	sub	sp, #40
	.cfi_def_cfa_offset 48
                                        @ kill: def $r12 killed $r2
	str	r0, [sp, #32]
	str	r1, [sp, #28]
	strh.w	r2, [sp, #26]
	str	r3, [sp, #20]
	movs	r0, #0
.Ltmp293:
	.loc	7 940 12 prologue_end           @ ../ThirdParty/STM32F4xx_HAL_Driver/Src/stm32f4xx_hal_i2c.c:940:12
	str	r0, [sp, #16]
	.loc	7 943 15                        @ ../ThirdParty/STM32F4xx_HAL_Driver/Src/stm32f4xx_hal_i2c.c:943:15
	bl	HAL_GetTick
	.loc	7 943 13 is_stmt 0              @ ../ThirdParty/STM32F4xx_HAL_Driver/Src/stm32f4xx_hal_i2c.c:943:13
	str	r0, [sp, #16]
.Ltmp294:
	.loc	7 945 6 is_stmt 1               @ ../ThirdParty/STM32F4xx_HAL_Driver/Src/stm32f4xx_hal_i2c.c:945:6
	ldr	r0, [sp, #32]
	.loc	7 945 12 is_stmt 0              @ ../ThirdParty/STM32F4xx_HAL_Driver/Src/stm32f4xx_hal_i2c.c:945:12
	ldrb.w	r0, [r0, #61]
.Ltmp295:
	.loc	7 945 6                         @ ../ThirdParty/STM32F4xx_HAL_Driver/Src/stm32f4xx_hal_i2c.c:945:6
	cmp	r0, #32
	bne.w	.LBB12_36
	b	.LBB12_1
.LBB12_1:
.Ltmp296:
	.loc	7 947 9 is_stmt 1               @ ../ThirdParty/STM32F4xx_HAL_Driver/Src/stm32f4xx_hal_i2c.c:947:9
	ldr	r0, [sp, #28]
	.loc	7 947 24 is_stmt 0              @ ../ThirdParty/STM32F4xx_HAL_Driver/Src/stm32f4xx_hal_i2c.c:947:24
	cbz	r0, .LBB12_3
	b	.LBB12_2
.LBB12_2:
	.loc	7 947 28                        @ ../ThirdParty/STM32F4xx_HAL_Driver/Src/stm32f4xx_hal_i2c.c:947:28
	ldrh.w	r0, [sp, #26]
.Ltmp297:
	.loc	7 947 8                         @ ../ThirdParty/STM32F4xx_HAL_Driver/Src/stm32f4xx_hal_i2c.c:947:8
	cbnz	r0, .LBB12_4
	b	.LBB12_3
.LBB12_3:
	.loc	7 0 8                           @ ../ThirdParty/STM32F4xx_HAL_Driver/Src/stm32f4xx_hal_i2c.c:0:8
	movs	r0, #1
.Ltmp298:
	.loc	7 949 7 is_stmt 1               @ ../ThirdParty/STM32F4xx_HAL_Driver/Src/stm32f4xx_hal_i2c.c:949:7
	strb.w	r0, [sp, #39]
	b	.LBB12_37
.Ltmp299:
.LBB12_4:
	.loc	7 953 5                         @ ../ThirdParty/STM32F4xx_HAL_Driver/Src/stm32f4xx_hal_i2c.c:953:5
	b	.LBB12_5
.LBB12_5:
.Ltmp300:
	.loc	7 953 5 is_stmt 0               @ ../ThirdParty/STM32F4xx_HAL_Driver/Src/stm32f4xx_hal_i2c.c:953:5
	ldr	r0, [sp, #32]
	ldrb.w	r0, [r0, #60]
.Ltmp301:
	.loc	7 953 5                         @ ../ThirdParty/STM32F4xx_HAL_Driver/Src/stm32f4xx_hal_i2c.c:953:5
	cmp	r0, #1
	bne	.LBB12_7
	b	.LBB12_6
.LBB12_6:
	.loc	7 0 5                           @ ../ThirdParty/STM32F4xx_HAL_Driver/Src/stm32f4xx_hal_i2c.c:0:5
	movs	r0, #2
.Ltmp302:
	.loc	7 953 5                         @ ../ThirdParty/STM32F4xx_HAL_Driver/Src/stm32f4xx_hal_i2c.c:953:5
	strb.w	r0, [sp, #39]
	b	.LBB12_37
.Ltmp303:
.LBB12_7:
	.loc	7 953 5                         @ ../ThirdParty/STM32F4xx_HAL_Driver/Src/stm32f4xx_hal_i2c.c:953:5
	ldr	r1, [sp, #32]
	movs	r0, #1
	strb.w	r0, [r1, #60]
	b	.LBB12_8
.Ltmp304:
.LBB12_8:
	.loc	7 953 5                         @ ../ThirdParty/STM32F4xx_HAL_Driver/Src/stm32f4xx_hal_i2c.c:953:5
	b	.LBB12_9
.Ltmp305:
.LBB12_9:
	.loc	7 956 9 is_stmt 1               @ ../ThirdParty/STM32F4xx_HAL_Driver/Src/stm32f4xx_hal_i2c.c:956:9
	ldr	r0, [sp, #32]
	.loc	7 956 15 is_stmt 0              @ ../ThirdParty/STM32F4xx_HAL_Driver/Src/stm32f4xx_hal_i2c.c:956:15
	ldr	r0, [r0]
	.loc	7 956 25                        @ ../ThirdParty/STM32F4xx_HAL_Driver/Src/stm32f4xx_hal_i2c.c:956:25
	ldr	r0, [r0]
.Ltmp306:
	.loc	7 956 8                         @ ../ThirdParty/STM32F4xx_HAL_Driver/Src/stm32f4xx_hal_i2c.c:956:8
	lsls	r0, r0, #31
	cbnz	r0, .LBB12_11
	b	.LBB12_10
.LBB12_10:
.Ltmp307:
	.loc	7 959 7 is_stmt 1               @ ../ThirdParty/STM32F4xx_HAL_Driver/Src/stm32f4xx_hal_i2c.c:959:7
	ldr	r0, [sp, #32]
	ldr	r1, [r0]
	ldr	r0, [r1]
	orr	r0, r0, #1
	str	r0, [r1]
	.loc	7 960 5                         @ ../ThirdParty/STM32F4xx_HAL_Driver/Src/stm32f4xx_hal_i2c.c:960:5
	b	.LBB12_11
.Ltmp308:
.LBB12_11:
	.loc	7 963 5                         @ ../ThirdParty/STM32F4xx_HAL_Driver/Src/stm32f4xx_hal_i2c.c:963:5
	ldr	r0, [sp, #32]
	.loc	7 963 11 is_stmt 0              @ ../ThirdParty/STM32F4xx_HAL_Driver/Src/stm32f4xx_hal_i2c.c:963:11
	ldr	r1, [r0]
	.loc	7 963 25                        @ ../ThirdParty/STM32F4xx_HAL_Driver/Src/stm32f4xx_hal_i2c.c:963:25
	ldr	r0, [r1]
	bic	r0, r0, #2048
	str	r0, [r1]
	.loc	7 965 5 is_stmt 1               @ ../ThirdParty/STM32F4xx_HAL_Driver/Src/stm32f4xx_hal_i2c.c:965:5
	ldr	r1, [sp, #32]
	movs	r0, #33
	.loc	7 965 23 is_stmt 0              @ ../ThirdParty/STM32F4xx_HAL_Driver/Src/stm32f4xx_hal_i2c.c:965:23
	strb.w	r0, [r1, #61]
	.loc	7 966 5 is_stmt 1               @ ../ThirdParty/STM32F4xx_HAL_Driver/Src/stm32f4xx_hal_i2c.c:966:5
	ldr	r1, [sp, #32]
	movs	r0, #32
	.loc	7 966 23 is_stmt 0              @ ../ThirdParty/STM32F4xx_HAL_Driver/Src/stm32f4xx_hal_i2c.c:966:23
	strb.w	r0, [r1, #62]
	.loc	7 967 5 is_stmt 1               @ ../ThirdParty/STM32F4xx_HAL_Driver/Src/stm32f4xx_hal_i2c.c:967:5
	ldr	r0, [sp, #32]
	movs	r2, #0
	.loc	7 967 23 is_stmt 0              @ ../ThirdParty/STM32F4xx_HAL_Driver/Src/stm32f4xx_hal_i2c.c:967:23
	str	r2, [r0, #64]
	.loc	7 970 25 is_stmt 1              @ ../ThirdParty/STM32F4xx_HAL_Driver/Src/stm32f4xx_hal_i2c.c:970:25
	ldr	r0, [sp, #28]
	.loc	7 970 5 is_stmt 0               @ ../ThirdParty/STM32F4xx_HAL_Driver/Src/stm32f4xx_hal_i2c.c:970:5
	ldr	r1, [sp, #32]
	.loc	7 970 23                        @ ../ThirdParty/STM32F4xx_HAL_Driver/Src/stm32f4xx_hal_i2c.c:970:23
	str	r0, [r1, #36]
	.loc	7 971 25 is_stmt 1              @ ../ThirdParty/STM32F4xx_HAL_Driver/Src/stm32f4xx_hal_i2c.c:971:25
	ldrh.w	r0, [sp, #26]
	.loc	7 971 5 is_stmt 0               @ ../ThirdParty/STM32F4xx_HAL_Driver/Src/stm32f4xx_hal_i2c.c:971:5
	ldr	r1, [sp, #32]
	.loc	7 971 23                        @ ../ThirdParty/STM32F4xx_HAL_Driver/Src/stm32f4xx_hal_i2c.c:971:23
	strh	r0, [r1, #42]
	.loc	7 972 5 is_stmt 1               @ ../ThirdParty/STM32F4xx_HAL_Driver/Src/stm32f4xx_hal_i2c.c:972:5
	ldr	r1, [sp, #32]
	movs	r0, #0
	movt	r0, #65535
	.loc	7 972 23 is_stmt 0              @ ../ThirdParty/STM32F4xx_HAL_Driver/Src/stm32f4xx_hal_i2c.c:972:23
	str	r0, [r1, #44]
	.loc	7 973 25 is_stmt 1              @ ../ThirdParty/STM32F4xx_HAL_Driver/Src/stm32f4xx_hal_i2c.c:973:25
	ldr	r0, [sp, #32]
	.loc	7 973 31 is_stmt 0              @ ../ThirdParty/STM32F4xx_HAL_Driver/Src/stm32f4xx_hal_i2c.c:973:31
	ldrh	r0, [r0, #42]
	.loc	7 973 5                         @ ../ThirdParty/STM32F4xx_HAL_Driver/Src/stm32f4xx_hal_i2c.c:973:5
	ldr	r1, [sp, #32]
	.loc	7 973 23                        @ ../ThirdParty/STM32F4xx_HAL_Driver/Src/stm32f4xx_hal_i2c.c:973:23
	strh	r0, [r1, #40]
	.loc	7 976 5 is_stmt 1               @ ../ThirdParty/STM32F4xx_HAL_Driver/Src/stm32f4xx_hal_i2c.c:976:5
	ldr	r0, [sp, #32]
	.loc	7 976 11 is_stmt 0              @ ../ThirdParty/STM32F4xx_HAL_Driver/Src/stm32f4xx_hal_i2c.c:976:11
	ldr	r1, [r0]
	.loc	7 976 25                        @ ../ThirdParty/STM32F4xx_HAL_Driver/Src/stm32f4xx_hal_i2c.c:976:25
	ldr	r0, [r1]
	orr	r0, r0, #1024
	str	r0, [r1]
.Ltmp309:
	.loc	7 979 35 is_stmt 1              @ ../ThirdParty/STM32F4xx_HAL_Driver/Src/stm32f4xx_hal_i2c.c:979:35
	ldr	r0, [sp, #32]
	.loc	7 979 63 is_stmt 0              @ ../ThirdParty/STM32F4xx_HAL_Driver/Src/stm32f4xx_hal_i2c.c:979:63
	ldr	r3, [sp, #20]
	.loc	7 979 72                        @ ../ThirdParty/STM32F4xx_HAL_Driver/Src/stm32f4xx_hal_i2c.c:979:72
	ldr	r1, [sp, #16]
	.loc	7 979 8                         @ ../ThirdParty/STM32F4xx_HAL_Driver/Src/stm32f4xx_hal_i2c.c:979:8
	mov	r12, sp
	str.w	r1, [r12]
	movs	r1, #2
	movt	r1, #1
	bl	I2C_WaitOnFlagUntilTimeout
.Ltmp310:
	.loc	7 979 8                         @ ../ThirdParty/STM32F4xx_HAL_Driver/Src/stm32f4xx_hal_i2c.c:979:8
	cbz	r0, .LBB12_13
	b	.LBB12_12
.LBB12_12:
	.loc	7 0 8                           @ ../ThirdParty/STM32F4xx_HAL_Driver/Src/stm32f4xx_hal_i2c.c:0:8
	movs	r0, #3
.Ltmp311:
	.loc	7 981 7 is_stmt 1               @ ../ThirdParty/STM32F4xx_HAL_Driver/Src/stm32f4xx_hal_i2c.c:981:7
	strb.w	r0, [sp, #39]
	b	.LBB12_37
.Ltmp312:
.LBB12_13:
	.loc	7 985 5                         @ ../ThirdParty/STM32F4xx_HAL_Driver/Src/stm32f4xx_hal_i2c.c:985:5
	b	.LBB12_14
.LBB12_14:
	.loc	7 0 5 is_stmt 0                 @ ../ThirdParty/STM32F4xx_HAL_Driver/Src/stm32f4xx_hal_i2c.c:0:5
	movs	r0, #0
.Ltmp313:
	.loc	7 985 5                         @ ../ThirdParty/STM32F4xx_HAL_Driver/Src/stm32f4xx_hal_i2c.c:985:5
	str	r0, [sp, #12]
	ldr	r0, [sp, #32]
	ldr	r0, [r0]
	ldr	r0, [r0, #20]
	str	r0, [sp, #12]
	ldr	r0, [sp, #32]
	ldr	r0, [r0]
	ldr	r0, [r0, #24]
	str	r0, [sp, #12]
	ldr	r0, [sp, #12]
	b	.LBB12_15
.Ltmp314:
.LBB12_15:
	.loc	7 988 8 is_stmt 1               @ ../ThirdParty/STM32F4xx_HAL_Driver/Src/stm32f4xx_hal_i2c.c:988:8
	ldr	r0, [sp, #32]
	.loc	7 988 19 is_stmt 0              @ ../ThirdParty/STM32F4xx_HAL_Driver/Src/stm32f4xx_hal_i2c.c:988:19
	ldr	r0, [r0, #16]
.Ltmp315:
	.loc	7 988 8                         @ ../ThirdParty/STM32F4xx_HAL_Driver/Src/stm32f4xx_hal_i2c.c:988:8
	cmp.w	r0, #49152
	bne	.LBB12_21
	b	.LBB12_16
.LBB12_16:
.Ltmp316:
	.loc	7 991 37 is_stmt 1              @ ../ThirdParty/STM32F4xx_HAL_Driver/Src/stm32f4xx_hal_i2c.c:991:37
	ldr	r0, [sp, #32]
	.loc	7 991 65 is_stmt 0              @ ../ThirdParty/STM32F4xx_HAL_Driver/Src/stm32f4xx_hal_i2c.c:991:65
	ldr	r3, [sp, #20]
	.loc	7 991 74                        @ ../ThirdParty/STM32F4xx_HAL_Driver/Src/stm32f4xx_hal_i2c.c:991:74
	ldr	r1, [sp, #16]
	.loc	7 991 10                        @ ../ThirdParty/STM32F4xx_HAL_Driver/Src/stm32f4xx_hal_i2c.c:991:10
	mov	r2, sp
	str	r1, [r2]
	movs	r1, #2
	movt	r1, #1
	movs	r2, #0
	bl	I2C_WaitOnFlagUntilTimeout
.Ltmp317:
	.loc	7 991 10                        @ ../ThirdParty/STM32F4xx_HAL_Driver/Src/stm32f4xx_hal_i2c.c:991:10
	cbz	r0, .LBB12_18
	b	.LBB12_17
.LBB12_17:
	.loc	7 0 10                          @ ../ThirdParty/STM32F4xx_HAL_Driver/Src/stm32f4xx_hal_i2c.c:0:10
	movs	r0, #3
.Ltmp318:
	.loc	7 993 9 is_stmt 1               @ ../ThirdParty/STM32F4xx_HAL_Driver/Src/stm32f4xx_hal_i2c.c:993:9
	strb.w	r0, [sp, #39]
	b	.LBB12_37
.Ltmp319:
.LBB12_18:
	.loc	7 997 7                         @ ../ThirdParty/STM32F4xx_HAL_Driver/Src/stm32f4xx_hal_i2c.c:997:7
	b	.LBB12_19
.LBB12_19:
	.loc	7 0 7 is_stmt 0                 @ ../ThirdParty/STM32F4xx_HAL_Driver/Src/stm32f4xx_hal_i2c.c:0:7
	movs	r0, #0
.Ltmp320:
	.loc	7 997 7                         @ ../ThirdParty/STM32F4xx_HAL_Driver/Src/stm32f4xx_hal_i2c.c:997:7
	str	r0, [sp, #8]
	ldr	r0, [sp, #32]
	ldr	r0, [r0]
	ldr	r0, [r0, #20]
	str	r0, [sp, #8]
	ldr	r0, [sp, #32]
	ldr	r0, [r0]
	ldr	r0, [r0, #24]
	str	r0, [sp, #8]
	ldr	r0, [sp, #8]
	b	.LBB12_20
.Ltmp321:
.LBB12_20:
	.loc	7 998 5 is_stmt 1               @ ../ThirdParty/STM32F4xx_HAL_Driver/Src/stm32f4xx_hal_i2c.c:998:5
	b	.LBB12_21
.Ltmp322:
.LBB12_21:
	.loc	7 1000 5                        @ ../ThirdParty/STM32F4xx_HAL_Driver/Src/stm32f4xx_hal_i2c.c:1000:5
	b	.LBB12_22
.LBB12_22:                              @ =>This Inner Loop Header: Depth=1
	.loc	7 1000 11 is_stmt 0             @ ../ThirdParty/STM32F4xx_HAL_Driver/Src/stm32f4xx_hal_i2c.c:1000:11
	ldr	r0, [sp, #32]
	.loc	7 1000 17                       @ ../ThirdParty/STM32F4xx_HAL_Driver/Src/stm32f4xx_hal_i2c.c:1000:17
	ldrh	r0, [r0, #40]
	.loc	7 1000 5                        @ ../ThirdParty/STM32F4xx_HAL_Driver/Src/stm32f4xx_hal_i2c.c:1000:5
	cmp	r0, #0
	beq	.LBB12_31
	b	.LBB12_23
.LBB12_23:                              @   in Loop: Header=BB12_22 Depth=1
.Ltmp323:
	.loc	7 1003 40 is_stmt 1             @ ../ThirdParty/STM32F4xx_HAL_Driver/Src/stm32f4xx_hal_i2c.c:1003:40
	ldr	r0, [sp, #32]
	.loc	7 1003 46 is_stmt 0             @ ../ThirdParty/STM32F4xx_HAL_Driver/Src/stm32f4xx_hal_i2c.c:1003:46
	ldr	r1, [sp, #20]
	.loc	7 1003 55                       @ ../ThirdParty/STM32F4xx_HAL_Driver/Src/stm32f4xx_hal_i2c.c:1003:55
	ldr	r2, [sp, #16]
	.loc	7 1003 10                       @ ../ThirdParty/STM32F4xx_HAL_Driver/Src/stm32f4xx_hal_i2c.c:1003:10
	bl	I2C_WaitOnTXEFlagUntilTimeout
.Ltmp324:
	.loc	7 1003 10                       @ ../ThirdParty/STM32F4xx_HAL_Driver/Src/stm32f4xx_hal_i2c.c:1003:10
	cbz	r0, .LBB12_27
	b	.LBB12_24
.LBB12_24:
.Ltmp325:
	.loc	7 1006 9 is_stmt 1              @ ../ThirdParty/STM32F4xx_HAL_Driver/Src/stm32f4xx_hal_i2c.c:1006:9
	ldr	r0, [sp, #32]
	.loc	7 1006 15 is_stmt 0             @ ../ThirdParty/STM32F4xx_HAL_Driver/Src/stm32f4xx_hal_i2c.c:1006:15
	ldr	r1, [r0]
	.loc	7 1006 29                       @ ../ThirdParty/STM32F4xx_HAL_Driver/Src/stm32f4xx_hal_i2c.c:1006:29
	ldr	r0, [r1]
	bic	r0, r0, #1024
	str	r0, [r1]
.Ltmp326:
	.loc	7 1008 12 is_stmt 1             @ ../ThirdParty/STM32F4xx_HAL_Driver/Src/stm32f4xx_hal_i2c.c:1008:12
	ldr	r0, [sp, #32]
	.loc	7 1008 18 is_stmt 0             @ ../ThirdParty/STM32F4xx_HAL_Driver/Src/stm32f4xx_hal_i2c.c:1008:18
	ldr	r0, [r0, #64]
.Ltmp327:
	.loc	7 1008 12                       @ ../ThirdParty/STM32F4xx_HAL_Driver/Src/stm32f4xx_hal_i2c.c:1008:12
	cmp	r0, #4
	bne	.LBB12_26
	b	.LBB12_25
.LBB12_25:
	.loc	7 0 12                          @ ../ThirdParty/STM32F4xx_HAL_Driver/Src/stm32f4xx_hal_i2c.c:0:12
	movs	r0, #1
.Ltmp328:
	.loc	7 1010 11 is_stmt 1             @ ../ThirdParty/STM32F4xx_HAL_Driver/Src/stm32f4xx_hal_i2c.c:1010:11
	strb.w	r0, [sp, #39]
	b	.LBB12_37
.Ltmp329:
.LBB12_26:
	.loc	7 0 11 is_stmt 0                @ ../ThirdParty/STM32F4xx_HAL_Driver/Src/stm32f4xx_hal_i2c.c:0:11
	movs	r0, #3
.Ltmp330:
	.loc	7 1014 11 is_stmt 1             @ ../ThirdParty/STM32F4xx_HAL_Driver/Src/stm32f4xx_hal_i2c.c:1014:11
	strb.w	r0, [sp, #39]
	b	.LBB12_37
.Ltmp331:
.LBB12_27:                              @   in Loop: Header=BB12_22 Depth=1
	.loc	7 1019 30                       @ ../ThirdParty/STM32F4xx_HAL_Driver/Src/stm32f4xx_hal_i2c.c:1019:30
	ldr	r2, [sp, #32]
	.loc	7 1019 44 is_stmt 0             @ ../ThirdParty/STM32F4xx_HAL_Driver/Src/stm32f4xx_hal_i2c.c:1019:44
	ldr	r0, [r2, #36]
	adds	r1, r0, #1
	str	r1, [r2, #36]
	.loc	7 1019 29                       @ ../ThirdParty/STM32F4xx_HAL_Driver/Src/stm32f4xx_hal_i2c.c:1019:29
	ldrb	r0, [r0]
	.loc	7 1019 7                        @ ../ThirdParty/STM32F4xx_HAL_Driver/Src/stm32f4xx_hal_i2c.c:1019:7
	ldr	r1, [sp, #32]
	.loc	7 1019 13                       @ ../ThirdParty/STM32F4xx_HAL_Driver/Src/stm32f4xx_hal_i2c.c:1019:13
	ldr	r1, [r1]
	.loc	7 1019 26                       @ ../ThirdParty/STM32F4xx_HAL_Driver/Src/stm32f4xx_hal_i2c.c:1019:26
	str	r0, [r1, #16]
	.loc	7 1020 7 is_stmt 1              @ ../ThirdParty/STM32F4xx_HAL_Driver/Src/stm32f4xx_hal_i2c.c:1020:7
	ldr	r1, [sp, #32]
	.loc	7 1020 22 is_stmt 0             @ ../ThirdParty/STM32F4xx_HAL_Driver/Src/stm32f4xx_hal_i2c.c:1020:22
	ldrh	r0, [r1, #42]
	subs	r0, #1
	strh	r0, [r1, #42]
	.loc	7 1021 7 is_stmt 1              @ ../ThirdParty/STM32F4xx_HAL_Driver/Src/stm32f4xx_hal_i2c.c:1021:7
	ldr	r1, [sp, #32]
	.loc	7 1021 21 is_stmt 0             @ ../ThirdParty/STM32F4xx_HAL_Driver/Src/stm32f4xx_hal_i2c.c:1021:21
	ldrh	r0, [r1, #40]
	subs	r0, #1
	strh	r0, [r1, #40]
.Ltmp332:
	.loc	7 1023 11 is_stmt 1             @ ../ThirdParty/STM32F4xx_HAL_Driver/Src/stm32f4xx_hal_i2c.c:1023:11
	ldr	r0, [sp, #32]
	ldr	r0, [r0]
	ldr	r0, [r0, #20]
	and	r1, r0, #4
	movs	r0, #1
	.loc	7 1023 58 is_stmt 0             @ ../ThirdParty/STM32F4xx_HAL_Driver/Src/stm32f4xx_hal_i2c.c:1023:58
	cmp.w	r0, r1, lsr #2
	bne	.LBB12_30
	b	.LBB12_28
.LBB12_28:                              @   in Loop: Header=BB12_22 Depth=1
	.loc	7 1023 62                       @ ../ThirdParty/STM32F4xx_HAL_Driver/Src/stm32f4xx_hal_i2c.c:1023:62
	ldr	r0, [sp, #32]
	.loc	7 1023 68                       @ ../ThirdParty/STM32F4xx_HAL_Driver/Src/stm32f4xx_hal_i2c.c:1023:68
	ldrh	r0, [r0, #40]
.Ltmp333:
	.loc	7 1023 10                       @ ../ThirdParty/STM32F4xx_HAL_Driver/Src/stm32f4xx_hal_i2c.c:1023:10
	cbz	r0, .LBB12_30
	b	.LBB12_29
.LBB12_29:                              @   in Loop: Header=BB12_22 Depth=1
.Ltmp334:
	.loc	7 1026 32 is_stmt 1             @ ../ThirdParty/STM32F4xx_HAL_Driver/Src/stm32f4xx_hal_i2c.c:1026:32
	ldr	r2, [sp, #32]
	.loc	7 1026 46 is_stmt 0             @ ../ThirdParty/STM32F4xx_HAL_Driver/Src/stm32f4xx_hal_i2c.c:1026:46
	ldr	r0, [r2, #36]
	adds	r1, r0, #1
	str	r1, [r2, #36]
	.loc	7 1026 31                       @ ../ThirdParty/STM32F4xx_HAL_Driver/Src/stm32f4xx_hal_i2c.c:1026:31
	ldrb	r0, [r0]
	.loc	7 1026 9                        @ ../ThirdParty/STM32F4xx_HAL_Driver/Src/stm32f4xx_hal_i2c.c:1026:9
	ldr	r1, [sp, #32]
	.loc	7 1026 15                       @ ../ThirdParty/STM32F4xx_HAL_Driver/Src/stm32f4xx_hal_i2c.c:1026:15
	ldr	r1, [r1]
	.loc	7 1026 28                       @ ../ThirdParty/STM32F4xx_HAL_Driver/Src/stm32f4xx_hal_i2c.c:1026:28
	str	r0, [r1, #16]
	.loc	7 1027 9 is_stmt 1              @ ../ThirdParty/STM32F4xx_HAL_Driver/Src/stm32f4xx_hal_i2c.c:1027:9
	ldr	r1, [sp, #32]
	.loc	7 1027 24 is_stmt 0             @ ../ThirdParty/STM32F4xx_HAL_Driver/Src/stm32f4xx_hal_i2c.c:1027:24
	ldrh	r0, [r1, #42]
	subs	r0, #1
	strh	r0, [r1, #42]
	.loc	7 1028 9 is_stmt 1              @ ../ThirdParty/STM32F4xx_HAL_Driver/Src/stm32f4xx_hal_i2c.c:1028:9
	ldr	r1, [sp, #32]
	.loc	7 1028 23 is_stmt 0             @ ../ThirdParty/STM32F4xx_HAL_Driver/Src/stm32f4xx_hal_i2c.c:1028:23
	ldrh	r0, [r1, #40]
	subs	r0, #1
	strh	r0, [r1, #40]
	.loc	7 1029 7 is_stmt 1              @ ../ThirdParty/STM32F4xx_HAL_Driver/Src/stm32f4xx_hal_i2c.c:1029:7
	b	.LBB12_30
.Ltmp335:
.LBB12_30:                              @   in Loop: Header=BB12_22 Depth=1
	.loc	7 1000 5                        @ ../ThirdParty/STM32F4xx_HAL_Driver/Src/stm32f4xx_hal_i2c.c:1000:5
	b	.LBB12_22
.LBB12_31:
.Ltmp336:
	.loc	7 1033 35                       @ ../ThirdParty/STM32F4xx_HAL_Driver/Src/stm32f4xx_hal_i2c.c:1033:35
	ldr	r0, [sp, #32]
	.loc	7 1033 61 is_stmt 0             @ ../ThirdParty/STM32F4xx_HAL_Driver/Src/stm32f4xx_hal_i2c.c:1033:61
	ldr	r3, [sp, #20]
	.loc	7 1033 70                       @ ../ThirdParty/STM32F4xx_HAL_Driver/Src/stm32f4xx_hal_i2c.c:1033:70
	ldr	r1, [sp, #16]
	.loc	7 1033 8                        @ ../ThirdParty/STM32F4xx_HAL_Driver/Src/stm32f4xx_hal_i2c.c:1033:8
	mov	r2, sp
	str	r1, [r2]
	mov.w	r1, #66560
	movs	r2, #0
	bl	I2C_WaitOnFlagUntilTimeout
.Ltmp337:
	.loc	7 1033 8                        @ ../ThirdParty/STM32F4xx_HAL_Driver/Src/stm32f4xx_hal_i2c.c:1033:8
	cbz	r0, .LBB12_33
	b	.LBB12_32
.LBB12_32:
	.loc	7 0 8                           @ ../ThirdParty/STM32F4xx_HAL_Driver/Src/stm32f4xx_hal_i2c.c:0:8
	movs	r0, #3
.Ltmp338:
	.loc	7 1035 7 is_stmt 1              @ ../ThirdParty/STM32F4xx_HAL_Driver/Src/stm32f4xx_hal_i2c.c:1035:7
	strb.w	r0, [sp, #39]
	b	.LBB12_37
.Ltmp339:
.LBB12_33:
	.loc	7 1039 5                        @ ../ThirdParty/STM32F4xx_HAL_Driver/Src/stm32f4xx_hal_i2c.c:1039:5
	ldr	r0, [sp, #32]
	ldr	r1, [r0]
	mvn	r0, #1024
	str	r0, [r1, #20]
	.loc	7 1042 5                        @ ../ThirdParty/STM32F4xx_HAL_Driver/Src/stm32f4xx_hal_i2c.c:1042:5
	ldr	r0, [sp, #32]
	.loc	7 1042 11 is_stmt 0             @ ../ThirdParty/STM32F4xx_HAL_Driver/Src/stm32f4xx_hal_i2c.c:1042:11
	ldr	r1, [r0]
	.loc	7 1042 25                       @ ../ThirdParty/STM32F4xx_HAL_Driver/Src/stm32f4xx_hal_i2c.c:1042:25
	ldr	r0, [r1]
	bic	r0, r0, #1024
	str	r0, [r1]
	.loc	7 1044 5 is_stmt 1              @ ../ThirdParty/STM32F4xx_HAL_Driver/Src/stm32f4xx_hal_i2c.c:1044:5
	ldr	r1, [sp, #32]
	movs	r0, #32
	.loc	7 1044 17 is_stmt 0             @ ../ThirdParty/STM32F4xx_HAL_Driver/Src/stm32f4xx_hal_i2c.c:1044:17
	strb.w	r0, [r1, #61]
	.loc	7 1045 5 is_stmt 1              @ ../ThirdParty/STM32F4xx_HAL_Driver/Src/stm32f4xx_hal_i2c.c:1045:5
	ldr	r1, [sp, #32]
	movs	r0, #0
	.loc	7 1045 16 is_stmt 0             @ ../ThirdParty/STM32F4xx_HAL_Driver/Src/stm32f4xx_hal_i2c.c:1045:16
	strb.w	r0, [r1, #62]
	.loc	7 1048 5 is_stmt 1              @ ../ThirdParty/STM32F4xx_HAL_Driver/Src/stm32f4xx_hal_i2c.c:1048:5
	b	.LBB12_34
.LBB12_34:
.Ltmp340:
	.loc	7 1048 5 is_stmt 0              @ ../ThirdParty/STM32F4xx_HAL_Driver/Src/stm32f4xx_hal_i2c.c:1048:5
	ldr	r1, [sp, #32]
	movs	r0, #0
	strb.w	r0, [r1, #60]
	b	.LBB12_35
.Ltmp341:
.LBB12_35:
	.loc	7 0 5                           @ ../ThirdParty/STM32F4xx_HAL_Driver/Src/stm32f4xx_hal_i2c.c:0:5
	movs	r0, #0
	.loc	7 1050 5 is_stmt 1              @ ../ThirdParty/STM32F4xx_HAL_Driver/Src/stm32f4xx_hal_i2c.c:1050:5
	strb.w	r0, [sp, #39]
	b	.LBB12_37
.Ltmp342:
.LBB12_36:
	.loc	7 0 5 is_stmt 0                 @ ../ThirdParty/STM32F4xx_HAL_Driver/Src/stm32f4xx_hal_i2c.c:0:5
	movs	r0, #2
.Ltmp343:
	.loc	7 1054 5 is_stmt 1              @ ../ThirdParty/STM32F4xx_HAL_Driver/Src/stm32f4xx_hal_i2c.c:1054:5
	strb.w	r0, [sp, #39]
	b	.LBB12_37
.Ltmp344:
.LBB12_37:
	.loc	7 1056 1                        @ ../ThirdParty/STM32F4xx_HAL_Driver/Src/stm32f4xx_hal_i2c.c:1056:1
	ldrb.w	r0, [sp, #39]
	.loc	7 1056 1 epilogue_begin is_stmt 0 @ ../ThirdParty/STM32F4xx_HAL_Driver/Src/stm32f4xx_hal_i2c.c:1056:1
	add	sp, #40
	pop	{r7, pc}
.Ltmp345:
.Lfunc_end12:
	.size	HAL_I2C_Slave_Transmit, .Lfunc_end12-HAL_I2C_Slave_Transmit
	.cfi_endproc
	.cantunwind
	.fnend
                                        @ -- End function
	.section	.text.HAL_I2C_Slave_Receive,"ax",%progbits
	.hidden	HAL_I2C_Slave_Receive           @ -- Begin function HAL_I2C_Slave_Receive
	.globl	HAL_I2C_Slave_Receive
	.p2align	2
	.type	HAL_I2C_Slave_Receive,%function
	.code	16                              @ @HAL_I2C_Slave_Receive
	.thumb_func
HAL_I2C_Slave_Receive:
.Lfunc_begin13:
	.loc	7 1068 0 is_stmt 1              @ ../ThirdParty/STM32F4xx_HAL_Driver/Src/stm32f4xx_hal_i2c.c:1068:0
	.fnstart
	.cfi_startproc
@ %bb.0:
	.save	{r7, lr}
	push	{r7, lr}
	.cfi_def_cfa_offset 8
	.cfi_offset lr, -4
	.cfi_offset r7, -8
	.pad	#40
	sub	sp, #40
	.cfi_def_cfa_offset 48
                                        @ kill: def $r12 killed $r2
	str	r0, [sp, #32]
	str	r1, [sp, #28]
	strh.w	r2, [sp, #26]
	str	r3, [sp, #20]
	movs	r0, #0
.Ltmp346:
	.loc	7 1069 12 prologue_end          @ ../ThirdParty/STM32F4xx_HAL_Driver/Src/stm32f4xx_hal_i2c.c:1069:12
	str	r0, [sp, #16]
	.loc	7 1072 15                       @ ../ThirdParty/STM32F4xx_HAL_Driver/Src/stm32f4xx_hal_i2c.c:1072:15
	bl	HAL_GetTick
	.loc	7 1072 13 is_stmt 0             @ ../ThirdParty/STM32F4xx_HAL_Driver/Src/stm32f4xx_hal_i2c.c:1072:13
	str	r0, [sp, #16]
.Ltmp347:
	.loc	7 1074 6 is_stmt 1              @ ../ThirdParty/STM32F4xx_HAL_Driver/Src/stm32f4xx_hal_i2c.c:1074:6
	ldr	r0, [sp, #32]
	.loc	7 1074 12 is_stmt 0             @ ../ThirdParty/STM32F4xx_HAL_Driver/Src/stm32f4xx_hal_i2c.c:1074:12
	ldrb.w	r0, [r0, #61]
.Ltmp348:
	.loc	7 1074 6                        @ ../ThirdParty/STM32F4xx_HAL_Driver/Src/stm32f4xx_hal_i2c.c:1074:6
	cmp	r0, #32
	bne.w	.LBB13_34
	b	.LBB13_1
.LBB13_1:
.Ltmp349:
	.loc	7 1076 9 is_stmt 1              @ ../ThirdParty/STM32F4xx_HAL_Driver/Src/stm32f4xx_hal_i2c.c:1076:9
	ldr	r0, [sp, #28]
	.loc	7 1076 24 is_stmt 0             @ ../ThirdParty/STM32F4xx_HAL_Driver/Src/stm32f4xx_hal_i2c.c:1076:24
	cbz	r0, .LBB13_3
	b	.LBB13_2
.LBB13_2:
	.loc	7 1076 28                       @ ../ThirdParty/STM32F4xx_HAL_Driver/Src/stm32f4xx_hal_i2c.c:1076:28
	ldrh.w	r0, [sp, #26]
.Ltmp350:
	.loc	7 1076 8                        @ ../ThirdParty/STM32F4xx_HAL_Driver/Src/stm32f4xx_hal_i2c.c:1076:8
	cbnz	r0, .LBB13_4
	b	.LBB13_3
.LBB13_3:
	.loc	7 0 8                           @ ../ThirdParty/STM32F4xx_HAL_Driver/Src/stm32f4xx_hal_i2c.c:0:8
	movs	r0, #1
.Ltmp351:
	.loc	7 1078 7 is_stmt 1              @ ../ThirdParty/STM32F4xx_HAL_Driver/Src/stm32f4xx_hal_i2c.c:1078:7
	strb.w	r0, [sp, #39]
	b	.LBB13_35
.Ltmp352:
.LBB13_4:
	.loc	7 1082 5                        @ ../ThirdParty/STM32F4xx_HAL_Driver/Src/stm32f4xx_hal_i2c.c:1082:5
	b	.LBB13_5
.LBB13_5:
.Ltmp353:
	.loc	7 1082 5 is_stmt 0              @ ../ThirdParty/STM32F4xx_HAL_Driver/Src/stm32f4xx_hal_i2c.c:1082:5
	ldr	r0, [sp, #32]
	ldrb.w	r0, [r0, #60]
.Ltmp354:
	.loc	7 1082 5                        @ ../ThirdParty/STM32F4xx_HAL_Driver/Src/stm32f4xx_hal_i2c.c:1082:5
	cmp	r0, #1
	bne	.LBB13_7
	b	.LBB13_6
.LBB13_6:
	.loc	7 0 5                           @ ../ThirdParty/STM32F4xx_HAL_Driver/Src/stm32f4xx_hal_i2c.c:0:5
	movs	r0, #2
.Ltmp355:
	.loc	7 1082 5                        @ ../ThirdParty/STM32F4xx_HAL_Driver/Src/stm32f4xx_hal_i2c.c:1082:5
	strb.w	r0, [sp, #39]
	b	.LBB13_35
.Ltmp356:
.LBB13_7:
	.loc	7 1082 5                        @ ../ThirdParty/STM32F4xx_HAL_Driver/Src/stm32f4xx_hal_i2c.c:1082:5
	ldr	r1, [sp, #32]
	movs	r0, #1
	strb.w	r0, [r1, #60]
	b	.LBB13_8
.Ltmp357:
.LBB13_8:
	.loc	7 1082 5                        @ ../ThirdParty/STM32F4xx_HAL_Driver/Src/stm32f4xx_hal_i2c.c:1082:5
	b	.LBB13_9
.Ltmp358:
.LBB13_9:
	.loc	7 1085 9 is_stmt 1              @ ../ThirdParty/STM32F4xx_HAL_Driver/Src/stm32f4xx_hal_i2c.c:1085:9
	ldr	r0, [sp, #32]
	.loc	7 1085 15 is_stmt 0             @ ../ThirdParty/STM32F4xx_HAL_Driver/Src/stm32f4xx_hal_i2c.c:1085:15
	ldr	r0, [r0]
	.loc	7 1085 25                       @ ../ThirdParty/STM32F4xx_HAL_Driver/Src/stm32f4xx_hal_i2c.c:1085:25
	ldr	r0, [r0]
.Ltmp359:
	.loc	7 1085 8                        @ ../ThirdParty/STM32F4xx_HAL_Driver/Src/stm32f4xx_hal_i2c.c:1085:8
	lsls	r0, r0, #31
	cbnz	r0, .LBB13_11
	b	.LBB13_10
.LBB13_10:
.Ltmp360:
	.loc	7 1088 7 is_stmt 1              @ ../ThirdParty/STM32F4xx_HAL_Driver/Src/stm32f4xx_hal_i2c.c:1088:7
	ldr	r0, [sp, #32]
	ldr	r1, [r0]
	ldr	r0, [r1]
	orr	r0, r0, #1
	str	r0, [r1]
	.loc	7 1089 5                        @ ../ThirdParty/STM32F4xx_HAL_Driver/Src/stm32f4xx_hal_i2c.c:1089:5
	b	.LBB13_11
.Ltmp361:
.LBB13_11:
	.loc	7 1092 5                        @ ../ThirdParty/STM32F4xx_HAL_Driver/Src/stm32f4xx_hal_i2c.c:1092:5
	ldr	r0, [sp, #32]
	.loc	7 1092 11 is_stmt 0             @ ../ThirdParty/STM32F4xx_HAL_Driver/Src/stm32f4xx_hal_i2c.c:1092:11
	ldr	r1, [r0]
	.loc	7 1092 25                       @ ../ThirdParty/STM32F4xx_HAL_Driver/Src/stm32f4xx_hal_i2c.c:1092:25
	ldr	r0, [r1]
	bic	r0, r0, #2048
	str	r0, [r1]
	.loc	7 1094 5 is_stmt 1              @ ../ThirdParty/STM32F4xx_HAL_Driver/Src/stm32f4xx_hal_i2c.c:1094:5
	ldr	r1, [sp, #32]
	movs	r0, #34
	.loc	7 1094 23 is_stmt 0             @ ../ThirdParty/STM32F4xx_HAL_Driver/Src/stm32f4xx_hal_i2c.c:1094:23
	strb.w	r0, [r1, #61]
	.loc	7 1095 5 is_stmt 1              @ ../ThirdParty/STM32F4xx_HAL_Driver/Src/stm32f4xx_hal_i2c.c:1095:5
	ldr	r1, [sp, #32]
	movs	r0, #32
	.loc	7 1095 23 is_stmt 0             @ ../ThirdParty/STM32F4xx_HAL_Driver/Src/stm32f4xx_hal_i2c.c:1095:23
	strb.w	r0, [r1, #62]
	.loc	7 1096 5 is_stmt 1              @ ../ThirdParty/STM32F4xx_HAL_Driver/Src/stm32f4xx_hal_i2c.c:1096:5
	ldr	r0, [sp, #32]
	movs	r2, #0
	.loc	7 1096 23 is_stmt 0             @ ../ThirdParty/STM32F4xx_HAL_Driver/Src/stm32f4xx_hal_i2c.c:1096:23
	str	r2, [r0, #64]
	.loc	7 1099 25 is_stmt 1             @ ../ThirdParty/STM32F4xx_HAL_Driver/Src/stm32f4xx_hal_i2c.c:1099:25
	ldr	r0, [sp, #28]
	.loc	7 1099 5 is_stmt 0              @ ../ThirdParty/STM32F4xx_HAL_Driver/Src/stm32f4xx_hal_i2c.c:1099:5
	ldr	r1, [sp, #32]
	.loc	7 1099 23                       @ ../ThirdParty/STM32F4xx_HAL_Driver/Src/stm32f4xx_hal_i2c.c:1099:23
	str	r0, [r1, #36]
	.loc	7 1100 25 is_stmt 1             @ ../ThirdParty/STM32F4xx_HAL_Driver/Src/stm32f4xx_hal_i2c.c:1100:25
	ldrh.w	r0, [sp, #26]
	.loc	7 1100 5 is_stmt 0              @ ../ThirdParty/STM32F4xx_HAL_Driver/Src/stm32f4xx_hal_i2c.c:1100:5
	ldr	r1, [sp, #32]
	.loc	7 1100 23                       @ ../ThirdParty/STM32F4xx_HAL_Driver/Src/stm32f4xx_hal_i2c.c:1100:23
	strh	r0, [r1, #42]
	.loc	7 1101 5 is_stmt 1              @ ../ThirdParty/STM32F4xx_HAL_Driver/Src/stm32f4xx_hal_i2c.c:1101:5
	ldr	r1, [sp, #32]
	movs	r0, #0
	movt	r0, #65535
	.loc	7 1101 23 is_stmt 0             @ ../ThirdParty/STM32F4xx_HAL_Driver/Src/stm32f4xx_hal_i2c.c:1101:23
	str	r0, [r1, #44]
	.loc	7 1102 25 is_stmt 1             @ ../ThirdParty/STM32F4xx_HAL_Driver/Src/stm32f4xx_hal_i2c.c:1102:25
	ldr	r0, [sp, #32]
	.loc	7 1102 31 is_stmt 0             @ ../ThirdParty/STM32F4xx_HAL_Driver/Src/stm32f4xx_hal_i2c.c:1102:31
	ldrh	r0, [r0, #42]
	.loc	7 1102 5                        @ ../ThirdParty/STM32F4xx_HAL_Driver/Src/stm32f4xx_hal_i2c.c:1102:5
	ldr	r1, [sp, #32]
	.loc	7 1102 23                       @ ../ThirdParty/STM32F4xx_HAL_Driver/Src/stm32f4xx_hal_i2c.c:1102:23
	strh	r0, [r1, #40]
	.loc	7 1105 5 is_stmt 1              @ ../ThirdParty/STM32F4xx_HAL_Driver/Src/stm32f4xx_hal_i2c.c:1105:5
	ldr	r0, [sp, #32]
	.loc	7 1105 11 is_stmt 0             @ ../ThirdParty/STM32F4xx_HAL_Driver/Src/stm32f4xx_hal_i2c.c:1105:11
	ldr	r1, [r0]
	.loc	7 1105 25                       @ ../ThirdParty/STM32F4xx_HAL_Driver/Src/stm32f4xx_hal_i2c.c:1105:25
	ldr	r0, [r1]
	orr	r0, r0, #1024
	str	r0, [r1]
.Ltmp362:
	.loc	7 1108 35 is_stmt 1             @ ../ThirdParty/STM32F4xx_HAL_Driver/Src/stm32f4xx_hal_i2c.c:1108:35
	ldr	r0, [sp, #32]
	.loc	7 1108 63 is_stmt 0             @ ../ThirdParty/STM32F4xx_HAL_Driver/Src/stm32f4xx_hal_i2c.c:1108:63
	ldr	r3, [sp, #20]
	.loc	7 1108 72                       @ ../ThirdParty/STM32F4xx_HAL_Driver/Src/stm32f4xx_hal_i2c.c:1108:72
	ldr	r1, [sp, #16]
	.loc	7 1108 8                        @ ../ThirdParty/STM32F4xx_HAL_Driver/Src/stm32f4xx_hal_i2c.c:1108:8
	mov	r12, sp
	str.w	r1, [r12]
	movs	r1, #2
	movt	r1, #1
	bl	I2C_WaitOnFlagUntilTimeout
.Ltmp363:
	.loc	7 1108 8                        @ ../ThirdParty/STM32F4xx_HAL_Driver/Src/stm32f4xx_hal_i2c.c:1108:8
	cbz	r0, .LBB13_13
	b	.LBB13_12
.LBB13_12:
	.loc	7 0 8                           @ ../ThirdParty/STM32F4xx_HAL_Driver/Src/stm32f4xx_hal_i2c.c:0:8
	movs	r0, #3
.Ltmp364:
	.loc	7 1110 7 is_stmt 1              @ ../ThirdParty/STM32F4xx_HAL_Driver/Src/stm32f4xx_hal_i2c.c:1110:7
	strb.w	r0, [sp, #39]
	b	.LBB13_35
.Ltmp365:
.LBB13_13:
	.loc	7 1114 5                        @ ../ThirdParty/STM32F4xx_HAL_Driver/Src/stm32f4xx_hal_i2c.c:1114:5
	b	.LBB13_14
.LBB13_14:
	.loc	7 0 5 is_stmt 0                 @ ../ThirdParty/STM32F4xx_HAL_Driver/Src/stm32f4xx_hal_i2c.c:0:5
	movs	r0, #0
.Ltmp366:
	.loc	7 1114 5                        @ ../ThirdParty/STM32F4xx_HAL_Driver/Src/stm32f4xx_hal_i2c.c:1114:5
	str	r0, [sp, #12]
	ldr	r0, [sp, #32]
	ldr	r0, [r0]
	ldr	r0, [r0, #20]
	str	r0, [sp, #12]
	ldr	r0, [sp, #32]
	ldr	r0, [r0]
	ldr	r0, [r0, #24]
	str	r0, [sp, #12]
	ldr	r0, [sp, #12]
	b	.LBB13_15
.Ltmp367:
.LBB13_15:
	.loc	7 1116 5 is_stmt 1              @ ../ThirdParty/STM32F4xx_HAL_Driver/Src/stm32f4xx_hal_i2c.c:1116:5
	b	.LBB13_16
.LBB13_16:                              @ =>This Inner Loop Header: Depth=1
	.loc	7 1116 11 is_stmt 0             @ ../ThirdParty/STM32F4xx_HAL_Driver/Src/stm32f4xx_hal_i2c.c:1116:11
	ldr	r0, [sp, #32]
	.loc	7 1116 17                       @ ../ThirdParty/STM32F4xx_HAL_Driver/Src/stm32f4xx_hal_i2c.c:1116:17
	ldrh	r0, [r0, #40]
	.loc	7 1116 5                        @ ../ThirdParty/STM32F4xx_HAL_Driver/Src/stm32f4xx_hal_i2c.c:1116:5
	cmp	r0, #0
	beq	.LBB13_25
	b	.LBB13_17
.LBB13_17:                              @   in Loop: Header=BB13_16 Depth=1
.Ltmp368:
	.loc	7 1119 41 is_stmt 1             @ ../ThirdParty/STM32F4xx_HAL_Driver/Src/stm32f4xx_hal_i2c.c:1119:41
	ldr	r0, [sp, #32]
	.loc	7 1119 47 is_stmt 0             @ ../ThirdParty/STM32F4xx_HAL_Driver/Src/stm32f4xx_hal_i2c.c:1119:47
	ldr	r1, [sp, #20]
	.loc	7 1119 56                       @ ../ThirdParty/STM32F4xx_HAL_Driver/Src/stm32f4xx_hal_i2c.c:1119:56
	ldr	r2, [sp, #16]
	.loc	7 1119 10                       @ ../ThirdParty/STM32F4xx_HAL_Driver/Src/stm32f4xx_hal_i2c.c:1119:10
	bl	I2C_WaitOnRXNEFlagUntilTimeout
.Ltmp369:
	.loc	7 1119 10                       @ ../ThirdParty/STM32F4xx_HAL_Driver/Src/stm32f4xx_hal_i2c.c:1119:10
	cbz	r0, .LBB13_21
	b	.LBB13_18
.LBB13_18:
.Ltmp370:
	.loc	7 1122 9 is_stmt 1              @ ../ThirdParty/STM32F4xx_HAL_Driver/Src/stm32f4xx_hal_i2c.c:1122:9
	ldr	r0, [sp, #32]
	.loc	7 1122 15 is_stmt 0             @ ../ThirdParty/STM32F4xx_HAL_Driver/Src/stm32f4xx_hal_i2c.c:1122:15
	ldr	r1, [r0]
	.loc	7 1122 29                       @ ../ThirdParty/STM32F4xx_HAL_Driver/Src/stm32f4xx_hal_i2c.c:1122:29
	ldr	r0, [r1]
	bic	r0, r0, #1024
	str	r0, [r1]
.Ltmp371:
	.loc	7 1124 12 is_stmt 1             @ ../ThirdParty/STM32F4xx_HAL_Driver/Src/stm32f4xx_hal_i2c.c:1124:12
	ldr	r0, [sp, #32]
	.loc	7 1124 18 is_stmt 0             @ ../ThirdParty/STM32F4xx_HAL_Driver/Src/stm32f4xx_hal_i2c.c:1124:18
	ldr	r0, [r0, #64]
.Ltmp372:
	.loc	7 1124 12                       @ ../ThirdParty/STM32F4xx_HAL_Driver/Src/stm32f4xx_hal_i2c.c:1124:12
	cmp	r0, #32
	bne	.LBB13_20
	b	.LBB13_19
.LBB13_19:
	.loc	7 0 12                          @ ../ThirdParty/STM32F4xx_HAL_Driver/Src/stm32f4xx_hal_i2c.c:0:12
	movs	r0, #3
.Ltmp373:
	.loc	7 1126 11 is_stmt 1             @ ../ThirdParty/STM32F4xx_HAL_Driver/Src/stm32f4xx_hal_i2c.c:1126:11
	strb.w	r0, [sp, #39]
	b	.LBB13_35
.Ltmp374:
.LBB13_20:
	.loc	7 0 11 is_stmt 0                @ ../ThirdParty/STM32F4xx_HAL_Driver/Src/stm32f4xx_hal_i2c.c:0:11
	movs	r0, #1
.Ltmp375:
	.loc	7 1130 11 is_stmt 1             @ ../ThirdParty/STM32F4xx_HAL_Driver/Src/stm32f4xx_hal_i2c.c:1130:11
	strb.w	r0, [sp, #39]
	b	.LBB13_35
.Ltmp376:
.LBB13_21:                              @   in Loop: Header=BB13_16 Depth=1
	.loc	7 1135 29                       @ ../ThirdParty/STM32F4xx_HAL_Driver/Src/stm32f4xx_hal_i2c.c:1135:29
	ldr	r0, [sp, #32]
	.loc	7 1135 35 is_stmt 0             @ ../ThirdParty/STM32F4xx_HAL_Driver/Src/stm32f4xx_hal_i2c.c:1135:35
	ldr	r0, [r0]
	.loc	7 1135 45                       @ ../ThirdParty/STM32F4xx_HAL_Driver/Src/stm32f4xx_hal_i2c.c:1135:45
	ldr	r0, [r0, #16]
	.loc	7 1135 9                        @ ../ThirdParty/STM32F4xx_HAL_Driver/Src/stm32f4xx_hal_i2c.c:1135:9
	ldr	r3, [sp, #32]
	.loc	7 1135 23                       @ ../ThirdParty/STM32F4xx_HAL_Driver/Src/stm32f4xx_hal_i2c.c:1135:23
	ldr	r1, [r3, #36]
	adds	r2, r1, #1
	str	r2, [r3, #36]
	.loc	7 1135 27                       @ ../ThirdParty/STM32F4xx_HAL_Driver/Src/stm32f4xx_hal_i2c.c:1135:27
	strb	r0, [r1]
	.loc	7 1136 7 is_stmt 1              @ ../ThirdParty/STM32F4xx_HAL_Driver/Src/stm32f4xx_hal_i2c.c:1136:7
	ldr	r1, [sp, #32]
	.loc	7 1136 21 is_stmt 0             @ ../ThirdParty/STM32F4xx_HAL_Driver/Src/stm32f4xx_hal_i2c.c:1136:21
	ldrh	r0, [r1, #40]
	subs	r0, #1
	strh	r0, [r1, #40]
	.loc	7 1137 7 is_stmt 1              @ ../ThirdParty/STM32F4xx_HAL_Driver/Src/stm32f4xx_hal_i2c.c:1137:7
	ldr	r1, [sp, #32]
	.loc	7 1137 22 is_stmt 0             @ ../ThirdParty/STM32F4xx_HAL_Driver/Src/stm32f4xx_hal_i2c.c:1137:22
	ldrh	r0, [r1, #42]
	subs	r0, #1
	strh	r0, [r1, #42]
.Ltmp377:
	.loc	7 1139 11 is_stmt 1             @ ../ThirdParty/STM32F4xx_HAL_Driver/Src/stm32f4xx_hal_i2c.c:1139:11
	ldr	r0, [sp, #32]
	ldr	r0, [r0]
	ldr	r0, [r0, #20]
	and	r1, r0, #4
	movs	r0, #1
	.loc	7 1139 58 is_stmt 0             @ ../ThirdParty/STM32F4xx_HAL_Driver/Src/stm32f4xx_hal_i2c.c:1139:58
	cmp.w	r0, r1, lsr #2
	bne	.LBB13_24
	b	.LBB13_22
.LBB13_22:                              @   in Loop: Header=BB13_16 Depth=1
	.loc	7 1139 62                       @ ../ThirdParty/STM32F4xx_HAL_Driver/Src/stm32f4xx_hal_i2c.c:1139:62
	ldrh.w	r0, [sp, #26]
.Ltmp378:
	.loc	7 1139 10                       @ ../ThirdParty/STM32F4xx_HAL_Driver/Src/stm32f4xx_hal_i2c.c:1139:10
	cbz	r0, .LBB13_24
	b	.LBB13_23
.LBB13_23:                              @   in Loop: Header=BB13_16 Depth=1
.Ltmp379:
	.loc	7 1142 29 is_stmt 1             @ ../ThirdParty/STM32F4xx_HAL_Driver/Src/stm32f4xx_hal_i2c.c:1142:29
	ldr	r0, [sp, #32]
	.loc	7 1142 35 is_stmt 0             @ ../ThirdParty/STM32F4xx_HAL_Driver/Src/stm32f4xx_hal_i2c.c:1142:35
	ldr	r0, [r0]
	.loc	7 1142 45                       @ ../ThirdParty/STM32F4xx_HAL_Driver/Src/stm32f4xx_hal_i2c.c:1142:45
	ldr	r0, [r0, #16]
	.loc	7 1142 9                        @ ../ThirdParty/STM32F4xx_HAL_Driver/Src/stm32f4xx_hal_i2c.c:1142:9
	ldr	r3, [sp, #32]
	.loc	7 1142 23                       @ ../ThirdParty/STM32F4xx_HAL_Driver/Src/stm32f4xx_hal_i2c.c:1142:23
	ldr	r1, [r3, #36]
	adds	r2, r1, #1
	str	r2, [r3, #36]
	.loc	7 1142 27                       @ ../ThirdParty/STM32F4xx_HAL_Driver/Src/stm32f4xx_hal_i2c.c:1142:27
	strb	r0, [r1]
	.loc	7 1143 7 is_stmt 1              @ ../ThirdParty/STM32F4xx_HAL_Driver/Src/stm32f4xx_hal_i2c.c:1143:7
	ldr	r1, [sp, #32]
	.loc	7 1143 21 is_stmt 0             @ ../ThirdParty/STM32F4xx_HAL_Driver/Src/stm32f4xx_hal_i2c.c:1143:21
	ldrh	r0, [r1, #40]
	subs	r0, #1
	strh	r0, [r1, #40]
	.loc	7 1144 7 is_stmt 1              @ ../ThirdParty/STM32F4xx_HAL_Driver/Src/stm32f4xx_hal_i2c.c:1144:7
	ldr	r1, [sp, #32]
	.loc	7 1144 22 is_stmt 0             @ ../ThirdParty/STM32F4xx_HAL_Driver/Src/stm32f4xx_hal_i2c.c:1144:22
	ldrh	r0, [r1, #42]
	subs	r0, #1
	strh	r0, [r1, #42]
	.loc	7 1145 7 is_stmt 1              @ ../ThirdParty/STM32F4xx_HAL_Driver/Src/stm32f4xx_hal_i2c.c:1145:7
	b	.LBB13_24
.Ltmp380:
.LBB13_24:                              @   in Loop: Header=BB13_16 Depth=1
	.loc	7 1116 5                        @ ../ThirdParty/STM32F4xx_HAL_Driver/Src/stm32f4xx_hal_i2c.c:1116:5
	b	.LBB13_16
.LBB13_25:
.Ltmp381:
	.loc	7 1149 39                       @ ../ThirdParty/STM32F4xx_HAL_Driver/Src/stm32f4xx_hal_i2c.c:1149:39
	ldr	r0, [sp, #32]
	.loc	7 1149 45 is_stmt 0             @ ../ThirdParty/STM32F4xx_HAL_Driver/Src/stm32f4xx_hal_i2c.c:1149:45
	ldr	r1, [sp, #20]
	.loc	7 1149 54                       @ ../ThirdParty/STM32F4xx_HAL_Driver/Src/stm32f4xx_hal_i2c.c:1149:54
	ldr	r2, [sp, #16]
	.loc	7 1149 8                        @ ../ThirdParty/STM32F4xx_HAL_Driver/Src/stm32f4xx_hal_i2c.c:1149:8
	bl	I2C_WaitOnSTOPFlagUntilTimeout
.Ltmp382:
	.loc	7 1149 8                        @ ../ThirdParty/STM32F4xx_HAL_Driver/Src/stm32f4xx_hal_i2c.c:1149:8
	cbz	r0, .LBB13_29
	b	.LBB13_26
.LBB13_26:
.Ltmp383:
	.loc	7 1152 7 is_stmt 1              @ ../ThirdParty/STM32F4xx_HAL_Driver/Src/stm32f4xx_hal_i2c.c:1152:7
	ldr	r0, [sp, #32]
	.loc	7 1152 13 is_stmt 0             @ ../ThirdParty/STM32F4xx_HAL_Driver/Src/stm32f4xx_hal_i2c.c:1152:13
	ldr	r1, [r0]
	.loc	7 1152 27                       @ ../ThirdParty/STM32F4xx_HAL_Driver/Src/stm32f4xx_hal_i2c.c:1152:27
	ldr	r0, [r1]
	bic	r0, r0, #1024
	str	r0, [r1]
.Ltmp384:
	.loc	7 1154 10 is_stmt 1             @ ../ThirdParty/STM32F4xx_HAL_Driver/Src/stm32f4xx_hal_i2c.c:1154:10
	ldr	r0, [sp, #32]
	.loc	7 1154 16 is_stmt 0             @ ../ThirdParty/STM32F4xx_HAL_Driver/Src/stm32f4xx_hal_i2c.c:1154:16
	ldr	r0, [r0, #64]
.Ltmp385:
	.loc	7 1154 10                       @ ../ThirdParty/STM32F4xx_HAL_Driver/Src/stm32f4xx_hal_i2c.c:1154:10
	cmp	r0, #4
	bne	.LBB13_28
	b	.LBB13_27
.LBB13_27:
	.loc	7 0 10                          @ ../ThirdParty/STM32F4xx_HAL_Driver/Src/stm32f4xx_hal_i2c.c:0:10
	movs	r0, #1
.Ltmp386:
	.loc	7 1156 9 is_stmt 1              @ ../ThirdParty/STM32F4xx_HAL_Driver/Src/stm32f4xx_hal_i2c.c:1156:9
	strb.w	r0, [sp, #39]
	b	.LBB13_35
.Ltmp387:
.LBB13_28:
	.loc	7 0 9 is_stmt 0                 @ ../ThirdParty/STM32F4xx_HAL_Driver/Src/stm32f4xx_hal_i2c.c:0:9
	movs	r0, #3
.Ltmp388:
	.loc	7 1160 9 is_stmt 1              @ ../ThirdParty/STM32F4xx_HAL_Driver/Src/stm32f4xx_hal_i2c.c:1160:9
	strb.w	r0, [sp, #39]
	b	.LBB13_35
.Ltmp389:
.LBB13_29:
	.loc	7 1165 5                        @ ../ThirdParty/STM32F4xx_HAL_Driver/Src/stm32f4xx_hal_i2c.c:1165:5
	b	.LBB13_30
.LBB13_30:
	.loc	7 0 5 is_stmt 0                 @ ../ThirdParty/STM32F4xx_HAL_Driver/Src/stm32f4xx_hal_i2c.c:0:5
	movs	r0, #0
.Ltmp390:
	.loc	7 1165 5                        @ ../ThirdParty/STM32F4xx_HAL_Driver/Src/stm32f4xx_hal_i2c.c:1165:5
	str	r0, [sp, #8]
	ldr	r0, [sp, #32]
	ldr	r0, [r0]
	ldr	r0, [r0, #20]
	str	r0, [sp, #8]
	ldr	r0, [sp, #32]
	ldr	r1, [r0]
	ldr	r0, [r1]
	orr	r0, r0, #1
	str	r0, [r1]
	ldr	r0, [sp, #8]
	b	.LBB13_31
.Ltmp391:
.LBB13_31:
	.loc	7 1168 5 is_stmt 1              @ ../ThirdParty/STM32F4xx_HAL_Driver/Src/stm32f4xx_hal_i2c.c:1168:5
	ldr	r0, [sp, #32]
	.loc	7 1168 11 is_stmt 0             @ ../ThirdParty/STM32F4xx_HAL_Driver/Src/stm32f4xx_hal_i2c.c:1168:11
	ldr	r1, [r0]
	.loc	7 1168 25                       @ ../ThirdParty/STM32F4xx_HAL_Driver/Src/stm32f4xx_hal_i2c.c:1168:25
	ldr	r0, [r1]
	bic	r0, r0, #1024
	str	r0, [r1]
	.loc	7 1170 5 is_stmt 1              @ ../ThirdParty/STM32F4xx_HAL_Driver/Src/stm32f4xx_hal_i2c.c:1170:5
	ldr	r1, [sp, #32]
	movs	r0, #32
	.loc	7 1170 17 is_stmt 0             @ ../ThirdParty/STM32F4xx_HAL_Driver/Src/stm32f4xx_hal_i2c.c:1170:17
	strb.w	r0, [r1, #61]
	.loc	7 1171 5 is_stmt 1              @ ../ThirdParty/STM32F4xx_HAL_Driver/Src/stm32f4xx_hal_i2c.c:1171:5
	ldr	r1, [sp, #32]
	movs	r0, #0
	.loc	7 1171 16 is_stmt 0             @ ../ThirdParty/STM32F4xx_HAL_Driver/Src/stm32f4xx_hal_i2c.c:1171:16
	strb.w	r0, [r1, #62]
	.loc	7 1174 5 is_stmt 1              @ ../ThirdParty/STM32F4xx_HAL_Driver/Src/stm32f4xx_hal_i2c.c:1174:5
	b	.LBB13_32
.LBB13_32:
.Ltmp392:
	.loc	7 1174 5 is_stmt 0              @ ../ThirdParty/STM32F4xx_HAL_Driver/Src/stm32f4xx_hal_i2c.c:1174:5
	ldr	r1, [sp, #32]
	movs	r0, #0
	strb.w	r0, [r1, #60]
	b	.LBB13_33
.Ltmp393:
.LBB13_33:
	.loc	7 0 5                           @ ../ThirdParty/STM32F4xx_HAL_Driver/Src/stm32f4xx_hal_i2c.c:0:5
	movs	r0, #0
	.loc	7 1176 5 is_stmt 1              @ ../ThirdParty/STM32F4xx_HAL_Driver/Src/stm32f4xx_hal_i2c.c:1176:5
	strb.w	r0, [sp, #39]
	b	.LBB13_35
.Ltmp394:
.LBB13_34:
	.loc	7 0 5 is_stmt 0                 @ ../ThirdParty/STM32F4xx_HAL_Driver/Src/stm32f4xx_hal_i2c.c:0:5
	movs	r0, #2
.Ltmp395:
	.loc	7 1180 5 is_stmt 1              @ ../ThirdParty/STM32F4xx_HAL_Driver/Src/stm32f4xx_hal_i2c.c:1180:5
	strb.w	r0, [sp, #39]
	b	.LBB13_35
.Ltmp396:
.LBB13_35:
	.loc	7 1182 1                        @ ../ThirdParty/STM32F4xx_HAL_Driver/Src/stm32f4xx_hal_i2c.c:1182:1
	ldrb.w	r0, [sp, #39]
	.loc	7 1182 1 epilogue_begin is_stmt 0 @ ../ThirdParty/STM32F4xx_HAL_Driver/Src/stm32f4xx_hal_i2c.c:1182:1
	add	sp, #40
	pop	{r7, pc}
.Ltmp397:
.Lfunc_end13:
	.size	HAL_I2C_Slave_Receive, .Lfunc_end13-HAL_I2C_Slave_Receive
	.cfi_endproc
	.cantunwind
	.fnend
                                        @ -- End function
	.section	.text.I2C_WaitOnSTOPFlagUntilTimeout,"ax",%progbits
	.p2align	2                               @ -- Begin function I2C_WaitOnSTOPFlagUntilTimeout
	.type	I2C_WaitOnSTOPFlagUntilTimeout,%function
	.code	16                              @ @I2C_WaitOnSTOPFlagUntilTimeout
	.thumb_func
I2C_WaitOnSTOPFlagUntilTimeout:
.Lfunc_begin14:
	.loc	7 5387 0 is_stmt 1              @ ../ThirdParty/STM32F4xx_HAL_Driver/Src/stm32f4xx_hal_i2c.c:5387:0
	.fnstart
	.cfi_startproc
@ %bb.0:
	.save	{r7, lr}
	push	{r7, lr}
	.cfi_def_cfa_offset 8
	.cfi_offset lr, -4
	.cfi_offset r7, -8
	.pad	#16
	sub	sp, #16
	.cfi_def_cfa_offset 24
	str	r0, [sp, #8]
	str	r1, [sp, #4]
	str	r2, [sp]
.Ltmp398:
	.loc	7 5388 3 prologue_end           @ ../ThirdParty/STM32F4xx_HAL_Driver/Src/stm32f4xx_hal_i2c.c:5388:3
	b	.LBB14_1
.LBB14_1:                               @ =>This Inner Loop Header: Depth=1
	.loc	7 5388 9 is_stmt 0              @ ../ThirdParty/STM32F4xx_HAL_Driver/Src/stm32f4xx_hal_i2c.c:5388:9
	ldr	r0, [sp, #8]
	ldr	r0, [r0]
	ldr	r0, [r0, #20]
	and	r1, r0, #16
	movs	r0, #0
	.loc	7 5388 3                        @ ../ThirdParty/STM32F4xx_HAL_Driver/Src/stm32f4xx_hal_i2c.c:5388:3
	cmp.w	r0, r1, lsr #4
	bne	.LBB14_10
	b	.LBB14_2
.LBB14_2:                               @   in Loop: Header=BB14_1 Depth=1
.Ltmp399:
	.loc	7 5391 32 is_stmt 1             @ ../ThirdParty/STM32F4xx_HAL_Driver/Src/stm32f4xx_hal_i2c.c:5391:32
	ldr	r0, [sp, #8]
	.loc	7 5391 8 is_stmt 0              @ ../ThirdParty/STM32F4xx_HAL_Driver/Src/stm32f4xx_hal_i2c.c:5391:8
	bl	I2C_IsAcknowledgeFailed
.Ltmp400:
	.loc	7 5391 8                        @ ../ThirdParty/STM32F4xx_HAL_Driver/Src/stm32f4xx_hal_i2c.c:5391:8
	cbz	r0, .LBB14_4
	b	.LBB14_3
.LBB14_3:
	.loc	7 0 8                           @ ../ThirdParty/STM32F4xx_HAL_Driver/Src/stm32f4xx_hal_i2c.c:0:8
	movs	r0, #1
.Ltmp401:
	.loc	7 5393 7 is_stmt 1              @ ../ThirdParty/STM32F4xx_HAL_Driver/Src/stm32f4xx_hal_i2c.c:5393:7
	strb.w	r0, [sp, #15]
	b	.LBB14_11
.Ltmp402:
.LBB14_4:                               @   in Loop: Header=BB14_1 Depth=1
	.loc	7 5397 9                        @ ../ThirdParty/STM32F4xx_HAL_Driver/Src/stm32f4xx_hal_i2c.c:5397:9
	ldr	r0, [sp, #4]
	.loc	7 5397 24 is_stmt 0             @ ../ThirdParty/STM32F4xx_HAL_Driver/Src/stm32f4xx_hal_i2c.c:5397:24
	cbz	r0, .LBB14_6
	b	.LBB14_5
.LBB14_5:                               @   in Loop: Header=BB14_1 Depth=1
	.loc	7 5397 29                       @ ../ThirdParty/STM32F4xx_HAL_Driver/Src/stm32f4xx_hal_i2c.c:5397:29
	bl	HAL_GetTick
	.loc	7 5397 43                       @ ../ThirdParty/STM32F4xx_HAL_Driver/Src/stm32f4xx_hal_i2c.c:5397:43
	ldr	r1, [sp]
	.loc	7 5397 42                       @ ../ThirdParty/STM32F4xx_HAL_Driver/Src/stm32f4xx_hal_i2c.c:5397:42
	subs	r0, r0, r1
	.loc	7 5397 56                       @ ../ThirdParty/STM32F4xx_HAL_Driver/Src/stm32f4xx_hal_i2c.c:5397:56
	ldr	r1, [sp, #4]
.Ltmp403:
	.loc	7 5397 8                        @ ../ThirdParty/STM32F4xx_HAL_Driver/Src/stm32f4xx_hal_i2c.c:5397:8
	cmp	r0, r1
	bls	.LBB14_9
	b	.LBB14_6
.LBB14_6:
.Ltmp404:
	.loc	7 5399 7 is_stmt 1              @ ../ThirdParty/STM32F4xx_HAL_Driver/Src/stm32f4xx_hal_i2c.c:5399:7
	ldr	r1, [sp, #8]
	.loc	7 5399 23 is_stmt 0             @ ../ThirdParty/STM32F4xx_HAL_Driver/Src/stm32f4xx_hal_i2c.c:5399:23
	ldr	r0, [r1, #64]
	orr	r0, r0, #32
	str	r0, [r1, #64]
	.loc	7 5400 7 is_stmt 1              @ ../ThirdParty/STM32F4xx_HAL_Driver/Src/stm32f4xx_hal_i2c.c:5400:7
	ldr	r1, [sp, #8]
	movs	r0, #0
	.loc	7 5400 27 is_stmt 0             @ ../ThirdParty/STM32F4xx_HAL_Driver/Src/stm32f4xx_hal_i2c.c:5400:27
	str	r0, [r1, #48]
	.loc	7 5401 7 is_stmt 1              @ ../ThirdParty/STM32F4xx_HAL_Driver/Src/stm32f4xx_hal_i2c.c:5401:7
	ldr	r1, [sp, #8]
	movs	r0, #32
	.loc	7 5401 18 is_stmt 0             @ ../ThirdParty/STM32F4xx_HAL_Driver/Src/stm32f4xx_hal_i2c.c:5401:18
	strb.w	r0, [r1, #61]
	.loc	7 5404 7 is_stmt 1              @ ../ThirdParty/STM32F4xx_HAL_Driver/Src/stm32f4xx_hal_i2c.c:5404:7
	b	.LBB14_7
.LBB14_7:
.Ltmp405:
	.loc	7 5404 7 is_stmt 0              @ ../ThirdParty/STM32F4xx_HAL_Driver/Src/stm32f4xx_hal_i2c.c:5404:7
	ldr	r1, [sp, #8]
	movs	r0, #0
	strb.w	r0, [r1, #60]
	b	.LBB14_8
.Ltmp406:
.LBB14_8:
	.loc	7 0 7                           @ ../ThirdParty/STM32F4xx_HAL_Driver/Src/stm32f4xx_hal_i2c.c:0:7
	movs	r0, #3
	.loc	7 5406 7 is_stmt 1              @ ../ThirdParty/STM32F4xx_HAL_Driver/Src/stm32f4xx_hal_i2c.c:5406:7
	strb.w	r0, [sp, #15]
	b	.LBB14_11
.Ltmp407:
.LBB14_9:                               @   in Loop: Header=BB14_1 Depth=1
	.loc	7 5388 3                        @ ../ThirdParty/STM32F4xx_HAL_Driver/Src/stm32f4xx_hal_i2c.c:5388:3
	b	.LBB14_1
.LBB14_10:
	.loc	7 0 3 is_stmt 0                 @ ../ThirdParty/STM32F4xx_HAL_Driver/Src/stm32f4xx_hal_i2c.c:0:3
	movs	r0, #0
	.loc	7 5409 3 is_stmt 1              @ ../ThirdParty/STM32F4xx_HAL_Driver/Src/stm32f4xx_hal_i2c.c:5409:3
	strb.w	r0, [sp, #15]
	b	.LBB14_11
.LBB14_11:
	.loc	7 5410 1                        @ ../ThirdParty/STM32F4xx_HAL_Driver/Src/stm32f4xx_hal_i2c.c:5410:1
	ldrb.w	r0, [sp, #15]
	.loc	7 5410 1 epilogue_begin is_stmt 0 @ ../ThirdParty/STM32F4xx_HAL_Driver/Src/stm32f4xx_hal_i2c.c:5410:1
	add	sp, #16
	pop	{r7, pc}
.Ltmp408:
.Lfunc_end14:
	.size	I2C_WaitOnSTOPFlagUntilTimeout, .Lfunc_end14-I2C_WaitOnSTOPFlagUntilTimeout
	.cfi_endproc
	.cantunwind
	.fnend
                                        @ -- End function
	.section	.text.HAL_I2C_Master_Transmit_IT,"ax",%progbits
	.hidden	HAL_I2C_Master_Transmit_IT      @ -- Begin function HAL_I2C_Master_Transmit_IT
	.globl	HAL_I2C_Master_Transmit_IT
	.p2align	2
	.type	HAL_I2C_Master_Transmit_IT,%function
	.code	16                              @ @HAL_I2C_Master_Transmit_IT
	.thumb_func
HAL_I2C_Master_Transmit_IT:
.Lfunc_begin15:
	.loc	7 1195 0 is_stmt 1              @ ../ThirdParty/STM32F4xx_HAL_Driver/Src/stm32f4xx_hal_i2c.c:1195:0
	.fnstart
	.cfi_startproc
@ %bb.0:
	.pad	#24
	sub	sp, #24
	.cfi_def_cfa_offset 24
                                        @ kill: def $r12 killed $r3
                                        @ kill: def $r12 killed $r1
	str	r0, [sp, #16]
	strh.w	r1, [sp, #14]
	str	r2, [sp, #8]
	strh.w	r3, [sp, #6]
	movs	r0, #0
.Ltmp409:
	.loc	7 1196 17 prologue_end          @ ../ThirdParty/STM32F4xx_HAL_Driver/Src/stm32f4xx_hal_i2c.c:1196:17
	str	r0, [sp]
.Ltmp410:
	.loc	7 1198 6                        @ ../ThirdParty/STM32F4xx_HAL_Driver/Src/stm32f4xx_hal_i2c.c:1198:6
	ldr	r0, [sp, #16]
	.loc	7 1198 12 is_stmt 0             @ ../ThirdParty/STM32F4xx_HAL_Driver/Src/stm32f4xx_hal_i2c.c:1198:12
	ldrb.w	r0, [r0, #61]
.Ltmp411:
	.loc	7 1198 6                        @ ../ThirdParty/STM32F4xx_HAL_Driver/Src/stm32f4xx_hal_i2c.c:1198:6
	cmp	r0, #32
	bne.w	.LBB15_18
	b	.LBB15_1
.LBB15_1:
.Ltmp412:
	.loc	7 1201 38 is_stmt 1             @ ../ThirdParty/STM32F4xx_HAL_Driver/Src/stm32f4xx_hal_i2c.c:1201:38
	movw	r0, :lower16:SystemCoreClock
	movt	r0, :upper16:SystemCoreClock
	ldr	r0, [r0]
	movw	r1, #34079
	movt	r1, #20971
	.loc	7 1201 54 is_stmt 0             @ ../ThirdParty/STM32F4xx_HAL_Driver/Src/stm32f4xx_hal_i2c.c:1201:54
	umull	r1, r0, r0, r1
	lsrs	r0, r0, #3
	movw	r1, #19923
	movt	r1, #4194
	.loc	7 1201 59                       @ ../ThirdParty/STM32F4xx_HAL_Driver/Src/stm32f4xx_hal_i2c.c:1201:59
	umull	r1, r0, r0, r1
	lsrs	r0, r0, #6
	movs	r1, #25
	.loc	7 1201 35                       @ ../ThirdParty/STM32F4xx_HAL_Driver/Src/stm32f4xx_hal_i2c.c:1201:35
	muls	r0, r1, r0
	.loc	7 1201 11                       @ ../ThirdParty/STM32F4xx_HAL_Driver/Src/stm32f4xx_hal_i2c.c:1201:11
	str	r0, [sp]
	.loc	7 1202 5 is_stmt 1              @ ../ThirdParty/STM32F4xx_HAL_Driver/Src/stm32f4xx_hal_i2c.c:1202:5
	b	.LBB15_2
.LBB15_2:                               @ =>This Inner Loop Header: Depth=1
.Ltmp413:
	.loc	7 1204 15                       @ ../ThirdParty/STM32F4xx_HAL_Driver/Src/stm32f4xx_hal_i2c.c:1204:15
	ldr	r0, [sp]
	subs	r1, r0, #1
	str	r1, [sp]
.Ltmp414:
	.loc	7 1204 10 is_stmt 0             @ ../ThirdParty/STM32F4xx_HAL_Driver/Src/stm32f4xx_hal_i2c.c:1204:10
	cbnz	r0, .LBB15_6
	b	.LBB15_3
.LBB15_3:
.Ltmp415:
	.loc	7 1206 9 is_stmt 1              @ ../ThirdParty/STM32F4xx_HAL_Driver/Src/stm32f4xx_hal_i2c.c:1206:9
	ldr	r1, [sp, #16]
	movs	r0, #0
	.loc	7 1206 29 is_stmt 0             @ ../ThirdParty/STM32F4xx_HAL_Driver/Src/stm32f4xx_hal_i2c.c:1206:29
	str	r0, [r1, #48]
	.loc	7 1207 9 is_stmt 1              @ ../ThirdParty/STM32F4xx_HAL_Driver/Src/stm32f4xx_hal_i2c.c:1207:9
	ldr	r1, [sp, #16]
	movs	r0, #32
	.loc	7 1207 20 is_stmt 0             @ ../ThirdParty/STM32F4xx_HAL_Driver/Src/stm32f4xx_hal_i2c.c:1207:20
	strb.w	r0, [r1, #61]
	.loc	7 1210 9 is_stmt 1              @ ../ThirdParty/STM32F4xx_HAL_Driver/Src/stm32f4xx_hal_i2c.c:1210:9
	b	.LBB15_4
.LBB15_4:
.Ltmp416:
	.loc	7 1210 9 is_stmt 0              @ ../ThirdParty/STM32F4xx_HAL_Driver/Src/stm32f4xx_hal_i2c.c:1210:9
	ldr	r1, [sp, #16]
	movs	r0, #0
	strb.w	r0, [r1, #60]
	b	.LBB15_5
.Ltmp417:
.LBB15_5:
	.loc	7 0 9                           @ ../ThirdParty/STM32F4xx_HAL_Driver/Src/stm32f4xx_hal_i2c.c:0:9
	movs	r0, #3
	.loc	7 1212 9 is_stmt 1              @ ../ThirdParty/STM32F4xx_HAL_Driver/Src/stm32f4xx_hal_i2c.c:1212:9
	strb.w	r0, [sp, #23]
	b	.LBB15_19
.Ltmp418:
.LBB15_6:                               @   in Loop: Header=BB15_2 Depth=1
	.loc	7 1214 5                        @ ../ThirdParty/STM32F4xx_HAL_Driver/Src/stm32f4xx_hal_i2c.c:1214:5
	b	.LBB15_7
.Ltmp419:
.LBB15_7:                               @   in Loop: Header=BB15_2 Depth=1
	.loc	7 1215 11                       @ ../ThirdParty/STM32F4xx_HAL_Driver/Src/stm32f4xx_hal_i2c.c:1215:11
	ldr	r0, [sp, #16]
	ldr	r0, [r0]
	ldr	r0, [r0, #24]
	and	r1, r0, #2
	movs	r0, #0
.Ltmp420:
	.loc	7 1214 5                        @ ../ThirdParty/STM32F4xx_HAL_Driver/Src/stm32f4xx_hal_i2c.c:1214:5
	cmp.w	r0, r1, lsr #1
	bne	.LBB15_2
	b	.LBB15_8
.Ltmp421:
.LBB15_8:
	.loc	7 1218 5                        @ ../ThirdParty/STM32F4xx_HAL_Driver/Src/stm32f4xx_hal_i2c.c:1218:5
	b	.LBB15_9
.LBB15_9:
.Ltmp422:
	.loc	7 1218 5 is_stmt 0              @ ../ThirdParty/STM32F4xx_HAL_Driver/Src/stm32f4xx_hal_i2c.c:1218:5
	ldr	r0, [sp, #16]
	ldrb.w	r0, [r0, #60]
.Ltmp423:
	.loc	7 1218 5                        @ ../ThirdParty/STM32F4xx_HAL_Driver/Src/stm32f4xx_hal_i2c.c:1218:5
	cmp	r0, #1
	bne	.LBB15_11
	b	.LBB15_10
.LBB15_10:
	.loc	7 0 5                           @ ../ThirdParty/STM32F4xx_HAL_Driver/Src/stm32f4xx_hal_i2c.c:0:5
	movs	r0, #2
.Ltmp424:
	.loc	7 1218 5                        @ ../ThirdParty/STM32F4xx_HAL_Driver/Src/stm32f4xx_hal_i2c.c:1218:5
	strb.w	r0, [sp, #23]
	b	.LBB15_19
.Ltmp425:
.LBB15_11:
	.loc	7 1218 5                        @ ../ThirdParty/STM32F4xx_HAL_Driver/Src/stm32f4xx_hal_i2c.c:1218:5
	ldr	r1, [sp, #16]
	movs	r0, #1
	strb.w	r0, [r1, #60]
	b	.LBB15_12
.Ltmp426:
.LBB15_12:
	.loc	7 1218 5                        @ ../ThirdParty/STM32F4xx_HAL_Driver/Src/stm32f4xx_hal_i2c.c:1218:5
	b	.LBB15_13
.Ltmp427:
.LBB15_13:
	.loc	7 1221 9 is_stmt 1              @ ../ThirdParty/STM32F4xx_HAL_Driver/Src/stm32f4xx_hal_i2c.c:1221:9
	ldr	r0, [sp, #16]
	.loc	7 1221 15 is_stmt 0             @ ../ThirdParty/STM32F4xx_HAL_Driver/Src/stm32f4xx_hal_i2c.c:1221:15
	ldr	r0, [r0]
	.loc	7 1221 25                       @ ../ThirdParty/STM32F4xx_HAL_Driver/Src/stm32f4xx_hal_i2c.c:1221:25
	ldr	r0, [r0]
.Ltmp428:
	.loc	7 1221 8                        @ ../ThirdParty/STM32F4xx_HAL_Driver/Src/stm32f4xx_hal_i2c.c:1221:8
	lsls	r0, r0, #31
	cbnz	r0, .LBB15_15
	b	.LBB15_14
.LBB15_14:
.Ltmp429:
	.loc	7 1224 7 is_stmt 1              @ ../ThirdParty/STM32F4xx_HAL_Driver/Src/stm32f4xx_hal_i2c.c:1224:7
	ldr	r0, [sp, #16]
	ldr	r1, [r0]
	ldr	r0, [r1]
	orr	r0, r0, #1
	str	r0, [r1]
	.loc	7 1225 5                        @ ../ThirdParty/STM32F4xx_HAL_Driver/Src/stm32f4xx_hal_i2c.c:1225:5
	b	.LBB15_15
.Ltmp430:
.LBB15_15:
	.loc	7 1228 5                        @ ../ThirdParty/STM32F4xx_HAL_Driver/Src/stm32f4xx_hal_i2c.c:1228:5
	ldr	r0, [sp, #16]
	.loc	7 1228 11 is_stmt 0             @ ../ThirdParty/STM32F4xx_HAL_Driver/Src/stm32f4xx_hal_i2c.c:1228:11
	ldr	r1, [r0]
	.loc	7 1228 25                       @ ../ThirdParty/STM32F4xx_HAL_Driver/Src/stm32f4xx_hal_i2c.c:1228:25
	ldr	r0, [r1]
	bic	r0, r0, #2048
	str	r0, [r1]
	.loc	7 1230 5 is_stmt 1              @ ../ThirdParty/STM32F4xx_HAL_Driver/Src/stm32f4xx_hal_i2c.c:1230:5
	ldr	r1, [sp, #16]
	movs	r0, #33
	.loc	7 1230 21 is_stmt 0             @ ../ThirdParty/STM32F4xx_HAL_Driver/Src/stm32f4xx_hal_i2c.c:1230:21
	strb.w	r0, [r1, #61]
	.loc	7 1231 5 is_stmt 1              @ ../ThirdParty/STM32F4xx_HAL_Driver/Src/stm32f4xx_hal_i2c.c:1231:5
	ldr	r1, [sp, #16]
	movs	r0, #16
	.loc	7 1231 21 is_stmt 0             @ ../ThirdParty/STM32F4xx_HAL_Driver/Src/stm32f4xx_hal_i2c.c:1231:21
	strb.w	r0, [r1, #62]
	.loc	7 1232 5 is_stmt 1              @ ../ThirdParty/STM32F4xx_HAL_Driver/Src/stm32f4xx_hal_i2c.c:1232:5
	ldr	r1, [sp, #16]
	movs	r0, #0
	.loc	7 1232 21 is_stmt 0             @ ../ThirdParty/STM32F4xx_HAL_Driver/Src/stm32f4xx_hal_i2c.c:1232:21
	str	r0, [r1, #64]
	.loc	7 1235 25 is_stmt 1             @ ../ThirdParty/STM32F4xx_HAL_Driver/Src/stm32f4xx_hal_i2c.c:1235:25
	ldr	r0, [sp, #8]
	.loc	7 1235 5 is_stmt 0              @ ../ThirdParty/STM32F4xx_HAL_Driver/Src/stm32f4xx_hal_i2c.c:1235:5
	ldr	r1, [sp, #16]
	.loc	7 1235 23                       @ ../ThirdParty/STM32F4xx_HAL_Driver/Src/stm32f4xx_hal_i2c.c:1235:23
	str	r0, [r1, #36]
	.loc	7 1236 25 is_stmt 1             @ ../ThirdParty/STM32F4xx_HAL_Driver/Src/stm32f4xx_hal_i2c.c:1236:25
	ldrh.w	r0, [sp, #6]
	.loc	7 1236 5 is_stmt 0              @ ../ThirdParty/STM32F4xx_HAL_Driver/Src/stm32f4xx_hal_i2c.c:1236:5
	ldr	r1, [sp, #16]
	.loc	7 1236 23                       @ ../ThirdParty/STM32F4xx_HAL_Driver/Src/stm32f4xx_hal_i2c.c:1236:23
	strh	r0, [r1, #42]
	.loc	7 1237 5 is_stmt 1              @ ../ThirdParty/STM32F4xx_HAL_Driver/Src/stm32f4xx_hal_i2c.c:1237:5
	ldr	r1, [sp, #16]
	movs	r0, #0
	movt	r0, #65535
	.loc	7 1237 23 is_stmt 0             @ ../ThirdParty/STM32F4xx_HAL_Driver/Src/stm32f4xx_hal_i2c.c:1237:23
	str	r0, [r1, #44]
	.loc	7 1238 25 is_stmt 1             @ ../ThirdParty/STM32F4xx_HAL_Driver/Src/stm32f4xx_hal_i2c.c:1238:25
	ldr	r0, [sp, #16]
	.loc	7 1238 31 is_stmt 0             @ ../ThirdParty/STM32F4xx_HAL_Driver/Src/stm32f4xx_hal_i2c.c:1238:31
	ldrh	r0, [r0, #42]
	.loc	7 1238 5                        @ ../ThirdParty/STM32F4xx_HAL_Driver/Src/stm32f4xx_hal_i2c.c:1238:5
	ldr	r1, [sp, #16]
	.loc	7 1238 23                       @ ../ThirdParty/STM32F4xx_HAL_Driver/Src/stm32f4xx_hal_i2c.c:1238:23
	strh	r0, [r1, #40]
	.loc	7 1239 25 is_stmt 1             @ ../ThirdParty/STM32F4xx_HAL_Driver/Src/stm32f4xx_hal_i2c.c:1239:25
	ldrh.w	r0, [sp, #14]
	.loc	7 1239 5 is_stmt 0              @ ../ThirdParty/STM32F4xx_HAL_Driver/Src/stm32f4xx_hal_i2c.c:1239:5
	ldr	r1, [sp, #16]
	.loc	7 1239 23                       @ ../ThirdParty/STM32F4xx_HAL_Driver/Src/stm32f4xx_hal_i2c.c:1239:23
	str	r0, [r1, #68]
	.loc	7 1242 5 is_stmt 1              @ ../ThirdParty/STM32F4xx_HAL_Driver/Src/stm32f4xx_hal_i2c.c:1242:5
	ldr	r0, [sp, #16]
	.loc	7 1242 11 is_stmt 0             @ ../ThirdParty/STM32F4xx_HAL_Driver/Src/stm32f4xx_hal_i2c.c:1242:11
	ldr	r1, [r0]
	.loc	7 1242 25                       @ ../ThirdParty/STM32F4xx_HAL_Driver/Src/stm32f4xx_hal_i2c.c:1242:25
	ldr	r0, [r1]
	orr	r0, r0, #256
	str	r0, [r1]
	.loc	7 1245 5 is_stmt 1              @ ../ThirdParty/STM32F4xx_HAL_Driver/Src/stm32f4xx_hal_i2c.c:1245:5
	b	.LBB15_16
.LBB15_16:
.Ltmp431:
	.loc	7 1245 5 is_stmt 0              @ ../ThirdParty/STM32F4xx_HAL_Driver/Src/stm32f4xx_hal_i2c.c:1245:5
	ldr	r1, [sp, #16]
	movs	r0, #0
	strb.w	r0, [r1, #60]
	b	.LBB15_17
.Ltmp432:
.LBB15_17:
	.loc	7 1251 5 is_stmt 1              @ ../ThirdParty/STM32F4xx_HAL_Driver/Src/stm32f4xx_hal_i2c.c:1251:5
	ldr	r0, [sp, #16]
	ldr	r1, [r0]
	ldr	r0, [r1, #4]
	orr	r0, r0, #1792
	str	r0, [r1, #4]
	movs	r0, #0
	.loc	7 1253 5                        @ ../ThirdParty/STM32F4xx_HAL_Driver/Src/stm32f4xx_hal_i2c.c:1253:5
	strb.w	r0, [sp, #23]
	b	.LBB15_19
.Ltmp433:
.LBB15_18:
	.loc	7 0 5 is_stmt 0                 @ ../ThirdParty/STM32F4xx_HAL_Driver/Src/stm32f4xx_hal_i2c.c:0:5
	movs	r0, #2
.Ltmp434:
	.loc	7 1257 5 is_stmt 1              @ ../ThirdParty/STM32F4xx_HAL_Driver/Src/stm32f4xx_hal_i2c.c:1257:5
	strb.w	r0, [sp, #23]
	b	.LBB15_19
.Ltmp435:
.LBB15_19:
	.loc	7 1259 1                        @ ../ThirdParty/STM32F4xx_HAL_Driver/Src/stm32f4xx_hal_i2c.c:1259:1
	ldrb.w	r0, [sp, #23]
	.loc	7 1259 1 epilogue_begin is_stmt 0 @ ../ThirdParty/STM32F4xx_HAL_Driver/Src/stm32f4xx_hal_i2c.c:1259:1
	add	sp, #24
	bx	lr
.Ltmp436:
.Lfunc_end15:
	.size	HAL_I2C_Master_Transmit_IT, .Lfunc_end15-HAL_I2C_Master_Transmit_IT
	.cfi_endproc
	.cantunwind
	.fnend
                                        @ -- End function
	.section	.text.HAL_I2C_Master_Receive_IT,"ax",%progbits
	.hidden	HAL_I2C_Master_Receive_IT       @ -- Begin function HAL_I2C_Master_Receive_IT
	.globl	HAL_I2C_Master_Receive_IT
	.p2align	2
	.type	HAL_I2C_Master_Receive_IT,%function
	.code	16                              @ @HAL_I2C_Master_Receive_IT
	.thumb_func
HAL_I2C_Master_Receive_IT:
.Lfunc_begin16:
	.loc	7 1272 0 is_stmt 1              @ ../ThirdParty/STM32F4xx_HAL_Driver/Src/stm32f4xx_hal_i2c.c:1272:0
	.fnstart
	.cfi_startproc
@ %bb.0:
	.pad	#24
	sub	sp, #24
	.cfi_def_cfa_offset 24
                                        @ kill: def $r12 killed $r3
                                        @ kill: def $r12 killed $r1
	str	r0, [sp, #16]
	strh.w	r1, [sp, #14]
	str	r2, [sp, #8]
	strh.w	r3, [sp, #6]
	movs	r0, #0
.Ltmp437:
	.loc	7 1273 17 prologue_end          @ ../ThirdParty/STM32F4xx_HAL_Driver/Src/stm32f4xx_hal_i2c.c:1273:17
	str	r0, [sp]
.Ltmp438:
	.loc	7 1275 6                        @ ../ThirdParty/STM32F4xx_HAL_Driver/Src/stm32f4xx_hal_i2c.c:1275:6
	ldr	r0, [sp, #16]
	.loc	7 1275 12 is_stmt 0             @ ../ThirdParty/STM32F4xx_HAL_Driver/Src/stm32f4xx_hal_i2c.c:1275:12
	ldrb.w	r0, [r0, #61]
.Ltmp439:
	.loc	7 1275 6                        @ ../ThirdParty/STM32F4xx_HAL_Driver/Src/stm32f4xx_hal_i2c.c:1275:6
	cmp	r0, #32
	bne.w	.LBB16_18
	b	.LBB16_1
.LBB16_1:
.Ltmp440:
	.loc	7 1278 38 is_stmt 1             @ ../ThirdParty/STM32F4xx_HAL_Driver/Src/stm32f4xx_hal_i2c.c:1278:38
	movw	r0, :lower16:SystemCoreClock
	movt	r0, :upper16:SystemCoreClock
	ldr	r0, [r0]
	movw	r1, #34079
	movt	r1, #20971
	.loc	7 1278 54 is_stmt 0             @ ../ThirdParty/STM32F4xx_HAL_Driver/Src/stm32f4xx_hal_i2c.c:1278:54
	umull	r1, r0, r0, r1
	lsrs	r0, r0, #3
	movw	r1, #19923
	movt	r1, #4194
	.loc	7 1278 59                       @ ../ThirdParty/STM32F4xx_HAL_Driver/Src/stm32f4xx_hal_i2c.c:1278:59
	umull	r1, r0, r0, r1
	lsrs	r0, r0, #6
	movs	r1, #25
	.loc	7 1278 35                       @ ../ThirdParty/STM32F4xx_HAL_Driver/Src/stm32f4xx_hal_i2c.c:1278:35
	muls	r0, r1, r0
	.loc	7 1278 11                       @ ../ThirdParty/STM32F4xx_HAL_Driver/Src/stm32f4xx_hal_i2c.c:1278:11
	str	r0, [sp]
	.loc	7 1279 5 is_stmt 1              @ ../ThirdParty/STM32F4xx_HAL_Driver/Src/stm32f4xx_hal_i2c.c:1279:5
	b	.LBB16_2
.LBB16_2:                               @ =>This Inner Loop Header: Depth=1
.Ltmp441:
	.loc	7 1281 15                       @ ../ThirdParty/STM32F4xx_HAL_Driver/Src/stm32f4xx_hal_i2c.c:1281:15
	ldr	r0, [sp]
	subs	r1, r0, #1
	str	r1, [sp]
.Ltmp442:
	.loc	7 1281 10 is_stmt 0             @ ../ThirdParty/STM32F4xx_HAL_Driver/Src/stm32f4xx_hal_i2c.c:1281:10
	cbnz	r0, .LBB16_6
	b	.LBB16_3
.LBB16_3:
.Ltmp443:
	.loc	7 1283 9 is_stmt 1              @ ../ThirdParty/STM32F4xx_HAL_Driver/Src/stm32f4xx_hal_i2c.c:1283:9
	ldr	r1, [sp, #16]
	movs	r0, #0
	.loc	7 1283 29 is_stmt 0             @ ../ThirdParty/STM32F4xx_HAL_Driver/Src/stm32f4xx_hal_i2c.c:1283:29
	str	r0, [r1, #48]
	.loc	7 1284 9 is_stmt 1              @ ../ThirdParty/STM32F4xx_HAL_Driver/Src/stm32f4xx_hal_i2c.c:1284:9
	ldr	r1, [sp, #16]
	movs	r0, #32
	.loc	7 1284 20 is_stmt 0             @ ../ThirdParty/STM32F4xx_HAL_Driver/Src/stm32f4xx_hal_i2c.c:1284:20
	strb.w	r0, [r1, #61]
	.loc	7 1287 9 is_stmt 1              @ ../ThirdParty/STM32F4xx_HAL_Driver/Src/stm32f4xx_hal_i2c.c:1287:9
	b	.LBB16_4
.LBB16_4:
.Ltmp444:
	.loc	7 1287 9 is_stmt 0              @ ../ThirdParty/STM32F4xx_HAL_Driver/Src/stm32f4xx_hal_i2c.c:1287:9
	ldr	r1, [sp, #16]
	movs	r0, #0
	strb.w	r0, [r1, #60]
	b	.LBB16_5
.Ltmp445:
.LBB16_5:
	.loc	7 0 9                           @ ../ThirdParty/STM32F4xx_HAL_Driver/Src/stm32f4xx_hal_i2c.c:0:9
	movs	r0, #3
	.loc	7 1289 9 is_stmt 1              @ ../ThirdParty/STM32F4xx_HAL_Driver/Src/stm32f4xx_hal_i2c.c:1289:9
	strb.w	r0, [sp, #23]
	b	.LBB16_19
.Ltmp446:
.LBB16_6:                               @   in Loop: Header=BB16_2 Depth=1
	.loc	7 1291 5                        @ ../ThirdParty/STM32F4xx_HAL_Driver/Src/stm32f4xx_hal_i2c.c:1291:5
	b	.LBB16_7
.Ltmp447:
.LBB16_7:                               @   in Loop: Header=BB16_2 Depth=1
	.loc	7 1292 11                       @ ../ThirdParty/STM32F4xx_HAL_Driver/Src/stm32f4xx_hal_i2c.c:1292:11
	ldr	r0, [sp, #16]
	ldr	r0, [r0]
	ldr	r0, [r0, #24]
	and	r1, r0, #2
	movs	r0, #0
.Ltmp448:
	.loc	7 1291 5                        @ ../ThirdParty/STM32F4xx_HAL_Driver/Src/stm32f4xx_hal_i2c.c:1291:5
	cmp.w	r0, r1, lsr #1
	bne	.LBB16_2
	b	.LBB16_8
.Ltmp449:
.LBB16_8:
	.loc	7 1295 5                        @ ../ThirdParty/STM32F4xx_HAL_Driver/Src/stm32f4xx_hal_i2c.c:1295:5
	b	.LBB16_9
.LBB16_9:
.Ltmp450:
	.loc	7 1295 5 is_stmt 0              @ ../ThirdParty/STM32F4xx_HAL_Driver/Src/stm32f4xx_hal_i2c.c:1295:5
	ldr	r0, [sp, #16]
	ldrb.w	r0, [r0, #60]
.Ltmp451:
	.loc	7 1295 5                        @ ../ThirdParty/STM32F4xx_HAL_Driver/Src/stm32f4xx_hal_i2c.c:1295:5
	cmp	r0, #1
	bne	.LBB16_11
	b	.LBB16_10
.LBB16_10:
	.loc	7 0 5                           @ ../ThirdParty/STM32F4xx_HAL_Driver/Src/stm32f4xx_hal_i2c.c:0:5
	movs	r0, #2
.Ltmp452:
	.loc	7 1295 5                        @ ../ThirdParty/STM32F4xx_HAL_Driver/Src/stm32f4xx_hal_i2c.c:1295:5
	strb.w	r0, [sp, #23]
	b	.LBB16_19
.Ltmp453:
.LBB16_11:
	.loc	7 1295 5                        @ ../ThirdParty/STM32F4xx_HAL_Driver/Src/stm32f4xx_hal_i2c.c:1295:5
	ldr	r1, [sp, #16]
	movs	r0, #1
	strb.w	r0, [r1, #60]
	b	.LBB16_12
.Ltmp454:
.LBB16_12:
	.loc	7 1295 5                        @ ../ThirdParty/STM32F4xx_HAL_Driver/Src/stm32f4xx_hal_i2c.c:1295:5
	b	.LBB16_13
.Ltmp455:
.LBB16_13:
	.loc	7 1298 9 is_stmt 1              @ ../ThirdParty/STM32F4xx_HAL_Driver/Src/stm32f4xx_hal_i2c.c:1298:9
	ldr	r0, [sp, #16]
	.loc	7 1298 15 is_stmt 0             @ ../ThirdParty/STM32F4xx_HAL_Driver/Src/stm32f4xx_hal_i2c.c:1298:15
	ldr	r0, [r0]
	.loc	7 1298 25                       @ ../ThirdParty/STM32F4xx_HAL_Driver/Src/stm32f4xx_hal_i2c.c:1298:25
	ldr	r0, [r0]
.Ltmp456:
	.loc	7 1298 8                        @ ../ThirdParty/STM32F4xx_HAL_Driver/Src/stm32f4xx_hal_i2c.c:1298:8
	lsls	r0, r0, #31
	cbnz	r0, .LBB16_15
	b	.LBB16_14
.LBB16_14:
.Ltmp457:
	.loc	7 1301 7 is_stmt 1              @ ../ThirdParty/STM32F4xx_HAL_Driver/Src/stm32f4xx_hal_i2c.c:1301:7
	ldr	r0, [sp, #16]
	ldr	r1, [r0]
	ldr	r0, [r1]
	orr	r0, r0, #1
	str	r0, [r1]
	.loc	7 1302 5                        @ ../ThirdParty/STM32F4xx_HAL_Driver/Src/stm32f4xx_hal_i2c.c:1302:5
	b	.LBB16_15
.Ltmp458:
.LBB16_15:
	.loc	7 1305 5                        @ ../ThirdParty/STM32F4xx_HAL_Driver/Src/stm32f4xx_hal_i2c.c:1305:5
	ldr	r0, [sp, #16]
	.loc	7 1305 11 is_stmt 0             @ ../ThirdParty/STM32F4xx_HAL_Driver/Src/stm32f4xx_hal_i2c.c:1305:11
	ldr	r1, [r0]
	.loc	7 1305 25                       @ ../ThirdParty/STM32F4xx_HAL_Driver/Src/stm32f4xx_hal_i2c.c:1305:25
	ldr	r0, [r1]
	bic	r0, r0, #2048
	str	r0, [r1]
	.loc	7 1307 5 is_stmt 1              @ ../ThirdParty/STM32F4xx_HAL_Driver/Src/stm32f4xx_hal_i2c.c:1307:5
	ldr	r1, [sp, #16]
	movs	r0, #34
	.loc	7 1307 21 is_stmt 0             @ ../ThirdParty/STM32F4xx_HAL_Driver/Src/stm32f4xx_hal_i2c.c:1307:21
	strb.w	r0, [r1, #61]
	.loc	7 1308 5 is_stmt 1              @ ../ThirdParty/STM32F4xx_HAL_Driver/Src/stm32f4xx_hal_i2c.c:1308:5
	ldr	r1, [sp, #16]
	movs	r0, #16
	.loc	7 1308 21 is_stmt 0             @ ../ThirdParty/STM32F4xx_HAL_Driver/Src/stm32f4xx_hal_i2c.c:1308:21
	strb.w	r0, [r1, #62]
	.loc	7 1309 5 is_stmt 1              @ ../ThirdParty/STM32F4xx_HAL_Driver/Src/stm32f4xx_hal_i2c.c:1309:5
	ldr	r1, [sp, #16]
	movs	r0, #0
	.loc	7 1309 21 is_stmt 0             @ ../ThirdParty/STM32F4xx_HAL_Driver/Src/stm32f4xx_hal_i2c.c:1309:21
	str	r0, [r1, #64]
	.loc	7 1312 25 is_stmt 1             @ ../ThirdParty/STM32F4xx_HAL_Driver/Src/stm32f4xx_hal_i2c.c:1312:25
	ldr	r0, [sp, #8]
	.loc	7 1312 5 is_stmt 0              @ ../ThirdParty/STM32F4xx_HAL_Driver/Src/stm32f4xx_hal_i2c.c:1312:5
	ldr	r1, [sp, #16]
	.loc	7 1312 23                       @ ../ThirdParty/STM32F4xx_HAL_Driver/Src/stm32f4xx_hal_i2c.c:1312:23
	str	r0, [r1, #36]
	.loc	7 1313 25 is_stmt 1             @ ../ThirdParty/STM32F4xx_HAL_Driver/Src/stm32f4xx_hal_i2c.c:1313:25
	ldrh.w	r0, [sp, #6]
	.loc	7 1313 5 is_stmt 0              @ ../ThirdParty/STM32F4xx_HAL_Driver/Src/stm32f4xx_hal_i2c.c:1313:5
	ldr	r1, [sp, #16]
	.loc	7 1313 23                       @ ../ThirdParty/STM32F4xx_HAL_Driver/Src/stm32f4xx_hal_i2c.c:1313:23
	strh	r0, [r1, #42]
	.loc	7 1314 5 is_stmt 1              @ ../ThirdParty/STM32F4xx_HAL_Driver/Src/stm32f4xx_hal_i2c.c:1314:5
	ldr	r1, [sp, #16]
	movs	r0, #0
	movt	r0, #65535
	.loc	7 1314 23 is_stmt 0             @ ../ThirdParty/STM32F4xx_HAL_Driver/Src/stm32f4xx_hal_i2c.c:1314:23
	str	r0, [r1, #44]
	.loc	7 1315 25 is_stmt 1             @ ../ThirdParty/STM32F4xx_HAL_Driver/Src/stm32f4xx_hal_i2c.c:1315:25
	ldr	r0, [sp, #16]
	.loc	7 1315 31 is_stmt 0             @ ../ThirdParty/STM32F4xx_HAL_Driver/Src/stm32f4xx_hal_i2c.c:1315:31
	ldrh	r0, [r0, #42]
	.loc	7 1315 5                        @ ../ThirdParty/STM32F4xx_HAL_Driver/Src/stm32f4xx_hal_i2c.c:1315:5
	ldr	r1, [sp, #16]
	.loc	7 1315 23                       @ ../ThirdParty/STM32F4xx_HAL_Driver/Src/stm32f4xx_hal_i2c.c:1315:23
	strh	r0, [r1, #40]
	.loc	7 1316 25 is_stmt 1             @ ../ThirdParty/STM32F4xx_HAL_Driver/Src/stm32f4xx_hal_i2c.c:1316:25
	ldrh.w	r0, [sp, #14]
	.loc	7 1316 5 is_stmt 0              @ ../ThirdParty/STM32F4xx_HAL_Driver/Src/stm32f4xx_hal_i2c.c:1316:5
	ldr	r1, [sp, #16]
	.loc	7 1316 23                       @ ../ThirdParty/STM32F4xx_HAL_Driver/Src/stm32f4xx_hal_i2c.c:1316:23
	str	r0, [r1, #68]
	.loc	7 1319 5 is_stmt 1              @ ../ThirdParty/STM32F4xx_HAL_Driver/Src/stm32f4xx_hal_i2c.c:1319:5
	ldr	r0, [sp, #16]
	.loc	7 1319 11 is_stmt 0             @ ../ThirdParty/STM32F4xx_HAL_Driver/Src/stm32f4xx_hal_i2c.c:1319:11
	ldr	r1, [r0]
	.loc	7 1319 25                       @ ../ThirdParty/STM32F4xx_HAL_Driver/Src/stm32f4xx_hal_i2c.c:1319:25
	ldr	r0, [r1]
	orr	r0, r0, #1024
	str	r0, [r1]
	.loc	7 1322 5 is_stmt 1              @ ../ThirdParty/STM32F4xx_HAL_Driver/Src/stm32f4xx_hal_i2c.c:1322:5
	ldr	r0, [sp, #16]
	.loc	7 1322 11 is_stmt 0             @ ../ThirdParty/STM32F4xx_HAL_Driver/Src/stm32f4xx_hal_i2c.c:1322:11
	ldr	r1, [r0]
	.loc	7 1322 25                       @ ../ThirdParty/STM32F4xx_HAL_Driver/Src/stm32f4xx_hal_i2c.c:1322:25
	ldr	r0, [r1]
	orr	r0, r0, #256
	str	r0, [r1]
	.loc	7 1325 5 is_stmt 1              @ ../ThirdParty/STM32F4xx_HAL_Driver/Src/stm32f4xx_hal_i2c.c:1325:5
	b	.LBB16_16
.LBB16_16:
.Ltmp459:
	.loc	7 1325 5 is_stmt 0              @ ../ThirdParty/STM32F4xx_HAL_Driver/Src/stm32f4xx_hal_i2c.c:1325:5
	ldr	r1, [sp, #16]
	movs	r0, #0
	strb.w	r0, [r1, #60]
	b	.LBB16_17
.Ltmp460:
.LBB16_17:
	.loc	7 1332 5 is_stmt 1              @ ../ThirdParty/STM32F4xx_HAL_Driver/Src/stm32f4xx_hal_i2c.c:1332:5
	ldr	r0, [sp, #16]
	ldr	r1, [r0]
	ldr	r0, [r1, #4]
	orr	r0, r0, #1792
	str	r0, [r1, #4]
	movs	r0, #0
	.loc	7 1334 5                        @ ../ThirdParty/STM32F4xx_HAL_Driver/Src/stm32f4xx_hal_i2c.c:1334:5
	strb.w	r0, [sp, #23]
	b	.LBB16_19
.Ltmp461:
.LBB16_18:
	.loc	7 0 5 is_stmt 0                 @ ../ThirdParty/STM32F4xx_HAL_Driver/Src/stm32f4xx_hal_i2c.c:0:5
	movs	r0, #2
.Ltmp462:
	.loc	7 1338 5 is_stmt 1              @ ../ThirdParty/STM32F4xx_HAL_Driver/Src/stm32f4xx_hal_i2c.c:1338:5
	strb.w	r0, [sp, #23]
	b	.LBB16_19
.Ltmp463:
.LBB16_19:
	.loc	7 1340 1                        @ ../ThirdParty/STM32F4xx_HAL_Driver/Src/stm32f4xx_hal_i2c.c:1340:1
	ldrb.w	r0, [sp, #23]
	.loc	7 1340 1 epilogue_begin is_stmt 0 @ ../ThirdParty/STM32F4xx_HAL_Driver/Src/stm32f4xx_hal_i2c.c:1340:1
	add	sp, #24
	bx	lr
.Ltmp464:
.Lfunc_end16:
	.size	HAL_I2C_Master_Receive_IT, .Lfunc_end16-HAL_I2C_Master_Receive_IT
	.cfi_endproc
	.cantunwind
	.fnend
                                        @ -- End function
	.section	.text.HAL_I2C_Master_Sequential_Transmit_IT,"ax",%progbits
	.hidden	HAL_I2C_Master_Sequential_Transmit_IT @ -- Begin function HAL_I2C_Master_Sequential_Transmit_IT
	.globl	HAL_I2C_Master_Sequential_Transmit_IT
	.p2align	2
	.type	HAL_I2C_Master_Sequential_Transmit_IT,%function
	.code	16                              @ @HAL_I2C_Master_Sequential_Transmit_IT
	.thumb_func
HAL_I2C_Master_Sequential_Transmit_IT:
.Lfunc_begin17:
	.loc	7 1355 0 is_stmt 1              @ ../ThirdParty/STM32F4xx_HAL_Driver/Src/stm32f4xx_hal_i2c.c:1355:0
	.fnstart
	.cfi_startproc
@ %bb.0:
	.pad	#28
	sub	sp, #28
	.cfi_def_cfa_offset 28
	ldr.w	r12, [sp, #28]
                                        @ kill: def $r12 killed $r3
                                        @ kill: def $r12 killed $r1
	str	r0, [sp, #20]
	strh.w	r1, [sp, #18]
	str	r2, [sp, #12]
	strh.w	r3, [sp, #10]
	movs	r0, #0
.Ltmp465:
	.loc	7 1356 17 prologue_end          @ ../ThirdParty/STM32F4xx_HAL_Driver/Src/stm32f4xx_hal_i2c.c:1356:17
	str	r0, [sp, #4]
	.loc	7 1357 17                       @ ../ThirdParty/STM32F4xx_HAL_Driver/Src/stm32f4xx_hal_i2c.c:1357:17
	str	r0, [sp]
.Ltmp466:
	.loc	7 1362 6                        @ ../ThirdParty/STM32F4xx_HAL_Driver/Src/stm32f4xx_hal_i2c.c:1362:6
	ldr	r0, [sp, #20]
	.loc	7 1362 12 is_stmt 0             @ ../ThirdParty/STM32F4xx_HAL_Driver/Src/stm32f4xx_hal_i2c.c:1362:12
	ldrb.w	r0, [r0, #61]
.Ltmp467:
	.loc	7 1362 6                        @ ../ThirdParty/STM32F4xx_HAL_Driver/Src/stm32f4xx_hal_i2c.c:1362:6
	cmp	r0, #32
	bne.w	.LBB17_28
	b	.LBB17_1
.LBB17_1:
.Ltmp468:
	.loc	7 1365 9 is_stmt 1              @ ../ThirdParty/STM32F4xx_HAL_Driver/Src/stm32f4xx_hal_i2c.c:1365:9
	ldr	r0, [sp, #28]
	.loc	7 1365 50 is_stmt 0             @ ../ThirdParty/STM32F4xx_HAL_Driver/Src/stm32f4xx_hal_i2c.c:1365:50
	cmp	r0, #4
	beq	.LBB17_3
	b	.LBB17_2
.LBB17_2:
	.loc	7 1365 54                       @ ../ThirdParty/STM32F4xx_HAL_Driver/Src/stm32f4xx_hal_i2c.c:1365:54
	ldr	r0, [sp, #28]
.Ltmp469:
	.loc	7 1365 8                        @ ../ThirdParty/STM32F4xx_HAL_Driver/Src/stm32f4xx_hal_i2c.c:1365:8
	cmp	r0, #1
	bne	.LBB17_11
	b	.LBB17_3
.LBB17_3:
.Ltmp470:
	.loc	7 1368 40 is_stmt 1             @ ../ThirdParty/STM32F4xx_HAL_Driver/Src/stm32f4xx_hal_i2c.c:1368:40
	movw	r0, :lower16:SystemCoreClock
	movt	r0, :upper16:SystemCoreClock
	ldr	r0, [r0]
	movw	r1, #34079
	movt	r1, #20971
	.loc	7 1368 56 is_stmt 0             @ ../ThirdParty/STM32F4xx_HAL_Driver/Src/stm32f4xx_hal_i2c.c:1368:56
	umull	r1, r0, r0, r1
	lsrs	r0, r0, #3
	movw	r1, #19923
	movt	r1, #4194
	.loc	7 1368 61                       @ ../ThirdParty/STM32F4xx_HAL_Driver/Src/stm32f4xx_hal_i2c.c:1368:61
	umull	r1, r0, r0, r1
	lsrs	r0, r0, #6
	movs	r1, #25
	.loc	7 1368 37                       @ ../ThirdParty/STM32F4xx_HAL_Driver/Src/stm32f4xx_hal_i2c.c:1368:37
	muls	r0, r1, r0
	.loc	7 1368 13                       @ ../ThirdParty/STM32F4xx_HAL_Driver/Src/stm32f4xx_hal_i2c.c:1368:13
	str	r0, [sp]
	.loc	7 1369 7 is_stmt 1              @ ../ThirdParty/STM32F4xx_HAL_Driver/Src/stm32f4xx_hal_i2c.c:1369:7
	b	.LBB17_4
.LBB17_4:                               @ =>This Inner Loop Header: Depth=1
.Ltmp471:
	.loc	7 1371 17                       @ ../ThirdParty/STM32F4xx_HAL_Driver/Src/stm32f4xx_hal_i2c.c:1371:17
	ldr	r0, [sp]
	subs	r1, r0, #1
	str	r1, [sp]
.Ltmp472:
	.loc	7 1371 12 is_stmt 0             @ ../ThirdParty/STM32F4xx_HAL_Driver/Src/stm32f4xx_hal_i2c.c:1371:12
	cbnz	r0, .LBB17_8
	b	.LBB17_5
.LBB17_5:
.Ltmp473:
	.loc	7 1373 11 is_stmt 1             @ ../ThirdParty/STM32F4xx_HAL_Driver/Src/stm32f4xx_hal_i2c.c:1373:11
	ldr	r1, [sp, #20]
	movs	r0, #0
	.loc	7 1373 31 is_stmt 0             @ ../ThirdParty/STM32F4xx_HAL_Driver/Src/stm32f4xx_hal_i2c.c:1373:31
	str	r0, [r1, #48]
	.loc	7 1374 11 is_stmt 1             @ ../ThirdParty/STM32F4xx_HAL_Driver/Src/stm32f4xx_hal_i2c.c:1374:11
	ldr	r1, [sp, #20]
	movs	r0, #32
	.loc	7 1374 22 is_stmt 0             @ ../ThirdParty/STM32F4xx_HAL_Driver/Src/stm32f4xx_hal_i2c.c:1374:22
	strb.w	r0, [r1, #61]
	.loc	7 1377 11 is_stmt 1             @ ../ThirdParty/STM32F4xx_HAL_Driver/Src/stm32f4xx_hal_i2c.c:1377:11
	b	.LBB17_6
.LBB17_6:
.Ltmp474:
	.loc	7 1377 11 is_stmt 0             @ ../ThirdParty/STM32F4xx_HAL_Driver/Src/stm32f4xx_hal_i2c.c:1377:11
	ldr	r1, [sp, #20]
	movs	r0, #0
	strb.w	r0, [r1, #60]
	b	.LBB17_7
.Ltmp475:
.LBB17_7:
	.loc	7 0 11                          @ ../ThirdParty/STM32F4xx_HAL_Driver/Src/stm32f4xx_hal_i2c.c:0:11
	movs	r0, #3
	.loc	7 1379 11 is_stmt 1             @ ../ThirdParty/STM32F4xx_HAL_Driver/Src/stm32f4xx_hal_i2c.c:1379:11
	strb.w	r0, [sp, #27]
	b	.LBB17_29
.Ltmp476:
.LBB17_8:                               @   in Loop: Header=BB17_4 Depth=1
	.loc	7 1381 7                        @ ../ThirdParty/STM32F4xx_HAL_Driver/Src/stm32f4xx_hal_i2c.c:1381:7
	b	.LBB17_9
.Ltmp477:
.LBB17_9:                               @   in Loop: Header=BB17_4 Depth=1
	.loc	7 1382 13                       @ ../ThirdParty/STM32F4xx_HAL_Driver/Src/stm32f4xx_hal_i2c.c:1382:13
	ldr	r0, [sp, #20]
	ldr	r0, [r0]
	ldr	r0, [r0, #24]
	and	r1, r0, #2
	movs	r0, #0
.Ltmp478:
	.loc	7 1381 7                        @ ../ThirdParty/STM32F4xx_HAL_Driver/Src/stm32f4xx_hal_i2c.c:1381:7
	cmp.w	r0, r1, lsr #1
	bne	.LBB17_4
	b	.LBB17_10
.Ltmp479:
.LBB17_10:
	.loc	7 1383 5                        @ ../ThirdParty/STM32F4xx_HAL_Driver/Src/stm32f4xx_hal_i2c.c:1383:5
	b	.LBB17_11
.Ltmp480:
.LBB17_11:
	.loc	7 1386 5                        @ ../ThirdParty/STM32F4xx_HAL_Driver/Src/stm32f4xx_hal_i2c.c:1386:5
	b	.LBB17_12
.LBB17_12:
.Ltmp481:
	.loc	7 1386 5 is_stmt 0              @ ../ThirdParty/STM32F4xx_HAL_Driver/Src/stm32f4xx_hal_i2c.c:1386:5
	ldr	r0, [sp, #20]
	ldrb.w	r0, [r0, #60]
.Ltmp482:
	.loc	7 1386 5                        @ ../ThirdParty/STM32F4xx_HAL_Driver/Src/stm32f4xx_hal_i2c.c:1386:5
	cmp	r0, #1
	bne	.LBB17_14
	b	.LBB17_13
.LBB17_13:
	.loc	7 0 5                           @ ../ThirdParty/STM32F4xx_HAL_Driver/Src/stm32f4xx_hal_i2c.c:0:5
	movs	r0, #2
.Ltmp483:
	.loc	7 1386 5                        @ ../ThirdParty/STM32F4xx_HAL_Driver/Src/stm32f4xx_hal_i2c.c:1386:5
	strb.w	r0, [sp, #27]
	b	.LBB17_29
.Ltmp484:
.LBB17_14:
	.loc	7 1386 5                        @ ../ThirdParty/STM32F4xx_HAL_Driver/Src/stm32f4xx_hal_i2c.c:1386:5
	ldr	r1, [sp, #20]
	movs	r0, #1
	strb.w	r0, [r1, #60]
	b	.LBB17_15
.Ltmp485:
.LBB17_15:
	.loc	7 1386 5                        @ ../ThirdParty/STM32F4xx_HAL_Driver/Src/stm32f4xx_hal_i2c.c:1386:5
	b	.LBB17_16
.Ltmp486:
.LBB17_16:
	.loc	7 1389 9 is_stmt 1              @ ../ThirdParty/STM32F4xx_HAL_Driver/Src/stm32f4xx_hal_i2c.c:1389:9
	ldr	r0, [sp, #20]
	.loc	7 1389 15 is_stmt 0             @ ../ThirdParty/STM32F4xx_HAL_Driver/Src/stm32f4xx_hal_i2c.c:1389:15
	ldr	r0, [r0]
	.loc	7 1389 25                       @ ../ThirdParty/STM32F4xx_HAL_Driver/Src/stm32f4xx_hal_i2c.c:1389:25
	ldr	r0, [r0]
.Ltmp487:
	.loc	7 1389 8                        @ ../ThirdParty/STM32F4xx_HAL_Driver/Src/stm32f4xx_hal_i2c.c:1389:8
	lsls	r0, r0, #31
	cbnz	r0, .LBB17_18
	b	.LBB17_17
.LBB17_17:
.Ltmp488:
	.loc	7 1392 7 is_stmt 1              @ ../ThirdParty/STM32F4xx_HAL_Driver/Src/stm32f4xx_hal_i2c.c:1392:7
	ldr	r0, [sp, #20]
	ldr	r1, [r0]
	ldr	r0, [r1]
	orr	r0, r0, #1
	str	r0, [r1]
	.loc	7 1393 5                        @ ../ThirdParty/STM32F4xx_HAL_Driver/Src/stm32f4xx_hal_i2c.c:1393:5
	b	.LBB17_18
.Ltmp489:
.LBB17_18:
	.loc	7 1396 5                        @ ../ThirdParty/STM32F4xx_HAL_Driver/Src/stm32f4xx_hal_i2c.c:1396:5
	ldr	r0, [sp, #20]
	.loc	7 1396 11 is_stmt 0             @ ../ThirdParty/STM32F4xx_HAL_Driver/Src/stm32f4xx_hal_i2c.c:1396:11
	ldr	r1, [r0]
	.loc	7 1396 25                       @ ../ThirdParty/STM32F4xx_HAL_Driver/Src/stm32f4xx_hal_i2c.c:1396:25
	ldr	r0, [r1]
	bic	r0, r0, #2048
	str	r0, [r1]
	.loc	7 1398 5 is_stmt 1              @ ../ThirdParty/STM32F4xx_HAL_Driver/Src/stm32f4xx_hal_i2c.c:1398:5
	ldr	r1, [sp, #20]
	movs	r0, #33
	.loc	7 1398 21 is_stmt 0             @ ../ThirdParty/STM32F4xx_HAL_Driver/Src/stm32f4xx_hal_i2c.c:1398:21
	strb.w	r0, [r1, #61]
	.loc	7 1399 5 is_stmt 1              @ ../ThirdParty/STM32F4xx_HAL_Driver/Src/stm32f4xx_hal_i2c.c:1399:5
	ldr	r1, [sp, #20]
	movs	r0, #16
	.loc	7 1399 21 is_stmt 0             @ ../ThirdParty/STM32F4xx_HAL_Driver/Src/stm32f4xx_hal_i2c.c:1399:21
	strb.w	r0, [r1, #62]
	.loc	7 1400 5 is_stmt 1              @ ../ThirdParty/STM32F4xx_HAL_Driver/Src/stm32f4xx_hal_i2c.c:1400:5
	ldr	r1, [sp, #20]
	movs	r0, #0
	.loc	7 1400 21 is_stmt 0             @ ../ThirdParty/STM32F4xx_HAL_Driver/Src/stm32f4xx_hal_i2c.c:1400:21
	str	r0, [r1, #64]
	.loc	7 1403 25 is_stmt 1             @ ../ThirdParty/STM32F4xx_HAL_Driver/Src/stm32f4xx_hal_i2c.c:1403:25
	ldr	r0, [sp, #12]
	.loc	7 1403 5 is_stmt 0              @ ../ThirdParty/STM32F4xx_HAL_Driver/Src/stm32f4xx_hal_i2c.c:1403:5
	ldr	r1, [sp, #20]
	.loc	7 1403 23                       @ ../ThirdParty/STM32F4xx_HAL_Driver/Src/stm32f4xx_hal_i2c.c:1403:23
	str	r0, [r1, #36]
	.loc	7 1404 25 is_stmt 1             @ ../ThirdParty/STM32F4xx_HAL_Driver/Src/stm32f4xx_hal_i2c.c:1404:25
	ldrh.w	r0, [sp, #10]
	.loc	7 1404 5 is_stmt 0              @ ../ThirdParty/STM32F4xx_HAL_Driver/Src/stm32f4xx_hal_i2c.c:1404:5
	ldr	r1, [sp, #20]
	.loc	7 1404 23                       @ ../ThirdParty/STM32F4xx_HAL_Driver/Src/stm32f4xx_hal_i2c.c:1404:23
	strh	r0, [r1, #42]
	.loc	7 1405 25 is_stmt 1             @ ../ThirdParty/STM32F4xx_HAL_Driver/Src/stm32f4xx_hal_i2c.c:1405:25
	ldr	r0, [sp, #28]
	.loc	7 1405 5 is_stmt 0              @ ../ThirdParty/STM32F4xx_HAL_Driver/Src/stm32f4xx_hal_i2c.c:1405:5
	ldr	r1, [sp, #20]
	.loc	7 1405 23                       @ ../ThirdParty/STM32F4xx_HAL_Driver/Src/stm32f4xx_hal_i2c.c:1405:23
	str	r0, [r1, #44]
	.loc	7 1406 25 is_stmt 1             @ ../ThirdParty/STM32F4xx_HAL_Driver/Src/stm32f4xx_hal_i2c.c:1406:25
	ldr	r0, [sp, #20]
	.loc	7 1406 31 is_stmt 0             @ ../ThirdParty/STM32F4xx_HAL_Driver/Src/stm32f4xx_hal_i2c.c:1406:31
	ldrh	r0, [r0, #42]
	.loc	7 1406 5                        @ ../ThirdParty/STM32F4xx_HAL_Driver/Src/stm32f4xx_hal_i2c.c:1406:5
	ldr	r1, [sp, #20]
	.loc	7 1406 23                       @ ../ThirdParty/STM32F4xx_HAL_Driver/Src/stm32f4xx_hal_i2c.c:1406:23
	strh	r0, [r1, #40]
	.loc	7 1407 25 is_stmt 1             @ ../ThirdParty/STM32F4xx_HAL_Driver/Src/stm32f4xx_hal_i2c.c:1407:25
	ldrh.w	r0, [sp, #18]
	.loc	7 1407 5 is_stmt 0              @ ../ThirdParty/STM32F4xx_HAL_Driver/Src/stm32f4xx_hal_i2c.c:1407:5
	ldr	r1, [sp, #20]
	.loc	7 1407 23                       @ ../ThirdParty/STM32F4xx_HAL_Driver/Src/stm32f4xx_hal_i2c.c:1407:23
	str	r0, [r1, #68]
	.loc	7 1409 18 is_stmt 1             @ ../ThirdParty/STM32F4xx_HAL_Driver/Src/stm32f4xx_hal_i2c.c:1409:18
	ldr	r0, [sp, #20]
	.loc	7 1409 24 is_stmt 0             @ ../ThirdParty/STM32F4xx_HAL_Driver/Src/stm32f4xx_hal_i2c.c:1409:24
	ldr	r0, [r0, #48]
	.loc	7 1409 16                       @ ../ThirdParty/STM32F4xx_HAL_Driver/Src/stm32f4xx_hal_i2c.c:1409:16
	str	r0, [sp, #4]
.Ltmp490:
	.loc	7 1412 9 is_stmt 1              @ ../ThirdParty/STM32F4xx_HAL_Driver/Src/stm32f4xx_hal_i2c.c:1412:9
	ldr	r0, [sp, #4]
	.loc	7 1412 49 is_stmt 0             @ ../ThirdParty/STM32F4xx_HAL_Driver/Src/stm32f4xx_hal_i2c.c:1412:49
	cmp	r0, #18
	beq	.LBB17_20
	b	.LBB17_19
.LBB17_19:
	.loc	7 1412 53                       @ ../ThirdParty/STM32F4xx_HAL_Driver/Src/stm32f4xx_hal_i2c.c:1412:53
	ldr	r0, [sp, #4]
.Ltmp491:
	.loc	7 1412 8                        @ ../ThirdParty/STM32F4xx_HAL_Driver/Src/stm32f4xx_hal_i2c.c:1412:8
	cbnz	r0, .LBB17_25
	b	.LBB17_20
.LBB17_20:
.Ltmp492:
	.loc	7 1415 11 is_stmt 1             @ ../ThirdParty/STM32F4xx_HAL_Driver/Src/stm32f4xx_hal_i2c.c:1415:11
	ldr	r0, [sp, #28]
	.loc	7 1415 52 is_stmt 0             @ ../ThirdParty/STM32F4xx_HAL_Driver/Src/stm32f4xx_hal_i2c.c:1415:52
	cmp	r0, #4
	beq	.LBB17_22
	b	.LBB17_21
.LBB17_21:
	.loc	7 1415 56                       @ ../ThirdParty/STM32F4xx_HAL_Driver/Src/stm32f4xx_hal_i2c.c:1415:56
	ldr	r0, [sp, #28]
.Ltmp493:
	.loc	7 1415 10                       @ ../ThirdParty/STM32F4xx_HAL_Driver/Src/stm32f4xx_hal_i2c.c:1415:10
	cmp	r0, #1
	bne	.LBB17_23
	b	.LBB17_22
.LBB17_22:
.Ltmp494:
	.loc	7 1418 9 is_stmt 1              @ ../ThirdParty/STM32F4xx_HAL_Driver/Src/stm32f4xx_hal_i2c.c:1418:9
	ldr	r0, [sp, #20]
	.loc	7 1418 15 is_stmt 0             @ ../ThirdParty/STM32F4xx_HAL_Driver/Src/stm32f4xx_hal_i2c.c:1418:15
	ldr	r1, [r0]
	.loc	7 1418 29                       @ ../ThirdParty/STM32F4xx_HAL_Driver/Src/stm32f4xx_hal_i2c.c:1418:29
	ldr	r0, [r1]
	orr	r0, r0, #256
	str	r0, [r1]
	.loc	7 1419 7 is_stmt 1              @ ../ThirdParty/STM32F4xx_HAL_Driver/Src/stm32f4xx_hal_i2c.c:1419:7
	b	.LBB17_24
.Ltmp495:
.LBB17_23:
	.loc	7 1423 9                        @ ../ThirdParty/STM32F4xx_HAL_Driver/Src/stm32f4xx_hal_i2c.c:1423:9
	ldr	r0, [sp, #20]
	.loc	7 1423 15 is_stmt 0             @ ../ThirdParty/STM32F4xx_HAL_Driver/Src/stm32f4xx_hal_i2c.c:1423:15
	ldr	r1, [r0]
	.loc	7 1423 29                       @ ../ThirdParty/STM32F4xx_HAL_Driver/Src/stm32f4xx_hal_i2c.c:1423:29
	ldr	r0, [r1]
	orr	r0, r0, #256
	str	r0, [r1]
	b	.LBB17_24
.Ltmp496:
.LBB17_24:
	.loc	7 1425 5 is_stmt 1              @ ../ThirdParty/STM32F4xx_HAL_Driver/Src/stm32f4xx_hal_i2c.c:1425:5
	b	.LBB17_25
.Ltmp497:
.LBB17_25:
	.loc	7 1428 5                        @ ../ThirdParty/STM32F4xx_HAL_Driver/Src/stm32f4xx_hal_i2c.c:1428:5
	b	.LBB17_26
.LBB17_26:
.Ltmp498:
	.loc	7 1428 5 is_stmt 0              @ ../ThirdParty/STM32F4xx_HAL_Driver/Src/stm32f4xx_hal_i2c.c:1428:5
	ldr	r1, [sp, #20]
	movs	r0, #0
	strb.w	r0, [r1, #60]
	b	.LBB17_27
.Ltmp499:
.LBB17_27:
	.loc	7 1435 5 is_stmt 1              @ ../ThirdParty/STM32F4xx_HAL_Driver/Src/stm32f4xx_hal_i2c.c:1435:5
	ldr	r0, [sp, #20]
	ldr	r1, [r0]
	ldr	r0, [r1, #4]
	orr	r0, r0, #1792
	str	r0, [r1, #4]
	movs	r0, #0
	.loc	7 1437 5                        @ ../ThirdParty/STM32F4xx_HAL_Driver/Src/stm32f4xx_hal_i2c.c:1437:5
	strb.w	r0, [sp, #27]
	b	.LBB17_29
.Ltmp500:
.LBB17_28:
	.loc	7 0 5 is_stmt 0                 @ ../ThirdParty/STM32F4xx_HAL_Driver/Src/stm32f4xx_hal_i2c.c:0:5
	movs	r0, #2
.Ltmp501:
	.loc	7 1441 5 is_stmt 1              @ ../ThirdParty/STM32F4xx_HAL_Driver/Src/stm32f4xx_hal_i2c.c:1441:5
	strb.w	r0, [sp, #27]
	b	.LBB17_29
.Ltmp502:
.LBB17_29:
	.loc	7 1443 1                        @ ../ThirdParty/STM32F4xx_HAL_Driver/Src/stm32f4xx_hal_i2c.c:1443:1
	ldrb.w	r0, [sp, #27]
	.loc	7 1443 1 epilogue_begin is_stmt 0 @ ../ThirdParty/STM32F4xx_HAL_Driver/Src/stm32f4xx_hal_i2c.c:1443:1
	add	sp, #28
	bx	lr
.Ltmp503:
.Lfunc_end17:
	.size	HAL_I2C_Master_Sequential_Transmit_IT, .Lfunc_end17-HAL_I2C_Master_Sequential_Transmit_IT
	.cfi_endproc
	.cantunwind
	.fnend
                                        @ -- End function
	.section	.text.HAL_I2C_Master_Sequential_Receive_IT,"ax",%progbits
	.hidden	HAL_I2C_Master_Sequential_Receive_IT @ -- Begin function HAL_I2C_Master_Sequential_Receive_IT
	.globl	HAL_I2C_Master_Sequential_Receive_IT
	.p2align	2
	.type	HAL_I2C_Master_Sequential_Receive_IT,%function
	.code	16                              @ @HAL_I2C_Master_Sequential_Receive_IT
	.thumb_func
HAL_I2C_Master_Sequential_Receive_IT:
.Lfunc_begin18:
	.loc	7 1458 0 is_stmt 1              @ ../ThirdParty/STM32F4xx_HAL_Driver/Src/stm32f4xx_hal_i2c.c:1458:0
	.fnstart
	.cfi_startproc
@ %bb.0:
	.pad	#24
	sub	sp, #24
	.cfi_def_cfa_offset 24
	ldr.w	r12, [sp, #24]
                                        @ kill: def $r12 killed $r3
                                        @ kill: def $r12 killed $r1
	str	r0, [sp, #16]
	strh.w	r1, [sp, #14]
	str	r2, [sp, #8]
	strh.w	r3, [sp, #6]
	movs	r0, #0
.Ltmp504:
	.loc	7 1459 17 prologue_end          @ ../ThirdParty/STM32F4xx_HAL_Driver/Src/stm32f4xx_hal_i2c.c:1459:17
	str	r0, [sp]
.Ltmp505:
	.loc	7 1464 6                        @ ../ThirdParty/STM32F4xx_HAL_Driver/Src/stm32f4xx_hal_i2c.c:1464:6
	ldr	r0, [sp, #16]
	.loc	7 1464 12 is_stmt 0             @ ../ThirdParty/STM32F4xx_HAL_Driver/Src/stm32f4xx_hal_i2c.c:1464:12
	ldrb.w	r0, [r0, #61]
.Ltmp506:
	.loc	7 1464 6                        @ ../ThirdParty/STM32F4xx_HAL_Driver/Src/stm32f4xx_hal_i2c.c:1464:6
	cmp	r0, #32
	bne.w	.LBB18_31
	b	.LBB18_1
.LBB18_1:
.Ltmp507:
	.loc	7 1467 9 is_stmt 1              @ ../ThirdParty/STM32F4xx_HAL_Driver/Src/stm32f4xx_hal_i2c.c:1467:9
	ldr	r0, [sp, #24]
	.loc	7 1467 50 is_stmt 0             @ ../ThirdParty/STM32F4xx_HAL_Driver/Src/stm32f4xx_hal_i2c.c:1467:50
	cmp	r0, #4
	beq	.LBB18_3
	b	.LBB18_2
.LBB18_2:
	.loc	7 1467 54                       @ ../ThirdParty/STM32F4xx_HAL_Driver/Src/stm32f4xx_hal_i2c.c:1467:54
	ldr	r0, [sp, #24]
.Ltmp508:
	.loc	7 1467 8                        @ ../ThirdParty/STM32F4xx_HAL_Driver/Src/stm32f4xx_hal_i2c.c:1467:8
	cmp	r0, #1
	bne	.LBB18_11
	b	.LBB18_3
.LBB18_3:
.Ltmp509:
	.loc	7 1470 40 is_stmt 1             @ ../ThirdParty/STM32F4xx_HAL_Driver/Src/stm32f4xx_hal_i2c.c:1470:40
	movw	r0, :lower16:SystemCoreClock
	movt	r0, :upper16:SystemCoreClock
	ldr	r0, [r0]
	movw	r1, #34079
	movt	r1, #20971
	.loc	7 1470 56 is_stmt 0             @ ../ThirdParty/STM32F4xx_HAL_Driver/Src/stm32f4xx_hal_i2c.c:1470:56
	umull	r1, r0, r0, r1
	lsrs	r0, r0, #3
	movw	r1, #19923
	movt	r1, #4194
	.loc	7 1470 61                       @ ../ThirdParty/STM32F4xx_HAL_Driver/Src/stm32f4xx_hal_i2c.c:1470:61
	umull	r1, r0, r0, r1
	lsrs	r0, r0, #6
	movs	r1, #25
	.loc	7 1470 37                       @ ../ThirdParty/STM32F4xx_HAL_Driver/Src/stm32f4xx_hal_i2c.c:1470:37
	muls	r0, r1, r0
	.loc	7 1470 13                       @ ../ThirdParty/STM32F4xx_HAL_Driver/Src/stm32f4xx_hal_i2c.c:1470:13
	str	r0, [sp]
	.loc	7 1471 7 is_stmt 1              @ ../ThirdParty/STM32F4xx_HAL_Driver/Src/stm32f4xx_hal_i2c.c:1471:7
	b	.LBB18_4
.LBB18_4:                               @ =>This Inner Loop Header: Depth=1
.Ltmp510:
	.loc	7 1473 17                       @ ../ThirdParty/STM32F4xx_HAL_Driver/Src/stm32f4xx_hal_i2c.c:1473:17
	ldr	r0, [sp]
	subs	r1, r0, #1
	str	r1, [sp]
.Ltmp511:
	.loc	7 1473 12 is_stmt 0             @ ../ThirdParty/STM32F4xx_HAL_Driver/Src/stm32f4xx_hal_i2c.c:1473:12
	cbnz	r0, .LBB18_8
	b	.LBB18_5
.LBB18_5:
.Ltmp512:
	.loc	7 1475 11 is_stmt 1             @ ../ThirdParty/STM32F4xx_HAL_Driver/Src/stm32f4xx_hal_i2c.c:1475:11
	ldr	r1, [sp, #16]
	movs	r0, #0
	.loc	7 1475 31 is_stmt 0             @ ../ThirdParty/STM32F4xx_HAL_Driver/Src/stm32f4xx_hal_i2c.c:1475:31
	str	r0, [r1, #48]
	.loc	7 1476 11 is_stmt 1             @ ../ThirdParty/STM32F4xx_HAL_Driver/Src/stm32f4xx_hal_i2c.c:1476:11
	ldr	r1, [sp, #16]
	movs	r0, #32
	.loc	7 1476 22 is_stmt 0             @ ../ThirdParty/STM32F4xx_HAL_Driver/Src/stm32f4xx_hal_i2c.c:1476:22
	strb.w	r0, [r1, #61]
	.loc	7 1479 11 is_stmt 1             @ ../ThirdParty/STM32F4xx_HAL_Driver/Src/stm32f4xx_hal_i2c.c:1479:11
	b	.LBB18_6
.LBB18_6:
.Ltmp513:
	.loc	7 1479 11 is_stmt 0             @ ../ThirdParty/STM32F4xx_HAL_Driver/Src/stm32f4xx_hal_i2c.c:1479:11
	ldr	r1, [sp, #16]
	movs	r0, #0
	strb.w	r0, [r1, #60]
	b	.LBB18_7
.Ltmp514:
.LBB18_7:
	.loc	7 0 11                          @ ../ThirdParty/STM32F4xx_HAL_Driver/Src/stm32f4xx_hal_i2c.c:0:11
	movs	r0, #3
	.loc	7 1481 11 is_stmt 1             @ ../ThirdParty/STM32F4xx_HAL_Driver/Src/stm32f4xx_hal_i2c.c:1481:11
	strb.w	r0, [sp, #23]
	b	.LBB18_32
.Ltmp515:
.LBB18_8:                               @   in Loop: Header=BB18_4 Depth=1
	.loc	7 1483 7                        @ ../ThirdParty/STM32F4xx_HAL_Driver/Src/stm32f4xx_hal_i2c.c:1483:7
	b	.LBB18_9
.Ltmp516:
.LBB18_9:                               @   in Loop: Header=BB18_4 Depth=1
	.loc	7 1484 13                       @ ../ThirdParty/STM32F4xx_HAL_Driver/Src/stm32f4xx_hal_i2c.c:1484:13
	ldr	r0, [sp, #16]
	ldr	r0, [r0]
	ldr	r0, [r0, #24]
	and	r1, r0, #2
	movs	r0, #0
.Ltmp517:
	.loc	7 1483 7                        @ ../ThirdParty/STM32F4xx_HAL_Driver/Src/stm32f4xx_hal_i2c.c:1483:7
	cmp.w	r0, r1, lsr #1
	bne	.LBB18_4
	b	.LBB18_10
.Ltmp518:
.LBB18_10:
	.loc	7 1485 5                        @ ../ThirdParty/STM32F4xx_HAL_Driver/Src/stm32f4xx_hal_i2c.c:1485:5
	b	.LBB18_11
.Ltmp519:
.LBB18_11:
	.loc	7 1488 5                        @ ../ThirdParty/STM32F4xx_HAL_Driver/Src/stm32f4xx_hal_i2c.c:1488:5
	b	.LBB18_12
.LBB18_12:
.Ltmp520:
	.loc	7 1488 5 is_stmt 0              @ ../ThirdParty/STM32F4xx_HAL_Driver/Src/stm32f4xx_hal_i2c.c:1488:5
	ldr	r0, [sp, #16]
	ldrb.w	r0, [r0, #60]
.Ltmp521:
	.loc	7 1488 5                        @ ../ThirdParty/STM32F4xx_HAL_Driver/Src/stm32f4xx_hal_i2c.c:1488:5
	cmp	r0, #1
	bne	.LBB18_14
	b	.LBB18_13
.LBB18_13:
	.loc	7 0 5                           @ ../ThirdParty/STM32F4xx_HAL_Driver/Src/stm32f4xx_hal_i2c.c:0:5
	movs	r0, #2
.Ltmp522:
	.loc	7 1488 5                        @ ../ThirdParty/STM32F4xx_HAL_Driver/Src/stm32f4xx_hal_i2c.c:1488:5
	strb.w	r0, [sp, #23]
	b	.LBB18_32
.Ltmp523:
.LBB18_14:
	.loc	7 1488 5                        @ ../ThirdParty/STM32F4xx_HAL_Driver/Src/stm32f4xx_hal_i2c.c:1488:5
	ldr	r1, [sp, #16]
	movs	r0, #1
	strb.w	r0, [r1, #60]
	b	.LBB18_15
.Ltmp524:
.LBB18_15:
	.loc	7 1488 5                        @ ../ThirdParty/STM32F4xx_HAL_Driver/Src/stm32f4xx_hal_i2c.c:1488:5
	b	.LBB18_16
.Ltmp525:
.LBB18_16:
	.loc	7 1491 9 is_stmt 1              @ ../ThirdParty/STM32F4xx_HAL_Driver/Src/stm32f4xx_hal_i2c.c:1491:9
	ldr	r0, [sp, #16]
	.loc	7 1491 15 is_stmt 0             @ ../ThirdParty/STM32F4xx_HAL_Driver/Src/stm32f4xx_hal_i2c.c:1491:15
	ldr	r0, [r0]
	.loc	7 1491 25                       @ ../ThirdParty/STM32F4xx_HAL_Driver/Src/stm32f4xx_hal_i2c.c:1491:25
	ldr	r0, [r0]
.Ltmp526:
	.loc	7 1491 8                        @ ../ThirdParty/STM32F4xx_HAL_Driver/Src/stm32f4xx_hal_i2c.c:1491:8
	lsls	r0, r0, #31
	cbnz	r0, .LBB18_18
	b	.LBB18_17
.LBB18_17:
.Ltmp527:
	.loc	7 1494 7 is_stmt 1              @ ../ThirdParty/STM32F4xx_HAL_Driver/Src/stm32f4xx_hal_i2c.c:1494:7
	ldr	r0, [sp, #16]
	ldr	r1, [r0]
	ldr	r0, [r1]
	orr	r0, r0, #1
	str	r0, [r1]
	.loc	7 1495 5                        @ ../ThirdParty/STM32F4xx_HAL_Driver/Src/stm32f4xx_hal_i2c.c:1495:5
	b	.LBB18_18
.Ltmp528:
.LBB18_18:
	.loc	7 1498 5                        @ ../ThirdParty/STM32F4xx_HAL_Driver/Src/stm32f4xx_hal_i2c.c:1498:5
	ldr	r0, [sp, #16]
	.loc	7 1498 11 is_stmt 0             @ ../ThirdParty/STM32F4xx_HAL_Driver/Src/stm32f4xx_hal_i2c.c:1498:11
	ldr	r1, [r0]
	.loc	7 1498 25                       @ ../ThirdParty/STM32F4xx_HAL_Driver/Src/stm32f4xx_hal_i2c.c:1498:25
	ldr	r0, [r1]
	bic	r0, r0, #2048
	str	r0, [r1]
	.loc	7 1500 5 is_stmt 1              @ ../ThirdParty/STM32F4xx_HAL_Driver/Src/stm32f4xx_hal_i2c.c:1500:5
	ldr	r1, [sp, #16]
	movs	r0, #34
	.loc	7 1500 21 is_stmt 0             @ ../ThirdParty/STM32F4xx_HAL_Driver/Src/stm32f4xx_hal_i2c.c:1500:21
	strb.w	r0, [r1, #61]
	.loc	7 1501 5 is_stmt 1              @ ../ThirdParty/STM32F4xx_HAL_Driver/Src/stm32f4xx_hal_i2c.c:1501:5
	ldr	r1, [sp, #16]
	movs	r0, #16
	.loc	7 1501 21 is_stmt 0             @ ../ThirdParty/STM32F4xx_HAL_Driver/Src/stm32f4xx_hal_i2c.c:1501:21
	strb.w	r0, [r1, #62]
	.loc	7 1502 5 is_stmt 1              @ ../ThirdParty/STM32F4xx_HAL_Driver/Src/stm32f4xx_hal_i2c.c:1502:5
	ldr	r1, [sp, #16]
	movs	r0, #0
	.loc	7 1502 21 is_stmt 0             @ ../ThirdParty/STM32F4xx_HAL_Driver/Src/stm32f4xx_hal_i2c.c:1502:21
	str	r0, [r1, #64]
	.loc	7 1505 22 is_stmt 1             @ ../ThirdParty/STM32F4xx_HAL_Driver/Src/stm32f4xx_hal_i2c.c:1505:22
	ldr	r0, [sp, #8]
	.loc	7 1505 5 is_stmt 0              @ ../ThirdParty/STM32F4xx_HAL_Driver/Src/stm32f4xx_hal_i2c.c:1505:5
	ldr	r1, [sp, #16]
	.loc	7 1505 20                       @ ../ThirdParty/STM32F4xx_HAL_Driver/Src/stm32f4xx_hal_i2c.c:1505:20
	str	r0, [r1, #36]
	.loc	7 1506 23 is_stmt 1             @ ../ThirdParty/STM32F4xx_HAL_Driver/Src/stm32f4xx_hal_i2c.c:1506:23
	ldrh.w	r0, [sp, #6]
	.loc	7 1506 5 is_stmt 0              @ ../ThirdParty/STM32F4xx_HAL_Driver/Src/stm32f4xx_hal_i2c.c:1506:5
	ldr	r1, [sp, #16]
	.loc	7 1506 21                       @ ../ThirdParty/STM32F4xx_HAL_Driver/Src/stm32f4xx_hal_i2c.c:1506:21
	strh	r0, [r1, #42]
	.loc	7 1507 25 is_stmt 1             @ ../ThirdParty/STM32F4xx_HAL_Driver/Src/stm32f4xx_hal_i2c.c:1507:25
	ldr	r0, [sp, #24]
	.loc	7 1507 5 is_stmt 0              @ ../ThirdParty/STM32F4xx_HAL_Driver/Src/stm32f4xx_hal_i2c.c:1507:5
	ldr	r1, [sp, #16]
	.loc	7 1507 23                       @ ../ThirdParty/STM32F4xx_HAL_Driver/Src/stm32f4xx_hal_i2c.c:1507:23
	str	r0, [r1, #44]
	.loc	7 1508 25 is_stmt 1             @ ../ThirdParty/STM32F4xx_HAL_Driver/Src/stm32f4xx_hal_i2c.c:1508:25
	ldr	r0, [sp, #16]
	.loc	7 1508 31 is_stmt 0             @ ../ThirdParty/STM32F4xx_HAL_Driver/Src/stm32f4xx_hal_i2c.c:1508:31
	ldrh	r0, [r0, #42]
	.loc	7 1508 5                        @ ../ThirdParty/STM32F4xx_HAL_Driver/Src/stm32f4xx_hal_i2c.c:1508:5
	ldr	r1, [sp, #16]
	.loc	7 1508 23                       @ ../ThirdParty/STM32F4xx_HAL_Driver/Src/stm32f4xx_hal_i2c.c:1508:23
	strh	r0, [r1, #40]
	.loc	7 1509 24 is_stmt 1             @ ../ThirdParty/STM32F4xx_HAL_Driver/Src/stm32f4xx_hal_i2c.c:1509:24
	ldrh.w	r0, [sp, #14]
	.loc	7 1509 5 is_stmt 0              @ ../ThirdParty/STM32F4xx_HAL_Driver/Src/stm32f4xx_hal_i2c.c:1509:5
	ldr	r1, [sp, #16]
	.loc	7 1509 22                       @ ../ThirdParty/STM32F4xx_HAL_Driver/Src/stm32f4xx_hal_i2c.c:1509:22
	str	r0, [r1, #68]
.Ltmp529:
	.loc	7 1511 9 is_stmt 1              @ ../ThirdParty/STM32F4xx_HAL_Driver/Src/stm32f4xx_hal_i2c.c:1511:9
	ldr	r0, [sp, #16]
	.loc	7 1511 15 is_stmt 0             @ ../ThirdParty/STM32F4xx_HAL_Driver/Src/stm32f4xx_hal_i2c.c:1511:15
	ldr	r0, [r0, #48]
	.loc	7 1511 58                       @ ../ThirdParty/STM32F4xx_HAL_Driver/Src/stm32f4xx_hal_i2c.c:1511:58
	cmp	r0, #17
	beq	.LBB18_20
	b	.LBB18_19
.LBB18_19:
	.loc	7 1511 62                       @ ../ThirdParty/STM32F4xx_HAL_Driver/Src/stm32f4xx_hal_i2c.c:1511:62
	ldr	r0, [sp, #16]
	.loc	7 1511 68                       @ ../ThirdParty/STM32F4xx_HAL_Driver/Src/stm32f4xx_hal_i2c.c:1511:68
	ldr	r0, [r0, #48]
.Ltmp530:
	.loc	7 1511 8                        @ ../ThirdParty/STM32F4xx_HAL_Driver/Src/stm32f4xx_hal_i2c.c:1511:8
	cbnz	r0, .LBB18_28
	b	.LBB18_20
.LBB18_20:
.Ltmp531:
	.loc	7 1514 11 is_stmt 1             @ ../ThirdParty/STM32F4xx_HAL_Driver/Src/stm32f4xx_hal_i2c.c:1514:11
	ldr	r0, [sp, #24]
	.loc	7 1514 52 is_stmt 0             @ ../ThirdParty/STM32F4xx_HAL_Driver/Src/stm32f4xx_hal_i2c.c:1514:52
	cmp	r0, #4
	beq	.LBB18_23
	b	.LBB18_21
.LBB18_21:
	.loc	7 1514 56                       @ ../ThirdParty/STM32F4xx_HAL_Driver/Src/stm32f4xx_hal_i2c.c:1514:56
	ldr	r0, [sp, #24]
	.loc	7 1514 89                       @ ../ThirdParty/STM32F4xx_HAL_Driver/Src/stm32f4xx_hal_i2c.c:1514:89
	cmp	r0, #1
	beq	.LBB18_23
	b	.LBB18_22
.LBB18_22:
	.loc	7 1514 93                       @ ../ThirdParty/STM32F4xx_HAL_Driver/Src/stm32f4xx_hal_i2c.c:1514:93
	ldr	r0, [sp, #24]
.Ltmp532:
	.loc	7 1514 10                       @ ../ThirdParty/STM32F4xx_HAL_Driver/Src/stm32f4xx_hal_i2c.c:1514:10
	cmn.w	r0, #65536
	bne	.LBB18_24
	b	.LBB18_23
.LBB18_23:
.Ltmp533:
	.loc	7 1517 9 is_stmt 1              @ ../ThirdParty/STM32F4xx_HAL_Driver/Src/stm32f4xx_hal_i2c.c:1517:9
	ldr	r0, [sp, #16]
	.loc	7 1517 15 is_stmt 0             @ ../ThirdParty/STM32F4xx_HAL_Driver/Src/stm32f4xx_hal_i2c.c:1517:15
	ldr	r1, [r0]
	.loc	7 1517 29                       @ ../ThirdParty/STM32F4xx_HAL_Driver/Src/stm32f4xx_hal_i2c.c:1517:29
	ldr	r0, [r1]
	orr	r0, r0, #1024
	str	r0, [r1]
	.loc	7 1520 9 is_stmt 1              @ ../ThirdParty/STM32F4xx_HAL_Driver/Src/stm32f4xx_hal_i2c.c:1520:9
	ldr	r0, [sp, #16]
	.loc	7 1520 15 is_stmt 0             @ ../ThirdParty/STM32F4xx_HAL_Driver/Src/stm32f4xx_hal_i2c.c:1520:15
	ldr	r1, [r0]
	.loc	7 1520 29                       @ ../ThirdParty/STM32F4xx_HAL_Driver/Src/stm32f4xx_hal_i2c.c:1520:29
	ldr	r0, [r1]
	orr	r0, r0, #256
	str	r0, [r1]
	.loc	7 1521 7 is_stmt 1              @ ../ThirdParty/STM32F4xx_HAL_Driver/Src/stm32f4xx_hal_i2c.c:1521:7
	b	.LBB18_27
.Ltmp534:
.LBB18_24:
	.loc	7 1522 15                       @ ../ThirdParty/STM32F4xx_HAL_Driver/Src/stm32f4xx_hal_i2c.c:1522:15
	ldr	r0, [sp, #16]
	.loc	7 1522 21 is_stmt 0             @ ../ThirdParty/STM32F4xx_HAL_Driver/Src/stm32f4xx_hal_i2c.c:1522:21
	ldr	r0, [r0, #48]
.Ltmp535:
	.loc	7 1522 15                       @ ../ThirdParty/STM32F4xx_HAL_Driver/Src/stm32f4xx_hal_i2c.c:1522:15
	cmp	r0, #17
	bne	.LBB18_26
	b	.LBB18_25
.LBB18_25:
.Ltmp536:
	.loc	7 1525 9 is_stmt 1              @ ../ThirdParty/STM32F4xx_HAL_Driver/Src/stm32f4xx_hal_i2c.c:1525:9
	ldr	r0, [sp, #16]
	.loc	7 1525 15 is_stmt 0             @ ../ThirdParty/STM32F4xx_HAL_Driver/Src/stm32f4xx_hal_i2c.c:1525:15
	ldr	r1, [r0]
	.loc	7 1525 29                       @ ../ThirdParty/STM32F4xx_HAL_Driver/Src/stm32f4xx_hal_i2c.c:1525:29
	ldr	r0, [r1]
	orr	r0, r0, #1024
	str	r0, [r1]
	.loc	7 1528 9 is_stmt 1              @ ../ThirdParty/STM32F4xx_HAL_Driver/Src/stm32f4xx_hal_i2c.c:1528:9
	ldr	r0, [sp, #16]
	.loc	7 1528 15 is_stmt 0             @ ../ThirdParty/STM32F4xx_HAL_Driver/Src/stm32f4xx_hal_i2c.c:1528:15
	ldr	r1, [r0]
	.loc	7 1528 29                       @ ../ThirdParty/STM32F4xx_HAL_Driver/Src/stm32f4xx_hal_i2c.c:1528:29
	ldr	r0, [r1]
	orr	r0, r0, #256
	str	r0, [r1]
	.loc	7 1529 7 is_stmt 1              @ ../ThirdParty/STM32F4xx_HAL_Driver/Src/stm32f4xx_hal_i2c.c:1529:7
	b	.LBB18_26
.Ltmp537:
.LBB18_26:
	.loc	7 0 7 is_stmt 0                 @ ../ThirdParty/STM32F4xx_HAL_Driver/Src/stm32f4xx_hal_i2c.c:0:7
	b	.LBB18_27
.LBB18_27:
	.loc	7 1530 5 is_stmt 1              @ ../ThirdParty/STM32F4xx_HAL_Driver/Src/stm32f4xx_hal_i2c.c:1530:5
	b	.LBB18_28
.Ltmp538:
.LBB18_28:
	.loc	7 1533 5                        @ ../ThirdParty/STM32F4xx_HAL_Driver/Src/stm32f4xx_hal_i2c.c:1533:5
	b	.LBB18_29
.LBB18_29:
.Ltmp539:
	.loc	7 1533 5 is_stmt 0              @ ../ThirdParty/STM32F4xx_HAL_Driver/Src/stm32f4xx_hal_i2c.c:1533:5
	ldr	r1, [sp, #16]
	movs	r0, #0
	strb.w	r0, [r1, #60]
	b	.LBB18_30
.Ltmp540:
.LBB18_30:
	.loc	7 1540 5 is_stmt 1              @ ../ThirdParty/STM32F4xx_HAL_Driver/Src/stm32f4xx_hal_i2c.c:1540:5
	ldr	r0, [sp, #16]
	ldr	r1, [r0]
	ldr	r0, [r1, #4]
	orr	r0, r0, #1792
	str	r0, [r1, #4]
	movs	r0, #0
	.loc	7 1542 5                        @ ../ThirdParty/STM32F4xx_HAL_Driver/Src/stm32f4xx_hal_i2c.c:1542:5
	strb.w	r0, [sp, #23]
	b	.LBB18_32
.Ltmp541:
.LBB18_31:
	.loc	7 0 5 is_stmt 0                 @ ../ThirdParty/STM32F4xx_HAL_Driver/Src/stm32f4xx_hal_i2c.c:0:5
	movs	r0, #2
.Ltmp542:
	.loc	7 1546 5 is_stmt 1              @ ../ThirdParty/STM32F4xx_HAL_Driver/Src/stm32f4xx_hal_i2c.c:1546:5
	strb.w	r0, [sp, #23]
	b	.LBB18_32
.Ltmp543:
.LBB18_32:
	.loc	7 1548 1                        @ ../ThirdParty/STM32F4xx_HAL_Driver/Src/stm32f4xx_hal_i2c.c:1548:1
	ldrb.w	r0, [sp, #23]
	.loc	7 1548 1 epilogue_begin is_stmt 0 @ ../ThirdParty/STM32F4xx_HAL_Driver/Src/stm32f4xx_hal_i2c.c:1548:1
	add	sp, #24
	bx	lr
.Ltmp544:
.Lfunc_end18:
	.size	HAL_I2C_Master_Sequential_Receive_IT, .Lfunc_end18-HAL_I2C_Master_Sequential_Receive_IT
	.cfi_endproc
	.cantunwind
	.fnend
                                        @ -- End function
	.section	.text.HAL_I2C_Slave_Transmit_IT,"ax",%progbits
	.hidden	HAL_I2C_Slave_Transmit_IT       @ -- Begin function HAL_I2C_Slave_Transmit_IT
	.globl	HAL_I2C_Slave_Transmit_IT
	.p2align	2
	.type	HAL_I2C_Slave_Transmit_IT,%function
	.code	16                              @ @HAL_I2C_Slave_Transmit_IT
	.thumb_func
HAL_I2C_Slave_Transmit_IT:
.Lfunc_begin19:
	.loc	7 1559 0 is_stmt 1              @ ../ThirdParty/STM32F4xx_HAL_Driver/Src/stm32f4xx_hal_i2c.c:1559:0
	.fnstart
	.cfi_startproc
@ %bb.0:
	.pad	#20
	sub	sp, #20
	.cfi_def_cfa_offset 20
                                        @ kill: def $r3 killed $r2
	str	r0, [sp, #12]
	str	r1, [sp, #8]
	strh.w	r2, [sp, #6]
	movs	r0, #0
.Ltmp545:
	.loc	7 1560 17 prologue_end          @ ../ThirdParty/STM32F4xx_HAL_Driver/Src/stm32f4xx_hal_i2c.c:1560:17
	str	r0, [sp]
.Ltmp546:
	.loc	7 1562 6                        @ ../ThirdParty/STM32F4xx_HAL_Driver/Src/stm32f4xx_hal_i2c.c:1562:6
	ldr	r0, [sp, #12]
	.loc	7 1562 12 is_stmt 0             @ ../ThirdParty/STM32F4xx_HAL_Driver/Src/stm32f4xx_hal_i2c.c:1562:12
	ldrb.w	r0, [r0, #61]
.Ltmp547:
	.loc	7 1562 6                        @ ../ThirdParty/STM32F4xx_HAL_Driver/Src/stm32f4xx_hal_i2c.c:1562:6
	cmp	r0, #32
	bne.w	.LBB19_21
	b	.LBB19_1
.LBB19_1:
.Ltmp548:
	.loc	7 1564 9 is_stmt 1              @ ../ThirdParty/STM32F4xx_HAL_Driver/Src/stm32f4xx_hal_i2c.c:1564:9
	ldr	r0, [sp, #8]
	.loc	7 1564 24 is_stmt 0             @ ../ThirdParty/STM32F4xx_HAL_Driver/Src/stm32f4xx_hal_i2c.c:1564:24
	cbz	r0, .LBB19_3
	b	.LBB19_2
.LBB19_2:
	.loc	7 1564 28                       @ ../ThirdParty/STM32F4xx_HAL_Driver/Src/stm32f4xx_hal_i2c.c:1564:28
	ldrh.w	r0, [sp, #6]
.Ltmp549:
	.loc	7 1564 8                        @ ../ThirdParty/STM32F4xx_HAL_Driver/Src/stm32f4xx_hal_i2c.c:1564:8
	cbnz	r0, .LBB19_4
	b	.LBB19_3
.LBB19_3:
	.loc	7 0 8                           @ ../ThirdParty/STM32F4xx_HAL_Driver/Src/stm32f4xx_hal_i2c.c:0:8
	movs	r0, #1
.Ltmp550:
	.loc	7 1566 7 is_stmt 1              @ ../ThirdParty/STM32F4xx_HAL_Driver/Src/stm32f4xx_hal_i2c.c:1566:7
	strb.w	r0, [sp, #19]
	b	.LBB19_22
.Ltmp551:
.LBB19_4:
	.loc	7 1570 38                       @ ../ThirdParty/STM32F4xx_HAL_Driver/Src/stm32f4xx_hal_i2c.c:1570:38
	movw	r0, :lower16:SystemCoreClock
	movt	r0, :upper16:SystemCoreClock
	ldr	r0, [r0]
	movw	r1, #34079
	movt	r1, #20971
	.loc	7 1570 54 is_stmt 0             @ ../ThirdParty/STM32F4xx_HAL_Driver/Src/stm32f4xx_hal_i2c.c:1570:54
	umull	r1, r0, r0, r1
	lsrs	r0, r0, #3
	movw	r1, #19923
	movt	r1, #4194
	.loc	7 1570 59                       @ ../ThirdParty/STM32F4xx_HAL_Driver/Src/stm32f4xx_hal_i2c.c:1570:59
	umull	r1, r0, r0, r1
	lsrs	r0, r0, #6
	movs	r1, #25
	.loc	7 1570 35                       @ ../ThirdParty/STM32F4xx_HAL_Driver/Src/stm32f4xx_hal_i2c.c:1570:35
	muls	r0, r1, r0
	.loc	7 1570 11                       @ ../ThirdParty/STM32F4xx_HAL_Driver/Src/stm32f4xx_hal_i2c.c:1570:11
	str	r0, [sp]
	.loc	7 1571 5 is_stmt 1              @ ../ThirdParty/STM32F4xx_HAL_Driver/Src/stm32f4xx_hal_i2c.c:1571:5
	b	.LBB19_5
.LBB19_5:                               @ =>This Inner Loop Header: Depth=1
.Ltmp552:
	.loc	7 1573 15                       @ ../ThirdParty/STM32F4xx_HAL_Driver/Src/stm32f4xx_hal_i2c.c:1573:15
	ldr	r0, [sp]
	subs	r1, r0, #1
	str	r1, [sp]
.Ltmp553:
	.loc	7 1573 10 is_stmt 0             @ ../ThirdParty/STM32F4xx_HAL_Driver/Src/stm32f4xx_hal_i2c.c:1573:10
	cbnz	r0, .LBB19_9
	b	.LBB19_6
.LBB19_6:
.Ltmp554:
	.loc	7 1575 9 is_stmt 1              @ ../ThirdParty/STM32F4xx_HAL_Driver/Src/stm32f4xx_hal_i2c.c:1575:9
	ldr	r1, [sp, #12]
	movs	r0, #0
	.loc	7 1575 29 is_stmt 0             @ ../ThirdParty/STM32F4xx_HAL_Driver/Src/stm32f4xx_hal_i2c.c:1575:29
	str	r0, [r1, #48]
	.loc	7 1576 9 is_stmt 1              @ ../ThirdParty/STM32F4xx_HAL_Driver/Src/stm32f4xx_hal_i2c.c:1576:9
	ldr	r1, [sp, #12]
	movs	r0, #32
	.loc	7 1576 20 is_stmt 0             @ ../ThirdParty/STM32F4xx_HAL_Driver/Src/stm32f4xx_hal_i2c.c:1576:20
	strb.w	r0, [r1, #61]
	.loc	7 1579 9 is_stmt 1              @ ../ThirdParty/STM32F4xx_HAL_Driver/Src/stm32f4xx_hal_i2c.c:1579:9
	b	.LBB19_7
.LBB19_7:
.Ltmp555:
	.loc	7 1579 9 is_stmt 0              @ ../ThirdParty/STM32F4xx_HAL_Driver/Src/stm32f4xx_hal_i2c.c:1579:9
	ldr	r1, [sp, #12]
	movs	r0, #0
	strb.w	r0, [r1, #60]
	b	.LBB19_8
.Ltmp556:
.LBB19_8:
	.loc	7 0 9                           @ ../ThirdParty/STM32F4xx_HAL_Driver/Src/stm32f4xx_hal_i2c.c:0:9
	movs	r0, #3
	.loc	7 1581 9 is_stmt 1              @ ../ThirdParty/STM32F4xx_HAL_Driver/Src/stm32f4xx_hal_i2c.c:1581:9
	strb.w	r0, [sp, #19]
	b	.LBB19_22
.Ltmp557:
.LBB19_9:                               @   in Loop: Header=BB19_5 Depth=1
	.loc	7 1583 5                        @ ../ThirdParty/STM32F4xx_HAL_Driver/Src/stm32f4xx_hal_i2c.c:1583:5
	b	.LBB19_10
.Ltmp558:
.LBB19_10:                              @   in Loop: Header=BB19_5 Depth=1
	.loc	7 1584 11                       @ ../ThirdParty/STM32F4xx_HAL_Driver/Src/stm32f4xx_hal_i2c.c:1584:11
	ldr	r0, [sp, #12]
	ldr	r0, [r0]
	ldr	r0, [r0, #24]
	and	r1, r0, #2
	movs	r0, #0
.Ltmp559:
	.loc	7 1583 5                        @ ../ThirdParty/STM32F4xx_HAL_Driver/Src/stm32f4xx_hal_i2c.c:1583:5
	cmp.w	r0, r1, lsr #1
	bne	.LBB19_5
	b	.LBB19_11
.Ltmp560:
.LBB19_11:
	.loc	7 1587 5                        @ ../ThirdParty/STM32F4xx_HAL_Driver/Src/stm32f4xx_hal_i2c.c:1587:5
	b	.LBB19_12
.LBB19_12:
.Ltmp561:
	.loc	7 1587 5 is_stmt 0              @ ../ThirdParty/STM32F4xx_HAL_Driver/Src/stm32f4xx_hal_i2c.c:1587:5
	ldr	r0, [sp, #12]
	ldrb.w	r0, [r0, #60]
.Ltmp562:
	.loc	7 1587 5                        @ ../ThirdParty/STM32F4xx_HAL_Driver/Src/stm32f4xx_hal_i2c.c:1587:5
	cmp	r0, #1
	bne	.LBB19_14
	b	.LBB19_13
.LBB19_13:
	.loc	7 0 5                           @ ../ThirdParty/STM32F4xx_HAL_Driver/Src/stm32f4xx_hal_i2c.c:0:5
	movs	r0, #2
.Ltmp563:
	.loc	7 1587 5                        @ ../ThirdParty/STM32F4xx_HAL_Driver/Src/stm32f4xx_hal_i2c.c:1587:5
	strb.w	r0, [sp, #19]
	b	.LBB19_22
.Ltmp564:
.LBB19_14:
	.loc	7 1587 5                        @ ../ThirdParty/STM32F4xx_HAL_Driver/Src/stm32f4xx_hal_i2c.c:1587:5
	ldr	r1, [sp, #12]
	movs	r0, #1
	strb.w	r0, [r1, #60]
	b	.LBB19_15
.Ltmp565:
.LBB19_15:
	.loc	7 1587 5                        @ ../ThirdParty/STM32F4xx_HAL_Driver/Src/stm32f4xx_hal_i2c.c:1587:5
	b	.LBB19_16
.Ltmp566:
.LBB19_16:
	.loc	7 1590 9 is_stmt 1              @ ../ThirdParty/STM32F4xx_HAL_Driver/Src/stm32f4xx_hal_i2c.c:1590:9
	ldr	r0, [sp, #12]
	.loc	7 1590 15 is_stmt 0             @ ../ThirdParty/STM32F4xx_HAL_Driver/Src/stm32f4xx_hal_i2c.c:1590:15
	ldr	r0, [r0]
	.loc	7 1590 25                       @ ../ThirdParty/STM32F4xx_HAL_Driver/Src/stm32f4xx_hal_i2c.c:1590:25
	ldr	r0, [r0]
.Ltmp567:
	.loc	7 1590 8                        @ ../ThirdParty/STM32F4xx_HAL_Driver/Src/stm32f4xx_hal_i2c.c:1590:8
	lsls	r0, r0, #31
	cbnz	r0, .LBB19_18
	b	.LBB19_17
.LBB19_17:
.Ltmp568:
	.loc	7 1593 7 is_stmt 1              @ ../ThirdParty/STM32F4xx_HAL_Driver/Src/stm32f4xx_hal_i2c.c:1593:7
	ldr	r0, [sp, #12]
	ldr	r1, [r0]
	ldr	r0, [r1]
	orr	r0, r0, #1
	str	r0, [r1]
	.loc	7 1594 5                        @ ../ThirdParty/STM32F4xx_HAL_Driver/Src/stm32f4xx_hal_i2c.c:1594:5
	b	.LBB19_18
.Ltmp569:
.LBB19_18:
	.loc	7 1597 5                        @ ../ThirdParty/STM32F4xx_HAL_Driver/Src/stm32f4xx_hal_i2c.c:1597:5
	ldr	r0, [sp, #12]
	.loc	7 1597 11 is_stmt 0             @ ../ThirdParty/STM32F4xx_HAL_Driver/Src/stm32f4xx_hal_i2c.c:1597:11
	ldr	r1, [r0]
	.loc	7 1597 25                       @ ../ThirdParty/STM32F4xx_HAL_Driver/Src/stm32f4xx_hal_i2c.c:1597:25
	ldr	r0, [r1]
	bic	r0, r0, #2048
	str	r0, [r1]
	.loc	7 1599 5 is_stmt 1              @ ../ThirdParty/STM32F4xx_HAL_Driver/Src/stm32f4xx_hal_i2c.c:1599:5
	ldr	r1, [sp, #12]
	movs	r0, #33
	.loc	7 1599 21 is_stmt 0             @ ../ThirdParty/STM32F4xx_HAL_Driver/Src/stm32f4xx_hal_i2c.c:1599:21
	strb.w	r0, [r1, #61]
	.loc	7 1600 5 is_stmt 1              @ ../ThirdParty/STM32F4xx_HAL_Driver/Src/stm32f4xx_hal_i2c.c:1600:5
	ldr	r1, [sp, #12]
	movs	r0, #32
	.loc	7 1600 21 is_stmt 0             @ ../ThirdParty/STM32F4xx_HAL_Driver/Src/stm32f4xx_hal_i2c.c:1600:21
	strb.w	r0, [r1, #62]
	.loc	7 1601 5 is_stmt 1              @ ../ThirdParty/STM32F4xx_HAL_Driver/Src/stm32f4xx_hal_i2c.c:1601:5
	ldr	r1, [sp, #12]
	movs	r0, #0
	.loc	7 1601 21 is_stmt 0             @ ../ThirdParty/STM32F4xx_HAL_Driver/Src/stm32f4xx_hal_i2c.c:1601:21
	str	r0, [r1, #64]
	.loc	7 1604 25 is_stmt 1             @ ../ThirdParty/STM32F4xx_HAL_Driver/Src/stm32f4xx_hal_i2c.c:1604:25
	ldr	r0, [sp, #8]
	.loc	7 1604 5 is_stmt 0              @ ../ThirdParty/STM32F4xx_HAL_Driver/Src/stm32f4xx_hal_i2c.c:1604:5
	ldr	r1, [sp, #12]
	.loc	7 1604 23                       @ ../ThirdParty/STM32F4xx_HAL_Driver/Src/stm32f4xx_hal_i2c.c:1604:23
	str	r0, [r1, #36]
	.loc	7 1605 25 is_stmt 1             @ ../ThirdParty/STM32F4xx_HAL_Driver/Src/stm32f4xx_hal_i2c.c:1605:25
	ldrh.w	r0, [sp, #6]
	.loc	7 1605 5 is_stmt 0              @ ../ThirdParty/STM32F4xx_HAL_Driver/Src/stm32f4xx_hal_i2c.c:1605:5
	ldr	r1, [sp, #12]
	.loc	7 1605 23                       @ ../ThirdParty/STM32F4xx_HAL_Driver/Src/stm32f4xx_hal_i2c.c:1605:23
	strh	r0, [r1, #42]
	.loc	7 1606 5 is_stmt 1              @ ../ThirdParty/STM32F4xx_HAL_Driver/Src/stm32f4xx_hal_i2c.c:1606:5
	ldr	r1, [sp, #12]
	movs	r0, #0
	movt	r0, #65535
	.loc	7 1606 23 is_stmt 0             @ ../ThirdParty/STM32F4xx_HAL_Driver/Src/stm32f4xx_hal_i2c.c:1606:23
	str	r0, [r1, #44]
	.loc	7 1607 25 is_stmt 1             @ ../ThirdParty/STM32F4xx_HAL_Driver/Src/stm32f4xx_hal_i2c.c:1607:25
	ldr	r0, [sp, #12]
	.loc	7 1607 31 is_stmt 0             @ ../ThirdParty/STM32F4xx_HAL_Driver/Src/stm32f4xx_hal_i2c.c:1607:31
	ldrh	r0, [r0, #42]
	.loc	7 1607 5                        @ ../ThirdParty/STM32F4xx_HAL_Driver/Src/stm32f4xx_hal_i2c.c:1607:5
	ldr	r1, [sp, #12]
	.loc	7 1607 23                       @ ../ThirdParty/STM32F4xx_HAL_Driver/Src/stm32f4xx_hal_i2c.c:1607:23
	strh	r0, [r1, #40]
	.loc	7 1610 5 is_stmt 1              @ ../ThirdParty/STM32F4xx_HAL_Driver/Src/stm32f4xx_hal_i2c.c:1610:5
	ldr	r0, [sp, #12]
	.loc	7 1610 11 is_stmt 0             @ ../ThirdParty/STM32F4xx_HAL_Driver/Src/stm32f4xx_hal_i2c.c:1610:11
	ldr	r1, [r0]
	.loc	7 1610 25                       @ ../ThirdParty/STM32F4xx_HAL_Driver/Src/stm32f4xx_hal_i2c.c:1610:25
	ldr	r0, [r1]
	orr	r0, r0, #1024
	str	r0, [r1]
	.loc	7 1613 5 is_stmt 1              @ ../ThirdParty/STM32F4xx_HAL_Driver/Src/stm32f4xx_hal_i2c.c:1613:5
	b	.LBB19_19
.LBB19_19:
.Ltmp570:
	.loc	7 1613 5 is_stmt 0              @ ../ThirdParty/STM32F4xx_HAL_Driver/Src/stm32f4xx_hal_i2c.c:1613:5
	ldr	r1, [sp, #12]
	movs	r0, #0
	strb.w	r0, [r1, #60]
	b	.LBB19_20
.Ltmp571:
.LBB19_20:
	.loc	7 1620 5 is_stmt 1              @ ../ThirdParty/STM32F4xx_HAL_Driver/Src/stm32f4xx_hal_i2c.c:1620:5
	ldr	r0, [sp, #12]
	ldr	r1, [r0]
	ldr	r0, [r1, #4]
	orr	r0, r0, #1792
	str	r0, [r1, #4]
	movs	r0, #0
	.loc	7 1622 5                        @ ../ThirdParty/STM32F4xx_HAL_Driver/Src/stm32f4xx_hal_i2c.c:1622:5
	strb.w	r0, [sp, #19]
	b	.LBB19_22
.Ltmp572:
.LBB19_21:
	.loc	7 0 5 is_stmt 0                 @ ../ThirdParty/STM32F4xx_HAL_Driver/Src/stm32f4xx_hal_i2c.c:0:5
	movs	r0, #2
.Ltmp573:
	.loc	7 1626 5 is_stmt 1              @ ../ThirdParty/STM32F4xx_HAL_Driver/Src/stm32f4xx_hal_i2c.c:1626:5
	strb.w	r0, [sp, #19]
	b	.LBB19_22
.Ltmp574:
.LBB19_22:
	.loc	7 1628 1                        @ ../ThirdParty/STM32F4xx_HAL_Driver/Src/stm32f4xx_hal_i2c.c:1628:1
	ldrb.w	r0, [sp, #19]
	.loc	7 1628 1 epilogue_begin is_stmt 0 @ ../ThirdParty/STM32F4xx_HAL_Driver/Src/stm32f4xx_hal_i2c.c:1628:1
	add	sp, #20
	bx	lr
.Ltmp575:
.Lfunc_end19:
	.size	HAL_I2C_Slave_Transmit_IT, .Lfunc_end19-HAL_I2C_Slave_Transmit_IT
	.cfi_endproc
	.cantunwind
	.fnend
                                        @ -- End function
	.section	.text.HAL_I2C_Slave_Receive_IT,"ax",%progbits
	.hidden	HAL_I2C_Slave_Receive_IT        @ -- Begin function HAL_I2C_Slave_Receive_IT
	.globl	HAL_I2C_Slave_Receive_IT
	.p2align	2
	.type	HAL_I2C_Slave_Receive_IT,%function
	.code	16                              @ @HAL_I2C_Slave_Receive_IT
	.thumb_func
HAL_I2C_Slave_Receive_IT:
.Lfunc_begin20:
	.loc	7 1639 0 is_stmt 1              @ ../ThirdParty/STM32F4xx_HAL_Driver/Src/stm32f4xx_hal_i2c.c:1639:0
	.fnstart
	.cfi_startproc
@ %bb.0:
	.pad	#20
	sub	sp, #20
	.cfi_def_cfa_offset 20
                                        @ kill: def $r3 killed $r2
	str	r0, [sp, #12]
	str	r1, [sp, #8]
	strh.w	r2, [sp, #6]
	movs	r0, #0
.Ltmp576:
	.loc	7 1640 17 prologue_end          @ ../ThirdParty/STM32F4xx_HAL_Driver/Src/stm32f4xx_hal_i2c.c:1640:17
	str	r0, [sp]
.Ltmp577:
	.loc	7 1642 6                        @ ../ThirdParty/STM32F4xx_HAL_Driver/Src/stm32f4xx_hal_i2c.c:1642:6
	ldr	r0, [sp, #12]
	.loc	7 1642 12 is_stmt 0             @ ../ThirdParty/STM32F4xx_HAL_Driver/Src/stm32f4xx_hal_i2c.c:1642:12
	ldrb.w	r0, [r0, #61]
.Ltmp578:
	.loc	7 1642 6                        @ ../ThirdParty/STM32F4xx_HAL_Driver/Src/stm32f4xx_hal_i2c.c:1642:6
	cmp	r0, #32
	bne.w	.LBB20_21
	b	.LBB20_1
.LBB20_1:
.Ltmp579:
	.loc	7 1644 9 is_stmt 1              @ ../ThirdParty/STM32F4xx_HAL_Driver/Src/stm32f4xx_hal_i2c.c:1644:9
	ldr	r0, [sp, #8]
	.loc	7 1644 24 is_stmt 0             @ ../ThirdParty/STM32F4xx_HAL_Driver/Src/stm32f4xx_hal_i2c.c:1644:24
	cbz	r0, .LBB20_3
	b	.LBB20_2
.LBB20_2:
	.loc	7 1644 28                       @ ../ThirdParty/STM32F4xx_HAL_Driver/Src/stm32f4xx_hal_i2c.c:1644:28
	ldrh.w	r0, [sp, #6]
.Ltmp580:
	.loc	7 1644 8                        @ ../ThirdParty/STM32F4xx_HAL_Driver/Src/stm32f4xx_hal_i2c.c:1644:8
	cbnz	r0, .LBB20_4
	b	.LBB20_3
.LBB20_3:
	.loc	7 0 8                           @ ../ThirdParty/STM32F4xx_HAL_Driver/Src/stm32f4xx_hal_i2c.c:0:8
	movs	r0, #1
.Ltmp581:
	.loc	7 1646 7 is_stmt 1              @ ../ThirdParty/STM32F4xx_HAL_Driver/Src/stm32f4xx_hal_i2c.c:1646:7
	strb.w	r0, [sp, #19]
	b	.LBB20_22
.Ltmp582:
.LBB20_4:
	.loc	7 1650 38                       @ ../ThirdParty/STM32F4xx_HAL_Driver/Src/stm32f4xx_hal_i2c.c:1650:38
	movw	r0, :lower16:SystemCoreClock
	movt	r0, :upper16:SystemCoreClock
	ldr	r0, [r0]
	movw	r1, #34079
	movt	r1, #20971
	.loc	7 1650 54 is_stmt 0             @ ../ThirdParty/STM32F4xx_HAL_Driver/Src/stm32f4xx_hal_i2c.c:1650:54
	umull	r1, r0, r0, r1
	lsrs	r0, r0, #3
	movw	r1, #19923
	movt	r1, #4194
	.loc	7 1650 59                       @ ../ThirdParty/STM32F4xx_HAL_Driver/Src/stm32f4xx_hal_i2c.c:1650:59
	umull	r1, r0, r0, r1
	lsrs	r0, r0, #6
	movs	r1, #25
	.loc	7 1650 35                       @ ../ThirdParty/STM32F4xx_HAL_Driver/Src/stm32f4xx_hal_i2c.c:1650:35
	muls	r0, r1, r0
	.loc	7 1650 11                       @ ../ThirdParty/STM32F4xx_HAL_Driver/Src/stm32f4xx_hal_i2c.c:1650:11
	str	r0, [sp]
	.loc	7 1651 5 is_stmt 1              @ ../ThirdParty/STM32F4xx_HAL_Driver/Src/stm32f4xx_hal_i2c.c:1651:5
	b	.LBB20_5
.LBB20_5:                               @ =>This Inner Loop Header: Depth=1
.Ltmp583:
	.loc	7 1653 15                       @ ../ThirdParty/STM32F4xx_HAL_Driver/Src/stm32f4xx_hal_i2c.c:1653:15
	ldr	r0, [sp]
	subs	r1, r0, #1
	str	r1, [sp]
.Ltmp584:
	.loc	7 1653 10 is_stmt 0             @ ../ThirdParty/STM32F4xx_HAL_Driver/Src/stm32f4xx_hal_i2c.c:1653:10
	cbnz	r0, .LBB20_9
	b	.LBB20_6
.LBB20_6:
.Ltmp585:
	.loc	7 1655 9 is_stmt 1              @ ../ThirdParty/STM32F4xx_HAL_Driver/Src/stm32f4xx_hal_i2c.c:1655:9
	ldr	r1, [sp, #12]
	movs	r0, #0
	.loc	7 1655 29 is_stmt 0             @ ../ThirdParty/STM32F4xx_HAL_Driver/Src/stm32f4xx_hal_i2c.c:1655:29
	str	r0, [r1, #48]
	.loc	7 1656 9 is_stmt 1              @ ../ThirdParty/STM32F4xx_HAL_Driver/Src/stm32f4xx_hal_i2c.c:1656:9
	ldr	r1, [sp, #12]
	movs	r0, #32
	.loc	7 1656 20 is_stmt 0             @ ../ThirdParty/STM32F4xx_HAL_Driver/Src/stm32f4xx_hal_i2c.c:1656:20
	strb.w	r0, [r1, #61]
	.loc	7 1659 9 is_stmt 1              @ ../ThirdParty/STM32F4xx_HAL_Driver/Src/stm32f4xx_hal_i2c.c:1659:9
	b	.LBB20_7
.LBB20_7:
.Ltmp586:
	.loc	7 1659 9 is_stmt 0              @ ../ThirdParty/STM32F4xx_HAL_Driver/Src/stm32f4xx_hal_i2c.c:1659:9
	ldr	r1, [sp, #12]
	movs	r0, #0
	strb.w	r0, [r1, #60]
	b	.LBB20_8
.Ltmp587:
.LBB20_8:
	.loc	7 0 9                           @ ../ThirdParty/STM32F4xx_HAL_Driver/Src/stm32f4xx_hal_i2c.c:0:9
	movs	r0, #3
	.loc	7 1661 9 is_stmt 1              @ ../ThirdParty/STM32F4xx_HAL_Driver/Src/stm32f4xx_hal_i2c.c:1661:9
	strb.w	r0, [sp, #19]
	b	.LBB20_22
.Ltmp588:
