	.text
	.syntax unified
	.eabi_attribute	67, "2.09"	@ Tag_conformance
	.cpu	cortex-m4
	.eabi_attribute	6, 13	@ Tag_CPU_arch
	.eabi_attribute	7, 77	@ Tag_CPU_arch_profile
	.eabi_attribute	8, 0	@ Tag_ARM_ISA_use
	.eabi_attribute	9, 2	@ Tag_THUMB_ISA_use
	.fpu	fpv4-sp-d16
	.eabi_attribute	27, 1	@ Tag_ABI_HardFP_use
	.eabi_attribute	36, 1	@ Tag_FP_HP_extension
	.eabi_attribute	34, 1	@ Tag_CPU_unaligned_access
	.eabi_attribute	17, 1	@ Tag_ABI_PCS_GOT_use
	.eabi_attribute	20, 2	@ Tag_ABI_FP_denormal
	.eabi_attribute	21, 0	@ Tag_ABI_FP_exceptions
	.eabi_attribute	23, 1	@ Tag_ABI_FP_number_model
	.eabi_attribute	24, 1	@ Tag_ABI_align_needed
	.eabi_attribute	25, 1	@ Tag_ABI_align_preserved
	.eabi_attribute	28, 1	@ Tag_ABI_VFP_args
	.eabi_attribute	38, 1	@ Tag_ABI_FP_16bit_format
	.eabi_attribute	18, 2	@ Tag_ABI_PCS_wchar_t
	.eabi_attribute	26, 1	@ Tag_ABI_enum_size
	.eabi_attribute	14, 0	@ Tag_ABI_PCS_R9_use
	.file	"stm32f4xx_hal_adc_ex.c"
	.file	1 "D:\\ikingtec\\Robot\\ODrive\\Firmware\\MDK-ARM" "../ThirdParty/STM32F4xx_HAL_Driver/Inc/stm32f4xx_hal_def.h"
	.file	2 "D:\\ikingtec\\Robot\\ODrive\\Firmware\\MDK-ARM" "../ThirdParty/STM32F4xx_HAL_Driver/Inc\\stm32f4xx_hal_dma.h"
	.file	3 "D:\\ikingtec\\Robot\\ODrive\\Firmware\\MDK-ARM" "../ThirdParty/CMSIS/Device/ST/STM32F4xx/Include\\stm32f4xx.h"
	.file	4 "D:\\Embed\\MDK\\MDK\\ARM\\ARMCompilerV621\\Bin\\..\\include" "stdint.h"
	.file	5 "D:\\ikingtec\\Robot\\ODrive\\Firmware\\MDK-ARM" "../ThirdParty/CMSIS/Device/ST/STM32F4xx/Include/stm32f405xx.h"
	.file	6 "D:\\ikingtec\\Robot\\ODrive\\Firmware\\MDK-ARM" "../ThirdParty/STM32F4xx_HAL_Driver/Inc\\stm32f4xx_hal_adc.h"
	.section	.text.HAL_ADCEx_InjectedStart,"ax",%progbits
	.hidden	HAL_ADCEx_InjectedStart         @ -- Begin function HAL_ADCEx_InjectedStart
	.globl	HAL_ADCEx_InjectedStart
	.p2align	2
	.type	HAL_ADCEx_InjectedStart,%function
	.code	16                              @ @HAL_ADCEx_InjectedStart
	.thumb_func
HAL_ADCEx_InjectedStart:
.Lfunc_begin0:
	.file	7 "D:\\ikingtec\\Robot\\ODrive\\Firmware\\MDK-ARM" "../ThirdParty/STM32F4xx_HAL_Driver/Src/stm32f4xx_hal_adc_ex.c"
	.loc	7 176 0                         @ ../ThirdParty/STM32F4xx_HAL_Driver/Src/stm32f4xx_hal_adc_ex.c:176:0
	.fnstart
	.cfi_sections .debug_frame
	.cfi_startproc
@ %bb.0:
	.pad	#24
	sub	sp, #24
	.cfi_def_cfa_offset 24
	str	r0, [sp, #16]
	movs	r0, #0
.Ltmp0:
	.loc	7 177 17 prologue_end           @ ../ThirdParty/STM32F4xx_HAL_Driver/Src/stm32f4xx_hal_adc_ex.c:177:17
	str	r0, [sp, #12]
	.loc	7 178 12                        @ ../ThirdParty/STM32F4xx_HAL_Driver/Src/stm32f4xx_hal_adc_ex.c:178:12
	str	r0, [sp, #8]
	.loc	7 178 23 is_stmt 0              @ ../ThirdParty/STM32F4xx_HAL_Driver/Src/stm32f4xx_hal_adc_ex.c:178:23
	str	r0, [sp, #4]
	.loc	7 182 3 is_stmt 1               @ ../ThirdParty/STM32F4xx_HAL_Driver/Src/stm32f4xx_hal_adc_ex.c:182:3
	b	.LBB0_1
.LBB0_1:
.Ltmp1:
	.loc	7 182 3 is_stmt 0               @ ../ThirdParty/STM32F4xx_HAL_Driver/Src/stm32f4xx_hal_adc_ex.c:182:3
	ldr	r0, [sp, #16]
	ldrb.w	r0, [r0, #60]
.Ltmp2:
	.loc	7 182 3                         @ ../ThirdParty/STM32F4xx_HAL_Driver/Src/stm32f4xx_hal_adc_ex.c:182:3
	cmp	r0, #1
	bne	.LBB0_3
	b	.LBB0_2
.LBB0_2:
	.loc	7 0 3                           @ ../ThirdParty/STM32F4xx_HAL_Driver/Src/stm32f4xx_hal_adc_ex.c:0:3
	movs	r0, #2
.Ltmp3:
	.loc	7 182 3                         @ ../ThirdParty/STM32F4xx_HAL_Driver/Src/stm32f4xx_hal_adc_ex.c:182:3
	strb.w	r0, [sp, #23]
	b	.LBB0_27
.Ltmp4:
.LBB0_3:
	.loc	7 182 3                         @ ../ThirdParty/STM32F4xx_HAL_Driver/Src/stm32f4xx_hal_adc_ex.c:182:3
	ldr	r1, [sp, #16]
	movs	r0, #1
	strb.w	r0, [r1, #60]
	b	.LBB0_4
.Ltmp5:
.LBB0_4:
	.loc	7 182 3                         @ ../ThirdParty/STM32F4xx_HAL_Driver/Src/stm32f4xx_hal_adc_ex.c:182:3
	b	.LBB0_5
.Ltmp6:
.LBB0_5:
	.loc	7 188 7 is_stmt 1               @ ../ThirdParty/STM32F4xx_HAL_Driver/Src/stm32f4xx_hal_adc_ex.c:188:7
	ldr	r0, [sp, #16]
	.loc	7 188 13 is_stmt 0              @ ../ThirdParty/STM32F4xx_HAL_Driver/Src/stm32f4xx_hal_adc_ex.c:188:13
	ldr	r0, [r0]
	.loc	7 188 23                        @ ../ThirdParty/STM32F4xx_HAL_Driver/Src/stm32f4xx_hal_adc_ex.c:188:23
	ldr	r0, [r0, #8]
.Ltmp7:
	.loc	7 188 6                         @ ../ThirdParty/STM32F4xx_HAL_Driver/Src/stm32f4xx_hal_adc_ex.c:188:6
	lsls	r0, r0, #31
	cbnz	r0, .LBB0_10
	b	.LBB0_6
.LBB0_6:
.Ltmp8:
	.loc	7 191 5 is_stmt 1               @ ../ThirdParty/STM32F4xx_HAL_Driver/Src/stm32f4xx_hal_adc_ex.c:191:5
	ldr	r0, [sp, #16]
	ldr	r1, [r0]
	ldr	r0, [r1, #8]
	orr	r0, r0, #1
	str	r0, [r1, #8]
	.loc	7 195 37                        @ ../ThirdParty/STM32F4xx_HAL_Driver/Src/stm32f4xx_hal_adc_ex.c:195:37
	movw	r0, :lower16:SystemCoreClock
	movt	r0, :upper16:SystemCoreClock
	ldr	r0, [r0]
	movw	r1, #56963
	movt	r1, #17179
	.loc	7 195 53 is_stmt 0              @ ../ThirdParty/STM32F4xx_HAL_Driver/Src/stm32f4xx_hal_adc_ex.c:195:53
	umull	r1, r0, r0, r1
	lsrs	r0, r0, #18
	.loc	7 195 34                        @ ../ThirdParty/STM32F4xx_HAL_Driver/Src/stm32f4xx_hal_adc_ex.c:195:34
	add.w	r0, r0, r0, lsl #1
	.loc	7 195 13                        @ ../ThirdParty/STM32F4xx_HAL_Driver/Src/stm32f4xx_hal_adc_ex.c:195:13
	str	r0, [sp, #12]
	.loc	7 196 5 is_stmt 1               @ ../ThirdParty/STM32F4xx_HAL_Driver/Src/stm32f4xx_hal_adc_ex.c:196:5
	b	.LBB0_7
.LBB0_7:                                @ =>This Inner Loop Header: Depth=1
	.loc	7 196 11 is_stmt 0              @ ../ThirdParty/STM32F4xx_HAL_Driver/Src/stm32f4xx_hal_adc_ex.c:196:11
	ldr	r0, [sp, #12]
	.loc	7 196 5                         @ ../ThirdParty/STM32F4xx_HAL_Driver/Src/stm32f4xx_hal_adc_ex.c:196:5
	cbz	r0, .LBB0_9
	b	.LBB0_8
.LBB0_8:                                @   in Loop: Header=BB0_7 Depth=1
.Ltmp9:
	.loc	7 198 14 is_stmt 1              @ ../ThirdParty/STM32F4xx_HAL_Driver/Src/stm32f4xx_hal_adc_ex.c:198:14
	ldr	r0, [sp, #12]
	subs	r0, #1
	str	r0, [sp, #12]
.Ltmp10:
	.loc	7 196 5                         @ ../ThirdParty/STM32F4xx_HAL_Driver/Src/stm32f4xx_hal_adc_ex.c:196:5
	b	.LBB0_7
.LBB0_9:
	.loc	7 200 3                         @ ../ThirdParty/STM32F4xx_HAL_Driver/Src/stm32f4xx_hal_adc_ex.c:200:3
	b	.LBB0_10
.Ltmp11:
.LBB0_10:
	.loc	7 203 6                         @ ../ThirdParty/STM32F4xx_HAL_Driver/Src/stm32f4xx_hal_adc_ex.c:203:6
	ldr	r0, [sp, #16]
	ldr	r0, [r0]
	ldr	r0, [r0, #8]
.Ltmp12:
	.loc	7 203 6 is_stmt 0               @ ../ThirdParty/STM32F4xx_HAL_Driver/Src/stm32f4xx_hal_adc_ex.c:203:6
	lsls	r0, r0, #31
	cmp	r0, #0
	beq	.LBB0_26
	b	.LBB0_11
.LBB0_11:
.Ltmp13:
	.loc	7 208 5 is_stmt 1               @ ../ThirdParty/STM32F4xx_HAL_Driver/Src/stm32f4xx_hal_adc_ex.c:208:5
	ldr	r0, [sp, #16]
	ldr	r0, [r0, #64]
	orr	r0, r0, #4096
	movw	r1, #8193
	bics	r0, r1
	ldr	r1, [sp, #16]
	str	r0, [r1, #64]
.Ltmp14:
	.loc	7 216 9                         @ ../ThirdParty/STM32F4xx_HAL_Driver/Src/stm32f4xx_hal_adc_ex.c:216:9
	ldr	r0, [sp, #16]
	ldr	r0, [r0, #64]
.Ltmp15:
	.loc	7 216 9 is_stmt 0               @ ../ThirdParty/STM32F4xx_HAL_Driver/Src/stm32f4xx_hal_adc_ex.c:216:9
	lsls	r0, r0, #23
	cmp	r0, #0
	bmi	.LBB0_13
	b	.LBB0_12
.LBB0_12:
.Ltmp16:
	.loc	7 219 7 is_stmt 1               @ ../ThirdParty/STM32F4xx_HAL_Driver/Src/stm32f4xx_hal_adc_ex.c:219:7
	ldr	r1, [sp, #16]
	movs	r0, #0
	str	r0, [r1, #68]
	.loc	7 220 5                         @ ../ThirdParty/STM32F4xx_HAL_Driver/Src/stm32f4xx_hal_adc_ex.c:220:5
	b	.LBB0_13
.Ltmp17:
.LBB0_13:
	.loc	7 225 5                         @ ../ThirdParty/STM32F4xx_HAL_Driver/Src/stm32f4xx_hal_adc_ex.c:225:5
	b	.LBB0_14
.LBB0_14:
.Ltmp18:
	.loc	7 225 5 is_stmt 0               @ ../ThirdParty/STM32F4xx_HAL_Driver/Src/stm32f4xx_hal_adc_ex.c:225:5
	ldr	r1, [sp, #16]
	movs	r0, #0
	strb.w	r0, [r1, #60]
	b	.LBB0_15
.Ltmp19:
.LBB0_15:
	.loc	7 229 5 is_stmt 1               @ ../ThirdParty/STM32F4xx_HAL_Driver/Src/stm32f4xx_hal_adc_ex.c:229:5
	ldr	r0, [sp, #16]
	ldr	r1, [r0]
	mvn	r0, #4
	str	r0, [r1]
	movw	r0, #8960
	movt	r0, #16385
	.loc	7 234 19                        @ ../ThirdParty/STM32F4xx_HAL_Driver/Src/stm32f4xx_hal_adc_ex.c:234:19
	str	r0, [sp]
.Ltmp20:
	.loc	7 237 8                         @ ../ThirdParty/STM32F4xx_HAL_Driver/Src/stm32f4xx_hal_adc_ex.c:237:8
	ldr	r0, [sp]
	ldr	r0, [r0, #4]
.Ltmp21:
	.loc	7 237 8 is_stmt 0               @ ../ThirdParty/STM32F4xx_HAL_Driver/Src/stm32f4xx_hal_adc_ex.c:237:8
	lsls	r0, r0, #27
	cbnz	r0, .LBB0_20
	b	.LBB0_16
.LBB0_16:
.Ltmp22:
	.loc	7 239 14 is_stmt 1              @ ../ThirdParty/STM32F4xx_HAL_Driver/Src/stm32f4xx_hal_adc_ex.c:239:14
	ldr	r0, [sp, #16]
	ldr	r0, [r0]
	ldr	r0, [r0, #8]
	and	r0, r0, #3145728
	clz	r0, r0
	lsrs	r0, r0, #5
	.loc	7 239 12 is_stmt 0              @ ../ThirdParty/STM32F4xx_HAL_Driver/Src/stm32f4xx_hal_adc_ex.c:239:12
	str	r0, [sp, #8]
	.loc	7 240 14 is_stmt 1              @ ../ThirdParty/STM32F4xx_HAL_Driver/Src/stm32f4xx_hal_adc_ex.c:240:14
	ldr	r0, [sp, #16]
	ldr	r0, [r0]
	ldr	r0, [r0, #4]
	and	r1, r0, #1024
	movs	r0, #1
	eor.w	r0, r0, r1, lsr #10
	.loc	7 240 12 is_stmt 0              @ ../ThirdParty/STM32F4xx_HAL_Driver/Src/stm32f4xx_hal_adc_ex.c:240:12
	str	r0, [sp, #4]
.Ltmp23:
	.loc	7 241 10 is_stmt 1              @ ../ThirdParty/STM32F4xx_HAL_Driver/Src/stm32f4xx_hal_adc_ex.c:241:10
	ldr	r0, [sp, #8]
	.loc	7 241 15 is_stmt 0              @ ../ThirdParty/STM32F4xx_HAL_Driver/Src/stm32f4xx_hal_adc_ex.c:241:15
	cbz	r0, .LBB0_19
	b	.LBB0_17
.LBB0_17:
	.loc	7 241 18                        @ ../ThirdParty/STM32F4xx_HAL_Driver/Src/stm32f4xx_hal_adc_ex.c:241:18
	ldr	r0, [sp, #4]
.Ltmp24:
	.loc	7 241 10                        @ ../ThirdParty/STM32F4xx_HAL_Driver/Src/stm32f4xx_hal_adc_ex.c:241:10
	cbz	r0, .LBB0_19
	b	.LBB0_18
.LBB0_18:
.Ltmp25:
	.loc	7 244 9 is_stmt 1               @ ../ThirdParty/STM32F4xx_HAL_Driver/Src/stm32f4xx_hal_adc_ex.c:244:9
	ldr	r0, [sp, #16]
	.loc	7 244 15 is_stmt 0              @ ../ThirdParty/STM32F4xx_HAL_Driver/Src/stm32f4xx_hal_adc_ex.c:244:15
	ldr	r1, [r0]
	.loc	7 244 29                        @ ../ThirdParty/STM32F4xx_HAL_Driver/Src/stm32f4xx_hal_adc_ex.c:244:29
	ldr	r0, [r1, #8]
	orr	r0, r0, #4194304
	str	r0, [r1, #8]
	.loc	7 245 7 is_stmt 1               @ ../ThirdParty/STM32F4xx_HAL_Driver/Src/stm32f4xx_hal_adc_ex.c:245:7
	b	.LBB0_19
.Ltmp26:
.LBB0_19:
	.loc	7 246 5                         @ ../ThirdParty/STM32F4xx_HAL_Driver/Src/stm32f4xx_hal_adc_ex.c:246:5
	b	.LBB0_25
.Ltmp27:
.LBB0_20:
	.loc	7 249 14                        @ ../ThirdParty/STM32F4xx_HAL_Driver/Src/stm32f4xx_hal_adc_ex.c:249:14
	ldr	r0, [sp, #16]
	ldr	r0, [r0]
	ldr	r0, [r0, #8]
	and	r0, r0, #3145728
	clz	r0, r0
	lsrs	r0, r0, #5
	.loc	7 249 12 is_stmt 0              @ ../ThirdParty/STM32F4xx_HAL_Driver/Src/stm32f4xx_hal_adc_ex.c:249:12
	str	r0, [sp, #8]
	.loc	7 250 14 is_stmt 1              @ ../ThirdParty/STM32F4xx_HAL_Driver/Src/stm32f4xx_hal_adc_ex.c:250:14
	ldr	r0, [sp, #16]
	ldr	r0, [r0]
	ldr	r0, [r0, #4]
	and	r1, r0, #1024
	movs	r0, #1
	eor.w	r0, r0, r1, lsr #10
	.loc	7 250 12 is_stmt 0              @ ../ThirdParty/STM32F4xx_HAL_Driver/Src/stm32f4xx_hal_adc_ex.c:250:12
	str	r0, [sp, #4]
.Ltmp28:
	.loc	7 251 11 is_stmt 1              @ ../ThirdParty/STM32F4xx_HAL_Driver/Src/stm32f4xx_hal_adc_ex.c:251:11
	ldr	r0, [sp, #16]
	.loc	7 251 17 is_stmt 0              @ ../ThirdParty/STM32F4xx_HAL_Driver/Src/stm32f4xx_hal_adc_ex.c:251:17
	ldr	r0, [r0]
	movw	r1, #8192
	movt	r1, #16385
	.loc	7 251 35                        @ ../ThirdParty/STM32F4xx_HAL_Driver/Src/stm32f4xx_hal_adc_ex.c:251:35
	cmp	r0, r1
	bne	.LBB0_24
	b	.LBB0_21
.LBB0_21:
	.loc	7 251 38                        @ ../ThirdParty/STM32F4xx_HAL_Driver/Src/stm32f4xx_hal_adc_ex.c:251:38
	ldr	r0, [sp, #8]
	.loc	7 251 43                        @ ../ThirdParty/STM32F4xx_HAL_Driver/Src/stm32f4xx_hal_adc_ex.c:251:43
	cbz	r0, .LBB0_24
	b	.LBB0_22
.LBB0_22:
	.loc	7 251 46                        @ ../ThirdParty/STM32F4xx_HAL_Driver/Src/stm32f4xx_hal_adc_ex.c:251:46
	ldr	r0, [sp, #4]
.Ltmp29:
	.loc	7 251 10                        @ ../ThirdParty/STM32F4xx_HAL_Driver/Src/stm32f4xx_hal_adc_ex.c:251:10
	cbz	r0, .LBB0_24
	b	.LBB0_23
.LBB0_23:
.Ltmp30:
	.loc	7 254 9 is_stmt 1               @ ../ThirdParty/STM32F4xx_HAL_Driver/Src/stm32f4xx_hal_adc_ex.c:254:9
	ldr	r0, [sp, #16]
	.loc	7 254 15 is_stmt 0              @ ../ThirdParty/STM32F4xx_HAL_Driver/Src/stm32f4xx_hal_adc_ex.c:254:15
	ldr	r1, [r0]
	.loc	7 254 29                        @ ../ThirdParty/STM32F4xx_HAL_Driver/Src/stm32f4xx_hal_adc_ex.c:254:29
	ldr	r0, [r1, #8]
	orr	r0, r0, #4194304
	str	r0, [r1, #8]
	.loc	7 255 7 is_stmt 1               @ ../ThirdParty/STM32F4xx_HAL_Driver/Src/stm32f4xx_hal_adc_ex.c:255:7
	b	.LBB0_24
.Ltmp31:
.LBB0_24:
	.loc	7 0 7 is_stmt 0                 @ ../ThirdParty/STM32F4xx_HAL_Driver/Src/stm32f4xx_hal_adc_ex.c:0:7
	b	.LBB0_25
.LBB0_25:
	.loc	7 257 3 is_stmt 1               @ ../ThirdParty/STM32F4xx_HAL_Driver/Src/stm32f4xx_hal_adc_ex.c:257:3
	b	.LBB0_26
.Ltmp32:
.LBB0_26:
	.loc	7 0 3 is_stmt 0                 @ ../ThirdParty/STM32F4xx_HAL_Driver/Src/stm32f4xx_hal_adc_ex.c:0:3
	movs	r0, #0
	.loc	7 260 3 is_stmt 1               @ ../ThirdParty/STM32F4xx_HAL_Driver/Src/stm32f4xx_hal_adc_ex.c:260:3
	strb.w	r0, [sp, #23]
	b	.LBB0_27
.LBB0_27:
	.loc	7 261 1                         @ ../ThirdParty/STM32F4xx_HAL_Driver/Src/stm32f4xx_hal_adc_ex.c:261:1
	ldrb.w	r0, [sp, #23]
	.loc	7 261 1 epilogue_begin is_stmt 0 @ ../ThirdParty/STM32F4xx_HAL_Driver/Src/stm32f4xx_hal_adc_ex.c:261:1
	add	sp, #24
	bx	lr
.Ltmp33:
.Lfunc_end0:
	.size	HAL_ADCEx_InjectedStart, .Lfunc_end0-HAL_ADCEx_InjectedStart
	.cfi_endproc
	.cantunwind
	.fnend
                                        @ -- End function
	.section	.text.HAL_ADCEx_InjectedStart_IT,"ax",%progbits
	.hidden	HAL_ADCEx_InjectedStart_IT      @ -- Begin function HAL_ADCEx_InjectedStart_IT
	.globl	HAL_ADCEx_InjectedStart_IT
	.p2align	2
	.type	HAL_ADCEx_InjectedStart_IT,%function
	.code	16                              @ @HAL_ADCEx_InjectedStart_IT
	.thumb_func
HAL_ADCEx_InjectedStart_IT:
.Lfunc_begin1:
	.loc	7 271 0 is_stmt 1               @ ../ThirdParty/STM32F4xx_HAL_Driver/Src/stm32f4xx_hal_adc_ex.c:271:0
	.fnstart
	.cfi_startproc
@ %bb.0:
	.pad	#24
	sub	sp, #24
	.cfi_def_cfa_offset 24
	str	r0, [sp, #16]
	movs	r0, #0
.Ltmp34:
	.loc	7 272 17 prologue_end           @ ../ThirdParty/STM32F4xx_HAL_Driver/Src/stm32f4xx_hal_adc_ex.c:272:17
	str	r0, [sp, #12]
	.loc	7 273 12                        @ ../ThirdParty/STM32F4xx_HAL_Driver/Src/stm32f4xx_hal_adc_ex.c:273:12
	str	r0, [sp, #8]
	.loc	7 273 23 is_stmt 0              @ ../ThirdParty/STM32F4xx_HAL_Driver/Src/stm32f4xx_hal_adc_ex.c:273:23
	str	r0, [sp, #4]
	.loc	7 277 3 is_stmt 1               @ ../ThirdParty/STM32F4xx_HAL_Driver/Src/stm32f4xx_hal_adc_ex.c:277:3
	b	.LBB1_1
.LBB1_1:
.Ltmp35:
	.loc	7 277 3 is_stmt 0               @ ../ThirdParty/STM32F4xx_HAL_Driver/Src/stm32f4xx_hal_adc_ex.c:277:3
	ldr	r0, [sp, #16]
	ldrb.w	r0, [r0, #60]
.Ltmp36:
	.loc	7 277 3                         @ ../ThirdParty/STM32F4xx_HAL_Driver/Src/stm32f4xx_hal_adc_ex.c:277:3
	cmp	r0, #1
	bne	.LBB1_3
	b	.LBB1_2
.LBB1_2:
	.loc	7 0 3                           @ ../ThirdParty/STM32F4xx_HAL_Driver/Src/stm32f4xx_hal_adc_ex.c:0:3
	movs	r0, #2
.Ltmp37:
	.loc	7 277 3                         @ ../ThirdParty/STM32F4xx_HAL_Driver/Src/stm32f4xx_hal_adc_ex.c:277:3
	strb.w	r0, [sp, #23]
	b	.LBB1_27
.Ltmp38:
.LBB1_3:
	.loc	7 277 3                         @ ../ThirdParty/STM32F4xx_HAL_Driver/Src/stm32f4xx_hal_adc_ex.c:277:3
	ldr	r1, [sp, #16]
	movs	r0, #1
	strb.w	r0, [r1, #60]
	b	.LBB1_4
.Ltmp39:
.LBB1_4:
	.loc	7 277 3                         @ ../ThirdParty/STM32F4xx_HAL_Driver/Src/stm32f4xx_hal_adc_ex.c:277:3
	b	.LBB1_5
.Ltmp40:
.LBB1_5:
	.loc	7 283 7 is_stmt 1               @ ../ThirdParty/STM32F4xx_HAL_Driver/Src/stm32f4xx_hal_adc_ex.c:283:7
	ldr	r0, [sp, #16]
	.loc	7 283 13 is_stmt 0              @ ../ThirdParty/STM32F4xx_HAL_Driver/Src/stm32f4xx_hal_adc_ex.c:283:13
	ldr	r0, [r0]
	.loc	7 283 23                        @ ../ThirdParty/STM32F4xx_HAL_Driver/Src/stm32f4xx_hal_adc_ex.c:283:23
	ldr	r0, [r0, #8]
.Ltmp41:
	.loc	7 283 6                         @ ../ThirdParty/STM32F4xx_HAL_Driver/Src/stm32f4xx_hal_adc_ex.c:283:6
	lsls	r0, r0, #31
	cbnz	r0, .LBB1_10
	b	.LBB1_6
.LBB1_6:
.Ltmp42:
	.loc	7 286 5 is_stmt 1               @ ../ThirdParty/STM32F4xx_HAL_Driver/Src/stm32f4xx_hal_adc_ex.c:286:5
	ldr	r0, [sp, #16]
	ldr	r1, [r0]
	ldr	r0, [r1, #8]
	orr	r0, r0, #1
	str	r0, [r1, #8]
	.loc	7 290 37                        @ ../ThirdParty/STM32F4xx_HAL_Driver/Src/stm32f4xx_hal_adc_ex.c:290:37
	movw	r0, :lower16:SystemCoreClock
	movt	r0, :upper16:SystemCoreClock
	ldr	r0, [r0]
	movw	r1, #56963
	movt	r1, #17179
	.loc	7 290 53 is_stmt 0              @ ../ThirdParty/STM32F4xx_HAL_Driver/Src/stm32f4xx_hal_adc_ex.c:290:53
	umull	r1, r0, r0, r1
	lsrs	r0, r0, #18
	.loc	7 290 34                        @ ../ThirdParty/STM32F4xx_HAL_Driver/Src/stm32f4xx_hal_adc_ex.c:290:34
	add.w	r0, r0, r0, lsl #1
	.loc	7 290 13                        @ ../ThirdParty/STM32F4xx_HAL_Driver/Src/stm32f4xx_hal_adc_ex.c:290:13
	str	r0, [sp, #12]
	.loc	7 291 5 is_stmt 1               @ ../ThirdParty/STM32F4xx_HAL_Driver/Src/stm32f4xx_hal_adc_ex.c:291:5
	b	.LBB1_7
.LBB1_7:                                @ =>This Inner Loop Header: Depth=1
	.loc	7 291 11 is_stmt 0              @ ../ThirdParty/STM32F4xx_HAL_Driver/Src/stm32f4xx_hal_adc_ex.c:291:11
	ldr	r0, [sp, #12]
	.loc	7 291 5                         @ ../ThirdParty/STM32F4xx_HAL_Driver/Src/stm32f4xx_hal_adc_ex.c:291:5
	cbz	r0, .LBB1_9
	b	.LBB1_8
.LBB1_8:                                @   in Loop: Header=BB1_7 Depth=1
.Ltmp43:
	.loc	7 293 14 is_stmt 1              @ ../ThirdParty/STM32F4xx_HAL_Driver/Src/stm32f4xx_hal_adc_ex.c:293:14
	ldr	r0, [sp, #12]
	subs	r0, #1
	str	r0, [sp, #12]
.Ltmp44:
	.loc	7 291 5                         @ ../ThirdParty/STM32F4xx_HAL_Driver/Src/stm32f4xx_hal_adc_ex.c:291:5
	b	.LBB1_7
.LBB1_9:
	.loc	7 295 3                         @ ../ThirdParty/STM32F4xx_HAL_Driver/Src/stm32f4xx_hal_adc_ex.c:295:3
	b	.LBB1_10
.Ltmp45:
.LBB1_10:
	.loc	7 298 6                         @ ../ThirdParty/STM32F4xx_HAL_Driver/Src/stm32f4xx_hal_adc_ex.c:298:6
	ldr	r0, [sp, #16]
	ldr	r0, [r0]
	ldr	r0, [r0, #8]
.Ltmp46:
	.loc	7 298 6 is_stmt 0               @ ../ThirdParty/STM32F4xx_HAL_Driver/Src/stm32f4xx_hal_adc_ex.c:298:6
	lsls	r0, r0, #31
	cmp	r0, #0
	beq	.LBB1_26
	b	.LBB1_11
.LBB1_11:
.Ltmp47:
	.loc	7 303 5 is_stmt 1               @ ../ThirdParty/STM32F4xx_HAL_Driver/Src/stm32f4xx_hal_adc_ex.c:303:5
	ldr	r0, [sp, #16]
	ldr	r0, [r0, #64]
	orr	r0, r0, #4096
	movw	r1, #8193
	bics	r0, r1
	ldr	r1, [sp, #16]
	str	r0, [r1, #64]
.Ltmp48:
	.loc	7 311 9                         @ ../ThirdParty/STM32F4xx_HAL_Driver/Src/stm32f4xx_hal_adc_ex.c:311:9
	ldr	r0, [sp, #16]
	ldr	r0, [r0, #64]
.Ltmp49:
	.loc	7 311 9 is_stmt 0               @ ../ThirdParty/STM32F4xx_HAL_Driver/Src/stm32f4xx_hal_adc_ex.c:311:9
	lsls	r0, r0, #23
	cmp	r0, #0
	bmi	.LBB1_13
	b	.LBB1_12
.LBB1_12:
.Ltmp50:
	.loc	7 314 7 is_stmt 1               @ ../ThirdParty/STM32F4xx_HAL_Driver/Src/stm32f4xx_hal_adc_ex.c:314:7
	ldr	r1, [sp, #16]
	movs	r0, #0
	str	r0, [r1, #68]
	.loc	7 315 5                         @ ../ThirdParty/STM32F4xx_HAL_Driver/Src/stm32f4xx_hal_adc_ex.c:315:5
	b	.LBB1_13
.Ltmp51:
.LBB1_13:
	.loc	7 320 5                         @ ../ThirdParty/STM32F4xx_HAL_Driver/Src/stm32f4xx_hal_adc_ex.c:320:5
	b	.LBB1_14
.LBB1_14:
.Ltmp52:
	.loc	7 320 5 is_stmt 0               @ ../ThirdParty/STM32F4xx_HAL_Driver/Src/stm32f4xx_hal_adc_ex.c:320:5
	ldr	r1, [sp, #16]
	movs	r0, #0
	strb.w	r0, [r1, #60]
	b	.LBB1_15
.Ltmp53:
.LBB1_15:
	.loc	7 324 5 is_stmt 1               @ ../ThirdParty/STM32F4xx_HAL_Driver/Src/stm32f4xx_hal_adc_ex.c:324:5
	ldr	r0, [sp, #16]
	ldr	r1, [r0]
	mvn	r0, #4
	str	r0, [r1]
	.loc	7 327 5                         @ ../ThirdParty/STM32F4xx_HAL_Driver/Src/stm32f4xx_hal_adc_ex.c:327:5
	ldr	r0, [sp, #16]
	ldr	r1, [r0]
	ldr	r0, [r1, #4]
	orr	r0, r0, #128
	str	r0, [r1, #4]
	movw	r0, #8960
	movt	r0, #16385
	.loc	7 332 19                        @ ../ThirdParty/STM32F4xx_HAL_Driver/Src/stm32f4xx_hal_adc_ex.c:332:19
	str	r0, [sp]
.Ltmp54:
	.loc	7 335 8                         @ ../ThirdParty/STM32F4xx_HAL_Driver/Src/stm32f4xx_hal_adc_ex.c:335:8
	ldr	r0, [sp]
	ldr	r0, [r0, #4]
.Ltmp55:
	.loc	7 335 8 is_stmt 0               @ ../ThirdParty/STM32F4xx_HAL_Driver/Src/stm32f4xx_hal_adc_ex.c:335:8
	lsls	r0, r0, #27
	cbnz	r0, .LBB1_20
	b	.LBB1_16
.LBB1_16:
.Ltmp56:
	.loc	7 337 14 is_stmt 1              @ ../ThirdParty/STM32F4xx_HAL_Driver/Src/stm32f4xx_hal_adc_ex.c:337:14
	ldr	r0, [sp, #16]
	ldr	r0, [r0]
	ldr	r0, [r0, #8]
	and	r0, r0, #3145728
	clz	r0, r0
	lsrs	r0, r0, #5
	.loc	7 337 12 is_stmt 0              @ ../ThirdParty/STM32F4xx_HAL_Driver/Src/stm32f4xx_hal_adc_ex.c:337:12
	str	r0, [sp, #8]
	.loc	7 338 14 is_stmt 1              @ ../ThirdParty/STM32F4xx_HAL_Driver/Src/stm32f4xx_hal_adc_ex.c:338:14
	ldr	r0, [sp, #16]
	ldr	r0, [r0]
	ldr	r0, [r0, #4]
	and	r1, r0, #1024
	movs	r0, #1
	eor.w	r0, r0, r1, lsr #10
	.loc	7 338 12 is_stmt 0              @ ../ThirdParty/STM32F4xx_HAL_Driver/Src/stm32f4xx_hal_adc_ex.c:338:12
	str	r0, [sp, #4]
.Ltmp57:
	.loc	7 339 10 is_stmt 1              @ ../ThirdParty/STM32F4xx_HAL_Driver/Src/stm32f4xx_hal_adc_ex.c:339:10
	ldr	r0, [sp, #8]
	.loc	7 339 15 is_stmt 0              @ ../ThirdParty/STM32F4xx_HAL_Driver/Src/stm32f4xx_hal_adc_ex.c:339:15
	cbz	r0, .LBB1_19
	b	.LBB1_17
.LBB1_17:
	.loc	7 339 18                        @ ../ThirdParty/STM32F4xx_HAL_Driver/Src/stm32f4xx_hal_adc_ex.c:339:18
	ldr	r0, [sp, #4]
.Ltmp58:
	.loc	7 339 10                        @ ../ThirdParty/STM32F4xx_HAL_Driver/Src/stm32f4xx_hal_adc_ex.c:339:10
	cbz	r0, .LBB1_19
	b	.LBB1_18
.LBB1_18:
.Ltmp59:
	.loc	7 342 9 is_stmt 1               @ ../ThirdParty/STM32F4xx_HAL_Driver/Src/stm32f4xx_hal_adc_ex.c:342:9
	ldr	r0, [sp, #16]
	.loc	7 342 15 is_stmt 0              @ ../ThirdParty/STM32F4xx_HAL_Driver/Src/stm32f4xx_hal_adc_ex.c:342:15
	ldr	r1, [r0]
	.loc	7 342 29                        @ ../ThirdParty/STM32F4xx_HAL_Driver/Src/stm32f4xx_hal_adc_ex.c:342:29
	ldr	r0, [r1, #8]
	orr	r0, r0, #4194304
	str	r0, [r1, #8]
	.loc	7 343 7 is_stmt 1               @ ../ThirdParty/STM32F4xx_HAL_Driver/Src/stm32f4xx_hal_adc_ex.c:343:7
	b	.LBB1_19
.Ltmp60:
.LBB1_19:
	.loc	7 344 5                         @ ../ThirdParty/STM32F4xx_HAL_Driver/Src/stm32f4xx_hal_adc_ex.c:344:5
	b	.LBB1_25
.Ltmp61:
.LBB1_20:
	.loc	7 347 14                        @ ../ThirdParty/STM32F4xx_HAL_Driver/Src/stm32f4xx_hal_adc_ex.c:347:14
	ldr	r0, [sp, #16]
	ldr	r0, [r0]
	ldr	r0, [r0, #8]
	and	r0, r0, #3145728
	clz	r0, r0
	lsrs	r0, r0, #5
	.loc	7 347 12 is_stmt 0              @ ../ThirdParty/STM32F4xx_HAL_Driver/Src/stm32f4xx_hal_adc_ex.c:347:12
	str	r0, [sp, #8]
	.loc	7 348 14 is_stmt 1              @ ../ThirdParty/STM32F4xx_HAL_Driver/Src/stm32f4xx_hal_adc_ex.c:348:14
	ldr	r0, [sp, #16]
	ldr	r0, [r0]
	ldr	r0, [r0, #4]
	and	r1, r0, #1024
	movs	r0, #1
	eor.w	r0, r0, r1, lsr #10
	.loc	7 348 12 is_stmt 0              @ ../ThirdParty/STM32F4xx_HAL_Driver/Src/stm32f4xx_hal_adc_ex.c:348:12
	str	r0, [sp, #4]
.Ltmp62:
	.loc	7 349 11 is_stmt 1              @ ../ThirdParty/STM32F4xx_HAL_Driver/Src/stm32f4xx_hal_adc_ex.c:349:11
	ldr	r0, [sp, #16]
	.loc	7 349 17 is_stmt 0              @ ../ThirdParty/STM32F4xx_HAL_Driver/Src/stm32f4xx_hal_adc_ex.c:349:17
	ldr	r0, [r0]
	movw	r1, #8192
	movt	r1, #16385
	.loc	7 349 35                        @ ../ThirdParty/STM32F4xx_HAL_Driver/Src/stm32f4xx_hal_adc_ex.c:349:35
	cmp	r0, r1
	bne	.LBB1_24
	b	.LBB1_21
.LBB1_21:
	.loc	7 349 38                        @ ../ThirdParty/STM32F4xx_HAL_Driver/Src/stm32f4xx_hal_adc_ex.c:349:38
	ldr	r0, [sp, #8]
	.loc	7 349 43                        @ ../ThirdParty/STM32F4xx_HAL_Driver/Src/stm32f4xx_hal_adc_ex.c:349:43
	cbz	r0, .LBB1_24
	b	.LBB1_22
.LBB1_22:
	.loc	7 349 46                        @ ../ThirdParty/STM32F4xx_HAL_Driver/Src/stm32f4xx_hal_adc_ex.c:349:46
	ldr	r0, [sp, #4]
.Ltmp63:
	.loc	7 349 10                        @ ../ThirdParty/STM32F4xx_HAL_Driver/Src/stm32f4xx_hal_adc_ex.c:349:10
	cbz	r0, .LBB1_24
	b	.LBB1_23
.LBB1_23:
.Ltmp64:
	.loc	7 352 9 is_stmt 1               @ ../ThirdParty/STM32F4xx_HAL_Driver/Src/stm32f4xx_hal_adc_ex.c:352:9
	ldr	r0, [sp, #16]
	.loc	7 352 15 is_stmt 0              @ ../ThirdParty/STM32F4xx_HAL_Driver/Src/stm32f4xx_hal_adc_ex.c:352:15
	ldr	r1, [r0]
	.loc	7 352 29                        @ ../ThirdParty/STM32F4xx_HAL_Driver/Src/stm32f4xx_hal_adc_ex.c:352:29
	ldr	r0, [r1, #8]
	orr	r0, r0, #4194304
	str	r0, [r1, #8]
	.loc	7 353 7 is_stmt 1               @ ../ThirdParty/STM32F4xx_HAL_Driver/Src/stm32f4xx_hal_adc_ex.c:353:7
	b	.LBB1_24
.Ltmp65:
.LBB1_24:
	.loc	7 0 7 is_stmt 0                 @ ../ThirdParty/STM32F4xx_HAL_Driver/Src/stm32f4xx_hal_adc_ex.c:0:7
	b	.LBB1_25
.LBB1_25:
	.loc	7 355 3 is_stmt 1               @ ../ThirdParty/STM32F4xx_HAL_Driver/Src/stm32f4xx_hal_adc_ex.c:355:3
	b	.LBB1_26
.Ltmp66:
.LBB1_26:
	.loc	7 0 3 is_stmt 0                 @ ../ThirdParty/STM32F4xx_HAL_Driver/Src/stm32f4xx_hal_adc_ex.c:0:3
	movs	r0, #0
	.loc	7 358 3 is_stmt 1               @ ../ThirdParty/STM32F4xx_HAL_Driver/Src/stm32f4xx_hal_adc_ex.c:358:3
	strb.w	r0, [sp, #23]
	b	.LBB1_27
.LBB1_27:
	.loc	7 359 1                         @ ../ThirdParty/STM32F4xx_HAL_Driver/Src/stm32f4xx_hal_adc_ex.c:359:1
	ldrb.w	r0, [sp, #23]
	.loc	7 359 1 epilogue_begin is_stmt 0 @ ../ThirdParty/STM32F4xx_HAL_Driver/Src/stm32f4xx_hal_adc_ex.c:359:1
	add	sp, #24
	bx	lr
.Ltmp67:
.Lfunc_end1:
	.size	HAL_ADCEx_InjectedStart_IT, .Lfunc_end1-HAL_ADCEx_InjectedStart_IT
	.cfi_endproc
	.cantunwind
	.fnend
                                        @ -- End function
	.section	.text.HAL_ADCEx_InjectedStop,"ax",%progbits
	.hidden	HAL_ADCEx_InjectedStop          @ -- Begin function HAL_ADCEx_InjectedStop
	.globl	HAL_ADCEx_InjectedStop
	.p2align	2
	.type	HAL_ADCEx_InjectedStop,%function
	.code	16                              @ @HAL_ADCEx_InjectedStop
	.thumb_func
HAL_ADCEx_InjectedStop:
.Lfunc_begin2:
	.loc	7 374 0 is_stmt 1               @ ../ThirdParty/STM32F4xx_HAL_Driver/Src/stm32f4xx_hal_adc_ex.c:374:0
	.fnstart
	.cfi_startproc
@ %bb.0:
	.pad	#12
	sub	sp, #12
	.cfi_def_cfa_offset 12
	str	r0, [sp, #4]
	movs	r0, #0
.Ltmp68:
	.loc	7 375 21 prologue_end           @ ../ThirdParty/STM32F4xx_HAL_Driver/Src/stm32f4xx_hal_adc_ex.c:375:21
	strb.w	r0, [sp, #3]
	.loc	7 381 3                         @ ../ThirdParty/STM32F4xx_HAL_Driver/Src/stm32f4xx_hal_adc_ex.c:381:3
	b	.LBB2_1
.LBB2_1:
.Ltmp69:
	.loc	7 381 3 is_stmt 0               @ ../ThirdParty/STM32F4xx_HAL_Driver/Src/stm32f4xx_hal_adc_ex.c:381:3
	ldr	r0, [sp, #4]
	ldrb.w	r0, [r0, #60]
.Ltmp70:
	.loc	7 381 3                         @ ../ThirdParty/STM32F4xx_HAL_Driver/Src/stm32f4xx_hal_adc_ex.c:381:3
	cmp	r0, #1
	bne	.LBB2_3
	b	.LBB2_2
.LBB2_2:
	.loc	7 0 3                           @ ../ThirdParty/STM32F4xx_HAL_Driver/Src/stm32f4xx_hal_adc_ex.c:0:3
	movs	r0, #2
.Ltmp71:
	.loc	7 381 3                         @ ../ThirdParty/STM32F4xx_HAL_Driver/Src/stm32f4xx_hal_adc_ex.c:381:3
	strb.w	r0, [sp, #11]
	b	.LBB2_14
.Ltmp72:
.LBB2_3:
	.loc	7 381 3                         @ ../ThirdParty/STM32F4xx_HAL_Driver/Src/stm32f4xx_hal_adc_ex.c:381:3
	ldr	r1, [sp, #4]
	movs	r0, #1
	strb.w	r0, [r1, #60]
	b	.LBB2_4
.Ltmp73:
.LBB2_4:
	.loc	7 381 3                         @ ../ThirdParty/STM32F4xx_HAL_Driver/Src/stm32f4xx_hal_adc_ex.c:381:3
	b	.LBB2_5
.Ltmp74:
.LBB2_5:
	.loc	7 389 8 is_stmt 1               @ ../ThirdParty/STM32F4xx_HAL_Driver/Src/stm32f4xx_hal_adc_ex.c:389:8
	ldr	r0, [sp, #4]
	.loc	7 389 14 is_stmt 0              @ ../ThirdParty/STM32F4xx_HAL_Driver/Src/stm32f4xx_hal_adc_ex.c:389:14
	ldr	r0, [r0, #64]
	.loc	7 389 57                        @ ../ThirdParty/STM32F4xx_HAL_Driver/Src/stm32f4xx_hal_adc_ex.c:389:57
	lsls	r0, r0, #23
	cmp	r0, #0
	bmi	.LBB2_10
	b	.LBB2_6
.LBB2_6:
	.loc	7 390 6 is_stmt 1               @ ../ThirdParty/STM32F4xx_HAL_Driver/Src/stm32f4xx_hal_adc_ex.c:390:6
	ldr	r0, [sp, #4]
	ldr	r0, [r0]
	ldr	r0, [r0, #4]
.Ltmp75:
	.loc	7 389 6                         @ ../ThirdParty/STM32F4xx_HAL_Driver/Src/stm32f4xx_hal_adc_ex.c:389:6
	lsls	r0, r0, #21
	cmp	r0, #0
	bmi	.LBB2_10
	b	.LBB2_7
.LBB2_7:
.Ltmp76:
	.loc	7 394 5                         @ ../ThirdParty/STM32F4xx_HAL_Driver/Src/stm32f4xx_hal_adc_ex.c:394:5
	ldr	r0, [sp, #4]
	ldr	r1, [r0]
	ldr	r0, [r1, #8]
	bic	r0, r0, #1
	str	r0, [r1, #8]
.Ltmp77:
	.loc	7 397 8                         @ ../ThirdParty/STM32F4xx_HAL_Driver/Src/stm32f4xx_hal_adc_ex.c:397:8
	ldr	r0, [sp, #4]
	ldr	r0, [r0]
	ldr	r0, [r0, #8]
.Ltmp78:
	.loc	7 397 8 is_stmt 0               @ ../ThirdParty/STM32F4xx_HAL_Driver/Src/stm32f4xx_hal_adc_ex.c:397:8
	lsls	r0, r0, #31
	cbnz	r0, .LBB2_9
	b	.LBB2_8
.LBB2_8:
.Ltmp79:
	.loc	7 400 7 is_stmt 1               @ ../ThirdParty/STM32F4xx_HAL_Driver/Src/stm32f4xx_hal_adc_ex.c:400:7
	ldr	r0, [sp, #4]
	ldr	r0, [r0, #64]
	orr	r0, r0, #1
	bic	r0, r0, #4352
	ldr	r1, [sp, #4]
	str	r0, [r1, #64]
	.loc	7 403 5                         @ ../ThirdParty/STM32F4xx_HAL_Driver/Src/stm32f4xx_hal_adc_ex.c:403:5
	b	.LBB2_9
.Ltmp80:
.LBB2_9:
	.loc	7 404 3                         @ ../ThirdParty/STM32F4xx_HAL_Driver/Src/stm32f4xx_hal_adc_ex.c:404:3
	b	.LBB2_11
.Ltmp81:
.LBB2_10:
	.loc	7 408 5                         @ ../ThirdParty/STM32F4xx_HAL_Driver/Src/stm32f4xx_hal_adc_ex.c:408:5
	ldr	r1, [sp, #4]
	ldr	r0, [r1, #64]
	orr	r0, r0, #32
	str	r0, [r1, #64]
	movs	r0, #1
	.loc	7 410 20                        @ ../ThirdParty/STM32F4xx_HAL_Driver/Src/stm32f4xx_hal_adc_ex.c:410:20
	strb.w	r0, [sp, #3]
	b	.LBB2_11
.Ltmp82:
.LBB2_11:
	.loc	7 414 3                         @ ../ThirdParty/STM32F4xx_HAL_Driver/Src/stm32f4xx_hal_adc_ex.c:414:3
	b	.LBB2_12
.LBB2_12:
.Ltmp83:
	.loc	7 414 3 is_stmt 0               @ ../ThirdParty/STM32F4xx_HAL_Driver/Src/stm32f4xx_hal_adc_ex.c:414:3
	ldr	r1, [sp, #4]
	movs	r0, #0
	strb.w	r0, [r1, #60]
	b	.LBB2_13
.Ltmp84:
.LBB2_13:
	.loc	7 417 10 is_stmt 1              @ ../ThirdParty/STM32F4xx_HAL_Driver/Src/stm32f4xx_hal_adc_ex.c:417:10
	ldrb.w	r0, [sp, #3]
	.loc	7 417 3 is_stmt 0               @ ../ThirdParty/STM32F4xx_HAL_Driver/Src/stm32f4xx_hal_adc_ex.c:417:3
	strb.w	r0, [sp, #11]
	b	.LBB2_14
.LBB2_14:
	.loc	7 418 1 is_stmt 1               @ ../ThirdParty/STM32F4xx_HAL_Driver/Src/stm32f4xx_hal_adc_ex.c:418:1
	ldrb.w	r0, [sp, #11]
	.loc	7 418 1 epilogue_begin is_stmt 0 @ ../ThirdParty/STM32F4xx_HAL_Driver/Src/stm32f4xx_hal_adc_ex.c:418:1
	add	sp, #12
	bx	lr
.Ltmp85:
.Lfunc_end2:
	.size	HAL_ADCEx_InjectedStop, .Lfunc_end2-HAL_ADCEx_InjectedStop
	.cfi_endproc
	.cantunwind
	.fnend
                                        @ -- End function
	.section	.text.HAL_ADCEx_InjectedPollForConversion,"ax",%progbits
	.hidden	HAL_ADCEx_InjectedPollForConversion @ -- Begin function HAL_ADCEx_InjectedPollForConversion
	.globl	HAL_ADCEx_InjectedPollForConversion
	.p2align	2
	.type	HAL_ADCEx_InjectedPollForConversion,%function
	.code	16                              @ @HAL_ADCEx_InjectedPollForConversion
	.thumb_func
HAL_ADCEx_InjectedPollForConversion:
.Lfunc_begin3:
	.loc	7 428 0 is_stmt 1               @ ../ThirdParty/STM32F4xx_HAL_Driver/Src/stm32f4xx_hal_adc_ex.c:428:0
	.fnstart
	.cfi_startproc
@ %bb.0:
	.save	{r7, lr}
	push	{r7, lr}
	.cfi_def_cfa_offset 8
	.cfi_offset lr, -4
	.cfi_offset r7, -8
	.pad	#16
	sub	sp, #16
	.cfi_def_cfa_offset 24
	str	r0, [sp, #8]
	str	r1, [sp, #4]
	movs	r0, #0
.Ltmp86:
	.loc	7 429 12 prologue_end           @ ../ThirdParty/STM32F4xx_HAL_Driver/Src/stm32f4xx_hal_adc_ex.c:429:12
	str	r0, [sp]
	.loc	7 432 15                        @ ../ThirdParty/STM32F4xx_HAL_Driver/Src/stm32f4xx_hal_adc_ex.c:432:15
	bl	HAL_GetTick
	.loc	7 432 13 is_stmt 0              @ ../ThirdParty/STM32F4xx_HAL_Driver/Src/stm32f4xx_hal_adc_ex.c:432:13
	str	r0, [sp]
	.loc	7 435 3 is_stmt 1               @ ../ThirdParty/STM32F4xx_HAL_Driver/Src/stm32f4xx_hal_adc_ex.c:435:3
	b	.LBB3_1
.LBB3_1:                                @ =>This Inner Loop Header: Depth=1
	.loc	7 435 11 is_stmt 0              @ ../ThirdParty/STM32F4xx_HAL_Driver/Src/stm32f4xx_hal_adc_ex.c:435:11
	ldr	r0, [sp, #8]
	ldr	r0, [r0]
	ldr	r0, [r0]
	and	r0, r0, #4
	.loc	7 435 3                         @ ../ThirdParty/STM32F4xx_HAL_Driver/Src/stm32f4xx_hal_adc_ex.c:435:3
	cmp	r0, #4
	beq	.LBB3_10
	b	.LBB3_2
.LBB3_2:                                @   in Loop: Header=BB3_1 Depth=1
.Ltmp87:
	.loc	7 438 8 is_stmt 1               @ ../ThirdParty/STM32F4xx_HAL_Driver/Src/stm32f4xx_hal_adc_ex.c:438:8
	ldr	r0, [sp, #4]
.Ltmp88:
	.loc	7 438 8 is_stmt 0               @ ../ThirdParty/STM32F4xx_HAL_Driver/Src/stm32f4xx_hal_adc_ex.c:438:8
	adds	r0, #1
	cbz	r0, .LBB3_9
	b	.LBB3_3
.LBB3_3:                                @   in Loop: Header=BB3_1 Depth=1
.Ltmp89:
	.loc	7 440 11 is_stmt 1              @ ../ThirdParty/STM32F4xx_HAL_Driver/Src/stm32f4xx_hal_adc_ex.c:440:11
	ldr	r0, [sp, #4]
	.loc	7 440 25 is_stmt 0              @ ../ThirdParty/STM32F4xx_HAL_Driver/Src/stm32f4xx_hal_adc_ex.c:440:25
	cbz	r0, .LBB3_5
	b	.LBB3_4
.LBB3_4:                                @   in Loop: Header=BB3_1 Depth=1
	.loc	7 440 29                        @ ../ThirdParty/STM32F4xx_HAL_Driver/Src/stm32f4xx_hal_adc_ex.c:440:29
	bl	HAL_GetTick
	.loc	7 440 45                        @ ../ThirdParty/STM32F4xx_HAL_Driver/Src/stm32f4xx_hal_adc_ex.c:440:45
	ldr	r1, [sp]
	.loc	7 440 43                        @ ../ThirdParty/STM32F4xx_HAL_Driver/Src/stm32f4xx_hal_adc_ex.c:440:43
	subs	r0, r0, r1
	.loc	7 440 59                        @ ../ThirdParty/STM32F4xx_HAL_Driver/Src/stm32f4xx_hal_adc_ex.c:440:59
	ldr	r1, [sp, #4]
.Ltmp90:
	.loc	7 440 10                        @ ../ThirdParty/STM32F4xx_HAL_Driver/Src/stm32f4xx_hal_adc_ex.c:440:10
	cmp	r0, r1
	bls	.LBB3_8
	b	.LBB3_5
.LBB3_5:
.Ltmp91:
	.loc	7 442 9 is_stmt 1               @ ../ThirdParty/STM32F4xx_HAL_Driver/Src/stm32f4xx_hal_adc_ex.c:442:9
	ldr	r1, [sp, #8]
	movs	r0, #4
	.loc	7 442 20 is_stmt 0              @ ../ThirdParty/STM32F4xx_HAL_Driver/Src/stm32f4xx_hal_adc_ex.c:442:20
	str	r0, [r1, #64]
	.loc	7 444 9 is_stmt 1               @ ../ThirdParty/STM32F4xx_HAL_Driver/Src/stm32f4xx_hal_adc_ex.c:444:9
	b	.LBB3_6
.LBB3_6:
.Ltmp92:
	.loc	7 444 9 is_stmt 0               @ ../ThirdParty/STM32F4xx_HAL_Driver/Src/stm32f4xx_hal_adc_ex.c:444:9
	ldr	r1, [sp, #8]
	movs	r0, #0
	strb.w	r0, [r1, #60]
	b	.LBB3_7
.Ltmp93:
.LBB3_7:
	.loc	7 0 9                           @ ../ThirdParty/STM32F4xx_HAL_Driver/Src/stm32f4xx_hal_adc_ex.c:0:9
	movs	r0, #3
	.loc	7 445 9 is_stmt 1               @ ../ThirdParty/STM32F4xx_HAL_Driver/Src/stm32f4xx_hal_adc_ex.c:445:9
	strb.w	r0, [sp, #15]
	b	.LBB3_20
.Ltmp94:
.LBB3_8:                                @   in Loop: Header=BB3_1 Depth=1
	.loc	7 447 5                         @ ../ThirdParty/STM32F4xx_HAL_Driver/Src/stm32f4xx_hal_adc_ex.c:447:5
	b	.LBB3_9
.Ltmp95:
.LBB3_9:                                @   in Loop: Header=BB3_1 Depth=1
	.loc	7 435 3                         @ ../ThirdParty/STM32F4xx_HAL_Driver/Src/stm32f4xx_hal_adc_ex.c:435:3
	b	.LBB3_1
.LBB3_10:
	.loc	7 451 3                         @ ../ThirdParty/STM32F4xx_HAL_Driver/Src/stm32f4xx_hal_adc_ex.c:451:3
	ldr	r0, [sp, #8]
	ldr	r1, [r0]
	mvn	r0, #12
	str	r0, [r1]
	.loc	7 454 3                         @ ../ThirdParty/STM32F4xx_HAL_Driver/Src/stm32f4xx_hal_adc_ex.c:454:3
	ldr	r1, [sp, #8]
	ldr	r0, [r1, #64]
	orr	r0, r0, #8192
	str	r0, [r1, #64]
.Ltmp96:
	.loc	7 462 6                         @ ../ThirdParty/STM32F4xx_HAL_Driver/Src/stm32f4xx_hal_adc_ex.c:462:6
	ldr	r0, [sp, #8]
	ldr	r0, [r0]
	ldr	r0, [r0, #8]
	.loc	7 462 62 is_stmt 0              @ ../ThirdParty/STM32F4xx_HAL_Driver/Src/stm32f4xx_hal_adc_ex.c:462:62
	tst.w	r0, #3145728
	bne	.LBB3_19
	b	.LBB3_11
.LBB3_11:
	.loc	7 463 7 is_stmt 1               @ ../ThirdParty/STM32F4xx_HAL_Driver/Src/stm32f4xx_hal_adc_ex.c:463:7
	ldr	r0, [sp, #8]
	ldr	r0, [r0]
	ldr	r0, [r0, #56]
	.loc	7 463 58 is_stmt 0              @ ../ThirdParty/STM32F4xx_HAL_Driver/Src/stm32f4xx_hal_adc_ex.c:463:58
	tst.w	r0, #3145728
	beq	.LBB3_13
	b	.LBB3_12
.LBB3_12:
	.loc	7 464 7 is_stmt 1               @ ../ThirdParty/STM32F4xx_HAL_Driver/Src/stm32f4xx_hal_adc_ex.c:464:7
	ldr	r0, [sp, #8]
	ldr	r0, [r0]
	ldr	r0, [r0, #8]
	.loc	7 464 62 is_stmt 0              @ ../ThirdParty/STM32F4xx_HAL_Driver/Src/stm32f4xx_hal_adc_ex.c:464:62
	lsls	r0, r0, #21
	cmp	r0, #0
	bmi	.LBB3_19
	b	.LBB3_13
.LBB3_13:
	.loc	7 465 7 is_stmt 1               @ ../ThirdParty/STM32F4xx_HAL_Driver/Src/stm32f4xx_hal_adc_ex.c:465:7
	ldr	r0, [sp, #8]
	ldr	r0, [r0]
	ldr	r0, [r0, #4]
	.loc	7 465 58 is_stmt 0              @ ../ThirdParty/STM32F4xx_HAL_Driver/Src/stm32f4xx_hal_adc_ex.c:465:58
	lsls	r0, r0, #21
	cmp	r0, #0
	bmi	.LBB3_19
	b	.LBB3_14
.LBB3_14:
	.loc	7 466 8 is_stmt 1               @ ../ThirdParty/STM32F4xx_HAL_Driver/Src/stm32f4xx_hal_adc_ex.c:466:8
	ldr	r0, [sp, #8]
	ldr	r0, [r0]
	ldr	r0, [r0, #8]
	.loc	7 466 50 is_stmt 0              @ ../ThirdParty/STM32F4xx_HAL_Driver/Src/stm32f4xx_hal_adc_ex.c:466:50
	tst.w	r0, #805306368
	bne	.LBB3_19
	b	.LBB3_15
.LBB3_15:
	.loc	7 467 8 is_stmt 1               @ ../ThirdParty/STM32F4xx_HAL_Driver/Src/stm32f4xx_hal_adc_ex.c:467:8
	ldr	r0, [sp, #8]
	.loc	7 467 19 is_stmt 0              @ ../ThirdParty/STM32F4xx_HAL_Driver/Src/stm32f4xx_hal_adc_ex.c:467:19
	ldr	r0, [r0, #24]
.Ltmp97:
	.loc	7 462 6 is_stmt 1               @ ../ThirdParty/STM32F4xx_HAL_Driver/Src/stm32f4xx_hal_adc_ex.c:462:6
	cbnz	r0, .LBB3_19
	b	.LBB3_16
.LBB3_16:
.Ltmp98:
	.loc	7 470 5                         @ ../ThirdParty/STM32F4xx_HAL_Driver/Src/stm32f4xx_hal_adc_ex.c:470:5
	ldr	r1, [sp, #8]
	ldr	r0, [r1, #64]
	bic	r0, r0, #4096
	str	r0, [r1, #64]
.Ltmp99:
	.loc	7 472 9                         @ ../ThirdParty/STM32F4xx_HAL_Driver/Src/stm32f4xx_hal_adc_ex.c:472:9
	ldr	r0, [sp, #8]
	ldr	r0, [r0, #64]
.Ltmp100:
	.loc	7 472 9 is_stmt 0               @ ../ThirdParty/STM32F4xx_HAL_Driver/Src/stm32f4xx_hal_adc_ex.c:472:9
	lsls	r0, r0, #23
	cmp	r0, #0
	bmi	.LBB3_18
	b	.LBB3_17
.LBB3_17:
.Ltmp101:
	.loc	7 474 7 is_stmt 1               @ ../ThirdParty/STM32F4xx_HAL_Driver/Src/stm32f4xx_hal_adc_ex.c:474:7
	ldr	r1, [sp, #8]
	ldr	r0, [r1, #64]
	orr	r0, r0, #1
	str	r0, [r1, #64]
	.loc	7 475 5                         @ ../ThirdParty/STM32F4xx_HAL_Driver/Src/stm32f4xx_hal_adc_ex.c:475:5
	b	.LBB3_18
.Ltmp102:
.LBB3_18:
	.loc	7 476 3                         @ ../ThirdParty/STM32F4xx_HAL_Driver/Src/stm32f4xx_hal_adc_ex.c:476:3
	b	.LBB3_19
.Ltmp103:
.LBB3_19:
	.loc	7 0 3 is_stmt 0                 @ ../ThirdParty/STM32F4xx_HAL_Driver/Src/stm32f4xx_hal_adc_ex.c:0:3
	movs	r0, #0
	.loc	7 479 3 is_stmt 1               @ ../ThirdParty/STM32F4xx_HAL_Driver/Src/stm32f4xx_hal_adc_ex.c:479:3
	strb.w	r0, [sp, #15]
	b	.LBB3_20
.LBB3_20:
	.loc	7 480 1                         @ ../ThirdParty/STM32F4xx_HAL_Driver/Src/stm32f4xx_hal_adc_ex.c:480:1
	ldrb.w	r0, [sp, #15]
	.loc	7 480 1 epilogue_begin is_stmt 0 @ ../ThirdParty/STM32F4xx_HAL_Driver/Src/stm32f4xx_hal_adc_ex.c:480:1
	add	sp, #16
	pop	{r7, pc}
.Ltmp104:
.Lfunc_end3:
	.size	HAL_ADCEx_InjectedPollForConversion, .Lfunc_end3-HAL_ADCEx_InjectedPollForConversion
	.cfi_endproc
	.cantunwind
	.fnend
                                        @ -- End function
	.section	.text.HAL_ADCEx_InjectedStop_IT,"ax",%progbits
	.hidden	HAL_ADCEx_InjectedStop_IT       @ -- Begin function HAL_ADCEx_InjectedStop_IT
	.globl	HAL_ADCEx_InjectedStop_IT
	.p2align	2
	.type	HAL_ADCEx_InjectedStop_IT,%function
	.code	16                              @ @HAL_ADCEx_InjectedStop_IT
	.thumb_func
HAL_ADCEx_InjectedStop_IT:
.Lfunc_begin4:
	.loc	7 495 0 is_stmt 1               @ ../ThirdParty/STM32F4xx_HAL_Driver/Src/stm32f4xx_hal_adc_ex.c:495:0
	.fnstart
	.cfi_startproc
@ %bb.0:
	.pad	#12
	sub	sp, #12
	.cfi_def_cfa_offset 12
	str	r0, [sp, #4]
	movs	r0, #0
.Ltmp105:
	.loc	7 496 21 prologue_end           @ ../ThirdParty/STM32F4xx_HAL_Driver/Src/stm32f4xx_hal_adc_ex.c:496:21
	strb.w	r0, [sp, #3]
	.loc	7 502 3                         @ ../ThirdParty/STM32F4xx_HAL_Driver/Src/stm32f4xx_hal_adc_ex.c:502:3
	b	.LBB4_1
.LBB4_1:
.Ltmp106:
	.loc	7 502 3 is_stmt 0               @ ../ThirdParty/STM32F4xx_HAL_Driver/Src/stm32f4xx_hal_adc_ex.c:502:3
	ldr	r0, [sp, #4]
	ldrb.w	r0, [r0, #60]
.Ltmp107:
	.loc	7 502 3                         @ ../ThirdParty/STM32F4xx_HAL_Driver/Src/stm32f4xx_hal_adc_ex.c:502:3
	cmp	r0, #1
	bne	.LBB4_3
	b	.LBB4_2
.LBB4_2:
	.loc	7 0 3                           @ ../ThirdParty/STM32F4xx_HAL_Driver/Src/stm32f4xx_hal_adc_ex.c:0:3
	movs	r0, #2
.Ltmp108:
	.loc	7 502 3                         @ ../ThirdParty/STM32F4xx_HAL_Driver/Src/stm32f4xx_hal_adc_ex.c:502:3
	strb.w	r0, [sp, #11]
	b	.LBB4_14
.Ltmp109:
.LBB4_3:
	.loc	7 502 3                         @ ../ThirdParty/STM32F4xx_HAL_Driver/Src/stm32f4xx_hal_adc_ex.c:502:3
	ldr	r1, [sp, #4]
	movs	r0, #1
	strb.w	r0, [r1, #60]
	b	.LBB4_4
.Ltmp110:
.LBB4_4:
	.loc	7 502 3                         @ ../ThirdParty/STM32F4xx_HAL_Driver/Src/stm32f4xx_hal_adc_ex.c:502:3
	b	.LBB4_5
.Ltmp111:
.LBB4_5:
	.loc	7 510 8 is_stmt 1               @ ../ThirdParty/STM32F4xx_HAL_Driver/Src/stm32f4xx_hal_adc_ex.c:510:8
	ldr	r0, [sp, #4]
	.loc	7 510 14 is_stmt 0              @ ../ThirdParty/STM32F4xx_HAL_Driver/Src/stm32f4xx_hal_adc_ex.c:510:14
	ldr	r0, [r0, #64]
	.loc	7 510 57                        @ ../ThirdParty/STM32F4xx_HAL_Driver/Src/stm32f4xx_hal_adc_ex.c:510:57
	lsls	r0, r0, #23
	cmp	r0, #0
	bmi	.LBB4_10
	b	.LBB4_6
.LBB4_6:
	.loc	7 511 6 is_stmt 1               @ ../ThirdParty/STM32F4xx_HAL_Driver/Src/stm32f4xx_hal_adc_ex.c:511:6
	ldr	r0, [sp, #4]
	ldr	r0, [r0]
	ldr	r0, [r0, #4]
.Ltmp112:
	.loc	7 510 6                         @ ../ThirdParty/STM32F4xx_HAL_Driver/Src/stm32f4xx_hal_adc_ex.c:510:6
	lsls	r0, r0, #21
	cmp	r0, #0
	bmi	.LBB4_10
	b	.LBB4_7
.LBB4_7:
.Ltmp113:
	.loc	7 515 5                         @ ../ThirdParty/STM32F4xx_HAL_Driver/Src/stm32f4xx_hal_adc_ex.c:515:5
	ldr	r0, [sp, #4]
	ldr	r1, [r0]
	ldr	r0, [r1, #8]
	bic	r0, r0, #1
	str	r0, [r1, #8]
.Ltmp114:
	.loc	7 518 8                         @ ../ThirdParty/STM32F4xx_HAL_Driver/Src/stm32f4xx_hal_adc_ex.c:518:8
	ldr	r0, [sp, #4]
	ldr	r0, [r0]
	ldr	r0, [r0, #8]
.Ltmp115:
	.loc	7 518 8 is_stmt 0               @ ../ThirdParty/STM32F4xx_HAL_Driver/Src/stm32f4xx_hal_adc_ex.c:518:8
	lsls	r0, r0, #31
	cbnz	r0, .LBB4_9
	b	.LBB4_8
.LBB4_8:
.Ltmp116:
	.loc	7 521 7 is_stmt 1               @ ../ThirdParty/STM32F4xx_HAL_Driver/Src/stm32f4xx_hal_adc_ex.c:521:7
	ldr	r0, [sp, #4]
	ldr	r1, [r0]
	ldr	r0, [r1, #4]
	bic	r0, r0, #128
	str	r0, [r1, #4]
	.loc	7 524 7                         @ ../ThirdParty/STM32F4xx_HAL_Driver/Src/stm32f4xx_hal_adc_ex.c:524:7
	ldr	r0, [sp, #4]
	ldr	r0, [r0, #64]
	orr	r0, r0, #1
	bic	r0, r0, #4352
	ldr	r1, [sp, #4]
	str	r0, [r1, #64]
	.loc	7 527 5                         @ ../ThirdParty/STM32F4xx_HAL_Driver/Src/stm32f4xx_hal_adc_ex.c:527:5
	b	.LBB4_9
.Ltmp117:
.LBB4_9:
	.loc	7 528 3                         @ ../ThirdParty/STM32F4xx_HAL_Driver/Src/stm32f4xx_hal_adc_ex.c:528:3
	b	.LBB4_11
.Ltmp118:
.LBB4_10:
	.loc	7 532 5                         @ ../ThirdParty/STM32F4xx_HAL_Driver/Src/stm32f4xx_hal_adc_ex.c:532:5
	ldr	r1, [sp, #4]
	ldr	r0, [r1, #64]
	orr	r0, r0, #32
	str	r0, [r1, #64]
	movs	r0, #1
	.loc	7 534 20                        @ ../ThirdParty/STM32F4xx_HAL_Driver/Src/stm32f4xx_hal_adc_ex.c:534:20
	strb.w	r0, [sp, #3]
	b	.LBB4_11
.Ltmp119:
.LBB4_11:
	.loc	7 538 3                         @ ../ThirdParty/STM32F4xx_HAL_Driver/Src/stm32f4xx_hal_adc_ex.c:538:3
	b	.LBB4_12
.LBB4_12:
.Ltmp120:
	.loc	7 538 3 is_stmt 0               @ ../ThirdParty/STM32F4xx_HAL_Driver/Src/stm32f4xx_hal_adc_ex.c:538:3
	ldr	r1, [sp, #4]
	movs	r0, #0
	strb.w	r0, [r1, #60]
	b	.LBB4_13
.Ltmp121:
.LBB4_13:
	.loc	7 541 10 is_stmt 1              @ ../ThirdParty/STM32F4xx_HAL_Driver/Src/stm32f4xx_hal_adc_ex.c:541:10
	ldrb.w	r0, [sp, #3]
	.loc	7 541 3 is_stmt 0               @ ../ThirdParty/STM32F4xx_HAL_Driver/Src/stm32f4xx_hal_adc_ex.c:541:3
	strb.w	r0, [sp, #11]
	b	.LBB4_14
.LBB4_14:
	.loc	7 542 1 is_stmt 1               @ ../ThirdParty/STM32F4xx_HAL_Driver/Src/stm32f4xx_hal_adc_ex.c:542:1
	ldrb.w	r0, [sp, #11]
	.loc	7 542 1 epilogue_begin is_stmt 0 @ ../ThirdParty/STM32F4xx_HAL_Driver/Src/stm32f4xx_hal_adc_ex.c:542:1
	add	sp, #12
	bx	lr
.Ltmp122:
.Lfunc_end4:
	.size	HAL_ADCEx_InjectedStop_IT, .Lfunc_end4-HAL_ADCEx_InjectedStop_IT
	.cfi_endproc
	.cantunwind
	.fnend
                                        @ -- End function
	.section	.text.HAL_ADCEx_InjectedGetValue,"ax",%progbits
	.hidden	HAL_ADCEx_InjectedGetValue      @ -- Begin function HAL_ADCEx_InjectedGetValue
	.globl	HAL_ADCEx_InjectedGetValue
	.p2align	2
	.type	HAL_ADCEx_InjectedGetValue,%function
	.code	16                              @ @HAL_ADCEx_InjectedGetValue
	.thumb_func
HAL_ADCEx_InjectedGetValue:
.Lfunc_begin5:
	.loc	7 557 0 is_stmt 1               @ ../ThirdParty/STM32F4xx_HAL_Driver/Src/stm32f4xx_hal_adc_ex.c:557:0
	.fnstart
	.cfi_startproc
@ %bb.0:
	.pad	#16
	sub	sp, #16
	.cfi_def_cfa_offset 16
	str	r0, [sp, #12]
	str	r1, [sp, #8]
	movs	r0, #0
.Ltmp123:
	.loc	7 558 17 prologue_end           @ ../ThirdParty/STM32F4xx_HAL_Driver/Src/stm32f4xx_hal_adc_ex.c:558:17
	str	r0, [sp, #4]
	.loc	7 565 3                         @ ../ThirdParty/STM32F4xx_HAL_Driver/Src/stm32f4xx_hal_adc_ex.c:565:3
	ldr	r0, [sp, #12]
	ldr	r1, [r0]
	mvn	r0, #4
	str	r0, [r1]
	.loc	7 568 10                        @ ../ThirdParty/STM32F4xx_HAL_Driver/Src/stm32f4xx_hal_adc_ex.c:568:10
	ldr	r0, [sp, #8]
	.loc	7 568 3 is_stmt 0               @ ../ThirdParty/STM32F4xx_HAL_Driver/Src/stm32f4xx_hal_adc_ex.c:568:3
	subs	r0, #1
	mov	r1, r0
	str	r1, [sp]                        @ 4-byte Spill
	cmp	r0, #3
	bhi	.LBB5_7
@ %bb.1:
	.loc	7 0 3                           @ ../ThirdParty/STM32F4xx_HAL_Driver/Src/stm32f4xx_hal_adc_ex.c:0:3
	ldr	r1, [sp]                        @ 4-byte Reload
.LCPI5_0:
	tbb	[pc, r1]
@ %bb.2:
.LJTI5_0:
	.byte	(.LBB5_6-(.LCPI5_0+4))/2
	.byte	(.LBB5_5-(.LCPI5_0+4))/2
	.byte	(.LBB5_4-(.LCPI5_0+4))/2
	.byte	(.LBB5_3-(.LCPI5_0+4))/2
	.p2align	1
.LBB5_3:
.Ltmp124:
	.loc	7 572 14 is_stmt 1              @ ../ThirdParty/STM32F4xx_HAL_Driver/Src/stm32f4xx_hal_adc_ex.c:572:14
	ldr	r0, [sp, #12]
	.loc	7 572 20 is_stmt 0              @ ../ThirdParty/STM32F4xx_HAL_Driver/Src/stm32f4xx_hal_adc_ex.c:572:20
	ldr	r0, [r0]
	.loc	7 572 30                        @ ../ThirdParty/STM32F4xx_HAL_Driver/Src/stm32f4xx_hal_adc_ex.c:572:30
	ldr	r0, [r0, #72]
	.loc	7 572 11                        @ ../ThirdParty/STM32F4xx_HAL_Driver/Src/stm32f4xx_hal_adc_ex.c:572:11
	str	r0, [sp, #4]
.Ltmp125:
	.loc	7 574 5 is_stmt 1               @ ../ThirdParty/STM32F4xx_HAL_Driver/Src/stm32f4xx_hal_adc_ex.c:574:5
	b	.LBB5_8
.LBB5_4:
.Ltmp126:
	.loc	7 577 14                        @ ../ThirdParty/STM32F4xx_HAL_Driver/Src/stm32f4xx_hal_adc_ex.c:577:14
	ldr	r0, [sp, #12]
	.loc	7 577 20 is_stmt 0              @ ../ThirdParty/STM32F4xx_HAL_Driver/Src/stm32f4xx_hal_adc_ex.c:577:20
	ldr	r0, [r0]
	.loc	7 577 30                        @ ../ThirdParty/STM32F4xx_HAL_Driver/Src/stm32f4xx_hal_adc_ex.c:577:30
	ldr	r0, [r0, #68]
	.loc	7 577 11                        @ ../ThirdParty/STM32F4xx_HAL_Driver/Src/stm32f4xx_hal_adc_ex.c:577:11
	str	r0, [sp, #4]
.Ltmp127:
	.loc	7 579 5 is_stmt 1               @ ../ThirdParty/STM32F4xx_HAL_Driver/Src/stm32f4xx_hal_adc_ex.c:579:5
	b	.LBB5_8
.LBB5_5:
.Ltmp128:
	.loc	7 582 14                        @ ../ThirdParty/STM32F4xx_HAL_Driver/Src/stm32f4xx_hal_adc_ex.c:582:14
	ldr	r0, [sp, #12]
	.loc	7 582 20 is_stmt 0              @ ../ThirdParty/STM32F4xx_HAL_Driver/Src/stm32f4xx_hal_adc_ex.c:582:20
	ldr	r0, [r0]
	.loc	7 582 30                        @ ../ThirdParty/STM32F4xx_HAL_Driver/Src/stm32f4xx_hal_adc_ex.c:582:30
	ldr	r0, [r0, #64]
	.loc	7 582 11                        @ ../ThirdParty/STM32F4xx_HAL_Driver/Src/stm32f4xx_hal_adc_ex.c:582:11
	str	r0, [sp, #4]
.Ltmp129:
	.loc	7 584 5 is_stmt 1               @ ../ThirdParty/STM32F4xx_HAL_Driver/Src/stm32f4xx_hal_adc_ex.c:584:5
	b	.LBB5_8
.LBB5_6:
.Ltmp130:
	.loc	7 587 14                        @ ../ThirdParty/STM32F4xx_HAL_Driver/Src/stm32f4xx_hal_adc_ex.c:587:14
	ldr	r0, [sp, #12]
	.loc	7 587 20 is_stmt 0              @ ../ThirdParty/STM32F4xx_HAL_Driver/Src/stm32f4xx_hal_adc_ex.c:587:20
	ldr	r0, [r0]
	.loc	7 587 30                        @ ../ThirdParty/STM32F4xx_HAL_Driver/Src/stm32f4xx_hal_adc_ex.c:587:30
	ldr	r0, [r0, #60]
	.loc	7 587 11                        @ ../ThirdParty/STM32F4xx_HAL_Driver/Src/stm32f4xx_hal_adc_ex.c:587:11
	str	r0, [sp, #4]
.Ltmp131:
	.loc	7 589 5 is_stmt 1               @ ../ThirdParty/STM32F4xx_HAL_Driver/Src/stm32f4xx_hal_adc_ex.c:589:5
	b	.LBB5_8
.LBB5_7:
	.loc	7 591 5                         @ ../ThirdParty/STM32F4xx_HAL_Driver/Src/stm32f4xx_hal_adc_ex.c:591:5
	b	.LBB5_8
.Ltmp132:
.LBB5_8:
	.loc	7 593 10                        @ ../ThirdParty/STM32F4xx_HAL_Driver/Src/stm32f4xx_hal_adc_ex.c:593:10
	ldr	r0, [sp, #4]
	.loc	7 593 3 epilogue_begin is_stmt 0 @ ../ThirdParty/STM32F4xx_HAL_Driver/Src/stm32f4xx_hal_adc_ex.c:593:3
	add	sp, #16
	bx	lr
.Ltmp133:
.Lfunc_end5:
	.size	HAL_ADCEx_InjectedGetValue, .Lfunc_end5-HAL_ADCEx_InjectedGetValue
	.cfi_endproc
	.cantunwind
	.fnend
                                        @ -- End function
	.section	.text.HAL_ADCEx_MultiModeStart_DMA,"ax",%progbits
	.hidden	HAL_ADCEx_MultiModeStart_DMA    @ -- Begin function HAL_ADCEx_MultiModeStart_DMA
	.globl	HAL_ADCEx_MultiModeStart_DMA
	.p2align	2
	.type	HAL_ADCEx_MultiModeStart_DMA,%function
	.code	16                              @ @HAL_ADCEx_MultiModeStart_DMA
	.thumb_func
HAL_ADCEx_MultiModeStart_DMA:
.Lfunc_begin6:
	.loc	7 608 0 is_stmt 1               @ ../ThirdParty/STM32F4xx_HAL_Driver/Src/stm32f4xx_hal_adc_ex.c:608:0
	.fnstart
	.cfi_startproc
@ %bb.0:
	.save	{r7, lr}
	push	{r7, lr}
	.cfi_def_cfa_offset 8
	.cfi_offset lr, -4
	.cfi_offset r7, -8
	.pad	#24
	sub	sp, #24
	.cfi_def_cfa_offset 32
	str	r0, [sp, #16]
	str	r1, [sp, #12]
	str	r2, [sp, #8]
	movs	r0, #0
.Ltmp134:
	.loc	7 609 17 prologue_end           @ ../ThirdParty/STM32F4xx_HAL_Driver/Src/stm32f4xx_hal_adc_ex.c:609:17
	str	r0, [sp, #4]
	.loc	7 618 3                         @ ../ThirdParty/STM32F4xx_HAL_Driver/Src/stm32f4xx_hal_adc_ex.c:618:3
	b	.LBB6_1
.LBB6_1:
.Ltmp135:
	.loc	7 618 3 is_stmt 0               @ ../ThirdParty/STM32F4xx_HAL_Driver/Src/stm32f4xx_hal_adc_ex.c:618:3
	ldr	r0, [sp, #16]
	ldrb.w	r0, [r0, #60]
.Ltmp136:
	.loc	7 618 3                         @ ../ThirdParty/STM32F4xx_HAL_Driver/Src/stm32f4xx_hal_adc_ex.c:618:3
	cmp	r0, #1
	bne	.LBB6_3
	b	.LBB6_2
.LBB6_2:
	.loc	7 0 3                           @ ../ThirdParty/STM32F4xx_HAL_Driver/Src/stm32f4xx_hal_adc_ex.c:0:3
	movs	r0, #2
.Ltmp137:
	.loc	7 618 3                         @ ../ThirdParty/STM32F4xx_HAL_Driver/Src/stm32f4xx_hal_adc_ex.c:618:3
	strb.w	r0, [sp, #23]
	b	.LBB6_25
.Ltmp138:
.LBB6_3:
	.loc	7 618 3                         @ ../ThirdParty/STM32F4xx_HAL_Driver/Src/stm32f4xx_hal_adc_ex.c:618:3
	ldr	r1, [sp, #16]
	movs	r0, #1
	strb.w	r0, [r1, #60]
	b	.LBB6_4
.Ltmp139:
.LBB6_4:
	.loc	7 618 3                         @ ../ThirdParty/STM32F4xx_HAL_Driver/Src/stm32f4xx_hal_adc_ex.c:618:3
	b	.LBB6_5
.Ltmp140:
.LBB6_5:
	.loc	7 622 7 is_stmt 1               @ ../ThirdParty/STM32F4xx_HAL_Driver/Src/stm32f4xx_hal_adc_ex.c:622:7
	ldr	r0, [sp, #16]
	.loc	7 622 13 is_stmt 0              @ ../ThirdParty/STM32F4xx_HAL_Driver/Src/stm32f4xx_hal_adc_ex.c:622:13
	ldr	r0, [r0]
	.loc	7 622 23                        @ ../ThirdParty/STM32F4xx_HAL_Driver/Src/stm32f4xx_hal_adc_ex.c:622:23
	ldr	r0, [r0, #8]
.Ltmp141:
	.loc	7 622 6                         @ ../ThirdParty/STM32F4xx_HAL_Driver/Src/stm32f4xx_hal_adc_ex.c:622:6
	lsls	r0, r0, #31
	cbnz	r0, .LBB6_10
	b	.LBB6_6
.LBB6_6:
.Ltmp142:
	.loc	7 625 5 is_stmt 1               @ ../ThirdParty/STM32F4xx_HAL_Driver/Src/stm32f4xx_hal_adc_ex.c:625:5
	ldr	r0, [sp, #16]
	ldr	r1, [r0]
	ldr	r0, [r1, #8]
	orr	r0, r0, #1
	str	r0, [r1, #8]
	.loc	7 629 37                        @ ../ThirdParty/STM32F4xx_HAL_Driver/Src/stm32f4xx_hal_adc_ex.c:629:37
	movw	r0, :lower16:SystemCoreClock
	movt	r0, :upper16:SystemCoreClock
	ldr	r0, [r0]
	movw	r1, #56963
	movt	r1, #17179
	.loc	7 629 53 is_stmt 0              @ ../ThirdParty/STM32F4xx_HAL_Driver/Src/stm32f4xx_hal_adc_ex.c:629:53
	umull	r1, r0, r0, r1
	lsrs	r0, r0, #18
	.loc	7 629 34                        @ ../ThirdParty/STM32F4xx_HAL_Driver/Src/stm32f4xx_hal_adc_ex.c:629:34
	add.w	r0, r0, r0, lsl #1
	.loc	7 629 13                        @ ../ThirdParty/STM32F4xx_HAL_Driver/Src/stm32f4xx_hal_adc_ex.c:629:13
	str	r0, [sp, #4]
	.loc	7 630 5 is_stmt 1               @ ../ThirdParty/STM32F4xx_HAL_Driver/Src/stm32f4xx_hal_adc_ex.c:630:5
	b	.LBB6_7
.LBB6_7:                                @ =>This Inner Loop Header: Depth=1
	.loc	7 630 11 is_stmt 0              @ ../ThirdParty/STM32F4xx_HAL_Driver/Src/stm32f4xx_hal_adc_ex.c:630:11
	ldr	r0, [sp, #4]
	.loc	7 630 5                         @ ../ThirdParty/STM32F4xx_HAL_Driver/Src/stm32f4xx_hal_adc_ex.c:630:5
	cbz	r0, .LBB6_9
	b	.LBB6_8
.LBB6_8:                                @   in Loop: Header=BB6_7 Depth=1
.Ltmp143:
	.loc	7 632 14 is_stmt 1              @ ../ThirdParty/STM32F4xx_HAL_Driver/Src/stm32f4xx_hal_adc_ex.c:632:14
	ldr	r0, [sp, #4]
	subs	r0, #1
	str	r0, [sp, #4]
.Ltmp144:
	.loc	7 630 5                         @ ../ThirdParty/STM32F4xx_HAL_Driver/Src/stm32f4xx_hal_adc_ex.c:630:5
	b	.LBB6_7
.LBB6_9:
	.loc	7 634 3                         @ ../ThirdParty/STM32F4xx_HAL_Driver/Src/stm32f4xx_hal_adc_ex.c:634:3
	b	.LBB6_10
.Ltmp145:
.LBB6_10:
	.loc	7 637 6                         @ ../ThirdParty/STM32F4xx_HAL_Driver/Src/stm32f4xx_hal_adc_ex.c:637:6
	ldr	r0, [sp, #16]
	ldr	r0, [r0]
	ldr	r0, [r0, #8]
.Ltmp146:
	.loc	7 637 6 is_stmt 0               @ ../ThirdParty/STM32F4xx_HAL_Driver/Src/stm32f4xx_hal_adc_ex.c:637:6
	lsls	r0, r0, #31
	cmp	r0, #0
	beq	.LBB6_24
	b	.LBB6_11
.LBB6_11:
.Ltmp147:
	.loc	7 642 5 is_stmt 1               @ ../ThirdParty/STM32F4xx_HAL_Driver/Src/stm32f4xx_hal_adc_ex.c:642:5
	ldr	r0, [sp, #16]
	ldr	r0, [r0, #64]
	orr	r0, r0, #256
	movw	r1, #1537
	bics	r0, r1
	ldr	r1, [sp, #16]
	str	r0, [r1, #64]
.Ltmp148:
	.loc	7 648 9                         @ ../ThirdParty/STM32F4xx_HAL_Driver/Src/stm32f4xx_hal_adc_ex.c:648:9
	ldr	r0, [sp, #16]
	ldr	r0, [r0]
	ldr	r0, [r0, #4]
.Ltmp149:
	.loc	7 648 9 is_stmt 0               @ ../ThirdParty/STM32F4xx_HAL_Driver/Src/stm32f4xx_hal_adc_ex.c:648:9
	lsls	r0, r0, #21
	cmp	r0, #0
	bpl	.LBB6_13
	b	.LBB6_12
.LBB6_12:
.Ltmp150:
	.loc	7 650 7 is_stmt 1               @ ../ThirdParty/STM32F4xx_HAL_Driver/Src/stm32f4xx_hal_adc_ex.c:650:7
	ldr	r0, [sp, #16]
	ldr	r0, [r0, #64]
	orr	r0, r0, #4096
	bic	r0, r0, #8192
	ldr	r1, [sp, #16]
	str	r0, [r1, #64]
	.loc	7 651 5                         @ ../ThirdParty/STM32F4xx_HAL_Driver/Src/stm32f4xx_hal_adc_ex.c:651:5
	b	.LBB6_13
.Ltmp151:
.LBB6_13:
	.loc	7 654 9                         @ ../ThirdParty/STM32F4xx_HAL_Driver/Src/stm32f4xx_hal_adc_ex.c:654:9
	ldr	r0, [sp, #16]
	ldr	r0, [r0, #64]
.Ltmp152:
	.loc	7 654 9 is_stmt 0               @ ../ThirdParty/STM32F4xx_HAL_Driver/Src/stm32f4xx_hal_adc_ex.c:654:9
	lsls	r0, r0, #19
	cmp	r0, #0
	bpl	.LBB6_15
	b	.LBB6_14
.LBB6_14:
.Ltmp153:
	.loc	7 657 7 is_stmt 1               @ ../ThirdParty/STM32F4xx_HAL_Driver/Src/stm32f4xx_hal_adc_ex.c:657:7
	ldr	r1, [sp, #16]
	ldr	r0, [r1, #68]
	bic	r0, r0, #6
	str	r0, [r1, #68]
	.loc	7 658 5                         @ ../ThirdParty/STM32F4xx_HAL_Driver/Src/stm32f4xx_hal_adc_ex.c:658:5
	b	.LBB6_16
.Ltmp154:
.LBB6_15:
	.loc	7 662 7                         @ ../ThirdParty/STM32F4xx_HAL_Driver/Src/stm32f4xx_hal_adc_ex.c:662:7
	ldr	r1, [sp, #16]
	movs	r0, #0
	str	r0, [r1, #68]
	b	.LBB6_16
.Ltmp155:
.LBB6_16:
	.loc	7 668 5                         @ ../ThirdParty/STM32F4xx_HAL_Driver/Src/stm32f4xx_hal_adc_ex.c:668:5
	b	.LBB6_17
.LBB6_17:
.Ltmp156:
	.loc	7 668 5 is_stmt 0               @ ../ThirdParty/STM32F4xx_HAL_Driver/Src/stm32f4xx_hal_adc_ex.c:668:5
	ldr	r1, [sp, #16]
	movs	r0, #0
	strb.w	r0, [r1, #60]
	b	.LBB6_18
.Ltmp157:
.LBB6_18:
	.loc	7 671 5 is_stmt 1               @ ../ThirdParty/STM32F4xx_HAL_Driver/Src/stm32f4xx_hal_adc_ex.c:671:5
	ldr	r0, [sp, #16]
	.loc	7 671 11 is_stmt 0              @ ../ThirdParty/STM32F4xx_HAL_Driver/Src/stm32f4xx_hal_adc_ex.c:671:11
	ldr	r1, [r0, #56]
	.loc	7 671 40                        @ ../ThirdParty/STM32F4xx_HAL_Driver/Src/stm32f4xx_hal_adc_ex.c:671:40
	movw	r0, :lower16:ADC_MultiModeDMAConvCplt
	movt	r0, :upper16:ADC_MultiModeDMAConvCplt
	str	r0, [r1, #60]
	.loc	7 674 5 is_stmt 1               @ ../ThirdParty/STM32F4xx_HAL_Driver/Src/stm32f4xx_hal_adc_ex.c:674:5
	ldr	r0, [sp, #16]
	.loc	7 674 11 is_stmt 0              @ ../ThirdParty/STM32F4xx_HAL_Driver/Src/stm32f4xx_hal_adc_ex.c:674:11
	ldr	r1, [r0, #56]
	.loc	7 674 44                        @ ../ThirdParty/STM32F4xx_HAL_Driver/Src/stm32f4xx_hal_adc_ex.c:674:44
	movw	r0, :lower16:ADC_MultiModeDMAHalfConvCplt
	movt	r0, :upper16:ADC_MultiModeDMAHalfConvCplt
	str	r0, [r1, #64]
	.loc	7 677 5 is_stmt 1               @ ../ThirdParty/STM32F4xx_HAL_Driver/Src/stm32f4xx_hal_adc_ex.c:677:5
	ldr	r0, [sp, #16]
	.loc	7 677 11 is_stmt 0              @ ../ThirdParty/STM32F4xx_HAL_Driver/Src/stm32f4xx_hal_adc_ex.c:677:11
	ldr	r1, [r0, #56]
	.loc	7 677 41                        @ ../ThirdParty/STM32F4xx_HAL_Driver/Src/stm32f4xx_hal_adc_ex.c:677:41
	movw	r0, :lower16:ADC_MultiModeDMAError
	movt	r0, :upper16:ADC_MultiModeDMAError
	str	r0, [r1, #76]
	.loc	7 684 5 is_stmt 1               @ ../ThirdParty/STM32F4xx_HAL_Driver/Src/stm32f4xx_hal_adc_ex.c:684:5
	ldr	r0, [sp, #16]
	ldr	r1, [r0]
	mvn	r0, #2
	str	r0, [r1]
	.loc	7 687 5                         @ ../ThirdParty/STM32F4xx_HAL_Driver/Src/stm32f4xx_hal_adc_ex.c:687:5
	ldr	r0, [sp, #16]
	ldr	r1, [r0]
	ldr	r0, [r1, #4]
	orr	r0, r0, #67108864
	str	r0, [r1, #4]
	movw	r0, #8960
	movt	r0, #16385
	.loc	7 692 19                        @ ../ThirdParty/STM32F4xx_HAL_Driver/Src/stm32f4xx_hal_adc_ex.c:692:19
	str	r0, [sp]
.Ltmp158:
	.loc	7 694 9                         @ ../ThirdParty/STM32F4xx_HAL_Driver/Src/stm32f4xx_hal_adc_ex.c:694:9
	ldr	r0, [sp, #16]
	.loc	7 694 20 is_stmt 0              @ ../ThirdParty/STM32F4xx_HAL_Driver/Src/stm32f4xx_hal_adc_ex.c:694:20
	ldr	r0, [r0, #48]
.Ltmp159:
	.loc	7 694 9                         @ ../ThirdParty/STM32F4xx_HAL_Driver/Src/stm32f4xx_hal_adc_ex.c:694:9
	cbz	r0, .LBB6_20
	b	.LBB6_19
.LBB6_19:
.Ltmp160:
	.loc	7 697 7 is_stmt 1               @ ../ThirdParty/STM32F4xx_HAL_Driver/Src/stm32f4xx_hal_adc_ex.c:697:7
	ldr	r1, [sp]
	.loc	7 697 26 is_stmt 0              @ ../ThirdParty/STM32F4xx_HAL_Driver/Src/stm32f4xx_hal_adc_ex.c:697:26
	ldr	r0, [r1, #4]
	orr	r0, r0, #8192
	str	r0, [r1, #4]
	.loc	7 698 5 is_stmt 1               @ ../ThirdParty/STM32F4xx_HAL_Driver/Src/stm32f4xx_hal_adc_ex.c:698:5
	b	.LBB6_21
.Ltmp161:
.LBB6_20:
	.loc	7 702 7                         @ ../ThirdParty/STM32F4xx_HAL_Driver/Src/stm32f4xx_hal_adc_ex.c:702:7
	ldr	r1, [sp]
	.loc	7 702 26 is_stmt 0              @ ../ThirdParty/STM32F4xx_HAL_Driver/Src/stm32f4xx_hal_adc_ex.c:702:26
	ldr	r0, [r1, #4]
	bic	r0, r0, #8192
	str	r0, [r1, #4]
	b	.LBB6_21
.Ltmp162:
.LBB6_21:
	.loc	7 706 22 is_stmt 1              @ ../ThirdParty/STM32F4xx_HAL_Driver/Src/stm32f4xx_hal_adc_ex.c:706:22
	ldr	r0, [sp, #16]
	.loc	7 706 28 is_stmt 0              @ ../ThirdParty/STM32F4xx_HAL_Driver/Src/stm32f4xx_hal_adc_ex.c:706:28
	ldr	r0, [r0, #56]
	.loc	7 706 51                        @ ../ThirdParty/STM32F4xx_HAL_Driver/Src/stm32f4xx_hal_adc_ex.c:706:51
	ldr	r1, [sp]
	.loc	7 706 66                        @ ../ThirdParty/STM32F4xx_HAL_Driver/Src/stm32f4xx_hal_adc_ex.c:706:66
	adds	r1, #8
	.loc	7 706 81                        @ ../ThirdParty/STM32F4xx_HAL_Driver/Src/stm32f4xx_hal_adc_ex.c:706:81
	ldr	r2, [sp, #12]
	.loc	7 706 88                        @ ../ThirdParty/STM32F4xx_HAL_Driver/Src/stm32f4xx_hal_adc_ex.c:706:88
	ldr	r3, [sp, #8]
	.loc	7 706 5                         @ ../ThirdParty/STM32F4xx_HAL_Driver/Src/stm32f4xx_hal_adc_ex.c:706:5
	bl	HAL_DMA_Start_IT
.Ltmp163:
	.loc	7 709 9 is_stmt 1               @ ../ThirdParty/STM32F4xx_HAL_Driver/Src/stm32f4xx_hal_adc_ex.c:709:9
	ldr	r0, [sp, #16]
	.loc	7 709 15 is_stmt 0              @ ../ThirdParty/STM32F4xx_HAL_Driver/Src/stm32f4xx_hal_adc_ex.c:709:15
	ldr	r0, [r0]
	.loc	7 709 25                        @ ../ThirdParty/STM32F4xx_HAL_Driver/Src/stm32f4xx_hal_adc_ex.c:709:25
	ldr	r0, [r0, #8]
.Ltmp164:
	.loc	7 709 8                         @ ../ThirdParty/STM32F4xx_HAL_Driver/Src/stm32f4xx_hal_adc_ex.c:709:8
	tst.w	r0, #805306368
	bne	.LBB6_23
	b	.LBB6_22
.LBB6_22:
.Ltmp165:
	.loc	7 712 7 is_stmt 1               @ ../ThirdParty/STM32F4xx_HAL_Driver/Src/stm32f4xx_hal_adc_ex.c:712:7
	ldr	r0, [sp, #16]
	.loc	7 712 13 is_stmt 0              @ ../ThirdParty/STM32F4xx_HAL_Driver/Src/stm32f4xx_hal_adc_ex.c:712:13
	ldr	r1, [r0]
	.loc	7 712 27                        @ ../ThirdParty/STM32F4xx_HAL_Driver/Src/stm32f4xx_hal_adc_ex.c:712:27
	ldr	r0, [r1, #8]
	orr	r0, r0, #1073741824
	str	r0, [r1, #8]
	.loc	7 713 5 is_stmt 1               @ ../ThirdParty/STM32F4xx_HAL_Driver/Src/stm32f4xx_hal_adc_ex.c:713:5
	b	.LBB6_23
.Ltmp166:
.LBB6_23:
	.loc	7 714 3                         @ ../ThirdParty/STM32F4xx_HAL_Driver/Src/stm32f4xx_hal_adc_ex.c:714:3
	b	.LBB6_24
.Ltmp167:
.LBB6_24:
	.loc	7 0 3 is_stmt 0                 @ ../ThirdParty/STM32F4xx_HAL_Driver/Src/stm32f4xx_hal_adc_ex.c:0:3
	movs	r0, #0
	.loc	7 717 3 is_stmt 1               @ ../ThirdParty/STM32F4xx_HAL_Driver/Src/stm32f4xx_hal_adc_ex.c:717:3
	strb.w	r0, [sp, #23]
	b	.LBB6_25
.LBB6_25:
	.loc	7 718 1                         @ ../ThirdParty/STM32F4xx_HAL_Driver/Src/stm32f4xx_hal_adc_ex.c:718:1
	ldrb.w	r0, [sp, #23]
	.loc	7 718 1 epilogue_begin is_stmt 0 @ ../ThirdParty/STM32F4xx_HAL_Driver/Src/stm32f4xx_hal_adc_ex.c:718:1
	add	sp, #24
	pop	{r7, pc}
.Ltmp168:
.Lfunc_end6:
	.size	HAL_ADCEx_MultiModeStart_DMA, .Lfunc_end6-HAL_ADCEx_MultiModeStart_DMA
	.cfi_endproc
	.cantunwind
	.fnend
                                        @ -- End function
	.section	.text.ADC_MultiModeDMAConvCplt,"ax",%progbits
	.p2align	2                               @ -- Begin function ADC_MultiModeDMAConvCplt
	.type	ADC_MultiModeDMAConvCplt,%function
	.code	16                              @ @ADC_MultiModeDMAConvCplt
	.thumb_func
ADC_MultiModeDMAConvCplt:
.Lfunc_begin7:
	.loc	7 1027 0 is_stmt 1              @ ../ThirdParty/STM32F4xx_HAL_Driver/Src/stm32f4xx_hal_adc_ex.c:1027:0
	.fnstart
	.cfi_startproc
@ %bb.0:
	.save	{r7, lr}
	push	{r7, lr}
	.cfi_def_cfa_offset 8
	.cfi_offset lr, -4
	.cfi_offset r7, -8
	.pad	#8
	sub	sp, #8
	.cfi_def_cfa_offset 16
	str	r0, [sp, #4]
.Ltmp169:
	.loc	7 1029 73 prologue_end          @ ../ThirdParty/STM32F4xx_HAL_Driver/Src/stm32f4xx_hal_adc_ex.c:1029:73
	ldr	r0, [sp, #4]
	.loc	7 1029 80 is_stmt 0             @ ../ThirdParty/STM32F4xx_HAL_Driver/Src/stm32f4xx_hal_adc_ex.c:1029:80
	ldr	r0, [r0, #56]
	.loc	7 1029 22                       @ ../ThirdParty/STM32F4xx_HAL_Driver/Src/stm32f4xx_hal_adc_ex.c:1029:22
	str	r0, [sp]
.Ltmp170:
	.loc	7 1032 7 is_stmt 1              @ ../ThirdParty/STM32F4xx_HAL_Driver/Src/stm32f4xx_hal_adc_ex.c:1032:7
	ldr	r0, [sp]
	ldr	r0, [r0, #64]
.Ltmp171:
	.loc	7 1032 7 is_stmt 0              @ ../ThirdParty/STM32F4xx_HAL_Driver/Src/stm32f4xx_hal_adc_ex.c:1032:7
	tst.w	r0, #80
	bne	.LBB7_9
	b	.LBB7_1
.LBB7_1:
.Ltmp172:
	.loc	7 1035 5 is_stmt 1              @ ../ThirdParty/STM32F4xx_HAL_Driver/Src/stm32f4xx_hal_adc_ex.c:1035:5
	ldr	r1, [sp]
	ldr	r0, [r1, #64]
	orr	r0, r0, #512
	str	r0, [r1, #64]
.Ltmp173:
	.loc	7 1043 8                        @ ../ThirdParty/STM32F4xx_HAL_Driver/Src/stm32f4xx_hal_adc_ex.c:1043:8
	ldr	r0, [sp]
	ldr	r0, [r0]
	ldr	r0, [r0, #8]
	.loc	7 1043 62 is_stmt 0             @ ../ThirdParty/STM32F4xx_HAL_Driver/Src/stm32f4xx_hal_adc_ex.c:1043:62
	tst.w	r0, #805306368
	bne	.LBB7_8
	b	.LBB7_2
.LBB7_2:
	.loc	7 1044 9 is_stmt 1              @ ../ThirdParty/STM32F4xx_HAL_Driver/Src/stm32f4xx_hal_adc_ex.c:1044:9
	ldr	r0, [sp]
	.loc	7 1044 20 is_stmt 0             @ ../ThirdParty/STM32F4xx_HAL_Driver/Src/stm32f4xx_hal_adc_ex.c:1044:20
	ldr	r0, [r0, #24]
	.loc	7 1044 62                       @ ../ThirdParty/STM32F4xx_HAL_Driver/Src/stm32f4xx_hal_adc_ex.c:1044:62
	cbnz	r0, .LBB7_8
	b	.LBB7_3
.LBB7_3:
	.loc	7 1045 9 is_stmt 1              @ ../ThirdParty/STM32F4xx_HAL_Driver/Src/stm32f4xx_hal_adc_ex.c:1045:9
	ldr	r0, [sp]
	ldr	r0, [r0]
	ldr	r0, [r0, #44]
	.loc	7 1045 58 is_stmt 0             @ ../ThirdParty/STM32F4xx_HAL_Driver/Src/stm32f4xx_hal_adc_ex.c:1045:58
	tst.w	r0, #15728640
	beq	.LBB7_5
	b	.LBB7_4
.LBB7_4:
	.loc	7 1046 9 is_stmt 1              @ ../ThirdParty/STM32F4xx_HAL_Driver/Src/stm32f4xx_hal_adc_ex.c:1046:9
	ldr	r0, [sp]
	ldr	r0, [r0]
	ldr	r0, [r0, #8]
.Ltmp174:
	.loc	7 1043 8                        @ ../ThirdParty/STM32F4xx_HAL_Driver/Src/stm32f4xx_hal_adc_ex.c:1043:8
	lsls	r0, r0, #21
	cmp	r0, #0
	bmi	.LBB7_8
	b	.LBB7_5
.LBB7_5:
.Ltmp175:
	.loc	7 1052 7                        @ ../ThirdParty/STM32F4xx_HAL_Driver/Src/stm32f4xx_hal_adc_ex.c:1052:7
	ldr	r0, [sp]
	ldr	r1, [r0]
	ldr	r0, [r1, #4]
	bic	r0, r0, #32
	str	r0, [r1, #4]
	.loc	7 1055 7                        @ ../ThirdParty/STM32F4xx_HAL_Driver/Src/stm32f4xx_hal_adc_ex.c:1055:7
	ldr	r1, [sp]
	ldr	r0, [r1, #64]
	bic	r0, r0, #256
	str	r0, [r1, #64]
.Ltmp176:
	.loc	7 1057 11                       @ ../ThirdParty/STM32F4xx_HAL_Driver/Src/stm32f4xx_hal_adc_ex.c:1057:11
	ldr	r0, [sp]
	ldr	r0, [r0, #64]
.Ltmp177:
	.loc	7 1057 11 is_stmt 0             @ ../ThirdParty/STM32F4xx_HAL_Driver/Src/stm32f4xx_hal_adc_ex.c:1057:11
	lsls	r0, r0, #19
	cmp	r0, #0
	bmi	.LBB7_7
	b	.LBB7_6
.LBB7_6:
.Ltmp178:
	.loc	7 1059 9 is_stmt 1              @ ../ThirdParty/STM32F4xx_HAL_Driver/Src/stm32f4xx_hal_adc_ex.c:1059:9
	ldr	r1, [sp]
	ldr	r0, [r1, #64]
	orr	r0, r0, #1
	str	r0, [r1, #64]
	.loc	7 1060 7                        @ ../ThirdParty/STM32F4xx_HAL_Driver/Src/stm32f4xx_hal_adc_ex.c:1060:7
	b	.LBB7_7
.Ltmp179:
.LBB7_7:
	.loc	7 1061 5                        @ ../ThirdParty/STM32F4xx_HAL_Driver/Src/stm32f4xx_hal_adc_ex.c:1061:5
	b	.LBB7_8
.Ltmp180:
.LBB7_8:
	.loc	7 1064 30                       @ ../ThirdParty/STM32F4xx_HAL_Driver/Src/stm32f4xx_hal_adc_ex.c:1064:30
	ldr	r0, [sp]
	.loc	7 1064 5 is_stmt 0              @ ../ThirdParty/STM32F4xx_HAL_Driver/Src/stm32f4xx_hal_adc_ex.c:1064:5
	bl	HAL_ADC_ConvCpltCallback
	.loc	7 1065 3 is_stmt 1              @ ../ThirdParty/STM32F4xx_HAL_Driver/Src/stm32f4xx_hal_adc_ex.c:1065:3
	b	.LBB7_10
.Ltmp181:
.LBB7_9:
	.loc	7 1069 5                        @ ../ThirdParty/STM32F4xx_HAL_Driver/Src/stm32f4xx_hal_adc_ex.c:1069:5
	ldr	r0, [sp]
	.loc	7 1069 11 is_stmt 0             @ ../ThirdParty/STM32F4xx_HAL_Driver/Src/stm32f4xx_hal_adc_ex.c:1069:11
	ldr	r0, [r0, #56]
	.loc	7 1069 23                       @ ../ThirdParty/STM32F4xx_HAL_Driver/Src/stm32f4xx_hal_adc_ex.c:1069:23
	ldr	r1, [r0, #76]
	.loc	7 1069 41                       @ ../ThirdParty/STM32F4xx_HAL_Driver/Src/stm32f4xx_hal_adc_ex.c:1069:41
	ldr	r0, [sp, #4]
	.loc	7 1069 5                        @ ../ThirdParty/STM32F4xx_HAL_Driver/Src/stm32f4xx_hal_adc_ex.c:1069:5
	blx	r1
	b	.LBB7_10
.Ltmp182:
.LBB7_10:
	.loc	7 1071 1 epilogue_begin is_stmt 1 @ ../ThirdParty/STM32F4xx_HAL_Driver/Src/stm32f4xx_hal_adc_ex.c:1071:1
	add	sp, #8
	pop	{r7, pc}
.Ltmp183:
.Lfunc_end7:
	.size	ADC_MultiModeDMAConvCplt, .Lfunc_end7-ADC_MultiModeDMAConvCplt
	.cfi_endproc
	.cantunwind
	.fnend
                                        @ -- End function
	.section	.text.ADC_MultiModeDMAHalfConvCplt,"ax",%progbits
	.p2align	2                               @ -- Begin function ADC_MultiModeDMAHalfConvCplt
	.type	ADC_MultiModeDMAHalfConvCplt,%function
	.code	16                              @ @ADC_MultiModeDMAHalfConvCplt
	.thumb_func
ADC_MultiModeDMAHalfConvCplt:
.Lfunc_begin8:
	.loc	7 1080 0                        @ ../ThirdParty/STM32F4xx_HAL_Driver/Src/stm32f4xx_hal_adc_ex.c:1080:0
	.fnstart
	.cfi_startproc
@ %bb.0:
	.save	{r7, lr}
	push	{r7, lr}
	.cfi_def_cfa_offset 8
	.cfi_offset lr, -4
	.cfi_offset r7, -8
	.pad	#8
	sub	sp, #8
	.cfi_def_cfa_offset 16
	str	r0, [sp, #4]
.Ltmp184:
	.loc	7 1081 75 prologue_end          @ ../ThirdParty/STM32F4xx_HAL_Driver/Src/stm32f4xx_hal_adc_ex.c:1081:75
	ldr	r0, [sp, #4]
	.loc	7 1081 82 is_stmt 0             @ ../ThirdParty/STM32F4xx_HAL_Driver/Src/stm32f4xx_hal_adc_ex.c:1081:82
	ldr	r0, [r0, #56]
	.loc	7 1081 24                       @ ../ThirdParty/STM32F4xx_HAL_Driver/Src/stm32f4xx_hal_adc_ex.c:1081:24
	str	r0, [sp]
	.loc	7 1083 34 is_stmt 1             @ ../ThirdParty/STM32F4xx_HAL_Driver/Src/stm32f4xx_hal_adc_ex.c:1083:34
	ldr	r0, [sp]
	.loc	7 1083 5 is_stmt 0              @ ../ThirdParty/STM32F4xx_HAL_Driver/Src/stm32f4xx_hal_adc_ex.c:1083:5
	bl	HAL_ADC_ConvHalfCpltCallback
	.loc	7 1084 1 epilogue_begin is_stmt 1 @ ../ThirdParty/STM32F4xx_HAL_Driver/Src/stm32f4xx_hal_adc_ex.c:1084:1
	add	sp, #8
	pop	{r7, pc}
.Ltmp185:
.Lfunc_end8:
	.size	ADC_MultiModeDMAHalfConvCplt, .Lfunc_end8-ADC_MultiModeDMAHalfConvCplt
	.cfi_endproc
	.cantunwind
	.fnend
                                        @ -- End function
	.section	.text.ADC_MultiModeDMAError,"ax",%progbits
	.p2align	2                               @ -- Begin function ADC_MultiModeDMAError
	.type	ADC_MultiModeDMAError,%function
	.code	16                              @ @ADC_MultiModeDMAError
	.thumb_func
ADC_MultiModeDMAError:
.Lfunc_begin9:
	.loc	7 1093 0                        @ ../ThirdParty/STM32F4xx_HAL_Driver/Src/stm32f4xx_hal_adc_ex.c:1093:0
	.fnstart
	.cfi_startproc
@ %bb.0:
	.save	{r7, lr}
	push	{r7, lr}
	.cfi_def_cfa_offset 8
	.cfi_offset lr, -4
	.cfi_offset r7, -8
	.pad	#8
	sub	sp, #8
	.cfi_def_cfa_offset 16
	str	r0, [sp, #4]
.Ltmp186:
	.loc	7 1094 75 prologue_end          @ ../ThirdParty/STM32F4xx_HAL_Driver/Src/stm32f4xx_hal_adc_ex.c:1094:75
	ldr	r0, [sp, #4]
	.loc	7 1094 82 is_stmt 0             @ ../ThirdParty/STM32F4xx_HAL_Driver/Src/stm32f4xx_hal_adc_ex.c:1094:82
	ldr	r0, [r0, #56]
	.loc	7 1094 24                       @ ../ThirdParty/STM32F4xx_HAL_Driver/Src/stm32f4xx_hal_adc_ex.c:1094:24
	str	r0, [sp]
	.loc	7 1095 5 is_stmt 1              @ ../ThirdParty/STM32F4xx_HAL_Driver/Src/stm32f4xx_hal_adc_ex.c:1095:5
	ldr	r1, [sp]
	movs	r0, #64
	.loc	7 1095 16 is_stmt 0             @ ../ThirdParty/STM32F4xx_HAL_Driver/Src/stm32f4xx_hal_adc_ex.c:1095:16
	str	r0, [r1, #64]
	.loc	7 1097 5 is_stmt 1              @ ../ThirdParty/STM32F4xx_HAL_Driver/Src/stm32f4xx_hal_adc_ex.c:1097:5
	ldr	r1, [sp]
	.loc	7 1097 21 is_stmt 0             @ ../ThirdParty/STM32F4xx_HAL_Driver/Src/stm32f4xx_hal_adc_ex.c:1097:21
	ldr	r0, [r1, #68]
	orr	r0, r0, #4
	str	r0, [r1, #68]
	.loc	7 1098 27 is_stmt 1             @ ../ThirdParty/STM32F4xx_HAL_Driver/Src/stm32f4xx_hal_adc_ex.c:1098:27
	ldr	r0, [sp]
	.loc	7 1098 5 is_stmt 0              @ ../ThirdParty/STM32F4xx_HAL_Driver/Src/stm32f4xx_hal_adc_ex.c:1098:5
	bl	HAL_ADC_ErrorCallback
	.loc	7 1099 1 epilogue_begin is_stmt 1 @ ../ThirdParty/STM32F4xx_HAL_Driver/Src/stm32f4xx_hal_adc_ex.c:1099:1
	add	sp, #8
	pop	{r7, pc}
.Ltmp187:
.Lfunc_end9:
	.size	ADC_MultiModeDMAError, .Lfunc_end9-ADC_MultiModeDMAError
	.cfi_endproc
	.cantunwind
	.fnend
                                        @ -- End function
	.section	.text.HAL_ADCEx_MultiModeStop_DMA,"ax",%progbits
	.hidden	HAL_ADCEx_MultiModeStop_DMA     @ -- Begin function HAL_ADCEx_MultiModeStop_DMA
	.globl	HAL_ADCEx_MultiModeStop_DMA
	.p2align	2
	.type	HAL_ADCEx_MultiModeStop_DMA,%function
	.code	16                              @ @HAL_ADCEx_MultiModeStop_DMA
	.thumb_func
HAL_ADCEx_MultiModeStop_DMA:
.Lfunc_begin10:
	.loc	7 727 0                         @ ../ThirdParty/STM32F4xx_HAL_Driver/Src/stm32f4xx_hal_adc_ex.c:727:0
	.fnstart
	.cfi_startproc
@ %bb.0:
	.save	{r7, lr}
	push	{r7, lr}
	.cfi_def_cfa_offset 8
	.cfi_offset lr, -4
	.cfi_offset r7, -8
	.pad	#16
	sub	sp, #16
	.cfi_def_cfa_offset 24
	str	r0, [sp, #8]
	movs	r0, #0
.Ltmp188:
	.loc	7 728 21 prologue_end           @ ../ThirdParty/STM32F4xx_HAL_Driver/Src/stm32f4xx_hal_adc_ex.c:728:21
	strb.w	r0, [sp, #7]
	.loc	7 735 3                         @ ../ThirdParty/STM32F4xx_HAL_Driver/Src/stm32f4xx_hal_adc_ex.c:735:3
	b	.LBB10_1
.LBB10_1:
.Ltmp189:
	.loc	7 735 3 is_stmt 0               @ ../ThirdParty/STM32F4xx_HAL_Driver/Src/stm32f4xx_hal_adc_ex.c:735:3
	ldr	r0, [sp, #8]
	ldrb.w	r0, [r0, #60]
.Ltmp190:
	.loc	7 735 3                         @ ../ThirdParty/STM32F4xx_HAL_Driver/Src/stm32f4xx_hal_adc_ex.c:735:3
	cmp	r0, #1
	bne	.LBB10_3
	b	.LBB10_2
.LBB10_2:
	.loc	7 0 3                           @ ../ThirdParty/STM32F4xx_HAL_Driver/Src/stm32f4xx_hal_adc_ex.c:0:3
	movs	r0, #2
.Ltmp191:
	.loc	7 735 3                         @ ../ThirdParty/STM32F4xx_HAL_Driver/Src/stm32f4xx_hal_adc_ex.c:735:3
	strb.w	r0, [sp, #15]
	b	.LBB10_10
.Ltmp192:
.LBB10_3:
	.loc	7 735 3                         @ ../ThirdParty/STM32F4xx_HAL_Driver/Src/stm32f4xx_hal_adc_ex.c:735:3
	ldr	r1, [sp, #8]
	movs	r0, #1
	strb.w	r0, [r1, #60]
	b	.LBB10_4
.Ltmp193:
.LBB10_4:
	.loc	7 735 3                         @ ../ThirdParty/STM32F4xx_HAL_Driver/Src/stm32f4xx_hal_adc_ex.c:735:3
	b	.LBB10_5
.Ltmp194:
.LBB10_5:
	.loc	7 739 3 is_stmt 1               @ ../ThirdParty/STM32F4xx_HAL_Driver/Src/stm32f4xx_hal_adc_ex.c:739:3
	ldr	r0, [sp, #8]
	ldr	r1, [r0]
	ldr	r0, [r1, #8]
	bic	r0, r0, #1
	str	r0, [r1, #8]
	movw	r0, #8960
	movt	r0, #16385
	.loc	7 744 17                        @ ../ThirdParty/STM32F4xx_HAL_Driver/Src/stm32f4xx_hal_adc_ex.c:744:17
	str	r0, [sp]
.Ltmp195:
	.loc	7 747 6                         @ ../ThirdParty/STM32F4xx_HAL_Driver/Src/stm32f4xx_hal_adc_ex.c:747:6
	ldr	r0, [sp, #8]
	ldr	r0, [r0]
	ldr	r0, [r0, #8]
.Ltmp196:
	.loc	7 747 6 is_stmt 0               @ ../ThirdParty/STM32F4xx_HAL_Driver/Src/stm32f4xx_hal_adc_ex.c:747:6
	lsls	r0, r0, #31
	cbnz	r0, .LBB10_7
	b	.LBB10_6
.LBB10_6:
.Ltmp197:
	.loc	7 750 5 is_stmt 1               @ ../ThirdParty/STM32F4xx_HAL_Driver/Src/stm32f4xx_hal_adc_ex.c:750:5
	ldr	r1, [sp]
	.loc	7 750 24 is_stmt 0              @ ../ThirdParty/STM32F4xx_HAL_Driver/Src/stm32f4xx_hal_adc_ex.c:750:24
	ldr	r0, [r1, #4]
	bic	r0, r0, #8192
	str	r0, [r1, #4]
	.loc	7 754 36 is_stmt 1              @ ../ThirdParty/STM32F4xx_HAL_Driver/Src/stm32f4xx_hal_adc_ex.c:754:36
	ldr	r0, [sp, #8]
	.loc	7 754 42 is_stmt 0              @ ../ThirdParty/STM32F4xx_HAL_Driver/Src/stm32f4xx_hal_adc_ex.c:754:42
	ldr	r0, [r0, #56]
	.loc	7 754 22                        @ ../ThirdParty/STM32F4xx_HAL_Driver/Src/stm32f4xx_hal_adc_ex.c:754:22
	bl	HAL_DMA_Abort
	.loc	7 754 20                        @ ../ThirdParty/STM32F4xx_HAL_Driver/Src/stm32f4xx_hal_adc_ex.c:754:20
	strb.w	r0, [sp, #7]
	.loc	7 757 5 is_stmt 1               @ ../ThirdParty/STM32F4xx_HAL_Driver/Src/stm32f4xx_hal_adc_ex.c:757:5
	ldr	r0, [sp, #8]
	ldr	r1, [r0]
	ldr	r0, [r1, #4]
	bic	r0, r0, #67108864
	str	r0, [r1, #4]
	.loc	7 760 5                         @ ../ThirdParty/STM32F4xx_HAL_Driver/Src/stm32f4xx_hal_adc_ex.c:760:5
	ldr	r0, [sp, #8]
	ldr	r0, [r0, #64]
	orr	r0, r0, #1
	bic	r0, r0, #4352
	ldr	r1, [sp, #8]
	str	r0, [r1, #64]
	.loc	7 763 3                         @ ../ThirdParty/STM32F4xx_HAL_Driver/Src/stm32f4xx_hal_adc_ex.c:763:3
	b	.LBB10_7
.Ltmp198:
.LBB10_7:
	.loc	7 766 3                         @ ../ThirdParty/STM32F4xx_HAL_Driver/Src/stm32f4xx_hal_adc_ex.c:766:3
	b	.LBB10_8
.LBB10_8:
.Ltmp199:
	.loc	7 766 3 is_stmt 0               @ ../ThirdParty/STM32F4xx_HAL_Driver/Src/stm32f4xx_hal_adc_ex.c:766:3
	ldr	r1, [sp, #8]
	movs	r0, #0
	strb.w	r0, [r1, #60]
	b	.LBB10_9
.Ltmp200:
.LBB10_9:
	.loc	7 769 10 is_stmt 1              @ ../ThirdParty/STM32F4xx_HAL_Driver/Src/stm32f4xx_hal_adc_ex.c:769:10
	ldrb.w	r0, [sp, #7]
	.loc	7 769 3 is_stmt 0               @ ../ThirdParty/STM32F4xx_HAL_Driver/Src/stm32f4xx_hal_adc_ex.c:769:3
	strb.w	r0, [sp, #15]
	b	.LBB10_10
.LBB10_10:
	.loc	7 770 1 is_stmt 1               @ ../ThirdParty/STM32F4xx_HAL_Driver/Src/stm32f4xx_hal_adc_ex.c:770:1
	ldrb.w	r0, [sp, #15]
	.loc	7 770 1 epilogue_begin is_stmt 0 @ ../ThirdParty/STM32F4xx_HAL_Driver/Src/stm32f4xx_hal_adc_ex.c:770:1
	add	sp, #16
	pop	{r7, pc}
.Ltmp201:
.Lfunc_end10:
	.size	HAL_ADCEx_MultiModeStop_DMA, .Lfunc_end10-HAL_ADCEx_MultiModeStop_DMA
	.cfi_endproc
	.cantunwind
	.fnend
                                        @ -- End function
	.section	.text.HAL_ADCEx_MultiModeGetValue,"ax",%progbits
	.hidden	HAL_ADCEx_MultiModeGetValue     @ -- Begin function HAL_ADCEx_MultiModeGetValue
	.globl	HAL_ADCEx_MultiModeGetValue
	.p2align	2
	.type	HAL_ADCEx_MultiModeGetValue,%function
	.code	16                              @ @HAL_ADCEx_MultiModeGetValue
	.thumb_func
HAL_ADCEx_MultiModeGetValue:
.Lfunc_begin11:
	.loc	7 780 0 is_stmt 1               @ ../ThirdParty/STM32F4xx_HAL_Driver/Src/stm32f4xx_hal_adc_ex.c:780:0
	.fnstart
	.cfi_startproc
@ %bb.0:
	.pad	#8
	sub	sp, #8
	.cfi_def_cfa_offset 8
	str	r0, [sp, #4]
	movw	r0, #8960
	movt	r0, #16385
.Ltmp202:
	.loc	7 786 17 prologue_end           @ ../ThirdParty/STM32F4xx_HAL_Driver/Src/stm32f4xx_hal_adc_ex.c:786:17
	str	r0, [sp]
	.loc	7 789 10                        @ ../ThirdParty/STM32F4xx_HAL_Driver/Src/stm32f4xx_hal_adc_ex.c:789:10
	ldr	r0, [sp]
	.loc	7 789 25 is_stmt 0              @ ../ThirdParty/STM32F4xx_HAL_Driver/Src/stm32f4xx_hal_adc_ex.c:789:25
	ldr	r0, [r0, #8]
	.loc	7 789 3 epilogue_begin          @ ../ThirdParty/STM32F4xx_HAL_Driver/Src/stm32f4xx_hal_adc_ex.c:789:3
	add	sp, #8
	bx	lr
.Ltmp203:
.Lfunc_end11:
	.size	HAL_ADCEx_MultiModeGetValue, .Lfunc_end11-HAL_ADCEx_MultiModeGetValue
	.cfi_endproc
	.cantunwind
	.fnend
                                        @ -- End function
	.section	.text.HAL_ADCEx_InjectedConvCpltCallback,"ax",%progbits
	.hidden	HAL_ADCEx_InjectedConvCpltCallback @ -- Begin function HAL_ADCEx_InjectedConvCpltCallback
	.weak	HAL_ADCEx_InjectedConvCpltCallback
	.p2align	2
	.type	HAL_ADCEx_InjectedConvCpltCallback,%function
	.code	16                              @ @HAL_ADCEx_InjectedConvCpltCallback
	.thumb_func
HAL_ADCEx_InjectedConvCpltCallback:
.Lfunc_begin12:
	.loc	7 799 0 is_stmt 1               @ ../ThirdParty/STM32F4xx_HAL_Driver/Src/stm32f4xx_hal_adc_ex.c:799:0
	.fnstart
	.cfi_startproc
@ %bb.0:
	.pad	#4
	sub	sp, #4
	.cfi_def_cfa_offset 4
	str	r0, [sp]
.Ltmp204:
	.loc	7 805 1 prologue_end epilogue_begin @ ../ThirdParty/STM32F4xx_HAL_Driver/Src/stm32f4xx_hal_adc_ex.c:805:1
	add	sp, #4
	bx	lr
.Ltmp205:
.Lfunc_end12:
	.size	HAL_ADCEx_InjectedConvCpltCallback, .Lfunc_end12-HAL_ADCEx_InjectedConvCpltCallback
	.cfi_endproc
	.cantunwind
	.fnend
                                        @ -- End function
	.section	.text.HAL_ADCEx_InjectedConfigChannel,"ax",%progbits
	.hidden	HAL_ADCEx_InjectedConfigChannel @ -- Begin function HAL_ADCEx_InjectedConfigChannel
	.globl	HAL_ADCEx_InjectedConfigChannel
	.p2align	2
	.type	HAL_ADCEx_InjectedConfigChannel,%function
	.code	16                              @ @HAL_ADCEx_InjectedConfigChannel
	.thumb_func
HAL_ADCEx_InjectedConfigChannel:
.Lfunc_begin13:
	.loc	7 816 0                         @ ../ThirdParty/STM32F4xx_HAL_Driver/Src/stm32f4xx_hal_adc_ex.c:816:0
	.fnstart
	.cfi_startproc
@ %bb.0:
	.pad	#20
	sub	sp, #20
	.cfi_def_cfa_offset 20
	str	r0, [sp, #12]
	str	r1, [sp, #8]
.Ltmp206:
	.loc	7 839 6 prologue_end            @ ../ThirdParty/STM32F4xx_HAL_Driver/Src/stm32f4xx_hal_adc_ex.c:839:6
	ldr	r0, [sp, #8]
	.loc	7 839 23 is_stmt 0              @ ../ThirdParty/STM32F4xx_HAL_Driver/Src/stm32f4xx_hal_adc_ex.c:839:23
	ldr	r0, [r0, #28]
	movs	r1, #1
	movt	r1, #15
.Ltmp207:
	.loc	7 839 6                         @ ../ThirdParty/STM32F4xx_HAL_Driver/Src/stm32f4xx_hal_adc_ex.c:839:6
	cmp	r0, r1
	beq	.LBB13_2
	b	.LBB13_1
.LBB13_1:
.Ltmp208:
	.loc	7 842 3 is_stmt 1               @ ../ThirdParty/STM32F4xx_HAL_Driver/Src/stm32f4xx_hal_adc_ex.c:842:3
	b	.LBB13_2
.Ltmp209:
.LBB13_2:
	.loc	7 845 3                         @ ../ThirdParty/STM32F4xx_HAL_Driver/Src/stm32f4xx_hal_adc_ex.c:845:3
	b	.LBB13_3
.LBB13_3:
.Ltmp210:
	.loc	7 845 3 is_stmt 0               @ ../ThirdParty/STM32F4xx_HAL_Driver/Src/stm32f4xx_hal_adc_ex.c:845:3
	ldr	r0, [sp, #12]
	ldrb.w	r0, [r0, #60]
.Ltmp211:
	.loc	7 845 3                         @ ../ThirdParty/STM32F4xx_HAL_Driver/Src/stm32f4xx_hal_adc_ex.c:845:3
	cmp	r0, #1
	bne	.LBB13_5
	b	.LBB13_4
.LBB13_4:
	.loc	7 0 3                           @ ../ThirdParty/STM32F4xx_HAL_Driver/Src/stm32f4xx_hal_adc_ex.c:0:3
	movs	r0, #2
.Ltmp212:
	.loc	7 845 3                         @ ../ThirdParty/STM32F4xx_HAL_Driver/Src/stm32f4xx_hal_adc_ex.c:845:3
	strb.w	r0, [sp, #19]
	b	.LBB13_36
.Ltmp213:
.LBB13_5:
	.loc	7 845 3                         @ ../ThirdParty/STM32F4xx_HAL_Driver/Src/stm32f4xx_hal_adc_ex.c:845:3
	ldr	r1, [sp, #12]
	movs	r0, #1
	strb.w	r0, [r1, #60]
	b	.LBB13_6
.Ltmp214:
.LBB13_6:
	.loc	7 845 3                         @ ../ThirdParty/STM32F4xx_HAL_Driver/Src/stm32f4xx_hal_adc_ex.c:845:3
	b	.LBB13_7
.Ltmp215:
.LBB13_7:
	.loc	7 848 7 is_stmt 1               @ ../ThirdParty/STM32F4xx_HAL_Driver/Src/stm32f4xx_hal_adc_ex.c:848:7
	ldr	r0, [sp, #8]
	.loc	7 848 24 is_stmt 0              @ ../ThirdParty/STM32F4xx_HAL_Driver/Src/stm32f4xx_hal_adc_ex.c:848:24
	ldr	r0, [r0]
.Ltmp216:
	.loc	7 848 7                         @ ../ThirdParty/STM32F4xx_HAL_Driver/Src/stm32f4xx_hal_adc_ex.c:848:7
	cmp	r0, #10
	blo	.LBB13_9
	b	.LBB13_8
.LBB13_8:
.Ltmp217:
	.loc	7 851 31 is_stmt 1              @ ../ThirdParty/STM32F4xx_HAL_Driver/Src/stm32f4xx_hal_adc_ex.c:851:31
	ldr	r0, [sp, #8]
	ldrh	r0, [r0]
	add.w	r0, r0, r0, lsl #1
	sub.w	r1, r0, #30
	movs	r0, #7
	lsl.w	r2, r0, r1
	.loc	7 851 5 is_stmt 0               @ ../ThirdParty/STM32F4xx_HAL_Driver/Src/stm32f4xx_hal_adc_ex.c:851:5
	ldr	r0, [sp, #12]
	.loc	7 851 11                        @ ../ThirdParty/STM32F4xx_HAL_Driver/Src/stm32f4xx_hal_adc_ex.c:851:11
	ldr	r1, [r0]
	.loc	7 851 27                        @ ../ThirdParty/STM32F4xx_HAL_Driver/Src/stm32f4xx_hal_adc_ex.c:851:27
	ldr	r0, [r1, #12]
	bics	r0, r2
	str	r0, [r1, #12]
	.loc	7 854 30 is_stmt 1              @ ../ThirdParty/STM32F4xx_HAL_Driver/Src/stm32f4xx_hal_adc_ex.c:854:30
	ldr	r1, [sp, #8]
	ldr	r0, [r1, #8]
	ldrh	r1, [r1]
	add.w	r1, r1, r1, lsl #1
	subs	r1, #30
	lsl.w	r2, r0, r1
	.loc	7 854 5 is_stmt 0               @ ../ThirdParty/STM32F4xx_HAL_Driver/Src/stm32f4xx_hal_adc_ex.c:854:5
	ldr	r0, [sp, #12]
	.loc	7 854 11                        @ ../ThirdParty/STM32F4xx_HAL_Driver/Src/stm32f4xx_hal_adc_ex.c:854:11
	ldr	r1, [r0]
	.loc	7 854 27                        @ ../ThirdParty/STM32F4xx_HAL_Driver/Src/stm32f4xx_hal_adc_ex.c:854:27
	ldr	r0, [r1, #12]
	orrs	r0, r2
	str	r0, [r1, #12]
	.loc	7 855 3 is_stmt 1               @ ../ThirdParty/STM32F4xx_HAL_Driver/Src/stm32f4xx_hal_adc_ex.c:855:3
	b	.LBB13_10
.Ltmp218:
.LBB13_9:
	.loc	7 859 31                        @ ../ThirdParty/STM32F4xx_HAL_Driver/Src/stm32f4xx_hal_adc_ex.c:859:31
	ldr	r0, [sp, #8]
	ldrh	r0, [r0]
	add.w	r1, r0, r0, lsl #1
	movs	r0, #7
	lsl.w	r2, r0, r1
	.loc	7 859 5 is_stmt 0               @ ../ThirdParty/STM32F4xx_HAL_Driver/Src/stm32f4xx_hal_adc_ex.c:859:5
	ldr	r0, [sp, #12]
	.loc	7 859 11                        @ ../ThirdParty/STM32F4xx_HAL_Driver/Src/stm32f4xx_hal_adc_ex.c:859:11
	ldr	r1, [r0]
	.loc	7 859 27                        @ ../ThirdParty/STM32F4xx_HAL_Driver/Src/stm32f4xx_hal_adc_ex.c:859:27
	ldr	r0, [r1, #16]
	bics	r0, r2
	str	r0, [r1, #16]
	.loc	7 862 30 is_stmt 1              @ ../ThirdParty/STM32F4xx_HAL_Driver/Src/stm32f4xx_hal_adc_ex.c:862:30
	ldr	r1, [sp, #8]
	ldr	r0, [r1, #8]
	ldrh	r1, [r1]
	add.w	r1, r1, r1, lsl #1
	lsl.w	r2, r0, r1
	.loc	7 862 5 is_stmt 0               @ ../ThirdParty/STM32F4xx_HAL_Driver/Src/stm32f4xx_hal_adc_ex.c:862:5
	ldr	r0, [sp, #12]
	.loc	7 862 11                        @ ../ThirdParty/STM32F4xx_HAL_Driver/Src/stm32f4xx_hal_adc_ex.c:862:11
	ldr	r1, [r0]
	.loc	7 862 27                        @ ../ThirdParty/STM32F4xx_HAL_Driver/Src/stm32f4xx_hal_adc_ex.c:862:27
	ldr	r0, [r1, #16]
	orrs	r0, r2
	str	r0, [r1, #16]
	b	.LBB13_10
.Ltmp219:
.LBB13_10:
	.loc	7 866 3 is_stmt 1               @ ../ThirdParty/STM32F4xx_HAL_Driver/Src/stm32f4xx_hal_adc_ex.c:866:3
	ldr	r0, [sp, #12]
	.loc	7 866 9 is_stmt 0               @ ../ThirdParty/STM32F4xx_HAL_Driver/Src/stm32f4xx_hal_adc_ex.c:866:9
	ldr	r1, [r0]
	.loc	7 866 24                        @ ../ThirdParty/STM32F4xx_HAL_Driver/Src/stm32f4xx_hal_adc_ex.c:866:24
	ldr	r0, [r1, #56]
	bic	r0, r0, #3145728
	str	r0, [r1, #56]
	.loc	7 867 28 is_stmt 1              @ ../ThirdParty/STM32F4xx_HAL_Driver/Src/stm32f4xx_hal_adc_ex.c:867:28
	ldr	r0, [sp, #8]
	ldr	r1, [r0, #16]
	movs	r0, #0
	movt	r0, #65520
	add.w	r2, r0, r1, lsl #20
	.loc	7 867 3 is_stmt 0               @ ../ThirdParty/STM32F4xx_HAL_Driver/Src/stm32f4xx_hal_adc_ex.c:867:3
	ldr	r0, [sp, #12]
	.loc	7 867 9                         @ ../ThirdParty/STM32F4xx_HAL_Driver/Src/stm32f4xx_hal_adc_ex.c:867:9
	ldr	r1, [r0]
	.loc	7 867 24                        @ ../ThirdParty/STM32F4xx_HAL_Driver/Src/stm32f4xx_hal_adc_ex.c:867:24
	ldr	r0, [r1, #56]
	orrs	r0, r2
	str	r0, [r1, #56]
	.loc	7 872 28 is_stmt 1              @ ../ThirdParty/STM32F4xx_HAL_Driver/Src/stm32f4xx_hal_adc_ex.c:872:28
	ldr	r1, [sp, #8]
	ldr	r0, [r1, #4]
	ldr	r1, [r1, #16]
	subs	r0, r0, r1
	adds	r1, r0, #3
	uxtb	r0, r1
	lsls	r0, r0, #2
	uxtab	r1, r0, r1
	movs	r0, #31
	lsl.w	r2, r0, r1
	.loc	7 872 3 is_stmt 0               @ ../ThirdParty/STM32F4xx_HAL_Driver/Src/stm32f4xx_hal_adc_ex.c:872:3
	ldr	r0, [sp, #12]
	.loc	7 872 9                         @ ../ThirdParty/STM32F4xx_HAL_Driver/Src/stm32f4xx_hal_adc_ex.c:872:9
	ldr	r1, [r0]
	.loc	7 872 24                        @ ../ThirdParty/STM32F4xx_HAL_Driver/Src/stm32f4xx_hal_adc_ex.c:872:24
	ldr	r0, [r1, #56]
	bics	r0, r2
	str	r0, [r1, #56]
	.loc	7 875 27 is_stmt 1              @ ../ThirdParty/STM32F4xx_HAL_Driver/Src/stm32f4xx_hal_adc_ex.c:875:27
	ldr	r2, [sp, #8]
	ldrh	r0, [r2]
	ldr	r1, [r2, #4]
	ldr	r2, [r2, #16]
	subs	r1, r1, r2
	adds	r2, r1, #3
	uxtb	r1, r2
	lsls	r1, r1, #2
	uxtab	r1, r1, r2
	lsl.w	r2, r0, r1
	.loc	7 875 3 is_stmt 0               @ ../ThirdParty/STM32F4xx_HAL_Driver/Src/stm32f4xx_hal_adc_ex.c:875:3
	ldr	r0, [sp, #12]
	.loc	7 875 9                         @ ../ThirdParty/STM32F4xx_HAL_Driver/Src/stm32f4xx_hal_adc_ex.c:875:9
	ldr	r1, [r0]
	.loc	7 875 24                        @ ../ThirdParty/STM32F4xx_HAL_Driver/Src/stm32f4xx_hal_adc_ex.c:875:24
	ldr	r0, [r1, #56]
	orrs	r0, r2
	str	r0, [r1, #56]
.Ltmp220:
	.loc	7 882 6 is_stmt 1               @ ../ThirdParty/STM32F4xx_HAL_Driver/Src/stm32f4xx_hal_adc_ex.c:882:6
	ldr	r0, [sp, #8]
	.loc	7 882 23 is_stmt 0              @ ../ThirdParty/STM32F4xx_HAL_Driver/Src/stm32f4xx_hal_adc_ex.c:882:23
	ldr	r0, [r0, #28]
	movs	r1, #1
	movt	r1, #15
.Ltmp221:
	.loc	7 882 6                         @ ../ThirdParty/STM32F4xx_HAL_Driver/Src/stm32f4xx_hal_adc_ex.c:882:6
	cmp	r0, r1
	beq	.LBB13_12
	b	.LBB13_11
.LBB13_11:
.Ltmp222:
	.loc	7 885 5 is_stmt 1               @ ../ThirdParty/STM32F4xx_HAL_Driver/Src/stm32f4xx_hal_adc_ex.c:885:5
	ldr	r0, [sp, #12]
	.loc	7 885 11 is_stmt 0              @ ../ThirdParty/STM32F4xx_HAL_Driver/Src/stm32f4xx_hal_adc_ex.c:885:11
	ldr	r1, [r0]
	.loc	7 885 25                        @ ../ThirdParty/STM32F4xx_HAL_Driver/Src/stm32f4xx_hal_adc_ex.c:885:25
	ldr	r0, [r1, #8]
	bic	r0, r0, #983040
	str	r0, [r1, #8]
	.loc	7 886 29 is_stmt 1              @ ../ThirdParty/STM32F4xx_HAL_Driver/Src/stm32f4xx_hal_adc_ex.c:886:29
	ldr	r0, [sp, #8]
	.loc	7 886 46 is_stmt 0              @ ../ThirdParty/STM32F4xx_HAL_Driver/Src/stm32f4xx_hal_adc_ex.c:886:46
	ldr	r2, [r0, #28]
	.loc	7 886 5                         @ ../ThirdParty/STM32F4xx_HAL_Driver/Src/stm32f4xx_hal_adc_ex.c:886:5
	ldr	r0, [sp, #12]
	.loc	7 886 11                        @ ../ThirdParty/STM32F4xx_HAL_Driver/Src/stm32f4xx_hal_adc_ex.c:886:11
	ldr	r1, [r0]
	.loc	7 886 25                        @ ../ThirdParty/STM32F4xx_HAL_Driver/Src/stm32f4xx_hal_adc_ex.c:886:25
	ldr	r0, [r1, #8]
	orrs	r0, r2
	str	r0, [r1, #8]
	.loc	7 889 5 is_stmt 1               @ ../ThirdParty/STM32F4xx_HAL_Driver/Src/stm32f4xx_hal_adc_ex.c:889:5
	ldr	r0, [sp, #12]
	.loc	7 889 11 is_stmt 0              @ ../ThirdParty/STM32F4xx_HAL_Driver/Src/stm32f4xx_hal_adc_ex.c:889:11
	ldr	r1, [r0]
	.loc	7 889 25                        @ ../ThirdParty/STM32F4xx_HAL_Driver/Src/stm32f4xx_hal_adc_ex.c:889:25
	ldr	r0, [r1, #8]
	bic	r0, r0, #3145728
	str	r0, [r1, #8]
	.loc	7 890 28 is_stmt 1              @ ../ThirdParty/STM32F4xx_HAL_Driver/Src/stm32f4xx_hal_adc_ex.c:890:28
	ldr	r0, [sp, #8]
	.loc	7 890 45 is_stmt 0              @ ../ThirdParty/STM32F4xx_HAL_Driver/Src/stm32f4xx_hal_adc_ex.c:890:45
	ldr	r2, [r0, #32]
	.loc	7 890 5                         @ ../ThirdParty/STM32F4xx_HAL_Driver/Src/stm32f4xx_hal_adc_ex.c:890:5
	ldr	r0, [sp, #12]
	.loc	7 890 11                        @ ../ThirdParty/STM32F4xx_HAL_Driver/Src/stm32f4xx_hal_adc_ex.c:890:11
	ldr	r1, [r0]
	.loc	7 890 25                        @ ../ThirdParty/STM32F4xx_HAL_Driver/Src/stm32f4xx_hal_adc_ex.c:890:25
	ldr	r0, [r1, #8]
	orrs	r0, r2
	str	r0, [r1, #8]
	.loc	7 891 3 is_stmt 1               @ ../ThirdParty/STM32F4xx_HAL_Driver/Src/stm32f4xx_hal_adc_ex.c:891:3
	b	.LBB13_13
.Ltmp223:
.LBB13_12:
	.loc	7 895 5                         @ ../ThirdParty/STM32F4xx_HAL_Driver/Src/stm32f4xx_hal_adc_ex.c:895:5
	ldr	r0, [sp, #12]
	.loc	7 895 11 is_stmt 0              @ ../ThirdParty/STM32F4xx_HAL_Driver/Src/stm32f4xx_hal_adc_ex.c:895:11
	ldr	r1, [r0]
	.loc	7 895 25                        @ ../ThirdParty/STM32F4xx_HAL_Driver/Src/stm32f4xx_hal_adc_ex.c:895:25
	ldr	r0, [r1, #8]
	bic	r0, r0, #983040
	str	r0, [r1, #8]
	.loc	7 896 5 is_stmt 1               @ ../ThirdParty/STM32F4xx_HAL_Driver/Src/stm32f4xx_hal_adc_ex.c:896:5
	ldr	r0, [sp, #12]
	.loc	7 896 11 is_stmt 0              @ ../ThirdParty/STM32F4xx_HAL_Driver/Src/stm32f4xx_hal_adc_ex.c:896:11
	ldr	r1, [r0]
	.loc	7 896 25                        @ ../ThirdParty/STM32F4xx_HAL_Driver/Src/stm32f4xx_hal_adc_ex.c:896:25
	ldr	r0, [r1, #8]
	bic	r0, r0, #3145728
	str	r0, [r1, #8]
	b	.LBB13_13
.Ltmp224:
.LBB13_13:
	.loc	7 899 7 is_stmt 1               @ ../ThirdParty/STM32F4xx_HAL_Driver/Src/stm32f4xx_hal_adc_ex.c:899:7
	ldr	r0, [sp, #8]
	.loc	7 899 24 is_stmt 0              @ ../ThirdParty/STM32F4xx_HAL_Driver/Src/stm32f4xx_hal_adc_ex.c:899:24
	ldr	r0, [r0, #24]
.Ltmp225:
	.loc	7 899 7                         @ ../ThirdParty/STM32F4xx_HAL_Driver/Src/stm32f4xx_hal_adc_ex.c:899:7
	cbz	r0, .LBB13_15
	b	.LBB13_14
.LBB13_14:
.Ltmp226:
	.loc	7 902 5 is_stmt 1               @ ../ThirdParty/STM32F4xx_HAL_Driver/Src/stm32f4xx_hal_adc_ex.c:902:5
	ldr	r0, [sp, #12]
	.loc	7 902 11 is_stmt 0              @ ../ThirdParty/STM32F4xx_HAL_Driver/Src/stm32f4xx_hal_adc_ex.c:902:11
	ldr	r1, [r0]
	.loc	7 902 25                        @ ../ThirdParty/STM32F4xx_HAL_Driver/Src/stm32f4xx_hal_adc_ex.c:902:25
	ldr	r0, [r1, #4]
	orr	r0, r0, #1024
	str	r0, [r1, #4]
	.loc	7 903 3 is_stmt 1               @ ../ThirdParty/STM32F4xx_HAL_Driver/Src/stm32f4xx_hal_adc_ex.c:903:3
	b	.LBB13_16
.Ltmp227:
.LBB13_15:
	.loc	7 907 5                         @ ../ThirdParty/STM32F4xx_HAL_Driver/Src/stm32f4xx_hal_adc_ex.c:907:5
	ldr	r0, [sp, #12]
	.loc	7 907 11 is_stmt 0              @ ../ThirdParty/STM32F4xx_HAL_Driver/Src/stm32f4xx_hal_adc_ex.c:907:11
	ldr	r1, [r0]
	.loc	7 907 25                        @ ../ThirdParty/STM32F4xx_HAL_Driver/Src/stm32f4xx_hal_adc_ex.c:907:25
	ldr	r0, [r1, #4]
	bic	r0, r0, #1024
	str	r0, [r1, #4]
	b	.LBB13_16
.Ltmp228:
.LBB13_16:
	.loc	7 910 7 is_stmt 1               @ ../ThirdParty/STM32F4xx_HAL_Driver/Src/stm32f4xx_hal_adc_ex.c:910:7
	ldr	r0, [sp, #8]
	.loc	7 910 24 is_stmt 0              @ ../ThirdParty/STM32F4xx_HAL_Driver/Src/stm32f4xx_hal_adc_ex.c:910:24
	ldr	r0, [r0, #20]
.Ltmp229:
	.loc	7 910 7                         @ ../ThirdParty/STM32F4xx_HAL_Driver/Src/stm32f4xx_hal_adc_ex.c:910:7
	cbz	r0, .LBB13_18
	b	.LBB13_17
.LBB13_17:
.Ltmp230:
	.loc	7 913 5 is_stmt 1               @ ../ThirdParty/STM32F4xx_HAL_Driver/Src/stm32f4xx_hal_adc_ex.c:913:5
	ldr	r0, [sp, #12]
	.loc	7 913 11 is_stmt 0              @ ../ThirdParty/STM32F4xx_HAL_Driver/Src/stm32f4xx_hal_adc_ex.c:913:11
	ldr	r1, [r0]
	.loc	7 913 25                        @ ../ThirdParty/STM32F4xx_HAL_Driver/Src/stm32f4xx_hal_adc_ex.c:913:25
	ldr	r0, [r1, #4]
	orr	r0, r0, #4096
	str	r0, [r1, #4]
	.loc	7 914 3 is_stmt 1               @ ../ThirdParty/STM32F4xx_HAL_Driver/Src/stm32f4xx_hal_adc_ex.c:914:3
	b	.LBB13_19
.Ltmp231:
.LBB13_18:
	.loc	7 918 5                         @ ../ThirdParty/STM32F4xx_HAL_Driver/Src/stm32f4xx_hal_adc_ex.c:918:5
	ldr	r0, [sp, #12]
	.loc	7 918 11 is_stmt 0              @ ../ThirdParty/STM32F4xx_HAL_Driver/Src/stm32f4xx_hal_adc_ex.c:918:11
	ldr	r1, [r0]
	.loc	7 918 25                        @ ../ThirdParty/STM32F4xx_HAL_Driver/Src/stm32f4xx_hal_adc_ex.c:918:25
	ldr	r0, [r1, #4]
	bic	r0, r0, #4096
	str	r0, [r1, #4]
	b	.LBB13_19
.Ltmp232:
.LBB13_19:
	.loc	7 921 10 is_stmt 1              @ ../ThirdParty/STM32F4xx_HAL_Driver/Src/stm32f4xx_hal_adc_ex.c:921:10
	ldr	r0, [sp, #8]
	.loc	7 921 27 is_stmt 0              @ ../ThirdParty/STM32F4xx_HAL_Driver/Src/stm32f4xx_hal_adc_ex.c:921:27
	ldr	r0, [r0, #4]
	.loc	7 921 3                         @ ../ThirdParty/STM32F4xx_HAL_Driver/Src/stm32f4xx_hal_adc_ex.c:921:3
	str	r0, [sp]                        @ 4-byte Spill
	cmp	r0, #1
	beq	.LBB13_22
	b	.LBB13_20
.LBB13_20:
	ldr	r0, [sp]                        @ 4-byte Reload
	cmp	r0, #2
	beq	.LBB13_23
	b	.LBB13_21
.LBB13_21:
	ldr	r0, [sp]                        @ 4-byte Reload
	cmp	r0, #3
	beq	.LBB13_24
	b	.LBB13_25
.LBB13_22:
.Ltmp233:
	.loc	7 925 7 is_stmt 1               @ ../ThirdParty/STM32F4xx_HAL_Driver/Src/stm32f4xx_hal_adc_ex.c:925:7
	ldr	r0, [sp, #12]
	.loc	7 925 13 is_stmt 0              @ ../ThirdParty/STM32F4xx_HAL_Driver/Src/stm32f4xx_hal_adc_ex.c:925:13
	ldr	r1, [r0]
	.loc	7 925 29                        @ ../ThirdParty/STM32F4xx_HAL_Driver/Src/stm32f4xx_hal_adc_ex.c:925:29
	ldr	r0, [r1, #20]
	movw	r2, #4095
	bics	r0, r2
	str	r0, [r1, #20]
	.loc	7 926 32 is_stmt 1              @ ../ThirdParty/STM32F4xx_HAL_Driver/Src/stm32f4xx_hal_adc_ex.c:926:32
	ldr	r0, [sp, #8]
	.loc	7 926 49 is_stmt 0              @ ../ThirdParty/STM32F4xx_HAL_Driver/Src/stm32f4xx_hal_adc_ex.c:926:49
	ldr	r2, [r0, #12]
	.loc	7 926 7                         @ ../ThirdParty/STM32F4xx_HAL_Driver/Src/stm32f4xx_hal_adc_ex.c:926:7
	ldr	r0, [sp, #12]
	.loc	7 926 13                        @ ../ThirdParty/STM32F4xx_HAL_Driver/Src/stm32f4xx_hal_adc_ex.c:926:13
	ldr	r1, [r0]
	.loc	7 926 29                        @ ../ThirdParty/STM32F4xx_HAL_Driver/Src/stm32f4xx_hal_adc_ex.c:926:29
	ldr	r0, [r1, #20]
	orrs	r0, r2
	str	r0, [r1, #20]
	.loc	7 927 7 is_stmt 1               @ ../ThirdParty/STM32F4xx_HAL_Driver/Src/stm32f4xx_hal_adc_ex.c:927:7
	b	.LBB13_26
.LBB13_23:
	.loc	7 930 7                         @ ../ThirdParty/STM32F4xx_HAL_Driver/Src/stm32f4xx_hal_adc_ex.c:930:7
	ldr	r0, [sp, #12]
	.loc	7 930 13 is_stmt 0              @ ../ThirdParty/STM32F4xx_HAL_Driver/Src/stm32f4xx_hal_adc_ex.c:930:13
	ldr	r1, [r0]
	.loc	7 930 29                        @ ../ThirdParty/STM32F4xx_HAL_Driver/Src/stm32f4xx_hal_adc_ex.c:930:29
	ldr	r0, [r1, #24]
	movw	r2, #4095
	bics	r0, r2
	str	r0, [r1, #24]
	.loc	7 931 32 is_stmt 1              @ ../ThirdParty/STM32F4xx_HAL_Driver/Src/stm32f4xx_hal_adc_ex.c:931:32
	ldr	r0, [sp, #8]
	.loc	7 931 49 is_stmt 0              @ ../ThirdParty/STM32F4xx_HAL_Driver/Src/stm32f4xx_hal_adc_ex.c:931:49
	ldr	r2, [r0, #12]
	.loc	7 931 7                         @ ../ThirdParty/STM32F4xx_HAL_Driver/Src/stm32f4xx_hal_adc_ex.c:931:7
	ldr	r0, [sp, #12]
	.loc	7 931 13                        @ ../ThirdParty/STM32F4xx_HAL_Driver/Src/stm32f4xx_hal_adc_ex.c:931:13
	ldr	r1, [r0]
	.loc	7 931 29                        @ ../ThirdParty/STM32F4xx_HAL_Driver/Src/stm32f4xx_hal_adc_ex.c:931:29
	ldr	r0, [r1, #24]
	orrs	r0, r2
	str	r0, [r1, #24]
	.loc	7 932 7 is_stmt 1               @ ../ThirdParty/STM32F4xx_HAL_Driver/Src/stm32f4xx_hal_adc_ex.c:932:7
	b	.LBB13_26
.LBB13_24:
	.loc	7 935 7                         @ ../ThirdParty/STM32F4xx_HAL_Driver/Src/stm32f4xx_hal_adc_ex.c:935:7
	ldr	r0, [sp, #12]
	.loc	7 935 13 is_stmt 0              @ ../ThirdParty/STM32F4xx_HAL_Driver/Src/stm32f4xx_hal_adc_ex.c:935:13
	ldr	r1, [r0]
	.loc	7 935 29                        @ ../ThirdParty/STM32F4xx_HAL_Driver/Src/stm32f4xx_hal_adc_ex.c:935:29
	ldr	r0, [r1, #28]
	movw	r2, #4095
	bics	r0, r2
	str	r0, [r1, #28]
	.loc	7 936 32 is_stmt 1              @ ../ThirdParty/STM32F4xx_HAL_Driver/Src/stm32f4xx_hal_adc_ex.c:936:32
	ldr	r0, [sp, #8]
	.loc	7 936 49 is_stmt 0              @ ../ThirdParty/STM32F4xx_HAL_Driver/Src/stm32f4xx_hal_adc_ex.c:936:49
	ldr	r2, [r0, #12]
	.loc	7 936 7                         @ ../ThirdParty/STM32F4xx_HAL_Driver/Src/stm32f4xx_hal_adc_ex.c:936:7
	ldr	r0, [sp, #12]
	.loc	7 936 13                        @ ../ThirdParty/STM32F4xx_HAL_Driver/Src/stm32f4xx_hal_adc_ex.c:936:13
	ldr	r1, [r0]
	.loc	7 936 29                        @ ../ThirdParty/STM32F4xx_HAL_Driver/Src/stm32f4xx_hal_adc_ex.c:936:29
	ldr	r0, [r1, #28]
	orrs	r0, r2
	str	r0, [r1, #28]
	.loc	7 937 7 is_stmt 1               @ ../ThirdParty/STM32F4xx_HAL_Driver/Src/stm32f4xx_hal_adc_ex.c:937:7
	b	.LBB13_26
.LBB13_25:
	.loc	7 940 7                         @ ../ThirdParty/STM32F4xx_HAL_Driver/Src/stm32f4xx_hal_adc_ex.c:940:7
	ldr	r0, [sp, #12]
	.loc	7 940 13 is_stmt 0              @ ../ThirdParty/STM32F4xx_HAL_Driver/Src/stm32f4xx_hal_adc_ex.c:940:13
	ldr	r1, [r0]
	.loc	7 940 29                        @ ../ThirdParty/STM32F4xx_HAL_Driver/Src/stm32f4xx_hal_adc_ex.c:940:29
	ldr	r0, [r1, #32]
	movw	r2, #4095
	bics	r0, r2
	str	r0, [r1, #32]
	.loc	7 941 32 is_stmt 1              @ ../ThirdParty/STM32F4xx_HAL_Driver/Src/stm32f4xx_hal_adc_ex.c:941:32
	ldr	r0, [sp, #8]
	.loc	7 941 49 is_stmt 0              @ ../ThirdParty/STM32F4xx_HAL_Driver/Src/stm32f4xx_hal_adc_ex.c:941:49
	ldr	r2, [r0, #12]
	.loc	7 941 7                         @ ../ThirdParty/STM32F4xx_HAL_Driver/Src/stm32f4xx_hal_adc_ex.c:941:7
	ldr	r0, [sp, #12]
	.loc	7 941 13                        @ ../ThirdParty/STM32F4xx_HAL_Driver/Src/stm32f4xx_hal_adc_ex.c:941:13
	ldr	r1, [r0]
	.loc	7 941 29                        @ ../ThirdParty/STM32F4xx_HAL_Driver/Src/stm32f4xx_hal_adc_ex.c:941:29
	ldr	r0, [r1, #32]
	orrs	r0, r2
	str	r0, [r1, #32]
	.loc	7 942 7 is_stmt 1               @ ../ThirdParty/STM32F4xx_HAL_Driver/Src/stm32f4xx_hal_adc_ex.c:942:7
	b	.LBB13_26
.Ltmp234:
.LBB13_26:
	.loc	7 0 7 is_stmt 0                 @ ../ThirdParty/STM32F4xx_HAL_Driver/Src/stm32f4xx_hal_adc_ex.c:0:7
	movw	r0, #8960
	movt	r0, #16385
	.loc	7 948 19 is_stmt 1              @ ../ThirdParty/STM32F4xx_HAL_Driver/Src/stm32f4xx_hal_adc_ex.c:948:19
	str	r0, [sp, #4]
.Ltmp235:
	.loc	7 951 8                         @ ../ThirdParty/STM32F4xx_HAL_Driver/Src/stm32f4xx_hal_adc_ex.c:951:8
	ldr	r0, [sp, #12]
	.loc	7 951 14 is_stmt 0              @ ../ThirdParty/STM32F4xx_HAL_Driver/Src/stm32f4xx_hal_adc_ex.c:951:14
	ldr	r0, [r0]
	movw	r1, #8192
	movt	r1, #16385
	.loc	7 951 32                        @ ../ThirdParty/STM32F4xx_HAL_Driver/Src/stm32f4xx_hal_adc_ex.c:951:32
	cmp	r0, r1
	bne	.LBB13_29
	b	.LBB13_27
.LBB13_27:
	.loc	7 951 36                        @ ../ThirdParty/STM32F4xx_HAL_Driver/Src/stm32f4xx_hal_adc_ex.c:951:36
	ldr	r0, [sp, #8]
	.loc	7 951 53                        @ ../ThirdParty/STM32F4xx_HAL_Driver/Src/stm32f4xx_hal_adc_ex.c:951:53
	ldr	r0, [r0]
.Ltmp236:
	.loc	7 951 7                         @ ../ThirdParty/STM32F4xx_HAL_Driver/Src/stm32f4xx_hal_adc_ex.c:951:7
	cmp	r0, #18
	bne	.LBB13_29
	b	.LBB13_28
.LBB13_28:
.Ltmp237:
	.loc	7 954 5 is_stmt 1               @ ../ThirdParty/STM32F4xx_HAL_Driver/Src/stm32f4xx_hal_adc_ex.c:954:5
	ldr	r1, [sp, #4]
	.loc	7 954 24 is_stmt 0              @ ../ThirdParty/STM32F4xx_HAL_Driver/Src/stm32f4xx_hal_adc_ex.c:954:24
	ldr	r0, [r1, #4]
	orr	r0, r0, #4194304
	str	r0, [r1, #4]
	.loc	7 955 3 is_stmt 1               @ ../ThirdParty/STM32F4xx_HAL_Driver/Src/stm32f4xx_hal_adc_ex.c:955:3
	b	.LBB13_29
.Ltmp238:
.LBB13_29:
	.loc	7 958 8                         @ ../ThirdParty/STM32F4xx_HAL_Driver/Src/stm32f4xx_hal_adc_ex.c:958:8
	ldr	r0, [sp, #12]
	.loc	7 958 14 is_stmt 0              @ ../ThirdParty/STM32F4xx_HAL_Driver/Src/stm32f4xx_hal_adc_ex.c:958:14
	ldr	r0, [r0]
	movw	r1, #8192
	movt	r1, #16385
	.loc	7 958 32                        @ ../ThirdParty/STM32F4xx_HAL_Driver/Src/stm32f4xx_hal_adc_ex.c:958:32
	cmp	r0, r1
	bne	.LBB13_33
	b	.LBB13_30
.LBB13_30:
	.loc	7 958 37                        @ ../ThirdParty/STM32F4xx_HAL_Driver/Src/stm32f4xx_hal_adc_ex.c:958:37
	ldr	r0, [sp, #8]
	.loc	7 958 54                        @ ../ThirdParty/STM32F4xx_HAL_Driver/Src/stm32f4xx_hal_adc_ex.c:958:54
	ldr	r0, [r0]
	.loc	7 958 97                        @ ../ThirdParty/STM32F4xx_HAL_Driver/Src/stm32f4xx_hal_adc_ex.c:958:97
	cmp	r0, #16
	beq	.LBB13_32
	b	.LBB13_31
.LBB13_31:
	.loc	7 958 101                       @ ../ThirdParty/STM32F4xx_HAL_Driver/Src/stm32f4xx_hal_adc_ex.c:958:101
	ldr	r0, [sp, #8]
	.loc	7 958 118                       @ ../ThirdParty/STM32F4xx_HAL_Driver/Src/stm32f4xx_hal_adc_ex.c:958:118
	ldr	r0, [r0]
.Ltmp239:
	.loc	7 958 7                         @ ../ThirdParty/STM32F4xx_HAL_Driver/Src/stm32f4xx_hal_adc_ex.c:958:7
	cmp	r0, #17
	bne	.LBB13_33
	b	.LBB13_32
.LBB13_32:
.Ltmp240:
	.loc	7 961 5 is_stmt 1               @ ../ThirdParty/STM32F4xx_HAL_Driver/Src/stm32f4xx_hal_adc_ex.c:961:5
	ldr	r1, [sp, #4]
	.loc	7 961 24 is_stmt 0              @ ../ThirdParty/STM32F4xx_HAL_Driver/Src/stm32f4xx_hal_adc_ex.c:961:24
	ldr	r0, [r1, #4]
	orr	r0, r0, #8388608
	str	r0, [r1, #4]
	.loc	7 962 3 is_stmt 1               @ ../ThirdParty/STM32F4xx_HAL_Driver/Src/stm32f4xx_hal_adc_ex.c:962:3
	b	.LBB13_33
.Ltmp241:
.LBB13_33:
	.loc	7 965 3                         @ ../ThirdParty/STM32F4xx_HAL_Driver/Src/stm32f4xx_hal_adc_ex.c:965:3
	b	.LBB13_34
.LBB13_34:
.Ltmp242:
	.loc	7 965 3 is_stmt 0               @ ../ThirdParty/STM32F4xx_HAL_Driver/Src/stm32f4xx_hal_adc_ex.c:965:3
	ldr	r1, [sp, #12]
	movs	r0, #0
	strb.w	r0, [r1, #60]
	b	.LBB13_35
.Ltmp243:
.LBB13_35:
	.loc	7 0 3                           @ ../ThirdParty/STM32F4xx_HAL_Driver/Src/stm32f4xx_hal_adc_ex.c:0:3
	movs	r0, #0
	.loc	7 968 3 is_stmt 1               @ ../ThirdParty/STM32F4xx_HAL_Driver/Src/stm32f4xx_hal_adc_ex.c:968:3
	strb.w	r0, [sp, #19]
	b	.LBB13_36
.LBB13_36:
	.loc	7 969 1                         @ ../ThirdParty/STM32F4xx_HAL_Driver/Src/stm32f4xx_hal_adc_ex.c:969:1
	ldrb.w	r0, [sp, #19]
	.loc	7 969 1 epilogue_begin is_stmt 0 @ ../ThirdParty/STM32F4xx_HAL_Driver/Src/stm32f4xx_hal_adc_ex.c:969:1
	add	sp, #20
	bx	lr
.Ltmp244:
.Lfunc_end13:
	.size	HAL_ADCEx_InjectedConfigChannel, .Lfunc_end13-HAL_ADCEx_InjectedConfigChannel
	.cfi_endproc
	.cantunwind
	.fnend
                                        @ -- End function
	.section	.text.HAL_ADCEx_MultiModeConfigChannel,"ax",%progbits
	.hidden	HAL_ADCEx_MultiModeConfigChannel @ -- Begin function HAL_ADCEx_MultiModeConfigChannel
	.globl	HAL_ADCEx_MultiModeConfigChannel
	.p2align	2
	.type	HAL_ADCEx_MultiModeConfigChannel,%function
	.code	16                              @ @HAL_ADCEx_MultiModeConfigChannel
	.thumb_func
HAL_ADCEx_MultiModeConfigChannel:
.Lfunc_begin14:
	.loc	7 980 0 is_stmt 1               @ ../ThirdParty/STM32F4xx_HAL_Driver/Src/stm32f4xx_hal_adc_ex.c:980:0
	.fnstart
	.cfi_startproc
@ %bb.0:
	.pad	#16
	sub	sp, #16
	.cfi_def_cfa_offset 16
	str	r0, [sp, #8]
	str	r1, [sp, #4]
.Ltmp245:
	.loc	7 990 3 prologue_end            @ ../ThirdParty/STM32F4xx_HAL_Driver/Src/stm32f4xx_hal_adc_ex.c:990:3
	b	.LBB14_1
.LBB14_1:
.Ltmp246:
	.loc	7 990 3 is_stmt 0               @ ../ThirdParty/STM32F4xx_HAL_Driver/Src/stm32f4xx_hal_adc_ex.c:990:3
	ldr	r0, [sp, #8]
	ldrb.w	r0, [r0, #60]
.Ltmp247:
	.loc	7 990 3                         @ ../ThirdParty/STM32F4xx_HAL_Driver/Src/stm32f4xx_hal_adc_ex.c:990:3
	cmp	r0, #1
	bne	.LBB14_3
	b	.LBB14_2
.LBB14_2:
	.loc	7 0 3                           @ ../ThirdParty/STM32F4xx_HAL_Driver/Src/stm32f4xx_hal_adc_ex.c:0:3
	movs	r0, #2
.Ltmp248:
	.loc	7 990 3                         @ ../ThirdParty/STM32F4xx_HAL_Driver/Src/stm32f4xx_hal_adc_ex.c:990:3
	strb.w	r0, [sp, #15]
	b	.LBB14_8
.Ltmp249:
.LBB14_3:
	.loc	7 990 3                         @ ../ThirdParty/STM32F4xx_HAL_Driver/Src/stm32f4xx_hal_adc_ex.c:990:3
	ldr	r1, [sp, #8]
	movs	r0, #1
	strb.w	r0, [r1, #60]
	b	.LBB14_4
.Ltmp250:
.LBB14_4:
	.loc	7 990 3                         @ ../ThirdParty/STM32F4xx_HAL_Driver/Src/stm32f4xx_hal_adc_ex.c:990:3
	b	.LBB14_5
.Ltmp251:
.LBB14_5:
	.loc	7 0 3                           @ ../ThirdParty/STM32F4xx_HAL_Driver/Src/stm32f4xx_hal_adc_ex.c:0:3
	movw	r0, #8960
	movt	r0, #16385
	.loc	7 995 17 is_stmt 1              @ ../ThirdParty/STM32F4xx_HAL_Driver/Src/stm32f4xx_hal_adc_ex.c:995:17
	str	r0, [sp]
	.loc	7 998 3                         @ ../ThirdParty/STM32F4xx_HAL_Driver/Src/stm32f4xx_hal_adc_ex.c:998:3
	ldr	r1, [sp]
	.loc	7 998 22 is_stmt 0              @ ../ThirdParty/STM32F4xx_HAL_Driver/Src/stm32f4xx_hal_adc_ex.c:998:22
	ldr	r0, [r1, #4]
	bic	r0, r0, #31
	str	r0, [r1, #4]
	.loc	7 999 25 is_stmt 1              @ ../ThirdParty/STM32F4xx_HAL_Driver/Src/stm32f4xx_hal_adc_ex.c:999:25
	ldr	r0, [sp, #4]
	.loc	7 999 36 is_stmt 0              @ ../ThirdParty/STM32F4xx_HAL_Driver/Src/stm32f4xx_hal_adc_ex.c:999:36
	ldr	r2, [r0]
	.loc	7 999 3                         @ ../ThirdParty/STM32F4xx_HAL_Driver/Src/stm32f4xx_hal_adc_ex.c:999:3
	ldr	r1, [sp]
	.loc	7 999 22                        @ ../ThirdParty/STM32F4xx_HAL_Driver/Src/stm32f4xx_hal_adc_ex.c:999:22
	ldr	r0, [r1, #4]
	orrs	r0, r2
	str	r0, [r1, #4]
	.loc	7 1002 3 is_stmt 1              @ ../ThirdParty/STM32F4xx_HAL_Driver/Src/stm32f4xx_hal_adc_ex.c:1002:3
	ldr	r1, [sp]
	.loc	7 1002 22 is_stmt 0             @ ../ThirdParty/STM32F4xx_HAL_Driver/Src/stm32f4xx_hal_adc_ex.c:1002:22
	ldr	r0, [r1, #4]
	bic	r0, r0, #49152
	str	r0, [r1, #4]
	.loc	7 1003 25 is_stmt 1             @ ../ThirdParty/STM32F4xx_HAL_Driver/Src/stm32f4xx_hal_adc_ex.c:1003:25
	ldr	r0, [sp, #4]
	.loc	7 1003 36 is_stmt 0             @ ../ThirdParty/STM32F4xx_HAL_Driver/Src/stm32f4xx_hal_adc_ex.c:1003:36
	ldr	r2, [r0, #4]
	.loc	7 1003 3                        @ ../ThirdParty/STM32F4xx_HAL_Driver/Src/stm32f4xx_hal_adc_ex.c:1003:3
	ldr	r1, [sp]
	.loc	7 1003 22                       @ ../ThirdParty/STM32F4xx_HAL_Driver/Src/stm32f4xx_hal_adc_ex.c:1003:22
	ldr	r0, [r1, #4]
	orrs	r0, r2
	str	r0, [r1, #4]
	.loc	7 1006 3 is_stmt 1              @ ../ThirdParty/STM32F4xx_HAL_Driver/Src/stm32f4xx_hal_adc_ex.c:1006:3
	ldr	r1, [sp]
	.loc	7 1006 22 is_stmt 0             @ ../ThirdParty/STM32F4xx_HAL_Driver/Src/stm32f4xx_hal_adc_ex.c:1006:22
	ldr	r0, [r1, #4]
	bic	r0, r0, #3840
	str	r0, [r1, #4]
	.loc	7 1007 25 is_stmt 1             @ ../ThirdParty/STM32F4xx_HAL_Driver/Src/stm32f4xx_hal_adc_ex.c:1007:25
	ldr	r0, [sp, #4]
	.loc	7 1007 36 is_stmt 0             @ ../ThirdParty/STM32F4xx_HAL_Driver/Src/stm32f4xx_hal_adc_ex.c:1007:36
	ldr	r2, [r0, #8]
	.loc	7 1007 3                        @ ../ThirdParty/STM32F4xx_HAL_Driver/Src/stm32f4xx_hal_adc_ex.c:1007:3
	ldr	r1, [sp]
	.loc	7 1007 22                       @ ../ThirdParty/STM32F4xx_HAL_Driver/Src/stm32f4xx_hal_adc_ex.c:1007:22
	ldr	r0, [r1, #4]
	orrs	r0, r2
	str	r0, [r1, #4]
	.loc	7 1010 3 is_stmt 1              @ ../ThirdParty/STM32F4xx_HAL_Driver/Src/stm32f4xx_hal_adc_ex.c:1010:3
	b	.LBB14_6
.LBB14_6:
.Ltmp252:
	.loc	7 1010 3 is_stmt 0              @ ../ThirdParty/STM32F4xx_HAL_Driver/Src/stm32f4xx_hal_adc_ex.c:1010:3
	ldr	r1, [sp, #8]
	movs	r0, #0
	strb.w	r0, [r1, #60]
	b	.LBB14_7
.Ltmp253:
.LBB14_7:
	.loc	7 0 3                           @ ../ThirdParty/STM32F4xx_HAL_Driver/Src/stm32f4xx_hal_adc_ex.c:0:3
	movs	r0, #0
	.loc	7 1013 3 is_stmt 1              @ ../ThirdParty/STM32F4xx_HAL_Driver/Src/stm32f4xx_hal_adc_ex.c:1013:3
	strb.w	r0, [sp, #15]
	b	.LBB14_8
.LBB14_8:
	.loc	7 1014 1                        @ ../ThirdParty/STM32F4xx_HAL_Driver/Src/stm32f4xx_hal_adc_ex.c:1014:1
	ldrb.w	r0, [sp, #15]
	.loc	7 1014 1 epilogue_begin is_stmt 0 @ ../ThirdParty/STM32F4xx_HAL_Driver/Src/stm32f4xx_hal_adc_ex.c:1014:1
	add	sp, #16
	bx	lr
.Ltmp254:
.Lfunc_end14:
	.size	HAL_ADCEx_MultiModeConfigChannel, .Lfunc_end14-HAL_ADCEx_MultiModeConfigChannel
	.cfi_endproc
	.cantunwind
	.fnend
                                        @ -- End function
	.file	8 "D:\\ikingtec\\Robot\\ODrive\\Firmware\\MDK-ARM" "../ThirdParty/STM32F4xx_HAL_Driver/Inc/stm32f4xx_hal_adc_ex.h"
	.section	".note.GNU-stack","",%progbits
	.eabi_attribute	30, 6	@ Tag_ABI_optimization_goals
	.ARM_attribute	16, 1	@ Tag_AV_eba