	.text
	.syntax unified
	.eabi_attribute	67, "2.09"	@ Tag_conformance
	.cpu	cortex-m4
	.eabi_attribute	6, 13	@ Tag_CPU_arch
	.eabi_attribute	7, 77	@ Tag_CPU_arch_profile
	.eabi_attribute	8, 0	@ Tag_ARM_ISA_use
	.eabi_attribute	9, 2	@ Tag_THUMB_ISA_use
	.fpu	fpv4-sp-d16
	.eabi_attribute	27, 1	@ Tag_ABI_HardFP_use
	.eabi_attribute	36, 1	@ Tag_FP_HP_extension
	.eabi_attribute	34, 1	@ Tag_CPU_unaligned_access
	.eabi_attribute	17, 1	@ Tag_ABI_PCS_GOT_use
	.eabi_attribute	20, 2	@ Tag_ABI_FP_denormal
	.eabi_attribute	21, 0	@ Tag_ABI_FP_exceptions
	.eabi_attribute	23, 1	@ Tag_ABI_FP_number_model
	.eabi_attribute	24, 1	@ Tag_ABI_align_needed
	.eabi_attribute	25, 1	@ Tag_ABI_align_preserved
	.eabi_attribute	28, 1	@ Tag_ABI_VFP_args
	.eabi_attribute	38, 1	@ Tag_ABI_FP_16bit_format
	.eabi_attribute	18, 2	@ Tag_ABI_PCS_wchar_t
	.eabi_attribute	26, 1	@ Tag_ABI_enum_size
	.eabi_attribute	14, 0	@ Tag_ABI_PCS_R9_use
	.file	"stm32f4xx_hal_tim.c"
	.file	1 "D:\\ikingtec\\Robot\\ODrive\\Firmware\\MDK-ARM" "../ThirdParty/STM32F4xx_HAL_Driver/Inc/stm32f4xx_hal_def.h"
	.file	2 "D:\\ikingtec\\Robot\\ODrive\\Firmware\\MDK-ARM" "../ThirdParty/STM32F4xx_HAL_Driver/Inc\\stm32f4xx_hal_tim.h"
	.file	3 "D:\\ikingtec\\Robot\\ODrive\\Firmware\\MDK-ARM" "../ThirdParty/STM32F4xx_HAL_Driver/Inc\\stm32f4xx_hal_dma.h"
	.file	4 "D:\\ikingtec\\Robot\\ODrive\\Firmware\\MDK-ARM" "../ThirdParty/CMSIS/Device/ST/STM32F4xx/Include\\stm32f4xx.h"
	.file	5 "D:\\Embed\\MDK\\MDK\\ARM\\ARMCompilerV621\\Bin\\..\\include" "stdint.h"
	.file	6 "D:\\ikingtec\\Robot\\ODrive\\Firmware\\MDK-ARM" "../ThirdParty/CMSIS/Device/ST/STM32F4xx/Include/stm32f405xx.h"
	.section	.text.HAL_TIM_Base_Init,"ax",%progbits
	.hidden	HAL_TIM_Base_Init               @ -- Begin function HAL_TIM_Base_Init
	.globl	HAL_TIM_Base_Init
	.p2align	2
	.type	HAL_TIM_Base_Init,%function
	.code	16                              @ @HAL_TIM_Base_Init
	.thumb_func
HAL_TIM_Base_Init:
.Lfunc_begin0:
	.file	7 "D:\\ikingtec\\Robot\\ODrive\\Firmware\\MDK-ARM" "../ThirdParty/STM32F4xx_HAL_Driver/Src/stm32f4xx_hal_tim.c"
	.loc	7 207 0                         @ ../ThirdParty/STM32F4xx_HAL_Driver/Src/stm32f4xx_hal_tim.c:207:0
	.fnstart
	.cfi_sections .debug_frame
	.cfi_startproc
@ %bb.0:
	.save	{r7, lr}
	push	{r7, lr}
	.cfi_def_cfa_offset 8
	.cfi_offset lr, -4
	.cfi_offset r7, -8
	.pad	#8
	sub	sp, #8
	.cfi_def_cfa_offset 16
	str	r0, [sp]
.Ltmp0:
	.loc	7 209 6 prologue_end            @ ../ThirdParty/STM32F4xx_HAL_Driver/Src/stm32f4xx_hal_tim.c:209:6
	ldr	r0, [sp]
.Ltmp1:
	.loc	7 209 6 is_stmt 0               @ ../ThirdParty/STM32F4xx_HAL_Driver/Src/stm32f4xx_hal_tim.c:209:6
	cbnz	r0, .LBB0_2
	b	.LBB0_1
.LBB0_1:
	.loc	7 0 6                           @ ../ThirdParty/STM32F4xx_HAL_Driver/Src/stm32f4xx_hal_tim.c:0:6
	movs	r0, #1
.Ltmp2:
	.loc	7 211 5 is_stmt 1               @ ../ThirdParty/STM32F4xx_HAL_Driver/Src/stm32f4xx_hal_tim.c:211:5
	strb.w	r0, [sp, #7]
	b	.LBB0_5
.Ltmp3:
.LBB0_2:
	.loc	7 219 6                         @ ../ThirdParty/STM32F4xx_HAL_Driver/Src/stm32f4xx_hal_tim.c:219:6
	ldr	r0, [sp]
	.loc	7 219 12 is_stmt 0              @ ../ThirdParty/STM32F4xx_HAL_Driver/Src/stm32f4xx_hal_tim.c:219:12
	ldrb.w	r0, [r0, #57]
.Ltmp4:
	.loc	7 219 6                         @ ../ThirdParty/STM32F4xx_HAL_Driver/Src/stm32f4xx_hal_tim.c:219:6
	cbnz	r0, .LBB0_4
	b	.LBB0_3
.LBB0_3:
.Ltmp5:
	.loc	7 222 5 is_stmt 1               @ ../ThirdParty/STM32F4xx_HAL_Driver/Src/stm32f4xx_hal_tim.c:222:5
	ldr	r1, [sp]
	movs	r0, #0
	.loc	7 222 16 is_stmt 0              @ ../ThirdParty/STM32F4xx_HAL_Driver/Src/stm32f4xx_hal_tim.c:222:16
	strb.w	r0, [r1, #56]
	.loc	7 224 26 is_stmt 1              @ ../ThirdParty/STM32F4xx_HAL_Driver/Src/stm32f4xx_hal_tim.c:224:26
	ldr	r0, [sp]
	.loc	7 224 5 is_stmt 0               @ ../ThirdParty/STM32F4xx_HAL_Driver/Src/stm32f4xx_hal_tim.c:224:5
	bl	HAL_TIM_Base_MspInit
	.loc	7 225 3 is_stmt 1               @ ../ThirdParty/STM32F4xx_HAL_Driver/Src/stm32f4xx_hal_tim.c:225:3
	b	.LBB0_4
.Ltmp6:
.LBB0_4:
	.loc	7 228 3                         @ ../ThirdParty/STM32F4xx_HAL_Driver/Src/stm32f4xx_hal_tim.c:228:3
	ldr	r1, [sp]
	movs	r0, #2
	.loc	7 228 14 is_stmt 0              @ ../ThirdParty/STM32F4xx_HAL_Driver/Src/stm32f4xx_hal_tim.c:228:14
	strb.w	r0, [r1, #57]
	.loc	7 231 22 is_stmt 1              @ ../ThirdParty/STM32F4xx_HAL_Driver/Src/stm32f4xx_hal_tim.c:231:22
	ldr	r1, [sp]
	.loc	7 231 28 is_stmt 0              @ ../ThirdParty/STM32F4xx_HAL_Driver/Src/stm32f4xx_hal_tim.c:231:28
	ldr	r0, [r1], #4
	.loc	7 231 3                         @ ../ThirdParty/STM32F4xx_HAL_Driver/Src/stm32f4xx_hal_tim.c:231:3
	bl	TIM_Base_SetConfig
	.loc	7 234 3 is_stmt 1               @ ../ThirdParty/STM32F4xx_HAL_Driver/Src/stm32f4xx_hal_tim.c:234:3
	ldr	r1, [sp]
	movs	r0, #1
	.loc	7 234 14 is_stmt 0              @ ../ThirdParty/STM32F4xx_HAL_Driver/Src/stm32f4xx_hal_tim.c:234:14
	strb.w	r0, [r1, #57]
	movs	r0, #0
	.loc	7 236 3 is_stmt 1               @ ../ThirdParty/STM32F4xx_HAL_Driver/Src/stm32f4xx_hal_tim.c:236:3
	strb.w	r0, [sp, #7]
	b	.LBB0_5
.LBB0_5:
	.loc	7 237 1                         @ ../ThirdParty/STM32F4xx_HAL_Driver/Src/stm32f4xx_hal_tim.c:237:1
	ldrb.w	r0, [sp, #7]
	.loc	7 237 1 epilogue_begin is_stmt 0 @ ../ThirdParty/STM32F4xx_HAL_Driver/Src/stm32f4xx_hal_tim.c:237:1
	add	sp, #8
	pop	{r7, pc}
.Ltmp7:
.Lfunc_end0:
	.size	HAL_TIM_Base_Init, .Lfunc_end0-HAL_TIM_Base_Init
	.cfi_endproc
	.cantunwind
	.fnend
                                        @ -- End function
	.section	.text.HAL_TIM_Base_MspInit,"ax",%progbits
	.hidden	HAL_TIM_Base_MspInit            @ -- Begin function HAL_TIM_Base_MspInit
	.weak	HAL_TIM_Base_MspInit
	.p2align	2
	.type	HAL_TIM_Base_MspInit,%function
	.code	16                              @ @HAL_TIM_Base_MspInit
	.thumb_func
HAL_TIM_Base_MspInit:
.Lfunc_begin1:
	.loc	7 274 0 is_stmt 1               @ ../ThirdParty/STM32F4xx_HAL_Driver/Src/stm32f4xx_hal_tim.c:274:0
	.fnstart
	.cfi_startproc
@ %bb.0:
	.pad	#4
	sub	sp, #4
	.cfi_def_cfa_offset 4
	str	r0, [sp]
.Ltmp8:
	.loc	7 280 1 prologue_end epilogue_begin @ ../ThirdParty/STM32F4xx_HAL_Driver/Src/stm32f4xx_hal_tim.c:280:1
	add	sp, #4
	bx	lr
.Ltmp9:
.Lfunc_end1:
	.size	HAL_TIM_Base_MspInit, .Lfunc_end1-HAL_TIM_Base_MspInit
	.cfi_endproc
	.cantunwind
	.fnend
                                        @ -- End function
	.section	.text.TIM_Base_SetConfig,"ax",%progbits
	.hidden	TIM_Base_SetConfig              @ -- Begin function TIM_Base_SetConfig
	.globl	TIM_Base_SetConfig
	.p2align	2
	.type	TIM_Base_SetConfig,%function
	.code	16                              @ @TIM_Base_SetConfig
	.thumb_func
TIM_Base_SetConfig:
.Lfunc_begin2:
	.loc	7 4482 0                        @ ../ThirdParty/STM32F4xx_HAL_Driver/Src/stm32f4xx_hal_tim.c:4482:0
	.fnstart
	.cfi_startproc
@ %bb.0:
	.pad	#24
	sub	sp, #24
	.cfi_def_cfa_offset 24
	str	r0, [sp, #20]
	str	r1, [sp, #16]
	movs	r0, #0
.Ltmp10:
	.loc	7 4483 12 prologue_end          @ ../ThirdParty/STM32F4xx_HAL_Driver/Src/stm32f4xx_hal_tim.c:4483:12
	str	r0, [sp, #12]
	.loc	7 4484 12                       @ ../ThirdParty/STM32F4xx_HAL_Driver/Src/stm32f4xx_hal_tim.c:4484:12
	ldr	r0, [sp, #20]
	.loc	7 4484 18 is_stmt 0             @ ../ThirdParty/STM32F4xx_HAL_Driver/Src/stm32f4xx_hal_tim.c:4484:18
	ldr	r0, [r0]
	.loc	7 4484 10                       @ ../ThirdParty/STM32F4xx_HAL_Driver/Src/stm32f4xx_hal_tim.c:4484:10
	str	r0, [sp, #12]
.Ltmp11:
	.loc	7 4487 6 is_stmt 1              @ ../ThirdParty/STM32F4xx_HAL_Driver/Src/stm32f4xx_hal_tim.c:4487:6
	ldr	r1, [sp, #20]
	movs	r0, #1
	movs	r2, #0
	movt	r2, #16385
	cmp	r1, r2
	str	r0, [sp, #8]                    @ 4-byte Spill
	beq	.LBB2_6
	b	.LBB2_1
.LBB2_1:
	ldr	r1, [sp, #20]
	movs	r0, #1
	cmp.w	r1, #1073741824
	str	r0, [sp, #8]                    @ 4-byte Spill
	beq	.LBB2_6
	b	.LBB2_2
.LBB2_2:
	ldr	r1, [sp, #20]
	movs	r0, #1
	movw	r2, #1024
	movt	r2, #16384
	cmp	r1, r2
	str	r0, [sp, #8]                    @ 4-byte Spill
	beq	.LBB2_6
	b	.LBB2_3
.LBB2_3:
	ldr	r1, [sp, #20]
	movs	r0, #1
	movw	r2, #2048
	movt	r2, #16384
	cmp	r1, r2
	str	r0, [sp, #8]                    @ 4-byte Spill
	beq	.LBB2_6
	b	.LBB2_4
.LBB2_4:
	ldr	r1, [sp, #20]
	movs	r0, #1
	movw	r2, #3072
	movt	r2, #16384
	cmp	r1, r2
	str	r0, [sp, #8]                    @ 4-byte Spill
	beq	.LBB2_6
	b	.LBB2_5
.LBB2_5:
	ldr	r0, [sp, #20]
	movw	r1, #64512
	movt	r1, #49150
	add	r0, r1
	clz	r0, r0
	lsrs	r0, r0, #5
	str	r0, [sp, #8]                    @ 4-byte Spill
	b	.LBB2_6
.Ltmp12:
.LBB2_6:
	.loc	7 0 6 is_stmt 0                 @ ../ThirdParty/STM32F4xx_HAL_Driver/Src/stm32f4xx_hal_tim.c:0:6
	ldr	r0, [sp, #8]                    @ 4-byte Reload
	.loc	7 4487 6                        @ ../ThirdParty/STM32F4xx_HAL_Driver/Src/stm32f4xx_hal_tim.c:4487:6
	lsls	r0, r0, #31
	cbz	r0, .LBB2_8
	b	.LBB2_7
.LBB2_7:
.Ltmp13:
	.loc	7 4490 12 is_stmt 1             @ ../ThirdParty/STM32F4xx_HAL_Driver/Src/stm32f4xx_hal_tim.c:4490:12
	ldr	r0, [sp, #12]
	bic	r0, r0, #112
	str	r0, [sp, #12]
	.loc	7 4491 15                       @ ../ThirdParty/STM32F4xx_HAL_Driver/Src/stm32f4xx_hal_tim.c:4491:15
	ldr	r0, [sp, #16]
	.loc	7 4491 26 is_stmt 0             @ ../ThirdParty/STM32F4xx_HAL_Driver/Src/stm32f4xx_hal_tim.c:4491:26
	ldr	r1, [r0, #4]
	.loc	7 4491 12                       @ ../ThirdParty/STM32F4xx_HAL_Driver/Src/stm32f4xx_hal_tim.c:4491:12
	ldr	r0, [sp, #12]
	orrs	r0, r1
	str	r0, [sp, #12]
	.loc	7 4492 3 is_stmt 1              @ ../ThirdParty/STM32F4xx_HAL_Driver/Src/stm32f4xx_hal_tim.c:4492:3
	b	.LBB2_8
.Ltmp14:
.LBB2_8:
	.loc	7 4494 6                        @ ../ThirdParty/STM32F4xx_HAL_Driver/Src/stm32f4xx_hal_tim.c:4494:6
	ldr	r1, [sp, #20]
	movs	r0, #1
	movs	r2, #0
	movt	r2, #16385
	cmp	r1, r2
	str	r0, [sp, #4]                    @ 4-byte Spill
	beq	.LBB2_20
	b	.LBB2_9
.LBB2_9:
	ldr	r1, [sp, #20]
	movs	r0, #1
	cmp.w	r1, #1073741824
	str	r0, [sp, #4]                    @ 4-byte Spill
	beq	.LBB2_20
	b	.LBB2_10
.LBB2_10:
	ldr	r1, [sp, #20]
	movs	r0, #1
	movw	r2, #1024
	movt	r2, #16384
	cmp	r1, r2
	str	r0, [sp, #4]                    @ 4-byte Spill
	beq	.LBB2_20
	b	.LBB2_11
.LBB2_11:
	ldr	r1, [sp, #20]
	movs	r0, #1
	movw	r2, #2048
	movt	r2, #16384
	cmp	r1, r2
	str	r0, [sp, #4]                    @ 4-byte Spill
	beq	.LBB2_20
	b	.LBB2_12
.LBB2_12:
	ldr	r1, [sp, #20]
	movs	r0, #1
	movw	r2, #3072
	movt	r2, #16384
	cmp	r1, r2
	str	r0, [sp, #4]                    @ 4-byte Spill
	beq	.LBB2_20
	b	.LBB2_13
.LBB2_13:
	ldr	r1, [sp, #20]
	movs	r0, #1
	movw	r2, #1024
	movt	r2, #16385
	cmp	r1, r2
	str	r0, [sp, #4]                    @ 4-byte Spill
	beq	.LBB2_20
	b	.LBB2_14
.LBB2_14:
	ldr	r1, [sp, #20]
	movs	r0, #1
	movw	r2, #16384
	movt	r2, #16385
	cmp	r1, r2
	str	r0, [sp, #4]                    @ 4-byte Spill
	beq	.LBB2_20
	b	.LBB2_15
.LBB2_15:
	ldr	r1, [sp, #20]
	movs	r0, #1
	movw	r2, #17408
	movt	r2, #16385
	cmp	r1, r2
	str	r0, [sp, #4]                    @ 4-byte Spill
	beq	.LBB2_20
	b	.LBB2_16
.LBB2_16:
	ldr	r1, [sp, #20]
	movs	r0, #1
	movw	r2, #18432
	movt	r2, #16385
	cmp	r1, r2
	str	r0, [sp, #4]                    @ 4-byte Spill
	beq	.LBB2_20
	b	.LBB2_17
.LBB2_17:
	ldr	r1, [sp, #20]
	movs	r0, #1
	movw	r2, #6144
	movt	r2, #16384
	cmp	r1, r2
	str	r0, [sp, #4]                    @ 4-byte Spill
	beq	.LBB2_20
	b	.LBB2_18
.LBB2_18:
	ldr	r1, [sp, #20]
	movs	r0, #1
	movw	r2, #7168
	movt	r2, #16384
	cmp	r1, r2
	str	r0, [sp, #4]                    @ 4-byte Spill
	beq	.LBB2_20
	b	.LBB2_19
.LBB2_19:
	ldr	r0, [sp, #20]
	movw	r1, #57344
	movt	r1, #49151
	add	r0, r1
	clz	r0, r0
	lsrs	r0, r0, #5
	str	r0, [sp, #4]                    @ 4-byte Spill
	b	.LBB2_20
.Ltmp15:
.LBB2_20:
	.loc	7 0 6 is_stmt 0                 @ ../ThirdParty/STM32F4xx_HAL_Driver/Src/stm32f4xx_hal_tim.c:0:6
	ldr	r0, [sp, #4]                    @ 4-byte Reload
	.loc	7 4494 6                        @ ../ThirdParty/STM32F4xx_HAL_Driver/Src/stm32f4xx_hal_tim.c:4494:6
	lsls	r0, r0, #31
	cbz	r0, .LBB2_22
	b	.LBB2_21
.LBB2_21:
.Ltmp16:
	.loc	7 4497 12 is_stmt 1             @ ../ThirdParty/STM32F4xx_HAL_Driver/Src/stm32f4xx_hal_tim.c:4497:12
	ldr	r0, [sp, #12]
	bic	r0, r0, #768
	str	r0, [sp, #12]
	.loc	7 4498 25                       @ ../ThirdParty/STM32F4xx_HAL_Driver/Src/stm32f4xx_hal_tim.c:4498:25
	ldr	r0, [sp, #16]
	.loc	7 4498 36 is_stmt 0             @ ../ThirdParty/STM32F4xx_HAL_Driver/Src/stm32f4xx_hal_tim.c:4498:36
	ldr	r1, [r0, #12]
	.loc	7 4498 12                       @ ../ThirdParty/STM32F4xx_HAL_Driver/Src/stm32f4xx_hal_tim.c:4498:12
	ldr	r0, [sp, #12]
	orrs	r0, r1
	str	r0, [sp, #12]
	.loc	7 4499 3 is_stmt 1              @ ../ThirdParty/STM32F4xx_HAL_Driver/Src/stm32f4xx_hal_tim.c:4499:3
	b	.LBB2_22
.Ltmp17:
.LBB2_22:
	.loc	7 4501 15                       @ ../ThirdParty/STM32F4xx_HAL_Driver/Src/stm32f4xx_hal_tim.c:4501:15
	ldr	r0, [sp, #12]
	.loc	7 4501 3 is_stmt 0              @ ../ThirdParty/STM32F4xx_HAL_Driver/Src/stm32f4xx_hal_tim.c:4501:3
	ldr	r1, [sp, #20]
	.loc	7 4501 13                       @ ../ThirdParty/STM32F4xx_HAL_Driver/Src/stm32f4xx_hal_tim.c:4501:13
	str	r0, [r1]
	.loc	7 4504 25 is_stmt 1             @ ../ThirdParty/STM32F4xx_HAL_Driver/Src/stm32f4xx_hal_tim.c:4504:25
	ldr	r0, [sp, #16]
	.loc	7 4504 36 is_stmt 0             @ ../ThirdParty/STM32F4xx_HAL_Driver/Src/stm32f4xx_hal_tim.c:4504:36
	ldr	r0, [r0, #8]
	.loc	7 4504 3                        @ ../ThirdParty/STM32F4xx_HAL_Driver/Src/stm32f4xx_hal_tim.c:4504:3
	ldr	r1, [sp, #20]
	.loc	7 4504 13                       @ ../ThirdParty/STM32F4xx_HAL_Driver/Src/stm32f4xx_hal_tim.c:4504:13
	str	r0, [r1, #44]
	.loc	7 4507 25 is_stmt 1             @ ../ThirdParty/STM32F4xx_HAL_Driver/Src/stm32f4xx_hal_tim.c:4507:25
	ldr	r0, [sp, #16]
	.loc	7 4507 36 is_stmt 0             @ ../ThirdParty/STM32F4xx_HAL_Driver/Src/stm32f4xx_hal_tim.c:4507:36
	ldr	r0, [r0]
	.loc	7 4507 3                        @ ../ThirdParty/STM32F4xx_HAL_Driver/Src/stm32f4xx_hal_tim.c:4507:3
	ldr	r1, [sp, #20]
	.loc	7 4507 13                       @ ../ThirdParty/STM32F4xx_HAL_Driver/Src/stm32f4xx_hal_tim.c:4507:13
	str	r0, [r1, #40]
.Ltmp18:
	.loc	7 4509 6 is_stmt 1              @ ../ThirdParty/STM32F4xx_HAL_Driver/Src/stm32f4xx_hal_tim.c:4509:6
	ldr	r1, [sp, #20]
	movs	r0, #1
	movs	r2, #0
	movt	r2, #16385
	cmp	r1, r2
	str	r0, [sp]                        @ 4-byte Spill
	beq	.LBB2_24
	b	.LBB2_23
.LBB2_23:
	ldr	r0, [sp, #20]
	movw	r1, #64512
	movt	r1, #49150
	add	r0, r1
	clz	r0, r0
	lsrs	r0, r0, #5
	str	r0, [sp]                        @ 4-byte Spill
	b	.LBB2_24
.Ltmp19:
.LBB2_24:
	.loc	7 0 6 is_stmt 0                 @ ../ThirdParty/STM32F4xx_HAL_Driver/Src/stm32f4xx_hal_tim.c:0:6
	ldr	r0, [sp]                        @ 4-byte Reload
	.loc	7 4509 6                        @ ../ThirdParty/STM32F4xx_HAL_Driver/Src/stm32f4xx_hal_tim.c:4509:6
	lsls	r0, r0, #31
	cbz	r0, .LBB2_26
	b	.LBB2_25
.LBB2_25:
.Ltmp20:
	.loc	7 4512 17 is_stmt 1             @ ../ThirdParty/STM32F4xx_HAL_Driver/Src/stm32f4xx_hal_tim.c:4512:17
	ldr	r0, [sp, #16]
	.loc	7 4512 28 is_stmt 0             @ ../ThirdParty/STM32F4xx_HAL_Driver/Src/stm32f4xx_hal_tim.c:4512:28
	ldr	r0, [r0, #16]
	.loc	7 4512 5                        @ ../ThirdParty/STM32F4xx_HAL_Driver/Src/stm32f4xx_hal_tim.c:4512:5
	ldr	r1, [sp, #20]
	.loc	7 4512 15                       @ ../ThirdParty/STM32F4xx_HAL_Driver/Src/stm32f4xx_hal_tim.c:4512:15
	str	r0, [r1, #48]
	.loc	7 4513 3 is_stmt 1              @ ../ThirdParty/STM32F4xx_HAL_Driver/Src/stm32f4xx_hal_tim.c:4513:3
	b	.LBB2_26
.Ltmp21:
.LBB2_26:
	.loc	7 4517 3                        @ ../ThirdParty/STM32F4xx_HAL_Driver/Src/stm32f4xx_hal_tim.c:4517:3
	ldr	r1, [sp, #20]
	movs	r0, #1
	.loc	7 4517 13 is_stmt 0             @ ../ThirdParty/STM32F4xx_HAL_Driver/Src/stm32f4xx_hal_tim.c:4517:13
	str	r0, [r1, #20]
	.loc	7 4518 1 epilogue_begin is_stmt 1 @ ../ThirdParty/STM32F4xx_HAL_Driver/Src/stm32f4xx_hal_tim.c:4518:1
	add	sp, #24
	bx	lr
.Ltmp22:
.Lfunc_end2:
	.size	TIM_Base_SetConfig, .Lfunc_end2-TIM_Base_SetConfig
	.cfi_endproc
	.cantunwind
	.fnend
                                        @ -- End function
	.section	.text.HAL_TIM_Base_DeInit,"ax",%progbits
	.hidden	HAL_TIM_Base_DeInit             @ -- Begin function HAL_TIM_Base_DeInit
	.globl	HAL_TIM_Base_DeInit
	.p2align	2
	.type	HAL_TIM_Base_DeInit,%function
	.code	16                              @ @HAL_TIM_Base_DeInit
	.thumb_func
HAL_TIM_Base_DeInit:
.Lfunc_begin3:
	.loc	7 246 0                         @ ../ThirdParty/STM32F4xx_HAL_Driver/Src/stm32f4xx_hal_tim.c:246:0
	.fnstart
	.cfi_startproc
@ %bb.0:
	.save	{r7, lr}
	push	{r7, lr}
	.cfi_def_cfa_offset 8
	.cfi_offset lr, -4
	.cfi_offset r7, -8
	.pad	#8
	sub	sp, #8
	.cfi_def_cfa_offset 16
	str	r0, [sp, #4]
.Ltmp23:
	.loc	7 250 3 prologue_end            @ ../ThirdParty/STM32F4xx_HAL_Driver/Src/stm32f4xx_hal_tim.c:250:3
	ldr	r1, [sp, #4]
	movs	r0, #2
	.loc	7 250 15 is_stmt 0              @ ../ThirdParty/STM32F4xx_HAL_Driver/Src/stm32f4xx_hal_tim.c:250:15
	strb.w	r0, [r1, #57]
	.loc	7 253 3 is_stmt 1               @ ../ThirdParty/STM32F4xx_HAL_Driver/Src/stm32f4xx_hal_tim.c:253:3
	b	.LBB3_1
.LBB3_1:
.Ltmp24:
	.loc	7 253 3 is_stmt 0               @ ../ThirdParty/STM32F4xx_HAL_Driver/Src/stm32f4xx_hal_tim.c:253:3
	ldr	r0, [sp, #4]
	ldr	r0, [r0]
	ldr	r0, [r0, #32]
	movw	r1, #4369
.Ltmp25:
	.loc	7 253 3                         @ ../ThirdParty/STM32F4xx_HAL_Driver/Src/stm32f4xx_hal_tim.c:253:3
	tst	r0, r1
	bne	.LBB3_5
	b	.LBB3_2
.LBB3_2:
.Ltmp26:
	.loc	7 253 3                         @ ../ThirdParty/STM32F4xx_HAL_Driver/Src/stm32f4xx_hal_tim.c:253:3
	ldr	r0, [sp, #4]
	ldr	r0, [r0]
	ldr	r0, [r0, #32]
	movw	r1, #1092
.Ltmp27:
	.loc	7 253 3                         @ ../ThirdParty/STM32F4xx_HAL_Driver/Src/stm32f4xx_hal_tim.c:253:3
	tst	r0, r1
	bne	.LBB3_4
	b	.LBB3_3
.LBB3_3:
.Ltmp28:
	.loc	7 253 3                         @ ../ThirdParty/STM32F4xx_HAL_Driver/Src/stm32f4xx_hal_tim.c:253:3
	ldr	r0, [sp, #4]
	ldr	r1, [r0]
	ldr	r0, [r1]
	bic	r0, r0, #1
	str	r0, [r1]
	b	.LBB3_4
.Ltmp29:
.LBB3_4:
	.loc	7 253 3                         @ ../ThirdParty/STM32F4xx_HAL_Driver/Src/stm32f4xx_hal_tim.c:253:3
	b	.LBB3_5
.Ltmp30:
.LBB3_5:
	.loc	7 253 3                         @ ../ThirdParty/STM32F4xx_HAL_Driver/Src/stm32f4xx_hal_tim.c:253:3
	b	.LBB3_6
.Ltmp31:
.LBB3_6:
	.loc	7 256 26 is_stmt 1              @ ../ThirdParty/STM32F4xx_HAL_Driver/Src/stm32f4xx_hal_tim.c:256:26
	ldr	r0, [sp, #4]
	.loc	7 256 3 is_stmt 0               @ ../ThirdParty/STM32F4xx_HAL_Driver/Src/stm32f4xx_hal_tim.c:256:3
	bl	HAL_TIM_Base_MspDeInit
	.loc	7 259 3 is_stmt 1               @ ../ThirdParty/STM32F4xx_HAL_Driver/Src/stm32f4xx_hal_tim.c:259:3
	ldr	r1, [sp, #4]
	movs	r0, #0
	.loc	7 259 15 is_stmt 0              @ ../ThirdParty/STM32F4xx_HAL_Driver/Src/stm32f4xx_hal_tim.c:259:15
	strb.w	r0, [r1, #57]
	.loc	7 262 3 is_stmt 1               @ ../ThirdParty/STM32F4xx_HAL_Driver/Src/stm32f4xx_hal_tim.c:262:3
	b	.LBB3_7
.LBB3_7:
.Ltmp32:
	.loc	7 262 3 is_stmt 0               @ ../ThirdParty/STM32F4xx_HAL_Driver/Src/stm32f4xx_hal_tim.c:262:3
	ldr	r1, [sp, #4]
	movs	r0, #0
	strb.w	r0, [r1, #56]
	b	.LBB3_8
.Ltmp33:
.LBB3_8:
	.loc	7 0 3                           @ ../ThirdParty/STM32F4xx_HAL_Driver/Src/stm32f4xx_hal_tim.c:0:3
	movs	r0, #0
	.loc	7 264 3 epilogue_begin is_stmt 1 @ ../ThirdParty/STM32F4xx_HAL_Driver/Src/stm32f4xx_hal_tim.c:264:3
	add	sp, #8
	pop	{r7, pc}
.Ltmp34:
.Lfunc_end3:
	.size	HAL_TIM_Base_DeInit, .Lfunc_end3-HAL_TIM_Base_DeInit
	.cfi_endproc
	.cantunwind
	.fnend
                                        @ -- End function
	.section	.text.HAL_TIM_Base_MspDeInit,"ax",%progbits
	.hidden	HAL_TIM_Base_MspDeInit          @ -- Begin function HAL_TIM_Base_MspDeInit
	.weak	HAL_TIM_Base_MspDeInit
	.p2align	2
	.type	HAL_TIM_Base_MspDeInit,%function
	.code	16                              @ @HAL_TIM_Base_MspDeInit
	.thumb_func
HAL_TIM_Base_MspDeInit:
.Lfunc_begin4:
	.loc	7 289 0                         @ ../ThirdParty/STM32F4xx_HAL_Driver/Src/stm32f4xx_hal_tim.c:289:0
	.fnstart
	.cfi_startproc
@ %bb.0:
	.pad	#4
	sub	sp, #4
	.cfi_def_cfa_offset 4
	str	r0, [sp]
.Ltmp35:
	.loc	7 295 1 prologue_end epilogue_begin @ ../ThirdParty/STM32F4xx_HAL_Driver/Src/stm32f4xx_hal_tim.c:295:1
	add	sp, #4
	bx	lr
.Ltmp36:
.Lfunc_end4:
	.size	HAL_TIM_Base_MspDeInit, .Lfunc_end4-HAL_TIM_Base_MspDeInit
	.cfi_endproc
	.cantunwind
	.fnend
                                        @ -- End function
	.section	.text.HAL_TIM_Base_Start,"ax",%progbits
	.hidden	HAL_TIM_Base_Start              @ -- Begin function HAL_TIM_Base_Start
	.globl	HAL_TIM_Base_Start
	.p2align	2
	.type	HAL_TIM_Base_Start,%function
	.code	16                              @ @HAL_TIM_Base_Start
	.thumb_func
HAL_TIM_Base_Start:
.Lfunc_begin5:
	.loc	7 304 0                         @ ../ThirdParty/STM32F4xx_HAL_Driver/Src/stm32f4xx_hal_tim.c:304:0
	.fnstart
	.cfi_startproc
@ %bb.0:
	.pad	#4
	sub	sp, #4
	.cfi_def_cfa_offset 4
	str	r0, [sp]
.Ltmp37:
	.loc	7 309 3 prologue_end            @ ../ThirdParty/STM32F4xx_HAL_Driver/Src/stm32f4xx_hal_tim.c:309:3
	ldr	r1, [sp]
	movs	r0, #2
	.loc	7 309 14 is_stmt 0              @ ../ThirdParty/STM32F4xx_HAL_Driver/Src/stm32f4xx_hal_tim.c:309:14
	strb.w	r0, [r1, #57]
	.loc	7 312 3 is_stmt 1               @ ../ThirdParty/STM32F4xx_HAL_Driver/Src/stm32f4xx_hal_tim.c:312:3
	ldr	r0, [sp]
	ldr	r1, [r0]
	ldr	r0, [r1]
	orr	r0, r0, #1
	str	r0, [r1]
	.loc	7 315 3                         @ ../ThirdParty/STM32F4xx_HAL_Driver/Src/stm32f4xx_hal_tim.c:315:3
	ldr	r1, [sp]
	movs	r0, #1
	.loc	7 315 14 is_stmt 0              @ ../ThirdParty/STM32F4xx_HAL_Driver/Src/stm32f4xx_hal_tim.c:315:14
	strb.w	r0, [r1, #57]
	movs	r0, #0
	.loc	7 318 3 epilogue_begin is_stmt 1 @ ../ThirdParty/STM32F4xx_HAL_Driver/Src/stm32f4xx_hal_tim.c:318:3
	add	sp, #4
	bx	lr
.Ltmp38:
.Lfunc_end5:
	.size	HAL_TIM_Base_Start, .Lfunc_end5-HAL_TIM_Base_Start
	.cfi_endproc
	.cantunwind
	.fnend
                                        @ -- End function
	.section	.text.HAL_TIM_Base_Stop,"ax",%progbits
	.hidden	HAL_TIM_Base_Stop               @ -- Begin function HAL_TIM_Base_Stop
	.globl	HAL_TIM_Base_Stop
	.p2align	2
	.type	HAL_TIM_Base_Stop,%function
	.code	16                              @ @HAL_TIM_Base_Stop
	.thumb_func
HAL_TIM_Base_Stop:
.Lfunc_begin6:
	.loc	7 328 0                         @ ../ThirdParty/STM32F4xx_HAL_Driver/Src/stm32f4xx_hal_tim.c:328:0
	.fnstart
	.cfi_startproc
@ %bb.0:
	.pad	#4
	sub	sp, #4
	.cfi_def_cfa_offset 4
	str	r0, [sp]
.Ltmp39:
	.loc	7 333 3 prologue_end            @ ../ThirdParty/STM32F4xx_HAL_Driver/Src/stm32f4xx_hal_tim.c:333:3
	ldr	r1, [sp]
	movs	r0, #2
	.loc	7 333 14 is_stmt 0              @ ../ThirdParty/STM32F4xx_HAL_Driver/Src/stm32f4xx_hal_tim.c:333:14
	strb.w	r0, [r1, #57]
	.loc	7 336 3 is_stmt 1               @ ../ThirdParty/STM32F4xx_HAL_Driver/Src/stm32f4xx_hal_tim.c:336:3
	b	.LBB6_1
.LBB6_1:
.Ltmp40:
	.loc	7 336 3 is_stmt 0               @ ../ThirdParty/STM32F4xx_HAL_Driver/Src/stm32f4xx_hal_tim.c:336:3
	ldr	r0, [sp]
	ldr	r0, [r0]
	ldr	r0, [r0, #32]
	movw	r1, #4369
.Ltmp41:
	.loc	7 336 3                         @ ../ThirdParty/STM32F4xx_HAL_Driver/Src/stm32f4xx_hal_tim.c:336:3
	tst	r0, r1
	bne	.LBB6_5
	b	.LBB6_2
.LBB6_2:
.Ltmp42:
	.loc	7 336 3                         @ ../ThirdParty/STM32F4xx_HAL_Driver/Src/stm32f4xx_hal_tim.c:336:3
	ldr	r0, [sp]
	ldr	r0, [r0]
	ldr	r0, [r0, #32]
	movw	r1, #1092
.Ltmp43:
	.loc	7 336 3                         @ ../ThirdParty/STM32F4xx_HAL_Driver/Src/stm32f4xx_hal_tim.c:336:3
	tst	r0, r1
	bne	.LBB6_4
	b	.LBB6_3
.LBB6_3:
.Ltmp44:
	.loc	7 336 3                         @ ../ThirdParty/STM32F4xx_HAL_Driver/Src/stm32f4xx_hal_tim.c:336:3
	ldr	r0, [sp]
	ldr	r1, [r0]
	ldr	r0, [r1]
	bic	r0, r0, #1
	str	r0, [r1]
	b	.LBB6_4
.Ltmp45:
.LBB6_4:
	.loc	7 336 3                         @ ../ThirdParty/STM32F4xx_HAL_Driver/Src/stm32f4xx_hal_tim.c:336:3
	b	.LBB6_5
.Ltmp46:
.LBB6_5:
	.loc	7 336 3                         @ ../ThirdParty/STM32F4xx_HAL_Driver/Src/stm32f4xx_hal_tim.c:336:3
	b	.LBB6_6
.Ltmp47:
.LBB6_6:
	.loc	7 339 3 is_stmt 1               @ ../ThirdParty/STM32F4xx_HAL_Driver/Src/stm32f4xx_hal_tim.c:339:3
	ldr	r1, [sp]
	movs	r0, #1
	.loc	7 339 14 is_stmt 0              @ ../ThirdParty/STM32F4xx_HAL_Driver/Src/stm32f4xx_hal_tim.c:339:14
	strb.w	r0, [r1, #57]
	movs	r0, #0
	.loc	7 342 3 epilogue_begin is_stmt 1 @ ../ThirdParty/STM32F4xx_HAL_Driver/Src/stm32f4xx_hal_tim.c:342:3
	add	sp, #4
	bx	lr
.Ltmp48:
.Lfunc_end6:
	.size	HAL_TIM_Base_Stop, .Lfunc_end6-HAL_TIM_Base_Stop
	.cfi_endproc
	.cantunwind
	.fnend
                                        @ -- End function
	.section	.text.HAL_TIM_Base_Start_IT,"ax",%progbits
	.hidden	HAL_TIM_Base_Start_IT           @ -- Begin function HAL_TIM_Base_Start_IT
	.globl	HAL_TIM_Base_Start_IT
	.p2align	2
	.type	HAL_TIM_Base_Start_IT,%function
	.code	16                              @ @HAL_TIM_Base_Start_IT
	.thumb_func
HAL_TIM_Base_Start_IT:
.Lfunc_begin7:
	.loc	7 352 0                         @ ../ThirdParty/STM32F4xx_HAL_Driver/Src/stm32f4xx_hal_tim.c:352:0
	.fnstart
	.cfi_startproc
@ %bb.0:
	.pad	#4
	sub	sp, #4
	.cfi_def_cfa_offset 4
	str	r0, [sp]
.Ltmp49:
	.loc	7 357 3 prologue_end            @ ../ThirdParty/STM32F4xx_HAL_Driver/Src/stm32f4xx_hal_tim.c:357:3
	ldr	r0, [sp]
	ldr	r1, [r0]
	ldr	r0, [r1, #12]
	orr	r0, r0, #1
	str	r0, [r1, #12]
	.loc	7 360 3                         @ ../ThirdParty/STM32F4xx_HAL_Driver/Src/stm32f4xx_hal_tim.c:360:3
	ldr	r0, [sp]
	ldr	r1, [r0]
	ldr	r0, [r1]
	orr	r0, r0, #1
	str	r0, [r1]
	movs	r0, #0
	.loc	7 363 3 epilogue_begin          @ ../ThirdParty/STM32F4xx_HAL_Driver/Src/stm32f4xx_hal_tim.c:363:3
	add	sp, #4
	bx	lr
.Ltmp50:
.Lfunc_end7:
	.size	HAL_TIM_Base_Start_IT, .Lfunc_end7-HAL_TIM_Base_Start_IT
	.cfi_endproc
	.cantunwind
	.fnend
                                        @ -- End function
	.section	.text.HAL_TIM_Base_Stop_IT,"ax",%progbits
	.hidden	HAL_TIM_Base_Stop_IT            @ -- Begin function HAL_TIM_Base_Stop_IT
	.globl	HAL_TIM_Base_Stop_IT
	.p2align	2
	.type	HAL_TIM_Base_Stop_IT,%function
	.code	16                              @ @HAL_TIM_Base_Stop_IT
	.thumb_func
HAL_TIM_Base_Stop_IT:
.Lfunc_begin8:
	.loc	7 373 0                         @ ../ThirdParty/STM32F4xx_HAL_Driver/Src/stm32f4xx_hal_tim.c:373:0
	.fnstart
	.cfi_startproc
@ %bb.0:
	.pad	#4
	sub	sp, #4
	.cfi_def_cfa_offset 4
	str	r0, [sp]
.Ltmp51:
	.loc	7 377 3 prologue_end            @ ../ThirdParty/STM32F4xx_HAL_Driver/Src/stm32f4xx_hal_tim.c:377:3
	ldr	r0, [sp]
	ldr	r1, [r0]
	ldr	r0, [r1, #12]
	bic	r0, r0, #1
	str	r0, [r1, #12]
	.loc	7 380 3                         @ ../ThirdParty/STM32F4xx_HAL_Driver/Src/stm32f4xx_hal_tim.c:380:3
	b	.LBB8_1
.LBB8_1:
.Ltmp52:
	.loc	7 380 3 is_stmt 0               @ ../ThirdParty/STM32F4xx_HAL_Driver/Src/stm32f4xx_hal_tim.c:380:3
	ldr	r0, [sp]
	ldr	r0, [r0]
	ldr	r0, [r0, #32]
	movw	r1, #4369
.Ltmp53:
	.loc	7 380 3                         @ ../ThirdParty/STM32F4xx_HAL_Driver/Src/stm32f4xx_hal_tim.c:380:3
	tst	r0, r1
	bne	.LBB8_5
	b	.LBB8_2
.LBB8_2:
.Ltmp54:
	.loc	7 380 3                         @ ../ThirdParty/STM32F4xx_HAL_Driver/Src/stm32f4xx_hal_tim.c:380:3
	ldr	r0, [sp]
	ldr	r0, [r0]
	ldr	r0, [r0, #32]
	movw	r1, #1092
.Ltmp55:
	.loc	7 380 3                         @ ../ThirdParty/STM32F4xx_HAL_Driver/Src/stm32f4xx_hal_tim.c:380:3
	tst	r0, r1
	bne	.LBB8_4
	b	.LBB8_3
.LBB8_3:
.Ltmp56:
	.loc	7 380 3                         @ ../ThirdParty/STM32F4xx_HAL_Driver/Src/stm32f4xx_hal_tim.c:380:3
	ldr	r0, [sp]
	ldr	r1, [r0]
	ldr	r0, [r1]
	bic	r0, r0, #1
	str	r0, [r1]
	b	.LBB8_4
.Ltmp57:
.LBB8_4:
	.loc	7 380 3                         @ ../ThirdParty/STM32F4xx_HAL_Driver/Src/stm32f4xx_hal_tim.c:380:3
	b	.LBB8_5
.Ltmp58:
.LBB8_5:
	.loc	7 380 3                         @ ../ThirdParty/STM32F4xx_HAL_Driver/Src/stm32f4xx_hal_tim.c:380:3
	b	.LBB8_6
.Ltmp59:
.LBB8_6:
	.loc	7 0 3                           @ ../ThirdParty/STM32F4xx_HAL_Driver/Src/stm32f4xx_hal_tim.c:0:3
	movs	r0, #0
	.loc	7 383 3 epilogue_begin is_stmt 1 @ ../ThirdParty/STM32F4xx_HAL_Driver/Src/stm32f4xx_hal_tim.c:383:3
	add	sp, #4
	bx	lr
.Ltmp60:
.Lfunc_end8:
	.size	HAL_TIM_Base_Stop_IT, .Lfunc_end8-HAL_TIM_Base_Stop_IT
	.cfi_endproc
	.cantunwind
	.fnend
                                        @ -- End function
	.section	.text.HAL_TIM_Base_Start_DMA,"ax",%progbits
	.hidden	HAL_TIM_Base_Start_DMA          @ -- Begin function HAL_TIM_Base_Start_DMA
	.globl	HAL_TIM_Base_Start_DMA
	.p2align	2
	.type	HAL_TIM_Base_Start_DMA,%function
	.code	16                              @ @HAL_TIM_Base_Start_DMA
	.thumb_func
HAL_TIM_Base_Start_DMA:
.Lfunc_begin9:
	.loc	7 395 0                         @ ../ThirdParty/STM32F4xx_HAL_Driver/Src/stm32f4xx_hal_tim.c:395:0
	.fnstart
	.cfi_startproc
@ %bb.0:
	.save	{r7, lr}
	push	{r7, lr}
	.cfi_def_cfa_offset 8
	.cfi_offset lr, -4
	.cfi_offset r7, -8
	.pad	#16
	sub	sp, #16
	.cfi_def_cfa_offset 24
                                        @ kill: def $r3 killed $r2
	str	r0, [sp, #8]
	str	r1, [sp, #4]
	strh.w	r2, [sp, #2]
.Ltmp61:
	.loc	7 399 7 prologue_end            @ ../ThirdParty/STM32F4xx_HAL_Driver/Src/stm32f4xx_hal_tim.c:399:7
	ldr	r0, [sp, #8]
	.loc	7 399 13 is_stmt 0              @ ../ThirdParty/STM32F4xx_HAL_Driver/Src/stm32f4xx_hal_tim.c:399:13
	ldrb.w	r0, [r0, #57]
.Ltmp62:
	.loc	7 399 6                         @ ../ThirdParty/STM32F4xx_HAL_Driver/Src/stm32f4xx_hal_tim.c:399:6
	cmp	r0, #2
	bne	.LBB9_2
	b	.LBB9_1
.LBB9_1:
	.loc	7 0 6                           @ ../ThirdParty/STM32F4xx_HAL_Driver/Src/stm32f4xx_hal_tim.c:0:6
	movs	r0, #2
.Ltmp63:
	.loc	7 401 6 is_stmt 1               @ ../ThirdParty/STM32F4xx_HAL_Driver/Src/stm32f4xx_hal_tim.c:401:6
	strb.w	r0, [sp, #15]
	b	.LBB9_10
.Ltmp64:
.LBB9_2:
	.loc	7 403 12                        @ ../ThirdParty/STM32F4xx_HAL_Driver/Src/stm32f4xx_hal_tim.c:403:12
	ldr	r0, [sp, #8]
	.loc	7 403 18 is_stmt 0              @ ../ThirdParty/STM32F4xx_HAL_Driver/Src/stm32f4xx_hal_tim.c:403:18
	ldrb.w	r0, [r0, #57]
.Ltmp65:
	.loc	7 403 11                        @ ../ThirdParty/STM32F4xx_HAL_Driver/Src/stm32f4xx_hal_tim.c:403:11
	cmp	r0, #1
	bne	.LBB9_8
	b	.LBB9_3
.LBB9_3:
.Ltmp66:
	.loc	7 405 9 is_stmt 1               @ ../ThirdParty/STM32F4xx_HAL_Driver/Src/stm32f4xx_hal_tim.c:405:9
	ldr	r0, [sp, #4]
	.loc	7 405 22 is_stmt 0              @ ../ThirdParty/STM32F4xx_HAL_Driver/Src/stm32f4xx_hal_tim.c:405:22
	cbnz	r0, .LBB9_6
	b	.LBB9_4
.LBB9_4:
	.loc	7 405 26                        @ ../ThirdParty/STM32F4xx_HAL_Driver/Src/stm32f4xx_hal_tim.c:405:26
	ldrh.w	r0, [sp, #2]
.Ltmp67:
	.loc	7 405 8                         @ ../ThirdParty/STM32F4xx_HAL_Driver/Src/stm32f4xx_hal_tim.c:405:8
	cmp	r0, #1
	blt	.LBB9_6
	b	.LBB9_5
.LBB9_5:
	.loc	7 0 8                           @ ../ThirdParty/STM32F4xx_HAL_Driver/Src/stm32f4xx_hal_tim.c:0:8
	movs	r0, #1
.Ltmp68:
	.loc	7 407 7 is_stmt 1               @ ../ThirdParty/STM32F4xx_HAL_Driver/Src/stm32f4xx_hal_tim.c:407:7
	strb.w	r0, [sp, #15]
	b	.LBB9_10
.Ltmp69:
.LBB9_6:
	.loc	7 411 7                         @ ../ThirdParty/STM32F4xx_HAL_Driver/Src/stm32f4xx_hal_tim.c:411:7
	ldr	r1, [sp, #8]
	movs	r0, #2
	.loc	7 411 19 is_stmt 0              @ ../ThirdParty/STM32F4xx_HAL_Driver/Src/stm32f4xx_hal_tim.c:411:19
	strb.w	r0, [r1, #57]
	b	.LBB9_7
.Ltmp70:
.LBB9_7:
	.loc	7 413 3 is_stmt 1               @ ../ThirdParty/STM32F4xx_HAL_Driver/Src/stm32f4xx_hal_tim.c:413:3
	b	.LBB9_8
.Ltmp71:
.LBB9_8:
	.loc	7 0 3 is_stmt 0                 @ ../ThirdParty/STM32F4xx_HAL_Driver/Src/stm32f4xx_hal_tim.c:0:3
	b	.LBB9_9
.LBB9_9:
	.loc	7 415 3 is_stmt 1               @ ../ThirdParty/STM32F4xx_HAL_Driver/Src/stm32f4xx_hal_tim.c:415:3
	ldr	r0, [sp, #8]
	ldr	r1, [r0, #28]
	.loc	7 415 51 is_stmt 0              @ ../ThirdParty/STM32F4xx_HAL_Driver/Src/stm32f4xx_hal_tim.c:415:51
	movw	r0, :lower16:TIM_DMAPeriodElapsedCplt
	movt	r0, :upper16:TIM_DMAPeriodElapsedCplt
	str	r0, [r1, #60]
	.loc	7 418 3 is_stmt 1               @ ../ThirdParty/STM32F4xx_HAL_Driver/Src/stm32f4xx_hal_tim.c:418:3
	ldr	r0, [sp, #8]
	ldr	r1, [r0, #28]
	.loc	7 418 52 is_stmt 0              @ ../ThirdParty/STM32F4xx_HAL_Driver/Src/stm32f4xx_hal_tim.c:418:52
	movw	r0, :lower16:TIM_DMAError
	movt	r0, :upper16:TIM_DMAError
	str	r0, [r1, #76]
	.loc	7 421 20 is_stmt 1              @ ../ThirdParty/STM32F4xx_HAL_Driver/Src/stm32f4xx_hal_tim.c:421:20
	ldr	r0, [sp, #8]
	.loc	7 421 85 is_stmt 0              @ ../ThirdParty/STM32F4xx_HAL_Driver/Src/stm32f4xx_hal_tim.c:421:85
	ldr	r2, [r0]
	.loc	7 421 20                        @ ../ThirdParty/STM32F4xx_HAL_Driver/Src/stm32f4xx_hal_tim.c:421:20
	ldr	r0, [r0, #28]
	.loc	7 421 61                        @ ../ThirdParty/STM32F4xx_HAL_Driver/Src/stm32f4xx_hal_tim.c:421:61
	ldr	r1, [sp, #4]
	.loc	7 421 95                        @ ../ThirdParty/STM32F4xx_HAL_Driver/Src/stm32f4xx_hal_tim.c:421:95
	adds	r2, #44
	.loc	7 421 100                       @ ../ThirdParty/STM32F4xx_HAL_Driver/Src/stm32f4xx_hal_tim.c:421:100
	ldrh.w	r3, [sp, #2]
	.loc	7 421 3                         @ ../ThirdParty/STM32F4xx_HAL_Driver/Src/stm32f4xx_hal_tim.c:421:3
	bl	HAL_DMA_Start_IT
	.loc	7 424 3 is_stmt 1               @ ../ThirdParty/STM32F4xx_HAL_Driver/Src/stm32f4xx_hal_tim.c:424:3
	ldr	r0, [sp, #8]
	ldr	r1, [r0]
	ldr	r0, [r1, #12]
	orr	r0, r0, #256
	str	r0, [r1, #12]
	.loc	7 427 3                         @ ../ThirdParty/STM32F4xx_HAL_Driver/Src/stm32f4xx_hal_tim.c:427:3
	ldr	r0, [sp, #8]
	ldr	r1, [r0]
	ldr	r0, [r1]
	orr	r0, r0, #1
	str	r0, [r1]
	movs	r0, #0
	.loc	7 430 3                         @ ../ThirdParty/STM32F4xx_HAL_Driver/Src/stm32f4xx_hal_tim.c:430:3
	strb.w	r0, [sp, #15]
	b	.LBB9_10
.LBB9_10:
	.loc	7 431 1                         @ ../ThirdParty/STM32F4xx_HAL_Driver/Src/stm32f4xx_hal_tim.c:431:1
	ldrb.w	r0, [sp, #15]
	.loc	7 431 1 epilogue_begin is_stmt 0 @ ../ThirdParty/STM32F4xx_HAL_Driver/Src/stm32f4xx_hal_tim.c:431:1
	add	sp, #16
	pop	{r7, pc}
.Ltmp72:
.Lfunc_end9:
	.size	HAL_TIM_Base_Start_DMA, .Lfunc_end9-HAL_TIM_Base_Start_DMA
	.cfi_endproc
	.cantunwind
	.fnend
                                        @ -- End function
	.section	.text.TIM_DMAPeriodElapsedCplt,"ax",%progbits
	.p2align	2                               @ -- Begin function TIM_DMAPeriodElapsedCplt
	.type	TIM_DMAPeriodElapsedCplt,%function
	.code	16                              @ @TIM_DMAPeriodElapsedCplt
	.thumb_func
TIM_DMAPeriodElapsedCplt:
.Lfunc_begin10:
	.loc	7 4763 0 is_stmt 1              @ ../ThirdParty/STM32F4xx_HAL_Driver/Src/stm32f4xx_hal_tim.c:4763:0
	.fnstart
	.cfi_startproc
@ %bb.0:
	.save	{r7, lr}
	push	{r7, lr}
	.cfi_def_cfa_offset 8
	.cfi_offset lr, -4
	.cfi_offset r7, -8
	.pad	#8
	sub	sp, #8
	.cfi_def_cfa_offset 16
	str	r0, [sp, #4]
.Ltmp73:
	.loc	7 4764 73 prologue_end          @ ../ThirdParty/STM32F4xx_HAL_Driver/Src/stm32f4xx_hal_tim.c:4764:73
	ldr	r0, [sp, #4]
	.loc	7 4764 80 is_stmt 0             @ ../ThirdParty/STM32F4xx_HAL_Driver/Src/stm32f4xx_hal_tim.c:4764:80
	ldr	r0, [r0, #56]
	.loc	7 4764 22                       @ ../ThirdParty/STM32F4xx_HAL_Driver/Src/stm32f4xx_hal_tim.c:4764:22
	str	r0, [sp]
	.loc	7 4766 3 is_stmt 1              @ ../ThirdParty/STM32F4xx_HAL_Driver/Src/stm32f4xx_hal_tim.c:4766:3
	ldr	r1, [sp]
	movs	r0, #1
	.loc	7 4766 14 is_stmt 0             @ ../ThirdParty/STM32F4xx_HAL_Driver/Src/stm32f4xx_hal_tim.c:4766:14
	strb.w	r0, [r1, #57]
	.loc	7 4768 33 is_stmt 1             @ ../ThirdParty/STM32F4xx_HAL_Driver/Src/stm32f4xx_hal_tim.c:4768:33
	ldr	r0, [sp]
	.loc	7 4768 3 is_stmt 0              @ ../ThirdParty/STM32F4xx_HAL_Driver/Src/stm32f4xx_hal_tim.c:4768:3
	bl	HAL_TIM_PeriodElapsedCallback
	.loc	7 4769 1 epilogue_begin is_stmt 1 @ ../ThirdParty/STM32F4xx_HAL_Driver/Src/stm32f4xx_hal_tim.c:4769:1
	add	sp, #8
	pop	{r7, pc}
.Ltmp74:
.Lfunc_end10:
	.size	TIM_DMAPeriodElapsedCplt, .Lfunc_end10-TIM_DMAPeriodElapsedCplt
	.cfi_endproc
	.cantunwind
	.fnend
                                        @ -- End function
	.section	.text.TIM_DMAError,"ax",%progbits
	.hidden	TIM_DMAError                    @ -- Begin function TIM_DMAError
	.globl	TIM_DMAError
	.p2align	2
	.type	TIM_DMAError,%function
	.code	16                              @ @TIM_DMAError
	.thumb_func
TIM_DMAError:
.Lfunc_begin11:
	.loc	7 4684 0                        @ ../ThirdParty/STM32F4xx_HAL_Driver/Src/stm32f4xx_hal_tim.c:4684:0
	.fnstart
	.cfi_startproc
@ %bb.0:
	.save	{r7, lr}
	push	{r7, lr}
	.cfi_def_cfa_offset 8
	.cfi_offset lr, -4
	.cfi_offset r7, -8
	.pad	#8
	sub	sp, #8
	.cfi_def_cfa_offset 16
	str	r0, [sp, #4]
.Ltmp75:
	.loc	7 4685 73 prologue_end          @ ../ThirdParty/STM32F4xx_HAL_Driver/Src/stm32f4xx_hal_tim.c:4685:73
	ldr	r0, [sp, #4]
	.loc	7 4685 80 is_stmt 0             @ ../ThirdParty/STM32F4xx_HAL_Driver/Src/stm32f4xx_hal_tim.c:4685:80
	ldr	r0, [r0, #56]
	.loc	7 4685 22                       @ ../ThirdParty/STM32F4xx_HAL_Driver/Src/stm32f4xx_hal_tim.c:4685:22
	str	r0, [sp]
	.loc	7 4687 3 is_stmt 1              @ ../ThirdParty/STM32F4xx_HAL_Driver/Src/stm32f4xx_hal_tim.c:4687:3
	ldr	r1, [sp]
	movs	r0, #1
	.loc	7 4687 14 is_stmt 0             @ ../ThirdParty/STM32F4xx_HAL_Driver/Src/stm32f4xx_hal_tim.c:4687:14
	strb.w	r0, [r1, #57]
	.loc	7 4689 25 is_stmt 1             @ ../ThirdParty/STM32F4xx_HAL_Driver/Src/stm32f4xx_hal_tim.c:4689:25
	ldr	r0, [sp]
	.loc	7 4689 3 is_stmt 0              @ ../ThirdParty/STM32F4xx_HAL_Driver/Src/stm32f4xx_hal_tim.c:4689:3
	bl	HAL_TIM_ErrorCallback
	.loc	7 4690 1 epilogue_begin is_stmt 1 @ ../ThirdParty/STM32F4xx_HAL_Driver/Src/stm32f4xx_hal_tim.c:4690:1
	add	sp, #8
	pop	{r7, pc}
.Ltmp76:
.Lfunc_end11:
	.size	TIM_DMAError, .Lfunc_end11-TIM_DMAError
	.cfi_endproc
	.cantunwind
	.fnend
                                        @ -- End function
	.section	.text.HAL_TIM_Base_Stop_DMA,"ax",%progbits
	.hidden	HAL_TIM_Base_Stop_DMA           @ -- Begin function HAL_TIM_Base_Stop_DMA
	.globl	HAL_TIM_Base_Stop_DMA
	.p2align	2
	.type	HAL_TIM_Base_Stop_DMA,%function
	.code	16                              @ @HAL_TIM_Base_Stop_DMA
	.thumb_func
HAL_TIM_Base_Stop_DMA:
.Lfunc_begin12:
	.loc	7 440 0                         @ ../ThirdParty/STM32F4xx_HAL_Driver/Src/stm32f4xx_hal_tim.c:440:0
	.fnstart
	.cfi_startproc
@ %bb.0:
	.pad	#4
	sub	sp, #4
	.cfi_def_cfa_offset 4
	str	r0, [sp]
.Ltmp77:
	.loc	7 445 3 prologue_end            @ ../ThirdParty/STM32F4xx_HAL_Driver/Src/stm32f4xx_hal_tim.c:445:3
	ldr	r0, [sp]
	ldr	r1, [r0]
	ldr	r0, [r1, #12]
	bic	r0, r0, #256
	str	r0, [r1, #12]
	.loc	7 448 3                         @ ../ThirdParty/STM32F4xx_HAL_Driver/Src/stm32f4xx_hal_tim.c:448:3
	b	.LBB12_1
.LBB12_1:
.Ltmp78:
	.loc	7 448 3 is_stmt 0               @ ../ThirdParty/STM32F4xx_HAL_Driver/Src/stm32f4xx_hal_tim.c:448:3
	ldr	r0, [sp]
	ldr	r0, [r0]
	ldr	r0, [r0, #32]
	movw	r1, #4369
.Ltmp79:
	.loc	7 448 3                         @ ../ThirdParty/STM32F4xx_HAL_Driver/Src/stm32f4xx_hal_tim.c:448:3
	tst	r0, r1
	bne	.LBB12_5
	b	.LBB12_2
.LBB12_2:
.Ltmp80:
	.loc	7 448 3                         @ ../ThirdParty/STM32F4xx_HAL_Driver/Src/stm32f4xx_hal_tim.c:448:3
	ldr	r0, [sp]
	ldr	r0, [r0]
	ldr	r0, [r0, #32]
	movw	r1, #1092
.Ltmp81:
	.loc	7 448 3                         @ ../ThirdParty/STM32F4xx_HAL_Driver/Src/stm32f4xx_hal_tim.c:448:3
	tst	r0, r1
	bne	.LBB12_4
	b	.LBB12_3
.LBB12_3:
.Ltmp82:
	.loc	7 448 3                         @ ../ThirdParty/STM32F4xx_HAL_Driver/Src/stm32f4xx_hal_tim.c:448:3
	ldr	r0, [sp]
	ldr	r1, [r0]
	ldr	r0, [r1]
	bic	r0, r0, #1
	str	r0, [r1]
	b	.LBB12_4
.Ltmp83:
.LBB12_4:
	.loc	7 448 3                         @ ../ThirdParty/STM32F4xx_HAL_Driver/Src/stm32f4xx_hal_tim.c:448:3
	b	.LBB12_5
.Ltmp84:
.LBB12_5:
	.loc	7 448 3                         @ ../ThirdParty/STM32F4xx_HAL_Driver/Src/stm32f4xx_hal_tim.c:448:3
	b	.LBB12_6
.Ltmp85:
.LBB12_6:
	.loc	7 451 3 is_stmt 1               @ ../ThirdParty/STM32F4xx_HAL_Driver/Src/stm32f4xx_hal_tim.c:451:3
	ldr	r1, [sp]
	movs	r0, #1
	.loc	7 451 15 is_stmt 0              @ ../ThirdParty/STM32F4xx_HAL_Driver/Src/stm32f4xx_hal_tim.c:451:15
	strb.w	r0, [r1, #57]
	movs	r0, #0
	.loc	7 454 3 epilogue_begin is_stmt 1 @ ../ThirdParty/STM32F4xx_HAL_Driver/Src/stm32f4xx_hal_tim.c:454:3
	add	sp, #4
	bx	lr
.Ltmp86:
.Lfunc_end12:
	.size	HAL_TIM_Base_Stop_DMA, .Lfunc_end12-HAL_TIM_Base_Stop_DMA
	.cfi_endproc
	.cantunwind
	.fnend
                                        @ -- End function
	.section	.text.HAL_TIM_OC_Init,"ax",%progbits
	.hidden	HAL_TIM_OC_Init                 @ -- Begin function HAL_TIM_OC_Init
	.globl	HAL_TIM_OC_Init
	.p2align	2
	.type	HAL_TIM_OC_Init,%function
	.code	16                              @ @HAL_TIM_OC_Init
	.thumb_func
HAL_TIM_OC_Init:
.Lfunc_begin13:
	.loc	7 489 0                         @ ../ThirdParty/STM32F4xx_HAL_Driver/Src/stm32f4xx_hal_tim.c:489:0
	.fnstart
	.cfi_startproc
@ %bb.0:
	.save	{r7, lr}
	push	{r7, lr}
	.cfi_def_cfa_offset 8
	.cfi_offset lr, -4
	.cfi_offset r7, -8
	.pad	#8
	sub	sp, #8
	.cfi_def_cfa_offset 16
	str	r0, [sp]
.Ltmp87:
	.loc	7 491 6 prologue_end            @ ../ThirdParty/STM32F4xx_HAL_Driver/Src/stm32f4xx_hal_tim.c:491:6
	ldr	r0, [sp]
.Ltmp88:
	.loc	7 491 6 is_stmt 0               @ ../ThirdParty/STM32F4xx_HAL_Driver/Src/stm32f4xx_hal_tim.c:491:6
	cbnz	r0, .LBB13_2
	b	.LBB13_1
.LBB13_1:
	.loc	7 0 6                           @ ../ThirdParty/STM32F4xx_HAL_Driver/Src/stm32f4xx_hal_tim.c:0:6
	movs	r0, #1
.Ltmp89:
	.loc	7 493 5 is_stmt 1               @ ../ThirdParty/STM32F4xx_HAL_Driver/Src/stm32f4xx_hal_tim.c:493:5
	strb.w	r0, [sp, #7]
	b	.LBB13_5
.Ltmp90:
.LBB13_2:
	.loc	7 501 6                         @ ../ThirdParty/STM32F4xx_HAL_Driver/Src/stm32f4xx_hal_tim.c:501:6
	ldr	r0, [sp]
	.loc	7 501 12 is_stmt 0              @ ../ThirdParty/STM32F4xx_HAL_Driver/Src/stm32f4xx_hal_tim.c:501:12
	ldrb.w	r0, [r0, #57]
.Ltmp91:
	.loc	7 501 6                         @ ../ThirdParty/STM32F4xx_HAL_Driver/Src/stm32f4xx_hal_tim.c:501:6
	cbnz	r0, .LBB13_4
	b	.LBB13_3
.LBB13_3:
.Ltmp92:
	.loc	7 504 5 is_stmt 1               @ ../ThirdParty/STM32F4xx_HAL_Driver/Src/stm32f4xx_hal_tim.c:504:5
	ldr	r1, [sp]
	movs	r0, #0
	.loc	7 504 16 is_stmt 0              @ ../ThirdParty/STM32F4xx_HAL_Driver/Src/stm32f4xx_hal_tim.c:504:16
	strb.w	r0, [r1, #56]
	.loc	7 506 24 is_stmt 1              @ ../ThirdParty/STM32F4xx_HAL_Driver/Src/stm32f4xx_hal_tim.c:506:24
	ldr	r0, [sp]
	.loc	7 506 5 is_stmt 0               @ ../ThirdParty/STM32F4xx_HAL_Driver/Src/stm32f4xx_hal_tim.c:506:5
	bl	HAL_TIM_OC_MspInit
	.loc	7 507 3 is_stmt 1               @ ../ThirdParty/STM32F4xx_HAL_Driver/Src/stm32f4xx_hal_tim.c:507:3
	b	.LBB13_4
.Ltmp93:
.LBB13_4:
	.loc	7 510 3                         @ ../ThirdParty/STM32F4xx_HAL_Driver/Src/stm32f4xx_hal_tim.c:510:3
	ldr	r1, [sp]
	movs	r0, #2
	.loc	7 510 14 is_stmt 0              @ ../ThirdParty/STM32F4xx_HAL_Driver/Src/stm32f4xx_hal_tim.c:510:14
	strb.w	r0, [r1, #57]
	.loc	7 513 22 is_stmt 1              @ ../ThirdParty/STM32F4xx_HAL_Driver/Src/stm32f4xx_hal_tim.c:513:22
	ldr	r1, [sp]
	.loc	7 513 28 is_stmt 0              @ ../ThirdParty/STM32F4xx_HAL_Driver/Src/stm32f4xx_hal_tim.c:513:28
	ldr	r0, [r1], #4
	.loc	7 513 3                         @ ../ThirdParty/STM32F4xx_HAL_Driver/Src/stm32f4xx_hal_tim.c:513:3
	bl	TIM_Base_SetConfig
	.loc	7 516 3 is_stmt 1               @ ../ThirdParty/STM32F4xx_HAL_Driver/Src/stm32f4xx_hal_tim.c:516:3
	ldr	r1, [sp]
	movs	r0, #1
	.loc	7 516 14 is_stmt 0              @ ../ThirdParty/STM32F4xx_HAL_Driver/Src/stm32f4xx_hal_tim.c:516:14
	strb.w	r0, [r1, #57]
	movs	r0, #0
	.loc	7 518 3 is_stmt 1               @ ../ThirdParty/STM32F4xx_HAL_Driver/Src/stm32f4xx_hal_tim.c:518:3
	strb.w	r0, [sp, #7]
	b	.LBB13_5
.LBB13_5:
	.loc	7 519 1                         @ ../ThirdParty/STM32F4xx_HAL_Driver/Src/stm32f4xx_hal_tim.c:519:1
	ldrb.w	r0, [sp, #7]
	.loc	7 519 1 epilogue_begin is_stmt 0 @ ../ThirdParty/STM32F4xx_HAL_Driver/Src/stm32f4xx_hal_tim.c:519:1
	add	sp, #8
	pop	{r7, pc}
.Ltmp94:
.Lfunc_end13:
	.size	HAL_TIM_OC_Init, .Lfunc_end13-HAL_TIM_OC_Init
	.cfi_endproc
	.cantunwind
	.fnend
                                        @ -- End function
	.section	.text.HAL_TIM_OC_MspInit,"ax",%progbits
	.hidden	HAL_TIM_OC_MspInit              @ -- Begin function HAL_TIM_OC_MspInit
	.weak	HAL_TIM_OC_MspInit
	.p2align	2
	.type	HAL_TIM_OC_MspInit,%function
	.code	16                              @ @HAL_TIM_OC_MspInit
	.thumb_func
HAL_TIM_OC_MspInit:
.Lfunc_begin14:
	.loc	7 556 0 is_stmt 1               @ ../ThirdParty/STM32F4xx_HAL_Driver/Src/stm32f4xx_hal_tim.c:556:0
	.fnstart
	.cfi_startproc
@ %bb.0:
	.pad	#4
	sub	sp, #4
	.cfi_def_cfa_offset 4
	str	r0, [sp]
.Ltmp95:
	.loc	7 562 1 prologue_end epilogue_begin @ ../ThirdParty/STM32F4xx_HAL_Driver/Src/stm32f4xx_hal_tim.c:562:1
	add	sp, #4
	bx	lr
.Ltmp96:
.Lfunc_end14:
	.size	HAL_TIM_OC_MspInit, .Lfunc_end14-HAL_TIM_OC_MspInit
	.cfi_endproc
	.cantunwind
	.fnend
                                        @ -- End function
	.section	.text.HAL_TIM_OC_DeInit,"ax",%progbits
	.hidden	HAL_TIM_OC_DeInit               @ -- Begin function HAL_TIM_OC_DeInit
	.globl	HAL_TIM_OC_DeInit
	.p2align	2
	.type	HAL_TIM_OC_DeInit,%function
	.code	16                              @ @HAL_TIM_OC_DeInit
	.thumb_func
HAL_TIM_OC_DeInit:
.Lfunc_begin15:
	.loc	7 528 0                         @ ../ThirdParty/STM32F4xx_HAL_Driver/Src/stm32f4xx_hal_tim.c:528:0
	.fnstart
	.cfi_startproc
@ %bb.0:
	.save	{r7, lr}
	push	{r7, lr}
	.cfi_def_cfa_offset 8
	.cfi_offset lr, -4
	.cfi_offset r7, -8
	.pad	#8
	sub	sp, #8
	.cfi_def_cfa_offset 16
	str	r0, [sp, #4]
.Ltmp97:
	.loc	7 532 4 prologue_end            @ ../ThirdParty/STM32F4xx_HAL_Driver/Src/stm32f4xx_hal_tim.c:532:4
	ldr	r1, [sp, #4]
	movs	r0, #2
	.loc	7 532 16 is_stmt 0              @ ../ThirdParty/STM32F4xx_HAL_Driver/Src/stm32f4xx_hal_tim.c:532:16
	strb.w	r0, [r1, #57]
	.loc	7 535 3 is_stmt 1               @ ../ThirdParty/STM32F4xx_HAL_Driver/Src/stm32f4xx_hal_tim.c:535:3
	b	.LBB15_1
.LBB15_1:
.Ltmp98:
	.loc	7 535 3 is_stmt 0               @ ../ThirdParty/STM32F4xx_HAL_Driver/Src/stm32f4xx_hal_tim.c:535:3
	ldr	r0, [sp, #4]
	ldr	r0, [r0]
	ldr	r0, [r0, #32]
	movw	r1, #4369
.Ltmp99:
	.loc	7 535 3                         @ ../ThirdParty/STM32F4xx_HAL_Driver/Src/stm32f4xx_hal_tim.c:535:3
	tst	r0, r1
	bne	.LBB15_5
	b	.LBB15_2
.LBB15_2:
.Ltmp100:
	.loc	7 535 3                         @ ../ThirdParty/STM32F4xx_HAL_Driver/Src/stm32f4xx_hal_tim.c:535:3
	ldr	r0, [sp, #4]
	ldr	r0, [r0]
	ldr	r0, [r0, #32]
	movw	r1, #1092
.Ltmp101:
	.loc	7 535 3                         @ ../ThirdParty/STM32F4xx_HAL_Driver/Src/stm32f4xx_hal_tim.c:535:3
	tst	r0, r1
	bne	.LBB15_4
	b	.LBB15_3
.LBB15_3:
.Ltmp102:
	.loc	7 535 3                         @ ../ThirdParty/STM32F4xx_HAL_Driver/Src/stm32f4xx_hal_tim.c:535:3
	ldr	r0, [sp, #4]
	ldr	r1, [r0]
	ldr	r0, [r1]
	bic	r0, r0, #1
	str	r0, [r1]
	b	.LBB15_4
.Ltmp103:
.LBB15_4:
	.loc	7 535 3                         @ ../ThirdParty/STM32F4xx_HAL_Driver/Src/stm32f4xx_hal_tim.c:535:3
	b	.LBB15_5
.Ltmp104:
.LBB15_5:
	.loc	7 535 3                         @ ../ThirdParty/STM32F4xx_HAL_Driver/Src/stm32f4xx_hal_tim.c:535:3
	b	.LBB15_6
.Ltmp105:
.LBB15_6:
	.loc	7 538 24 is_stmt 1              @ ../ThirdParty/STM32F4xx_HAL_Driver/Src/stm32f4xx_hal_tim.c:538:24
	ldr	r0, [sp, #4]
	.loc	7 538 3 is_stmt 0               @ ../ThirdParty/STM32F4xx_HAL_Driver/Src/stm32f4xx_hal_tim.c:538:3
	bl	HAL_TIM_OC_MspDeInit
	.loc	7 541 3 is_stmt 1               @ ../ThirdParty/STM32F4xx_HAL_Driver/Src/stm32f4xx_hal_tim.c:541:3
	ldr	r1, [sp, #4]
	movs	r0, #0
	.loc	7 541 15 is_stmt 0              @ ../ThirdParty/STM32F4xx_HAL_Driver/Src/stm32f4xx_hal_tim.c:541:15
	strb.w	r0, [r1, #57]
	.loc	7 544 3 is_stmt 1               @ ../ThirdParty/STM32F4xx_HAL_Driver/Src/stm32f4xx_hal_tim.c:544:3
	b	.LBB15_7
.LBB15_7:
.Ltmp106:
	.loc	7 544 3 is_stmt 0               @ ../ThirdParty/STM32F4xx_HAL_Driver/Src/stm32f4xx_hal_tim.c:544:3
	ldr	r1, [sp, #4]
	movs	r0, #0
	strb.w	r0, [r1, #56]
	b	.LBB15_8
.Ltmp107:
.LBB15_8:
	.loc	7 0 3                           @ ../ThirdParty/STM32F4xx_HAL_Driver/Src/stm32f4xx_hal_tim.c:0:3
	movs	r0, #0
	.loc	7 546 3 epilogue_begin is_stmt 1 @ ../ThirdParty/STM32F4xx_HAL_Driver/Src/stm32f4xx_hal_tim.c:546:3
	add	sp, #8
	pop	{r7, pc}
.Ltmp108:
.Lfunc_end15:
	.size	HAL_TIM_OC_DeInit, .Lfunc_end15-HAL_TIM_OC_DeInit
	.cfi_endproc
	.cantunwind
	.fnend
                                        @ -- End function
	.section	.text.HAL_TIM_OC_MspDeInit,"ax",%progbits
	.hidden	HAL_TIM_OC_MspDeInit            @ -- Begin function HAL_TIM_OC_MspDeInit
	.weak	HAL_TIM_OC_MspDeInit
	.p2align	2
	.type	HAL_TIM_OC_MspDeInit,%function
	.code	16                              @ @HAL_TIM_OC_MspDeInit
	.thumb_func
HAL_TIM_OC_MspDeInit:
.Lfunc_begin16:
	.loc	7 571 0                         @ ../ThirdParty/STM32F4xx_HAL_Driver/Src/stm32f4xx_hal_tim.c:571:0
	.fnstart
	.cfi_startproc
@ %bb.0:
	.pad	#4
	sub	sp, #4
	.cfi_def_cfa_offset 4
	str	r0, [sp]
.Ltmp109:
	.loc	7 577 1 prologue_end epilogue_begin @ ../ThirdParty/STM32F4xx_HAL_Driver/Src/stm32f4xx_hal_tim.c:577:1
	add	sp, #4
	bx	lr
.Ltmp110:
.Lfunc_end16:
	.size	HAL_TIM_OC_MspDeInit, .Lfunc_end16-HAL_TIM_OC_MspDeInit
	.cfi_endproc
	.cantunwind
	.fnend
                                        @ -- End function
	.section	.text.HAL_TIM_OC_Start,"ax",%progbits
	.hidden	HAL_TIM_OC_Start                @ -- Begin function HAL_TIM_OC_Start
	.globl	HAL_TIM_OC_Start
	.p2align	2
	.type	HAL_TIM_OC_Start,%function
	.code	16                              @ @HAL_TIM_OC_Start
	.thumb_func
HAL_TIM_OC_Start:
.Lfunc_begin17:
	.loc	7 592 0                         @ ../ThirdParty/STM32F4xx_HAL_Driver/Src/stm32f4xx_hal_tim.c:592:0
	.fnstart
	.cfi_startproc
@ %bb.0:
	.save	{r7, lr}
	push	{r7, lr}
	.cfi_def_cfa_offset 8
	.cfi_offset lr, -4
	.cfi_offset r7, -8
	.pad	#16
	sub	sp, #16
	.cfi_def_cfa_offset 24
	str	r0, [sp, #12]
	str	r1, [sp, #8]
.Ltmp111:
	.loc	7 597 21 prologue_end           @ ../ThirdParty/STM32F4xx_HAL_Driver/Src/stm32f4xx_hal_tim.c:597:21
	ldr	r0, [sp, #12]
	.loc	7 597 27 is_stmt 0              @ ../ThirdParty/STM32F4xx_HAL_Driver/Src/stm32f4xx_hal_tim.c:597:27
	ldr	r0, [r0]
	.loc	7 597 37                        @ ../ThirdParty/STM32F4xx_HAL_Driver/Src/stm32f4xx_hal_tim.c:597:37
	ldr	r1, [sp, #8]
	movs	r2, #1
	.loc	7 597 3                         @ ../ThirdParty/STM32F4xx_HAL_Driver/Src/stm32f4xx_hal_tim.c:597:3
	str	r2, [sp]                        @ 4-byte Spill
	bl	TIM_CCxChannelCmd
	ldr	r0, [sp]                        @ 4-byte Reload
.Ltmp112:
	.loc	7 599 6 is_stmt 1               @ ../ThirdParty/STM32F4xx_HAL_Driver/Src/stm32f4xx_hal_tim.c:599:6
	ldr	r1, [sp, #12]
	ldr	r1, [r1]
	movs	r2, #0
	movt	r2, #16385
	cmp	r1, r2
	str	r0, [sp, #4]                    @ 4-byte Spill
	beq	.LBB17_2
	b	.LBB17_1
.LBB17_1:
	ldr	r0, [sp, #12]
	ldr	r0, [r0]
	movw	r1, #64512
	movt	r1, #49150
	add	r0, r1
	clz	r0, r0
	lsrs	r0, r0, #5
	str	r0, [sp, #4]                    @ 4-byte Spill
	b	.LBB17_2
.Ltmp113:
.LBB17_2:
	.loc	7 0 6 is_stmt 0                 @ ../ThirdParty/STM32F4xx_HAL_Driver/Src/stm32f4xx_hal_tim.c:0:6
	ldr	r0, [sp, #4]                    @ 4-byte Reload
	.loc	7 599 6                         @ ../ThirdParty/STM32F4xx_HAL_Driver/Src/stm32f4xx_hal_tim.c:599:6
	lsls	r0, r0, #31
	cbz	r0, .LBB17_4
	b	.LBB17_3
.LBB17_3:
.Ltmp114:
	.loc	7 602 5 is_stmt 1               @ ../ThirdParty/STM32F4xx_HAL_Driver/Src/stm32f4xx_hal_tim.c:602:5
	ldr	r0, [sp, #12]
	ldr	r1, [r0]
	ldr	r0, [r1, #68]
	orr	r0, r0, #32768
	str	r0, [r1, #68]
	.loc	7 603 3                         @ ../ThirdParty/STM32F4xx_HAL_Driver/Src/stm32f4xx_hal_tim.c:603:3
	b	.LBB17_4
.Ltmp115:
.LBB17_4:
	.loc	7 606 3                         @ ../ThirdParty/STM32F4xx_HAL_Driver/Src/stm32f4xx_hal_tim.c:606:3
	ldr	r0, [sp, #12]
	ldr	r1, [r0]
	ldr	r0, [r1]
	orr	r0, r0, #1
	str	r0, [r1]
	movs	r0, #0
	.loc	7 609 3 epilogue_begin          @ ../ThirdParty/STM32F4xx_HAL_Driver/Src/stm32f4xx_hal_tim.c:609:3
	add	sp, #16
	pop	{r7, pc}
.Ltmp116:
.Lfunc_end17:
	.size	HAL_TIM_OC_Start, .Lfunc_end17-HAL_TIM_OC_Start
	.cfi_endproc
	.cantunwind
	.fnend
                                        @ -- End function
	.section	.text.TIM_CCxChannelCmd,"ax",%progbits
	.hidden	TIM_CCxChannelCmd               @ -- Begin function TIM_CCxChannelCmd
	.globl	TIM_CCxChannelCmd
	.p2align	2
	.type	TIM_CCxChannelCmd,%function
	.code	16                              @ @TIM_CCxChannelCmd
	.thumb_func
TIM_CCxChannelCmd:
.Lfunc_begin18:
	.loc	7 4740 0                        @ ../ThirdParty/STM32F4xx_HAL_Driver/Src/stm32f4xx_hal_tim.c:4740:0
	.fnstart
	.cfi_startproc
@ %bb.0:
	.pad	#16
	sub	sp, #16
	.cfi_def_cfa_offset 16
	str	r0, [sp, #12]
	str	r1, [sp, #8]
	str	r2, [sp, #4]
	movs	r0, #0
.Ltmp117:
	.loc	7 4741 12 prologue_end          @ ../ThirdParty/STM32F4xx_HAL_Driver/Src/stm32f4xx_hal_tim.c:4741:12
	str	r0, [sp]
	.loc	7 4747 26                       @ ../ThirdParty/STM32F4xx_HAL_Driver/Src/stm32f4xx_hal_tim.c:4747:26
	ldr	r1, [sp, #8]
	movs	r0, #1
	.loc	7 4747 23 is_stmt 0             @ ../ThirdParty/STM32F4xx_HAL_Driver/Src/stm32f4xx_hal_tim.c:4747:23
	lsls	r0, r1
	.loc	7 4747 7                        @ ../ThirdParty/STM32F4xx_HAL_Driver/Src/stm32f4xx_hal_tim.c:4747:7
	str	r0, [sp]
	.loc	7 4750 18 is_stmt 1             @ ../ThirdParty/STM32F4xx_HAL_Driver/Src/stm32f4xx_hal_tim.c:4750:18
	ldr	r2, [sp]
	.loc	7 4750 3 is_stmt 0              @ ../ThirdParty/STM32F4xx_HAL_Driver/Src/stm32f4xx_hal_tim.c:4750:3
	ldr	r1, [sp, #12]
	.loc	7 4750 14                       @ ../ThirdParty/STM32F4xx_HAL_Driver/Src/stm32f4xx_hal_tim.c:4750:14
	ldr	r0, [r1, #32]
	bics	r0, r2
	str	r0, [r1, #32]
	.loc	7 4753 28 is_stmt 1             @ ../ThirdParty/STM32F4xx_HAL_Driver/Src/stm32f4xx_hal_tim.c:4753:28
	ldr	r0, [sp, #4]
	.loc	7 4753 44 is_stmt 0             @ ../ThirdParty/STM32F4xx_HAL_Driver/Src/stm32f4xx_hal_tim.c:4753:44
	ldr	r1, [sp, #8]
	.loc	7 4753 41                       @ ../ThirdParty/STM32F4xx_HAL_Driver/Src/stm32f4xx_hal_tim.c:4753:41
	lsl.w	r2, r0, r1
	.loc	7 4753 3                        @ ../ThirdParty/STM32F4xx_HAL_Driver/Src/stm32f4xx_hal_tim.c:4753:3
	ldr	r1, [sp, #12]
	.loc	7 4753 14                       @ ../ThirdParty/STM32F4xx_HAL_Driver/Src/stm32f4xx_hal_tim.c:4753:14
	ldr	r0, [r1, #32]
	orrs	r0, r2
	str	r0, [r1, #32]
	.loc	7 4754 1 epilogue_begin is_stmt 1 @ ../ThirdParty/STM32F4xx_HAL_Driver/Src/stm32f4xx_hal_tim.c:4754:1
	add	sp, #16
	bx	lr
.Ltmp118:
.Lfunc_end18:
	.size	TIM_CCxChannelCmd, .Lfunc_end18-TIM_CCxChannelCmd
	.cfi_endproc
	.cantunwind
	.fnend
                                        @ -- End function
	.section	.text.HAL_TIM_OC_Stop,"ax",%progbits
	.hidden	HAL_TIM_OC_Stop                 @ -- Begin function HAL_TIM_OC_Stop
	.globl	HAL_TIM_OC_Stop
	.p2align	2
	.type	HAL_TIM_OC_Stop,%function
	.code	16                              @ @HAL_TIM_OC_Stop
	.thumb_func
HAL_TIM_OC_Stop:
.Lfunc_begin19:
	.loc	7 625 0                         @ ../ThirdParty/STM32F4xx_HAL_Driver/Src/stm32f4xx_hal_tim.c:625:0
	.fnstart
	.cfi_startproc
@ %bb.0:
	.save	{r7, lr}
	push	{r7, lr}
	.cfi_def_cfa_offset 8
	.cfi_offset lr, -4
	.cfi_offset r7, -8
	.pad	#16
	sub	sp, #16
	.cfi_def_cfa_offset 24
	str	r0, [sp, #12]
	str	r1, [sp, #8]
.Ltmp119:
	.loc	7 630 21 prologue_end           @ ../ThirdParty/STM32F4xx_HAL_Driver/Src/stm32f4xx_hal_tim.c:630:21
	ldr	r0, [sp, #12]
	.loc	7 630 27 is_stmt 0              @ ../ThirdParty/STM32F4xx_HAL_Driver/Src/stm32f4xx_hal_tim.c:630:27
	ldr	r0, [r0]
	.loc	7 630 37                        @ ../ThirdParty/STM32F4xx_HAL_Driver/Src/stm32f4xx_hal_tim.c:630:37
	ldr	r1, [sp, #8]
	movs	r2, #0
	.loc	7 630 3                         @ ../ThirdParty/STM32F4xx_HAL_Driver/Src/stm32f4xx_hal_tim.c:630:3
	bl	TIM_CCxChannelCmd
.Ltmp120:
	.loc	7 632 6 is_stmt 1               @ ../ThirdParty/STM32F4xx_HAL_Driver/Src/stm32f4xx_hal_tim.c:632:6
	ldr	r0, [sp, #12]
	ldr	r1, [r0]
	movs	r0, #1
	movs	r2, #0
	movt	r2, #16385
	cmp	r1, r2
	str	r0, [sp, #4]                    @ 4-byte Spill
	beq	.LBB19_2
	b	.LBB19_1
.LBB19_1:
	ldr	r0, [sp, #12]
	ldr	r0, [r0]
	movw	r1, #64512
	movt	r1, #49150
	add	r0, r1
	clz	r0, r0
	lsrs	r0, r0, #5
	str	r0, [sp, #4]                    @ 4-byte Spill
	b	.LBB19_2
.Ltmp121:
.LBB19_2:
	.loc	7 0 6 is_stmt 0                 @ ../ThirdParty/STM32F4xx_HAL_Driver/Src/stm32f4xx_hal_tim.c:0:6
	ldr	r0, [sp, #4]                    @ 4-byte Reload
	.loc	7 632 6                         @ ../ThirdParty/STM32F4xx_HAL_Driver/Src/stm32f4xx_hal_tim.c:632:6
	lsls	r0, r0, #31
	cbz	r0, .LBB19_10
	b	.LBB19_3
.LBB19_3:
.Ltmp122:
	.loc	7 635 5 is_stmt 1               @ ../ThirdParty/STM32F4xx_HAL_Driver/Src/stm32f4xx_hal_tim.c:635:5
	b	.LBB19_4
.LBB19_4:
.Ltmp123:
	.loc	7 635 5 is_stmt 0               @ ../ThirdParty/STM32F4xx_HAL_Driver/Src/stm32f4xx_hal_tim.c:635:5
	ldr	r0, [sp, #12]
	ldr	r0, [r0]
	ldr	r0, [r0, #32]
	movw	r1, #4369
.Ltmp124:
	.loc	7 635 5                         @ ../ThirdParty/STM32F4xx_HAL_Driver/Src/stm32f4xx_hal_tim.c:635:5
	tst	r0, r1
	bne	.LBB19_8
	b	.LBB19_5
.LBB19_5:
.Ltmp125:
	.loc	7 635 5                         @ ../ThirdParty/STM32F4xx_HAL_Driver/Src/stm32f4xx_hal_tim.c:635:5
	ldr	r0, [sp, #12]
	ldr	r0, [r0]
	ldr	r0, [r0, #32]
	movw	r1, #1092
.Ltmp126:
	.loc	7 635 5                         @ ../ThirdParty/STM32F4xx_HAL_Driver/Src/stm32f4xx_hal_tim.c:635:5
	tst	r0, r1
	bne	.LBB19_7
	b	.LBB19_6
.LBB19_6:
.Ltmp127:
	.loc	7 635 5                         @ ../ThirdParty/STM32F4xx_HAL_Driver/Src/stm32f4xx_hal_tim.c:635:5
	ldr	r0, [sp, #12]
	ldr	r1, [r0]
	ldr	r0, [r1, #68]
	bic	r0, r0, #32768
	str	r0, [r1, #68]
	b	.LBB19_7
.Ltmp128:
.LBB19_7:
	.loc	7 635 5                         @ ../ThirdParty/STM32F4xx_HAL_Driver/Src/stm32f4xx_hal_tim.c:635:5
	b	.LBB19_8
.Ltmp129:
.LBB19_8:
	.loc	7 635 5                         @ ../ThirdParty/STM32F4xx_HAL_Driver/Src/stm32f4xx_hal_tim.c:635:5
	b	.LBB19_9
.Ltmp130:
.LBB19_9:
	.loc	7 636 3 is_stmt 1               @ ../ThirdParty/STM32F4xx_HAL_Driver/Src/stm32f4xx_hal_tim.c:636:3
	b	.LBB19_10
.Ltmp131:
.LBB19_10:
	.loc	7 639 3                         @ ../ThirdParty/STM32F4xx_HAL_Driver/Src/stm32f4xx_hal_tim.c:639:3
	b	.LBB19_11
.LBB19_11:
.Ltmp132:
	.loc	7 639 3 is_stmt 0               @ ../ThirdParty/STM32F4xx_HAL_Driver/Src/stm32f4xx_hal_tim.c:639:3
	ldr	r0, [sp, #12]
	ldr	r0, [r0]
	ldr	r0, [r0, #32]
	movw	r1, #4369
.Ltmp133:
	.loc	7 639 3                         @ ../ThirdParty/STM32F4xx_HAL_Driver/Src/stm32f4xx_hal_tim.c:639:3
	tst	r0, r1
	bne	.LBB19_15
	b	.LBB19_12
.LBB19_12:
.Ltmp134:
	.loc	7 639 3                         @ ../ThirdParty/STM32F4xx_HAL_Driver/Src/stm32f4xx_hal_tim.c:639:3
	ldr	r0, [sp, #12]
	ldr	r0, [r0]
	ldr	r0, [r0, #32]
	movw	r1, #1092
.Ltmp135:
	.loc	7 639 3                         @ ../ThirdParty/STM32F4xx_HAL_Driver/Src/stm32f4xx_hal_tim.c:639:3
	tst	r0, r1
	bne	.LBB19_14
	b	.LBB19_13
.LBB19_13:
.Ltmp136:
	.loc	7 639 3                         @ ../ThirdParty/STM32F4xx_HAL_Driver/Src/stm32f4xx_hal_tim.c:639:3
	ldr	r0, [sp, #12]
	ldr	r1, [r0]
	ldr	r0, [r1]
	bic	r0, r0, #1
	str	r0, [r1]
	b	.LBB19_14
.Ltmp137:
.LBB19_14:
	.loc	7 639 3                         @ ../ThirdParty/STM32F4xx_HAL_Driver/Src/stm32f4xx_hal_tim.c:639:3
	b	.LBB19_15
.Ltmp138:
.LBB19_15:
	.loc	7 639 3                         @ ../ThirdParty/STM32F4xx_HAL_Driver/Src/stm32f4xx_hal_tim.c:639:3
	b	.LBB19_16
.Ltmp139:
.LBB19_16:
	.loc	7 0 3                           @ ../ThirdParty/STM32F4xx_HAL_Driver/Src/stm32f4xx_hal_tim.c:0:3
	movs	r0, #0
	.loc	7 642 3 epilogue_begin is_stmt 1 @ ../ThirdParty/STM32F4xx_HAL_Driver/Src/stm32f4xx_hal_tim.c:642:3
	add	sp, #16
	pop	{r7, pc}
.Ltmp140:
.Lfunc_end19:
	.size	HAL_TIM_OC_Stop, .Lfunc_end19-HAL_TIM_OC_Stop
	.cfi_endproc
	.cantunwind
	.fnend
                                        @ -- End function
	.section	.text.HAL_TIM_OC_Start_IT,"ax",%progbits
	.hidden	HAL_TIM_OC_Start_IT             @ -- Begin function HAL_TIM_OC_Start_IT
	.globl	HAL_TIM_OC_Start_IT
	.p2align	2
	.type	HAL_TIM_OC_Start_IT,%function
	.code	16                              @ @HAL_TIM_OC_Start_IT
	.thumb_func
HAL_TIM_OC_Start_IT:
.Lfunc_begin20:
	.loc	7 658 0                         @ ../ThirdParty/STM32F4xx_HAL_Driver/Src/stm32f4xx_hal_tim.c:658:0
	.fnstart
	.cfi_startproc
@ %bb.0:
	.save	{r7, lr}
	push	{r7, lr}
	.cfi_def_cfa_offset 8
	.cfi_offset lr, -4
	.cfi_offset r7, -8
	.pad	#24
	sub	sp, #24
	.cfi_def_cfa_offset 32
	str	r0, [sp, #20]
	str	r1, [sp, #16]
.Ltmp141:
	.loc	7 662 11 prologue_end           @ ../ThirdParty/STM32F4xx_HAL_Driver/Src/stm32f4xx_hal_tim.c:662:11
	ldr	r0, [sp, #16]
	.loc	7 662 3 is_stmt 0               @ ../ThirdParty/STM32F4xx_HAL_Driver/Src/stm32f4xx_hal_tim.c:662:3
	str	r0, [sp, #12]                   @ 4-byte Spill
	cmp	r0, #12
	bhi	.LBB20_7
@ %bb.1:
	.loc	7 0 3                           @ ../ThirdParty/STM32F4xx_HAL_Driver/Src/stm32f4xx_hal_tim.c:0:3
	ldr	r1, [sp, #12]                   @ 4-byte Reload
.LCPI20_0:
	tbb	[pc, r1]
@ %bb.2:
.LJTI20_0:
	.byte	(.LBB20_3-(.LCPI20_0+4))/2
	.byte	(.LBB20_7-(.LCPI20_0+4))/2
	.byte	(.LBB20_7-(.LCPI20_0+4))/2
	.byte	(.LBB20_7-(.LCPI20_0+4))/2
	.byte	(.LBB20_4-(.LCPI20_0+4))/2
	.byte	(.LBB20_7-(.LCPI20_0+4))/2
	.byte	(.LBB20_7-(.LCPI20_0+4))/2
	.byte	(.LBB20_7-(.LCPI20_0+4))/2
	.byte	(.LBB20_5-(.LCPI20_0+4))/2
	.byte	(.LBB20_7-(.LCPI20_0+4))/2
	.byte	(.LBB20_7-(.LCPI20_0+4))/2
	.byte	(.LBB20_7-(.LCPI20_0+4))/2
	.byte	(.LBB20_6-(.LCPI20_0+4))/2
	.p2align	1
.LBB20_3:
.Ltmp142:
	.loc	7 667 7 is_stmt 1               @ ../ThirdParty/STM32F4xx_HAL_Driver/Src/stm32f4xx_hal_tim.c:667:7
	ldr	r0, [sp, #20]
	ldr	r1, [r0]
	ldr	r0, [r1, #12]
	orr	r0, r0, #2
	str	r0, [r1, #12]
.Ltmp143:
	.loc	7 669 5                         @ ../ThirdParty/STM32F4xx_HAL_Driver/Src/stm32f4xx_hal_tim.c:669:5
	b	.LBB20_8
.LBB20_4:
.Ltmp144:
	.loc	7 674 7                         @ ../ThirdParty/STM32F4xx_HAL_Driver/Src/stm32f4xx_hal_tim.c:674:7
	ldr	r0, [sp, #20]
	ldr	r1, [r0]
	ldr	r0, [r1, #12]
	orr	r0, r0, #4
	str	r0, [r1, #12]
.Ltmp145:
	.loc	7 676 5                         @ ../ThirdParty/STM32F4xx_HAL_Driver/Src/stm32f4xx_hal_tim.c:676:5
	b	.LBB20_8
.LBB20_5:
.Ltmp146:
	.loc	7 681 7                         @ ../ThirdParty/STM32F4xx_HAL_Driver/Src/stm32f4xx_hal_tim.c:681:7
	ldr	r0, [sp, #20]
	ldr	r1, [r0]
	ldr	r0, [r1, #12]
	orr	r0, r0, #8
	str	r0, [r1, #12]
.Ltmp147:
	.loc	7 683 5                         @ ../ThirdParty/STM32F4xx_HAL_Driver/Src/stm32f4xx_hal_tim.c:683:5
	b	.LBB20_8
.LBB20_6:
.Ltmp148:
	.loc	7 688 7                         @ ../ThirdParty/STM32F4xx_HAL_Driver/Src/stm32f4xx_hal_tim.c:688:7
	ldr	r0, [sp, #20]
	ldr	r1, [r0]
	ldr	r0, [r1, #12]
	orr	r0, r0, #16
	str	r0, [r1, #12]
.Ltmp149:
	.loc	7 690 5                         @ ../ThirdParty/STM32F4xx_HAL_Driver/Src/stm32f4xx_hal_tim.c:690:5
	b	.LBB20_8
.LBB20_7:
	.loc	7 693 5                         @ ../ThirdParty/STM32F4xx_HAL_Driver/Src/stm32f4xx_hal_tim.c:693:5
	b	.LBB20_8
.Ltmp150:
.LBB20_8:
	.loc	7 697 21                        @ ../ThirdParty/STM32F4xx_HAL_Driver/Src/stm32f4xx_hal_tim.c:697:21
	ldr	r0, [sp, #20]
	.loc	7 697 27 is_stmt 0              @ ../ThirdParty/STM32F4xx_HAL_Driver/Src/stm32f4xx_hal_tim.c:697:27
	ldr	r0, [r0]
	.loc	7 697 37                        @ ../ThirdParty/STM32F4xx_HAL_Driver/Src/stm32f4xx_hal_tim.c:697:37
	ldr	r1, [sp, #16]
	movs	r2, #1
	.loc	7 697 3                         @ ../ThirdParty/STM32F4xx_HAL_Driver/Src/stm32f4xx_hal_tim.c:697:3
	str	r2, [sp, #4]                    @ 4-byte Spill
	bl	TIM_CCxChannelCmd
	ldr	r0, [sp, #4]                    @ 4-byte Reload
.Ltmp151:
	.loc	7 699 6 is_stmt 1               @ ../ThirdParty/STM32F4xx_HAL_Driver/Src/stm32f4xx_hal_tim.c:699:6
	ldr	r1, [sp, #20]
	ldr	r1, [r1]
	movs	r2, #0
	movt	r2, #16385
	cmp	r1, r2
	str	r0, [sp, #8]                    @ 4-byte Spill
	beq	.LBB20_10
	b	.LBB20_9
.LBB20_9:
	ldr	r0, [sp, #20]
	ldr	r0, [r0]
	movw	r1, #64512
	movt	r1, #49150
	add	r0, r1
	clz	r0, r0
	lsrs	r0, r0, #5
	str	r0, [sp, #8]                    @ 4-byte Spill
	b	.LBB20_10
.Ltmp152:
.LBB20_10:
	.loc	7 0 6 is_stmt 0                 @ ../ThirdParty/STM32F4xx_HAL_Driver/Src/stm32f4xx_hal_tim.c:0:6
	ldr	r0, [sp, #8]                    @ 4-byte Reload
	.loc	7 699 6                         @ ../ThirdParty/STM32F4xx_HAL_Driver/Src/stm32f4xx_hal_tim.c:699:6
	lsls	r0, r0, #31
	cbz	r0, .LBB20_12
	b	.LBB20_11
.LBB20_11:
.Ltmp153:
	.loc	7 702 5 is_stmt 1               @ ../ThirdParty/STM32F4xx_HAL_Driver/Src/stm32f4xx_hal_tim.c:702:5
	ldr	r0, [sp, #20]
	ldr	r1, [r0]
	ldr	r0, [r1, #68]
	orr	r0, r0, #32768
	str	r0, [r1, #68]
	.loc	7 703 3                         @ ../ThirdParty/STM32F4xx_HAL_Driver/Src/stm32f4xx_hal_tim.c:703:3
	b	.LBB20_12
.Ltmp154:
.LBB20_12:
	.loc	7 706 3                         @ ../ThirdParty/STM32F4xx_HAL_Driver/Src/stm32f4xx_hal_tim.c:706:3
	ldr	r0, [sp, #20]
	ldr	r1, [r0]
	ldr	r0, [r1]
	orr	r0, r0, #1
	str	r0, [r1]
	movs	r0, #0
	.loc	7 709 3 epilogue_begin          @ ../ThirdParty/STM32F4xx_HAL_Driver/Src/stm32f4xx_hal_tim.c:709:3
	add	sp, #24
	pop	{r7, pc}
.Ltmp155:
.Lfunc_end20:
	.size	HAL_TIM_OC_Start_IT, .Lfunc_end20-HAL_TIM_OC_Start_IT
	.cfi_endproc
	.cantunwind
	.fnend
                                        @ -- End function
	.section	.text.HAL_TIM_OC_Stop_IT,"ax",%progbits
	.hidden	HAL_TIM_OC_Stop_IT              @ -- Begin function HAL_TIM_OC_Stop_IT
	.globl	HAL_TIM_OC_Stop_IT
	.p2align	2
	.type	HAL_TIM_OC_Stop_IT,%function
	.code	16                              @ @HAL_TIM_OC_Stop_IT
	.thumb_func
HAL_TIM_OC_Stop_IT:
.Lfunc_begin21:
	.loc	7 725 0                         @ ../ThirdParty/STM32F4xx_HAL_Driver/Src/stm32f4xx_hal_tim.c:725:0
	.fnstart
	.cfi_startproc
@ %bb.0:
	.save	{r7, lr}
	push	{r7, lr}
	.cfi_def_cfa_offset 8
	.cfi_offset lr, -4
	.cfi_offset r7, -8
	.pad	#16
	sub	sp, #16
	.cfi_def_cfa_offset 24
	str	r0, [sp, #12]
	str	r1, [sp, #8]
.Ltmp156:
	.loc	7 729 11 prologue_end           @ ../ThirdParty/STM32F4xx_HAL_Driver/Src/stm32f4xx_hal_tim.c:729:11
	ldr	r0, [sp, #8]
	.loc	7 729 3 is_stmt 0               @ ../ThirdParty/STM32F4xx_HAL_Driver/Src/stm32f4xx_hal_tim.c:729:3
	str	r0, [sp, #4]                    @ 4-byte Spill
	cmp	r0, #12
	bhi	.LBB21_7
@ %bb.1:
	.loc	7 0 3                           @ ../ThirdParty/STM32F4xx_HAL_Driver/Src/stm32f4xx_hal_tim.c:0:3
	ldr	r1, [sp, #4]                    @ 4-byte Reload
.LCPI21_0:
	tbb	[pc, r1]
@ %bb.2:
.LJTI21_0:
	.byte	(.LBB21_3-(.LCPI21_0+4))/2
	.byte	(.LBB21_7-(.LCPI21_0+4))/2
	.byte	(.LBB21_7-(.LCPI21_0+4))/2
	.byte	(.LBB21_7-(.LCPI21_0+4))/2
	.byte	(.LBB21_4-(.LCPI21_0+4))/2
	.byte	(.LBB21_7-(.LCPI21_0+4))/2
	.byte	(.LBB21_7-(.LCPI21_0+4))/2
	.byte	(.LBB21_7-(.LCPI21_0+4))/2
	.byte	(.LBB21_5-(.LCPI21_0+4))/2
	.byte	(.LBB21_7-(.LCPI21_0+4))/2
	.byte	(.LBB21_7-(.LCPI21_0+4))/2
	.byte	(.LBB21_7-(.LCPI21_0+4))/2
	.byte	(.LBB21_6-(.LCPI21_0+4))/2
	.p2align	1
.LBB21_3:
.Ltmp157:
	.loc	7 734 7 is_stmt 1               @ ../ThirdParty/STM32F4xx_HAL_Driver/Src/stm32f4xx_hal_tim.c:734:7
	ldr	r0, [sp, #12]
	ldr	r1, [r0]
	ldr	r0, [r1, #12]
	bic	r0, r0, #2
	str	r0, [r1, #12]
.Ltmp158:
	.loc	7 736 5                         @ ../ThirdParty/STM32F4xx_HAL_Driver/Src/stm32f4xx_hal_tim.c:736:5
	b	.LBB21_8
.LBB21_4:
.Ltmp159:
	.loc	7 741 7                         @ ../ThirdParty/STM32F4xx_HAL_Driver/Src/stm32f4xx_hal_tim.c:741:7
	ldr	r0, [sp, #12]
	ldr	r1, [r0]
	ldr	r0, [r1, #12]
	bic	r0, r0, #4
	str	r0, [r1, #12]
.Ltmp160:
	.loc	7 743 5                         @ ../ThirdParty/STM32F4xx_HAL_Driver/Src/stm32f4xx_hal_tim.c:743:5
	b	.LBB21_8
.LBB21_5:
.Ltmp161:
	.loc	7 748 7                         @ ../ThirdParty/STM32F4xx_HAL_Driver/Src/stm32f4xx_hal_tim.c:748:7
	ldr	r0, [sp, #12]
	ldr	r1, [r0]
	ldr	r0, [r1, #12]
	bic	r0, r0, #8
	str	r0, [r1, #12]
.Ltmp162:
	.loc	7 750 5                         @ ../ThirdParty/STM32F4xx_HAL_Driver/Src/stm32f4xx_hal_tim.c:750:5
	b	.LBB21_8
.LBB21_6:
.Ltmp163:
	.loc	7 755 7                         @ ../ThirdParty/STM32F4xx_HAL_Driver/Src/stm32f4xx_hal_tim.c:755:7
	ldr	r0, [sp, #12]
	ldr	r1, [r0]
	ldr	r0, [r1, #12]
	bic	r0, r0, #16
	str	r0, [r1, #12]
.Ltmp164:
	.loc	7 757 5                         @ ../ThirdParty/STM32F4xx_HAL_Driver/Src/stm32f4xx_hal_tim.c:757:5
	b	.LBB21_8
.LBB21_7:
	.loc	7 760 5                         @ ../ThirdParty/STM32F4xx_HAL_Driver/Src/stm32f4xx_hal_tim.c:760:5
	b	.LBB21_8
.Ltmp165:
.LBB21_8:
	.loc	7 764 21                        @ ../ThirdParty/STM32F4xx_HAL_Driver/Src/stm32f4xx_hal_tim.c:764:21
	ldr	r0, [sp, #12]
	.loc	7 764 27 is_stmt 0              @ ../ThirdParty/STM32F4xx_HAL_Driver/Src/stm32f4xx_hal_tim.c:764:27
	ldr	r0, [r0]
	.loc	7 764 37                        @ ../ThirdParty/STM32F4xx_HAL_Driver/Src/stm32f4xx_hal_tim.c:764:37
	ldr	r1, [sp, #8]
	movs	r2, #0
	.loc	7 764 3                         @ ../ThirdParty/STM32F4xx_HAL_Driver/Src/stm32f4xx_hal_tim.c:764:3
	bl	TIM_CCxChannelCmd
.Ltmp166:
	.loc	7 766 6 is_stmt 1               @ ../ThirdParty/STM32F4xx_HAL_Driver/Src/stm32f4xx_hal_tim.c:766:6
	ldr	r0, [sp, #12]
	ldr	r1, [r0]
	movs	r0, #1
	movs	r2, #0
	movt	r2, #16385
	cmp	r1, r2
	str	r0, [sp]                        @ 4-byte Spill
	beq	.LBB21_10
	b	.LBB21_9
.LBB21_9:
	ldr	r0, [sp, #12]
	ldr	r0, [r0]
	movw	r1, #64512
	movt	r1, #49150
	add	r0, r1
	clz	r0, r0
	lsrs	r0, r0, #5
	str	r0, [sp]                        @ 4-byte Spill
	b	.LBB21_10
.Ltmp167:
.LBB21_10:
	.loc	7 0 6 is_stmt 0                 @ ../ThirdParty/STM32F4xx_HAL_Driver/Src/stm32f4xx_hal_tim.c:0:6
	ldr	r0, [sp]                        @ 4-byte Reload
	.loc	7 766 6                         @ ../ThirdParty/STM32F4xx_HAL_Driver/Src/stm32f4xx_hal_tim.c:766:6
	lsls	r0, r0, #31
	cbz	r0, .LBB21_18
	b	.LBB21_11
.LBB21_11:
.Ltmp168:
	.loc	7 769 5 is_stmt 1               @ ../ThirdParty/STM32F4xx_HAL_Driver/Src/stm32f4xx_hal_tim.c:769:5
	b	.LBB21_12
.LBB21_12:
.Ltmp169:
	.loc	7 769 5 is_stmt 0               @ ../ThirdParty/STM32F4xx_HAL_Driver/Src/stm32f4xx_hal_tim.c:769:5
	ldr	r0, [sp, #12]
	ldr	r0, [r0]
	ldr	r0, [r0, #32]
	movw	r1, #4369
.Ltmp170:
	.loc	7 769 5                         @ ../ThirdParty/STM32F4xx_HAL_Driver/Src/stm32f4xx_hal_tim.c:769:5
	tst	r0, r1
	bne	.LBB21_16
	b	.LBB21_13
.LBB21_13:
.Ltmp171:
	.loc	7 769 5                         @ ../ThirdParty/STM32F4xx_HAL_Driver/Src/stm32f4xx_hal_tim.c:769:5
	ldr	r0, [sp, #12]
	ldr	r0, [r0]
	ldr	r0, [r0, #32]
	movw	r1, #1092
.Ltmp172:
	.loc	7 769 5                         @ ../ThirdParty/STM32F4xx_HAL_Driver/Src/stm32f4xx_hal_tim.c:769:5
	tst	r0, r1
	bne	.LBB21_15
	b	.LBB21_14
.LBB21_14:
.Ltmp173:
	.loc	7 769 5                         @ ../ThirdParty/STM32F4xx_HAL_Driver/Src/stm32f4xx_hal_tim.c:769:5
	ldr	r0, [sp, #12]
	ldr	r1, [r0]
	ldr	r0, [r1, #68]
	bic	r0, r0, #32768
	str	r0, [r1, #68]
	b	.LBB21_15
.Ltmp174:
.LBB21_15:
	.loc	7 769 5                         @ ../ThirdParty/STM32F4xx_HAL_Driver/Src/stm32f4xx_hal_tim.c:769:5
	b	.LBB21_16
.Ltmp175:
.LBB21_16:
	.loc	7 769 5                         @ ../ThirdParty/STM32F4xx_HAL_Driver/Src/stm32f4xx_hal_tim.c:769:5
	b	.LBB21_17
.Ltmp176:
.LBB21_17:
	.loc	7 770 3 is_stmt 1               @ ../ThirdParty/STM32F4xx_HAL_Driver/Src/stm32f4xx_hal_tim.c:770:3
	b	.LBB21_18
.Ltmp177:
.LBB21_18:
	.loc	7 773 3                         @ ../ThirdParty/STM32F4xx_HAL_Driver/Src/stm32f4xx_hal_tim.c:773:3
	b	.LBB21_19
.LBB21_19:
.Ltmp178:
	.loc	7 773 3 is_stmt 0               @ ../ThirdParty/STM32F4xx_HAL_Driver/Src/stm32f4xx_hal_tim.c:773:3
	ldr	r0, [sp, #12]
	ldr	r0, [r0]
	ldr	r0, [r0, #32]
	movw	r1, #4369
.Ltmp179:
	.loc	7 773 3                         @ ../ThirdParty/STM32F4xx_HAL_Driver/Src/stm32f4xx_hal_tim.c:773:3
	tst	r0, r1
	bne	.LBB21_23
	b	.LBB21_20
.LBB21_20:
.Ltmp180:
	.loc	7 773 3                         @ ../ThirdParty/STM32F4xx_HAL_Driver/Src/stm32f4xx_hal_tim.c:773:3
	ldr	r0, [sp, #12]
	ldr	r0, [r0]
	ldr	r0, [r0, #32]
	movw	r1, #1092
.Ltmp181:
	.loc	7 773 3                         @ ../ThirdParty/STM32F4xx_HAL_Driver/Src/stm32f4xx_hal_tim.c:773:3
	tst	r0, r1
	bne	.LBB21_22
	b	.LBB21_21
.LBB21_21:
.Ltmp182:
	.loc	7 773 3                         @ ../ThirdParty/STM32F4xx_HAL_Driver/Src/stm32f4xx_hal_tim.c:773:3
	ldr	r0, [sp, #12]
	ldr	r1, [r0]
	ldr	r0, [r1]
	bic	r0, r0, #1
	str	r0, [r1]
	b	.LBB21_22
.Ltmp183:
.LBB21_22:
	.loc	7 773 3                         @ ../ThirdParty/STM32F4xx_HAL_Driver/Src/stm32f4xx_hal_tim.c:773:3
	b	.LBB21_23
.Ltmp184:
.LBB21_23:
	.loc	7 773 3                         @ ../ThirdParty/STM32F4xx_HAL_Driver/Src/stm32f4xx_hal_tim.c:773:3
	b	.LBB21_24
.Ltmp185:
.LBB21_24:
	.loc	7 0 3                           @ ../ThirdParty/STM32F4xx_HAL_Driver/Src/stm32f4xx_hal_tim.c:0:3
	movs	r0, #0
	.loc	7 776 3 epilogue_begin is_stmt 1 @ ../ThirdParty/STM32F4xx_HAL_Driver/Src/stm32f4xx_hal_tim.c:776:3
	add	sp, #16
	pop	{r7, pc}
.Ltmp186:
.Lfunc_end21:
	.size	HAL_TIM_OC_Stop_IT, .Lfunc_end21-HAL_TIM_OC_Stop_IT
	.cfi_endproc
	.cantunwind
	.fnend
                                        @ -- End function
	.section	.text.HAL_TIM_OC_Start_DMA,"ax",%progbits
	.hidden	HAL_TIM_OC_Start_DMA            @ -- Begin function HAL_TIM_OC_Start_DMA
	.globl	HAL_TIM_OC_Start_DMA
	.p2align	2
	.type	HAL_TIM_OC_Start_DMA,%function
	.code	16                              @ @HAL_TIM_OC_Start_DMA
	.thumb_func
HAL_TIM_OC_Start_DMA:
.Lfunc_begin22:
	.loc	7 794 0                         @ ../ThirdParty/STM32F4xx_HAL_Driver/Src/stm32f4xx_hal_tim.c:794:0
	.fnstart
	.cfi_startproc
@ %bb.0:
	.save	{r7, lr}
	push	{r7, lr}
	.cfi_def_cfa_offset 8
	.cfi_offset lr, -4
	.cfi_offset r7, -8
	.pad	#32
	sub	sp, #32
	.cfi_def_cfa_offset 40
                                        @ kill: def $r12 killed $r3
	str	r0, [sp, #24]
	str	r1, [sp, #20]
	str	r2, [sp, #16]
	strh.w	r3, [sp, #14]
.Ltmp187:
	.loc	7 798 7 prologue_end            @ ../ThirdParty/STM32F4xx_HAL_Driver/Src/stm32f4xx_hal_tim.c:798:7
	ldr	r0, [sp, #24]
	.loc	7 798 13 is_stmt 0              @ ../ThirdParty/STM32F4xx_HAL_Driver/Src/stm32f4xx_hal_tim.c:798:13
	ldrb.w	r0, [r0, #57]
.Ltmp188:
	.loc	7 798 6                         @ ../ThirdParty/STM32F4xx_HAL_Driver/Src/stm32f4xx_hal_tim.c:798:6
	cmp	r0, #2
	bne	.LBB22_2
	b	.LBB22_1
.LBB22_1:
	.loc	7 0 6                           @ ../ThirdParty/STM32F4xx_HAL_Driver/Src/stm32f4xx_hal_tim.c:0:6
	movs	r0, #2
.Ltmp189:
	.loc	7 800 6 is_stmt 1               @ ../ThirdParty/STM32F4xx_HAL_Driver/Src/stm32f4xx_hal_tim.c:800:6
	strb.w	r0, [sp, #31]
	b	.LBB22_22
.Ltmp190:
.LBB22_2:
	.loc	7 802 12                        @ ../ThirdParty/STM32F4xx_HAL_Driver/Src/stm32f4xx_hal_tim.c:802:12
	ldr	r0, [sp, #24]
	.loc	7 802 18 is_stmt 0              @ ../ThirdParty/STM32F4xx_HAL_Driver/Src/stm32f4xx_hal_tim.c:802:18
	ldrb.w	r0, [r0, #57]
.Ltmp191:
	.loc	7 802 11                        @ ../ThirdParty/STM32F4xx_HAL_Driver/Src/stm32f4xx_hal_tim.c:802:11
	cmp	r0, #1
	bne	.LBB22_8
	b	.LBB22_3
.LBB22_3:
.Ltmp192:
	.loc	7 804 19 is_stmt 1              @ ../ThirdParty/STM32F4xx_HAL_Driver/Src/stm32f4xx_hal_tim.c:804:19
	ldr	r0, [sp, #16]
	.loc	7 804 32 is_stmt 0              @ ../ThirdParty/STM32F4xx_HAL_Driver/Src/stm32f4xx_hal_tim.c:804:32
	cbnz	r0, .LBB22_6
	b	.LBB22_4
.LBB22_4:
	.loc	7 804 36                        @ ../ThirdParty/STM32F4xx_HAL_Driver/Src/stm32f4xx_hal_tim.c:804:36
	ldrh.w	r0, [sp, #14]
.Ltmp193:
	.loc	7 804 8                         @ ../ThirdParty/STM32F4xx_HAL_Driver/Src/stm32f4xx_hal_tim.c:804:8
	cmp	r0, #1
	blt	.LBB22_6
	b	.LBB22_5
.LBB22_5:
	.loc	7 0 8                           @ ../ThirdParty/STM32F4xx_HAL_Driver/Src/stm32f4xx_hal_tim.c:0:8
	movs	r0, #1
.Ltmp194:
	.loc	7 806 7 is_stmt 1               @ ../ThirdParty/STM32F4xx_HAL_Driver/Src/stm32f4xx_hal_tim.c:806:7
	strb.w	r0, [sp, #31]
	b	.LBB22_22
.Ltmp195:
.LBB22_6:
	.loc	7 810 7                         @ ../ThirdParty/STM32F4xx_HAL_Driver/Src/stm32f4xx_hal_tim.c:810:7
	ldr	r1, [sp, #24]
	movs	r0, #2
	.loc	7 810 19 is_stmt 0              @ ../ThirdParty/STM32F4xx_HAL_Driver/Src/stm32f4xx_hal_tim.c:810:19
	strb.w	r0, [r1, #57]
	b	.LBB22_7
.Ltmp196:
.LBB22_7:
	.loc	7 812 3 is_stmt 1               @ ../ThirdParty/STM32F4xx_HAL_Driver/Src/stm32f4xx_hal_tim.c:812:3
	b	.LBB22_8
.Ltmp197:
.LBB22_8:
	.loc	7 0 3 is_stmt 0                 @ ../ThirdParty/STM32F4xx_HAL_Driver/Src/stm32f4xx_hal_tim.c:0:3
	b	.LBB22_9
.LBB22_9:
	.loc	7 813 11 is_stmt 1              @ ../ThirdParty/STM32F4xx_HAL_Driver/Src/stm32f4xx_hal_tim.c:813:11
	ldr	r0, [sp, #20]
	.loc	7 813 3 is_stmt 0               @ ../ThirdParty/STM32F4xx_HAL_Driver/Src/stm32f4xx_hal_tim.c:813:3
	str	r0, [sp, #8]                    @ 4-byte Spill
	cmp	r0, #12
	bhi.w	.LBB22_16
@ %bb.10:
	.loc	7 0 3                           @ ../ThirdParty/STM32F4xx_HAL_Driver/Src/stm32f4xx_hal_tim.c:0:3
	ldr	r1, [sp, #8]                    @ 4-byte Reload
.LCPI22_0:
	tbb	[pc, r1]
@ %bb.11:
.LJTI22_0:
	.byte	(.LBB22_12-(.LCPI22_0+4))/2
	.byte	(.LBB22_16-(.LCPI22_0+4))/2
	.byte	(.LBB22_16-(.LCPI22_0+4))/2
	.byte	(.LBB22_16-(.LCPI22_0+4))/2
	.byte	(.LBB22_13-(.LCPI22_0+4))/2
	.byte	(.LBB22_16-(.LCPI22_0+4))/2
	.byte	(.LBB22_16-(.LCPI22_0+4))/2
	.byte	(.LBB22_16-(.LCPI22_0+4))/2
	.byte	(.LBB22_14-(.LCPI22_0+4))/2
	.byte	(.LBB22_16-(.LCPI22_0+4))/2
	.byte	(.LBB22_16-(.LCPI22_0+4))/2
	.byte	(.LBB22_16-(.LCPI22_0+4))/2
	.byte	(.LBB22_15-(.LCPI22_0+4))/2
	.p2align	1
.LBB22_12:
.Ltmp198:
	.loc	7 818 7 is_stmt 1               @ ../ThirdParty/STM32F4xx_HAL_Driver/Src/stm32f4xx_hal_tim.c:818:7
	ldr	r0, [sp, #24]
	ldr	r1, [r0, #32]
	.loc	7 818 52 is_stmt 0              @ ../ThirdParty/STM32F4xx_HAL_Driver/Src/stm32f4xx_hal_tim.c:818:52
	movw	r0, :lower16:TIM_DMADelayPulseCplt
	movt	r0, :upper16:TIM_DMADelayPulseCplt
	str	r0, [r1, #60]
	.loc	7 821 7 is_stmt 1               @ ../ThirdParty/STM32F4xx_HAL_Driver/Src/stm32f4xx_hal_tim.c:821:7
	ldr	r0, [sp, #24]
	ldr	r1, [r0, #32]
	.loc	7 821 53 is_stmt 0              @ ../ThirdParty/STM32F4xx_HAL_Driver/Src/stm32f4xx_hal_tim.c:821:53
	movw	r0, :lower16:TIM_DMAError
	movt	r0, :upper16:TIM_DMAError
	str	r0, [r1, #76]
	.loc	7 824 24 is_stmt 1              @ ../ThirdParty/STM32F4xx_HAL_Driver/Src/stm32f4xx_hal_tim.c:824:24
	ldr	r0, [sp, #24]
	.loc	7 824 86 is_stmt 0              @ ../ThirdParty/STM32F4xx_HAL_Driver/Src/stm32f4xx_hal_tim.c:824:86
	ldr	r2, [r0]
	.loc	7 824 24                        @ ../ThirdParty/STM32F4xx_HAL_Driver/Src/stm32f4xx_hal_tim.c:824:24
	ldr	r0, [r0, #32]
	.loc	7 824 62                        @ ../ThirdParty/STM32F4xx_HAL_Driver/Src/stm32f4xx_hal_tim.c:824:62
	ldr	r1, [sp, #16]
	.loc	7 824 96                        @ ../ThirdParty/STM32F4xx_HAL_Driver/Src/stm32f4xx_hal_tim.c:824:96
	adds	r2, #52
	.loc	7 824 102                       @ ../ThirdParty/STM32F4xx_HAL_Driver/Src/stm32f4xx_hal_tim.c:824:102
	ldrh.w	r3, [sp, #14]
	.loc	7 824 7                         @ ../ThirdParty/STM32F4xx_HAL_Driver/Src/stm32f4xx_hal_tim.c:824:7
	bl	HAL_DMA_Start_IT
	.loc	7 827 7 is_stmt 1               @ ../ThirdParty/STM32F4xx_HAL_Driver/Src/stm32f4xx_hal_tim.c:827:7
	ldr	r0, [sp, #24]
	ldr	r1, [r0]
	ldr	r0, [r1, #12]
	orr	r0, r0, #512
	str	r0, [r1, #12]
.Ltmp199:
	.loc	7 829 5                         @ ../ThirdParty/STM32F4xx_HAL_Driver/Src/stm32f4xx_hal_tim.c:829:5
	b	.LBB22_17
.LBB22_13:
.Ltmp200:
	.loc	7 834 7                         @ ../ThirdParty/STM32F4xx_HAL_Driver/Src/stm32f4xx_hal_tim.c:834:7
	ldr	r0, [sp, #24]
	ldr	r1, [r0, #36]
	.loc	7 834 52 is_stmt 0              @ ../ThirdParty/STM32F4xx_HAL_Driver/Src/stm32f4xx_hal_tim.c:834:52
	movw	r0, :lower16:TIM_DMADelayPulseCplt
	movt	r0, :upper16:TIM_DMADelayPulseCplt
	str	r0, [r1, #60]
	.loc	7 837 7 is_stmt 1               @ ../ThirdParty/STM32F4xx_HAL_Driver/Src/stm32f4xx_hal_tim.c:837:7
	ldr	r0, [sp, #24]
	ldr	r1, [r0, #36]
	.loc	7 837 53 is_stmt 0              @ ../ThirdParty/STM32F4xx_HAL_Driver/Src/stm32f4xx_hal_tim.c:837:53
	movw	r0, :lower16:TIM_DMAError
	movt	r0, :upper16:TIM_DMAError
	str	r0, [r1, #76]
	.loc	7 840 24 is_stmt 1              @ ../ThirdParty/STM32F4xx_HAL_Driver/Src/stm32f4xx_hal_tim.c:840:24
	ldr	r0, [sp, #24]
	.loc	7 840 86 is_stmt 0              @ ../ThirdParty/STM32F4xx_HAL_Driver/Src/stm32f4xx_hal_tim.c:840:86
	ldr	r2, [r0]
	.loc	7 840 24                        @ ../ThirdParty/STM32F4xx_HAL_Driver/Src/stm32f4xx_hal_tim.c:840:24
	ldr	r0, [r0, #36]
	.loc	7 840 62                        @ ../ThirdParty/STM32F4xx_HAL_Driver/Src/stm32f4xx_hal_tim.c:840:62
	ldr	r1, [sp, #16]
	.loc	7 840 96                        @ ../ThirdParty/STM32F4xx_HAL_Driver/Src/stm32f4xx_hal_tim.c:840:96
	adds	r2, #56
	.loc	7 840 102                       @ ../ThirdParty/STM32F4xx_HAL_Driver/Src/stm32f4xx_hal_tim.c:840:102
	ldrh.w	r3, [sp, #14]
	.loc	7 840 7                         @ ../ThirdParty/STM32F4xx_HAL_Driver/Src/stm32f4xx_hal_tim.c:840:7
	bl	HAL_DMA_Start_IT
	.loc	7 843 7 is_stmt 1               @ ../ThirdParty/STM32F4xx_HAL_Driver/Src/stm32f4xx_hal_tim.c:843:7
	ldr	r0, [sp, #24]
	ldr	r1, [r0]
	ldr	r0, [r1, #12]
	orr	r0, r0, #1024
	str	r0, [r1, #12]
.Ltmp201:
	.loc	7 845 5                         @ ../ThirdParty/STM32F4xx_HAL_Driver/Src/stm32f4xx_hal_tim.c:845:5
	b	.LBB22_17
.LBB22_14:
.Ltmp202:
	.loc	7 850 7                         @ ../ThirdParty/STM32F4xx_HAL_Driver/Src/stm32f4xx_hal_tim.c:850:7
	ldr	r0, [sp, #24]
	ldr	r1, [r0, #40]
	.loc	7 850 52 is_stmt 0              @ ../ThirdParty/STM32F4xx_HAL_Driver/Src/stm32f4xx_hal_tim.c:850:52
	movw	r0, :lower16:TIM_DMADelayPulseCplt
	movt	r0, :upper16:TIM_DMADelayPulseCplt
	str	r0, [r1, #60]
	.loc	7 853 7 is_stmt 1               @ ../ThirdParty/STM32F4xx_HAL_Driver/Src/stm32f4xx_hal_tim.c:853:7
	ldr	r0, [sp, #24]
	ldr	r1, [r0, #40]
	.loc	7 853 53 is_stmt 0              @ ../ThirdParty/STM32F4xx_HAL_Driver/Src/stm32f4xx_hal_tim.c:853:53
	movw	r0, :lower16:TIM_DMAError
	movt	r0, :upper16:TIM_DMAError
	str	r0, [r1, #76]
	.loc	7 856 24 is_stmt 1              @ ../ThirdParty/STM32F4xx_HAL_Driver/Src/stm32f4xx_hal_tim.c:856:24
	ldr	r0, [sp, #24]
	.loc	7 856 86 is_stmt 0              @ ../ThirdParty/STM32F4xx_HAL_Driver/Src/stm32f4xx_hal_tim.c:856:86
	ldr	r2, [r0]
	.loc	7 856 24                        @ ../ThirdParty/STM32F4xx_HAL_Driver/Src/stm32f4xx_hal_tim.c:856:24
	ldr	r0, [r0, #40]
	.loc	7 856 62                        @ ../ThirdParty/STM32F4xx_HAL_Driver/Src/stm32f4xx_hal_tim.c:856:62
	ldr	r1, [sp, #16]
	.loc	7 856 96                        @ ../ThirdParty/STM32F4xx_HAL_Driver/Src/stm32f4xx_hal_tim.c:856:96
	adds	r2, #60
	.loc	7 856 101                       @ ../ThirdParty/STM32F4xx_HAL_Driver/Src/stm32f4xx_hal_tim.c:856:101
	ldrh.w	r3, [sp, #14]
	.loc	7 856 7                         @ ../ThirdParty/STM32F4xx_HAL_Driver/Src/stm32f4xx_hal_tim.c:856:7
	bl	HAL_DMA_Start_IT
	.loc	7 859 7 is_stmt 1               @ ../ThirdParty/STM32F4xx_HAL_Driver/Src/stm32f4xx_hal_tim.c:859:7
	ldr	r0, [sp, #24]
	ldr	r1, [r0]
	ldr	r0, [r1, #12]
	orr	r0, r0, #2048
	str	r0, [r1, #12]
.Ltmp203:
	.loc	7 861 5                         @ ../ThirdParty/STM32F4xx_HAL_Driver/Src/stm32f4xx_hal_tim.c:861:5
	b	.LBB22_17
.LBB22_15:
.Ltmp204:
	.loc	7 866 7                         @ ../ThirdParty/STM32F4xx_HAL_Driver/Src/stm32f4xx_hal_tim.c:866:7
	ldr	r0, [sp, #24]
	ldr	r1, [r0, #44]
	.loc	7 866 52 is_stmt 0              @ ../ThirdParty/STM32F4xx_HAL_Driver/Src/stm32f4xx_hal_tim.c:866:52
	movw	r0, :lower16:TIM_DMADelayPulseCplt
	movt	r0, :upper16:TIM_DMADelayPulseCplt
	str	r0, [r1, #60]
	.loc	7 869 7 is_stmt 1               @ ../ThirdParty/STM32F4xx_HAL_Driver/Src/stm32f4xx_hal_tim.c:869:7
	ldr	r0, [sp, #24]
	ldr	r1, [r0, #44]
	.loc	7 869 53 is_stmt 0              @ ../ThirdParty/STM32F4xx_HAL_Driver/Src/stm32f4xx_hal_tim.c:869:53
	movw	r0, :lower16:TIM_DMAError
	movt	r0, :upper16:TIM_DMAError
	str	r0, [r1, #76]
	.loc	7 872 24 is_stmt 1              @ ../ThirdParty/STM32F4xx_HAL_Driver/Src/stm32f4xx_hal_tim.c:872:24
	ldr	r0, [sp, #24]
	.loc	7 872 86 is_stmt 0              @ ../ThirdParty/STM32F4xx_HAL_Driver/Src/stm32f4xx_hal_tim.c:872:86
	ldr	r2, [r0]
	.loc	7 872 24                        @ ../ThirdParty/STM32F4xx_HAL_Driver/Src/stm32f4xx_hal_tim.c:872:24
	ldr	r0, [r0, #44]
	.loc	7 872 62                        @ ../ThirdParty/STM32F4xx_HAL_Driver/Src/stm32f4xx_hal_tim.c:872:62
	ldr	r1, [sp, #16]
	.loc	7 872 96                        @ ../ThirdParty/STM32F4xx_HAL_Driver/Src/stm32f4xx_hal_tim.c:872:96
	adds	r2, #64
	.loc	7 872 102                       @ ../ThirdParty/STM32F4xx_HAL_Driver/Src/stm32f4xx_hal_tim.c:872:102
	ldrh.w	r3, [sp, #14]
	.loc	7 872 7                         @ ../ThirdParty/STM32F4xx_HAL_Driver/Src/stm32f4xx_hal_tim.c:872:7
	bl	HAL_DMA_Start_IT
	.loc	7 875 7 is_stmt 1               @ ../ThirdParty/STM32F4xx_HAL_Driver/Src/stm32f4xx_hal_tim.c:875:7
	ldr	r0, [sp, #24]
	ldr	r1, [r0]
	ldr	r0, [r1, #12]
	orr	r0, r0, #4096
	str	r0, [r1, #12]
.Ltmp205:
	.loc	7 877 5                         @ ../ThirdParty/STM32F4xx_HAL_Driver/Src/stm32f4xx_hal_tim.c:877:5
	b	.LBB22_17
.LBB22_16:
	.loc	7 880 5                         @ ../ThirdParty/STM32F4xx_HAL_Driver/Src/stm32f4xx_hal_tim.c:880:5
	b	.LBB22_17
.Ltmp206:
.LBB22_17:
	.loc	7 884 21                        @ ../ThirdParty/STM32F4xx_HAL_Driver/Src/stm32f4xx_hal_tim.c:884:21
	ldr	r0, [sp, #24]
	.loc	7 884 27 is_stmt 0              @ ../ThirdParty/STM32F4xx_HAL_Driver/Src/stm32f4xx_hal_tim.c:884:27
	ldr	r0, [r0]
	.loc	7 884 37                        @ ../ThirdParty/STM32F4xx_HAL_Driver/Src/stm32f4xx_hal_tim.c:884:37
	ldr	r1, [sp, #20]
	movs	r2, #1
	.loc	7 884 3                         @ ../ThirdParty/STM32F4xx_HAL_Driver/Src/stm32f4xx_hal_tim.c:884:3
	str	r2, [sp]                        @ 4-byte Spill
	bl	TIM_CCxChannelCmd
	ldr	r0, [sp]                        @ 4-byte Reload
.Ltmp207:
	.loc	7 886 6 is_stmt 1               @ ../ThirdParty/STM32F4xx_HAL_Driver/Src/stm32f4xx_hal_tim.c:886:6
	ldr	r1, [sp, #24]
	ldr	r1, [r1]
	movs	r2, #0
	movt	r2, #16385
	cmp	r1, r2
	str	r0, [sp, #4]                    @ 4-byte Spill
	beq	.LBB22_19
	b	.LBB22_18
.LBB22_18:
	ldr	r0, [sp, #24]
	ldr	r0, [r0]
	movw	r1, #64512
	movt	r1, #49150
	add	r0, r1
	clz	r0, r0
	lsrs	r0, r0, #5
	str	r0, [sp, #4]                    @ 4-byte Spill
	b	.LBB22_19
.Ltmp208:
.LBB22_19:
	.loc	7 0 6 is_stmt 0                 @ ../ThirdParty/STM32F4xx_HAL_Driver/Src/stm32f4xx_hal_tim.c:0:6
	ldr	r0, [sp, #4]                    @ 4-byte Reload
	.loc	7 886 6                         @ ../ThirdParty/STM32F4xx_HAL_Driver/Src/stm32f4xx_hal_tim.c:886:6
	lsls	r0, r0, #31
	cbz	r0, .LBB22_21
	b	.LBB22_20
.LBB22_20:
.Ltmp209:
	.loc	7 889 5 is_stmt 1               @ ../ThirdParty/STM32F4xx_HAL_Driver/Src/stm32f4xx_hal_tim.c:889:5
	ldr	r0, [sp, #24]
	ldr	r1, [r0]
	ldr	r0, [r1, #68]
	orr	r0, r0, #32768
	str	r0, [r1, #68]
	.loc	7 890 3                         @ ../ThirdParty/STM32F4xx_HAL_Driver/Src/stm32f4xx_hal_tim.c:890:3
	b	.LBB22_21
.Ltmp210:
.LBB22_21:
	.loc	7 893 3                         @ ../ThirdParty/STM32F4xx_HAL_Driver/Src/stm32f4xx_hal_tim.c:893:3
	ldr	r0, [sp, #24]
	ldr	r1, [r0]
	ldr	r0, [r1]
	orr	r0, r0, #1
	str	r0, [r1]
	movs	r0, #0
	.loc	7 896 3                         @ ../ThirdParty/STM32F4xx_HAL_Driver/Src/stm32f4xx_hal_tim.c:896:3
	strb.w	r0, [sp, #31]
	b	.LBB22_22
.LBB22_22:
	.loc	7 897 1                         @ ../ThirdParty/STM32F4xx_HAL_Driver/Src/stm32f4xx_hal_tim.c:897:1
	ldrb.w	r0, [sp, #31]
	.loc	7 897 1 epilogue_begin is_stmt 0 @ ../ThirdParty/STM32F4xx_HAL_Driver/Src/stm32f4xx_hal_tim.c:897:1
	add	sp, #32
	pop	{r7, pc}
.Ltmp211:
.Lfunc_end22:
	.size	HAL_TIM_OC_Start_DMA, .Lfunc_end22-HAL_TIM_OC_Start_DMA
	.cfi_endproc
	.cantunwind
	.fnend
                                        @ -- End function
	.section	.text.TIM_DMADelayPulseCplt,"ax",%progbits
	.hidden	TIM_DMADelayPulseCplt           @ -- Begin function TIM_DMADelayPulseCplt
	.globl	TIM_DMADelayPulseCplt
	.p2align	2
	.type	TIM_DMADelayPulseCplt,%function
	.code	16                              @ @TIM_DMADelayPulseCplt
	.thumb_func
TIM_DMADelayPulseCplt:
.Lfunc_begin23:
	.loc	7 4650 0 is_stmt 1              @ ../ThirdParty/STM32F4xx_HAL_Driver/Src/stm32f4xx_hal_tim.c:4650:0
	.fnstart
	.cfi_startproc
@ %bb.0:
	.save	{r7, lr}
	push	{r7, lr}
	.cfi_def_cfa_offset 8
	.cfi_offset lr, -4
	.cfi_offset r7, -8
	.pad	#8
	sub	sp, #8
	.cfi_def_cfa_offset 16
	str	r0, [sp, #4]
.Ltmp212:
	.loc	7 4651 73 prologue_end          @ ../ThirdParty/STM32F4xx_HAL_Driver/Src/stm32f4xx_hal_tim.c:4651:73
	ldr	r0, [sp, #4]
	.loc	7 4651 80 is_stmt 0             @ ../ThirdParty/STM32F4xx_HAL_Driver/Src/stm32f4xx_hal_tim.c:4651:80
	ldr	r0, [r0, #56]
	.loc	7 4651 22                       @ ../ThirdParty/STM32F4xx_HAL_Driver/Src/stm32f4xx_hal_tim.c:4651:22
	str	r0, [sp]
	.loc	7 4653 3 is_stmt 1              @ ../ThirdParty/STM32F4xx_HAL_Driver/Src/stm32f4xx_hal_tim.c:4653:3
	ldr	r1, [sp]
	movs	r0, #1
	.loc	7 4653 14 is_stmt 0             @ ../ThirdParty/STM32F4xx_HAL_Driver/Src/stm32f4xx_hal_tim.c:4653:14
	strb.w	r0, [r1, #57]
.Ltmp213:
	.loc	7 4655 6 is_stmt 1              @ ../ThirdParty/STM32F4xx_HAL_Driver/Src/stm32f4xx_hal_tim.c:4655:6
	ldr	r0, [sp, #4]
	.loc	7 4655 14 is_stmt 0             @ ../ThirdParty/STM32F4xx_HAL_Driver/Src/stm32f4xx_hal_tim.c:4655:14
	ldr	r1, [sp]
	ldr	r1, [r1, #32]
.Ltmp214:
	.loc	7 4655 6                        @ ../ThirdParty/STM32F4xx_HAL_Driver/Src/stm32f4xx_hal_tim.c:4655:6
	cmp	r0, r1
	bne	.LBB23_2
	b	.LBB23_1
.LBB23_1:
.Ltmp215:
	.loc	7 4657 5 is_stmt 1              @ ../ThirdParty/STM32F4xx_HAL_Driver/Src/stm32f4xx_hal_tim.c:4657:5
	ldr	r1, [sp]
	movs	r0, #1
	.loc	7 4657 19 is_stmt 0             @ ../ThirdParty/STM32F4xx_HAL_Driver/Src/stm32f4xx_hal_tim.c:4657:19
	strb	r0, [r1, #24]
	.loc	7 4658 3 is_stmt 1              @ ../ThirdParty/STM32F4xx_HAL_Driver/Src/stm32f4xx_hal_tim.c:4658:3
	b	.LBB23_11
.Ltmp216:
.LBB23_2:
	.loc	7 4659 11                       @ ../ThirdParty/STM32F4xx_HAL_Driver/Src/stm32f4xx_hal_tim.c:4659:11
	ldr	r0, [sp, #4]
	.loc	7 4659 19 is_stmt 0             @ ../ThirdParty/STM32F4xx_HAL_Driver/Src/stm32f4xx_hal_tim.c:4659:19
	ldr	r1, [sp]
	ldr	r1, [r1, #36]
.Ltmp217:
	.loc	7 4659 11                       @ ../ThirdParty/STM32F4xx_HAL_Driver/Src/stm32f4xx_hal_tim.c:4659:11
	cmp	r0, r1
	bne	.LBB23_4
	b	.LBB23_3
.LBB23_3:
.Ltmp218:
	.loc	7 4661 5 is_stmt 1              @ ../ThirdParty/STM32F4xx_HAL_Driver/Src/stm32f4xx_hal_tim.c:4661:5
	ldr	r1, [sp]
	movs	r0, #2
	.loc	7 4661 19 is_stmt 0             @ ../ThirdParty/STM32F4xx_HAL_Driver/Src/stm32f4xx_hal_tim.c:4661:19
	strb	r0, [r1, #24]
	.loc	7 4662 3 is_stmt 1              @ ../ThirdParty/STM32F4xx_HAL_Driver/Src/stm32f4xx_hal_tim.c:4662:3
	b	.LBB23_10
.Ltmp219:
.LBB23_4:
	.loc	7 4663 11                       @ ../ThirdParty/STM32F4xx_HAL_Driver/Src/stm32f4xx_hal_tim.c:4663:11
	ldr	r0, [sp, #4]
	.loc	7 4663 19 is_stmt 0             @ ../ThirdParty/STM32F4xx_HAL_Driver/Src/stm32f4xx_hal_tim.c:4663:19
	ldr	r1, [sp]
	ldr	r1, [r1, #40]
.Ltmp220:
	.loc	7 4663 11                       @ ../ThirdParty/STM32F4xx_HAL_Driver/Src/stm32f4xx_hal_tim.c:4663:11
	cmp	r0, r1
	bne	.LBB23_6
	b	.LBB23_5
.LBB23_5:
.Ltmp221:
	.loc	7 4665 5 is_stmt 1              @ ../ThirdParty/STM32F4xx_HAL_Driver/Src/stm32f4xx_hal_tim.c:4665:5
	ldr	r1, [sp]
	movs	r0, #4
	.loc	7 4665 19 is_stmt 0             @ ../ThirdParty/STM32F4xx_HAL_Driver/Src/stm32f4xx_hal_tim.c:4665:19
	strb	r0, [r1, #24]
	.loc	7 4666 3 is_stmt 1              @ ../ThirdParty/STM32F4xx_HAL_Driver/Src/stm32f4xx_hal_tim.c:4666:3
	b	.LBB23_9
.Ltmp222:
.LBB23_6:
	.loc	7 4667 11                       @ ../ThirdParty/STM32F4xx_HAL_Driver/Src/stm32f4xx_hal_tim.c:4667:11
	ldr	r0, [sp, #4]
	.loc	7 4667 19 is_stmt 0             @ ../ThirdParty/STM32F4xx_HAL_Driver/Src/stm32f4xx_hal_tim.c:4667:19
	ldr	r1, [sp]
	ldr	r1, [r1, #44]
.Ltmp223:
	.loc	7 4667 11                       @ ../ThirdParty/STM32F4xx_HAL_Driver/Src/stm32f4xx_hal_tim.c:4667:11
	cmp	r0, r1
	bne	.LBB23_8
	b	.LBB23_7
.LBB23_7:
.Ltmp224:
	.loc	7 4669 5 is_stmt 1              @ ../ThirdParty/STM32F4xx_HAL_Driver/Src/stm32f4xx_hal_tim.c:4669:5
	ldr	r1, [sp]
	movs	r0, #8
	.loc	7 4669 19 is_stmt 0             @ ../ThirdParty/STM32F4xx_HAL_Driver/Src/stm32f4xx_hal_tim.c:4669:19
	strb	r0, [r1, #24]
	.loc	7 4670 3 is_stmt 1              @ ../ThirdParty/STM32F4xx_HAL_Driver/Src/stm32f4xx_hal_tim.c:4670:3
	b	.LBB23_8
.Ltmp225:
.LBB23_8:
	.loc	7 0 3 is_stmt 0                 @ ../ThirdParty/STM32F4xx_HAL_Driver/Src/stm32f4xx_hal_tim.c:0:3
	b	.LBB23_9
.LBB23_9:
	b	.LBB23_10
.LBB23_10:
	b	.LBB23_11
.LBB23_11:
	.loc	7 4672 37 is_stmt 1             @ ../ThirdParty/STM32F4xx_HAL_Driver/Src/stm32f4xx_hal_tim.c:4672:37
	ldr	r0, [sp]
	.loc	7 4672 3 is_stmt 0              @ ../ThirdParty/STM32F4xx_HAL_Driver/Src/stm32f4xx_hal_tim.c:4672:3
	bl	HAL_TIM_PWM_PulseFinishedCallback
	.loc	7 4674 3 is_stmt 1              @ ../ThirdParty/STM32F4xx_HAL_Driver/Src/stm32f4xx_hal_tim.c:4674:3
	ldr	r1, [sp]
	movs	r0, #0
	.loc	7 4674 17 is_stmt 0             @ ../ThirdParty/STM32F4xx_HAL_Driver/Src/stm32f4xx_hal_tim.c:4674:17
	strb	r0, [r1, #24]
	.loc	7 4675 1 epilogue_begin is_stmt 1 @ ../ThirdParty/STM32F4xx_HAL_Driver/Src/stm32f4xx_hal_tim.c:4675:1
	add	sp, #8
	pop	{r7, pc}
.Ltmp226:
.Lfunc_end23:
	.size	TIM_DMADelayPulseCplt, .Lfunc_end23-TIM_DMADelayPulseCplt
	.cfi_endproc
	.cantunwind
	.fnend
                                        @ -- End function
	.section	.text.HAL_TIM_OC_Stop_DMA,"ax",%progbits
	.hidden	HAL_TIM_OC_Stop_DMA             @ -- Begin function HAL_TIM_OC_Stop_DMA
	.globl	HAL_TIM_OC_Stop_DMA
	.p2align	2
	.type	HAL_TIM_OC_Stop_DMA,%function
	.code	16                              @ @HAL_TIM_OC_Stop_DMA
	.thumb_func
HAL_TIM_OC_Stop_DMA:
.Lfunc_begin24:
	.loc	7 912 0                         @ ../ThirdParty/STM32F4xx_HAL_Driver/Src/stm32f4xx_hal_tim.c:912:0
	.fnstart
	.cfi_startproc
@ %bb.0:
	.save	{r7, lr}
	push	{r7, lr}
	.cfi_def_cfa_offset 8
	.cfi_offset lr, -4
	.cfi_offset r7, -8
	.pad	#16
	sub	sp, #16
	.cfi_def_cfa_offset 24
	str	r0, [sp, #12]
	str	r1, [sp, #8]
.Ltmp227:
	.loc	7 916 11 prologue_end           @ ../ThirdParty/STM32F4xx_HAL_Driver/Src/stm32f4xx_hal_tim.c:916:11
	ldr	r0, [sp, #8]
	.loc	7 916 3 is_stmt 0               @ ../ThirdParty/STM32F4xx_HAL_Driver/Src/stm32f4xx_hal_tim.c:916:3
	str	r0, [sp, #4]                    @ 4-byte Spill
	cmp	r0, #12
	bhi	.LBB24_7
@ %bb.1:
	.loc	7 0 3                           @ ../ThirdParty/STM32F4xx_HAL_Driver/Src/stm32f4xx_hal_tim.c:0:3
	ldr	r1, [sp, #4]                    @ 4-byte Reload
.LCPI24_0:
	tbb	[pc, r1]
@ %bb.2:
.LJTI24_0:
	.byte	(.LBB24_3-(.LCPI24_0+4))/2
	.byte	(.LBB24_7-(.LCPI24_0+4))/2
	.byte	(.LBB24_7-(.LCPI24_0+4))/2
	.byte	(.LBB24_7-(.LCPI24_0+4))/2
	.byte	(.LBB24_4-(.LCPI24_0+4))/2
	.byte	(.LBB24_7-(.LCPI24_0+4))/2
	.byte	(.LBB24_7-(.LCPI24_0+4))/2
	.byte	(.LBB24_7-(.LCPI24_0+4))/2
	.byte	(.LBB24_5-(.LCPI24_0+4))/2
	.byte	(.LBB24_7-(.LCPI24_0+4))/2
	.byte	(.LBB24_7-(.LCPI24_0+4))/2
	.byte	(.LBB24_7-(.LCPI24_0+4))/2
	.byte	(.LBB24_6-(.LCPI24_0+4))/2
	.p2align	1
.LBB24_3:
.Ltmp228:
	.loc	7 921 7 is_stmt 1               @ ../ThirdParty/STM32F4xx_HAL_Driver/Src/stm32f4xx_hal_tim.c:921:7
	ldr	r0, [sp, #12]
	ldr	r1, [r0]
	ldr	r0, [r1, #12]
	bic	r0, r0, #512
	str	r0, [r1, #12]
.Ltmp229:
	.loc	7 923 5                         @ ../ThirdParty/STM32F4xx_HAL_Driver/Src/stm32f4xx_hal_tim.c:923:5
	b	.LBB24_8
.LBB24_4:
.Ltmp230:
	.loc	7 928 7                         @ ../ThirdParty/STM32F4xx_HAL_Driver/Src/stm32f4xx_hal_tim.c:928:7
	ldr	r0, [sp, #12]
	ldr	r1, [r0]
	ldr	r0, [r1, #12]
	bic	r0, r0, #1024
	str	r0, [r1, #12]
.Ltmp231:
	.loc	7 930 5                         @ ../ThirdParty/STM32F4xx_HAL_Driver/Src/stm32f4xx_hal_tim.c:930:5
	b	.LBB24_8
.LBB24_5:
.Ltmp232:
	.loc	7 935 7                         @ ../ThirdParty/STM32F4xx_HAL_Driver/Src/stm32f4xx_hal_tim.c:935:7
	ldr	r0, [sp, #12]
	ldr	r1, [r0]
	ldr	r0, [r1, #12]
	bic	r0, r0, #2048
	str	r0, [r1, #12]
.Ltmp233:
	.loc	7 937 5                         @ ../ThirdParty/STM32F4xx_HAL_Driver/Src/stm32f4xx_hal_tim.c:937:5
	b	.LBB24_8
.LBB24_6:
.Ltmp234:
	.loc	7 942 7                         @ ../ThirdParty/STM32F4xx_HAL_Driver/Src/stm32f4xx_hal_tim.c:942:7
	ldr	r0, [sp, #12]
	ldr	r1, [r0]
	ldr	r0, [r1, #12]
	bic	r0, r0, #4096
	str	r0, [r1, #12]
.Ltmp235:
	.loc	7 944 5                         @ ../ThirdParty/STM32F4xx_HAL_Driver/Src/stm32f4xx_hal_tim.c:944:5
	b	.LBB24_8
.LBB24_7:
	.loc	7 947 5                         @ ../ThirdParty/STM32F4xx_HAL_Driver/Src/stm32f4xx_hal_tim.c:947:5
	b	.LBB24_8
.Ltmp236:
.LBB24_8:
	.loc	7 951 21                        @ ../ThirdParty/STM32F4xx_HAL_Driver/Src/stm32f4xx_hal_tim.c:951:21
	ldr	r0, [sp, #12]
	.loc	7 951 27 is_stmt 0              @ ../ThirdParty/STM32F4xx_HAL_Driver/Src/stm32f4xx_hal_tim.c:951:27
	ldr	r0, [r0]
	.loc	7 951 37                        @ ../ThirdParty/STM32F4xx_HAL_Driver/Src/stm32f4xx_hal_tim.c:951:37
	ldr	r1, [sp, #8]
	movs	r2, #0
	.loc	7 951 3                         @ ../ThirdParty/STM32F4xx_HAL_Driver/Src/stm32f4xx_hal_tim.c:951:3
	bl	TIM_CCxChannelCmd
.Ltmp237:
	.loc	7 953 6 is_stmt 1               @ ../ThirdParty/STM32F4xx_HAL_Driver/Src/stm32f4xx_hal_tim.c:953:6
	ldr	r0, [sp, #12]
	ldr	r1, [r0]
	movs	r0, #1
	movs	r2, #0
	movt	r2, #16385
	cmp	r1, r2
	str	r0, [sp]                        @ 4-byte Spill
	beq	.LBB24_10
	b	.LBB24_9
.LBB24_9:
	ldr	r0, [sp, #12]
	ldr	r0, [r0]
	movw	r1, #64512
	movt	r1, #49150
	add	r0, r1
	clz	r0, r0
	lsrs	r0, r0, #5
	str	r0, [sp]                        @ 4-byte Spill
	b	.LBB24_10
.Ltmp238:
.LBB24_10:
	.loc	7 0 6 is_stmt 0                 @ ../ThirdParty/STM32F4xx_HAL_Driver/Src/stm32f4xx_hal_tim.c:0:6
	ldr	r0, [sp]                        @ 4-byte Reload
	.loc	7 953 6                         @ ../ThirdParty/STM32F4xx_HAL_Driver/Src/stm32f4xx_hal_tim.c:953:6
	lsls	r0, r0, #31
	cbz	r0, .LBB24_18
	b	.LBB24_11
.LBB24_11:
.Ltmp239:
	.loc	7 956 5 is_stmt 1               @ ../ThirdParty/STM32F4xx_HAL_Driver/Src/stm32f4xx_hal_tim.c:956:5
	b	.LBB24_12
.LBB24_12:
.Ltmp240:
	.loc	7 956 5 is_stmt 0               @ ../ThirdParty/STM32F4xx_HAL_Driver/Src/stm32f4xx_hal_tim.c:956:5
	ldr	r0, [sp, #12]
	ldr	r0, [r0]
	ldr	r0, [r0, #32]
	movw	r1, #4369
.Ltmp241:
	.loc	7 956 5                         @ ../ThirdParty/STM32F4xx_HAL_Driver/Src/stm32f4xx_hal_tim.c:956:5
	tst	r0, r1
	bne	.LBB24_16
	b	.LBB24_13
.LBB24_13:
.Ltmp242:
	.loc	7 956 5                         @ ../ThirdParty/STM32F4xx_HAL_Driver/Src/stm32f4xx_hal_tim.c:956:5
	ldr	r0, [sp, #12]
	ldr	r0, [r0]
	ldr	r0, [r0, #32]
	movw	r1, #1092
.Ltmp243:
	.loc	7 956 5                         @ ../ThirdParty/STM32F4xx_HAL_Driver/Src/stm32f4xx_hal_tim.c:956:5
	tst	r0, r1
	bne	.LBB24_15
	b	.LBB24_14
.LBB24_14:
.Ltmp244:
	.loc	7 956 5                         @ ../ThirdParty/STM32F4xx_HAL_Driver/Src/stm32f4xx_hal_tim.c:956:5
	ldr	r0, [sp, #12]
	ldr	r1, [r0]
	ldr	r0, [r1, #68]
	bic	r0, r0, #32768
	str	r0, [r1, #68]
	b	.LBB24_15
.Ltmp245:
.LBB24_15:
	.loc	7 956 5                         @ ../ThirdParty/STM32F4xx_HAL_Driver/Src/stm32f4xx_hal_tim.c:956:5
	b	.LBB24_16
.Ltmp246:
.LBB24_16:
	.loc	7 956 5                         @ ../ThirdParty/STM32F4xx_HAL_Driver/Src/stm32f4xx_hal_tim.c:956:5
	b	.LBB24_17
.Ltmp247:
.LBB24_17:
	.loc	7 957 3 is_stmt 1               @ ../ThirdParty/STM32F4xx_HAL_Driver/Src/stm32f4xx_hal_tim.c:957:3
	b	.LBB24_18
.Ltmp248:
.LBB24_18:
	.loc	7 960 3                         @ ../ThirdParty/STM32F4xx_HAL_Driver/Src/stm32f4xx_hal_tim.c:960:3
	b	.LBB24_19
.LBB24_19:
.Ltmp249:
	.loc	7 960 3 is_stmt 0               @ ../ThirdParty/STM32F4xx_HAL_Driver/Src/stm32f4xx_hal_tim.c:960:3
	ldr	r0, [sp, #12]
	ldr	r0, [r0]
	ldr	r0, [r0, #32]
	movw	r1, #4369
.Ltmp250:
	.loc	7 960 3                         @ ../ThirdParty/STM32F4xx_HAL_Driver/Src/stm32f4xx_hal_tim.c:960:3
	tst	r0, r1
	bne	.LBB24_23
	b	.LBB24_20
.LBB24_20:
.Ltmp251:
	.loc	7 960 3                         @ ../ThirdParty/STM32F4xx_HAL_Driver/Src/stm32f4xx_hal_tim.c:960:3
	ldr	r0, [sp, #12]
	ldr	r0, [r0]
	ldr	r0, [r0, #32]
	movw	r1, #1092
.Ltmp252:
	.loc	7 960 3                         @ ../ThirdParty/STM32F4xx_HAL_Driver/Src/stm32f4xx_hal_tim.c:960:3
	tst	r0, r1
	bne	.LBB24_22
	b	.LBB24_21
.LBB24_21:
.Ltmp253:
	.loc	7 960 3                         @ ../ThirdParty/STM32F4xx_HAL_Driver/Src/stm32f4xx_hal_tim.c:960:3
	ldr	r0, [sp, #12]
	ldr	r1, [r0]
	ldr	r0, [r1]
	bic	r0, r0, #1
	str	r0, [r1]
	b	.LBB24_22
.Ltmp254:
.LBB24_22:
	.loc	7 960 3                         @ ../ThirdParty/STM32F4xx_HAL_Driver/Src/stm32f4xx_hal_tim.c:960:3
	b	.LBB24_23
.Ltmp255:
.LBB24_23:
	.loc	7 960 3                         @ ../ThirdParty/STM32F4xx_HAL_Driver/Src/stm32f4xx_hal_tim.c:960:3
	b	.LBB24_24
.Ltmp256:
.LBB24_24:
	.loc	7 963 3 is_stmt 1               @ ../ThirdParty/STM32F4xx_HAL_Driver/Src/stm32f4xx_hal_tim.c:963:3
	ldr	r1, [sp, #12]
	movs	r0, #1
	.loc	7 963 15 is_stmt 0              @ ../ThirdParty/STM32F4xx_HAL_Driver/Src/stm32f4xx_hal_tim.c:963:15
	strb.w	r0, [r1, #57]
	movs	r0, #0
	.loc	7 966 3 epilogue_begin is_stmt 1 @ ../ThirdParty/STM32F4xx_HAL_Driver/Src/stm32f4xx_hal_tim.c:966:3
	add	sp, #16
	pop	{r7, pc}
.Ltmp257:
.Lfunc_end24:
	.size	HAL_TIM_OC_Stop_DMA, .Lfunc_end24-HAL_TIM_OC_Stop_DMA
	.cfi_endproc
	.cantunwind
	.fnend
                                        @ -- End function
	.section	.text.HAL_TIM_PWM_Init,"ax",%progbits
	.hidden	HAL_TIM_PWM_Init                @ -- Begin function HAL_TIM_PWM_Init
	.globl	HAL_TIM_PWM_Init
	.p2align	2
	.type	HAL_TIM_PWM_Init,%function
	.code	16                              @ @HAL_TIM_PWM_Init
	.thumb_func
HAL_TIM_PWM_Init:
.Lfunc_begin25:
	.loc	7 1001 0                        @ ../ThirdParty/STM32F4xx_HAL_Driver/Src/stm32f4xx_hal_tim.c:1001:0
	.fnstart
	.cfi_startproc
@ %bb.0:
	.save	{r7, lr}
	push	{r7, lr}
	.cfi_def_cfa_offset 8
	.cfi_offset lr, -4
	.cfi_offset r7, -8
	.pad	#8
	sub	sp, #8
	.cfi_def_cfa_offset 16
	str	r0, [sp]
.Ltmp258:
	.loc	7 1003 6 prologue_end           @ ../ThirdParty/STM32F4xx_HAL_Driver/Src/stm32f4xx_hal_tim.c:1003:6
	ldr	r0, [sp]
.Ltmp259:
	.loc	7 1003 6 is_stmt 0              @ ../ThirdParty/STM32F4xx_HAL_Driver/Src/stm32f4xx_hal_tim.c:1003:6
	cbnz	r0, .LBB25_2
	b	.LBB25_1
.LBB25_1:
	.loc	7 0 6                           @ ../ThirdParty/STM32F4xx_HAL_Driver/Src/stm32f4xx_hal_tim.c:0:6
	movs	r0, #1
.Ltmp260:
	.loc	7 1005 5 is_stmt 1              @ ../ThirdParty/STM32F4xx_HAL_Driver/Src/stm32f4xx_hal_tim.c:1005:5
	strb.w	r0, [sp, #7]
	b	.LBB25_5
.Ltmp261:
.LBB25_2:
	.loc	7 1013 6                        @ ../ThirdParty/STM32F4xx_HAL_Driver/Src/stm32f4xx_hal_tim.c:1013:6
	ldr	r0, [sp]
	.loc	7 1013 12 is_stmt 0             @ ../ThirdParty/STM32F4xx_HAL_Driver/Src/stm32f4xx_hal_tim.c:1013:12
	ldrb.w	r0, [r0, #57]
.Ltmp262:
	.loc	7 1013 6                        @ ../ThirdParty/STM32F4xx_HAL_Driver/Src/stm32f4xx_hal_tim.c:1013:6
	cbnz	r0, .LBB25_4
	b	.LBB25_3
.LBB25_3:
.Ltmp263:
	.loc	7 1016 5 is_stmt 1              @ ../ThirdParty/STM32F4xx_HAL_Driver/Src/stm32f4xx_hal_tim.c:1016:5
	ldr	r1, [sp]
	movs	r0, #0
	.loc	7 1016 16 is_stmt 0             @ ../ThirdParty/STM32F4xx_HAL_Driver/Src/stm32f4xx_hal_tim.c:1016:16
	strb.w	r0, [r1, #56]
	.loc	7 1018 25 is_stmt 1             @ ../ThirdParty/STM32F4xx_HAL_Driver/Src/stm32f4xx_hal_tim.c:1018:25
	ldr	r0, [sp]
	.loc	7 1018 5 is_stmt 0              @ ../ThirdParty/STM32F4xx_HAL_Driver/Src/stm32f4xx_hal_tim.c:1018:5
	bl	HAL_TIM_PWM_MspInit
	.loc	7 1019 3 is_stmt 1              @ ../ThirdParty/STM32F4xx_HAL_Driver/Src/stm32f4xx_hal_tim.c:1019:3
	b	.LBB25_4
.Ltmp264:
.LBB25_4:
	.loc	7 1022 3                        @ ../ThirdParty/STM32F4xx_HAL_Driver/Src/stm32f4xx_hal_tim.c:1022:3
	ldr	r1, [sp]
	movs	r0, #2
	.loc	7 1022 14 is_stmt 0             @ ../ThirdParty/STM32F4xx_HAL_Driver/Src/stm32f4xx_hal_tim.c:1022:14
	strb.w	r0, [r1, #57]
	.loc	7 1025 22 is_stmt 1             @ ../ThirdParty/STM32F4xx_HAL_Driver/Src/stm32f4xx_hal_tim.c:1025:22
	ldr	r1, [sp]
	.loc	7 1025 28 is_stmt 0             @ ../ThirdParty/STM32F4xx_HAL_Driver/Src/stm32f4xx_hal_tim.c:1025:28
	ldr	r0, [r1], #4
	.loc	7 1025 3                        @ ../ThirdParty/STM32F4xx_HAL_Driver/Src/stm32f4xx_hal_tim.c:1025:3
	bl	TIM_Base_SetConfig
	.loc	7 1028 3 is_stmt 1              @ ../ThirdParty/STM32F4xx_HAL_Driver/Src/stm32f4xx_hal_tim.c:1028:3
	ldr	r1, [sp]
	movs	r0, #1
	.loc	7 1028 14 is_stmt 0             @ ../ThirdParty/STM32F4xx_HAL_Driver/Src/stm32f4xx_hal_tim.c:1028:14
	strb.w	r0, [r1, #57]
	movs	r0, #0
	.loc	7 1030 3 is_stmt 1              @ ../ThirdParty/STM32F4xx_HAL_Driver/Src/stm32f4xx_hal_tim.c:1030:3
	strb.w	r0, [sp, #7]
	b	.LBB25_5
.LBB25_5:
	.loc	7 1031 1                        @ ../ThirdParty/STM32F4xx_HAL_Driver/Src/stm32f4xx_hal_tim.c:1031:1
	ldrb.w	r0, [sp, #7]
	.loc	7 1031 1 epilogue_begin is_stmt 0 @ ../ThirdParty/STM32F4xx_HAL_Driver/Src/stm32f4xx_hal_tim.c:1031:1
	add	sp, #8
	pop	{r7, pc}
.Ltmp265:
.Lfunc_end25:
	.size	HAL_TIM_PWM_Init, .Lfunc_end25-HAL_TIM_PWM_Init
	.cfi_endproc
	.cantunwind
	.fnend
                                        @ -- End function
	.section	.text.HAL_TIM_PWM_MspInit,"ax",%progbits
	.hidden	HAL_TIM_PWM_MspInit             @ -- Begin function HAL_TIM_PWM_MspInit
	.weak	HAL_TIM_PWM_MspInit
	.p2align	2
	.type	HAL_TIM_PWM_MspInit,%function
	.code	16                              @ @HAL_TIM_PWM_MspInit
	.thumb_func
HAL_TIM_PWM_MspInit:
.Lfunc_begin26:
	.loc	7 1068 0 is_stmt 1              @ ../ThirdParty/STM32F4xx_HAL_Driver/Src/stm32f4xx_hal_tim.c:1068:0
	.fnstart
	.cfi_startproc
@ %bb.0:
	.pad	#4
	sub	sp, #4
	.cfi_def_cfa_offset 4
	str	r0, [sp]
.Ltmp266:
	.loc	7 1074 1 prologue_end epilogue_begin @ ../ThirdParty/STM32F4xx_HAL_Driver/Src/stm32f4xx_hal_tim.c:1074:1
	add	sp, #4
	bx	lr
.Ltmp267:
.Lfunc_end26:
	.size	HAL_TIM_PWM_MspInit, .Lfunc_end26-HAL_TIM_PWM_MspInit
	.cfi_endproc
	.cantunwind
	.fnend
                                        @ -- End function
	.section	.text.HAL_TIM_PWM_DeInit,"ax",%progbits
	.hidden	HAL_TIM_PWM_DeInit              @ -- Begin function HAL_TIM_PWM_DeInit
	.globl	HAL_TIM_PWM_DeInit
	.p2align	2
	.type	HAL_TIM_PWM_DeInit,%function
	.code	16                              @ @HAL_TIM_PWM_DeInit
	.thumb_func
HAL_TIM_PWM_DeInit:
.Lfunc_begin27:
	.loc	7 1040 0                        @ ../ThirdParty/STM32F4xx_HAL_Driver/Src/stm32f4xx_hal_tim.c:1040:0
	.fnstart
	.cfi_startproc
@ %bb.0:
	.save	{r7, lr}
	push	{r7, lr}
	.cfi_def_cfa_offset 8
	.cfi_offset lr, -4
	.cfi_offset r7, -8
	.pad	#8
	sub	sp, #8
	.cfi_def_cfa_offset 16
	str	r0, [sp, #4]
.Ltmp268:
	.loc	7 1044 3 prologue_end           @ ../ThirdParty/STM32F4xx_HAL_Driver/Src/stm32f4xx_hal_tim.c:1044:3
	ldr	r1, [sp, #4]
	movs	r0, #2
	.loc	7 1044 15 is_stmt 0             @ ../ThirdParty/STM32F4xx_HAL_Driver/Src/stm32f4xx_hal_tim.c:1044:15
	strb.w	r0, [r1, #57]
	.loc	7 1047 3 is_stmt 1              @ ../ThirdParty/STM32F4xx_HAL_Driver/Src/stm32f4xx_hal_tim.c:1047:3
	b	.LBB27_1
.LBB27_1:
.Ltmp269:
	.loc	7 1047 3 is_stmt 0              @ ../ThirdParty/STM32F4xx_HAL_Driver/Src/stm32f4xx_hal_tim.c:1047:3
	ldr	r0, [sp, #4]
	ldr	r0, [r0]
	ldr	r0, [r0, #32]
	movw	r1, #4369
.Ltmp270:
	.loc	7 1047 3                        @ ../ThirdParty/STM32F4xx_HAL_Driver/Src/stm32f4xx_hal_tim.c:1047:3
	tst	r0, r1
	bne	.LBB27_5
	b	.LBB27_2
.LBB27_2:
.Ltmp271:
	.loc	7 1047 3                        @ ../ThirdParty/STM32F4xx_HAL_Driver/Src/stm32f4xx_hal_tim.c:1047:3
	ldr	r0, [sp, #4]
	ldr	r0, [r0]
	ldr	r0, [r0, #32]
	movw	r1, #1092
.Ltmp272:
	.loc	7 1047 3                        @ ../ThirdParty/STM32F4xx_HAL_Driver/Src/stm32f4xx_hal_tim.c:1047:3
	tst	r0, r1
	bne	.LBB27_4
	b	.LBB27_3
.LBB27_3:
.Ltmp273:
	.loc	7 1047 3                        @ ../ThirdParty/STM32F4xx_HAL_Driver/Src/stm32f4xx_hal_tim.c:1047:3
	ldr	r0, [sp, #4]
	ldr	r1, [r0]
	ldr	r0, [r1]
	bic	r0, r0, #1
	str	r0, [r1]
	b	.LBB27_4
.Ltmp274:
.LBB27_4:
	.loc	7 1047 3                        @ ../ThirdParty/STM32F4xx_HAL_Driver/Src/stm32f4xx_hal_tim.c:1047:3
	b	.LBB27_5
.Ltmp275:
.LBB27_5:
	.loc	7 1047 3                        @ ../ThirdParty/STM32F4xx_HAL_Driver/Src/stm32f4xx_hal_tim.c:1047:3
	b	.LBB27_6
.Ltmp276:
.LBB27_6:
	.loc	7 1050 25 is_stmt 1             @ ../ThirdParty/STM32F4xx_HAL_Driver/Src/stm32f4xx_hal_tim.c:1050:25
	ldr	r0, [sp, #4]
	.loc	7 1050 3 is_stmt 0              @ ../ThirdParty/STM32F4xx_HAL_Driver/Src/stm32f4xx_hal_tim.c:1050:3
	bl	HAL_TIM_PWM_MspDeInit
	.loc	7 1053 3 is_stmt 1              @ ../ThirdParty/STM32F4xx_HAL_Driver/Src/stm32f4xx_hal_tim.c:1053:3
	ldr	r1, [sp, #4]
	movs	r0, #0
	.loc	7 1053 15 is_stmt 0             @ ../ThirdParty/STM32F4xx_HAL_Driver/Src/stm32f4xx_hal_tim.c:1053:15
	strb.w	r0, [r1, #57]
	.loc	7 1056 3 is_stmt 1              @ ../ThirdParty/STM32F4xx_HAL_Driver/Src/stm32f4xx_hal_tim.c:1056:3
	b	.LBB27_7
.LBB27_7:
.Ltmp277:
	.loc	7 1056 3 is_stmt 0              @ ../ThirdParty/STM32F4xx_HAL_Driver/Src/stm32f4xx_hal_tim.c:1056:3
	ldr	r1, [sp, #4]
	movs	r0, #0
	strb.w	r0, [r1, #56]
	b	.LBB27_8
.Ltmp278:
.LBB27_8:
	.loc	7 0 3                           @ ../ThirdParty/STM32F4xx_HAL_Driver/Src/stm32f4xx_hal_tim.c:0:3
	movs	r0, #0
	.loc	7 1058 3 epilogue_begin is_stmt 1 @ ../ThirdParty/STM32F4xx_HAL_Driver/Src/stm32f4xx_hal_tim.c:1058:3
	add	sp, #8
	pop	{r7, pc}
.Ltmp279:
.Lfunc_end27:
	.size	HAL_TIM_PWM_DeInit, .Lfunc_end27-HAL_TIM_PWM_DeInit
	.cfi_endproc
	.cantunwind
	.fnend
                                        @ -- End function
	.section	.text.HAL_TIM_PWM_MspDeInit,"ax",%progbits
	.hidden	HAL_TIM_PWM_MspDeInit           @ -- Begin function HAL_TIM_PWM_MspDeInit
	.weak	HAL_TIM_PWM_MspDeInit
	.p2align	2
	.type	HAL_TIM_PWM_MspDeInit,%function
	.code	16                              @ @HAL_TIM_PWM_MspDeInit
	.thumb_func
HAL_TIM_PWM_MspDeInit:
.Lfunc_begin28:
	.loc	7 1083 0                        @ ../ThirdParty/STM32F4xx_HAL_Driver/Src/stm32f4xx_hal_tim.c:1083:0
	.fnstart
	.cfi_startproc
@ %bb.0:
	.pad	#4
	sub	sp, #4
	.cfi_def_cfa_offset 4
	str	r0, [sp]
.Ltmp280:
	.loc	7 1089 1 prologue_end epilogue_begin @ ../ThirdParty/STM32F4xx_HAL_Driver/Src/stm32f4xx_hal_tim.c:1089:1
	add	sp, #4
	bx	lr
.Ltmp281:
.Lfunc_end28:
	.size	HAL_TIM_PWM_MspDeInit, .Lfunc_end28-HAL_TIM_PWM_MspDeInit
	.cfi_endproc
	.cantunwind
	.fnend
                                        @ -- End function
	.section	.text.HAL_TIM_PWM_Start,"ax",%progbits
	.hidden	HAL_TIM_PWM_Start               @ -- Begin function HAL_TIM_PWM_Start
	.globl	HAL_TIM_PWM_Start
	.p2align	2
	.type	HAL_TIM_PWM_Start,%function
	.code	16                              @ @HAL_TIM_PWM_Start
	.thumb_func
HAL_TIM_PWM_Start:
.Lfunc_begin29:
	.loc	7 1104 0                        @ ../ThirdParty/STM32F4xx_HAL_Driver/Src/stm32f4xx_hal_tim.c:1104:0
	.fnstart
	.cfi_startproc
@ %bb.0:
	.save	{r7, lr}
	push	{r7, lr}
	.cfi_def_cfa_offset 8
	.cfi_offset lr, -4
	.cfi_offset r7, -8
	.pad	#16
	sub	sp, #16
	.cfi_def_cfa_offset 24
	str	r0, [sp, #12]
	str	r1, [sp, #8]
.Ltmp282:
	.loc	7 1109 21 prologue_end          @ ../ThirdParty/STM32F4xx_HAL_Driver/Src/stm32f4xx_hal_tim.c:1109:21
	ldr	r0, [sp, #12]
	.loc	7 1109 27 is_stmt 0             @ ../ThirdParty/STM32F4xx_HAL_Driver/Src/stm32f4xx_hal_tim.c:1109:27
	ldr	r0, [r0]
	.loc	7 1109 37                       @ ../ThirdParty/STM32F4xx_HAL_Driver/Src/stm32f4xx_hal_tim.c:1109:37
	ldr	r1, [sp, #8]
	movs	r2, #1
	.loc	7 1109 3                        @ ../ThirdParty/STM32F4xx_HAL_Driver/Src/stm32f4xx_hal_tim.c:1109:3
	str	r2, [sp]                        @ 4-byte Spill
	bl	TIM_CCxChannelCmd
	ldr	r0, [sp]                        @ 4-byte Reload
.Ltmp283:
	.loc	7 1111 6 is_stmt 1              @ ../ThirdParty/STM32F4xx_HAL_Driver/Src/stm32f4xx_hal_tim.c:1111:6
	ldr	r1, [sp, #12]
	ldr	r1, [r1]
	movs	r2, #0
	movt	r2, #16385
	cmp	r1, r2
	str	r0, [sp, #4]                    @ 4-byte Spill
	beq	.LBB29_2
	b	.LBB29_1
.LBB29_1:
	ldr	r0, [sp, #12]
	ldr	r0, [r0]
	movw	r1, #64512
	movt	r1, #49150
	add	r0, r1
	clz	r0, r0
	lsrs	r0, r0, #5
	str	r0, [sp, #4]                    @ 4-byte Spill
	b	.LBB29_2
.Ltmp284:
.LBB29_2:
	.loc	7 0 6 is_stmt 0                 @ ../ThirdParty/STM32F4xx_HAL_Driver/Src/stm32f4xx_hal_tim.c:0:6
	ldr	r0, [sp, #4]                    @ 4-byte Reload
	.loc	7 1111 6                        @ ../ThirdParty/STM32F4xx_HAL_Driver/Src/stm32f4xx_hal_tim.c:1111:6
	lsls	r0, r0, #31
	cbz	r0, .LBB29_4
	b	.LBB29_3
.LBB29_3:
.Ltmp285:
	.loc	7 1114 5 is_stmt 1              @ ../ThirdParty/STM32F4xx_HAL_Driver/Src/stm32f4xx_hal_tim.c:1114:5
	ldr	r0, [sp, #12]
	ldr	r1, [r0]
	ldr	r0, [r1, #68]
	orr	r0, r0, #32768
	str	r0, [r1, #68]
	.loc	7 1115 3                        @ ../ThirdParty/STM32F4xx_HAL_Driver/Src/stm32f4xx_hal_tim.c:1115:3
	b	.LBB29_4
.Ltmp286:
.LBB29_4:
	.loc	7 1118 3                        @ ../ThirdParty/STM32F4xx_HAL_Driver/Src/stm32f4xx_hal_tim.c:1118:3
	ldr	r0, [sp, #12]
	ldr	r1, [r0]
	ldr	r0, [r1]
	orr	r0, r0, #1
	str	r0, [r1]
	movs	r0, #0
	.loc	7 1121 3 epilogue_begin         @ ../ThirdParty/STM32F4xx_HAL_Driver/Src/stm32f4xx_hal_tim.c:1121:3
	add	sp, #16
	pop	{r7, pc}
.Ltmp287:
.Lfunc_end29:
	.size	HAL_TIM_PWM_Start, .Lfunc_end29-HAL_TIM_PWM_Start
	.cfi_endproc
	.cantunwind
	.fnend
                                        @ -- End function
	.section	.text.HAL_TIM_PWM_Stop,"ax",%progbits
	.hidden	HAL_TIM_PWM_Stop                @ -- Begin function HAL_TIM_PWM_Stop
	.globl	HAL_TIM_PWM_Stop
	.p2align	2
	.type	HAL_TIM_PWM_Stop,%function
	.code	16                              @ @HAL_TIM_PWM_Stop
	.thumb_func
HAL_TIM_PWM_Stop:
.Lfunc_begin30:
	.loc	7 1137 0                        @ ../ThirdParty/STM32F4xx_HAL_Driver/Src/stm32f4xx_hal_tim.c:1137:0
	.fnstart
	.cfi_startproc
@ %bb.0:
	.save	{r7, lr}
	push	{r7, lr}
	.cfi_def_cfa_offset 8
	.cfi_offset lr, -4
	.cfi_offset r7, -8
	.pad	#16
	sub	sp, #16
	.cfi_def_cfa_offset 24
	str	r0, [sp, #12]
	str	r1, [sp, #8]
.Ltmp288:
	.loc	7 1142 21 prologue_end          @ ../ThirdParty/STM32F4xx_HAL_Driver/Src/stm32f4xx_hal_tim.c:1142:21
	ldr	r0, [sp, #12]
	.loc	7 1142 27 is_stmt 0             @ ../ThirdParty/STM32F4xx_HAL_Driver/Src/stm32f4xx_hal_tim.c:1142:27
	ldr	r0, [r0]
	.loc	7 1142 37                       @ ../ThirdParty/STM32F4xx_HAL_Driver/Src/stm32f4xx_hal_tim.c:1142:37
	ldr	r1, [sp, #8]
	movs	r2, #0
	.loc	7 1142 3                        @ ../ThirdParty/STM32F4xx_HAL_Driver/Src/stm32f4xx_hal_tim.c:1142:3
	bl	TIM_CCxChannelCmd
.Ltmp289:
	.loc	7 1144 6 is_stmt 1              @ ../ThirdParty/STM32F4xx_HAL_Driver/Src/stm32f4xx_hal_tim.c:1144:6
	ldr	r0, [sp, #12]
	ldr	r1, [r0]
	movs	r0, #1
	movs	r2, #0
	movt	r2, #16385
	cmp	r1, r2
	str	r0, [sp, #4]                    @ 4-byte Spill
	beq	.LBB30_2
	b	.LBB30_1
.LBB30_1:
	ldr	r0, [sp, #12]
	ldr	r0, [r0]
	movw	r1, #64512
	movt	r1, #49150
	add	r0, r1
	clz	r0, r0
	lsrs	r0, r0, #5
	str	r0, [sp, #4]                    @ 4-byte Spill
	b	.LBB30_2
.Ltmp290:
.LBB30_2:
	.loc	7 0 6 is_stmt 0                 @ ../ThirdParty/STM32F4xx_HAL_Driver/Src/stm32f4xx_hal_tim.c:0:6
	ldr	r0, [sp, #4]                    @ 4-byte Reload
	.loc	7 1144 6                        @ ../ThirdParty/STM32F4xx_HAL_Driver/Src/stm32f4xx_hal_tim.c:1144:6
	lsls	r0, r0, #31
	cbz	r0, .LBB30_10
	b	.LBB30_3
.LBB30_3:
.Ltmp291:
	.loc	7 1147 5 is_stmt 1              @ ../ThirdParty/STM32F4xx_HAL_Driver/Src/stm32f4xx_hal_tim.c:1147:5
	b	.LBB30_4
.LBB30_4:
.Ltmp292:
	.loc	7 1147 5 is_stmt 0              @ ../ThirdParty/STM32F4xx_HAL_Driver/Src/stm32f4xx_hal_tim.c:1147:5
	ldr	r0, [sp, #12]
	ldr	r0, [r0]
	ldr	r0, [r0, #32]
	movw	r1, #4369
.Ltmp293:
	.loc	7 1147 5                        @ ../ThirdParty/STM32F4xx_HAL_Driver/Src/stm32f4xx_hal_tim.c:1147:5
	tst	r0, r1
	bne	.LBB30_8
	b	.LBB30_5
.LBB30_5:
.Ltmp294:
	.loc	7 1147 5                        @ ../ThirdParty/STM32F4xx_HAL_Driver/Src/stm32f4xx_hal_tim.c:1147:5
	ldr	r0, [sp, #12]
	ldr	r0, [r0]
	ldr	r0, [r0, #32]
	movw	r1, #1092
.Ltmp295:
	.loc	7 1147 5                        @ ../ThirdParty/STM32F4xx_HAL_Driver/Src/stm32f4xx_hal_tim.c:1147:5
	tst	r0, r1
	bne	.LBB30_7
	b	.LBB30_6
.LBB30_6:
.Ltmp296:
	.loc	7 1147 5                        @ ../ThirdParty/STM32F4xx_HAL_Driver/Src/stm32f4xx_hal_tim.c:1147:5
	ldr	r0, [sp, #12]
	ldr	r1, [r0]
	ldr	r0, [r1, #68]
	bic	r0, r0, #32768
	str	r0, [r1, #68]
	b	.LBB30_7
.Ltmp297:
.LBB30_7:
	.loc	7 1147 5                        @ ../ThirdParty/STM32F4xx_HAL_Driver/Src/stm32f4xx_hal_tim.c:1147:5
	b	.LBB30_8
.Ltmp298:
.LBB30_8:
	.loc	7 1147 5                        @ ../ThirdParty/STM32F4xx_HAL_Driver/Src/stm32f4xx_hal_tim.c:1147:5
	b	.LBB30_9
.Ltmp299:
.LBB30_9:
	.loc	7 1148 3 is_stmt 1              @ ../ThirdParty/STM32F4xx_HAL_Driver/Src/stm32f4xx_hal_tim.c:1148:3
	b	.LBB30_10
.Ltmp300:
.LBB30_10:
	.loc	7 1151 3                        @ ../ThirdParty/STM32F4xx_HAL_Driver/Src/stm32f4xx_hal_tim.c:1151:3
	b	.LBB30_11
.LBB30_11:
.Ltmp301:
	.loc	7 1151 3 is_stmt 0              @ ../ThirdParty/STM32F4xx_HAL_Driver/Src/stm32f4xx_hal_tim.c:1151:3
	ldr	r0, [sp, #12]
	ldr	r0, [r0]
	ldr	r0, [r0, #32]
	movw	r1, #4369
.Ltmp302:
	.loc	7 1151 3                        @ ../ThirdParty/STM32F4xx_HAL_Driver/Src/stm32f4xx_hal_tim.c:1151:3
	tst	r0, r1
	bne	.LBB30_15
	b	.LBB30_12
.LBB30_12:
.Ltmp303:
	.loc	7 1151 3                        @ ../ThirdParty/STM32F4xx_HAL_Driver/Src/stm32f4xx_hal_tim.c:1151:3
	ldr	r0, [sp, #12]
	ldr	r0, [r0]
	ldr	r0, [r0, #32]
	movw	r1, #1092
.Ltmp304:
	.loc	7 1151 3                        @ ../ThirdParty/STM32F4xx_HAL_Driver/Src/stm32f4xx_hal_tim.c:1151:3
	tst	r0, r1
	bne	.LBB30_14
	b	.LBB30_13
.LBB30_13:
.Ltmp305:
	.loc	7 1151 3                        @ ../ThirdParty/STM32F4xx_HAL_Driver/Src/stm32f4xx_hal_tim.c:1151:3
	ldr	r0, [sp, #12]
	ldr	r1, [r0]
	ldr	r0, [r1]
	bic	r0, r0, #1
	str	r0, [r1]
	b	.LBB30_14
.Ltmp306:
.LBB30_14:
	.loc	7 1151 3                        @ ../ThirdParty/STM32F4xx_HAL_Driver/Src/stm32f4xx_hal_tim.c:1151:3
	b	.LBB30_15
.Ltmp307:
.LBB30_15:
	.loc	7 1151 3                        @ ../ThirdParty/STM32F4xx_HAL_Driver/Src/stm32f4xx_hal_tim.c:1151:3
	b	.LBB30_16
.Ltmp308:
.LBB30_16:
	.loc	7 1154 3 is_stmt 1              @ ../ThirdParty/STM32F4xx_HAL_Driver/Src/stm32f4xx_hal_tim.c:1154:3
	ldr	r1, [sp, #12]
	movs	r0, #1
	.loc	7 1154 15 is_stmt 0             @ ../ThirdParty/STM32F4xx_HAL_Driver/Src/stm32f4xx_hal_tim.c:1154:15
	strb.w	r0, [r1, #57]
	movs	r0, #0
	.loc	7 1157 3 epilogue_begin is_stmt 1 @ ../ThirdParty/STM32F4xx_HAL_Driver/Src/stm32f4xx_hal_tim.c:1157:3
	add	sp, #16
	pop	{r7, pc}
.Ltmp309:
.Lfunc_end30:
	.size	HAL_TIM_PWM_Stop, .Lfunc_end30-HAL_TIM_PWM_Stop
	.cfi_endproc
	.cantunwind
	.fnend
                                        @ -- End function
	.section	.text.HAL_TIM_PWM_Start_IT,"ax",%progbits
	.hidden	HAL_TIM_PWM_Start_IT            @ -- Begin function HAL_TIM_PWM_Start_IT
	.globl	HAL_TIM_PWM_Start_IT
	.p2align	2
	.type	HAL_TIM_PWM_Start_IT,%function
	.code	16                              @ @HAL_TIM_PWM_Start_IT
	.thumb_func
HAL_TIM_PWM_Start_IT:
.Lfunc_begin31:
	.loc	7 1173 0                        @ ../ThirdParty/STM32F4xx_HAL_Driver/Src/stm32f4xx_hal_tim.c:1173:0
	.fnstart
	.cfi_startproc
@ %bb.0:
	.save	{r7, lr}
	push	{r7, lr}
	.cfi_def_cfa_offset 8
	.cfi_offset lr, -4
	.cfi_offset r7, -8
	.pad	#24
	sub	sp, #24
	.cfi_def_cfa_offset 32
	str	r0, [sp, #20]
	str	r1, [sp, #16]
.Ltmp310:
	.loc	7 1177 11 prologue_end          @ ../ThirdParty/STM32F4xx_HAL_Driver/Src/stm32f4xx_hal_tim.c:1177:11
	ldr	r0, [sp, #16]
	.loc	7 1177 3 is_stmt 0              @ ../ThirdParty/STM32F4xx_HAL_Driver/Src/stm32f4xx_hal_tim.c:1177:3
	str	r0, [sp, #12]                   @ 4-byte Spill
	cmp	r0, #12
	bhi	.LBB31_7
@ %bb.1:
	.loc	7 0 3                           @ ../ThirdParty/STM32F4xx_HAL_Driver/Src/stm32f4xx_hal_tim.c:0:3
	ldr	r1, [sp, #12]                   @ 4-byte Reload
.LCPI31_0:
	tbb	[pc, r1]
@ %bb.2:
.LJTI31_0:
	.byte	(.LBB31_3-(.LCPI31_0+4))/2
	.byte	(.LBB31_7-(.LCPI31_0+4))/2
	.byte	(.LBB31_7-(.LCPI31_0+4))/2
	.byte	(.LBB31_7-(.LCPI31_0+4))/2
	.byte	(.LBB31_4-(.LCPI31_0+4))/2
	.byte	(.LBB31_7-(.LCPI31_0+4))/2
	.byte	(.LBB31_7-(.LCPI31_0+4))/2
	.byte	(.LBB31_7-(.LCPI31_0+4))/2
	.byte	(.LBB31_5-(.LCPI31_0+4))/2
	.byte	(.LBB31_7-(.LCPI31_0+4))/2
	.byte	(.LBB31_7-(.LCPI31_0+4))/2
	.byte	(.LBB31_7-(.LCPI31_0+4))/2
	.byte	(.LBB31_6-(.LCPI31_0+4))/2
	.p2align	1
.LBB31_3:
.Ltmp311:
	.loc	7 1182 7 is_stmt 1              @ ../ThirdParty/STM32F4xx_HAL_Driver/Src/stm32f4xx_hal_tim.c:1182:7
	ldr	r0, [sp, #20]
	ldr	r1, [r0]
	ldr	r0, [r1, #12]
	orr	r0, r0, #2
	str	r0, [r1, #12]
.Ltmp312:
	.loc	7 1184 5                        @ ../ThirdParty/STM32F4xx_HAL_Driver/Src/stm32f4xx_hal_tim.c:1184:5
	b	.LBB31_8
.LBB31_4:
.Ltmp313:
	.loc	7 1189 7                        @ ../ThirdParty/STM32F4xx_HAL_Driver/Src/stm32f4xx_hal_tim.c:1189:7
	ldr	r0, [sp, #20]
	ldr	r1, [r0]
	ldr	r0, [r1, #12]
	orr	r0, r0, #4
	str	r0, [r1, #12]
.Ltmp314:
	.loc	7 1191 5                        @ ../ThirdParty/STM32F4xx_HAL_Driver/Src/stm32f4xx_hal_tim.c:1191:5
	b	.LBB31_8
.LBB31_5:
.Ltmp315:
	.loc	7 1196 7                        @ ../ThirdParty/STM32F4xx_HAL_Driver/Src/stm32f4xx_hal_tim.c:1196:7
	ldr	r0, [sp, #20]
	ldr	r1, [r0]
	ldr	r0, [r1, #12]
	orr	r0, r0, #8
	str	r0, [r1, #12]
.Ltmp316:
	.loc	7 1198 5                        @ ../ThirdParty/STM32F4xx_HAL_Driver/Src/stm32f4xx_hal_tim.c:1198:5
	b	.LBB31_8
.LBB31_6:
.Ltmp317:
	.loc	7 1203 7                        @ ../ThirdParty/STM32F4xx_HAL_Driver/Src/stm32f4xx_hal_tim.c:1203:7
	ldr	r0, [sp, #20]
	ldr	r1, [r0]
	ldr	r0, [r1, #12]
	orr	r0, r0, #16
	str	r0, [r1, #12]
.Ltmp318:
	.loc	7 1205 5                        @ ../ThirdParty/STM32F4xx_HAL_Driver/Src/stm32f4xx_hal_tim.c:1205:5
	b	.LBB31_8
.LBB31_7:
	.loc	7 1208 5                        @ ../ThirdParty/STM32F4xx_HAL_Driver/Src/stm32f4xx_hal_tim.c:1208:5
	b	.LBB31_8
.Ltmp319:
.LBB31_8:
	.loc	7 1212 21                       @ ../ThirdParty/STM32F4xx_HAL_Driver/Src/stm32f4xx_hal_tim.c:1212:21
	ldr	r0, [sp, #20]
	.loc	7 1212 27 is_stmt 0             @ ../ThirdParty/STM32F4xx_HAL_Driver/Src/stm32f4xx_hal_tim.c:1212:27
	ldr	r0, [r0]
	.loc	7 1212 37                       @ ../ThirdParty/STM32F4xx_HAL_Driver/Src/stm32f4xx_hal_tim.c:1212:37
	ldr	r1, [sp, #16]
	movs	r2, #1
	.loc	7 1212 3                        @ ../ThirdParty/STM32F4xx_HAL_Driver/Src/stm32f4xx_hal_tim.c:1212:3
	str	r2, [sp, #4]                    @ 4-byte Spill
	bl	TIM_CCxChannelCmd
	ldr	r0, [sp, #4]                    @ 4-byte Reload
.Ltmp320:
	.loc	7 1214 6 is_stmt 1              @ ../ThirdParty/STM32F4xx_HAL_Driver/Src/stm32f4xx_hal_tim.c:1214:6
	ldr	r1, [sp, #20]
	ldr	r1, [r1]
	movs	r2, #0
	movt	r2, #16385
	cmp	r1, r2
	str	r0, [sp, #8]                    @ 4-byte Spill
	beq	.LBB31_10
	b	.LBB31_9
.LBB31_9:
	ldr	r0, [sp, #20]
	ldr	r0, [r0]
	movw	r1, #64512
	movt	r1, #49150
	add	r0, r1
	clz	r0, r0
	lsrs	r0, r0, #5
	str	r0, [sp, #8]                    @ 4-byte Spill
	b	.LBB31_10
.Ltmp321:
.LBB31_10:
	.loc	7 0 6 is_stmt 0                 @ ../ThirdParty/STM32F4xx_HAL_Driver/Src/stm32f4xx_hal_tim.c:0:6
	ldr	r0, [sp, #8]                    @ 4-byte Reload
	.loc	7 1214 6                        @ ../ThirdParty/STM32F4xx_HAL_Driver/Src/stm32f4xx_hal_tim.c:1214:6
	lsls	r0, r0, #31
	cbz	r0, .LBB31_12
	b	.LBB31_11
.LBB31_11:
.Ltmp322:
	.loc	7 1217 5 is_stmt 1              @ ../ThirdParty/STM32F4xx_HAL_Driver/Src/stm32f4xx_hal_tim.c:1217:5
	ldr	r0, [sp, #20]
	ldr	r1, [r0]
	ldr	r0, [r1, #68]
	orr	r0, r0, #32768
	str	r0, [r1, #68]
	.loc	7 1218 3                        @ ../ThirdParty/STM32F4xx_HAL_Driver/Src/stm32f4xx_hal_tim.c:1218:3
	b	.LBB31_12
.Ltmp323:
.LBB31_12:
	.loc	7 1221 3                        @ ../ThirdParty/STM32F4xx_HAL_Driver/Src/stm32f4xx_hal_tim.c:1221:3
	ldr	r0, [sp, #20]
	ldr	r1, [r0]
	ldr	r0, [r1]
	orr	r0, r0, #1
	str	r0, [r1]
	movs	r0, #0
	.loc	7 1224 3 epilogue_begin         @ ../ThirdParty/STM32F4xx_HAL_Driver/Src/stm32f4xx_hal_tim.c:1224:3
	add	sp, #24
	pop	{r7, pc}
.Ltmp324:
.Lfunc_end31:
	.size	HAL_TIM_PWM_Start_IT, .Lfunc_end31-HAL_TIM_PWM_Start_IT
	.cfi_endproc
	.cantunwind
	.fnend
                                        @ -- End function
	.section	.text.HAL_TIM_PWM_Stop_IT,"ax",%progbits
	.hidden	HAL_TIM_PWM_Stop_IT             @ -- Begin function HAL_TIM_PWM_Stop_IT
	.globl	HAL_TIM_PWM_Stop_IT
	.p2align	2
	.type	HAL_TIM_PWM_Stop_IT,%function
	.code	16                              @ @HAL_TIM_PWM_Stop_IT
	.thumb_func
HAL_TIM_PWM_Stop_IT:
.Lfunc_begin32:
	.loc	7 1240 0                        @ ../ThirdParty/STM32F4xx_HAL_Driver/Src/stm32f4xx_hal_tim.c:1240:0
	.fnstart
	.cfi_startproc
@ %bb.0:
	.save	{r7, lr}
	push	{r7, lr}
	.cfi_def_cfa_offset 8
	.cfi_offset lr, -4
	.cfi_offset r7, -8
	.pad	#16
	sub	sp, #16
	.cfi_def_cfa_offset 24
	str	r0, [sp, #12]
	str	r1, [sp, #8]
.Ltmp325:
	.loc	7 1244 11 prologue_end          @ ../ThirdParty/STM32F4xx_HAL_Driver/Src/stm32f4xx_hal_tim.c:1244:11
	ldr	r0, [sp, #8]
	.loc	7 1244 3 is_stmt 0              @ ../ThirdParty/STM32F4xx_HAL_Driver/Src/stm32f4xx_hal_tim.c:1244:3
	str	r0, [sp, #4]                    @ 4-byte Spill
	cmp	r0, #12
	bhi	.LBB32_7
@ %bb.1:
	.loc	7 0 3                           @ ../ThirdParty/STM32F4xx_HAL_Driver/Src/stm32f4xx_hal_tim.c:0:3
	ldr	r1, [sp, #4]                    @ 4-byte Reload
.LCPI32_0:
	tbb	[pc, r1]
@ %bb.2:
.LJTI32_0:
	.byte	(.LBB32_3-(.LCPI32_0+4))/2
	.byte	(.LBB32_7-(.LCPI32_0+4))/2
	.byte	(.LBB32_7-(.LCPI32_0+4))/2
	.byte	(.LBB32_7-(.LCPI32_0+4))/2
	.byte	(.LBB32_4-(.LCPI32_0+4))/2
	.byte	(.LBB32_7-(.LCPI32_0+4))/2
	.byte	(.LBB32_7-(.LCPI32_0+4))/2
	.byte	(.LBB32_7-(.LCPI32_0+4))/2
	.byte	(.LBB32_5-(.LCPI32_0+4))/2
	.byte	(.LBB32_7-(.LCPI32_0+4))/2
	.byte	(.LBB32_7-(.LCPI32_0+4))/2
	.byte	(.LBB32_7-(.LCPI32_0+4))/2
	.byte	(.LBB32_6-(.LCPI32_0+4))/2
	.p2align	1
.LBB32_3:
.Ltmp326:
	.loc	7 1249 7 is_stmt 1              @ ../ThirdParty/STM32F4xx_HAL_Driver/Src/stm32f4xx_hal_tim.c:1249:7
	ldr	r0, [sp, #12]
	ldr	r1, [r0]
	ldr	r0, [r1, #12]
	bic	r0, r0, #2
	str	r0, [r1, #12]
.Ltmp327:
	.loc	7 1251 5                        @ ../ThirdParty/STM32F4xx_HAL_Driver/Src/stm32f4xx_hal_tim.c:1251:5
	b	.LBB32_8
.LBB32_4:
.Ltmp328:
	.loc	7 1256 7                        @ ../ThirdParty/STM32F4xx_HAL_Driver/Src/stm32f4xx_hal_tim.c:1256:7
	ldr	r0, [sp, #12]
	ldr	r1, [r0]
	ldr	r0, [r1, #12]
	bic	r0, r0, #4
	str	r0, [r1, #12]
.Ltmp329:
	.loc	7 1258 5                        @ ../ThirdParty/STM32F4xx_HAL_Driver/Src/stm32f4xx_hal_tim.c:1258:5
	b	.LBB32_8
.LBB32_5:
.Ltmp330:
	.loc	7 1263 7                        @ ../ThirdParty/STM32F4xx_HAL_Driver/Src/stm32f4xx_hal_tim.c:1263:7
	ldr	r0, [sp, #12]
	ldr	r1, [r0]
	ldr	r0, [r1, #12]
	bic	r0, r0, #8
	str	r0, [r1, #12]
.Ltmp331:
	.loc	7 1265 5                        @ ../ThirdParty/STM32F4xx_HAL_Driver/Src/stm32f4xx_hal_tim.c:1265:5
	b	.LBB32_8
.LBB32_6:
.Ltmp332:
	.loc	7 1270 7                        @ ../ThirdParty/STM32F4xx_HAL_Driver/Src/stm32f4xx_hal_tim.c:1270:7
	ldr	r0, [sp, #12]
	ldr	r1, [r0]
	ldr	r0, [r1, #12]
	bic	r0, r0, #16
	str	r0, [r1, #12]
.Ltmp333:
	.loc	7 1272 5                        @ ../ThirdParty/STM32F4xx_HAL_Driver/Src/stm32f4xx_hal_tim.c:1272:5
	b	.LBB32_8
.LBB32_7:
	.loc	7 1275 5                        @ ../ThirdParty/STM32F4xx_HAL_Driver/Src/stm32f4xx_hal_tim.c:1275:5
	b	.LBB32_8
.Ltmp334:
.LBB32_8:
	.loc	7 1279 21                       @ ../ThirdParty/STM32F4xx_HAL_Driver/Src/stm32f4xx_hal_tim.c:1279:21
	ldr	r0, [sp, #12]
	.loc	7 1279 27 is_stmt 0             @ ../ThirdParty/STM32F4xx_HAL_Driver/Src/stm32f4xx_hal_tim.c:1279:27
	ldr	r0, [r0]
	.loc	7 1279 37                       @ ../ThirdParty/STM32F4xx_HAL_Driver/Src/stm32f4xx_hal_tim.c:1279:37
	ldr	r1, [sp, #8]
	movs	r2, #0
	.loc	7 1279 3                        @ ../ThirdParty/STM32F4xx_HAL_Driver/Src/stm32f4xx_hal_tim.c:1279:3
	bl	TIM_CCxChannelCmd
.Ltmp335:
	.loc	7 1281 6 is_stmt 1              @ ../ThirdParty/STM32F4xx_HAL_Driver/Src/stm32f4xx_hal_tim.c:1281:6
	ldr	r0, [sp, #12]
	ldr	r1, [r0]
	movs	r0, #1
	movs	r2, #0
	movt	r2, #16385
	cmp	r1, r2
	str	r0, [sp]                        @ 4-byte Spill
	beq	.LBB32_10
	b	.LBB32_9
.LBB32_9:
	ldr	r0, [sp, #12]
	ldr	r0, [r0]
	movw	r1, #64512
	movt	r1, #49150
	add	r0, r1
	clz	r0, r0
	lsrs	r0, r0, #5
	str	r0, [sp]                        @ 4-byte Spill
	b	.LBB32_10
.Ltmp336:
.LBB32_10:
	.loc	7 0 6 is_stmt 0                 @ ../ThirdParty/STM32F4xx_HAL_Driver/Src/stm32f4xx_hal_tim.c:0:6
	ldr	r0, [sp]                        @ 4-byte Reload
	.loc	7 1281 6                        @ ../ThirdParty/STM32F4xx_HAL_Driver/Src/stm32f4xx_hal_tim.c:1281:6
	lsls	r0, r0, #31
	cbz	r0, .LBB32_18
	b	.LBB32_11
.LBB32_11:
.Ltmp337:
	.loc	7 1284 5 is_stmt 1              @ ../ThirdParty/STM32F4xx_HAL_Driver/Src/stm32f4xx_hal_tim.c:1284:5
	b	.LBB32_12
.LBB32_12:
.Ltmp338:
	.loc	7 1284 5 is_stmt 0              @ ../ThirdParty/STM32F4xx_HAL_Driver/Src/stm32f4xx_hal_tim.c:1284:5
	ldr	r0, [sp, #12]
	ldr	r0, [r0]
	ldr	r0, [r0, #32]
	movw	r1, #4369
.Ltmp339:
	.loc	7 1284 5                        @ ../ThirdParty/STM32F4xx_HAL_Driver/Src/stm32f4xx_hal_tim.c:1284:5
	tst	r0, r1
	bne	.LBB32_16
	b	.LBB32_13
.LBB32_13:
.Ltmp340:
	.loc	7 1284 5                        @ ../ThirdParty/STM32F4xx_HAL_Driver/Src/stm32f4xx_hal_tim.c:1284:5
	ldr	r0, [sp, #12]
	ldr	r0, [r0]
	ldr	r0, [r0, #32]
	movw	r1, #1092
.Ltmp341:
	.loc	7 1284 5                        @ ../ThirdParty/STM32F4xx_HAL_Driver/Src/stm32f4xx_hal_tim.c:1284:5
	tst	r0, r1
	bne	.LBB32_15
	b	.LBB32_14
.LBB32_14:
.Ltmp342:
	.loc	7 1284 5                        @ ../ThirdParty/STM32F4xx_HAL_Driver/Src/stm32f4xx_hal_tim.c:1284:5
	ldr	r0, [sp, #12]
	ldr	r1, [r0]
	ldr	r0, [r1, #68]
	bic	r0, r0, #32768
	str	r0, [r1, #68]
	b	.LBB32_15
.Ltmp343:
.LBB32_15:
	.loc	7 1284 5                        @ ../ThirdParty/STM32F4xx_HAL_Driver/Src/stm32f4xx_hal_tim.c:1284:5
	b	.LBB32_16
.Ltmp344:
.LBB32_16:
	.loc	7 1284 5                        @ ../ThirdParty/STM32F4xx_HAL_Driver/Src/stm32f4xx_hal_tim.c:1284:5
	b	.LBB32_17
.Ltmp345:
.LBB32_17:
	.loc	7 1285 3 is_stmt 1              @ ../ThirdParty/STM32F4xx_HAL_Driver/Src/stm32f4xx_hal_tim.c:1285:3
	b	.LBB32_18
.Ltmp346:
.LBB32_18:
	.loc	7 1288 3                        @ ../ThirdParty/STM32F4xx_HAL_Driver/Src/stm32f4xx_hal_tim.c:1288:3
	b	.LBB32_19
.LBB32_19:
.Ltmp347:
	.loc	7 1288 3 is_stmt 0              @ ../ThirdParty/STM32F4xx_HAL_Driver/Src/stm32f4xx_hal_tim.c:1288:3
	ldr	r0, [sp, #12]
	ldr	r0, [r0]
	ldr	r0, [r0, #32]
	movw	r1, #4369
.Ltmp348:
	.loc	7 1288 3                        @ ../ThirdParty/STM32F4xx_HAL_Driver/Src/stm32f4xx_hal_tim.c:1288:3
	tst	r0, r1
	bne	.LBB32_23
	b	.LBB32_20
.LBB32_20:
.Ltmp349:
	.loc	7 1288 3                        @ ../ThirdParty/STM32F4xx_HAL_Driver/Src/stm32f4xx_hal_tim.c:1288:3
	ldr	r0, [sp, #12]
	ldr	r0, [r0]
	ldr	r0, [r0, #32]
	movw	r1, #1092
.Ltmp350:
	.loc	7 1288 3                        @ ../ThirdParty/STM32F4xx_HAL_Driver/Src/stm32f4xx_hal_tim.c:1288:3
	tst	r0, r1
	bne	.LBB32_22
	b	.LBB32_21
.LBB32_21:
.Ltmp351:
	.loc	7 1288 3                        @ ../ThirdParty/STM32F4xx_HAL_Driver/Src/stm32f4xx_hal_tim.c:1288:3
	ldr	r0, [sp, #12]
	ldr	r1, [r0]
	ldr	r0, [r1]
	bic	r0, r0, #1
	str	r0, [r1]
	b	.LBB32_22
.Ltmp352:
.LBB32_22:
	.loc	7 1288 3                        @ ../ThirdParty/STM32F4xx_HAL_Driver/Src/stm32f4xx_hal_tim.c:1288:3
	b	.LBB32_23
.Ltmp353:
.LBB32_23:
	.loc	7 1288 3                        @ ../ThirdParty/STM32F4xx_HAL_Driver/Src/stm32f4xx_hal_tim.c:1288:3
	b	.LBB32_24
.Ltmp354:
.LBB32_24:
	.loc	7 0 3                           @ ../ThirdParty/STM32F4xx_HAL_Driver/Src/stm32f4xx_hal_tim.c:0:3
	movs	r0, #0
	.loc	7 1291 3 epilogue_begin is_stmt 1 @ ../ThirdParty/STM32F4xx_HAL_Driver/Src/stm32f4xx_hal_tim.c:1291:3
	add	sp, #16
	pop	{r7, pc}
.Ltmp355:
.Lfunc_end32:
	.size	HAL_TIM_PWM_Stop_IT, .Lfunc_end32-HAL_TIM_PWM_Stop_IT
	.cfi_endproc
	.cantunwind
	.fnend
                                        @ -- End function
	.section	.text.HAL_TIM_PWM_Start_DMA,"ax",%progbits
	.hidden	HAL_TIM_PWM_Start_DMA           @ -- Begin function HAL_TIM_PWM_Start_DMA
	.globl	HAL_TIM_PWM_Start_DMA
	.p2align	2
	.type	HAL_TIM_PWM_Start_DMA,%function
	.code	16                              @ @HAL_TIM_PWM_Start_DMA
	.thumb_func
HAL_TIM_PWM_Start_DMA:
.Lfunc_begin33:
	.loc	7 1309 0                        @ ../ThirdParty/STM32F4xx_HAL_Driver/Src/stm32f4xx_hal_tim.c:1309:0
	.fnstart
	.cfi_startproc
@ %bb.0:
	.save	{r7, lr}
	push	{r7, lr}
	.cfi_def_cfa_offset 8
	.cfi_offset lr, -4
	.cfi_offset r7, -8
	.pad	#32
	sub	sp, #32
	.cfi_def_cfa_offset 40
                                        @ kill: def $r12 killed $r3
	str	r0, [sp, #24]
	str	r1, [sp, #20]
	str	r2, [sp, #16]
	strh.w	r3, [sp, #14]
.Ltmp356:
	.loc	7 1313 7 prologue_end           @ ../ThirdParty/STM32F4xx_HAL_Driver/Src/stm32f4xx_hal_tim.c:1313:7
	ldr	r0, [sp, #24]
	.loc	7 1313 13 is_stmt 0             @ ../ThirdParty/STM32F4xx_HAL_Driver/Src/stm32f4xx_hal_tim.c:1313:13
	ldrb.w	r0, [r0, #57]
.Ltmp357:
	.loc	7 1313 6                        @ ../ThirdParty/STM32F4xx_HAL_Driver/Src/stm32f4xx_hal_tim.c:1313:6
	cmp	r0, #2
	bne	.LBB33_2
	b	.LBB33_1
.LBB33_1:
	.loc	7 0 6                           @ ../ThirdParty/STM32F4xx_HAL_Driver/Src/stm32f4xx_hal_tim.c:0:6
	movs	r0, #2
.Ltmp358:
	.loc	7 1315 6 is_stmt 1              @ ../ThirdParty/STM32F4xx_HAL_Driver/Src/stm32f4xx_hal_tim.c:1315:6
	strb.w	r0, [sp, #31]
	b	.LBB33_22
.Ltmp359:
.LBB33_2:
	.loc	7 1317 12                       @ ../ThirdParty/STM32F4xx_HAL_Driver/Src/stm32f4xx_hal_tim.c:1317:12
	ldr	r0, [sp, #24]
	.loc	7 1317 18 is_stmt 0             @ ../ThirdParty/STM32F4xx_HAL_Driver/Src/stm32f4xx_hal_tim.c:1317:18
	ldrb.w	r0, [r0, #57]
.Ltmp360:
	.loc	7 1317 11                       @ ../ThirdParty/STM32F4xx_HAL_Driver/Src/stm32f4xx_hal_tim.c:1317:11
	cmp	r0, #1
	bne	.LBB33_8
	b	.LBB33_3
.LBB33_3:
.Ltmp361:
	.loc	7 1319 19 is_stmt 1             @ ../ThirdParty/STM32F4xx_HAL_Driver/Src/stm32f4xx_hal_tim.c:1319:19
	ldr	r0, [sp, #16]
	.loc	7 1319 32 is_stmt 0             @ ../ThirdParty/STM32F4xx_HAL_Driver/Src/stm32f4xx_hal_tim.c:1319:32
	cbnz	r0, .LBB33_6
	b	.LBB33_4
.LBB33_4:
	.loc	7 1319 36                       @ ../ThirdParty/STM32F4xx_HAL_Driver/Src/stm32f4xx_hal_tim.c:1319:36
	ldrh.w	r0, [sp, #14]
.Ltmp362:
	.loc	7 1319 8                        @ ../ThirdParty/STM32F4xx_HAL_Driver/Src/stm32f4xx_hal_tim.c:1319:8
	cmp	r0, #1
	blt	.LBB33_6
	b	.LBB33_5
.LBB33_5:
	.loc	7 0 8                           @ ../ThirdParty/STM32F4xx_HAL_Driver/Src/stm32f4xx_hal_tim.c:0:8
	movs	r0, #1
.Ltmp363:
	.loc	7 1321 7 is_stmt 1              @ ../ThirdParty/STM32F4xx_HAL_Driver/Src/stm32f4xx_hal_tim.c:1321:7
	strb.w	r0, [sp, #31]
	b	.LBB33_22
.Ltmp364:
.LBB33_6:
	.loc	7 1325 7                        @ ../ThirdParty/STM32F4xx_HAL_Driver/Src/stm32f4xx_hal_tim.c:1325:7
	ldr	r1, [sp, #24]
	movs	r0, #2
	.loc	7 1325 19 is_stmt 0             @ ../ThirdParty/STM32F4xx_HAL_Driver/Src/stm32f4xx_hal_tim.c:1325:19
	strb.w	r0, [r1, #57]
	b	.LBB33_7
.Ltmp365:
.LBB33_7:
	.loc	7 1327 3 is_stmt 1              @ ../ThirdParty/STM32F4xx_HAL_Driver/Src/stm32f4xx_hal_tim.c:1327:3
	b	.LBB33_8
.Ltmp366:
.LBB33_8:
	.loc	7 0 3 is_stmt 0                 @ ../ThirdParty/STM32F4xx_HAL_Driver/Src/stm32f4xx_hal_tim.c:0:3
	b	.LBB33_9
.LBB33_9:
	.loc	7 1328 11 is_stmt 1             @ ../ThirdParty/STM32F4xx_HAL_Driver/Src/stm32f4xx_hal_tim.c:1328:11
	ldr	r0, [sp, #20]
	.loc	7 1328 3 is_stmt 0              @ ../ThirdParty/STM32F4xx_HAL_Driver/Src/stm32f4xx_hal_tim.c:1328:3
	str	r0, [sp, #8]                    @ 4-byte Spill
	cmp	r0, #12
	bhi.w	.LBB33_16
@ %bb.10:
	.loc	7 0 3                           @ ../ThirdParty/STM32F4xx_HAL_Driver/Src/stm32f4xx_hal_tim.c:0:3
	ldr	r1, [sp, #8]                    @ 4-byte Reload
.LCPI33_0:
	tbb	[pc, r1]
@ %bb.11:
.LJTI33_0:
	.byte	(.LBB33_12-(.LCPI33_0+4))/2
	.byte	(.LBB33_16-(.LCPI33_0+4))/2
	.byte	(.LBB33_16-(.LCPI33_0+4))/2
	.byte	(.LBB33_16-(.LCPI33_0+4))/2
	.byte	(.LBB33_13-(.LCPI33_0+4))/2
	.byte	(.LBB33_16-(.LCPI33_0+4))/2
	.byte	(.LBB33_16-(.LCPI33_0+4))/2
	.byte	(.LBB33_16-(.LCPI33_0+4))/2
	.byte	(.LBB33_14-(.LCPI33_0+4))/2
	.byte	(.LBB33_16-(.LCPI33_0+4))/2
	.byte	(.LBB33_16-(.LCPI33_0+4))/2
	.byte	(.LBB33_16-(.LCPI33_0+4))/2
	.byte	(.LBB33_15-(.LCPI33_0+4))/2
	.p2align	1
.LBB33_12:
.Ltmp367:
	.loc	7 1333 7 is_stmt 1              @ ../ThirdParty/STM32F4xx_HAL_Driver/Src/stm32f4xx_hal_tim.c:1333:7
	ldr	r0, [sp, #24]
	ldr	r1, [r0, #32]
	.loc	7 1333 52 is_stmt 0             @ ../ThirdParty/STM32F4xx_HAL_Driver/Src/stm32f4xx_hal_tim.c:1333:52
	movw	r0, :lower16:TIM_DMADelayPulseCplt
	movt	r0, :upper16:TIM_DMADelayPulseCplt
	str	r0, [r1, #60]
	.loc	7 1336 7 is_stmt 1              @ ../ThirdParty/STM32F4xx_HAL_Driver/Src/stm32f4xx_hal_tim.c:1336:7
	ldr	r0, [sp, #24]
	ldr	r1, [r0, #32]
	.loc	7 1336 53 is_stmt 0             @ ../ThirdParty/STM32F4xx_HAL_Driver/Src/stm32f4xx_hal_tim.c:1336:53
	movw	r0, :lower16:TIM_DMAError
	movt	r0, :upper16:TIM_DMAError
	str	r0, [r1, #76]
	.loc	7 1339 24 is_stmt 1             @ ../ThirdParty/STM32F4xx_HAL_Driver/Src/stm32f4xx_hal_tim.c:1339:24
	ldr	r0, [sp, #24]
	.loc	7 1339 86 is_stmt 0             @ ../ThirdParty/STM32F4xx_HAL_Driver/Src/stm32f4xx_hal_tim.c:1339:86
	ldr	r2, [r0]
	.loc	7 1339 24                       @ ../ThirdParty/STM32F4xx_HAL_Driver/Src/stm32f4xx_hal_tim.c:1339:24
	ldr	r0, [r0, #32]
	.loc	7 1339 62                       @ ../ThirdParty/STM32F4xx_HAL_Driver/Src/stm32f4xx_hal_tim.c:1339:62
	ldr	r1, [sp, #16]
	.loc	7 1339 96                       @ ../ThirdParty/STM32F4xx_HAL_Driver/Src/stm32f4xx_hal_tim.c:1339:96
	adds	r2, #52
	.loc	7 1339 102                      @ ../ThirdParty/STM32F4xx_HAL_Driver/Src/stm32f4xx_hal_tim.c:1339:102
	ldrh.w	r3, [sp, #14]
	.loc	7 1339 7                        @ ../ThirdParty/STM32F4xx_HAL_Driver/Src/stm32f4xx_hal_tim.c:1339:7
	bl	HAL_DMA_Start_IT
	.loc	7 1342 7 is_stmt 1              @ ../ThirdParty/STM32F4xx_HAL_Driver/Src/stm32f4xx_hal_tim.c:1342:7
	ldr	r0, [sp, #24]
	ldr	r1, [r0]
	ldr	r0, [r1, #12]
	orr	r0, r0, #512
	str	r0, [r1, #12]
.Ltmp368:
	.loc	7 1344 5                        @ ../ThirdParty/STM32F4xx_HAL_Driver/Src/stm32f4xx_hal_tim.c:1344:5
	b	.LBB33_17
.LBB33_13:
.Ltmp369:
	.loc	7 1349 7                        @ ../ThirdParty/STM32F4xx_HAL_Driver/Src/stm32f4xx_hal_tim.c:1349:7
	ldr	r0, [sp, #24]
	ldr	r1, [r0, #36]
	.loc	7 1349 52 is_stmt 0             @ ../ThirdParty/STM32F4xx_HAL_Driver/Src/stm32f4xx_hal_tim.c:1349:52
	movw	r0, :lower16:TIM_DMADelayPulseCplt
	movt	r0, :upper16:TIM_DMADelayPulseCplt
	str	r0, [r1, #60]
	.loc	7 1352 7 is_stmt 1              @ ../ThirdParty/STM32F4xx_HAL_Driver/Src/stm32f4xx_hal_tim.c:1352:7
	ldr	r0, [sp, #24]
	ldr	r1, [r0, #36]
	.loc	7 1352 53 is_stmt 0             @ ../ThirdParty/STM32F4xx_HAL_Driver/Src/stm32f4xx_hal_tim.c:1352:53
	movw	r0, :lower16:TIM_DMAError
	movt	r0, :upper16:TIM_DMAError
	str	r0, [r1, #76]
	.loc	7 1355 24 is_stmt 1             @ ../ThirdParty/STM32F4xx_HAL_Driver/Src/stm32f4xx_hal_tim.c:1355:24
	ldr	r0, [sp, #24]
	.loc	7 1355 86 is_stmt 0             @ ../ThirdParty/STM32F4xx_HAL_Driver/Src/stm32f4xx_hal_tim.c:1355:86
	ldr	r2, [r0]
	.loc	7 1355 24                       @ ../ThirdParty/STM32F4xx_HAL_Driver/Src/stm32f4xx_hal_tim.c:1355:24
	ldr	r0, [r0, #36]
	.loc	7 1355 62                       @ ../ThirdParty/STM32F4xx_HAL_Driver/Src/stm32f4xx_hal_tim.c:1355:62
	ldr	r1, [sp, #16]
	.loc	7 1355 96                       @ ../ThirdParty/STM32F4xx_HAL_Driver/Src/stm32f4xx_hal_tim.c:1355:96
	adds	r2, #56
	.loc	7 1355 102                      @ ../ThirdParty/STM32F4xx_HAL_Driver/Src/stm32f4xx_hal_tim.c:1355:102
	ldrh.w	r3, [sp, #14]
	.loc	7 1355 7                        @ ../ThirdParty/STM32F4xx_HAL_Driver/Src/stm32f4xx_hal_tim.c:1355:7
	bl	HAL_DMA_Start_IT
	.loc	7 1358 7 is_stmt 1              @ ../ThirdParty/STM32F4xx_HAL_Driver/Src/stm32f4xx_hal_tim.c:1358:7
	ldr	r0, [sp, #24]
	ldr	r1, [r0]
	ldr	r0, [r1, #12]
	orr	r0, r0, #1024
	str	r0, [r1, #12]
.Ltmp370:
	.loc	7 1360 5                        @ ../ThirdParty/STM32F4xx_HAL_Driver/Src/stm32f4xx_hal_tim.c:1360:5
	b	.LBB33_17
.LBB33_14:
.Ltmp371:
	.loc	7 1365 7                        @ ../ThirdParty/STM32F4xx_HAL_Driver/Src/stm32f4xx_hal_tim.c:1365:7
	ldr	r0, [sp, #24]
	ldr	r1, [r0, #40]
	.loc	7 1365 52 is_stmt 0             @ ../ThirdParty/STM32F4xx_HAL_Driver/Src/stm32f4xx_hal_tim.c:1365:52
	movw	r0, :lower16:TIM_DMADelayPulseCplt
	movt	r0, :upper16:TIM_DMADelayPulseCplt
	str	r0, [r1, #60]
	.loc	7 1368 7 is_stmt 1              @ ../ThirdParty/STM32F4xx_HAL_Driver/Src/stm32f4xx_hal_tim.c:1368:7
	ldr	r0, [sp, #24]
	ldr	r1, [r0, #40]
	.loc	7 1368 53 is_stmt 0             @ ../ThirdParty/STM32F4xx_HAL_Driver/Src/stm32f4xx_hal_tim.c:1368:53
	movw	r0, :lower16:TIM_DMAError
	movt	r0, :upper16:TIM_DMAError
	str	r0, [r1, #76]
	.loc	7 1371 24 is_stmt 1             @ ../ThirdParty/STM32F4xx_HAL_Driver/Src/stm32f4xx_hal_tim.c:1371:24
	ldr	r0, [sp, #24]
	.loc	7 1371 86 is_stmt 0             @ ../ThirdParty/STM32F4xx_HAL_Driver/Src/stm32f4xx_hal_tim.c:1371:86
	ldr	r2, [r0]
	.loc	7 1371 24                       @ ../ThirdParty/STM32F4xx_HAL_Driver/Src/stm32f4xx_hal_tim.c:1371:24
	ldr	r0, [r0, #40]
	.loc	7 1371 62                       @ ../ThirdParty/STM32F4xx_HAL_Driver/Src/stm32f4xx_hal_tim.c:1371:62
	ldr	r1, [sp, #16]
	.loc	7 1371 96                       @ ../ThirdParty/STM32F4xx_HAL_Driver/Src/stm32f4xx_hal_tim.c:1371:96
	adds	r2, #60
	.loc	7 1371 101                      @ ../ThirdParty/STM32F4xx_HAL_Driver/Src/stm32f4xx_hal_tim.c:1371:101
	ldrh.w	r3, [sp, #14]
	.loc	7 1371 7                        @ ../ThirdParty/STM32F4xx_HAL_Driver/Src/stm32f4xx_hal_tim.c:1371:7
	bl	HAL_DMA_Start_IT
	.loc	7 1374 7 is_stmt 1              @ ../ThirdParty/STM32F4xx_HAL_Driver/Src/stm32f4xx_hal_tim.c:1374:7
	ldr	r0, [sp, #24]
	ldr	r1, [r0]
	ldr	r0, [r1, #12]
	orr	r0, r0, #2048
	str	r0, [r1, #12]
.Ltmp372:
	.loc	7 1376 5                        @ ../ThirdParty/STM32F4xx_HAL_Driver/Src/stm32f4xx_hal_tim.c:1376:5
	b	.LBB33_17
.LBB33_15:
.Ltmp373:
	.loc	7 1381 7                        @ ../ThirdParty/STM32F4xx_HAL_Driver/Src/stm32f4xx_hal_tim.c:1381:7
	ldr	r0, [sp, #24]
	ldr	r1, [r0, #44]
	.loc	7 1381 52 is_stmt 0             @ ../ThirdParty/STM32F4xx_HAL_Driver/Src/stm32f4xx_hal_tim.c:1381:52
	movw	r0, :lower16:TIM_DMADelayPulseCplt
	movt	r0, :upper16:TIM_DMADelayPulseCplt
	str	r0, [r1, #60]
	.loc	7 1384 7 is_stmt 1              @ ../ThirdParty/STM32F4xx_HAL_Driver/Src/stm32f4xx_hal_tim.c:1384:7
	ldr	r0, [sp, #24]
	ldr	r1, [r0, #44]
	.loc	7 1384 53 is_stmt 0             @ ../ThirdParty/STM32F4xx_HAL_Driver/Src/stm32f4xx_hal_tim.c:1384:53
	movw	r0, :lower16:TIM_DMAError
	movt	r0, :upper16:TIM_DMAError
	str	r0, [r1, #76]
	.loc	7 1387 24 is_stmt 1             @ ../ThirdParty/STM32F4xx_HAL_Driver/Src/stm32f4xx_hal_tim.c:1387:24
	ldr	r0, [sp, #24]
	.loc	7 1387 86 is_stmt 0             @ ../ThirdParty/STM32F4xx_HAL_Driver/Src/stm32f4xx_hal_tim.c:1387:86
	ldr	r2, [r0]
	.loc	7 1387 24                       @ ../ThirdParty/STM32F4xx_HAL_Driver/Src/stm32f4xx_hal_tim.c:1387:24
	ldr	r0, [r0, #44]
	.loc	7 1387 62                       @ ../ThirdParty/STM32F4xx_HAL_Driver/Src/stm32f4xx_hal_tim.c:1387:62
	ldr	r1, [sp, #16]
	.loc	7 1387 96                       @ ../ThirdParty/STM32F4xx_HAL_Driver/Src/stm32f4xx_hal_tim.c:1387:96
	adds	r2, #64
	.loc	7 1387 102                      @ ../ThirdParty/STM32F4xx_HAL_Driver/Src/stm32f4xx_hal_tim.c:1387:102
	ldrh.w	r3, [sp, #14]
	.loc	7 1387 7                        @ ../ThirdParty/STM32F4xx_HAL_Driver/Src/stm32f4xx_hal_tim.c:1387:7
	bl	HAL_DMA_Start_IT
	.loc	7 1390 7 is_stmt 1              @ ../ThirdParty/STM32F4xx_HAL_Driver/Src/stm32f4xx_hal_tim.c:1390:7
	ldr	r0, [sp, #24]
	ldr	r1, [r0]
	ldr	r0, [r1, #12]
	orr	r0, r0, #4096
	str	r0, [r1, #12]
.Ltmp374:
	.loc	7 1392 5                        @ ../ThirdParty/STM32F4xx_HAL_Driver/Src/stm32f4xx_hal_tim.c:1392:5
	b	.LBB33_17
.LBB33_16:
	.loc	7 1395 5                        @ ../ThirdParty/STM32F4xx_HAL_Driver/Src/stm32f4xx_hal_tim.c:1395:5
	b	.LBB33_17
.Ltmp375:
.LBB33_17:
	.loc	7 1399 21                       @ ../ThirdParty/STM32F4xx_HAL_Driver/Src/stm32f4xx_hal_tim.c:1399:21
	ldr	r0, [sp, #24]
	.loc	7 1399 27 is_stmt 0             @ ../ThirdParty/STM32F4xx_HAL_Driver/Src/stm32f4xx_hal_tim.c:1399:27
	ldr	r0, [r0]
	.loc	7 1399 37                       @ ../ThirdParty/STM32F4xx_HAL_Driver/Src/stm32f4xx_hal_tim.c:1399:37
	ldr	r1, [sp, #20]
	movs	r2, #1
	.loc	7 1399 3                        @ ../ThirdParty/STM32F4xx_HAL_Driver/Src/stm32f4xx_hal_tim.c:1399:3
	str	r2, [sp]                        @ 4-byte Spill
	bl	TIM_CCxChannelCmd
	ldr	r0, [sp]                        @ 4-byte Reload
.Ltmp376:
	.loc	7 1401 6 is_stmt 1              @ ../ThirdParty/STM32F4xx_HAL_Driver/Src/stm32f4xx_hal_tim.c:1401:6
	ldr	r1, [sp, #24]
	ldr	r1, [r1]
	movs	r2, #0
	movt	r2, #16385
	cmp	r1, r2
	str	r0, [sp, #4]                    @ 4-byte Spill
	beq	.LBB33_19
	b	.LBB33_18
.LBB33_18:
	ldr	r0, [sp, #24]
	ldr	r0, [r0]
	movw	r1, #64512
	movt	r1, #49150
	add	r0, r1
	clz	r0, r0
	lsrs	r0, r0, #5
	str	r0, [sp, #4]                    @ 4-byte Spill
	b	.LBB33_19
.Ltmp377:
.LBB33_19:
	.loc	7 0 6 is_stmt 0                 @ ../ThirdParty/STM32F4xx_HAL_Driver/Src/stm32f4xx_hal_tim.c:0:6
	ldr	r0, [sp, #4]                    @ 4-byte Reload
	.loc	7 1401 6                        @ ../ThirdParty/STM32F4xx_HAL_Driver/Src/stm32f4xx_hal_tim.c:1401:6
	lsls	r0, r0, #31
	cbz	r0, .LBB33_21
	b	.LBB33_20
.LBB33_20:
.Ltmp378:
	.loc	7 1404 5 is_stmt 1              @ ../ThirdParty/STM32F4xx_HAL_Driver/Src/stm32f4xx_hal_tim.c:1404:5
	ldr	r0, [sp, #24]
	ldr	r1, [r0]
	ldr	r0, [r1, #68]
	orr	r0, r0, #32768
	str	r0, [r1, #68]
	.loc	7 1405 3                        @ ../ThirdParty/STM32F4xx_HAL_Driver/Src/stm32f4xx_hal_tim.c:1405:3
	b	.LBB33_21
.Ltmp379:
.LBB33_21:
	.loc	7 1408 3                        @ ../ThirdParty/STM32F4xx_HAL_Driver/Src/stm32f4xx_hal_tim.c:1408:3
	ldr	r0, [sp, #24]
	ldr	r1, [r0]
	ldr	r0, [r1]
	orr	r0, r0, #1
	str	r0, [r1]
	movs	r0, #0
	.loc	7 1411 3                        @ ../ThirdParty/STM32F4xx_HAL_Driver/Src/stm32f4xx_hal_tim.c:1411:3
	strb.w	r0, [sp, #31]
	b	.LBB33_22
.LBB33_22:
	.loc	7 1412 1                        @ ../ThirdParty/STM32F4xx_HAL_Driver/Src/stm32f4xx_hal_tim.c:1412:1
	ldrb.w	r0, [sp, #31]
	.loc	7 1412 1 epilogue_begin is_stmt 0 @ ../ThirdParty/STM32F4xx_HAL_Driver/Src/stm32f4xx_hal_tim.c:1412:1
	add	sp, #32
	pop	{r7, pc}
.Ltmp380:
.Lfunc_end33:
	.size	HAL_TIM_PWM_Start_DMA, .Lfunc_end33-HAL_TIM_PWM_Start_DMA
	.cfi_endproc
	.cantunwind
	.fnend
                                        @ -- End function
	.section	.text.HAL_TIM_PWM_Stop_DMA,"ax",%progbits
	.hidden	HAL_TIM_PWM_Stop_DMA            @ -- Begin function HAL_TIM_PWM_Stop_DMA
	.globl	HAL_TIM_PWM_Stop_DMA
	.p2align	2
	.type	HAL_TIM_PWM_Stop_DMA,%function
	.code	16                              @ @HAL_TIM_PWM_Stop_DMA
	.thumb_func
HAL_TIM_PWM_Stop_DMA:
.Lfunc_begin34:
	.loc	7 1427 0 is_stmt 1              @ ../ThirdParty/STM32F4xx_HAL_Driver/Src/stm32f4xx_hal_tim.c:1427:0
	.fnstart
	.cfi_startproc
@ %bb.0:
	.save	{r7, lr}
	push	{r7, lr}
	.cfi_def_cfa_offset 8
	.cfi_offset lr, -4
	.cfi_offset r7, -8
	.pad	#16
	sub	sp, #16
	.cfi_def_cfa_offset 24
	str	r0, [sp, #12]
	str	r1, [sp, #8]
.Ltmp381:
	.loc	7 1431 11 prologue_end          @ ../ThirdParty/STM32F4xx_HAL_Driver/Src/stm32f4xx_hal_tim.c:1431:11
	ldr	r0, [sp, #8]
	.loc	7 1431 3 is_stmt 0              @ ../ThirdParty/STM32F4xx_HAL_Driver/Src/stm32f4xx_hal_tim.c:1431:3
	str	r0, [sp, #4]                    @ 4-byte Spill
	cmp	r0, #12
	bhi	.LBB34_7
@ %bb.1:
	.loc	7 0 3                           @ ../ThirdParty/STM32F4xx_HAL_Driver/Src/stm32f4xx_hal_tim.c:0:3
	ldr	r1, [sp, #4]                    @ 4-byte Reload
.LCPI34_0:
	tbb	[pc, r1]
@ %bb.2:
.LJTI34_0:
	.byte	(.LBB34_3-(.LCPI34_0+4))/2
	.byte	(.LBB34_7-(.LCPI34_0+4))/2
	.byte	(.LBB34_7-(.LCPI34_0+4))/2
	.byte	(.LBB34_7-(.LCPI34_0+4))/2
	.byte	(.LBB34_4-(.LCPI34_0+4))/2
	.byte	(.LBB34_7-(.LCPI34_0+4))/2
	.byte	(.LBB34_7-(.LCPI34_0+4))/2
	.byte	(.LBB34_7-(.LCPI34_0+4))/2
	.byte	(.LBB34_5-(.LCPI34_0+4))/2
	.byte	(.LBB34_7-(.LCPI34_0+4))/2
	.byte	(.LBB34_7-(.LCPI34_0+4))/2
	.byte	(.LBB34_7-(.LCPI34_0+4))/2
	.byte	(.LBB34_6-(.LCPI34_0+4))/2
	.p2align	1
.LBB34_3:
.Ltmp382:
	.loc	7 1436 7 is_stmt 1              @ ../ThirdParty/STM32F4xx_HAL_Driver/Src/stm32f4xx_hal_tim.c:1436:7
	ldr	r0, [sp, #12]
	ldr	r1, [r0]
	ldr	r0, [r1, #12]
	bic	r0, r0, #512
	str	r0, [r1, #12]
.Ltmp383:
	.loc	7 1438 5                        @ ../ThirdParty/STM32F4xx_HAL_Driver/Src/stm32f4xx_hal_tim.c:1438:5
	b	.LBB34_8
.LBB34_4:
.Ltmp384:
	.loc	7 1443 7                        @ ../ThirdParty/STM32F4xx_HAL_Driver/Src/stm32f4xx_hal_tim.c:1443:7
	ldr	r0, [sp, #12]
	ldr	r1, [r0]
	ldr	r0, [r1, #12]
	bic	r0, r0, #1024
	str	r0, [r1, #12]
.Ltmp385:
	.loc	7 1445 5                        @ ../ThirdParty/STM32F4xx_HAL_Driver/Src/stm32f4xx_hal_tim.c:1445:5
	b	.LBB34_8
.LBB34_5:
.Ltmp386:
	.loc	7 1450 7                        @ ../ThirdParty/STM32F4xx_HAL_Driver/Src/stm32f4xx_hal_tim.c:1450:7
	ldr	r0, [sp, #12]
	ldr	r1, [r0]
	ldr	r0, [r1, #12]
	bic	r0, r0, #2048
	str	r0, [r1, #12]
.Ltmp387:
	.loc	7 1452 5                        @ ../ThirdParty/STM32F4xx_HAL_Driver/Src/stm32f4xx_hal_tim.c:1452:5
	b	.LBB34_8
.LBB34_6:
.Ltmp388:
	.loc	7 1457 7                        @ ../ThirdParty/STM32F4xx_HAL_Driver/Src/stm32f4xx_hal_tim.c:1457:7
	ldr	r0, [sp, #12]
	ldr	r1, [r0]
	ldr	r0, [r1, #12]
	bic	r0, r0, #4096
	str	r0, [r1, #12]
.Ltmp389:
	.loc	7 1459 5                        @ ../ThirdParty/STM32F4xx_HAL_Driver/Src/stm32f4xx_hal_tim.c:1459:5
	b	.LBB34_8
.LBB34_7:
	.loc	7 1462 5                        @ ../ThirdParty/STM32F4xx_HAL_Driver/Src/stm32f4xx_hal_tim.c:1462:5
	b	.LBB34_8
.Ltmp390:
.LBB34_8:
	.loc	7 1466 21                       @ ../ThirdParty/STM32F4xx_HAL_Driver/Src/stm32f4xx_hal_tim.c:1466:21
	ldr	r0, [sp, #12]
	.loc	7 1466 27 is_stmt 0             @ ../ThirdParty/STM32F4xx_HAL_Driver/Src/stm32f4xx_hal_tim.c:1466:27
	ldr	r0, [r0]
	.loc	7 1466 37                       @ ../ThirdParty/STM32F4xx_HAL_Driver/Src/stm32f4xx_hal_tim.c:1466:37
	ldr	r1, [sp, #8]
	movs	r2, #0
	.loc	7 1466 3                        @ ../ThirdParty/STM32F4xx_HAL_Driver/Src/stm32f4xx_hal_tim.c:1466:3
	bl	TIM_CCxChannelCmd
.Ltmp391:
	.loc	7 1468 6 is_stmt 1              @ ../ThirdParty/STM32F4xx_HAL_Driver/Src/stm32f4xx_hal_tim.c:1468:6
	ldr	r0, [sp, #12]
	ldr	r1, [r0]
	movs	r0, #1
	movs	r2, #0
	movt	r2, #16385
	cmp	r1, r2
	str	r0, [sp]                        @ 4-byte Spill
	beq	.LBB34_10
	b	.LBB34_9
.LBB34_9:
	ldr	r0, [sp, #12]
	ldr	r0, [r0]
	movw	r1, #64512
	movt	r1, #49150
	add	r0, r1
	clz	r0, r0
	lsrs	r0, r0, #5
	str	r0, [sp]                        @ 4-byte Spill
	b	.LBB34_10
.Ltmp392:
.LBB34_10:
	.loc	7 0 6 is_stmt 0                 @ ../ThirdParty/STM32F4xx_HAL_Driver/Src/stm32f4xx_hal_tim.c:0:6
	ldr	r0, [sp]                        @ 4-byte Reload
	.loc	7 1468 6                        @ ../ThirdParty/STM32F4xx_HAL_Driver/Src/stm32f4xx_hal_tim.c:1468:6
	lsls	r0, r0, #31
	cbz	r0, .LBB34_18
	b	.LBB34_11
.LBB34_11:
.Ltmp393:
	.loc	7 1471 5 is_stmt 1              @ ../ThirdParty/STM32F4xx_HAL_Driver/Src/stm32f4xx_hal_tim.c:1471:5
	b	.LBB34_12
.LBB34_12:
.Ltmp394:
	.loc	7 1471 5 is_stmt 0              @ ../ThirdParty/STM32F4xx_HAL_Driver/Src/stm32f4xx_hal_tim.c:1471:5
	ldr	r0, [sp, #12]
	ldr	r0, [r0]
	ldr	r0, [r0, #32]
	movw	r1, #4369
.Ltmp395:
	.loc	7 1471 5                        @ ../ThirdParty/STM32F4xx_HAL_Driver/Src/stm32f4xx_hal_tim.c:1471:5
	tst	r0, r1
	bne	.LBB34_16
	b	.LBB34_13
.LBB34_13:
.Ltmp396:
	.loc	7 1471 5                        @ ../ThirdParty/STM32F4xx_HAL_Driver/Src/stm32f4xx_hal_tim.c:1471:5
	ldr	r0, [sp, #12]
	ldr	r0, [r0]
	ldr	r0, [r0, #32]
	movw	r1, #1092
.Ltmp397:
	.loc	7 1471 5                        @ ../ThirdParty/STM32F4xx_HAL_Driver/Src/stm32f4xx_hal_tim.c:1471:5
	tst	r0, r1
	bne	.LBB34_15
	b	.LBB34_14
.LBB34_14:
.Ltmp398:
	.loc	7 1471 5                        @ ../ThirdParty/STM32F4xx_HAL_Driver/Src/stm32f4xx_hal_tim.c:1471:5
	ldr	r0, [sp, #12]
	ldr	r1, [r0]
	ldr	r0, [r1, #68]
	bic	r0, r0, #32768
	str	r0, [r1, #68]
	b	.LBB34_15
.Ltmp399:
.LBB34_15:
	.loc	7 1471 5                        @ ../ThirdParty/STM32F4xx_HAL_Driver/Src/stm32f4xx_hal_tim.c:1471:5
	b	.LBB34_16
.Ltmp400:
.LBB34_16:
	.loc	7 1471 5                        @ ../ThirdParty/STM32F4xx_HAL_Driver/Src/stm32f4xx_hal_tim.c:1471:5
	b	.LBB34_17
.Ltmp401:
.LBB34_17:
	.loc	7 1472 3 is_stmt 1              @ ../ThirdParty/STM32F4xx_HAL_Driver/Src/stm32f4xx_hal_tim.c:1472:3
	b	.LBB34_18
.Ltmp402:
.LBB34_18:
	.loc	7 1475 3                        @ ../ThirdParty/STM32F4xx_HAL_Driver/Src/stm32f4xx_hal_tim.c:1475:3
	b	.LBB34_19
.LBB34_19:
.Ltmp403:
	.loc	7 1475 3 is_stmt 0              @ ../ThirdParty/STM32F4xx_HAL_Driver/Src/stm32f4xx_hal_tim.c:1475:3
	ldr	r0, [sp, #12]
	ldr	r0, [r0]
	ldr	r0, [r0, #32]
	movw	r1, #4369
.Ltmp404:
	.loc	7 1475 3                        @ ../ThirdParty/STM32F4xx_HAL_Driver/Src/stm32f4xx_hal_tim.c:1475:3
	tst	r0, r1
	bne	.LBB34_23
	b	.LBB34_20
.LBB34_20:
.Ltmp405:
	.loc	7 1475 3                        @ ../ThirdParty/STM32F4xx_HAL_Driver/Src/stm32f4xx_hal_tim.c:1475:3
	ldr	r0, [sp, #12]
	ldr	r0, [r0]
	ldr	r0, [r0, #32]
	movw	r1, #1092
.Ltmp406:
	.loc	7 1475 3                        @ ../ThirdParty/STM32F4xx_HAL_Driver/Src/stm32f4xx_hal_tim.c:1475:3
	tst	r0, r1
	bne	.LBB34_22
	b	.LBB34_21
.LBB34_21:
.Ltmp407:
	.loc	7 1475 3                        @ ../ThirdParty/STM32F4xx_HAL_Driver/Src/stm32f4xx_hal_tim.c:1475:3
	ldr	r0, [sp, #12]
	ldr	r1, [r0]
	ldr	r0, [r1]
	bic	r0, r0, #1
	str	r0, [r1]
	b	.LBB34_22
.Ltmp408:
.LBB34_22:
	.loc	7 1475 3                        @ ../ThirdParty/STM32F4xx_HAL_Driver/Src/stm32f4xx_hal_tim.c:1475:3
	b	.LBB34_23
.Ltmp409:
.LBB34_23:
	.loc	7 1475 3                        @ ../ThirdParty/STM32F4xx_HAL_Driver/Src/stm32f4xx_hal_tim.c:1475:3
	b	.LBB34_24
.Ltmp410:
.LBB34_24:
	.loc	7 1478 3 is_stmt 1              @ ../ThirdParty/STM32F4xx_HAL_Driver/Src/stm32f4xx_hal_tim.c:1478:3
	ldr	r1, [sp, #12]
	movs	r0, #1
	.loc	7 1478 15 is_stmt 0             @ ../ThirdParty/STM32F4xx_HAL_Driver/Src/stm32f4xx_hal_tim.c:1478:15
	strb.w	r0, [r1, #57]
	movs	r0, #0
	.loc	7 1481 3 epilogue_begin is_stmt 1 @ ../ThirdParty/STM32F4xx_HAL_Driver/Src/stm32f4xx_hal_tim.c:1481:3
	add	sp, #16
	pop	{r7, pc}
.Ltmp411:
.Lfunc_end34:
	.size	HAL_TIM_PWM_Stop_DMA, .Lfunc_end34-HAL_TIM_PWM_Stop_DMA
	.cfi_endproc
	.cantunwind
	.fnend
                                        @ -- End function
	.section	.text.HAL_TIM_IC_Init,"ax",%progbits
	.hidden	HAL_TIM_IC_Init                 @ -- Begin function HAL_TIM_IC_Init
	.globl	HAL_TIM_IC_Init
	.p2align	2
	.type	HAL_TIM_IC_Init,%function
	.code	16                              @ @HAL_TIM_IC_Init
	.thumb_func
HAL_TIM_IC_Init:
.Lfunc_begin35:
	.loc	7 1516 0                        @ ../ThirdParty/STM32F4xx_HAL_Driver/Src/stm32f4xx_hal_tim.c:1516:0
	.fnstart
	.cfi_startproc
@ %bb.0:
	.save	{r7, lr}
	push	{r7, lr}
	.cfi_def_cfa_offset 8
	.cfi_offset lr, -4
	.cfi_offset r7, -8
	.pad	#8
	sub	sp, #8
	.cfi_def_cfa_offset 16
	str	r0, [sp]
.Ltmp412:
	.loc	7 1518 6 prologue_end           @ ../ThirdParty/STM32F4xx_HAL_Driver/Src/stm32f4xx_hal_tim.c:1518:6
	ldr	r0, [sp]
.Ltmp413:
	.loc	7 1518 6 is_stmt 0              @ ../ThirdParty/STM32F4xx_HAL_Driver/Src/stm32f4xx_hal_tim.c:1518:6
	cbnz	r0, .LBB35_2
	b	.LBB35_1
.LBB35_1:
	.loc	7 0 6                           @ ../ThirdParty/STM32F4xx_HAL_Driver/Src/stm32f4xx_hal_tim.c:0:6
	movs	r0, #1
.Ltmp414:
	.loc	7 1520 5 is_stmt 1              @ ../ThirdParty/STM32F4xx_HAL_Driver/Src/stm32f4xx_hal_tim.c:1520:5
	strb.w	r0, [sp, #7]
	b	.LBB35_5
.Ltmp415:
.LBB35_2:
	.loc	7 1528 6                        @ ../ThirdParty/STM32F4xx_HAL_Driver/Src/stm32f4xx_hal_tim.c:1528:6
	ldr	r0, [sp]
	.loc	7 1528 12 is_stmt 0             @ ../ThirdParty/STM32F4xx_HAL_Driver/Src/stm32f4xx_hal_tim.c:1528:12
	ldrb.w	r0, [r0, #57]
.Ltmp416:
	.loc	7 1528 6                        @ ../ThirdParty/STM32F4xx_HAL_Driver/Src/stm32f4xx_hal_tim.c:1528:6
	cbnz	r0, .LBB35_4
	b	.LBB35_3
.LBB35_3:
.Ltmp417:
	.loc	7 1531 5 is_stmt 1              @ ../ThirdParty/STM32F4xx_HAL_Driver/Src/stm32f4xx_hal_tim.c:1531:5
	ldr	r1, [sp]
	movs	r0, #0
	.loc	7 1531 16 is_stmt 0             @ ../ThirdParty/STM32F4xx_HAL_Driver/Src/stm32f4xx_hal_tim.c:1531:16
	strb.w	r0, [r1, #56]
	.loc	7 1533 24 is_stmt 1             @ ../ThirdParty/STM32F4xx_HAL_Driver/Src/stm32f4xx_hal_tim.c:1533:24
	ldr	r0, [sp]
	.loc	7 1533 5 is_stmt 0              @ ../ThirdParty/STM32F4xx_HAL_Driver/Src/stm32f4xx_hal_tim.c:1533:5
	bl	HAL_TIM_IC_MspInit
	.loc	7 1534 3 is_stmt 1              @ ../ThirdParty/STM32F4xx_HAL_Driver/Src/stm32f4xx_hal_tim.c:1534:3
	b	.LBB35_4
.Ltmp418:
.LBB35_4:
	.loc	7 1537 3                        @ ../ThirdParty/STM32F4xx_HAL_Driver/Src/stm32f4xx_hal_tim.c:1537:3
	ldr	r1, [sp]
	movs	r0, #2
	.loc	7 1537 14 is_stmt 0             @ ../ThirdParty/STM32F4xx_HAL_Driver/Src/stm32f4xx_hal_tim.c:1537:14
	strb.w	r0, [r1, #57]
	.loc	7 1540 22 is_stmt 1             @ ../ThirdParty/STM32F4xx_HAL_Driver/Src/stm32f4xx_hal_tim.c:1540:22
	ldr	r1, [sp]
	.loc	7 1540 28 is_stmt 0             @ ../ThirdParty/STM32F4xx_HAL_Driver/Src/stm32f4xx_hal_tim.c:1540:28
	ldr	r0, [r1], #4
	.loc	7 1540 3                        @ ../ThirdParty/STM32F4xx_HAL_Driver/Src/stm32f4xx_hal_tim.c:1540:3
	bl	TIM_Base_SetConfig
	.loc	7 1543 3 is_stmt 1              @ ../ThirdParty/STM32F4xx_HAL_Driver/Src/stm32f4xx_hal_tim.c:1543:3
	ldr	r1, [sp]
	movs	r0, #1
	.loc	7 1543 14 is_stmt 0             @ ../ThirdParty/STM32F4xx_HAL_Driver/Src/stm32f4xx_hal_tim.c:1543:14
	strb.w	r0, [r1, #57]
	movs	r0, #0
	.loc	7 1545 3 is_stmt 1              @ ../ThirdParty/STM32F4xx_HAL_Driver/Src/stm32f4xx_hal_tim.c:1545:3
	strb.w	r0, [sp, #7]
	b	.LBB35_5
.LBB35_5:
	.loc	7 1546 1                        @ ../ThirdParty/STM32F4xx_HAL_Driver/Src/stm32f4xx_hal_tim.c:1546:1
	ldrb.w	r0, [sp, #7]
	.loc	7 1546 1 epilogue_begin is_stmt 0 @ ../ThirdParty/STM32F4xx_HAL_Driver/Src/stm32f4xx_hal_tim.c:1546:1
	add	sp, #8
	pop	{r7, pc}
.Ltmp419:
.Lfunc_end35:
	.size	HAL_TIM_IC_Init, .Lfunc_end35-HAL_TIM_IC_Init
	.cfi_endproc
	.cantunwind
	.fnend
                                        @ -- End function
	.section	.text.HAL_TIM_IC_MspInit,"ax",%progbits
	.hidden	HAL_TIM_IC_MspInit              @ -- Begin function HAL_TIM_IC_MspInit
	.weak	HAL_TIM_IC_MspInit
	.p2align	2
	.type	HAL_TIM_IC_MspInit,%function
	.code	16                              @ @HAL_TIM_IC_MspInit
	.thumb_func
HAL_TIM_IC_MspInit:
.Lfunc_begin36:
	.loc	7 1583 0 is_stmt 1              @ ../ThirdParty/STM32F4xx_HAL_Driver/Src/stm32f4xx_hal_tim.c:1583:0
	.fnstart
	.cfi_startproc
@ %bb.0:
	.pad	#4
	sub	sp, #4
	.cfi_def_cfa_offset 4
	str	r0, [sp]
.Ltmp420:
	.loc	7 1589 1 prologue_end epilogue_begin @ ../ThirdParty/STM32F4xx_HAL_Driver/Src/stm32f4xx_hal_tim.c:1589:1
	add	sp, #4
	bx	lr
.Ltmp421:
.Lfunc_end36:
	.size	HAL_TIM_IC_MspInit, .Lfunc_end36-HAL_TIM_IC_MspInit
	.cfi_endproc
	.cantunwind
	.fnend
                                        @ -- End function
	.section	.text.HAL_TIM_IC_DeInit,"ax",%progbits
	.hidden	HAL_TIM_IC_DeInit               @ -- Begin function HAL_TIM_IC_DeInit
	.globl	HAL_TIM_IC_DeInit
	.p2align	2
	.type	HAL_TIM_IC_DeInit,%function
	.code	16                              @ @HAL_TIM_IC_DeInit
	.thumb_func
HAL_TIM_IC_DeInit:
.Lfunc_begin37:
	.loc	7 1555 0                        @ ../ThirdParty/STM32F4xx_HAL_Driver/Src/stm32f4xx_hal_tim.c:1555:0
	.fnstart
	.cfi_startproc
@ %bb.0:
	.save	{r7, lr}
	push	{r7, lr}
	.cfi_def_cfa_offset 8
	.cfi_offset lr, -4
	.cfi_offset r7, -8
	.pad	#8
	sub	sp, #8
	.cfi_def_cfa_offset 16
	str	r0, [sp, #4]
.Ltmp422:
	.loc	7 1559 3 prologue_end           @ ../ThirdParty/STM32F4xx_HAL_Driver/Src/stm32f4xx_hal_tim.c:1559:3
	ldr	r1, [sp, #4]
	movs	r0, #2
	.loc	7 1559 15 is_stmt 0             @ ../ThirdParty/STM32F4xx_HAL_Driver/Src/stm32f4xx_hal_tim.c:1559:15
	strb.w	r0, [r1, #57]
	.loc	7 1562 3 is_stmt 1              @ ../ThirdParty/STM32F4xx_HAL_Driver/Src/stm32f4xx_hal_tim.c:1562:3
	b	.LBB37_1
.LBB37_1:
.Ltmp423:
	.loc	7 1562 3 is_stmt 0              @ ../ThirdParty/STM32F4xx_HAL_Driver/Src/stm32f4xx_hal_tim.c:1562:3
	ldr	r0, [sp, #4]
	ldr	r0, [r0]
	ldr	r0, [r0, #32]
	movw	r1, #4369
.Ltmp424:
	.loc	7 1562 3                        @ ../ThirdParty/STM32F4xx_HAL_Driver/Src/stm32f4xx_hal_tim.c:1562:3
	tst	r0, r1
	bne	.LBB37_5
	b	.LBB37_2
.LBB37_2:
.Ltmp425:
	.loc	7 1562 3                        @ ../ThirdParty/STM32F4xx_HAL_Driver/Src/stm32f4xx_hal_tim.c:1562:3
	ldr	r0, [sp, #4]
	ldr	r0, [r0]
	ldr	r0, [r0, #32]
	movw	r1, #1092
.Ltmp426:
	.loc	7 1562 3                        @ ../ThirdParty/STM32F4xx_HAL_Driver/Src/stm32f4xx_hal_tim.c:1562:3
	tst	r0, r1
	bne	.LBB37_4
	b	.LBB37_3
.LBB37_3:
.Ltmp427:
	.loc	7 1562 3                        @ ../ThirdParty/STM32F4xx_HAL_Driver/Src/stm32f4xx_hal_tim.c:1562:3
	ldr	r0, [sp, #4]
	ldr	r1, [r0]
	ldr	r0, [r1]
	bic	r0, r0, #1
	str	r0, [r1]
	b	.LBB37_4
.Ltmp428:
.LBB37_4:
	.loc	7 1562 3                        @ ../ThirdParty/STM32F4xx_HAL_Driver/Src/stm32f4xx_hal_tim.c:1562:3
	b	.LBB37_5
.Ltmp429:
.LBB37_5:
	.loc	7 1562 3                        @ ../ThirdParty/STM32F4xx_HAL_Driver/Src/stm32f4xx_hal_tim.c:1562:3
	b	.LBB37_6
.Ltmp430:
.LBB37_6:
	.loc	7 1565 24 is_stmt 1             @ ../ThirdParty/STM32F4xx_HAL_Driver/Src/stm32f4xx_hal_tim.c:1565:24
	ldr	r0, [sp, #4]
	.loc	7 1565 3 is_stmt 0              @ ../ThirdParty/STM32F4xx_HAL_Driver/Src/stm32f4xx_hal_tim.c:1565:3
	bl	HAL_TIM_IC_MspDeInit
	.loc	7 1568 3 is_stmt 1              @ ../ThirdParty/STM32F4xx_HAL_Driver/Src/stm32f4xx_hal_tim.c:1568:3
	ldr	r1, [sp, #4]
	movs	r0, #0
	.loc	7 1568 15 is_stmt 0             @ ../ThirdParty/STM32F4xx_HAL_Driver/Src/stm32f4xx_hal_tim.c:1568:15
	strb.w	r0, [r1, #57]
	.loc	7 1571 3 is_stmt 1              @ ../ThirdParty/STM32F4xx_HAL_Driver/Src/stm32f4xx_hal_tim.c:1571:3
	b	.LBB37_7
.LBB37_7:
.Ltmp431:
	.loc	7 1571 3 is_stmt 0              @ ../ThirdParty/STM32F4xx_HAL_Driver/Src/stm32f4xx_hal_tim.c:1571:3
	ldr	r1, [sp, #4]
	movs	r0, #0
	strb.w	r0, [r1, #56]
	b	.LBB37_8
.Ltmp432:
.LBB37_8:
	.loc	7 0 3                           @ ../ThirdParty/STM32F4xx_HAL_Driver/Src/stm32f4xx_hal_tim.c:0:3
	movs	r0, #0
	.loc	7 1573 3 epilogue_begin is_stmt 1 @ ../ThirdParty/STM32F4xx_HAL_Driver/Src/stm32f4xx_hal_tim.c:1573:3
	add	sp, #8
	pop	{r7, pc}
.Ltmp433:
.Lfunc_end37:
	.size	HAL_TIM_IC_DeInit, .Lfunc_end37-HAL_TIM_IC_DeInit
	.cfi_endproc
	.cantunwind
	.fnend
                                        @ -- End function
	.section	.text.HAL_TIM_IC_MspDeInit,"ax",%progbits
	.hidden	HAL_TIM_IC_MspDeInit            @ -- Begin function HAL_TIM_IC_MspDeInit
	.weak	HAL_TIM_IC_MspDeInit
	.p2align	2
	.type	HAL_TIM_IC_MspDeInit,%function
	.code	16                              @ @HAL_TIM_IC_MspDeInit
	.thumb_func
HAL_TIM_IC_MspDeInit:
.Lfunc_begin38:
	.loc	7 1598 0                        @ ../ThirdParty/STM32F4xx_HAL_Driver/Src/stm32f4xx_hal_tim.c:1598:0
	.fnstart
	.cfi_startproc
@ %bb.0:
	.pad	#4
	sub	sp, #4
	.cfi_def_cfa_offset 4
	str	r0, [sp]
.Ltmp434:
	.loc	7 1604 1 prologue_end epilogue_begin @ ../ThirdParty/STM32F4xx_HAL_Driver/Src/stm32f4xx_hal_tim.c:1604:1
	add	sp, #4
	bx	lr
.Ltmp435:
.Lfunc_end38:
	.size	HAL_TIM_IC_MspDeInit, .Lfunc_end38-HAL_TIM_IC_MspDeInit
	.cfi_endproc
	.cantunwind
	.fnend
                                        @ -- End function
	.section	.text.HAL_TIM_IC_Start,"ax",%progbits
	.hidden	HAL_TIM_IC_Start                @ -- Begin function HAL_TIM_IC_Start
	.globl	HAL_TIM_IC_Start
	.p2align	2
	.type	HAL_TIM_IC_Start,%function
	.code	16                              @ @HAL_TIM_IC_Start
	.thumb_func
HAL_TIM_IC_Start:
.Lfunc_begin39:
	.loc	7 1619 0                        @ ../ThirdParty/STM32F4xx_HAL_Driver/Src/stm32f4xx_hal_tim.c:1619:0
	.fnstart
	.cfi_startproc
@ %bb.0:
	.save	{r7, lr}
	push	{r7, lr}
	.cfi_def_cfa_offset 8
	.cfi_offset lr, -4
	.cfi_offset r7, -8
	.pad	#8
	sub	sp, #8
	.cfi_def_cfa_offset 16
	str	r0, [sp, #4]
	str	r1, [sp]
.Ltmp436:
	.loc	7 1624 21 prologue_end          @ ../ThirdParty/STM32F4xx_HAL_Driver/Src/stm32f4xx_hal_tim.c:1624:21
	ldr	r0, [sp, #4]
	.loc	7 1624 27 is_stmt 0             @ ../ThirdParty/STM32F4xx_HAL_Driver/Src/stm32f4xx_hal_tim.c:1624:27
	ldr	r0, [r0]
	.loc	7 1624 37                       @ ../ThirdParty/STM32F4xx_HAL_Driver/Src/stm32f4xx_hal_tim.c:1624:37
	ldr	r1, [sp]
	movs	r2, #1
	.loc	7 1624 3                        @ ../ThirdParty/STM32F4xx_HAL_Driver/Src/stm32f4xx_hal_tim.c:1624:3
	bl	TIM_CCxChannelCmd
	.loc	7 1627 3 is_stmt 1              @ ../ThirdParty/STM32F4xx_HAL_Driver/Src/stm32f4xx_hal_tim.c:1627:3
	ldr	r0, [sp, #4]
	ldr	r1, [r0]
	ldr	r0, [r1]
	orr	r0, r0, #1
	str	r0, [r1]
	movs	r0, #0
	.loc	7 1630 3 epilogue_begin         @ ../ThirdParty/STM32F4xx_HAL_Driver/Src/stm32f4xx_hal_tim.c:1630:3
	add	sp, #8
	pop	{r7, pc}
.Ltmp437:
.Lfunc_end39:
	.size	HAL_TIM_IC_Start, .Lfunc_end39-HAL_TIM_IC_Start
	.cfi_endproc
	.cantunwind
	.fnend
                                        @ -- End function
	.section	.text.HAL_TIM_IC_Stop,"ax",%progbits
	.hidden	HAL_TIM_IC_Stop                 @ -- Begin function HAL_TIM_IC_Stop
	.globl	HAL_TIM_IC_Stop
	.p2align	2
	.type	HAL_TIM_IC_Stop,%function
	.code	16                              @ @HAL_TIM_IC_Stop
	.thumb_func
HAL_TIM_IC_Stop:
.Lfunc_begin40:
	.loc	7 1646 0                        @ ../ThirdParty/STM32F4xx_HAL_Driver/Src/stm32f4xx_hal_tim.c:1646:0
	.fnstart
	.cfi_startproc
@ %bb.0:
	.save	{r7, lr}
	push	{r7, lr}
	.cfi_def_cfa_offset 8
	.cfi_offset lr, -4
	.cfi_offset r7, -8
	.pad	#8
	sub	sp, #8
	.cfi_def_cfa_offset 16
	str	r0, [sp, #4]
	str	r1, [sp]
.Ltmp438:
	.loc	7 1651 21 prologue_end          @ ../ThirdParty/STM32F4xx_HAL_Driver/Src/stm32f4xx_hal_tim.c:1651:21
	ldr	r0, [sp, #4]
	.loc	7 1651 27 is_stmt 0             @ ../ThirdParty/STM32F4xx_HAL_Driver/Src/stm32f4xx_hal_tim.c:1651:27
	ldr	r0, [r0]
	.loc	7 1651 37                       @ ../ThirdParty/STM32F4xx_HAL_Driver/Src/stm32f4xx_hal_tim.c:1651:37
	ldr	r1, [sp]
	movs	r2, #0
	.loc	7 1651 3                        @ ../ThirdParty/STM32F4xx_HAL_Driver/Src/stm32f4xx_hal_tim.c:1651:3
	bl	TIM_CCxChannelCmd
	.loc	7 1654 3 is_stmt 1              @ ../ThirdParty/STM32F4xx_HAL_Driver/Src/stm32f4xx_hal_tim.c:1654:3
	b	.LBB40_1
.LBB40_1:
.Ltmp439:
	.loc	7 1654 3 is_stmt 0              @ ../ThirdParty/STM32F4xx_HAL_Driver/Src/stm32f4xx_hal_tim.c:1654:3
	ldr	r0, [sp, #4]
	ldr	r0, [r0]
	ldr	r0, [r0, #32]
	movw	r1, #4369
.Ltmp440:
	.loc	7 1654 3                        @ ../ThirdParty/STM32F4xx_HAL_Driver/Src/stm32f4xx_hal_tim.c:1654:3
	tst	r0, r1
	bne	.LBB40_5
	b	.LBB40_2
.LBB40_2:
.Ltmp441:
	.loc	7 1654 3                        @ ../ThirdParty/STM32F4xx_HAL_Driver/Src/stm32f4xx_hal_tim.c:1654:3
	ldr	r0, [sp, #4]
	ldr	r0, [r0]
	ldr	r0, [r0, #32]
	movw	r1, #1092
.Ltmp442:
	.loc	7 1654 3                        @ ../ThirdParty/STM32F4xx_HAL_Driver/Src/stm32f4xx_hal_tim.c:1654:3
	tst	r0, r1
	bne	.LBB40_4
	b	.LBB40_3
.LBB40_3:
.Ltmp443:
	.loc	7 1654 3                        @ ../ThirdParty/STM32F4xx_HAL_Driver/Src/stm32f4xx_hal_tim.c:1654:3
	ldr	r0, [sp, #4]
	ldr	r1, [r0]
	ldr	r0, [r1]
	bic	r0, r0, #1
	str	r0, [r1]
	b	.LBB40_4
.Ltmp444:
.LBB40_4:
	.loc	7 1654 3                        @ ../ThirdParty/STM32F4xx_HAL_Driver/Src/stm32f4xx_hal_tim.c:1654:3
	b	.LBB40_5
.Ltmp445:
.LBB40_5:
	.loc	7 1654 3                        @ ../ThirdParty/STM32F4xx_HAL_Driver/Src/stm32f4xx_hal_tim.c:1654:3
	b	.LBB40_6
.Ltmp446:
.LBB40_6:
	.loc	7 0 3                           @ ../ThirdParty/STM32F4xx_HAL_Driver/Src/stm32f4xx_hal_tim.c:0:3
	movs	r0, #0
	.loc	7 1657 3 epilogue_begin is_stmt 1 @ ../ThirdParty/STM32F4xx_HAL_Driver/Src/stm32f4xx_hal_tim.c:1657:3
	add	sp, #8
	pop	{r7, pc}
.Ltmp447:
.Lfunc_end40:
	.size	HAL_TIM_IC_Stop, .Lfunc_end40-HAL_TIM_IC_Stop
	.cfi_endproc
	.cantunwind
	.fnend
                                        @ -- End function
	.section	.text.HAL_TIM_IC_Start_IT,"ax",%progbits
	.hidden	HAL_TIM_IC_Start_IT             @ -- Begin function HAL_TIM_IC_Start_IT
	.globl	HAL_TIM_IC_Start_IT
	.p2align	2
	.type	HAL_TIM_IC_Start_IT,%function
	.code	16                              @ @HAL_TIM_IC_Start_IT
	.thumb_func
HAL_TIM_IC_Start_IT:
.Lfunc_begin41:
	.loc	7 1673 0                        @ ../ThirdParty/STM32F4xx_HAL_Driver/Src/stm32f4xx_hal_tim.c:1673:0
	.fnstart
	.cfi_startproc
@ %bb.0:
	.save	{r7, lr}
	push	{r7, lr}
	.cfi_def_cfa_offset 8
	.cfi_offset lr, -4
	.cfi_offset r7, -8
	.pad	#16
	sub	sp, #16
	.cfi_def_cfa_offset 24
	str	r0, [sp, #12]
	str	r1, [sp, #8]
.Ltmp448:
	.loc	7 1677 11 prologue_end          @ ../ThirdParty/STM32F4xx_HAL_Driver/Src/stm32f4xx_hal_tim.c:1677:11
	ldr	r0, [sp, #8]
	.loc	7 1677 3 is_stmt 0              @ ../ThirdParty/STM32F4xx_HAL_Driver/Src/stm32f4xx_hal_tim.c:1677:3
	str	r0, [sp, #4]                    @ 4-byte Spill
	cmp	r0, #12
	bhi	.LBB41_7
@ %bb.1:
	.loc	7 0 3                           @ ../ThirdParty/STM32F4xx_HAL_Driver/Src/stm32f4xx_hal_tim.c:0:3
	ldr	r1, [sp, #4]                    @ 4-byte Reload
.LCPI41_0:
	tbb	[pc, r1]
@ %bb.2:
.LJTI41_0:
	.byte	(.LBB41_3-(.LCPI41_0+4))/2
	.byte	(.LBB41_7-(.LCPI41_0+4))/2
	.byte	(.LBB41_7-(.LCPI41_0+4))/2
	.byte	(.LBB41_7-(.LCPI41_0+4))/2
	.byte	(.LBB41_4-(.LCPI41_0+4))/2
	.byte	(.LBB41_7-(.LCPI41_0+4))/2
	.byte	(.LBB41_7-(.LCPI41_0+4))/2
	.byte	(.LBB41_7-(.LCPI41_0+4))/2
	.byte	(.LBB41_5-(.LCPI41_0+4))/2
	.byte	(.LBB41_7-(.LCPI41_0+4))/2
	.byte	(.LBB41_7-(.LCPI41_0+4))/2
	.byte	(.LBB41_7-(.LCPI41_0+4))/2
	.byte	(.LBB41_6-(.LCPI41_0+4))/2
	.p2align	1
.LBB41_3:
.Ltmp449:
	.loc	7 1682 7 is_stmt 1              @ ../ThirdParty/STM32F4xx_HAL_Driver/Src/stm32f4xx_hal_tim.c:1682:7
	ldr	r0, [sp, #12]
	ldr	r1, [r0]
	ldr	r0, [r1, #12]
	orr	r0, r0, #2
	str	r0, [r1, #12]
.Ltmp450:
	.loc	7 1684 5                        @ ../ThirdParty/STM32F4xx_HAL_Driver/Src/stm32f4xx_hal_tim.c:1684:5
	b	.LBB41_8
.LBB41_4:
.Ltmp451:
	.loc	7 1689 7                        @ ../ThirdParty/STM32F4xx_HAL_Driver/Src/stm32f4xx_hal_tim.c:1689:7
	ldr	r0, [sp, #12]
	ldr	r1, [r0]
	ldr	r0, [r1, #12]
	orr	r0, r0, #4
	str	r0, [r1, #12]
.Ltmp452:
	.loc	7 1691 5                        @ ../ThirdParty/STM32F4xx_HAL_Driver/Src/stm32f4xx_hal_tim.c:1691:5
	b	.LBB41_8
.LBB41_5:
.Ltmp453:
	.loc	7 1696 7                        @ ../ThirdParty/STM32F4xx_HAL_Driver/Src/stm32f4xx_hal_tim.c:1696:7
	ldr	r0, [sp, #12]
	ldr	r1, [r0]
	ldr	r0, [r1, #12]
	orr	r0, r0, #8
	str	r0, [r1, #12]
.Ltmp454:
	.loc	7 1698 5                        @ ../ThirdParty/STM32F4xx_HAL_Driver/Src/stm32f4xx_hal_tim.c:1698:5
	b	.LBB41_8
.LBB41_6:
.Ltmp455:
	.loc	7 1703 7                        @ ../ThirdParty/STM32F4xx_HAL_Driver/Src/stm32f4xx_hal_tim.c:1703:7
	ldr	r0, [sp, #12]
	ldr	r1, [r0]
	ldr	r0, [r1, #12]
	orr	r0, r0, #16
	str	r0, [r1, #12]
.Ltmp456:
	.loc	7 1705 5                        @ ../ThirdParty/STM32F4xx_HAL_Driver/Src/stm32f4xx_hal_tim.c:1705:5
	b	.LBB41_8
.LBB41_7:
	.loc	7 1708 5                        @ ../ThirdParty/STM32F4xx_HAL_Driver/Src/stm32f4xx_hal_tim.c:1708:5
	b	.LBB41_8
.Ltmp457:
.LBB41_8:
	.loc	7 1711 21                       @ ../ThirdParty/STM32F4xx_HAL_Driver/Src/stm32f4xx_hal_tim.c:1711:21
	ldr	r0, [sp, #12]
	.loc	7 1711 27 is_stmt 0             @ ../ThirdParty/STM32F4xx_HAL_Driver/Src/stm32f4xx_hal_tim.c:1711:27
	ldr	r0, [r0]
	.loc	7 1711 37                       @ ../ThirdParty/STM32F4xx_HAL_Driver/Src/stm32f4xx_hal_tim.c:1711:37
	ldr	r1, [sp, #8]
	movs	r2, #1
	.loc	7 1711 3                        @ ../ThirdParty/STM32F4xx_HAL_Driver/Src/stm32f4xx_hal_tim.c:1711:3
	bl	TIM_CCxChannelCmd
	.loc	7 1714 3 is_stmt 1              @ ../ThirdParty/STM32F4xx_HAL_Driver/Src/stm32f4xx_hal_tim.c:1714:3
	ldr	r0, [sp, #12]
	ldr	r1, [r0]
	ldr	r0, [r1]
	orr	r0, r0, #1
	str	r0, [r1]
	movs	r0, #0
	.loc	7 1717 3 epilogue_begin         @ ../ThirdParty/STM32F4xx_HAL_Driver/Src/stm32f4xx_hal_tim.c:1717:3
	add	sp, #16
	pop	{r7, pc}
.Ltmp458:
.Lfunc_end41:
	.size	HAL_TIM_IC_Start_IT, .Lfunc_end41-HAL_TIM_IC_Start_IT
	.cfi_endproc
	.cantunwind
	.fnend
                                        @ -- End function
	.section	.text.HAL_TIM_IC_Stop_IT,"ax",%progbits
	.hidden	HAL_TIM_IC_Stop_IT              @ -- Begin function HAL_TIM_IC_Stop_IT
	.globl	HAL_TIM_IC_Stop_IT
	.p2align	2
	.type	HAL_TIM_IC_Stop_IT,%function
	.code	16                              @ @HAL_TIM_IC_Stop_IT
	.thumb_func
HAL_TIM_IC_Stop_IT:
.Lfunc_begin42:
	.loc	7 1733 0                        @ ../ThirdParty/STM32F4xx_HAL_Driver/Src/stm32f4xx_hal_tim.c:1733:0
	.fnstart
	.cfi_startproc
@ %bb.0:
	.save	{r7, lr}
	push	{r7, lr}
	.cfi_def_cfa_offset 8
	.cfi_offset lr, -4
	.cfi_offset r7, -8
	.pad	#16
	sub	sp, #16
	.cfi_def_cfa_offset 24
	str	r0, [sp, #12]
	str	r1, [sp, #8]
.Ltmp459:
	.loc	7 1737 11 prologue_end          @ ../ThirdParty/STM32F4xx_HAL_Driver/Src/stm32f4xx_hal_tim.c:1737:11
	ldr	r0, [sp, #8]
	.loc	7 1737 3 is_stmt 0              @ ../ThirdParty/STM32F4xx_HAL_Driver/Src/stm32f4xx_hal_tim.c:1737:3
	str	r0, [sp, #4]                    @ 4-byte Spill
	cmp	r0, #12
	bhi	.LBB42_7
@ %bb.1:
	.loc	7 0 3                           @ ../ThirdParty/STM32F4xx_HAL_Driver/Src/stm32f4xx_hal_tim.c:0:3
	ldr	r1, [sp, #4]                    @ 4-byte Reload
.LCPI42_0:
	tbb	[pc, r1]
@ %bb.2:
.LJTI42_0:
	.byte	(.LBB42_3-(.LCPI42_0+4))/2
	.byte	(.LBB42_7-(.LCPI42_0+4))/2
	.byte	(.LBB42_7-(.LCPI42_0+4))/2
	.byte	(.LBB42_7-(.LCPI42_0+4))/2
	.byte	(.LBB42_4-(.LCPI42_0+4))/2
	.byte	(.LBB42_7-(.LCPI42_0+4))/2
	.byte	(.LBB42_7-(.LCPI42_0+4))/2
	.byte	(.LBB42_7-(.LCPI42_0+4))/2
	.byte	(.LBB42_5-(.LCPI42_0+4))/2
	.byte	(.LBB42_7-(.LCPI42_0+4))/2
	.byte	(.LBB42_7-(.LCPI42_0+4))/2
	.byte	(.LBB42_7-(.LCPI42_0+4))/2
	.byte	(.LBB42_6-(.LCPI42_0+4))/2
	.p2align	1
.LBB42_3:
.Ltmp460:
	.loc	7 1742 7 is_stmt 1              @ ../ThirdParty/STM32F4xx_HAL_Driver/Src/stm32f4xx_hal_tim.c:1742:7
	ldr	r0, [sp, #12]
	ldr	r1, [r0]
	ldr	r0, [r1, #12]
	bic	r0, r0, #2
	str	r0, [r1, #12]
.Ltmp461:
	.loc	7 1744 5                        @ ../ThirdParty/STM32F4xx_HAL_Driver/Src/stm32f4xx_hal_tim.c:1744:5
	b	.LBB42_8
.LBB42_4:
.Ltmp462:
	.loc	7 1749 7                        @ ../ThirdParty/STM32F4xx_HAL_Driver/Src/stm32f4xx_hal_tim.c:1749:7
	ldr	r0, [sp, #12]
	ldr	r1, [r0]
	ldr	r0, [r1, #12]
	bic	r0, r0, #4
	str	r0, [r1, #12]
.Ltmp463:
	.loc	7 1751 5                        @ ../ThirdParty/STM32F4xx_HAL_Driver/Src/stm32f4xx_hal_tim.c:1751:5
	b	.LBB42_8
.LBB42_5:
.Ltmp464:
	.loc	7 1756 7                        @ ../ThirdParty/STM32F4xx_HAL_Driver/Src/stm32f4xx_hal_tim.c:1756:7
	ldr	r0, [sp, #12]
	ldr	r1, [r0]
	ldr	r0, [r1, #12]
	bic	r0, r0, #8
	str	r0, [r1, #12]
.Ltmp465:
	.loc	7 1758 5                        @ ../ThirdParty/STM32F4xx_HAL_Driver/Src/stm32f4xx_hal_tim.c:1758:5
	b	.LBB42_8
.LBB42_6:
.Ltmp466:
	.loc	7 1763 7                        @ ../ThirdParty/STM32F4xx_HAL_Driver/Src/stm32f4xx_hal_tim.c:1763:7
	ldr	r0, [sp, #12]
	ldr	r1, [r0]
	ldr	r0, [r1, #12]
	bic	r0, r0, #16
	str	r0, [r1, #12]
.Ltmp467:
	.loc	7 1765 5                        @ ../ThirdParty/STM32F4xx_HAL_Driver/Src/stm32f4xx_hal_tim.c:1765:5
	b	.LBB42_8
.LBB42_7:
	.loc	7 1768 5                        @ ../ThirdParty/STM32F4xx_HAL_Driver/Src/stm32f4xx_hal_tim.c:1768:5
	b	.LBB42_8
.Ltmp468:
.LBB42_8:
	.loc	7 1772 21                       @ ../ThirdParty/STM32F4xx_HAL_Driver/Src/stm32f4xx_hal_tim.c:1772:21
	ldr	r0, [sp, #12]
	.loc	7 1772 27 is_stmt 0             @ ../ThirdParty/STM32F4xx_HAL_Driver/Src/stm32f4xx_hal_tim.c:1772:27
	ldr	r0, [r0]
	.loc	7 1772 37                       @ ../ThirdParty/STM32F4xx_HAL_Driver/Src/stm32f4xx_hal_tim.c:1772:37
	ldr	r1, [sp, #8]
	movs	r2, #0
	.loc	7 1772 3                        @ ../ThirdParty/STM32F4xx_HAL_Driver/Src/stm32f4xx_hal_tim.c:1772:3
	bl	TIM_CCxChannelCmd
	.loc	7 1775 3 is_stmt 1              @ ../ThirdParty/STM32F4xx_HAL_Driver/Src/stm32f4xx_hal_tim.c:1775:3
	b	.LBB42_9
.LBB42_9:
.Ltmp469:
	.loc	7 1775 3 is_stmt 0              @ ../ThirdParty/STM32F4xx_HAL_Driver/Src/stm32f4xx_hal_tim.c:1775:3
	ldr	r0, [sp, #12]
	ldr	r0, [r0]
	ldr	r0, [r0, #32]
	movw	r1, #4369
.Ltmp470:
	.loc	7 1775 3                        @ ../ThirdParty/STM32F4xx_HAL_Driver/Src/stm32f4xx_hal_tim.c:1775:3
	tst	r0, r1
	bne	.LBB42_13
	b	.LBB42_10
.LBB42_10:
.Ltmp471:
	.loc	7 1775 3                        @ ../ThirdParty/STM32F4xx_HAL_Driver/Src/stm32f4xx_hal_tim.c:1775:3
	ldr	r0, [sp, #12]
	ldr	r0, [r0]
	ldr	r0, [r0, #32]
	movw	r1, #1092
.Ltmp472:
	.loc	7 1775 3                        @ ../ThirdParty/STM32F4xx_HAL_Driver/Src/stm32f4xx_hal_tim.c:1775:3
	tst	r0, r1
	bne	.LBB42_12
	b	.LBB42_11
.LBB42_11:
.Ltmp473:
	.loc	7 1775 3                        @ ../ThirdParty/STM32F4xx_HAL_Driver/Src/stm32f4xx_hal_tim.c:1775:3
	ldr	r0, [sp, #12]
	ldr	r1, [r0]
	ldr	r0, [r1]
	bic	r0, r0, #1
	str	r0, [r1]
	b	.LBB42_12
.Ltmp474:
.LBB42_12:
	.loc	7 1775 3                        @ ../ThirdParty/STM32F4xx_HAL_Driver/Src/stm32f4xx_hal_tim.c:1775:3
	b	.LBB42_13
.Ltmp475:
.LBB42_13:
	.loc	7 1775 3                        @ ../ThirdParty/STM32F4xx_HAL_Driver/Src/stm32f4xx_hal_tim.c:1775:3
	b	.LBB42_14
.Ltmp476:
.LBB42_14:
	.loc	7 0 3                           @ ../ThirdParty/STM32F4xx_HAL_Driver/Src/stm32f4xx_hal_tim.c:0:3
	movs	r0, #0
	.loc	7 1778 3 epilogue_begin is_stmt 1 @ ../ThirdParty/STM32F4xx_HAL_Driver/Src/stm32f4xx_hal_tim.c:1778:3
	add	sp, #16
	pop	{r7, pc}
.Ltmp477:
.Lfunc_end42:
	.size	HAL_TIM_IC_Stop_IT, .Lfunc_end42-HAL_TIM_IC_Stop_IT
	.cfi_endproc
	.cantunwind
	.fnend
                                        @ -- End function
	.section	.text.HAL_TIM_IC_Start_DMA,"ax",%progbits
	.hidden	HAL_TIM_IC_Start_DMA            @ -- Begin function HAL_TIM_IC_Start_DMA
	.globl	HAL_TIM_IC_Start_DMA
	.p2align	2
	.type	HAL_TIM_IC_Start_DMA,%function
	.code	16                              @ @HAL_TIM_IC_Start_DMA
	.thumb_func
HAL_TIM_IC_Start_DMA:
.Lfunc_begin43:
	.loc	7 1796 0                        @ ../ThirdParty/STM32F4xx_HAL_Driver/Src/stm32f4xx_hal_tim.c:1796:0
	.fnstart
	.cfi_startproc
@ %bb.0:
	.save	{r7, lr}
	push	{r7, lr}
	.cfi_def_cfa_offset 8
	.cfi_offset lr, -4
	.cfi_offset r7, -8
	.pad	#24
	sub	sp, #24
	.cfi_def_cfa_offset 32
                                        @ kill: def $r12 killed $r3
	str	r0, [sp, #16]
	str	r1, [sp, #12]
	str	r2, [sp, #8]
	strh.w	r3, [sp, #6]
.Ltmp478:
	.loc	7 1801 7 prologue_end           @ ../ThirdParty/STM32F4xx_HAL_Driver/Src/stm32f4xx_hal_tim.c:1801:7
	ldr	r0, [sp, #16]
	.loc	7 1801 13 is_stmt 0             @ ../ThirdParty/STM32F4xx_HAL_Driver/Src/stm32f4xx_hal_tim.c:1801:13
	ldrb.w	r0, [r0, #57]
.Ltmp479:
	.loc	7 1801 6                        @ ../ThirdParty/STM32F4xx_HAL_Driver/Src/stm32f4xx_hal_tim.c:1801:6
	cmp	r0, #2
	bne	.LBB43_2
	b	.LBB43_1
.LBB43_1:
	.loc	7 0 6                           @ ../ThirdParty/STM32F4xx_HAL_Driver/Src/stm32f4xx_hal_tim.c:0:6
	movs	r0, #2
.Ltmp480:
	.loc	7 1803 6 is_stmt 1              @ ../ThirdParty/STM32F4xx_HAL_Driver/Src/stm32f4xx_hal_tim.c:1803:6
	strb.w	r0, [sp, #23]
	b	.LBB43_18
.Ltmp481:
.LBB43_2:
	.loc	7 1805 12                       @ ../ThirdParty/STM32F4xx_HAL_Driver/Src/stm32f4xx_hal_tim.c:1805:12
	ldr	r0, [sp, #16]
	.loc	7 1805 18 is_stmt 0             @ ../ThirdParty/STM32F4xx_HAL_Driver/Src/stm32f4xx_hal_tim.c:1805:18
	ldrb.w	r0, [r0, #57]
.Ltmp482:
	.loc	7 1805 11                       @ ../ThirdParty/STM32F4xx_HAL_Driver/Src/stm32f4xx_hal_tim.c:1805:11
	cmp	r0, #1
	bne	.LBB43_8
	b	.LBB43_3
.LBB43_3:
.Ltmp483:
	.loc	7 1807 9 is_stmt 1              @ ../ThirdParty/STM32F4xx_HAL_Driver/Src/stm32f4xx_hal_tim.c:1807:9
	ldr	r0, [sp, #8]
	.loc	7 1807 22 is_stmt 0             @ ../ThirdParty/STM32F4xx_HAL_Driver/Src/stm32f4xx_hal_tim.c:1807:22
	cbnz	r0, .LBB43_6
	b	.LBB43_4
.LBB43_4:
	.loc	7 1807 26                       @ ../ThirdParty/STM32F4xx_HAL_Driver/Src/stm32f4xx_hal_tim.c:1807:26
	ldrh.w	r0, [sp, #6]
.Ltmp484:
	.loc	7 1807 8                        @ ../ThirdParty/STM32F4xx_HAL_Driver/Src/stm32f4xx_hal_tim.c:1807:8
	cmp	r0, #1
	blt	.LBB43_6
	b	.LBB43_5
.LBB43_5:
	.loc	7 0 8                           @ ../ThirdParty/STM32F4xx_HAL_Driver/Src/stm32f4xx_hal_tim.c:0:8
	movs	r0, #1
.Ltmp485:
	.loc	7 1809 7 is_stmt 1              @ ../ThirdParty/STM32F4xx_HAL_Driver/Src/stm32f4xx_hal_tim.c:1809:7
	strb.w	r0, [sp, #23]
	b	.LBB43_18
.Ltmp486:
.LBB43_6:
	.loc	7 1813 7                        @ ../ThirdParty/STM32F4xx_HAL_Driver/Src/stm32f4xx_hal_tim.c:1813:7
	ldr	r1, [sp, #16]
	movs	r0, #2
	.loc	7 1813 19 is_stmt 0             @ ../ThirdParty/STM32F4xx_HAL_Driver/Src/stm32f4xx_hal_tim.c:1813:19
	strb.w	r0, [r1, #57]
	b	.LBB43_7
.Ltmp487:
.LBB43_7:
	.loc	7 1815 3 is_stmt 1              @ ../ThirdParty/STM32F4xx_HAL_Driver/Src/stm32f4xx_hal_tim.c:1815:3
	b	.LBB43_8
.Ltmp488:
.LBB43_8:
	.loc	7 0 3 is_stmt 0                 @ ../ThirdParty/STM32F4xx_HAL_Driver/Src/stm32f4xx_hal_tim.c:0:3
	b	.LBB43_9
.LBB43_9:
	.loc	7 1817 11 is_stmt 1             @ ../ThirdParty/STM32F4xx_HAL_Driver/Src/stm32f4xx_hal_tim.c:1817:11
	ldr	r0, [sp, #12]
	.loc	7 1817 3 is_stmt 0              @ ../ThirdParty/STM32F4xx_HAL_Driver/Src/stm32f4xx_hal_tim.c:1817:3
	str	r0, [sp]                        @ 4-byte Spill
	cmp	r0, #12
	bhi.w	.LBB43_16
@ %bb.10:
	.loc	7 0 3                           @ ../ThirdParty/STM32F4xx_HAL_Driver/Src/stm32f4xx_hal_tim.c:0:3
	ldr	r1, [sp]                        @ 4-byte Reload
.LCPI43_0:
	tbb	[pc, r1]
@ %bb.11:
.LJTI43_0:
	.byte	(.LBB43_12-(.LCPI43_0+4))/2
	.byte	(.LBB43_16-(.LCPI43_0+4))/2
	.byte	(.LBB43_16-(.LCPI43_0+4))/2
	.byte	(.LBB43_16-(.LCPI43_0+4))/2
	.byte	(.LBB43_13-(.LCPI43_0+4))/2
	.byte	(.LBB43_16-(.LCPI43_0+4))/2
	.byte	(.LBB43_16-(.LCPI43_0+4))/2
	.byte	(.LBB43_16-(.LCPI43_0+4))/2
	.byte	(.LBB43_14-(.LCPI43_0+4))/2
	.byte	(.LBB43_16-(.LCPI43_0+4))/2
	.byte	(.LBB43_16-(.LCPI43_0+4))/2
	.byte	(.LBB43_16-(.LCPI43_0+4))/2
	.byte	(.LBB43_15-(.LCPI43_0+4))/2
	.p2align	1
.LBB43_12:
.Ltmp489:
	.loc	7 1822 7 is_stmt 1              @ ../ThirdParty/STM32F4xx_HAL_Driver/Src/stm32f4xx_hal_tim.c:1822:7
	ldr	r0, [sp, #16]
	ldr	r1, [r0, #32]
	.loc	7 1822 52 is_stmt 0             @ ../ThirdParty/STM32F4xx_HAL_Driver/Src/stm32f4xx_hal_tim.c:1822:52
	movw	r0, :lower16:TIM_DMACaptureCplt
	movt	r0, :upper16:TIM_DMACaptureCplt
	str	r0, [r1, #60]
	.loc	7 1825 7 is_stmt 1              @ ../ThirdParty/STM32F4xx_HAL_Driver/Src/stm32f4xx_hal_tim.c:1825:7
	ldr	r0, [sp, #16]
	ldr	r1, [r0, #32]
	.loc	7 1825 53 is_stmt 0             @ ../ThirdParty/STM32F4xx_HAL_Driver/Src/stm32f4xx_hal_tim.c:1825:53
	movw	r0, :lower16:TIM_DMAError
	movt	r0, :upper16:TIM_DMAError
	str	r0, [r1, #76]
	.loc	7 1828 24 is_stmt 1             @ ../ThirdParty/STM32F4xx_HAL_Driver/Src/stm32f4xx_hal_tim.c:1828:24
	ldr	r0, [sp, #16]
	.loc	7 1828 69 is_stmt 0             @ ../ThirdParty/STM32F4xx_HAL_Driver/Src/stm32f4xx_hal_tim.c:1828:69
	ldr	r1, [r0]
	.loc	7 1828 24                       @ ../ThirdParty/STM32F4xx_HAL_Driver/Src/stm32f4xx_hal_tim.c:1828:24
	ldr	r0, [r0, #32]
	.loc	7 1828 79                       @ ../ThirdParty/STM32F4xx_HAL_Driver/Src/stm32f4xx_hal_tim.c:1828:79
	adds	r1, #52
	.loc	7 1828 95                       @ ../ThirdParty/STM32F4xx_HAL_Driver/Src/stm32f4xx_hal_tim.c:1828:95
	ldr	r2, [sp, #8]
	.loc	7 1828 102                      @ ../ThirdParty/STM32F4xx_HAL_Driver/Src/stm32f4xx_hal_tim.c:1828:102
	ldrh.w	r3, [sp, #6]
	.loc	7 1828 7                        @ ../ThirdParty/STM32F4xx_HAL_Driver/Src/stm32f4xx_hal_tim.c:1828:7
	bl	HAL_DMA_Start_IT
	.loc	7 1831 7 is_stmt 1              @ ../ThirdParty/STM32F4xx_HAL_Driver/Src/stm32f4xx_hal_tim.c:1831:7
	ldr	r0, [sp, #16]
	ldr	r1, [r0]
	ldr	r0, [r1, #12]
	orr	r0, r0, #512
	str	r0, [r1, #12]
.Ltmp490:
	.loc	7 1833 5                        @ ../ThirdParty/STM32F4xx_HAL_Driver/Src/stm32f4xx_hal_tim.c:1833:5
	b	.LBB43_17
.LBB43_13:
.Ltmp491:
	.loc	7 1838 7                        @ ../ThirdParty/STM32F4xx_HAL_Driver/Src/stm32f4xx_hal_tim.c:1838:7
	ldr	r0, [sp, #16]
	ldr	r1, [r0, #36]
	.loc	7 1838 52 is_stmt 0             @ ../ThirdParty/STM32F4xx_HAL_Driver/Src/stm32f4xx_hal_tim.c:1838:52
	movw	r0, :lower16:TIM_DMACaptureCplt
	movt	r0, :upper16:TIM_DMACaptureCplt
	str	r0, [r1, #60]
	.loc	7 1841 7 is_stmt 1              @ ../ThirdParty/STM32F4xx_HAL_Driver/Src/stm32f4xx_hal_tim.c:1841:7
	ldr	r0, [sp, #16]
	ldr	r1, [r0, #36]
	.loc	7 1841 53 is_stmt 0             @ ../ThirdParty/STM32F4xx_HAL_Driver/Src/stm32f4xx_hal_tim.c:1841:53
	movw	r0, :lower16:TIM_DMAError
	movt	r0, :upper16:TIM_DMAError
	str	r0, [r1, #76]
	.loc	7 1844 24 is_stmt 1             @ ../ThirdParty/STM32F4xx_HAL_Driver/Src/stm32f4xx_hal_tim.c:1844:24
	ldr	r0, [sp, #16]
	.loc	7 1844 69 is_stmt 0             @ ../ThirdParty/STM32F4xx_HAL_Driver/Src/stm32f4xx_hal_tim.c:1844:69
	ldr	r1, [r0]
	.loc	7 1844 24                       @ ../ThirdParty/STM32F4xx_HAL_Driver/Src/stm32f4xx_hal_tim.c:1844:24
	ldr	r0, [r0, #36]
	.loc	7 1844 79                       @ ../ThirdParty/STM32F4xx_HAL_Driver/Src/stm32f4xx_hal_tim.c:1844:79
	adds	r1, #56
	.loc	7 1844 95                       @ ../ThirdParty/STM32F4xx_HAL_Driver/Src/stm32f4xx_hal_tim.c:1844:95
	ldr	r2, [sp, #8]
	.loc	7 1844 102                      @ ../ThirdParty/STM32F4xx_HAL_Driver/Src/stm32f4xx_hal_tim.c:1844:102
	ldrh.w	r3, [sp, #6]
	.loc	7 1844 7                        @ ../ThirdParty/STM32F4xx_HAL_Driver/Src/stm32f4xx_hal_tim.c:1844:7
	bl	HAL_DMA_Start_IT
	.loc	7 1847 7 is_stmt 1              @ ../ThirdParty/STM32F4xx_HAL_Driver/Src/stm32f4xx_hal_tim.c:1847:7
	ldr	r0, [sp, #16]
	ldr	r1, [r0]
	ldr	r0, [r1, #12]
	orr	r0, r0, #1024
	str	r0, [r1, #12]
.Ltmp492:
	.loc	7 1849 5                        @ ../ThirdParty/STM32F4xx_HAL_Driver/Src/stm32f4xx_hal_tim.c:1849:5
	b	.LBB43_17
.LBB43_14:
.Ltmp493:
	.loc	7 1854 7                        @ ../ThirdParty/STM32F4xx_HAL_Driver/Src/stm32f4xx_hal_tim.c:1854:7
	ldr	r0, [sp, #16]
	ldr	r1, [r0, #40]
	.loc	7 1854 52 is_stmt 0             @ ../ThirdParty/STM32F4xx_HAL_Driver/Src/stm32f4xx_hal_tim.c:1854:52
	movw	r0, :lower16:TIM_DMACaptureCplt
	movt	r0, :upper16:TIM_DMACaptureCplt
	str	r0, [r1, #60]
	.loc	7 1857 7 is_stmt 1              @ ../ThirdParty/STM32F4xx_HAL_Driver/Src/stm32f4xx_hal_tim.c:1857:7
	ldr	r0, [sp, #16]
	ldr	r1, [r0, #40]
	.loc	7 1857 53 is_stmt 0             @ ../ThirdParty/STM32F4xx_HAL_Driver/Src/stm32f4xx_hal_tim.c:1857:53
	movw	r0, :lower16:TIM_DMAError
	movt	r0, :upper16:TIM_DMAError
	str	r0, [r1, #76]
	.loc	7 1860 24 is_stmt 1             @ ../ThirdParty/STM32F4xx_HAL_Driver/Src/stm32f4xx_hal_tim.c:1860:24
	ldr	r0, [sp, #16]
	.loc	7 1860 69 is_stmt 0             @ ../ThirdParty/STM32F4xx_HAL_Driver/Src/stm32f4xx_hal_tim.c:1860:69
	ldr	r1, [r0]
	.loc	7 1860 24                       @ ../ThirdParty/STM32F4xx_HAL_Driver/Src/stm32f4xx_hal_tim.c:1860:24
	ldr	r0, [r0, #40]
	.loc	7 1860 79                       @ ../ThirdParty/STM32F4xx_HAL_Driver/Src/stm32f4xx_hal_tim.c:1860:79
	adds	r1, #60
	.loc	7 1860 95                       @ ../ThirdParty/STM32F4xx_HAL_Driver/Src/stm32f4xx_hal_tim.c:1860:95
	ldr	r2, [sp, #8]
	.loc	7 1860 102                      @ ../ThirdParty/STM32F4xx_HAL_Driver/Src/stm32f4xx_hal_tim.c:1860:102
	ldrh.w	r3, [sp, #6]
	.loc	7 1860 7                        @ ../ThirdParty/STM32F4xx_HAL_Driver/Src/stm32f4xx_hal_tim.c:1860:7
	bl	HAL_DMA_Start_IT
	.loc	7 1863 7 is_stmt 1              @ ../ThirdParty/STM32F4xx_HAL_Driver/Src/stm32f4xx_hal_tim.c:1863:7
	ldr	r0, [sp, #16]
	ldr	r1, [r0]
	ldr	r0, [r1, #12]
	orr	r0, r0, #2048
	str	r0, [r1, #12]
.Ltmp494:
	.loc	7 1865 5                        @ ../ThirdParty/STM32F4xx_HAL_Driver/Src/stm32f4xx_hal_tim.c:1865:5
	b	.LBB43_17
.LBB43_15:
.Ltmp495:
	.loc	7 1870 7                        @ ../ThirdParty/STM32F4xx_HAL_Driver/Src/stm32f4xx_hal_tim.c:1870:7
	ldr	r0, [sp, #16]
	ldr	r1, [r0, #44]
	.loc	7 1870 52 is_stmt 0             @ ../ThirdParty/STM32F4xx_HAL_Driver/Src/stm32f4xx_hal_tim.c:1870:52
	movw	r0, :lower16:TIM_DMACaptureCplt
	movt	r0, :upper16:TIM_DMACaptureCplt
	str	r0, [r1, #60]
	.loc	7 1873 7 is_stmt 1              @ ../ThirdParty/STM32F4xx_HAL_Driver/Src/stm32f4xx_hal_tim.c:1873:7
	ldr	r0, [sp, #16]
	ldr	r1, [r0, #44]
	.loc	7 1873 53 is_stmt 0             @ ../ThirdParty/STM32F4xx_HAL_Driver/Src/stm32f4xx_hal_tim.c:1873:53
	movw	r0, :lower16:TIM_DMAError
	movt	r0, :upper16:TIM_DMAError
	str	r0, [r1, #76]
	.loc	7 1876 24 is_stmt 1             @ ../ThirdParty/STM32F4xx_HAL_Driver/Src/stm32f4xx_hal_tim.c:1876:24
	ldr	r0, [sp, #16]
	.loc	7 1876 69 is_stmt 0             @ ../ThirdParty/STM32F4xx_HAL_Driver/Src/stm32f4xx_hal_tim.c:1876:69
	ldr	r1, [r0]
	.loc	7 1876 24                       @ ../ThirdParty/STM32F4xx_HAL_Driver/Src/stm32f4xx_hal_tim.c:1876:24
	ldr	r0, [r0, #44]
	.loc	7 1876 79                       @ ../ThirdParty/STM32F4xx_HAL_Driver/Src/stm32f4xx_hal_tim.c:1876:79
	adds	r1, #64
	.loc	7 1876 95                       @ ../ThirdParty/STM32F4xx_HAL_Driver/Src/stm32f4xx_hal_tim.c:1876:95
	ldr	r2, [sp, #8]
	.loc	7 1876 102                      @ ../ThirdParty/STM32F4xx_HAL_Driver/Src/stm32f4xx_hal_tim.c:1876:102
	ldrh.w	r3, [sp, #6]
	.loc	7 1876 7                        @ ../ThirdParty/STM32F4xx_HAL_Driver/Src/stm32f4xx_hal_tim.c:1876:7
	bl	HAL_DMA_Start_IT
	.loc	7 1879 7 is_stmt 1              @ ../ThirdParty/STM32F4xx_HAL_Driver/Src/stm32f4xx_hal_tim.c:1879:7
	ldr	r0, [sp, #16]
	ldr	r1, [r0]
	ldr	r0, [r1, #12]
	orr	r0, r0, #4096
	str	r0, [r1, #12]
.Ltmp496:
	.loc	7 1881 5                        @ ../ThirdParty/STM32F4xx_HAL_Driver/Src/stm32f4xx_hal_tim.c:1881:5
	b	.LBB43_17
.LBB43_16:
	.loc	7 1884 5                        @ ../ThirdParty/STM32F4xx_HAL_Driver/Src/stm32f4xx_hal_tim.c:1884:5
	b	.LBB43_17
.Ltmp497:
.LBB43_17:
	.loc	7 1888 21                       @ ../ThirdParty/STM32F4xx_HAL_Driver/Src/stm32f4xx_hal_tim.c:1888:21
	ldr	r0, [sp, #16]
	.loc	7 1888 27 is_stmt 0             @ ../ThirdParty/STM32F4xx_HAL_Driver/Src/stm32f4xx_hal_tim.c:1888:27
	ldr	r0, [r0]
	.loc	7 1888 37                       @ ../ThirdParty/STM32F4xx_HAL_Driver/Src/stm32f4xx_hal_tim.c:1888:37
	ldr	r1, [sp, #12]
	movs	r2, #1
	.loc	7 1888 3                        @ ../ThirdParty/STM32F4xx_HAL_Driver/Src/stm32f4xx_hal_tim.c:1888:3
	bl	TIM_CCxChannelCmd
	.loc	7 1891 3 is_stmt 1              @ ../ThirdParty/STM32F4xx_HAL_Driver/Src/stm32f4xx_hal_tim.c:1891:3
	ldr	r0, [sp, #16]
	ldr	r1, [r0]
	ldr	r0, [r1]
	orr	r0, r0, #1
	str	r0, [r1]
	movs	r0, #0
	.loc	7 1894 3                        @ ../ThirdParty/STM32F4xx_HAL_Driver/Src/stm32f4xx_hal_tim.c:1894:3
	strb.w	r0, [sp, #23]
	b	.LBB43_18
.LBB43_18:
	.loc	7 1895 1                        @ ../ThirdParty/STM32F4xx_HAL_Driver/Src/stm32f4xx_hal_tim.c:1895:1
	ldrb.w	r0, [sp, #23]
	.loc	7 1895 1 epilogue_begin is_stmt 0 @ ../ThirdParty/STM32F4xx_HAL_Driver/Src/stm32f4xx_hal_tim.c:1895:1
	add	sp, #24
	pop	{r7, pc}
.Ltmp498:
.Lfunc_end43:
	.size	HAL_TIM_IC_Start_DMA, .Lfunc_end43-HAL_TIM_IC_Start_DMA
	.cfi_endproc
	.cantunwind
	.fnend
                                        @ -- End function
	.section	.text.TIM_DMACaptureCplt,"ax",%progbits
	.hidden	TIM_DMACaptureCplt              @ -- Begin function TIM_DMACaptureCplt
	.globl	TIM_DMACaptureCplt
	.p2align	2
	.type	TIM_DMACaptureCplt,%function
	.code	16                              @ @TIM_DMACaptureCplt
	.thumb_func
TIM_DMACaptureCplt:
.Lfunc_begin44:
	.loc	7 4699 0 is_stmt 1              @ ../ThirdParty/STM32F4xx_HAL_Driver/Src/stm32f4xx_hal_tim.c:4699:0
	.fnstart
	.cfi_startproc
@ %bb.0:
	.save	{r7, lr}
	push	{r7, lr}
	.cfi_def_cfa_offset 8
	.cfi_offset lr, -4
	.cfi_offset r7, -8
	.pad	#8
	sub	sp, #8
	.cfi_def_cfa_offset 16
	str	r0, [sp, #4]
.Ltmp499:
	.loc	7 4700 73 prologue_end          @ ../ThirdParty/STM32F4xx_HAL_Driver/Src/stm32f4xx_hal_tim.c:4700:73
	ldr	r0, [sp, #4]
	.loc	7 4700 80 is_stmt 0             @ ../ThirdParty/STM32F4xx_HAL_Driver/Src/stm32f4xx_hal_tim.c:4700:80
	ldr	r0, [r0, #56]
	.loc	7 4700 22                       @ ../ThirdParty/STM32F4xx_HAL_Driver/Src/stm32f4xx_hal_tim.c:4700:22
	str	r0, [sp]
	.loc	7 4702 3 is_stmt 1              @ ../ThirdParty/STM32F4xx_HAL_Driver/Src/stm32f4xx_hal_tim.c:4702:3
	ldr	r1, [sp]
	movs	r0, #1
	.loc	7 4702 14 is_stmt 0             @ ../ThirdParty/STM32F4xx_HAL_Driver/Src/stm32f4xx_hal_tim.c:4702:14
	strb.w	r0, [r1, #57]
.Ltmp500:
	.loc	7 4704 6 is_stmt 1              @ ../ThirdParty/STM32F4xx_HAL_Driver/Src/stm32f4xx_hal_tim.c:4704:6
	ldr	r0, [sp, #4]
	.loc	7 4704 14 is_stmt 0             @ ../ThirdParty/STM32F4xx_HAL_Driver/Src/stm32f4xx_hal_tim.c:4704:14
	ldr	r1, [sp]
	ldr	r1, [r1, #32]
.Ltmp501:
	.loc	7 4704 6                        @ ../ThirdParty/STM32F4xx_HAL_Driver/Src/stm32f4xx_hal_tim.c:4704:6
	cmp	r0, r1
	bne	.LBB44_2
	b	.LBB44_1
.LBB44_1:
.Ltmp502:
	.loc	7 4706 5 is_stmt 1              @ ../ThirdParty/STM32F4xx_HAL_Driver/Src/stm32f4xx_hal_tim.c:4706:5
	ldr	r1, [sp]
	movs	r0, #1
	.loc	7 4706 19 is_stmt 0             @ ../ThirdParty/STM32F4xx_HAL_Driver/Src/stm32f4xx_hal_tim.c:4706:19
	strb	r0, [r1, #24]
	.loc	7 4707 3 is_stmt 1              @ ../ThirdParty/STM32F4xx_HAL_Driver/Src/stm32f4xx_hal_tim.c:4707:3
	b	.LBB44_11
.Ltmp503:
.LBB44_2:
	.loc	7 4708 11                       @ ../ThirdParty/STM32F4xx_HAL_Driver/Src/stm32f4xx_hal_tim.c:4708:11
	ldr	r0, [sp, #4]
	.loc	7 4708 19 is_stmt 0             @ ../ThirdParty/STM32F4xx_HAL_Driver/Src/stm32f4xx_hal_tim.c:4708:19
	ldr	r1, [sp]
	ldr	r1, [r1, #36]
.Ltmp504:
	.loc	7 4708 11                       @ ../ThirdParty/STM32F4xx_HAL_Driver/Src/stm32f4xx_hal_tim.c:4708:11
	cmp	r0, r1
	bne	.LBB44_4
	b	.LBB44_3
.LBB44_3:
.Ltmp505:
	.loc	7 4710 5 is_stmt 1              @ ../ThirdParty/STM32F4xx_HAL_Driver/Src/stm32f4xx_hal_tim.c:4710:5
	ldr	r1, [sp]
	movs	r0, #2
	.loc	7 4710 19 is_stmt 0             @ ../ThirdParty/STM32F4xx_HAL_Driver/Src/stm32f4xx_hal_tim.c:4710:19
	strb	r0, [r1, #24]
	.loc	7 4711 3 is_stmt 1              @ ../ThirdParty/STM32F4xx_HAL_Driver/Src/stm32f4xx_hal_tim.c:4711:3
	b	.LBB44_10
.Ltmp506:
.LBB44_4:
	.loc	7 4712 11                       @ ../ThirdParty/STM32F4xx_HAL_Driver/Src/stm32f4xx_hal_tim.c:4712:11
	ldr	r0, [sp, #4]
	.loc	7 4712 19 is_stmt 0             @ ../ThirdParty/STM32F4xx_HAL_Driver/Src/stm32f4xx_hal_tim.c:4712:19
	ldr	r1, [sp]
	ldr	r1, [r1, #40]
.Ltmp507:
	.loc	7 4712 11                       @ ../ThirdParty/STM32F4xx_HAL_Driver/Src/stm32f4xx_hal_tim.c:4712:11
	cmp	r0, r1
	bne	.LBB44_6
	b	.LBB44_5
.LBB44_5:
.Ltmp508:
	.loc	7 4714 5 is_stmt 1              @ ../ThirdParty/STM32F4xx_HAL_Driver/Src/stm32f4xx_hal_tim.c:4714:5
	ldr	r1, [sp]
	movs	r0, #4
	.loc	7 4714 19 is_stmt 0             @ ../ThirdParty/STM32F4xx_HAL_Driver/Src/stm32f4xx_hal_tim.c:4714:19
	strb	r0, [r1, #24]
	.loc	7 4715 3 is_stmt 1              @ ../ThirdParty/STM32F4xx_HAL_Driver/Src/stm32f4xx_hal_tim.c:4715:3
	b	.LBB44_9
.Ltmp509:
.LBB44_6:
	.loc	7 4716 11                       @ ../ThirdParty/STM32F4xx_HAL_Driver/Src/stm32f4xx_hal_tim.c:4716:11
	ldr	r0, [sp, #4]
	.loc	7 4716 19 is_stmt 0             @ ../ThirdParty/STM32F4xx_HAL_Driver/Src/stm32f4xx_hal_tim.c:4716:19
	ldr	r1, [sp]
	ldr	r1, [r1, #44]
.Ltmp510:
	.loc	7 4716 11                       @ ../ThirdParty/STM32F4xx_HAL_Driver/Src/stm32f4xx_hal_tim.c:4716:11
	cmp	r0, r1
	bne	.LBB44_8
	b	.LBB44_7
.LBB44_7:
.Ltmp511:
	.loc	7 4718 5 is_stmt 1              @ ../ThirdParty/STM32F4xx_HAL_Driver/Src/stm32f4xx_hal_tim.c:4718:5
	ldr	r1, [sp]
	movs	r0, #8
	.loc	7 4718 19 is_stmt 0             @ ../ThirdParty/STM32F4xx_HAL_Driver/Src/stm32f4xx_hal_tim.c:4718:19
	strb	r0, [r1, #24]
	.loc	7 4719 3 is_stmt 1              @ ../ThirdParty/STM32F4xx_HAL_Driver/Src/stm32f4xx_hal_tim.c:4719:3
	b	.LBB44_8
.Ltmp512:
.LBB44_8:
	.loc	7 0 3 is_stmt 0                 @ ../ThirdParty/STM32F4xx_HAL_Driver/Src/stm32f4xx_hal_tim.c:0:3
	b	.LBB44_9
.LBB44_9:
	b	.LBB44_10
.LBB44_10:
	b	.LBB44_11
.LBB44_11:
	.loc	7 4721 30 is_stmt 1             @ ../ThirdParty/STM32F4xx_HAL_Driver/Src/stm32f4xx_hal_tim.c:4721:30
	ldr	r0, [sp]
	.loc	7 4721 3 is_stmt 0              @ ../ThirdParty/STM32F4xx_HAL_Driver/Src/stm32f4xx_hal_tim.c:4721:3
	bl	HAL_TIM_IC_CaptureCallback
	.loc	7 4723 3 is_stmt 1              @ ../ThirdParty/STM32F4xx_HAL_Driver/Src/stm32f4xx_hal_tim.c:4723:3
	ldr	r1, [sp]
	movs	r0, #0
	.loc	7 4723 17 is_stmt 0             @ ../ThirdParty/STM32F4xx_HAL_Driver/Src/stm32f4xx_hal_tim.c:4723:17
	strb	r0, [r1, #24]
	.loc	7 4724 1 epilogue_begin is_stmt 1 @ ../ThirdParty/STM32F4xx_HAL_Driver/Src/stm32f4xx_hal_tim.c:4724:1
	add	sp, #8
	pop	{r7, pc}
.Ltmp513:
.Lfunc_end44:
	.size	TIM_DMACaptureCplt, .Lfunc_end44-TIM_DMACaptureCplt
	.cfi_endproc
	.cantunwind
	.fnend
                                        @ -- End function
	.section	.text.HAL_TIM_IC_Stop_DMA,"ax",%progbits
	.hidden	HAL_TIM_IC_Stop_DMA             @ -- Begin function HAL_TIM_IC_Stop_DMA
	.globl	HAL_TIM_IC_Stop_DMA
	.p2align	2
	.type	HAL_TIM_IC_Stop_DMA,%function
	.code	16                              @ @HAL_TIM_IC_Stop_DMA
	.thumb_func
HAL_TIM_IC_Stop_DMA:
.Lfunc_begin45:
	.loc	7 1910 0                        @ ../ThirdParty/STM32F4xx_HAL_Driver/Src/stm32f4xx_hal_tim.c:1910:0
	.fnstart
	.cfi_startproc
@ %bb.0:
	.save	{r7, lr}
	push	{r7, lr}
	.cfi_def_cfa_offset 8
	.cfi_offset lr, -4
	.cfi_offset r7, -8
	.pad	#16
	sub	sp, #16
	.cfi_def_cfa_offset 24
	str	r0, [sp, #12]
	str	r1, [sp, #8]
.Ltmp514:
	.loc	7 1915 11 prologue_end          @ ../ThirdParty/STM32F4xx_HAL_Driver/Src/stm32f4xx_hal_tim.c:1915:11
	ldr	r0, [sp, #8]
	.loc	7 1915 3 is_stmt 0              @ ../ThirdParty/STM32F4xx_HAL_Driver/Src/stm32f4xx_hal_tim.c:1915:3
	str	r0, [sp, #4]                    @ 4-byte Spill
	cmp	r0, #12
	bhi	.LBB45_7
@ %bb.1:
	.loc	7 0 3                           @ ../ThirdParty/STM32F4xx_HAL_Driver/Src/stm32f4xx_hal_tim.c:0:3
	ldr	r1, [sp, #4]                    @ 4-byte Reload
.LCPI45_0:
	tbb	[pc, r1]
@ %bb.2:
.LJTI45_0:
	.byte	(.LBB45_3-(.LCPI45_0+4))/2
	.byte	(.LBB45_7-(.LCPI45_0+4))/2
	.byte	(.LBB45_7-(.LCPI45_0+4))/2
	.byte	(.LBB45_7-(.LCPI45_0+4))/2
	.byte	(.LBB45_4-(.LCPI45_0+4))/2
	.byte	(.LBB45_7-(.LCPI45_0+4))/2
	.byte	(.LBB45_7-(.LCPI45_0+4))/2
	.byte	(.LBB45_7-(.LCPI45_0+4))/2
	.byte	(.LBB45_5-(.LCPI45_0+4))/2
	.byte	(.LBB45_7-(.LCPI45_0+4))/2
	.byte	(.LBB45_7-(.LCPI45_0+4))/2
	.byte	(.LBB45_7-(.LCPI45_0+4))/2
	.byte	(.LBB45_6-(.LCPI45_0+4))/2
	.p2align	1
.LBB45_3:
.Ltmp515:
	.loc	7 1920 7 is_stmt 1              @ ../ThirdParty/STM32F4xx_HAL_Driver/Src/stm32f4xx_hal_tim.c:1920:7
	ldr	r0, [sp, #12]
	ldr	r1, [r0]
	ldr	r0, [r1, #12]
	bic	r0, r0, #512
	str	r0, [r1, #12]
.Ltmp516:
	.loc	7 1922 5                        @ ../ThirdParty/STM32F4xx_HAL_Driver/Src/stm32f4xx_hal_tim.c:1922:5
	b	.LBB45_8
.LBB45_4:
.Ltmp517:
	.loc	7 1927 7                        @ ../ThirdParty/STM32F4xx_HAL_Driver/Src/stm32f4xx_hal_tim.c:1927:7
	ldr	r0, [sp, #12]
	ldr	r1, [r0]
	ldr	r0, [r1, #12]
	bic	r0, r0, #1024
	str	r0, [r1, #12]
.Ltmp518:
	.loc	7 1929 5                        @ ../ThirdParty/STM32F4xx_HAL_Driver/Src/stm32f4xx_hal_tim.c:1929:5
	b	.LBB45_8
.LBB45_5:
.Ltmp519:
	.loc	7 1934 7                        @ ../ThirdParty/STM32F4xx_HAL_Driver/Src/stm32f4xx_hal_tim.c:1934:7
	ldr	r0, [sp, #12]
	ldr	r1, [r0]
	ldr	r0, [r1, #12]
	bic	r0, r0, #2048
	str	r0, [r1, #12]
.Ltmp520:
	.loc	7 1936 5                        @ ../ThirdParty/STM32F4xx_HAL_Driver/Src/stm32f4xx_hal_tim.c:1936:5
	b	.LBB45_8
.LBB45_6:
.Ltmp521:
	.loc	7 1941 7                        @ ../ThirdParty/STM32F4xx_HAL_Driver/Src/stm32f4xx_hal_tim.c:1941:7
	ldr	r0, [sp, #12]
	ldr	r1, [r0]
	ldr	r0, [r1, #12]
	bic	r0, r0, #4096
	str	r0, [r1, #12]
.Ltmp522:
	.loc	7 1943 5                        @ ../ThirdParty/STM32F4xx_HAL_Driver/Src/stm32f4xx_hal_tim.c:1943:5
	b	.LBB45_8
.LBB45_7:
	.loc	7 1946 5                        @ ../ThirdParty/STM32F4xx_HAL_Driver/Src/stm32f4xx_hal_tim.c:1946:5
	b	.LBB45_8
.Ltmp523:
.LBB45_8:
	.loc	7 1950 21                       @ ../ThirdParty/STM32F4xx_HAL_Driver/Src/stm32f4xx_hal_tim.c:1950:21
	ldr	r0, [sp, #12]
	.loc	7 1950 27 is_stmt 0             @ ../ThirdParty/STM32F4xx_HAL_Driver/Src/stm32f4xx_hal_tim.c:1950:27
	ldr	r0, [r0]
	.loc	7 1950 37                       @ ../ThirdParty/STM32F4xx_HAL_Driver/Src/stm32f4xx_hal_tim.c:1950:37
	ldr	r1, [sp, #8]
	movs	r2, #0
	.loc	7 1950 3                        @ ../ThirdParty/STM32F4xx_HAL_Driver/Src/stm32f4xx_hal_tim.c:1950:3
	bl	TIM_CCxChannelCmd
	.loc	7 1953 3 is_stmt 1              @ ../ThirdParty/STM32F4xx_HAL_Driver/Src/stm32f4xx_hal_tim.c:1953:3
	b	.LBB45_9
.LBB45_9:
.Ltmp524:
	.loc	7 1953 3 is_stmt 0              @ ../ThirdParty/STM32F4xx_HAL_Driver/Src/stm32f4xx_hal_tim.c:1953:3
	ldr	r0, [sp, #12]
	ldr	r0, [r0]
	ldr	r0, [r0, #32]
	movw	r1, #4369
.Ltmp525:
	.loc	7 1953 3                        @ ../ThirdParty/STM32F4xx_HAL_Driver/Src/stm32f4xx_hal_tim.c:1953:3
	tst	r0, r1
	bne	.LBB45_13
	b	.LBB45_10
.LBB45_10:
.Ltmp526:
	.loc	7 1953 3                        @ ../ThirdParty/STM32F4xx_HAL_Driver/Src/stm32f4xx_hal_tim.c:1953:3
	ldr	r0, [sp, #12]
	ldr	r0, [r0]
	ldr	r0, [r0, #32]
	movw	r1, #1092
.Ltmp527:
	.loc	7 1953 3                        @ ../ThirdParty/STM32F4xx_HAL_Driver/Src/stm32f4xx_hal_tim.c:1953:3
	tst	r0, r1
	bne	.LBB45_12
	b	.LBB45_11
.LBB45_11:
.Ltmp528:
	.loc	7 1953 3                        @ ../ThirdParty/STM32F4xx_HAL_Driver/Src/stm32f4xx_hal_tim.c:1953:3
	ldr	r0, [sp, #12]
	ldr	r1, [r0]
	ldr	r0, [r1]
	bic	r0, r0, #1
	str	r0, [r1]
	b	.LBB45_12
.Ltmp529:
.LBB45_12:
	.loc	7 1953 3                        @ ../ThirdParty/STM32F4xx_HAL_Driver/Src/stm32f4xx_hal_tim.c:1953:3
	b	.LBB45_13
.Ltmp530:
.LBB45_13:
	.loc	7 1953 3                        @ ../ThirdParty/STM32F4xx_HAL_Driver/Src/stm32f4xx_hal_tim.c:1953:3
	b	.LBB45_14
.Ltmp531:
.LBB45_14:
	.loc	7 1956 3 is_stmt 1              @ ../ThirdParty/STM32F4xx_HAL_Driver/Src/stm32f4xx_hal_tim.c:1956:3
	ldr	r1, [sp, #12]
	movs	r0, #1
	.loc	7 1956 15 is_stmt 0             @ ../ThirdParty/STM32F4xx_HAL_Driver/Src/stm32f4xx_hal_tim.c:1956:15
	strb.w	r0, [r1, #57]
	movs	r0, #0
	.loc	7 1959 3 epilogue_begin is_stmt 1 @ ../ThirdParty/STM32F4xx_HAL_Driver/Src/stm32f4xx_hal_tim.c:1959:3
	add	sp, #16
	pop	{r7, pc}
.Ltmp532:
.Lfunc_end45:
	.size	HAL_TIM_IC_Stop_DMA, .Lfunc_end45-HAL_TIM_IC_Stop_DMA
	.cfi_endproc
	.cantunwind
	.fnend
                                        @ -- End function
	.section	.text.HAL_TIM_OnePulse_Init,"ax",%progbits
	.hidden	HAL_TIM_OnePulse_Init           @ -- Begin function HAL_TIM_OnePulse_Init
	.globl	HAL_TIM_OnePulse_Init
	.p2align	2
	.type	HAL_TIM_OnePulse_Init,%function
	.code	16                              @ @HAL_TIM_OnePulse_Init
	.thumb_func
HAL_TIM_OnePulse_Init:
.Lfunc_begin46:
	.loc	7 1998 0                        @ ../ThirdParty/STM32F4xx_HAL_Driver/Src/stm32f4xx_hal_tim.c:1998:0
	.fnstart
	.cfi_startproc
@ %bb.0:
	.save	{r7, lr}
	push	{r7, lr}
	.cfi_def_cfa_offset 8
	.cfi_offset lr, -4
	.cfi_offset r7, -8
	.pad	#16
	sub	sp, #16
	.cfi_def_cfa_offset 24
	str	r0, [sp, #8]
	str	r1, [sp, #4]
.Ltmp533:
	.loc	7 2000 6 prologue_end           @ ../ThirdParty/STM32F4xx_HAL_Driver/Src/stm32f4xx_hal_tim.c:2000:6
	ldr	r0, [sp, #8]
.Ltmp534:
	.loc	7 2000 6 is_stmt 0              @ ../ThirdParty/STM32F4xx_HAL_Driver/Src/stm32f4xx_hal_tim.c:2000:6
	cbnz	r0, .LBB46_2
	b	.LBB46_1
.LBB46_1:
	.loc	7 0 6                           @ ../ThirdParty/STM32F4xx_HAL_Driver/Src/stm32f4xx_hal_tim.c:0:6
	movs	r0, #1
.Ltmp535:
	.loc	7 2002 5 is_stmt 1              @ ../ThirdParty/STM32F4xx_HAL_Driver/Src/stm32f4xx_hal_tim.c:2002:5
	strb.w	r0, [sp, #15]
	b	.LBB46_5
.Ltmp536:
.LBB46_2:
	.loc	7 2011 6                        @ ../ThirdParty/STM32F4xx_HAL_Driver/Src/stm32f4xx_hal_tim.c:2011:6
	ldr	r0, [sp, #8]
	.loc	7 2011 12 is_stmt 0             @ ../ThirdParty/STM32F4xx_HAL_Driver/Src/stm32f4xx_hal_tim.c:2011:12
	ldrb.w	r0, [r0, #57]
.Ltmp537:
	.loc	7 2011 6                        @ ../ThirdParty/STM32F4xx_HAL_Driver/Src/stm32f4xx_hal_tim.c:2011:6
	cbnz	r0, .LBB46_4
	b	.LBB46_3
.LBB46_3:
.Ltmp538:
	.loc	7 2014 5 is_stmt 1              @ ../ThirdParty/STM32F4xx_HAL_Driver/Src/stm32f4xx_hal_tim.c:2014:5
	ldr	r1, [sp, #8]
	movs	r0, #0
	.loc	7 2014 16 is_stmt 0             @ ../ThirdParty/STM32F4xx_HAL_Driver/Src/stm32f4xx_hal_tim.c:2014:16
	strb.w	r0, [r1, #56]
	.loc	7 2016 30 is_stmt 1             @ ../ThirdParty/STM32F4xx_HAL_Driver/Src/stm32f4xx_hal_tim.c:2016:30
	ldr	r0, [sp, #8]
	.loc	7 2016 5 is_stmt 0              @ ../ThirdParty/STM32F4xx_HAL_Driver/Src/stm32f4xx_hal_tim.c:2016:5
	bl	HAL_TIM_OnePulse_MspInit
	.loc	7 2017 3 is_stmt 1              @ ../ThirdParty/STM32F4xx_HAL_Driver/Src/stm32f4xx_hal_tim.c:2017:3
	b	.LBB46_4
.Ltmp539:
.LBB46_4:
	.loc	7 2020 3                        @ ../ThirdParty/STM32F4xx_HAL_Driver/Src/stm32f4xx_hal_tim.c:2020:3
	ldr	r1, [sp, #8]
	movs	r0, #2
	.loc	7 2020 14 is_stmt 0             @ ../ThirdParty/STM32F4xx_HAL_Driver/Src/stm32f4xx_hal_tim.c:2020:14
	strb.w	r0, [r1, #57]
	.loc	7 2023 22 is_stmt 1             @ ../ThirdParty/STM32F4xx_HAL_Driver/Src/stm32f4xx_hal_tim.c:2023:22
	ldr	r1, [sp, #8]
	.loc	7 2023 28 is_stmt 0             @ ../ThirdParty/STM32F4xx_HAL_Driver/Src/stm32f4xx_hal_tim.c:2023:28
	ldr	r0, [r1], #4
	.loc	7 2023 3                        @ ../ThirdParty/STM32F4xx_HAL_Driver/Src/stm32f4xx_hal_tim.c:2023:3
	bl	TIM_Base_SetConfig
	.loc	7 2026 3 is_stmt 1              @ ../ThirdParty/STM32F4xx_HAL_Driver/Src/stm32f4xx_hal_tim.c:2026:3
	ldr	r0, [sp, #8]
	.loc	7 2026 9 is_stmt 0              @ ../ThirdParty/STM32F4xx_HAL_Driver/Src/stm32f4xx_hal_tim.c:2026:9
	ldr	r1, [r0]
	.loc	7 2026 23                       @ ../ThirdParty/STM32F4xx_HAL_Driver/Src/stm32f4xx_hal_tim.c:2026:23
	ldr	r0, [r1]
	bic	r0, r0, #8
	str	r0, [r1]
	.loc	7 2029 26 is_stmt 1             @ ../ThirdParty/STM32F4xx_HAL_Driver/Src/stm32f4xx_hal_tim.c:2029:26
	ldr	r2, [sp, #4]
	.loc	7 2029 3 is_stmt 0              @ ../ThirdParty/STM32F4xx_HAL_Driver/Src/stm32f4xx_hal_tim.c:2029:3
	ldr	r0, [sp, #8]
	.loc	7 2029 9                        @ ../ThirdParty/STM32F4xx_HAL_Driver/Src/stm32f4xx_hal_tim.c:2029:9
	ldr	r1, [r0]
	.loc	7 2029 23                       @ ../ThirdParty/STM32F4xx_HAL_Driver/Src/stm32f4xx_hal_tim.c:2029:23
	ldr	r0, [r1]
	orrs	r0, r2
	str	r0, [r1]
	.loc	7 2032 3 is_stmt 1              @ ../ThirdParty/STM32F4xx_HAL_Driver/Src/stm32f4xx_hal_tim.c:2032:3
	ldr	r1, [sp, #8]
	movs	r0, #1
	.loc	7 2032 14 is_stmt 0             @ ../ThirdParty/STM32F4xx_HAL_Driver/Src/stm32f4xx_hal_tim.c:2032:14
	strb.w	r0, [r1, #57]
	movs	r0, #0
	.loc	7 2034 3 is_stmt 1              @ ../ThirdParty/STM32F4xx_HAL_Driver/Src/stm32f4xx_hal_tim.c:2034:3
	strb.w	r0, [sp, #15]
	b	.LBB46_5
.LBB46_5:
	.loc	7 2035 1                        @ ../ThirdParty/STM32F4xx_HAL_Driver/Src/stm32f4xx_hal_tim.c:2035:1
	ldrb.w	r0, [sp, #15]
	.loc	7 2035 1 epilogue_begin is_stmt 0 @ ../ThirdParty/STM32F4xx_HAL_Driver/Src/stm32f4xx_hal_tim.c:2035:1
	add	sp, #16
	pop	{r7, pc}
.Ltmp540:
.Lfunc_end46:
	.size	HAL_TIM_OnePulse_Init, .Lfunc_end46-HAL_TIM_OnePulse_Init
	.cfi_endproc
	.cantunwind
	.fnend
                                        @ -- End function
	.section	.text.HAL_TIM_OnePulse_MspInit,"ax",%progbits
	.hidden	HAL_TIM_OnePulse_MspInit        @ -- Begin function HAL_TIM_OnePulse_MspInit
	.weak	HAL_TIM_OnePulse_MspInit
	.p2align	2
	.type	HAL_TIM_OnePulse_MspInit,%function
	.code	16                              @ @HAL_TIM_OnePulse_MspInit
	.thumb_func
HAL_TIM_OnePulse_MspInit:
.Lfunc_begin47:
	.loc	7 2072 0 is_stmt 1              @ ../ThirdParty/STM32F4xx_HAL_Driver/Src/stm32f4xx_hal_tim.c:2072:0
	.fnstart
	.cfi_startproc
@ %bb.0:
	.pad	#4
	sub	sp, #4
	.cfi_def_cfa_offset 4
	str	r0, [sp]
.Ltmp541:
	.loc	7 2078 1 prologue_end epilogue_begin @ ../ThirdParty/STM32F4xx_HAL_Driver/Src/stm32f4xx_hal_tim.c:2078:1
	add	sp, #4
	bx	lr
.Ltmp542:
.Lfunc_end47:
	.size	HAL_TIM_OnePulse_MspInit, .Lfunc_end47-HAL_TIM_OnePulse_MspInit
	.cfi_endproc
	.cantunwind
	.fnend
                                        @ -- End function
	.section	.text.HAL_TIM_OnePulse_DeInit,"ax",%progbits
	.hidden	HAL_TIM_OnePulse_DeInit         @ -- Begin function HAL_TIM_OnePulse_DeInit
	.globl	HAL_TIM_OnePulse_DeInit
	.p2align	2
	.type	HAL_TIM_OnePulse_DeInit,%function
	.code	16                              @ @HAL_TIM_OnePulse_DeInit
	.thumb_func
HAL_TIM_OnePulse_DeInit:
.Lfunc_begin48:
	.loc	7 2044 0                        @ ../ThirdParty/STM32F4xx_HAL_Driver/Src/stm32f4xx_hal_tim.c:2044:0
	.fnstart
	.cfi_startproc
@ %bb.0:
	.save	{r7, lr}
	push	{r7, lr}
	.cfi_def_cfa_offset 8
	.cfi_offset lr, -4
	.cfi_offset r7, -8
	.pad	#8
	sub	sp, #8
	.cfi_def_cfa_offset 16
	str	r0, [sp, #4]
.Ltmp543:
	.loc	7 2048 3 prologue_end           @ ../ThirdParty/STM32F4xx_HAL_Driver/Src/stm32f4xx_hal_tim.c:2048:3
	ldr	r1, [sp, #4]
	movs	r0, #2
	.loc	7 2048 15 is_stmt 0             @ ../ThirdParty/STM32F4xx_HAL_Driver/Src/stm32f4xx_hal_tim.c:2048:15
	strb.w	r0, [r1, #57]
	.loc	7 2051 3 is_stmt 1              @ ../ThirdParty/STM32F4xx_HAL_Driver/Src/stm32f4xx_hal_tim.c:2051:3
	b	.LBB48_1
.LBB48_1:
.Ltmp544:
	.loc	7 2051 3 is_stmt 0              @ ../ThirdParty/STM32F4xx_HAL_Driver/Src/stm32f4xx_hal_tim.c:2051:3
	ldr	r0, [sp, #4]
	ldr	r0, [r0]
	ldr	r0, [r0, #32]
	movw	r1, #4369
.Ltmp545:
	.loc	7 2051 3                        @ ../ThirdParty/STM32F4xx_HAL_Driver/Src/stm32f4xx_hal_tim.c:2051:3
	tst	r0, r1
	bne	.LBB48_5
	b	.LBB48_2
.LBB48_2:
.Ltmp546:
	.loc	7 2051 3                        @ ../ThirdParty/STM32F4xx_HAL_Driver/Src/stm32f4xx_hal_tim.c:2051:3
	ldr	r0, [sp, #4]
	ldr	r0, [r0]
	ldr	r0, [r0, #32]
	movw	r1, #1092
.Ltmp547:
	.loc	7 2051 3                        @ ../ThirdParty/STM32F4xx_HAL_Driver/Src/stm32f4xx_hal_tim.c:2051:3
	tst	r0, r1
	bne	.LBB48_4
	b	.LBB48_3
.LBB48_3:
.Ltmp548:
	.loc	7 2051 3                        @ ../ThirdParty/STM32F4xx_HAL_Driver/Src/stm32f4xx_hal_tim.c:2051:3
	ldr	r0, [sp, #4]
	ldr	r1, [r0]
	ldr	r0, [r1]
	bic	r0, r0, #1
	str	r0, [r1]
	b	.LBB48_4
.Ltmp549:
.LBB48_4:
	.loc	7 2051 3                        @ ../ThirdParty/STM32F4xx_HAL_Driver/Src/stm32f4xx_hal_tim.c:2051:3
	b	.LBB48_5
.Ltmp550:
.LBB48_5:
	.loc	7 2051 3                        @ ../ThirdParty/STM32F4xx_HAL_Driver/Src/stm32f4xx_hal_tim.c:2051:3
	b	.LBB48_6
.Ltmp551:
.LBB48_6:
	.loc	7 2054 30 is_stmt 1             @ ../ThirdParty/STM32F4xx_HAL_Driver/Src/stm32f4xx_hal_tim.c:2054:30
	ldr	r0, [sp, #4]
	.loc	7 2054 3 is_stmt 0              @ ../ThirdParty/STM32F4xx_HAL_Driver/Src/stm32f4xx_hal_tim.c:2054:3
	bl	HAL_TIM_OnePulse_MspDeInit
	.loc	7 2057 3 is_stmt 1              @ ../ThirdParty/STM32F4xx_HAL_Driver/Src/stm32f4xx_hal_tim.c:2057:3
	ldr	r1, [sp, #4]
	movs	r0, #0
	.loc	7 2057 15 is_stmt 0             @ ../ThirdParty/STM32F4xx_HAL_Driver/Src/stm32f4xx_hal_tim.c:2057:15
	strb.w	r0, [r1, #57]
	.loc	7 2060 3 is_stmt 1              @ ../ThirdParty/STM32F4xx_HAL_Driver/Src/stm32f4xx_hal_tim.c:2060:3
	b	.LBB48_7
.LBB48_7:
.Ltmp552:
	.loc	7 2060 3 is_stmt 0              @ ../ThirdParty/STM32F4xx_HAL_Driver/Src/stm32f4xx_hal_tim.c:2060:3
	ldr	r1, [sp, #4]
	movs	r0, #0
	strb.w	r0, [r1, #56]
	b	.LBB48_8
.Ltmp553:
.LBB48_8:
	.loc	7 0 3                           @ ../ThirdParty/STM32F4xx_HAL_Driver/Src/stm32f4xx_hal_tim.c:0:3
	movs	r0, #0
	.loc	7 2062 3 epilogue_begin is_stmt 1 @ ../ThirdParty/STM32F4xx_HAL_Driver/Src/stm32f4xx_hal_tim.c:2062:3
	add	sp, #8
	pop	{r7, pc}
.Ltmp554:
.Lfunc_end48:
	.size	HAL_TIM_OnePulse_DeInit, .Lfunc_end48-HAL_TIM_OnePulse_DeInit
	.cfi_endproc
	.cantunwind
	.fnend
                                        @ -- End function
	.section	.text.HAL_TIM_OnePulse_MspDeInit,"ax",%progbits
	.hidden	HAL_TIM_OnePulse_MspDeInit      @ -- Begin function HAL_TIM_OnePulse_MspDeInit
	.weak	HAL_TIM_OnePulse_MspDeInit
	.p2align	2
	.type	HAL_TIM_OnePulse_MspDeInit,%function
	.code	16                              @ @HAL_TIM_OnePulse_MspDeInit
	.thumb_func
HAL_TIM_OnePulse_MspDeInit:
.Lfunc_begin49:
	.loc	7 2087 0                        @ ../ThirdParty/STM32F4xx_HAL_Driver/Src/stm32f4xx_hal_tim.c:2087:0
	.fnstart
	.cfi_startproc
@ %bb.0:
	.pad	#4
	sub	sp, #4
	.cfi_def_cfa_offset 4
	str	r0, [sp]
.Ltmp555:
	.loc	7 2093 1 prologue_end epilogue_begin @ ../ThirdParty/STM32F4xx_HAL_Driver/Src/stm32f4xx_hal_tim.c:2093:1
	add	sp, #4
	bx	lr
.Ltmp556:
.Lfunc_end49:
	.size	HAL_TIM_OnePulse_MspDeInit, .Lfunc_end49-HAL_TIM_OnePulse_MspDeInit
	.cfi_endproc
	.cantunwind
	.fnend
                                        @ -- End function
	.section	.text.HAL_TIM_OnePulse_Start,"ax",%progbits
	.hidden	HAL_TIM_OnePulse_Start          @ -- Begin function HAL_TIM_OnePulse_Start
	.globl	HAL_TIM_OnePulse_Start
	.p2align	2
	.type	HAL_TIM_OnePulse_Start,%function
	.code	16                              @ @HAL_TIM_OnePulse_Start
	.thumb_func
HAL_TIM_OnePulse_Start:
.Lfunc_begin50:
	.loc	7 2106 0                        @ ../ThirdParty/STM32F4xx_HAL_Driver/Src/stm32f4xx_hal_tim.c:2106:0
	.fnstart
	.cfi_startproc
@ %bb.0:
	.save	{r7, lr}
	push	{r7, lr}
	.cfi_def_cfa_offset 8
	.cfi_offset lr, -4
	.cfi_offset r7, -8
	.pad	#16
	sub	sp, #16
	.cfi_def_cfa_offset 24
	str	r0, [sp, #12]
	str	r1, [sp, #8]
.Ltmp557:
	.loc	7 2119 21 prologue_end          @ ../ThirdParty/STM32F4xx_HAL_Driver/Src/stm32f4xx_hal_tim.c:2119:21
	ldr	r0, [sp, #12]
	.loc	7 2119 27 is_stmt 0             @ ../ThirdParty/STM32F4xx_HAL_Driver/Src/stm32f4xx_hal_tim.c:2119:27
	ldr	r0, [r0]
	movs	r1, #0
	movs	r2, #1
	.loc	7 2119 3                        @ ../ThirdParty/STM32F4xx_HAL_Driver/Src/stm32f4xx_hal_tim.c:2119:3
	str	r2, [sp]                        @ 4-byte Spill
	bl	TIM_CCxChannelCmd
	ldr	r2, [sp]                        @ 4-byte Reload
	.loc	7 2120 21 is_stmt 1             @ ../ThirdParty/STM32F4xx_HAL_Driver/Src/stm32f4xx_hal_tim.c:2120:21
	ldr	r0, [sp, #12]
	.loc	7 2120 27 is_stmt 0             @ ../ThirdParty/STM32F4xx_HAL_Driver/Src/stm32f4xx_hal_tim.c:2120:27
	ldr	r0, [r0]
	movs	r1, #4
	.loc	7 2120 3                        @ ../ThirdParty/STM32F4xx_HAL_Driver/Src/stm32f4xx_hal_tim.c:2120:3
	bl	TIM_CCxChannelCmd
	ldr	r0, [sp]                        @ 4-byte Reload
.Ltmp558:
	.loc	7 2122 6 is_stmt 1              @ ../ThirdParty/STM32F4xx_HAL_Driver/Src/stm32f4xx_hal_tim.c:2122:6
	ldr	r1, [sp, #12]
	ldr	r1, [r1]
	movs	r2, #0
	movt	r2, #16385
	cmp	r1, r2
	str	r0, [sp, #4]                    @ 4-byte Spill
	beq	.LBB50_2
	b	.LBB50_1
.LBB50_1:
	ldr	r0, [sp, #12]
	ldr	r0, [r0]
	movw	r1, #64512
	movt	r1, #49150
	add	r0, r1
	clz	r0, r0
	lsrs	r0, r0, #5
	str	r0, [sp, #4]                    @ 4-byte Spill
	b	.LBB50_2
.Ltmp559:
.LBB50_2:
	.loc	7 0 6 is_stmt 0                 @ ../ThirdParty/STM32F4xx_HAL_Driver/Src/stm32f4xx_hal_tim.c:0:6
	ldr	r0, [sp, #4]                    @ 4-byte Reload
	.loc	7 2122 6                        @ ../ThirdParty/STM32F4xx_HAL_Driver/Src/stm32f4xx_hal_tim.c:2122:6
	lsls	r0, r0, #31
	cbz	r0, .LBB50_4
	b	.LBB50_3
.LBB50_3:
.Ltmp560:
	.loc	7 2125 5 is_stmt 1              @ ../ThirdParty/STM32F4xx_HAL_Driver/Src/stm32f4xx_hal_tim.c:2125:5
	ldr	r0, [sp, #12]
	ldr	r1, [r0]
	ldr	r0, [r1, #68]
	orr	r0, r0, #32768
	str	r0, [r1, #68]
	.loc	7 2126 3                        @ ../ThirdParty/STM32F4xx_HAL_Driver/Src/stm32f4xx_hal_tim.c:2126:3
	b	.LBB50_4
.Ltmp561:
.LBB50_4:
	.loc	7 0 3 is_stmt 0                 @ ../ThirdParty/STM32F4xx_HAL_Driver/Src/stm32f4xx_hal_tim.c:0:3
	movs	r0, #0
	.loc	7 2129 3 epilogue_begin is_stmt 1 @ ../ThirdParty/STM32F4xx_HAL_Driver/Src/stm32f4xx_hal_tim.c:2129:3
	add	sp, #16
	pop	{r7, pc}
.Ltmp562:
.Lfunc_end50:
	.size	HAL_TIM_OnePulse_Start, .Lfunc_end50-HAL_TIM_OnePulse_Start
	.cfi_endproc
	.cantunwind
	.fnend
                                        @ -- End function
	.section	.text.HAL_TIM_OnePulse_Stop,"ax",%progbits
	.hidden	HAL_TIM_OnePulse_Stop           @ -- Begin function HAL_TIM_OnePulse_Stop
	.globl	HAL_TIM_OnePulse_Stop
	.p2align	2
	.type	HAL_TIM_OnePulse_Stop,%function
	.code	16                              @ @HAL_TIM_OnePulse_Stop
	.thumb_func
HAL_TIM_OnePulse_Stop:
.Lfunc_begin51:
	.loc	7 2143 0                        @ ../ThirdParty/STM32F4xx_HAL_Driver/Src/stm32f4xx_hal_tim.c:2143:0
	.fnstart
	.cfi_startproc
@ %bb.0:
	.save	{r7, lr}
	push	{r7, lr}
	.cfi_def_cfa_offset 8
	.cfi_offset lr, -4
	.cfi_offset r7, -8
	.pad	#16
	sub	sp, #16
	.cfi_def_cfa_offset 24
	str	r0, [sp, #12]
	str	r1, [sp, #8]
.Ltmp563:
	.loc	7 2153 21 prologue_end          @ ../ThirdParty/STM32F4xx_HAL_Driver/Src/stm32f4xx_hal_tim.c:2153:21
	ldr	r0, [sp, #12]
	.loc	7 2153 27 is_stmt 0             @ ../ThirdParty/STM32F4xx_HAL_Driver/Src/stm32f4xx_hal_tim.c:2153:27
	ldr	r0, [r0]
	movs	r2, #0
	.loc	7 2153 3                        @ ../ThirdParty/STM32F4xx_HAL_Driver/Src/stm32f4xx_hal_tim.c:2153:3
	str	r2, [sp]                        @ 4-byte Spill
	mov	r1, r2
	bl	TIM_CCxChannelCmd
	ldr	r2, [sp]                        @ 4-byte Reload
	.loc	7 2154 21 is_stmt 1             @ ../ThirdParty/STM32F4xx_HAL_Driver/Src/stm32f4xx_hal_tim.c:2154:21
	ldr	r0, [sp, #12]
	.loc	7 2154 27 is_stmt 0             @ ../ThirdParty/STM32F4xx_HAL_Driver/Src/stm32f4xx_hal_tim.c:2154:27
	ldr	r0, [r0]
	movs	r1, #4
	.loc	7 2154 3                        @ ../ThirdParty/STM32F4xx_HAL_Driver/Src/stm32f4xx_hal_tim.c:2154:3
	bl	TIM_CCxChannelCmd
.Ltmp564:
	.loc	7 2156 6 is_stmt 1              @ ../ThirdParty/STM32F4xx_HAL_Driver/Src/stm32f4xx_hal_tim.c:2156:6
	ldr	r0, [sp, #12]
	ldr	r1, [r0]
	movs	r0, #1
	movs	r2, #0
	movt	r2, #16385
	cmp	r1, r2
	str	r0, [sp, #4]                    @ 4-byte Spill
	beq	.LBB51_2
	b	.LBB51_1
.LBB51_1:
	ldr	r0, [sp, #12]
	ldr	r0, [r0]
	movw	r1, #64512
	movt	r1, #49150
	add	r0, r1
	clz	r0, r0
	lsrs	r0, r0, #5
	str	r0, [sp, #4]                    @ 4-byte Spill
	b	.LBB51_2
.Ltmp565:
.LBB51_2:
	.loc	7 0 6 is_stmt 0                 @ ../ThirdParty/STM32F4xx_HAL_Driver/Src/stm32f4xx_hal_tim.c:0:6
	ldr	r0, [sp, #4]                    @ 4-byte Reload
	.loc	7 2156 6                        @ ../ThirdParty/STM32F4xx_HAL_Driver/Src/stm32f4xx_hal_tim.c:2156:6
	lsls	r0, r0, #31
	cbz	r0, .LBB51_10
	b	.LBB51_3
.LBB51_3:
.Ltmp566:
	.loc	7 2159 5 is_stmt 1              @ ../ThirdParty/STM32F4xx_HAL_Driver/Src/stm32f4xx_hal_tim.c:2159:5
	b	.LBB51_4
.LBB51_4:
.Ltmp567:
	.loc	7 2159 5 is_stmt 0              @ ../ThirdParty/STM32F4xx_HAL_Driver/Src/stm32f4xx_hal_tim.c:2159:5
	ldr	r0, [sp, #12]
	ldr	r0, [r0]
	ldr	r0, [r0, #32]
	movw	r1, #4369
.Ltmp568:
	.loc	7 2159 5                        @ ../ThirdParty/STM32F4xx_HAL_Driver/Src/stm32f4xx_hal_tim.c:2159:5
	tst	r0, r1
	bne	.LBB51_8
	b	.LBB51_5
.LBB51_5:
.Ltmp569:
	.loc	7 2159 5                        @ ../ThirdParty/STM32F4xx_HAL_Driver/Src/stm32f4xx_hal_tim.c:2159:5
	ldr	r0, [sp, #12]
	ldr	r0, [r0]
	ldr	r0, [r0, #32]
	movw	r1, #1092
.Ltmp570:
	.loc	7 2159 5                        @ ../ThirdParty/STM32F4xx_HAL_Driver/Src/stm32f4xx_hal_tim.c:2159:5
	tst	r0, r1
	bne	.LBB51_7
	b	.LBB51_6
.LBB51_6:
.Ltmp571:
	.loc	7 2159 5                        @ ../ThirdParty/STM32F4xx_HAL_Driver/Src/stm32f4xx_hal_tim.c:2159:5
	ldr	r0, [sp, #12]
	ldr	r1, [r0]
	ldr	r0, [r1, #68]
	bic	r0, r0, #32768
	str	r0, [r1, #68]
	b	.LBB51_7
.Ltmp572:
.LBB51_7:
	.loc	7 2159 5                        @ ../ThirdParty/STM32F4xx_HAL_Driver/Src/stm32f4xx_hal_tim.c:2159:5
	b	.LBB51_8
.Ltmp573:
.LBB51_8:
	.loc	7 2159 5                        @ ../ThirdParty/STM32F4xx_HAL_Driver/Src/stm32f4xx_hal_tim.c:2159:5
	b	.LBB51_9
.Ltmp574:
.LBB51_9:
	.loc	7 2160 3 is_stmt 1              @ ../ThirdParty/STM32F4xx_HAL_Driver/Src/stm32f4xx_hal_tim.c:2160:3
	b	.LBB51_10
.Ltmp575:
.LBB51_10:
	.loc	7 2163 3                        @ ../ThirdParty/STM32F4xx_HAL_Driver/Src/stm32f4xx_hal_tim.c:2163:3
	b	.LBB51_11
.LBB51_11:
.Ltmp576:
	.loc	7 2163 3 is_stmt 0              @ ../ThirdParty/STM32F4xx_HAL_Driver/Src/stm32f4xx_hal_tim.c:2163:3
	ldr	r0, [sp, #12]
	ldr	r0, [r0]
	ldr	r0, [r0, #32]
	movw	r1, #4369
.Ltmp577:
	.loc	7 2163 3                        @ ../ThirdParty/STM32F4xx_HAL_Driver/Src/stm32f4xx_hal_tim.c:2163:3
	tst	r0, r1
	bne	.LBB51_15
	b	.LBB51_12
.LBB51_12:
.Ltmp578:
	.loc	7 2163 3                        @ ../ThirdParty/STM32F4xx_HAL_Driver/Src/stm32f4xx_hal_tim.c:2163:3
	ldr	r0, [sp, #12]
	ldr	r0, [r0]
	ldr	r0, [r0, #32]
	movw	r1, #1092
.Ltmp579:
	.loc	7 2163 3                        @ ../ThirdParty/STM32F4xx_HAL_Driver/Src/stm32f4xx_hal_tim.c:2163:3
	tst	r0, r1
	bne	.LBB51_14
	b	.LBB51_13
.LBB51_13:
.Ltmp580:
	.loc	7 2163 3                        @ ../ThirdParty/STM32F4xx_HAL_Driver/Src/stm32f4xx_hal_tim.c:2163:3
	ldr	r0, [sp, #12]
	ldr	r1, [r0]
	ldr	r0, [r1]
	bic	r0, r0, #1
	str	r0, [r1]
	b	.LBB51_14
.Ltmp581:
.LBB51_14:
	.loc	7 2163 3                        @ ../ThirdParty/STM32F4xx_HAL_Driver/Src/stm32f4xx_hal_tim.c:2163:3
	b	.LBB51_15
.Ltmp582:
.LBB51_15:
	.loc	7 2163 3                        @ ../ThirdParty/STM32F4xx_HAL_Driver/Src/stm32f4xx_hal_tim.c:2163:3
	b	.LBB51_16
.Ltmp583:
.LBB51_16:
	.loc	7 0 3                           @ ../ThirdParty/STM32F4xx_HAL_Driver/Src/stm32f4xx_hal_tim.c:0:3
	movs	r0, #0
	.loc	7 2166 3 epilogue_begin is_stmt 1 @ ../ThirdParty/STM32F4xx_HAL_Driver/Src/stm32f4xx_hal_tim.c:2166:3
	add	sp, #16
	pop	{r7, pc}
.Ltmp584:
.Lfunc_end51:
	.size	HAL_TIM_OnePulse_Stop, .Lfunc_end51-HAL_TIM_OnePulse_Stop
	.cfi_endproc
	.cantunwind
	.fnend
                                        @ -- End function
	.section	.text.HAL_TIM_OnePulse_Start_IT,"ax",%progbits
	.hidden	HAL_TIM_OnePulse_Start_IT       @ -- Begin function HAL_TIM_OnePulse_Start_IT
	.globl	HAL_TIM_OnePulse_Start_IT
	.p2align	2
	.type	HAL_TIM_OnePulse_Start_IT,%function
	.code	16                              @ @HAL_TIM_OnePulse_Start_IT
	.thumb_func
HAL_TIM_OnePulse_Start_IT:
.Lfunc_begin52:
	.loc	7 2180 0                        @ ../ThirdParty/STM32F4xx_HAL_Driver/Src/stm32f4xx_hal_tim.c:2180:0
	.fnstart
	.cfi_startproc
@ %bb.0:
	.save	{r7, lr}
	push	{r7, lr}
	.cfi_def_cfa_offset 8
	.cfi_offset lr, -4
	.cfi_offset r7, -8
	.pad	#16
	sub	sp, #16
	.cfi_def_cfa_offset 24
	str	r0, [sp, #12]
	str	r1, [sp, #8]
.Ltmp585:
	.loc	7 2194 3 prologue_end           @ ../ThirdParty/STM32F4xx_HAL_Driver/Src/stm32f4xx_hal_tim.c:2194:3
	ldr	r0, [sp, #12]
	ldr	r1, [r0]
	ldr	r0, [r1, #12]
	orr	r0, r0, #2
	str	r0, [r1, #12]
	.loc	7 2197 3                        @ ../ThirdParty/STM32F4xx_HAL_Driver/Src/stm32f4xx_hal_tim.c:2197:3
	ldr	r0, [sp, #12]
	ldr	r1, [r0]
	ldr	r0, [r1, #12]
	orr	r0, r0, #4
	str	r0, [r1, #12]
	.loc	7 2199 21                       @ ../ThirdParty/STM32F4xx_HAL_Driver/Src/stm32f4xx_hal_tim.c:2199:21
	ldr	r0, [sp, #12]
	.loc	7 2199 27 is_stmt 0             @ ../ThirdParty/STM32F4xx_HAL_Driver/Src/stm32f4xx_hal_tim.c:2199:27
	ldr	r0, [r0]
	movs	r1, #0
	movs	r2, #1
	.loc	7 2199 3                        @ ../ThirdParty/STM32F4xx_HAL_Driver/Src/stm32f4xx_hal_tim.c:2199:3
	str	r2, [sp]                        @ 4-byte Spill
	bl	TIM_CCxChannelCmd
	ldr	r2, [sp]                        @ 4-byte Reload
	.loc	7 2200 21 is_stmt 1             @ ../ThirdParty/STM32F4xx_HAL_Driver/Src/stm32f4xx_hal_tim.c:2200:21
	ldr	r0, [sp, #12]
	.loc	7 2200 27 is_stmt 0             @ ../ThirdParty/STM32F4xx_HAL_Driver/Src/stm32f4xx_hal_tim.c:2200:27
	ldr	r0, [r0]
	movs	r1, #4
	.loc	7 2200 3                        @ ../ThirdParty/STM32F4xx_HAL_Driver/Src/stm32f4xx_hal_tim.c:2200:3
	bl	TIM_CCxChannelCmd
	ldr	r0, [sp]                        @ 4-byte Reload
.Ltmp586:
	.loc	7 2202 6 is_stmt 1              @ ../ThirdParty/STM32F4xx_HAL_Driver/Src/stm32f4xx_hal_tim.c:2202:6
	ldr	r1, [sp, #12]
	ldr	r1, [r1]
	movs	r2, #0
	movt	r2, #16385
	cmp	r1, r2
	str	r0, [sp, #4]                    @ 4-byte Spill
	beq	.LBB52_2
	b	.LBB52_1
.LBB52_1:
	ldr	r0, [sp, #12]
	ldr	r0, [r0]
	movw	r1, #64512
	movt	r1, #49150
	add	r0, r1
	clz	r0, r0
	lsrs	r0, r0, #5
	str	r0, [sp, #4]                    @ 4-byte Spill
	b	.LBB52_2
.Ltmp587:
.LBB52_2:
	.loc	7 0 6 is_stmt 0                 @ ../ThirdParty/STM32F4xx_HAL_Driver/Src/stm32f4xx_hal_tim.c:0:6
	ldr	r0, [sp, #4]                    @ 4-byte Reload
	.loc	7 2202 6                        @ ../ThirdParty/STM32F4xx_HAL_Driver/Src/stm32f4xx_hal_tim.c:2202:6
	lsls	r0, r0, #31
	cbz	r0, .LBB52_4
	b	.LBB52_3
.LBB52_3:
.Ltmp588:
	.loc	7 2205 5 is_stmt 1              @ ../ThirdParty/STM32F4xx_HAL_Driver/Src/stm32f4xx_hal_tim.c:2205:5
	ldr	r0, [sp, #12]
	ldr	r1, [r0]
	ldr	r0, [r1, #68]
	orr	r0, r0, #32768
	str	r0, [r1, #68]
	.loc	7 2206 3                        @ ../ThirdParty/STM32F4xx_HAL_Driver/Src/stm32f4xx_hal_tim.c:2206:3
	b	.LBB52_4
.Ltmp589:
.LBB52_4:
	.loc	7 0 3 is_stmt 0                 @ ../ThirdParty/STM32F4xx_HAL_Driver/Src/stm32f4xx_hal_tim.c:0:3
	movs	r0, #0
	.loc	7 2209 3 epilogue_begin is_stmt 1 @ ../ThirdParty/STM32F4xx_HAL_Driver/Src/stm32f4xx_hal_tim.c:2209:3
	add	sp, #16
	pop	{r7, pc}
.Ltmp590:
.Lfunc_end52:
	.size	HAL_TIM_OnePulse_Start_IT, .Lfunc_end52-HAL_TIM_OnePulse_Start_IT
	.cfi_endproc
	.cantunwind
	.fnend
                                        @ -- End function
	.section	.text.HAL_TIM_OnePulse_Stop_IT,"ax",%progbits
	.hidden	HAL_TIM_OnePulse_Stop_IT        @ -- Begin function HAL_TIM_OnePulse_Stop_IT
	.globl	HAL_TIM_OnePulse_Stop_IT
	.p2align	2
	.type	HAL_TIM_OnePulse_Stop_IT,%function
	.code	16                              @ @HAL_TIM_OnePulse_Stop_IT
	.thumb_func
HAL_TIM_OnePulse_Stop_IT:
.Lfunc_begin53:
	.loc	7 2223 0                        @ ../ThirdParty/STM32F4xx_HAL_Driver/Src/stm32f4xx_hal_tim.c:2223:0
	.fnstart
	.cfi_startproc
@ %bb.0:
	.save	{r7, lr}
	push	{r7, lr}
	.cfi_def_cfa_offset 8
	.cfi_offset lr, -4
	.cfi_offset r7, -8
	.pad	#16
	sub	sp, #16
	.cfi_def_cfa_offset 24
	str	r0, [sp, #12]
	str	r1, [sp, #8]
.Ltmp591:
	.loc	7 2228 3 prologue_end           @ ../ThirdParty/STM32F4xx_HAL_Driver/Src/stm32f4xx_hal_tim.c:2228:3
	ldr	r0, [sp, #12]
	ldr	r1, [r0]
	ldr	r0, [r1, #12]
	bic	r0, r0, #2
	str	r0, [r1, #12]
	.loc	7 2231 3                        @ ../ThirdParty/STM32F4xx_HAL_Driver/Src/stm32f4xx_hal_tim.c:2231:3
	ldr	r0, [sp, #12]
	ldr	r1, [r0]
	ldr	r0, [r1, #12]
	bic	r0, r0, #4
	str	r0, [r1, #12]
	.loc	7 2238 21                       @ ../ThirdParty/STM32F4xx_HAL_Driver/Src/stm32f4xx_hal_tim.c:2238:21
	ldr	r0, [sp, #12]
	.loc	7 2238 27 is_stmt 0             @ ../ThirdParty/STM32F4xx_HAL_Driver/Src/stm32f4xx_hal_tim.c:2238:27
	ldr	r0, [r0]
	movs	r2, #0
	.loc	7 2238 3                        @ ../ThirdParty/STM32F4xx_HAL_Driver/Src/stm32f4xx_hal_tim.c:2238:3
	str	r2, [sp]                        @ 4-byte Spill
	mov	r1, r2
	bl	TIM_CCxChannelCmd
	ldr	r2, [sp]                        @ 4-byte Reload
	.loc	7 2239 21 is_stmt 1             @ ../ThirdParty/STM32F4xx_HAL_Driver/Src/stm32f4xx_hal_tim.c:2239:21
	ldr	r0, [sp, #12]
	.loc	7 2239 27 is_stmt 0             @ ../ThirdParty/STM32F4xx_HAL_Driver/Src/stm32f4xx_hal_tim.c:2239:27
	ldr	r0, [r0]
	movs	r1, #4
	.loc	7 2239 3                        @ ../ThirdParty/STM32F4xx_HAL_Driver/Src/stm32f4xx_hal_tim.c:2239:3
	bl	TIM_CCxChannelCmd
.Ltmp592:
	.loc	7 2241 6 is_stmt 1              @ ../ThirdParty/STM32F4xx_HAL_Driver/Src/stm32f4xx_hal_tim.c:2241:6
	ldr	r0, [sp, #12]
	ldr	r1, [r0]
	movs	r0, #1
	movs	r2, #0
	movt	r2, #16385
	cmp	r1, r2
	str	r0, [sp, #4]                    @ 4-byte Spill
	beq	.LBB53_2
	b	.LBB53_1
.LBB53_1:
	ldr	r0, [sp, #12]
	ldr	r0, [r0]
	movw	r1, #64512
	movt	r1, #49150
	add	r0, r1
	clz	r0, r0
	lsrs	r0, r0, #5
	str	r0, [sp, #4]                    @ 4-byte Spill
	b	.LBB53_2
.Ltmp593:
.LBB53_2:
	.loc	7 0 6 is_stmt 0                 @ ../ThirdParty/STM32F4xx_HAL_Driver/Src/stm32f4xx_hal_tim.c:0:6
	ldr	r0, [sp, #4]                    @ 4-byte Reload
	.loc	7 2241 6                        @ ../ThirdParty/STM32F4xx_HAL_Driver/Src/stm32f4xx_hal_tim.c:2241:6
	lsls	r0, r0, #31
	cbz	r0, .LBB53_10
	b	.LBB53_3
.LBB53_3:
.Ltmp594:
	.loc	7 2244 5 is_stmt 1              @ ../ThirdParty/STM32F4xx_HAL_Driver/Src/stm32f4xx_hal_tim.c:2244:5
	b	.LBB53_4
.LBB53_4:
.Ltmp595:
	.loc	7 2244 5 is_stmt 0              @ ../ThirdParty/STM32F4xx_HAL_Driver/Src/stm32f4xx_hal_tim.c:2244:5
	ldr	r0, [sp, #12]
	ldr	r0, [r0]
	ldr	r0, [r0, #32]
	movw	r1, #4369
.Ltmp596:
	.loc	7 2244 5                        @ ../ThirdParty/STM32F4xx_HAL_Driver/Src/stm32f4xx_hal_tim.c:2244:5
	tst	r0, r1
	bne	.LBB53_8
	b	.LBB53_5
.LBB53_5:
.Ltmp597:
	.loc	7 2244 5                        @ ../ThirdParty/STM32F4xx_HAL_Driver/Src/stm32f4xx_hal_tim.c:2244:5
	ldr	r0, [sp, #12]
	ldr	r0, [r0]
	ldr	r0, [r0, #32]
	movw	r1, #1092
.Ltmp598:
	.loc	7 2244 5                        @ ../ThirdParty/STM32F4xx_HAL_Driver/Src/stm32f4xx_hal_tim.c:2244:5
	tst	r0, r1
	bne	.LBB53_7
	b	.LBB53_6
.LBB53_6:
.Ltmp599:
	.loc	7 2244 5                        @ ../ThirdParty/STM32F4xx_HAL_Driver/Src/stm32f4xx_hal_tim.c:2244:5
	ldr	r0, [sp, #12]
	ldr	r1, [r0]
	ldr	r0, [r1, #68]
	bic	r0, r0, #32768
	str	r0, [r1, #68]
	b	.LBB53_7
.Ltmp600:
.LBB53_7:
	.loc	7 2244 5                        @ ../ThirdParty/STM32F4xx_HAL_Driver/Src/stm32f4xx_hal_tim.c:2244:5
	b	.LBB53_8
.Ltmp601:
.LBB53_8:
	.loc	7 2244 5                        @ ../ThirdParty/STM32F4xx_HAL_Driver/Src/stm32f4xx_hal_tim.c:2244:5
	b	.LBB53_9
.Ltmp602:
.LBB53_9:
	.loc	7 2245 3 is_stmt 1              @ ../ThirdParty/STM32F4xx_HAL_Driver/Src/stm32f4xx_hal_tim.c:2245:3
	b	.LBB53_10
.Ltmp603:
.LBB53_10:
	.loc	7 2248 4                        @ ../ThirdParty/STM32F4xx_HAL_Driver/Src/stm32f4xx_hal_tim.c:2248:4
	b	.LBB53_11
.LBB53_11:
.Ltmp604:
	.loc	7 2248 4 is_stmt 0              @ ../ThirdParty/STM32F4xx_HAL_Driver/Src/stm32f4xx_hal_tim.c:2248:4
	ldr	r0, [sp, #12]
	ldr	r0, [r0]
	ldr	r0, [r0, #32]
	movw	r1, #4369
.Ltmp605:
	.loc	7 2248 4                        @ ../ThirdParty/STM32F4xx_HAL_Driver/Src/stm32f4xx_hal_tim.c:2248:4
	tst	r0, r1
	bne	.LBB53_15
	b	.LBB53_12
.LBB53_12:
.Ltmp606:
	.loc	7 2248 4                        @ ../ThirdParty/STM32F4xx_HAL_Driver/Src/stm32f4xx_hal_tim.c:2248:4
	ldr	r0, [sp, #12]
	ldr	r0, [r0]
	ldr	r0, [r0, #32]
	movw	r1, #1092
.Ltmp607:
	.loc	7 2248 4                        @ ../ThirdParty/STM32F4xx_HAL_Driver/Src/stm32f4xx_hal_tim.c:2248:4
	tst	r0, r1
	bne	.LBB53_14
	b	.LBB53_13
.LBB53_13:
.Ltmp608:
	.loc	7 2248 4                        @ ../ThirdParty/STM32F4xx_HAL_Driver/Src/stm32f4xx_hal_tim.c:2248:4
	ldr	r0, [sp, #12]
	ldr	r1, [r0]
	ldr	r0, [r1]
	bic	r0, r0, #1
	str	r0, [r1]
	b	.LBB53_14
.Ltmp609:
.LBB53_14:
	.loc	7 2248 4                        @ ../ThirdParty/STM32F4xx_HAL_Driver/Src/stm32f4xx_hal_tim.c:2248:4
	b	.LBB53_15
.Ltmp610:
.LBB53_15:
	.loc	7 2248 4                        @ ../ThirdParty/STM32F4xx_HAL_Driver/Src/stm32f4xx_hal_tim.c:2248:4
	b	.LBB53_16
.Ltmp611:
.LBB53_16:
	.loc	7 0 4                           @ ../ThirdParty/STM32F4xx_HAL_Driver/Src/stm32f4xx_hal_tim.c:0:4
	movs	r0, #0
	.loc	7 2251 3 epilogue_begin is_stmt 1 @ ../ThirdParty/STM32F4xx_HAL_Driver/Src/stm32f4xx_hal_tim.c:2251:3
	add	sp, #16
	pop	{r7, pc}
.Ltmp612:
.Lfunc_end53:
	.size	HAL_TIM_OnePulse_Stop_IT, .Lfunc_end53-HAL_TIM_OnePulse_Stop_IT
	.cfi_endproc
	.cantunwind
	.fnend
                                        @ -- End function
	.section	.text.HAL_TIM_Encoder_Init,"ax",%progbits
	.hidden	HAL_TIM_Encoder_Init            @ -- Begin function HAL_TIM_Encoder_Init
	.globl	HAL_TIM_Encoder_Init
	.p2align	2
	.type	HAL_TIM_Encoder_Init,%function
	.code	16                              @ @HAL_TIM_Encoder_Init
	.thumb_func
HAL_TIM_Encoder_Init:
.Lfunc_begin54:
	.loc	7 2286 0                        @ ../ThirdParty/STM32F4xx_HAL_Driver/Src/stm32f4xx_hal_tim.c:2286:0
	.fnstart
	.cfi_startproc
@ %bb.0:
	.save	{r7, lr}
	push	{r7, lr}
	.cfi_def_cfa_offset 8
	.cfi_offset lr, -4
	.cfi_offset r7, -8
	.pad	#24
	sub	sp, #24
	.cfi_def_cfa_offset 32
	str	r0, [sp, #16]
	str	r1, [sp, #12]
	movs	r0, #0
.Ltmp613:
	.loc	7 2287 12 prologue_end          @ ../ThirdParty/STM32F4xx_HAL_Driver/Src/stm32f4xx_hal_tim.c:2287:12
	str	r0, [sp, #8]
	.loc	7 2288 12                       @ ../ThirdParty/STM32F4xx_HAL_Driver/Src/stm32f4xx_hal_tim.c:2288:12
	str	r0, [sp, #4]
	.loc	7 2289 12                       @ ../ThirdParty/STM32F4xx_HAL_Driver/Src/stm32f4xx_hal_tim.c:2289:12
	str	r0, [sp]
.Ltmp614:
	.loc	7 2292 6                        @ ../ThirdParty/STM32F4xx_HAL_Driver/Src/stm32f4xx_hal_tim.c:2292:6
	ldr	r0, [sp, #16]
.Ltmp615:
	.loc	7 2292 6 is_stmt 0              @ ../ThirdParty/STM32F4xx_HAL_Driver/Src/stm32f4xx_hal_tim.c:2292:6
	cbnz	r0, .LBB54_2
	b	.LBB54_1
.LBB54_1:
	.loc	7 0 6                           @ ../ThirdParty/STM32F4xx_HAL_Driver/Src/stm32f4xx_hal_tim.c:0:6
	movs	r0, #1
.Ltmp616:
	.loc	7 2294 5 is_stmt 1              @ ../ThirdParty/STM32F4xx_HAL_Driver/Src/stm32f4xx_hal_tim.c:2294:5
	strb.w	r0, [sp, #23]
	b	.LBB54_5
.Ltmp617:
.LBB54_2:
	.loc	7 2309 6                        @ ../ThirdParty/STM32F4xx_HAL_Driver/Src/stm32f4xx_hal_tim.c:2309:6
	ldr	r0, [sp, #16]
	.loc	7 2309 12 is_stmt 0             @ ../ThirdParty/STM32F4xx_HAL_Driver/Src/stm32f4xx_hal_tim.c:2309:12
	ldrb.w	r0, [r0, #57]
.Ltmp618:
	.loc	7 2309 6                        @ ../ThirdParty/STM32F4xx_HAL_Driver/Src/stm32f4xx_hal_tim.c:2309:6
	cbnz	r0, .LBB54_4
	b	.LBB54_3
.LBB54_3:
.Ltmp619:
	.loc	7 2312 5 is_stmt 1              @ ../ThirdParty/STM32F4xx_HAL_Driver/Src/stm32f4xx_hal_tim.c:2312:5
	ldr	r1, [sp, #16]
	movs	r0, #0
	.loc	7 2312 16 is_stmt 0             @ ../ThirdParty/STM32F4xx_HAL_Driver/Src/stm32f4xx_hal_tim.c:2312:16
	strb.w	r0, [r1, #56]
	.loc	7 2314 29 is_stmt 1             @ ../ThirdParty/STM32F4xx_HAL_Driver/Src/stm32f4xx_hal_tim.c:2314:29
	ldr	r0, [sp, #16]
	.loc	7 2314 5 is_stmt 0              @ ../ThirdParty/STM32F4xx_HAL_Driver/Src/stm32f4xx_hal_tim.c:2314:5
	bl	HAL_TIM_Encoder_MspInit
	.loc	7 2315 3 is_stmt 1              @ ../ThirdParty/STM32F4xx_HAL_Driver/Src/stm32f4xx_hal_tim.c:2315:3
	b	.LBB54_4
.Ltmp620:
.LBB54_4:
	.loc	7 2318 3                        @ ../ThirdParty/STM32F4xx_HAL_Driver/Src/stm32f4xx_hal_tim.c:2318:3
	ldr	r1, [sp, #16]
	movs	r0, #2
	.loc	7 2318 14 is_stmt 0             @ ../ThirdParty/STM32F4xx_HAL_Driver/Src/stm32f4xx_hal_tim.c:2318:14
	strb.w	r0, [r1, #57]
	.loc	7 2321 3 is_stmt 1              @ ../ThirdParty/STM32F4xx_HAL_Driver/Src/stm32f4xx_hal_tim.c:2321:3
	ldr	r0, [sp, #16]
	.loc	7 2321 9 is_stmt 0              @ ../ThirdParty/STM32F4xx_HAL_Driver/Src/stm32f4xx_hal_tim.c:2321:9
	ldr	r1, [r0]
	.loc	7 2321 24                       @ ../ThirdParty/STM32F4xx_HAL_Driver/Src/stm32f4xx_hal_tim.c:2321:24
	ldr	r0, [r1, #8]
	bic	r0, r0, #7
	str	r0, [r1, #8]
	.loc	7 2324 22 is_stmt 1             @ ../ThirdParty/STM32F4xx_HAL_Driver/Src/stm32f4xx_hal_tim.c:2324:22
	ldr	r1, [sp, #16]
	.loc	7 2324 28 is_stmt 0             @ ../ThirdParty/STM32F4xx_HAL_Driver/Src/stm32f4xx_hal_tim.c:2324:28
	ldr	r0, [r1], #4
	.loc	7 2324 3                        @ ../ThirdParty/STM32F4xx_HAL_Driver/Src/stm32f4xx_hal_tim.c:2324:3
	bl	TIM_Base_SetConfig
	.loc	7 2327 13 is_stmt 1             @ ../ThirdParty/STM32F4xx_HAL_Driver/Src/stm32f4xx_hal_tim.c:2327:13
	ldr	r0, [sp, #16]
	.loc	7 2327 19 is_stmt 0             @ ../ThirdParty/STM32F4xx_HAL_Driver/Src/stm32f4xx_hal_tim.c:2327:19
	ldr	r0, [r0]
	.loc	7 2327 29                       @ ../ThirdParty/STM32F4xx_HAL_Driver/Src/stm32f4xx_hal_tim.c:2327:29
	ldr	r0, [r0, #8]
	.loc	7 2327 11                       @ ../ThirdParty/STM32F4xx_HAL_Driver/Src/stm32f4xx_hal_tim.c:2327:11
	str	r0, [sp, #8]
	.loc	7 2330 14 is_stmt 1             @ ../ThirdParty/STM32F4xx_HAL_Driver/Src/stm32f4xx_hal_tim.c:2330:14
	ldr	r0, [sp, #16]
	.loc	7 2330 20 is_stmt 0             @ ../ThirdParty/STM32F4xx_HAL_Driver/Src/stm32f4xx_hal_tim.c:2330:20
	ldr	r0, [r0]
	.loc	7 2330 30                       @ ../ThirdParty/STM32F4xx_HAL_Driver/Src/stm32f4xx_hal_tim.c:2330:30
	ldr	r0, [r0, #24]
	.loc	7 2330 12                       @ ../ThirdParty/STM32F4xx_HAL_Driver/Src/stm32f4xx_hal_tim.c:2330:12
	str	r0, [sp, #4]
	.loc	7 2333 13 is_stmt 1             @ ../ThirdParty/STM32F4xx_HAL_Driver/Src/stm32f4xx_hal_tim.c:2333:13
	ldr	r0, [sp, #16]
	.loc	7 2333 19 is_stmt 0             @ ../ThirdParty/STM32F4xx_HAL_Driver/Src/stm32f4xx_hal_tim.c:2333:19
	ldr	r0, [r0]
	.loc	7 2333 29                       @ ../ThirdParty/STM32F4xx_HAL_Driver/Src/stm32f4xx_hal_tim.c:2333:29
	ldr	r0, [r0, #32]
	.loc	7 2333 11                       @ ../ThirdParty/STM32F4xx_HAL_Driver/Src/stm32f4xx_hal_tim.c:2333:11
	str	r0, [sp]
	.loc	7 2336 14 is_stmt 1             @ ../ThirdParty/STM32F4xx_HAL_Driver/Src/stm32f4xx_hal_tim.c:2336:14
	ldr	r0, [sp, #12]
	.loc	7 2336 23 is_stmt 0             @ ../ThirdParty/STM32F4xx_HAL_Driver/Src/stm32f4xx_hal_tim.c:2336:23
	ldr	r1, [r0]
	.loc	7 2336 11                       @ ../ThirdParty/STM32F4xx_HAL_Driver/Src/stm32f4xx_hal_tim.c:2336:11
	ldr	r0, [sp, #8]
	orrs	r0, r1
	str	r0, [sp, #8]
	.loc	7 2339 12 is_stmt 1             @ ../ThirdParty/STM32F4xx_HAL_Driver/Src/stm32f4xx_hal_tim.c:2339:12
	ldr	r0, [sp, #4]
	movw	r1, #771
	bics	r0, r1
	str	r0, [sp, #4]
	.loc	7 2340 16                       @ ../ThirdParty/STM32F4xx_HAL_Driver/Src/stm32f4xx_hal_tim.c:2340:16
	ldr	r1, [sp, #12]
	.loc	7 2340 25 is_stmt 0             @ ../ThirdParty/STM32F4xx_HAL_Driver/Src/stm32f4xx_hal_tim.c:2340:25
	ldr	r0, [r1, #8]
	.loc	7 2340 50                       @ ../ThirdParty/STM32F4xx_HAL_Driver/Src/stm32f4xx_hal_tim.c:2340:50
	ldr	r1, [r1, #24]
	.loc	7 2340 38                       @ ../ThirdParty/STM32F4xx_HAL_Driver/Src/stm32f4xx_hal_tim.c:2340:38
	orr.w	r1, r0, r1, lsl #8
	.loc	7 2340 12                       @ ../ThirdParty/STM32F4xx_HAL_Driver/Src/stm32f4xx_hal_tim.c:2340:12
	ldr	r0, [sp, #4]
	orrs	r0, r1
	str	r0, [sp, #4]
	.loc	7 2343 12 is_stmt 1             @ ../ThirdParty/STM32F4xx_HAL_Driver/Src/stm32f4xx_hal_tim.c:2343:12
	ldr	r0, [sp, #4]
	movw	r1, #3084
	bics	r0, r1
	str	r0, [sp, #4]
	.loc	7 2344 12                       @ ../ThirdParty/STM32F4xx_HAL_Driver/Src/stm32f4xx_hal_tim.c:2344:12
	ldr	r0, [sp, #4]
	movw	r1, #61680
	bics	r0, r1
	str	r0, [sp, #4]
	.loc	7 2345 15                       @ ../ThirdParty/STM32F4xx_HAL_Driver/Src/stm32f4xx_hal_tim.c:2345:15
	ldr	r1, [sp, #12]
	.loc	7 2345 24 is_stmt 0             @ ../ThirdParty/STM32F4xx_HAL_Driver/Src/stm32f4xx_hal_tim.c:2345:24
	ldr	r0, [r1, #12]
	.loc	7 2345 49                       @ ../ThirdParty/STM32F4xx_HAL_Driver/Src/stm32f4xx_hal_tim.c:2345:49
	ldr	r1, [r1, #28]
	.loc	7 2345 37                       @ ../ThirdParty/STM32F4xx_HAL_Driver/Src/stm32f4xx_hal_tim.c:2345:37
	orr.w	r1, r0, r1, lsl #8
	.loc	7 2345 12                       @ ../ThirdParty/STM32F4xx_HAL_Driver/Src/stm32f4xx_hal_tim.c:2345:12
	ldr	r0, [sp, #4]
	orrs	r0, r1
	str	r0, [sp, #4]
	.loc	7 2346 16 is_stmt 1             @ ../ThirdParty/STM32F4xx_HAL_Driver/Src/stm32f4xx_hal_tim.c:2346:16
	ldr	r1, [sp, #12]
	.loc	7 2346 25 is_stmt 0             @ ../ThirdParty/STM32F4xx_HAL_Driver/Src/stm32f4xx_hal_tim.c:2346:25
	ldr	r0, [r1, #16]
	.loc	7 2346 54                       @ ../ThirdParty/STM32F4xx_HAL_Driver/Src/stm32f4xx_hal_tim.c:2346:54
	ldr	r1, [r1, #32]
	.loc	7 2346 35                       @ ../ThirdParty/STM32F4xx_HAL_Driver/Src/stm32f4xx_hal_tim.c:2346:35
	lsls	r0, r0, #4
	.loc	7 2346 42                       @ ../ThirdParty/STM32F4xx_HAL_Driver/Src/stm32f4xx_hal_tim.c:2346:42
	orr.w	r1, r0, r1, lsl #12
	.loc	7 2346 12                       @ ../ThirdParty/STM32F4xx_HAL_Driver/Src/stm32f4xx_hal_tim.c:2346:12
	ldr	r0, [sp, #4]
	orrs	r0, r1
	str	r0, [sp, #4]
	.loc	7 2349 11 is_stmt 1             @ ../ThirdParty/STM32F4xx_HAL_Driver/Src/stm32f4xx_hal_tim.c:2349:11
	ldr	r0, [sp]
	bic	r0, r0, #34
	str	r0, [sp]
	.loc	7 2350 11                       @ ../ThirdParty/STM32F4xx_HAL_Driver/Src/stm32f4xx_hal_tim.c:2350:11
	ldr	r0, [sp]
	bic	r0, r0, #136
	str	r0, [sp]
	.loc	7 2351 14                       @ ../ThirdParty/STM32F4xx_HAL_Driver/Src/stm32f4xx_hal_tim.c:2351:14
	ldr	r1, [sp, #12]
	.loc	7 2351 23 is_stmt 0             @ ../ThirdParty/STM32F4xx_HAL_Driver/Src/stm32f4xx_hal_tim.c:2351:23
	ldr	r0, [r1, #4]
	.loc	7 2351 47                       @ ../ThirdParty/STM32F4xx_HAL_Driver/Src/stm32f4xx_hal_tim.c:2351:47
	ldr	r1, [r1, #20]
	.loc	7 2351 35                       @ ../ThirdParty/STM32F4xx_HAL_Driver/Src/stm32f4xx_hal_tim.c:2351:35
	orr.w	r1, r0, r1, lsl #4
	.loc	7 2351 11                       @ ../ThirdParty/STM32F4xx_HAL_Driver/Src/stm32f4xx_hal_tim.c:2351:11
	ldr	r0, [sp]
	orrs	r0, r1
	str	r0, [sp]
	.loc	7 2354 26 is_stmt 1             @ ../ThirdParty/STM32F4xx_HAL_Driver/Src/stm32f4xx_hal_tim.c:2354:26
	ldr	r0, [sp, #8]
	.loc	7 2354 3 is_stmt 0              @ ../ThirdParty/STM32F4xx_HAL_Driver/Src/stm32f4xx_hal_tim.c:2354:3
	ldr	r1, [sp, #16]
	.loc	7 2354 9                        @ ../ThirdParty/STM32F4xx_HAL_Driver/Src/stm32f4xx_hal_tim.c:2354:9
	ldr	r1, [r1]
	.loc	7 2354 24                       @ ../ThirdParty/STM32F4xx_HAL_Driver/Src/stm32f4xx_hal_tim.c:2354:24
	str	r0, [r1, #8]
	.loc	7 2357 27 is_stmt 1             @ ../ThirdParty/STM32F4xx_HAL_Driver/Src/stm32f4xx_hal_tim.c:2357:27
	ldr	r0, [sp, #4]
	.loc	7 2357 3 is_stmt 0              @ ../ThirdParty/STM32F4xx_HAL_Driver/Src/stm32f4xx_hal_tim.c:2357:3
	ldr	r1, [sp, #16]
	.loc	7 2357 9                        @ ../ThirdParty/STM32F4xx_HAL_Driver/Src/stm32f4xx_hal_tim.c:2357:9
	ldr	r1, [r1]
	.loc	7 2357 25                       @ ../ThirdParty/STM32F4xx_HAL_Driver/Src/stm32f4xx_hal_tim.c:2357:25
	str	r0, [r1, #24]
	.loc	7 2360 26 is_stmt 1             @ ../ThirdParty/STM32F4xx_HAL_Driver/Src/stm32f4xx_hal_tim.c:2360:26
	ldr	r0, [sp]
	.loc	7 2360 3 is_stmt 0              @ ../ThirdParty/STM32F4xx_HAL_Driver/Src/stm32f4xx_hal_tim.c:2360:3
	ldr	r1, [sp, #16]
	.loc	7 2360 9                        @ ../ThirdParty/STM32F4xx_HAL_Driver/Src/stm32f4xx_hal_tim.c:2360:9
	ldr	r1, [r1]
	.loc	7 2360 24                       @ ../ThirdParty/STM32F4xx_HAL_Driver/Src/stm32f4xx_hal_tim.c:2360:24
	str	r0, [r1, #32]
	.loc	7 2363 3 is_stmt 1              @ ../ThirdParty/STM32F4xx_HAL_Driver/Src/stm32f4xx_hal_tim.c:2363:3
	ldr	r1, [sp, #16]
	movs	r0, #1
	.loc	7 2363 14 is_stmt 0             @ ../ThirdParty/STM32F4xx_HAL_Driver/Src/stm32f4xx_hal_tim.c:2363:14
	strb.w	r0, [r1, #57]
	movs	r0, #0
	.loc	7 2365 3 is_stmt 1              @ ../ThirdParty/STM32F4xx_HAL_Driver/Src/stm32f4xx_hal_tim.c:2365:3
	strb.w	r0, [sp, #23]
	b	.LBB54_5
.LBB54_5:
	.loc	7 2366 1                        @ ../ThirdParty/STM32F4xx_HAL_Driver/Src/stm32f4xx_hal_tim.c:2366:1
	ldrb.w	r0, [sp, #23]
	.loc	7 2366 1 epilogue_begin is_stmt 0 @ ../ThirdParty/STM32F4xx_HAL_Driver/Src/stm32f4xx_hal_tim.c:2366:1
	add	sp, #24
	pop	{r7, pc}
.Ltmp621:
.Lfunc_end54:
	.size	HAL_TIM_Encoder_Init, .Lfunc_end54-HAL_TIM_Encoder_Init
	.cfi_endproc
	.cantunwind
	.fnend
                                        @ -- End function
	.section	.text.HAL_TIM_Encoder_MspInit,"ax",%progbits
	.hidden	HAL_TIM_Encoder_MspInit         @ -- Begin function HAL_TIM_Encoder_MspInit
	.weak	HAL_TIM_Encoder_MspInit
	.p2align	2
	.type	HAL_TIM_Encoder_MspInit,%function
	.code	16                              @ @HAL_TIM_Encoder_MspInit
	.thumb_func
HAL_TIM_Encoder_MspInit:
.Lfunc_begin55:
	.loc	7 2403 0 is_stmt 1              @ ../ThirdParty/STM32F4xx_HAL_Driver/Src/stm32f4xx_hal_tim.c:2403:0
	.fnstart
	.cfi_startproc
@ %bb.0:
	.pad	#4
	sub	sp, #4
	.cfi_def_cfa_offset 4
	str	r0, [sp]
.Ltmp622:
	.loc	7 2409 1 prologue_end epilogue_begin @ ../ThirdParty/STM32F4xx_HAL_Driver/Src/stm32f4xx_hal_tim.c:2409:1
	add	sp, #4
	bx	lr
.Ltmp623:
.Lfunc_end55:
	.size	HAL_TIM_Encoder_MspInit, .Lfunc_end55-HAL_TIM_Encoder_MspInit
	.cfi_endproc
	.cantunwind
	.fnend
                                        @ -- End function
	.section	.text.HAL_TIM_Encoder_DeInit,"ax",%progbits
	.hidden	HAL_TIM_Encoder_DeInit          @ -- Begin function HAL_TIM_Encoder_DeInit
	.globl	HAL_TIM_Encoder_DeInit
	.p2align	2
	.type	HAL_TIM_Encoder_DeInit,%function
	.code	16                              @ @HAL_TIM_Encoder_DeInit
	.thumb_func
HAL_TIM_Encoder_DeInit:
.Lfunc_begin56:
	.loc	7 2375 0                        @ ../ThirdParty/STM32F4xx_HAL_Driver/Src/stm32f4xx_hal_tim.c:2375:0
	.fnstart
	.cfi_startproc
@ %bb.0:
	.save	{r7, lr}
	push	{r7, lr}
	.cfi_def_cfa_offset 8
	.cfi_offset lr, -4
	.cfi_offset r7, -8
	.pad	#8
	sub	sp, #8
	.cfi_def_cfa_offset 16
	str	r0, [sp, #4]
.Ltmp624:
	.loc	7 2379 3 prologue_end           @ ../ThirdParty/STM32F4xx_HAL_Driver/Src/stm32f4xx_hal_tim.c:2379:3
	ldr	r1, [sp, #4]
	movs	r0, #2
	.loc	7 2379 15 is_stmt 0             @ ../ThirdParty/STM32F4xx_HAL_Driver/Src/stm32f4xx_hal_tim.c:2379:15
	strb.w	r0, [r1, #57]
	.loc	7 2382 3 is_stmt 1              @ ../ThirdParty/STM32F4xx_HAL_Driver/Src/stm32f4xx_hal_tim.c:2382:3
	b	.LBB56_1
.LBB56_1:
.Ltmp625:
	.loc	7 2382 3 is_stmt 0              @ ../ThirdParty/STM32F4xx_HAL_Driver/Src/stm32f4xx_hal_tim.c:2382:3
	ldr	r0, [sp, #4]
	ldr	r0, [r0]
	ldr	r0, [r0, #32]
	movw	r1, #4369
.Ltmp626:
	.loc	7 2382 3                        @ ../ThirdParty/STM32F4xx_HAL_Driver/Src/stm32f4xx_hal_tim.c:2382:3
	tst	r0, r1
	bne	.LBB56_5
	b	.LBB56_2
.LBB56_2:
.Ltmp627:
	.loc	7 2382 3                        @ ../ThirdParty/STM32F4xx_HAL_Driver/Src/stm32f4xx_hal_tim.c:2382:3
	ldr	r0, [sp, #4]
	ldr	r0, [r0]
	ldr	r0, [r0, #32]
	movw	r1, #1092
.Ltmp628:
	.loc	7 2382 3                        @ ../ThirdParty/STM32F4xx_HAL_Driver/Src/stm32f4xx_hal_tim.c:2382:3
	tst	r0, r1
	bne	.LBB56_4
	b	.LBB56_3
.LBB56_3:
.Ltmp629:
	.loc	7 2382 3                        @ ../ThirdParty/STM32F4xx_HAL_Driver/Src/stm32f4xx_hal_tim.c:2382:3
	ldr	r0, [sp, #4]
	ldr	r1, [r0]
	ldr	r0, [r1]
	bic	r0, r0, #1
	str	r0, [r1]
	b	.LBB56_4
.Ltmp630:
.LBB56_4:
	.loc	7 2382 3                        @ ../ThirdParty/STM32F4xx_HAL_Driver/Src/stm32f4xx_hal_tim.c:2382:3
	b	.LBB56_5
.Ltmp631:
.LBB56_5:
	.loc	7 2382 3                        @ ../ThirdParty/STM32F4xx_HAL_Driver/Src/stm32f4xx_hal_tim.c:2382:3
	b	.LBB56_6
.Ltmp632:
.LBB56_6:
	.loc	7 2385 29 is_stmt 1             @ ../ThirdParty/STM32F4xx_HAL_Driver/Src/stm32f4xx_hal_tim.c:2385:29
	ldr	r0, [sp, #4]
	.loc	7 2385 3 is_stmt 0              @ ../ThirdParty/STM32F4xx_HAL_Driver/Src/stm32f4xx_hal_tim.c:2385:3
	bl	HAL_TIM_Encoder_MspDeInit
	.loc	7 2388 3 is_stmt 1              @ ../ThirdParty/STM32F4xx_HAL_Driver/Src/stm32f4xx_hal_tim.c:2388:3
	ldr	r1, [sp, #4]
	movs	r0, #0
	.loc	7 2388 15 is_stmt 0             @ ../ThirdParty/STM32F4xx_HAL_Driver/Src/stm32f4xx_hal_tim.c:2388:15
	strb.w	r0, [r1, #57]
	.loc	7 2391 3 is_stmt 1              @ ../ThirdParty/STM32F4xx_HAL_Driver/Src/stm32f4xx_hal_tim.c:2391:3
	b	.LBB56_7
.LBB56_7:
.Ltmp633:
	.loc	7 2391 3 is_stmt 0              @ ../ThirdParty/STM32F4xx_HAL_Driver/Src/stm32f4xx_hal_tim.c:2391:3
	ldr	r1, [sp, #4]
	movs	r0, #0
	strb.w	r0, [r1, #56]
	b	.LBB56_8
.Ltmp634:
.LBB56_8:
	.loc	7 0 3                           @ ../ThirdParty/STM32F4xx_HAL_Driver/Src/stm32f4xx_hal_tim.c:0:3
	movs	r0, #0
	.loc	7 2393 3 epilogue_begin is_stmt 1 @ ../ThirdParty/STM32F4xx_HAL_Driver/Src/stm32f4xx_hal_tim.c:2393:3
	add	sp, #8
	pop	{r7, pc}
.Ltmp635:
.Lfunc_end56:
	.size	HAL_TIM_Encoder_DeInit, .Lfunc_end56-HAL_TIM_Encoder_DeInit
	.cfi_endproc
	.cantunwind
	.fnend
                                        @ -- End function
	.section	.text.HAL_TIM_Encoder_MspDeInit,"ax",%progbits
	.hidden	HAL_TIM_Encoder_MspDeInit       @ -- Begin function HAL_TIM_Encoder_MspDeInit
	.weak	HAL_TIM_Encoder_MspDeInit
	.p2align	2
	.type	HAL_TIM_Encoder_MspDeInit,%function
	.code	16                              @ @HAL_TIM_Encoder_MspDeInit
	.thumb_func
HAL_TIM_Encoder_MspDeInit:
.Lfunc_begin57:
	.loc	7 2418 0                        @ ../ThirdParty/STM32F4xx_HAL_Driver/Src/stm32f4xx_hal_tim.c:2418:0
	.fnstart
	.cfi_startproc
@ %bb.0:
	.pad	#4
	sub	sp, #4
	.cfi_def_cfa_offset 4
	str	r0, [sp]
.Ltmp636:
	.loc	7 2424 1 prologue_end epilogue_begin @ ../ThirdParty/STM32F4xx_HAL_Driver/Src/stm32f4xx_hal_tim.c:2424:1
	add	sp, #4
	bx	lr
.Ltmp637:
.Lfunc_end57:
	.size	HAL_TIM_Encoder_MspDeInit, .Lfunc_end57-HAL_TIM_Encoder_MspDeInit
	.cfi_endproc
	.cantunwind
	.fnend
                                        @ -- End function
	.section	.text.HAL_TIM_Encoder_Start,"ax",%progbits
	.hidden	HAL_TIM_Encoder_Start           @ -- Begin function HAL_TIM_Encoder_Start
	.globl	HAL_TIM_Encoder_Start
	.p2align	2
	.type	HAL_TIM_Encoder_Start,%function
	.code	16                              @ @HAL_TIM_Encoder_Start
	.thumb_func
HAL_TIM_Encoder_Start:
.Lfunc_begin58:
	.loc	7 2438 0                        @ ../ThirdParty/STM32F4xx_HAL_Driver/Src/stm32f4xx_hal_tim.c:2438:0
	.fnstart
	.cfi_startproc
@ %bb.0:
	.save	{r7, lr}
	push	{r7, lr}
	.cfi_def_cfa_offset 8
	.cfi_offset lr, -4
	.cfi_offset r7, -8
	.pad	#16
	sub	sp, #16
	.cfi_def_cfa_offset 24
	str	r0, [sp, #12]
	str	r1, [sp, #8]
.Ltmp638:
	.loc	7 2443 11 prologue_end          @ ../ThirdParty/STM32F4xx_HAL_Driver/Src/stm32f4xx_hal_tim.c:2443:11
	ldr	r0, [sp, #8]
	.loc	7 2443 3 is_stmt 0              @ ../ThirdParty/STM32F4xx_HAL_Driver/Src/stm32f4xx_hal_tim.c:2443:3
	str	r0, [sp, #4]                    @ 4-byte Spill
	cbz	r0, .LBB58_2
	b	.LBB58_1
.LBB58_1:
	ldr	r0, [sp, #4]                    @ 4-byte Reload
	cmp	r0, #4
	beq	.LBB58_3
	b	.LBB58_4
.LBB58_2:
.Ltmp639:
	.loc	7 2447 25 is_stmt 1             @ ../ThirdParty/STM32F4xx_HAL_Driver/Src/stm32f4xx_hal_tim.c:2447:25
	ldr	r0, [sp, #12]
	.loc	7 2447 31 is_stmt 0             @ ../ThirdParty/STM32F4xx_HAL_Driver/Src/stm32f4xx_hal_tim.c:2447:31
	ldr	r0, [r0]
	movs	r1, #0
	movs	r2, #1
	.loc	7 2447 7                        @ ../ThirdParty/STM32F4xx_HAL_Driver/Src/stm32f4xx_hal_tim.c:2447:7
	bl	TIM_CCxChannelCmd
	.loc	7 2448 7 is_stmt 1              @ ../ThirdParty/STM32F4xx_HAL_Driver/Src/stm32f4xx_hal_tim.c:2448:7
	b	.LBB58_5
.Ltmp640:
.LBB58_3:
	.loc	7 2452 25                       @ ../ThirdParty/STM32F4xx_HAL_Driver/Src/stm32f4xx_hal_tim.c:2452:25
	ldr	r0, [sp, #12]
	.loc	7 2452 31 is_stmt 0             @ ../ThirdParty/STM32F4xx_HAL_Driver/Src/stm32f4xx_hal_tim.c:2452:31
	ldr	r0, [r0]
	movs	r1, #4
	movs	r2, #1
	.loc	7 2452 7                        @ ../ThirdParty/STM32F4xx_HAL_Driver/Src/stm32f4xx_hal_tim.c:2452:7
	bl	TIM_CCxChannelCmd
	.loc	7 2453 7 is_stmt 1              @ ../ThirdParty/STM32F4xx_HAL_Driver/Src/stm32f4xx_hal_tim.c:2453:7
	b	.LBB58_5
.Ltmp641:
.LBB58_4:
	.loc	7 2457 24                       @ ../ThirdParty/STM32F4xx_HAL_Driver/Src/stm32f4xx_hal_tim.c:2457:24
	ldr	r0, [sp, #12]
	.loc	7 2457 30 is_stmt 0             @ ../ThirdParty/STM32F4xx_HAL_Driver/Src/stm32f4xx_hal_tim.c:2457:30
	ldr	r0, [r0]
	movs	r1, #0
	movs	r2, #1
	.loc	7 2457 6                        @ ../ThirdParty/STM32F4xx_HAL_Driver/Src/stm32f4xx_hal_tim.c:2457:6
	str	r2, [sp]                        @ 4-byte Spill
	bl	TIM_CCxChannelCmd
	ldr	r2, [sp]                        @ 4-byte Reload
	.loc	7 2458 24 is_stmt 1             @ ../ThirdParty/STM32F4xx_HAL_Driver/Src/stm32f4xx_hal_tim.c:2458:24
	ldr	r0, [sp, #12]
	.loc	7 2458 30 is_stmt 0             @ ../ThirdParty/STM32F4xx_HAL_Driver/Src/stm32f4xx_hal_tim.c:2458:30
	ldr	r0, [r0]
	movs	r1, #4
	.loc	7 2458 6                        @ ../ThirdParty/STM32F4xx_HAL_Driver/Src/stm32f4xx_hal_tim.c:2458:6
	bl	TIM_CCxChannelCmd
	.loc	7 2459 6 is_stmt 1              @ ../ThirdParty/STM32F4xx_HAL_Driver/Src/stm32f4xx_hal_tim.c:2459:6
	b	.LBB58_5
.Ltmp642:
.LBB58_5:
	.loc	7 2463 3                        @ ../ThirdParty/STM32F4xx_HAL_Driver/Src/stm32f4xx_hal_tim.c:2463:3
	ldr	r0, [sp, #12]
	ldr	r1, [r0]
	ldr	r0, [r1]
	orr	r0, r0, #1
	str	r0, [r1]
	movs	r0, #0
	.loc	7 2466 3 epilogue_begin         @ ../ThirdParty/STM32F4xx_HAL_Driver/Src/stm32f4xx_hal_tim.c:2466:3
	add	sp, #16
	pop	{r7, pc}
.Ltmp643:
.Lfunc_end58:
	.size	HAL_TIM_Encoder_Start, .Lfunc_end58-HAL_TIM_Encoder_Start
	.cfi_endproc
	.cantunwind
	.fnend
                                        @ -- End function
