	.text
	.syntax unified
	.eabi_attribute	67, "2.09"	@ Tag_conformance
	.cpu	cortex-m4
	.eabi_attribute	6, 13	@ Tag_CPU_arch
	.eabi_attribute	7, 77	@ Tag_CPU_arch_profile
	.eabi_attribute	8, 0	@ Tag_ARM_ISA_use
	.eabi_attribute	9, 2	@ Tag_THUMB_ISA_use
	.fpu	fpv4-sp-d16
	.eabi_attribute	27, 1	@ Tag_ABI_HardFP_use
	.eabi_attribute	36, 1	@ Tag_FP_HP_extension
	.eabi_attribute	34, 1	@ Tag_CPU_unaligned_access
	.eabi_attribute	17, 1	@ Tag_ABI_PCS_GOT_use
	.eabi_attribute	20, 2	@ Tag_ABI_FP_denormal
	.eabi_attribute	21, 0	@ Tag_ABI_FP_exceptions
	.eabi_attribute	23, 1	@ Tag_ABI_FP_number_model
	.eabi_attribute	24, 1	@ Tag_ABI_align_needed
	.eabi_attribute	25, 1	@ Tag_ABI_align_preserved
	.eabi_attribute	28, 1	@ Tag_ABI_VFP_args
	.eabi_attribute	38, 1	@ Tag_ABI_FP_16bit_format
	.eabi_attribute	18, 2	@ Tag_ABI_PCS_wchar_t
	.eabi_attribute	26, 1	@ Tag_ABI_enum_size
	.eabi_attribute	14, 0	@ Tag_ABI_PCS_R9_use
	.file	"stm32f4xx_hal_uart.c"
	.file	1 "D:\\ikingtec\\Robot\\ODrive\\Firmware\\MDK-ARM" "../ThirdParty/STM32F4xx_HAL_Driver/Inc/stm32f4xx_hal_def.h"
	.file	2 "D:\\ikingtec\\Robot\\ODrive\\Firmware\\MDK-ARM" "../ThirdParty/STM32F4xx_HAL_Driver/Inc\\stm32f4xx_hal_dma.h"
	.file	3 "D:\\ikingtec\\Robot\\ODrive\\Firmware\\MDK-ARM" "../ThirdParty/STM32F4xx_HAL_Driver/Inc\\stm32f4xx_hal_uart.h"
	.file	4 "D:\\ikingtec\\Robot\\ODrive\\Firmware\\MDK-ARM" "../ThirdParty/CMSIS/Device/ST/STM32F4xx/Include\\stm32f4xx.h"
	.file	5 "D:\\Embed\\MDK\\MDK\\ARM\\ARMCompilerV621\\Bin\\..\\include" "stdint.h"
	.file	6 "D:\\ikingtec\\Robot\\ODrive\\Firmware\\MDK-ARM" "../ThirdParty/CMSIS/Device/ST/STM32F4xx/Include/stm32f405xx.h"
	.section	.text.HAL_UART_Init,"ax",%progbits
	.hidden	HAL_UART_Init                   @ -- Begin function HAL_UART_Init
	.globl	HAL_UART_Init
	.p2align	2
	.type	HAL_UART_Init,%function
	.code	16                              @ @HAL_UART_Init
	.thumb_func
HAL_UART_Init:
.Lfunc_begin0:
	.file	7 "D:\\ikingtec\\Robot\\ODrive\\Firmware\\MDK-ARM" "../ThirdParty/STM32F4xx_HAL_Driver/Src/stm32f4xx_hal_uart.c"
	.loc	7 245 0                         @ ../ThirdParty/STM32F4xx_HAL_Driver/Src/stm32f4xx_hal_uart.c:245:0
	.fnstart
	.cfi_sections .debug_frame
	.cfi_startproc
@ %bb.0:
	.save	{r7, lr}
	push	{r7, lr}
	.cfi_def_cfa_offset 8
	.cfi_offset lr, -4
	.cfi_offset r7, -8
	.pad	#8
	sub	sp, #8
	.cfi_def_cfa_offset 16
	str	r0, [sp]
.Ltmp0:
	.loc	7 247 6 prologue_end            @ ../ThirdParty/STM32F4xx_HAL_Driver/Src/stm32f4xx_hal_uart.c:247:6
	ldr	r0, [sp]
.Ltmp1:
	.loc	7 247 6 is_stmt 0               @ ../ThirdParty/STM32F4xx_HAL_Driver/Src/stm32f4xx_hal_uart.c:247:6
	cbnz	r0, .LBB0_2
	b	.LBB0_1
.LBB0_1:
	.loc	7 0 6                           @ ../ThirdParty/STM32F4xx_HAL_Driver/Src/stm32f4xx_hal_uart.c:0:6
	movs	r0, #1
.Ltmp2:
	.loc	7 249 5 is_stmt 1               @ ../ThirdParty/STM32F4xx_HAL_Driver/Src/stm32f4xx_hal_uart.c:249:5
	strb.w	r0, [sp, #7]
	b	.LBB0_8
.Ltmp3:
.LBB0_2:
	.loc	7 253 6                         @ ../ThirdParty/STM32F4xx_HAL_Driver/Src/stm32f4xx_hal_uart.c:253:6
	ldr	r0, [sp]
	.loc	7 253 18 is_stmt 0              @ ../ThirdParty/STM32F4xx_HAL_Driver/Src/stm32f4xx_hal_uart.c:253:18
	ldr	r0, [r0, #24]
.Ltmp4:
	.loc	7 253 6                         @ ../ThirdParty/STM32F4xx_HAL_Driver/Src/stm32f4xx_hal_uart.c:253:6
	cbz	r0, .LBB0_4
	b	.LBB0_3
.LBB0_3:
.Ltmp5:
	.loc	7 258 3 is_stmt 1               @ ../ThirdParty/STM32F4xx_HAL_Driver/Src/stm32f4xx_hal_uart.c:258:3
	b	.LBB0_5
.Ltmp6:
.LBB0_4:
	.loc	7 0 3 is_stmt 0                 @ ../ThirdParty/STM32F4xx_HAL_Driver/Src/stm32f4xx_hal_uart.c:0:3
	b	.LBB0_5
.LBB0_5:
.Ltmp7:
	.loc	7 266 6 is_stmt 1               @ ../ThirdParty/STM32F4xx_HAL_Driver/Src/stm32f4xx_hal_uart.c:266:6
	ldr	r0, [sp]
	.loc	7 266 13 is_stmt 0              @ ../ThirdParty/STM32F4xx_HAL_Driver/Src/stm32f4xx_hal_uart.c:266:13
	ldrb.w	r0, [r0, #57]
.Ltmp8:
	.loc	7 266 6                         @ ../ThirdParty/STM32F4xx_HAL_Driver/Src/stm32f4xx_hal_uart.c:266:6
	cbnz	r0, .LBB0_7
	b	.LBB0_6
.LBB0_6:
.Ltmp9:
	.loc	7 269 5 is_stmt 1               @ ../ThirdParty/STM32F4xx_HAL_Driver/Src/stm32f4xx_hal_uart.c:269:5
	ldr	r1, [sp]
	movs	r0, #0
	.loc	7 269 17 is_stmt 0              @ ../ThirdParty/STM32F4xx_HAL_Driver/Src/stm32f4xx_hal_uart.c:269:17
	strb.w	r0, [r1, #56]
	.loc	7 271 22 is_stmt 1              @ ../ThirdParty/STM32F4xx_HAL_Driver/Src/stm32f4xx_hal_uart.c:271:22
	ldr	r0, [sp]
	.loc	7 271 5 is_stmt 0               @ ../ThirdParty/STM32F4xx_HAL_Driver/Src/stm32f4xx_hal_uart.c:271:5
	bl	HAL_UART_MspInit
	.loc	7 272 3 is_stmt 1               @ ../ThirdParty/STM32F4xx_HAL_Driver/Src/stm32f4xx_hal_uart.c:272:3
	b	.LBB0_7
.Ltmp10:
.LBB0_7:
	.loc	7 274 3                         @ ../ThirdParty/STM32F4xx_HAL_Driver/Src/stm32f4xx_hal_uart.c:274:3
	ldr	r1, [sp]
	movs	r0, #36
	.loc	7 274 17 is_stmt 0              @ ../ThirdParty/STM32F4xx_HAL_Driver/Src/stm32f4xx_hal_uart.c:274:17
	strb.w	r0, [r1, #57]
	.loc	7 277 3 is_stmt 1               @ ../ThirdParty/STM32F4xx_HAL_Driver/Src/stm32f4xx_hal_uart.c:277:3
	ldr	r0, [sp]
	ldr	r1, [r0]
	ldr	r0, [r1, #12]
	bic	r0, r0, #8192
	str	r0, [r1, #12]
	.loc	7 280 18                        @ ../ThirdParty/STM32F4xx_HAL_Driver/Src/stm32f4xx_hal_uart.c:280:18
	ldr	r0, [sp]
	.loc	7 280 3 is_stmt 0               @ ../ThirdParty/STM32F4xx_HAL_Driver/Src/stm32f4xx_hal_uart.c:280:3
	bl	UART_SetConfig
	.loc	7 285 3 is_stmt 1               @ ../ThirdParty/STM32F4xx_HAL_Driver/Src/stm32f4xx_hal_uart.c:285:3
	ldr	r0, [sp]
	ldr	r1, [r0]
	ldr	r0, [r1, #16]
	bic	r0, r0, #18432
	str	r0, [r1, #16]
	.loc	7 286 3                         @ ../ThirdParty/STM32F4xx_HAL_Driver/Src/stm32f4xx_hal_uart.c:286:3
	ldr	r0, [sp]
	ldr	r1, [r0]
	ldr	r0, [r1, #20]
	bic	r0, r0, #42
	str	r0, [r1, #20]
	.loc	7 289 3                         @ ../ThirdParty/STM32F4xx_HAL_Driver/Src/stm32f4xx_hal_uart.c:289:3
	ldr	r0, [sp]
	ldr	r1, [r0]
	ldr	r0, [r1, #12]
	orr	r0, r0, #8192
	str	r0, [r1, #12]
	.loc	7 292 3                         @ ../ThirdParty/STM32F4xx_HAL_Driver/Src/stm32f4xx_hal_uart.c:292:3
	ldr	r1, [sp]
	movs	r0, #0
	.loc	7 292 20 is_stmt 0              @ ../ThirdParty/STM32F4xx_HAL_Driver/Src/stm32f4xx_hal_uart.c:292:20
	str	r0, [r1, #60]
	.loc	7 293 3 is_stmt 1               @ ../ThirdParty/STM32F4xx_HAL_Driver/Src/stm32f4xx_hal_uart.c:293:3
	ldr	r2, [sp]
	movs	r1, #32
	.loc	7 293 16 is_stmt 0              @ ../ThirdParty/STM32F4xx_HAL_Driver/Src/stm32f4xx_hal_uart.c:293:16
	strb.w	r1, [r2, #57]
	.loc	7 294 3 is_stmt 1               @ ../ThirdParty/STM32F4xx_HAL_Driver/Src/stm32f4xx_hal_uart.c:294:3
	ldr	r2, [sp]
	.loc	7 294 17 is_stmt 0              @ ../ThirdParty/STM32F4xx_HAL_Driver/Src/stm32f4xx_hal_uart.c:294:17
	strb.w	r1, [r2, #58]
	.loc	7 296 3 is_stmt 1               @ ../ThirdParty/STM32F4xx_HAL_Driver/Src/stm32f4xx_hal_uart.c:296:3
	strb.w	r0, [sp, #7]
	b	.LBB0_8
.LBB0_8:
	.loc	7 297 1                         @ ../ThirdParty/STM32F4xx_HAL_Driver/Src/stm32f4xx_hal_uart.c:297:1
	ldrb.w	r0, [sp, #7]
	.loc	7 297 1 epilogue_begin is_stmt 0 @ ../ThirdParty/STM32F4xx_HAL_Driver/Src/stm32f4xx_hal_uart.c:297:1
	add	sp, #8
	pop	{r7, pc}
.Ltmp11:
.Lfunc_end0:
	.size	HAL_UART_Init, .Lfunc_end0-HAL_UART_Init
	.cfi_endproc
	.cantunwind
	.fnend
                                        @ -- End function
	.section	.text.HAL_UART_MspInit,"ax",%progbits
	.hidden	HAL_UART_MspInit                @ -- Begin function HAL_UART_MspInit
	.weak	HAL_UART_MspInit
	.p2align	2
	.type	HAL_UART_MspInit,%function
	.code	16                              @ @HAL_UART_MspInit
	.thumb_func
HAL_UART_MspInit:
.Lfunc_begin1:
	.loc	7 528 0 is_stmt 1               @ ../ThirdParty/STM32F4xx_HAL_Driver/Src/stm32f4xx_hal_uart.c:528:0
	.fnstart
	.cfi_startproc
@ %bb.0:
	.pad	#4
	sub	sp, #4
	.cfi_def_cfa_offset 4
	str	r0, [sp]
.Ltmp12:
	.loc	7 534 1 prologue_end epilogue_begin @ ../ThirdParty/STM32F4xx_HAL_Driver/Src/stm32f4xx_hal_uart.c:534:1
	add	sp, #4
	bx	lr
.Ltmp13:
.Lfunc_end1:
	.size	HAL_UART_MspInit, .Lfunc_end1-HAL_UART_MspInit
	.cfi_endproc
	.cantunwind
	.fnend
                                        @ -- End function
	.section	.text.UART_SetConfig,"ax",%progbits
	.p2align	2                               @ -- Begin function UART_SetConfig
	.type	UART_SetConfig,%function
	.code	16                              @ @UART_SetConfig
	.thumb_func
UART_SetConfig:
.Lfunc_begin2:
	.loc	7 2433 0                        @ ../ThirdParty/STM32F4xx_HAL_Driver/Src/stm32f4xx_hal_uart.c:2433:0
	.fnstart
	.cfi_startproc
@ %bb.0:
	.save	{r4, r5, r7, lr}
	push	{r4, r5, r7, lr}
	.cfi_def_cfa_offset 16
	.cfi_offset lr, -4
	.cfi_offset r7, -8
	.cfi_offset r5, -12
	.cfi_offset r4, -16
	.pad	#120
	sub	sp, #120
	.cfi_def_cfa_offset 136
	str	r0, [sp, #116]
	movs	r0, #0
.Ltmp14:
	.loc	7 2434 12 prologue_end          @ ../ThirdParty/STM32F4xx_HAL_Driver/Src/stm32f4xx_hal_uart.c:2434:12
	str	r0, [sp, #112]
	.loc	7 2443 12                       @ ../ThirdParty/STM32F4xx_HAL_Driver/Src/stm32f4xx_hal_uart.c:2443:12
	ldr	r0, [sp, #116]
	.loc	7 2443 19 is_stmt 0             @ ../ThirdParty/STM32F4xx_HAL_Driver/Src/stm32f4xx_hal_uart.c:2443:19
	ldr	r0, [r0]
	.loc	7 2443 29                       @ ../ThirdParty/STM32F4xx_HAL_Driver/Src/stm32f4xx_hal_uart.c:2443:29
	ldr	r0, [r0, #16]
	.loc	7 2443 10                       @ ../ThirdParty/STM32F4xx_HAL_Driver/Src/stm32f4xx_hal_uart.c:2443:10
	str	r0, [sp, #112]
	.loc	7 2446 10 is_stmt 1             @ ../ThirdParty/STM32F4xx_HAL_Driver/Src/stm32f4xx_hal_uart.c:2446:10
	ldr	r0, [sp, #112]
	bic	r0, r0, #12288
	str	r0, [sp, #112]
	.loc	7 2449 23                       @ ../ThirdParty/STM32F4xx_HAL_Driver/Src/stm32f4xx_hal_uart.c:2449:23
	ldr	r0, [sp, #116]
	.loc	7 2449 35 is_stmt 0             @ ../ThirdParty/STM32F4xx_HAL_Driver/Src/stm32f4xx_hal_uart.c:2449:35
	ldr	r1, [r0, #12]
	.loc	7 2449 10                       @ ../ThirdParty/STM32F4xx_HAL_Driver/Src/stm32f4xx_hal_uart.c:2449:10
	ldr	r0, [sp, #112]
	orrs	r0, r1
	str	r0, [sp, #112]
	.loc	7 2452 3 is_stmt 1              @ ../ThirdParty/STM32F4xx_HAL_Driver/Src/stm32f4xx_hal_uart.c:2452:3
	ldr	r0, [sp, #112]
	ldr	r1, [sp, #116]
	ldr	r1, [r1]
	str	r0, [r1, #16]
	.loc	7 2455 12                       @ ../ThirdParty/STM32F4xx_HAL_Driver/Src/stm32f4xx_hal_uart.c:2455:12
	ldr	r0, [sp, #116]
	.loc	7 2455 19 is_stmt 0             @ ../ThirdParty/STM32F4xx_HAL_Driver/Src/stm32f4xx_hal_uart.c:2455:19
	ldr	r0, [r0]
	.loc	7 2455 29                       @ ../ThirdParty/STM32F4xx_HAL_Driver/Src/stm32f4xx_hal_uart.c:2455:29
	ldr	r0, [r0, #12]
	.loc	7 2455 10                       @ ../ThirdParty/STM32F4xx_HAL_Driver/Src/stm32f4xx_hal_uart.c:2455:10
	str	r0, [sp, #112]
	.loc	7 2458 10 is_stmt 1             @ ../ThirdParty/STM32F4xx_HAL_Driver/Src/stm32f4xx_hal_uart.c:2458:10
	ldr	r0, [sp, #112]
	movw	r1, #38412
	bics	r0, r1
	str	r0, [sp, #112]
	.loc	7 2466 23                       @ ../ThirdParty/STM32F4xx_HAL_Driver/Src/stm32f4xx_hal_uart.c:2466:23
	ldr	r1, [sp, #116]
	.loc	7 2466 35 is_stmt 0             @ ../ThirdParty/STM32F4xx_HAL_Driver/Src/stm32f4xx_hal_uart.c:2466:35
	ldr	r0, [r1, #8]
	.loc	7 2466 60                       @ ../ThirdParty/STM32F4xx_HAL_Driver/Src/stm32f4xx_hal_uart.c:2466:60
	ldr	r3, [r1, #16]
	.loc	7 2466 81                       @ ../ThirdParty/STM32F4xx_HAL_Driver/Src/stm32f4xx_hal_uart.c:2466:81
	ldr	r2, [r1, #20]
	.loc	7 2466 100                      @ ../ThirdParty/STM32F4xx_HAL_Driver/Src/stm32f4xx_hal_uart.c:2466:100
	ldr	r1, [r1, #28]
	.loc	7 2466 46                       @ ../ThirdParty/STM32F4xx_HAL_Driver/Src/stm32f4xx_hal_uart.c:2466:46
	orrs	r0, r3
	.loc	7 2466 67                       @ ../ThirdParty/STM32F4xx_HAL_Driver/Src/stm32f4xx_hal_uart.c:2466:67
	orrs	r0, r2
	.loc	7 2466 86                       @ ../ThirdParty/STM32F4xx_HAL_Driver/Src/stm32f4xx_hal_uart.c:2466:86
	orrs	r1, r0
	.loc	7 2466 10                       @ ../ThirdParty/STM32F4xx_HAL_Driver/Src/stm32f4xx_hal_uart.c:2466:10
	ldr	r0, [sp, #112]
	orrs	r0, r1
	str	r0, [sp, #112]
	.loc	7 2469 3 is_stmt 1              @ ../ThirdParty/STM32F4xx_HAL_Driver/Src/stm32f4xx_hal_uart.c:2469:3
	ldr	r0, [sp, #112]
	ldr	r1, [sp, #116]
	ldr	r1, [r1]
	str	r0, [r1, #12]
	.loc	7 2472 12                       @ ../ThirdParty/STM32F4xx_HAL_Driver/Src/stm32f4xx_hal_uart.c:2472:12
	ldr	r0, [sp, #116]
	.loc	7 2472 19 is_stmt 0             @ ../ThirdParty/STM32F4xx_HAL_Driver/Src/stm32f4xx_hal_uart.c:2472:19
	ldr	r0, [r0]
	.loc	7 2472 29                       @ ../ThirdParty/STM32F4xx_HAL_Driver/Src/stm32f4xx_hal_uart.c:2472:29
	ldr	r0, [r0, #20]
	.loc	7 2472 10                       @ ../ThirdParty/STM32F4xx_HAL_Driver/Src/stm32f4xx_hal_uart.c:2472:10
	str	r0, [sp, #112]
	.loc	7 2475 10 is_stmt 1             @ ../ThirdParty/STM32F4xx_HAL_Driver/Src/stm32f4xx_hal_uart.c:2475:10
	ldr	r0, [sp, #112]
	bic	r0, r0, #768
	str	r0, [sp, #112]
	.loc	7 2478 13                       @ ../ThirdParty/STM32F4xx_HAL_Driver/Src/stm32f4xx_hal_uart.c:2478:13
	ldr	r0, [sp, #116]
	.loc	7 2478 25 is_stmt 0             @ ../ThirdParty/STM32F4xx_HAL_Driver/Src/stm32f4xx_hal_uart.c:2478:25
	ldr	r1, [r0, #24]
	.loc	7 2478 10                       @ ../ThirdParty/STM32F4xx_HAL_Driver/Src/stm32f4xx_hal_uart.c:2478:10
	ldr	r0, [sp, #112]
	orrs	r0, r1
	str	r0, [sp, #112]
	.loc	7 2481 3 is_stmt 1              @ ../ThirdParty/STM32F4xx_HAL_Driver/Src/stm32f4xx_hal_uart.c:2481:3
	ldr	r0, [sp, #112]
	ldr	r1, [sp, #116]
	ldr	r1, [r1]
	str	r0, [r1, #20]
.Ltmp15:
	.loc	7 2484 6                        @ ../ThirdParty/STM32F4xx_HAL_Driver/Src/stm32f4xx_hal_uart.c:2484:6
	ldr	r0, [sp, #116]
	.loc	7 2484 18 is_stmt 0             @ ../ThirdParty/STM32F4xx_HAL_Driver/Src/stm32f4xx_hal_uart.c:2484:18
	ldr	r0, [r0, #28]
.Ltmp16:
	.loc	7 2484 6                        @ ../ThirdParty/STM32F4xx_HAL_Driver/Src/stm32f4xx_hal_uart.c:2484:6
	cmp.w	r0, #32768
	bne.w	.LBB2_6
	b	.LBB2_1
.LBB2_1:
.Ltmp17:
	.loc	7 2488 9 is_stmt 1              @ ../ThirdParty/STM32F4xx_HAL_Driver/Src/stm32f4xx_hal_uart.c:2488:9
	ldr	r0, [sp, #116]
	.loc	7 2488 16 is_stmt 0             @ ../ThirdParty/STM32F4xx_HAL_Driver/Src/stm32f4xx_hal_uart.c:2488:16
	ldr	r0, [r0]
	movw	r1, #4096
	movt	r1, #16385
	.loc	7 2488 36                       @ ../ThirdParty/STM32F4xx_HAL_Driver/Src/stm32f4xx_hal_uart.c:2488:36
	cmp	r0, r1
	beq	.LBB2_3
	b	.LBB2_2
.LBB2_2:
	.loc	7 2488 40                       @ ../ThirdParty/STM32F4xx_HAL_Driver/Src/stm32f4xx_hal_uart.c:2488:40
	ldr	r0, [sp, #116]
	.loc	7 2488 47                       @ ../ThirdParty/STM32F4xx_HAL_Driver/Src/stm32f4xx_hal_uart.c:2488:47
	ldr	r0, [r0]
	movw	r1, #5120
	movt	r1, #16385
.Ltmp18:
	.loc	7 2488 8                        @ ../ThirdParty/STM32F4xx_HAL_Driver/Src/stm32f4xx_hal_uart.c:2488:8
	cmp	r0, r1
	bne	.LBB2_4
	b	.LBB2_3
.LBB2_3:
.Ltmp19:
	.loc	7 2490 30 is_stmt 1             @ ../ThirdParty/STM32F4xx_HAL_Driver/Src/stm32f4xx_hal_uart.c:2490:30
	bl	HAL_RCC_GetPCLK2Freq
	movs	r1, #25
	str	r1, [sp, #92]                   @ 4-byte Spill
	muls	r0, r1, r0
	ldr	r1, [sp, #116]
	ldr	r1, [r1, #4]
	lsls	r1, r1, #1
	udiv	r0, r0, r1
	movw	r1, #34079
	movt	r1, #20971
	str	r1, [sp, #100]                  @ 4-byte Spill
	umull	r0, r1, r0, r1
	mvn	r0, #15
	and.w	r0, r0, r1, lsr #1
	str	r0, [sp, #88]                   @ 4-byte Spill
	bl	HAL_RCC_GetPCLK2Freq
	ldr	r1, [sp, #92]                   @ 4-byte Reload
	muls	r0, r1, r0
	ldr	r1, [sp, #116]
	ldr	r1, [r1, #4]
	lsls	r1, r1, #1
	udiv	r0, r0, r1
	str	r0, [sp, #84]                   @ 4-byte Spill
	bl	HAL_RCC_GetPCLK2Freq
	ldr.w	r12, [sp, #84]                  @ 4-byte Reload
	ldr	r3, [sp, #92]                   @ 4-byte Reload
	ldr	r2, [sp, #100]                  @ 4-byte Reload
	mov	r1, r0
	ldr	r0, [sp, #88]                   @ 4-byte Reload
	muls	r1, r3, r1
	ldr	r3, [sp, #116]
	ldr	r3, [r3, #4]
	lsls	r3, r3, #1
	udiv	r1, r1, r3
	umull	r3, r1, r1, r2
	lsrs	r1, r1, #5
	movs	r3, #100
	str	r3, [sp, #104]                  @ 4-byte Spill
	mls	r3, r1, r3, r12
	movs	r1, #50
	str	r1, [sp, #96]                   @ 4-byte Spill
	add.w	r1, r1, r3, lsl #3
	umull	r1, r2, r1, r2
	movs	r1, #248
	and.w	r1, r1, r2, lsr #5
	add.w	r0, r0, r1, lsl #1
	str	r0, [sp, #108]                  @ 4-byte Spill
	bl	HAL_RCC_GetPCLK2Freq
	ldr	r1, [sp, #92]                   @ 4-byte Reload
	muls	r0, r1, r0
	ldr	r1, [sp, #116]
	ldr	r1, [r1, #4]
	lsls	r1, r1, #1
	udiv	r4, r0, r1
	bl	HAL_RCC_GetPCLK2Freq
	ldr.w	r12, [sp, #92]                  @ 4-byte Reload
	ldr	r2, [sp, #96]                   @ 4-byte Reload
	ldr	r3, [sp, #100]                  @ 4-byte Reload
	ldr.w	lr, [sp, #104]                  @ 4-byte Reload
	mov	r1, r0
	ldr	r0, [sp, #108]                  @ 4-byte Reload
	mul	r12, r1, r12
	ldr	r5, [sp, #116]
	.loc	7 2490 14 is_stmt 0             @ ../ThirdParty/STM32F4xx_HAL_Driver/Src/stm32f4xx_hal_uart.c:2490:14
	ldr	r1, [r5]
	.loc	7 2490 30                       @ ../ThirdParty/STM32F4xx_HAL_Driver/Src/stm32f4xx_hal_uart.c:2490:30
	ldr	r5, [r5, #4]
	lsls	r5, r5, #1
	udiv	r12, r12, r5
	umull	r5, r12, r12, r3
	lsr.w	r12, r12, #5
	mls	r12, r12, lr, r4
	add.w	r2, r2, r12, lsl #3
	umull	r3, r2, r2, r3
	ubfx	r2, r2, #5, #3
	add	r0, r2
	.loc	7 2490 28                       @ ../ThirdParty/STM32F4xx_HAL_Driver/Src/stm32f4xx_hal_uart.c:2490:28
	str	r0, [r1, #8]
	.loc	7 2491 5 is_stmt 1              @ ../ThirdParty/STM32F4xx_HAL_Driver/Src/stm32f4xx_hal_uart.c:2491:5
	b	.LBB2_5
.Ltmp20:
.LBB2_4:
	.loc	7 2500 30                       @ ../ThirdParty/STM32F4xx_HAL_Driver/Src/stm32f4xx_hal_uart.c:2500:30
	bl	HAL_RCC_GetPCLK1Freq
	movs	r1, #25
	str	r1, [sp, #64]                   @ 4-byte Spill
	muls	r0, r1, r0
	ldr	r1, [sp, #116]
	ldr	r1, [r1, #4]
	lsls	r1, r1, #1
	udiv	r0, r0, r1
	movw	r1, #34079
	movt	r1, #20971
	str	r1, [sp, #72]                   @ 4-byte Spill
	umull	r0, r1, r0, r1
	mvn	r0, #15
	and.w	r0, r0, r1, lsr #1
	str	r0, [sp, #60]                   @ 4-byte Spill
	bl	HAL_RCC_GetPCLK1Freq
	ldr	r1, [sp, #64]                   @ 4-byte Reload
	muls	r0, r1, r0
	ldr	r1, [sp, #116]
	ldr	r1, [r1, #4]
	lsls	r1, r1, #1
	udiv	r0, r0, r1
	str	r0, [sp, #56]                   @ 4-byte Spill
	bl	HAL_RCC_GetPCLK1Freq
	ldr.w	r12, [sp, #56]                  @ 4-byte Reload
	ldr	r3, [sp, #64]                   @ 4-byte Reload
	ldr	r2, [sp, #72]                   @ 4-byte Reload
	mov	r1, r0
	ldr	r0, [sp, #60]                   @ 4-byte Reload
	muls	r1, r3, r1
	ldr	r3, [sp, #116]
	ldr	r3, [r3, #4]
	lsls	r3, r3, #1
	udiv	r1, r1, r3
	umull	r3, r1, r1, r2
	lsrs	r1, r1, #5
	movs	r3, #100
	str	r3, [sp, #76]                   @ 4-byte Spill
	mls	r3, r1, r3, r12
	movs	r1, #50
	str	r1, [sp, #68]                   @ 4-byte Spill
	add.w	r1, r1, r3, lsl #3
	umull	r1, r2, r1, r2
	movs	r1, #248
	and.w	r1, r1, r2, lsr #5
	add.w	r0, r0, r1, lsl #1
	str	r0, [sp, #80]                   @ 4-byte Spill
	bl	HAL_RCC_GetPCLK1Freq
	ldr	r1, [sp, #64]                   @ 4-byte Reload
	muls	r0, r1, r0
	ldr	r1, [sp, #116]
	ldr	r1, [r1, #4]
	lsls	r1, r1, #1
	udiv	r4, r0, r1
	bl	HAL_RCC_GetPCLK1Freq
	ldr.w	r12, [sp, #64]                  @ 4-byte Reload
	ldr	r2, [sp, #68]                   @ 4-byte Reload
	ldr	r3, [sp, #72]                   @ 4-byte Reload
	ldr.w	lr, [sp, #76]                   @ 4-byte Reload
	mov	r1, r0
	ldr	r0, [sp, #80]                   @ 4-byte Reload
	mul	r12, r1, r12
	ldr	r5, [sp, #116]
	.loc	7 2500 14 is_stmt 0             @ ../ThirdParty/STM32F4xx_HAL_Driver/Src/stm32f4xx_hal_uart.c:2500:14
	ldr	r1, [r5]
	.loc	7 2500 30                       @ ../ThirdParty/STM32F4xx_HAL_Driver/Src/stm32f4xx_hal_uart.c:2500:30
	ldr	r5, [r5, #4]
	lsls	r5, r5, #1
	udiv	r12, r12, r5
	umull	r5, r12, r12, r3
	lsr.w	r12, r12, #5
	mls	r12, r12, lr, r4
	add.w	r2, r2, r12, lsl #3
	umull	r3, r2, r2, r3
	ubfx	r2, r2, #5, #3
	add	r0, r2
	.loc	7 2500 28                       @ ../ThirdParty/STM32F4xx_HAL_Driver/Src/stm32f4xx_hal_uart.c:2500:28
	str	r0, [r1, #8]
	b	.LBB2_5
.Ltmp21:
.LBB2_5:
	.loc	7 2502 3 is_stmt 1              @ ../ThirdParty/STM32F4xx_HAL_Driver/Src/stm32f4xx_hal_uart.c:2502:3
	b	.LBB2_11
.Ltmp22:
.LBB2_6:
	.loc	7 2507 9                        @ ../ThirdParty/STM32F4xx_HAL_Driver/Src/stm32f4xx_hal_uart.c:2507:9
	ldr	r0, [sp, #116]
	.loc	7 2507 16 is_stmt 0             @ ../ThirdParty/STM32F4xx_HAL_Driver/Src/stm32f4xx_hal_uart.c:2507:16
	ldr	r0, [r0]
	movw	r1, #4096
	movt	r1, #16385
	.loc	7 2507 36                       @ ../ThirdParty/STM32F4xx_HAL_Driver/Src/stm32f4xx_hal_uart.c:2507:36
	cmp	r0, r1
	beq	.LBB2_8
	b	.LBB2_7
.LBB2_7:
	.loc	7 2507 40                       @ ../ThirdParty/STM32F4xx_HAL_Driver/Src/stm32f4xx_hal_uart.c:2507:40
	ldr	r0, [sp, #116]
	.loc	7 2507 47                       @ ../ThirdParty/STM32F4xx_HAL_Driver/Src/stm32f4xx_hal_uart.c:2507:47
	ldr	r0, [r0]
	movw	r1, #5120
	movt	r1, #16385
.Ltmp23:
	.loc	7 2507 8                        @ ../ThirdParty/STM32F4xx_HAL_Driver/Src/stm32f4xx_hal_uart.c:2507:8
	cmp	r0, r1
	bne	.LBB2_9
	b	.LBB2_8
.LBB2_8:
.Ltmp24:
	.loc	7 2509 30 is_stmt 1             @ ../ThirdParty/STM32F4xx_HAL_Driver/Src/stm32f4xx_hal_uart.c:2509:30
	bl	HAL_RCC_GetPCLK2Freq
	movs	r1, #25
	str	r1, [sp, #36]                   @ 4-byte Spill
	muls	r0, r1, r0
	ldr	r1, [sp, #116]
	ldr	r1, [r1, #4]
	lsls	r1, r1, #2
	udiv	r0, r0, r1
	movw	r1, #34079
	movt	r1, #20971
	str	r1, [sp, #44]                   @ 4-byte Spill
	umull	r0, r1, r0, r1
	mvn	r0, #15
	and.w	r0, r0, r1, lsr #1
	str	r0, [sp, #32]                   @ 4-byte Spill
	bl	HAL_RCC_GetPCLK2Freq
	ldr	r1, [sp, #36]                   @ 4-byte Reload
	muls	r0, r1, r0
	ldr	r1, [sp, #116]
	ldr	r1, [r1, #4]
	lsls	r1, r1, #2
	udiv	r0, r0, r1
	str	r0, [sp, #28]                   @ 4-byte Spill
	bl	HAL_RCC_GetPCLK2Freq
	ldr.w	r12, [sp, #28]                  @ 4-byte Reload
	ldr	r3, [sp, #36]                   @ 4-byte Reload
	ldr	r2, [sp, #44]                   @ 4-byte Reload
	mov	r1, r0
	ldr	r0, [sp, #32]                   @ 4-byte Reload
	muls	r1, r3, r1
	ldr	r3, [sp, #116]
	ldr	r3, [r3, #4]
	lsls	r3, r3, #2
	udiv	r1, r1, r3
	umull	r3, r1, r1, r2
	lsrs	r1, r1, #5
	movs	r3, #100
	str	r3, [sp, #48]                   @ 4-byte Spill
	mls	r3, r1, r3, r12
	movs	r1, #50
	str	r1, [sp, #40]                   @ 4-byte Spill
	add.w	r1, r1, r3, lsl #4
	umull	r1, r2, r1, r2
	movs	r1, #240
	and.w	r1, r1, r2, lsr #5
	add	r0, r1
	str	r0, [sp, #52]                   @ 4-byte Spill
	bl	HAL_RCC_GetPCLK2Freq
	ldr	r1, [sp, #36]                   @ 4-byte Reload
	muls	r0, r1, r0
	ldr	r1, [sp, #116]
	ldr	r1, [r1, #4]
	lsls	r1, r1, #2
	udiv	r4, r0, r1
	bl	HAL_RCC_GetPCLK2Freq
	ldr.w	r12, [sp, #36]                  @ 4-byte Reload
	ldr	r2, [sp, #40]                   @ 4-byte Reload
	ldr	r3, [sp, #44]                   @ 4-byte Reload
	ldr.w	lr, [sp, #48]                   @ 4-byte Reload
	mov	r1, r0
	ldr	r0, [sp, #52]                   @ 4-byte Reload
	mul	r12, r1, r12
	ldr	r5, [sp, #116]
	.loc	7 2509 14 is_stmt 0             @ ../ThirdParty/STM32F4xx_HAL_Driver/Src/stm32f4xx_hal_uart.c:2509:14
	ldr	r1, [r5]
	.loc	7 2509 30                       @ ../ThirdParty/STM32F4xx_HAL_Driver/Src/stm32f4xx_hal_uart.c:2509:30
	ldr	r5, [r5, #4]
	lsls	r5, r5, #2
	udiv	r12, r12, r5
	umull	r5, r12, r12, r3
	lsr.w	r12, r12, #5
	mls	r12, r12, lr, r4
	add.w	r2, r2, r12, lsl #4
	umull	r3, r2, r2, r3
	ubfx	r2, r2, #5, #4
	add	r0, r2
	.loc	7 2509 28                       @ ../ThirdParty/STM32F4xx_HAL_Driver/Src/stm32f4xx_hal_uart.c:2509:28
	str	r0, [r1, #8]
	.loc	7 2510 5 is_stmt 1              @ ../ThirdParty/STM32F4xx_HAL_Driver/Src/stm32f4xx_hal_uart.c:2510:5
	b	.LBB2_10
.Ltmp25:
.LBB2_9:
	.loc	7 2519 30                       @ ../ThirdParty/STM32F4xx_HAL_Driver/Src/stm32f4xx_hal_uart.c:2519:30
	bl	HAL_RCC_GetPCLK1Freq
	movs	r1, #25
	str	r1, [sp, #8]                    @ 4-byte Spill
	muls	r0, r1, r0
	ldr	r1, [sp, #116]
	ldr	r1, [r1, #4]
	lsls	r1, r1, #2
	udiv	r0, r0, r1
	movw	r1, #34079
	movt	r1, #20971
	str	r1, [sp, #16]                   @ 4-byte Spill
	umull	r0, r1, r0, r1
	mvn	r0, #15
	and.w	r0, r0, r1, lsr #1
	str	r0, [sp, #4]                    @ 4-byte Spill
	bl	HAL_RCC_GetPCLK1Freq
	ldr	r1, [sp, #8]                    @ 4-byte Reload
	muls	r0, r1, r0
	ldr	r1, [sp, #116]
	ldr	r1, [r1, #4]
	lsls	r1, r1, #2
	udiv	r0, r0, r1
	str	r0, [sp]                        @ 4-byte Spill
	bl	HAL_RCC_GetPCLK1Freq
	ldr.w	r12, [sp]                       @ 4-byte Reload
	ldr	r3, [sp, #8]                    @ 4-byte Reload
	ldr	r2, [sp, #16]                   @ 4-byte Reload
	mov	r1, r0
	ldr	r0, [sp, #4]                    @ 4-byte Reload
	muls	r1, r3, r1
	ldr	r3, [sp, #116]
	ldr	r3, [r3, #4]
	lsls	r3, r3, #2
	udiv	r1, r1, r3
	umull	r3, r1, r1, r2
	lsrs	r1, r1, #5
	movs	r3, #100
	str	r3, [sp, #20]                   @ 4-byte Spill
	mls	r3, r1, r3, r12
	movs	r1, #50
	str	r1, [sp, #12]                   @ 4-byte Spill
	add.w	r1, r1, r3, lsl #4
	umull	r1, r2, r1, r2
	movs	r1, #240
	and.w	r1, r1, r2, lsr #5
	add	r0, r1
	str	r0, [sp, #24]                   @ 4-byte Spill
	bl	HAL_RCC_GetPCLK1Freq
	ldr	r1, [sp, #8]                    @ 4-byte Reload
	muls	r0, r1, r0
	ldr	r1, [sp, #116]
	ldr	r1, [r1, #4]
	lsls	r1, r1, #2
	udiv	r4, r0, r1
	bl	HAL_RCC_GetPCLK1Freq
	ldr.w	r12, [sp, #8]                   @ 4-byte Reload
	ldr	r2, [sp, #12]                   @ 4-byte Reload
	ldr	r3, [sp, #16]                   @ 4-byte Reload
	ldr.w	lr, [sp, #20]                   @ 4-byte Reload
	mov	r1, r0
	ldr	r0, [sp, #24]                   @ 4-byte Reload
	mul	r12, r1, r12
	ldr	r5, [sp, #116]
	.loc	7 2519 14 is_stmt 0             @ ../ThirdParty/STM32F4xx_HAL_Driver/Src/stm32f4xx_hal_uart.c:2519:14
	ldr	r1, [r5]
	.loc	7 2519 30                       @ ../ThirdParty/STM32F4xx_HAL_Driver/Src/stm32f4xx_hal_uart.c:2519:30
	ldr	r5, [r5, #4]
	lsls	r5, r5, #2
	udiv	r12, r12, r5
	umull	r5, r12, r12, r3
	lsr.w	r12, r12, #5
	mls	r12, r12, lr, r4
	add.w	r2, r2, r12, lsl #4
	umull	r3, r2, r2, r3
	ubfx	r2, r2, #5, #4
	add	r0, r2
	.loc	7 2519 28                       @ ../ThirdParty/STM32F4xx_HAL_Driver/Src/stm32f4xx_hal_uart.c:2519:28
	str	r0, [r1, #8]
	b	.LBB2_10
.Ltmp26:
.LBB2_10:
	.loc	7 0 28                          @ ../ThirdParty/STM32F4xx_HAL_Driver/Src/stm32f4xx_hal_uart.c:0:28
	b	.LBB2_11
.LBB2_11:
	.loc	7 2522 1 epilogue_begin is_stmt 1 @ ../ThirdParty/STM32F4xx_HAL_Driver/Src/stm32f4xx_hal_uart.c:2522:1
	add	sp, #120
	pop	{r4, r5, r7, pc}
.Ltmp27:
.Lfunc_end2:
	.size	UART_SetConfig, .Lfunc_end2-UART_SetConfig
	.cfi_endproc
	.cantunwind
	.fnend
                                        @ -- End function
	.section	.text.HAL_HalfDuplex_Init,"ax",%progbits
	.hidden	HAL_HalfDuplex_Init             @ -- Begin function HAL_HalfDuplex_Init
	.globl	HAL_HalfDuplex_Init
	.p2align	2
	.type	HAL_HalfDuplex_Init,%function
	.code	16                              @ @HAL_HalfDuplex_Init
	.thumb_func
HAL_HalfDuplex_Init:
.Lfunc_begin3:
	.loc	7 307 0                         @ ../ThirdParty/STM32F4xx_HAL_Driver/Src/stm32f4xx_hal_uart.c:307:0
	.fnstart
	.cfi_startproc
@ %bb.0:
	.save	{r7, lr}
	push	{r7, lr}
	.cfi_def_cfa_offset 8
	.cfi_offset lr, -4
	.cfi_offset r7, -8
	.pad	#8
	sub	sp, #8
	.cfi_def_cfa_offset 16
	str	r0, [sp]
.Ltmp28:
	.loc	7 309 6 prologue_end            @ ../ThirdParty/STM32F4xx_HAL_Driver/Src/stm32f4xx_hal_uart.c:309:6
	ldr	r0, [sp]
.Ltmp29:
	.loc	7 309 6 is_stmt 0               @ ../ThirdParty/STM32F4xx_HAL_Driver/Src/stm32f4xx_hal_uart.c:309:6
	cbnz	r0, .LBB3_2
	b	.LBB3_1
.LBB3_1:
	.loc	7 0 6                           @ ../ThirdParty/STM32F4xx_HAL_Driver/Src/stm32f4xx_hal_uart.c:0:6
	movs	r0, #1
.Ltmp30:
	.loc	7 311 5 is_stmt 1               @ ../ThirdParty/STM32F4xx_HAL_Driver/Src/stm32f4xx_hal_uart.c:311:5
	strb.w	r0, [sp, #7]
	b	.LBB3_5
.Ltmp31:
.LBB3_2:
	.loc	7 319 6                         @ ../ThirdParty/STM32F4xx_HAL_Driver/Src/stm32f4xx_hal_uart.c:319:6
	ldr	r0, [sp]
	.loc	7 319 13 is_stmt 0              @ ../ThirdParty/STM32F4xx_HAL_Driver/Src/stm32f4xx_hal_uart.c:319:13
	ldrb.w	r0, [r0, #57]
.Ltmp32:
	.loc	7 319 6                         @ ../ThirdParty/STM32F4xx_HAL_Driver/Src/stm32f4xx_hal_uart.c:319:6
	cbnz	r0, .LBB3_4
	b	.LBB3_3
.LBB3_3:
.Ltmp33:
	.loc	7 322 5 is_stmt 1               @ ../ThirdParty/STM32F4xx_HAL_Driver/Src/stm32f4xx_hal_uart.c:322:5
	ldr	r1, [sp]
	movs	r0, #0
	.loc	7 322 17 is_stmt 0              @ ../ThirdParty/STM32F4xx_HAL_Driver/Src/stm32f4xx_hal_uart.c:322:17
	strb.w	r0, [r1, #56]
	.loc	7 324 22 is_stmt 1              @ ../ThirdParty/STM32F4xx_HAL_Driver/Src/stm32f4xx_hal_uart.c:324:22
	ldr	r0, [sp]
	.loc	7 324 5 is_stmt 0               @ ../ThirdParty/STM32F4xx_HAL_Driver/Src/stm32f4xx_hal_uart.c:324:5
	bl	HAL_UART_MspInit
	.loc	7 325 3 is_stmt 1               @ ../ThirdParty/STM32F4xx_HAL_Driver/Src/stm32f4xx_hal_uart.c:325:3
	b	.LBB3_4
.Ltmp34:
.LBB3_4:
	.loc	7 327 3                         @ ../ThirdParty/STM32F4xx_HAL_Driver/Src/stm32f4xx_hal_uart.c:327:3
	ldr	r1, [sp]
	movs	r0, #36
	.loc	7 327 17 is_stmt 0              @ ../ThirdParty/STM32F4xx_HAL_Driver/Src/stm32f4xx_hal_uart.c:327:17
	strb.w	r0, [r1, #57]
	.loc	7 330 3 is_stmt 1               @ ../ThirdParty/STM32F4xx_HAL_Driver/Src/stm32f4xx_hal_uart.c:330:3
	ldr	r0, [sp]
	ldr	r1, [r0]
	ldr	r0, [r1, #12]
	bic	r0, r0, #8192
	str	r0, [r1, #12]
	.loc	7 333 18                        @ ../ThirdParty/STM32F4xx_HAL_Driver/Src/stm32f4xx_hal_uart.c:333:18
	ldr	r0, [sp]
	.loc	7 333 3 is_stmt 0               @ ../ThirdParty/STM32F4xx_HAL_Driver/Src/stm32f4xx_hal_uart.c:333:3
	bl	UART_SetConfig
	.loc	7 338 3 is_stmt 1               @ ../ThirdParty/STM32F4xx_HAL_Driver/Src/stm32f4xx_hal_uart.c:338:3
	ldr	r0, [sp]
	ldr	r1, [r0]
	ldr	r0, [r1, #16]
	bic	r0, r0, #18432
	str	r0, [r1, #16]
	.loc	7 339 3                         @ ../ThirdParty/STM32F4xx_HAL_Driver/Src/stm32f4xx_hal_uart.c:339:3
	ldr	r0, [sp]
	ldr	r1, [r0]
	ldr	r0, [r1, #20]
	bic	r0, r0, #34
	str	r0, [r1, #20]
	.loc	7 342 3                         @ ../ThirdParty/STM32F4xx_HAL_Driver/Src/stm32f4xx_hal_uart.c:342:3
	ldr	r0, [sp]
	ldr	r1, [r0]
	ldr	r0, [r1, #20]
	orr	r0, r0, #8
	str	r0, [r1, #20]
	.loc	7 345 3                         @ ../ThirdParty/STM32F4xx_HAL_Driver/Src/stm32f4xx_hal_uart.c:345:3
	ldr	r0, [sp]
	ldr	r1, [r0]
	ldr	r0, [r1, #12]
	orr	r0, r0, #8192
	str	r0, [r1, #12]
	.loc	7 348 3                         @ ../ThirdParty/STM32F4xx_HAL_Driver/Src/stm32f4xx_hal_uart.c:348:3
	ldr	r1, [sp]
	movs	r0, #0
	.loc	7 348 20 is_stmt 0              @ ../ThirdParty/STM32F4xx_HAL_Driver/Src/stm32f4xx_hal_uart.c:348:20
	str	r0, [r1, #60]
	.loc	7 349 3 is_stmt 1               @ ../ThirdParty/STM32F4xx_HAL_Driver/Src/stm32f4xx_hal_uart.c:349:3
	ldr	r2, [sp]
	movs	r1, #32
	.loc	7 349 16 is_stmt 0              @ ../ThirdParty/STM32F4xx_HAL_Driver/Src/stm32f4xx_hal_uart.c:349:16
	strb.w	r1, [r2, #57]
	.loc	7 350 3 is_stmt 1               @ ../ThirdParty/STM32F4xx_HAL_Driver/Src/stm32f4xx_hal_uart.c:350:3
	ldr	r2, [sp]
	.loc	7 350 17 is_stmt 0              @ ../ThirdParty/STM32F4xx_HAL_Driver/Src/stm32f4xx_hal_uart.c:350:17
	strb.w	r1, [r2, #58]
	.loc	7 352 3 is_stmt 1               @ ../ThirdParty/STM32F4xx_HAL_Driver/Src/stm32f4xx_hal_uart.c:352:3
	strb.w	r0, [sp, #7]
	b	.LBB3_5
.LBB3_5:
	.loc	7 353 1                         @ ../ThirdParty/STM32F4xx_HAL_Driver/Src/stm32f4xx_hal_uart.c:353:1
	ldrb.w	r0, [sp, #7]
	.loc	7 353 1 epilogue_begin is_stmt 0 @ ../ThirdParty/STM32F4xx_HAL_Driver/Src/stm32f4xx_hal_uart.c:353:1
	add	sp, #8
	pop	{r7, pc}
.Ltmp35:
.Lfunc_end3:
	.size	HAL_HalfDuplex_Init, .Lfunc_end3-HAL_HalfDuplex_Init
	.cfi_endproc
	.cantunwind
	.fnend
                                        @ -- End function
	.section	.text.HAL_LIN_Init,"ax",%progbits
	.hidden	HAL_LIN_Init                    @ -- Begin function HAL_LIN_Init
	.globl	HAL_LIN_Init
	.p2align	2
	.type	HAL_LIN_Init,%function
	.code	16                              @ @HAL_LIN_Init
	.thumb_func
HAL_LIN_Init:
.Lfunc_begin4:
	.loc	7 367 0 is_stmt 1               @ ../ThirdParty/STM32F4xx_HAL_Driver/Src/stm32f4xx_hal_uart.c:367:0
	.fnstart
	.cfi_startproc
@ %bb.0:
	.save	{r7, lr}
	push	{r7, lr}
	.cfi_def_cfa_offset 8
	.cfi_offset lr, -4
	.cfi_offset r7, -8
	.pad	#16
	sub	sp, #16
	.cfi_def_cfa_offset 24
	str	r0, [sp, #8]
	str	r1, [sp, #4]
.Ltmp36:
	.loc	7 369 6 prologue_end            @ ../ThirdParty/STM32F4xx_HAL_Driver/Src/stm32f4xx_hal_uart.c:369:6
	ldr	r0, [sp, #8]
.Ltmp37:
	.loc	7 369 6 is_stmt 0               @ ../ThirdParty/STM32F4xx_HAL_Driver/Src/stm32f4xx_hal_uart.c:369:6
	cbnz	r0, .LBB4_2
	b	.LBB4_1
.LBB4_1:
	.loc	7 0 6                           @ ../ThirdParty/STM32F4xx_HAL_Driver/Src/stm32f4xx_hal_uart.c:0:6
	movs	r0, #1
.Ltmp38:
	.loc	7 371 5 is_stmt 1               @ ../ThirdParty/STM32F4xx_HAL_Driver/Src/stm32f4xx_hal_uart.c:371:5
	strb.w	r0, [sp, #15]
	b	.LBB4_5
.Ltmp39:
.LBB4_2:
	.loc	7 380 6                         @ ../ThirdParty/STM32F4xx_HAL_Driver/Src/stm32f4xx_hal_uart.c:380:6
	ldr	r0, [sp, #8]
	.loc	7 380 13 is_stmt 0              @ ../ThirdParty/STM32F4xx_HAL_Driver/Src/stm32f4xx_hal_uart.c:380:13
	ldrb.w	r0, [r0, #57]
.Ltmp40:
	.loc	7 380 6                         @ ../ThirdParty/STM32F4xx_HAL_Driver/Src/stm32f4xx_hal_uart.c:380:6
	cbnz	r0, .LBB4_4
	b	.LBB4_3
.LBB4_3:
.Ltmp41:
	.loc	7 383 5 is_stmt 1               @ ../ThirdParty/STM32F4xx_HAL_Driver/Src/stm32f4xx_hal_uart.c:383:5
	ldr	r1, [sp, #8]
	movs	r0, #0
	.loc	7 383 17 is_stmt 0              @ ../ThirdParty/STM32F4xx_HAL_Driver/Src/stm32f4xx_hal_uart.c:383:17
	strb.w	r0, [r1, #56]
	.loc	7 385 22 is_stmt 1              @ ../ThirdParty/STM32F4xx_HAL_Driver/Src/stm32f4xx_hal_uart.c:385:22
	ldr	r0, [sp, #8]
	.loc	7 385 5 is_stmt 0               @ ../ThirdParty/STM32F4xx_HAL_Driver/Src/stm32f4xx_hal_uart.c:385:5
	bl	HAL_UART_MspInit
	.loc	7 386 3 is_stmt 1               @ ../ThirdParty/STM32F4xx_HAL_Driver/Src/stm32f4xx_hal_uart.c:386:3
	b	.LBB4_4
.Ltmp42:
.LBB4_4:
	.loc	7 388 3                         @ ../ThirdParty/STM32F4xx_HAL_Driver/Src/stm32f4xx_hal_uart.c:388:3
	ldr	r1, [sp, #8]
	movs	r0, #36
	.loc	7 388 17 is_stmt 0              @ ../ThirdParty/STM32F4xx_HAL_Driver/Src/stm32f4xx_hal_uart.c:388:17
	strb.w	r0, [r1, #57]
	.loc	7 391 3 is_stmt 1               @ ../ThirdParty/STM32F4xx_HAL_Driver/Src/stm32f4xx_hal_uart.c:391:3
	ldr	r0, [sp, #8]
	ldr	r1, [r0]
	ldr	r0, [r1, #12]
	bic	r0, r0, #8192
	str	r0, [r1, #12]
	.loc	7 394 18                        @ ../ThirdParty/STM32F4xx_HAL_Driver/Src/stm32f4xx_hal_uart.c:394:18
	ldr	r0, [sp, #8]
	.loc	7 394 3 is_stmt 0               @ ../ThirdParty/STM32F4xx_HAL_Driver/Src/stm32f4xx_hal_uart.c:394:3
	bl	UART_SetConfig
	.loc	7 399 3 is_stmt 1               @ ../ThirdParty/STM32F4xx_HAL_Driver/Src/stm32f4xx_hal_uart.c:399:3
	ldr	r0, [sp, #8]
	ldr	r1, [r0]
	ldr	r0, [r1, #16]
	bic	r0, r0, #2048
	str	r0, [r1, #16]
	.loc	7 400 3                         @ ../ThirdParty/STM32F4xx_HAL_Driver/Src/stm32f4xx_hal_uart.c:400:3
	ldr	r0, [sp, #8]
	ldr	r1, [r0]
	ldr	r0, [r1, #20]
	bic	r0, r0, #42
	str	r0, [r1, #20]
	.loc	7 403 3                         @ ../ThirdParty/STM32F4xx_HAL_Driver/Src/stm32f4xx_hal_uart.c:403:3
	ldr	r0, [sp, #8]
	ldr	r1, [r0]
	ldr	r0, [r1, #16]
	orr	r0, r0, #16384
	str	r0, [r1, #16]
	.loc	7 406 3                         @ ../ThirdParty/STM32F4xx_HAL_Driver/Src/stm32f4xx_hal_uart.c:406:3
	ldr	r0, [sp, #8]
	ldr	r1, [r0]
	ldr	r0, [r1, #16]
	bic	r0, r0, #32
	str	r0, [r1, #16]
	.loc	7 407 3                         @ ../ThirdParty/STM32F4xx_HAL_Driver/Src/stm32f4xx_hal_uart.c:407:3
	ldr	r2, [sp, #4]
	ldr	r0, [sp, #8]
	ldr	r1, [r0]
	ldr	r0, [r1, #16]
	orrs	r0, r2
	str	r0, [r1, #16]
	.loc	7 410 3                         @ ../ThirdParty/STM32F4xx_HAL_Driver/Src/stm32f4xx_hal_uart.c:410:3
	ldr	r0, [sp, #8]
	ldr	r1, [r0]
	ldr	r0, [r1, #12]
	orr	r0, r0, #8192
	str	r0, [r1, #12]
	.loc	7 413 3                         @ ../ThirdParty/STM32F4xx_HAL_Driver/Src/stm32f4xx_hal_uart.c:413:3
	ldr	r1, [sp, #8]
	movs	r0, #0
	.loc	7 413 20 is_stmt 0              @ ../ThirdParty/STM32F4xx_HAL_Driver/Src/stm32f4xx_hal_uart.c:413:20
	str	r0, [r1, #60]
	.loc	7 414 3 is_stmt 1               @ ../ThirdParty/STM32F4xx_HAL_Driver/Src/stm32f4xx_hal_uart.c:414:3
	ldr	r2, [sp, #8]
	movs	r1, #32
	.loc	7 414 16 is_stmt 0              @ ../ThirdParty/STM32F4xx_HAL_Driver/Src/stm32f4xx_hal_uart.c:414:16
	strb.w	r1, [r2, #57]
	.loc	7 415 3 is_stmt 1               @ ../ThirdParty/STM32F4xx_HAL_Driver/Src/stm32f4xx_hal_uart.c:415:3
	ldr	r2, [sp, #8]
	.loc	7 415 17 is_stmt 0              @ ../ThirdParty/STM32F4xx_HAL_Driver/Src/stm32f4xx_hal_uart.c:415:17
	strb.w	r1, [r2, #58]
	.loc	7 417 3 is_stmt 1               @ ../ThirdParty/STM32F4xx_HAL_Driver/Src/stm32f4xx_hal_uart.c:417:3
	strb.w	r0, [sp, #15]
	b	.LBB4_5
.LBB4_5:
	.loc	7 418 1                         @ ../ThirdParty/STM32F4xx_HAL_Driver/Src/stm32f4xx_hal_uart.c:418:1
	ldrb.w	r0, [sp, #15]
	.loc	7 418 1 epilogue_begin is_stmt 0 @ ../ThirdParty/STM32F4xx_HAL_Driver/Src/stm32f4xx_hal_uart.c:418:1
	add	sp, #16
	pop	{r7, pc}
.Ltmp43:
.Lfunc_end4:
	.size	HAL_LIN_Init, .Lfunc_end4-HAL_LIN_Init
	.cfi_endproc
	.cantunwind
	.fnend
                                        @ -- End function
	.section	.text.HAL_MultiProcessor_Init,"ax",%progbits
	.hidden	HAL_MultiProcessor_Init         @ -- Begin function HAL_MultiProcessor_Init
	.globl	HAL_MultiProcessor_Init
	.p2align	2
	.type	HAL_MultiProcessor_Init,%function
	.code	16                              @ @HAL_MultiProcessor_Init
	.thumb_func
HAL_MultiProcessor_Init:
.Lfunc_begin5:
	.loc	7 433 0 is_stmt 1               @ ../ThirdParty/STM32F4xx_HAL_Driver/Src/stm32f4xx_hal_uart.c:433:0
	.fnstart
	.cfi_startproc
@ %bb.0:
	.save	{r7, lr}
	push	{r7, lr}
	.cfi_def_cfa_offset 8
	.cfi_offset lr, -4
	.cfi_offset r7, -8
	.pad	#16
	sub	sp, #16
	.cfi_def_cfa_offset 24
                                        @ kill: def $r3 killed $r1
	str	r0, [sp, #8]
	strb.w	r1, [sp, #7]
	str	r2, [sp]
.Ltmp44:
	.loc	7 435 6 prologue_end            @ ../ThirdParty/STM32F4xx_HAL_Driver/Src/stm32f4xx_hal_uart.c:435:6
	ldr	r0, [sp, #8]
.Ltmp45:
	.loc	7 435 6 is_stmt 0               @ ../ThirdParty/STM32F4xx_HAL_Driver/Src/stm32f4xx_hal_uart.c:435:6
	cbnz	r0, .LBB5_2
	b	.LBB5_1
.LBB5_1:
	.loc	7 0 6                           @ ../ThirdParty/STM32F4xx_HAL_Driver/Src/stm32f4xx_hal_uart.c:0:6
	movs	r0, #1
.Ltmp46:
	.loc	7 437 5 is_stmt 1               @ ../ThirdParty/STM32F4xx_HAL_Driver/Src/stm32f4xx_hal_uart.c:437:5
	strb.w	r0, [sp, #15]
	b	.LBB5_5
.Ltmp47:
.LBB5_2:
	.loc	7 447 6                         @ ../ThirdParty/STM32F4xx_HAL_Driver/Src/stm32f4xx_hal_uart.c:447:6
	ldr	r0, [sp, #8]
	.loc	7 447 13 is_stmt 0              @ ../ThirdParty/STM32F4xx_HAL_Driver/Src/stm32f4xx_hal_uart.c:447:13
	ldrb.w	r0, [r0, #57]
.Ltmp48:
	.loc	7 447 6                         @ ../ThirdParty/STM32F4xx_HAL_Driver/Src/stm32f4xx_hal_uart.c:447:6
	cbnz	r0, .LBB5_4
	b	.LBB5_3
.LBB5_3:
.Ltmp49:
	.loc	7 450 5 is_stmt 1               @ ../ThirdParty/STM32F4xx_HAL_Driver/Src/stm32f4xx_hal_uart.c:450:5
	ldr	r1, [sp, #8]
	movs	r0, #0
	.loc	7 450 17 is_stmt 0              @ ../ThirdParty/STM32F4xx_HAL_Driver/Src/stm32f4xx_hal_uart.c:450:17
	strb.w	r0, [r1, #56]
	.loc	7 452 22 is_stmt 1              @ ../ThirdParty/STM32F4xx_HAL_Driver/Src/stm32f4xx_hal_uart.c:452:22
	ldr	r0, [sp, #8]
	.loc	7 452 5 is_stmt 0               @ ../ThirdParty/STM32F4xx_HAL_Driver/Src/stm32f4xx_hal_uart.c:452:5
	bl	HAL_UART_MspInit
	.loc	7 453 3 is_stmt 1               @ ../ThirdParty/STM32F4xx_HAL_Driver/Src/stm32f4xx_hal_uart.c:453:3
	b	.LBB5_4
.Ltmp50:
.LBB5_4:
	.loc	7 455 3                         @ ../ThirdParty/STM32F4xx_HAL_Driver/Src/stm32f4xx_hal_uart.c:455:3
	ldr	r1, [sp, #8]
	movs	r0, #36
	.loc	7 455 17 is_stmt 0              @ ../ThirdParty/STM32F4xx_HAL_Driver/Src/stm32f4xx_hal_uart.c:455:17
	strb.w	r0, [r1, #57]
	.loc	7 458 3 is_stmt 1               @ ../ThirdParty/STM32F4xx_HAL_Driver/Src/stm32f4xx_hal_uart.c:458:3
	ldr	r0, [sp, #8]
	ldr	r1, [r0]
	ldr	r0, [r1, #12]
	bic	r0, r0, #8192
	str	r0, [r1, #12]
	.loc	7 461 18                        @ ../ThirdParty/STM32F4xx_HAL_Driver/Src/stm32f4xx_hal_uart.c:461:18
	ldr	r0, [sp, #8]
	.loc	7 461 3 is_stmt 0               @ ../ThirdParty/STM32F4xx_HAL_Driver/Src/stm32f4xx_hal_uart.c:461:3
	bl	UART_SetConfig
	.loc	7 466 3 is_stmt 1               @ ../ThirdParty/STM32F4xx_HAL_Driver/Src/stm32f4xx_hal_uart.c:466:3
	ldr	r0, [sp, #8]
	ldr	r1, [r0]
	ldr	r0, [r1, #16]
	bic	r0, r0, #18432
	str	r0, [r1, #16]
	.loc	7 467 3                         @ ../ThirdParty/STM32F4xx_HAL_Driver/Src/stm32f4xx_hal_uart.c:467:3
	ldr	r0, [sp, #8]
	ldr	r1, [r0]
	ldr	r0, [r1, #20]
	bic	r0, r0, #42
	str	r0, [r1, #20]
	.loc	7 470 3                         @ ../ThirdParty/STM32F4xx_HAL_Driver/Src/stm32f4xx_hal_uart.c:470:3
	ldr	r0, [sp, #8]
	ldr	r1, [r0]
	ldr	r0, [r1, #16]
	bic	r0, r0, #15
	str	r0, [r1, #16]
	.loc	7 472 3                         @ ../ThirdParty/STM32F4xx_HAL_Driver/Src/stm32f4xx_hal_uart.c:472:3
	ldrb.w	r2, [sp, #7]
	ldr	r0, [sp, #8]
	ldr	r1, [r0]
	ldr	r0, [r1, #16]
	orrs	r0, r2
	str	r0, [r1, #16]
	.loc	7 475 3                         @ ../ThirdParty/STM32F4xx_HAL_Driver/Src/stm32f4xx_hal_uart.c:475:3
	ldr	r0, [sp, #8]
	ldr	r1, [r0]
	ldr	r0, [r1, #12]
	bic	r0, r0, #2048
	str	r0, [r1, #12]
	.loc	7 476 3                         @ ../ThirdParty/STM32F4xx_HAL_Driver/Src/stm32f4xx_hal_uart.c:476:3
	ldr	r2, [sp]
	ldr	r0, [sp, #8]
	ldr	r1, [r0]
	ldr	r0, [r1, #12]
	orrs	r0, r2
	str	r0, [r1, #12]
	.loc	7 479 3                         @ ../ThirdParty/STM32F4xx_HAL_Driver/Src/stm32f4xx_hal_uart.c:479:3
	ldr	r0, [sp, #8]
	ldr	r1, [r0]
	ldr	r0, [r1, #12]
	orr	r0, r0, #8192
	str	r0, [r1, #12]
	.loc	7 482 3                         @ ../ThirdParty/STM32F4xx_HAL_Driver/Src/stm32f4xx_hal_uart.c:482:3
	ldr	r1, [sp, #8]
	movs	r0, #0
	.loc	7 482 20 is_stmt 0              @ ../ThirdParty/STM32F4xx_HAL_Driver/Src/stm32f4xx_hal_uart.c:482:20
	str	r0, [r1, #60]
	.loc	7 483 3 is_stmt 1               @ ../ThirdParty/STM32F4xx_HAL_Driver/Src/stm32f4xx_hal_uart.c:483:3
	ldr	r2, [sp, #8]
	movs	r1, #32
	.loc	7 483 16 is_stmt 0              @ ../ThirdParty/STM32F4xx_HAL_Driver/Src/stm32f4xx_hal_uart.c:483:16
	strb.w	r1, [r2, #57]
	.loc	7 484 3 is_stmt 1               @ ../ThirdParty/STM32F4xx_HAL_Driver/Src/stm32f4xx_hal_uart.c:484:3
	ldr	r2, [sp, #8]
	.loc	7 484 17 is_stmt 0              @ ../ThirdParty/STM32F4xx_HAL_Driver/Src/stm32f4xx_hal_uart.c:484:17
	strb.w	r1, [r2, #58]
	.loc	7 486 3 is_stmt 1               @ ../ThirdParty/STM32F4xx_HAL_Driver/Src/stm32f4xx_hal_uart.c:486:3
	strb.w	r0, [sp, #15]
	b	.LBB5_5
.LBB5_5:
	.loc	7 487 1                         @ ../ThirdParty/STM32F4xx_HAL_Driver/Src/stm32f4xx_hal_uart.c:487:1
	ldrb.w	r0, [sp, #15]
	.loc	7 487 1 epilogue_begin is_stmt 0 @ ../ThirdParty/STM32F4xx_HAL_Driver/Src/stm32f4xx_hal_uart.c:487:1
	add	sp, #16
	pop	{r7, pc}
.Ltmp51:
.Lfunc_end5:
	.size	HAL_MultiProcessor_Init, .Lfunc_end5-HAL_MultiProcessor_Init
	.cfi_endproc
	.cantunwind
	.fnend
                                        @ -- End function
	.section	.text.HAL_UART_DeInit,"ax",%progbits
	.hidden	HAL_UART_DeInit                 @ -- Begin function HAL_UART_DeInit
	.globl	HAL_UART_DeInit
	.p2align	2
	.type	HAL_UART_DeInit,%function
	.code	16                              @ @HAL_UART_DeInit
	.thumb_func
HAL_UART_DeInit:
.Lfunc_begin6:
	.loc	7 496 0 is_stmt 1               @ ../ThirdParty/STM32F4xx_HAL_Driver/Src/stm32f4xx_hal_uart.c:496:0
	.fnstart
	.cfi_startproc
@ %bb.0:
	.save	{r7, lr}
	push	{r7, lr}
	.cfi_def_cfa_offset 8
	.cfi_offset lr, -4
	.cfi_offset r7, -8
	.pad	#8
	sub	sp, #8
	.cfi_def_cfa_offset 16
	str	r0, [sp]
.Ltmp52:
	.loc	7 498 6 prologue_end            @ ../ThirdParty/STM32F4xx_HAL_Driver/Src/stm32f4xx_hal_uart.c:498:6
	ldr	r0, [sp]
.Ltmp53:
	.loc	7 498 6 is_stmt 0               @ ../ThirdParty/STM32F4xx_HAL_Driver/Src/stm32f4xx_hal_uart.c:498:6
	cbnz	r0, .LBB6_2
	b	.LBB6_1
.LBB6_1:
	.loc	7 0 6                           @ ../ThirdParty/STM32F4xx_HAL_Driver/Src/stm32f4xx_hal_uart.c:0:6
	movs	r0, #1
.Ltmp54:
	.loc	7 500 5 is_stmt 1               @ ../ThirdParty/STM32F4xx_HAL_Driver/Src/stm32f4xx_hal_uart.c:500:5
	strb.w	r0, [sp, #7]
	b	.LBB6_5
.Ltmp55:
.LBB6_2:
	.loc	7 506 3                         @ ../ThirdParty/STM32F4xx_HAL_Driver/Src/stm32f4xx_hal_uart.c:506:3
	ldr	r1, [sp]
	movs	r0, #36
	.loc	7 506 17 is_stmt 0              @ ../ThirdParty/STM32F4xx_HAL_Driver/Src/stm32f4xx_hal_uart.c:506:17
	strb.w	r0, [r1, #57]
	.loc	7 509 22 is_stmt 1              @ ../ThirdParty/STM32F4xx_HAL_Driver/Src/stm32f4xx_hal_uart.c:509:22
	ldr	r0, [sp]
	.loc	7 509 3 is_stmt 0               @ ../ThirdParty/STM32F4xx_HAL_Driver/Src/stm32f4xx_hal_uart.c:509:3
	bl	HAL_UART_MspDeInit
	.loc	7 511 3 is_stmt 1               @ ../ThirdParty/STM32F4xx_HAL_Driver/Src/stm32f4xx_hal_uart.c:511:3
	ldr	r1, [sp]
	movs	r0, #0
	.loc	7 511 20 is_stmt 0              @ ../ThirdParty/STM32F4xx_HAL_Driver/Src/stm32f4xx_hal_uart.c:511:20
	str	r0, [r1, #60]
	.loc	7 512 3 is_stmt 1               @ ../ThirdParty/STM32F4xx_HAL_Driver/Src/stm32f4xx_hal_uart.c:512:3
	ldr	r1, [sp]
	.loc	7 512 17 is_stmt 0              @ ../ThirdParty/STM32F4xx_HAL_Driver/Src/stm32f4xx_hal_uart.c:512:17
	strb.w	r0, [r1, #57]
	.loc	7 513 3 is_stmt 1               @ ../ThirdParty/STM32F4xx_HAL_Driver/Src/stm32f4xx_hal_uart.c:513:3
	ldr	r1, [sp]
	.loc	7 513 18 is_stmt 0              @ ../ThirdParty/STM32F4xx_HAL_Driver/Src/stm32f4xx_hal_uart.c:513:18
	strb.w	r0, [r1, #58]
	.loc	7 516 3 is_stmt 1               @ ../ThirdParty/STM32F4xx_HAL_Driver/Src/stm32f4xx_hal_uart.c:516:3
	b	.LBB6_3
.LBB6_3:
.Ltmp56:
	.loc	7 516 3 is_stmt 0               @ ../ThirdParty/STM32F4xx_HAL_Driver/Src/stm32f4xx_hal_uart.c:516:3
	ldr	r1, [sp]
	movs	r0, #0
	strb.w	r0, [r1, #56]
	b	.LBB6_4
.Ltmp57:
.LBB6_4:
	.loc	7 0 3                           @ ../ThirdParty/STM32F4xx_HAL_Driver/Src/stm32f4xx_hal_uart.c:0:3
	movs	r0, #0
	.loc	7 518 3 is_stmt 1               @ ../ThirdParty/STM32F4xx_HAL_Driver/Src/stm32f4xx_hal_uart.c:518:3
	strb.w	r0, [sp, #7]
	b	.LBB6_5
.LBB6_5:
	.loc	7 519 1                         @ ../ThirdParty/STM32F4xx_HAL_Driver/Src/stm32f4xx_hal_uart.c:519:1
	ldrb.w	r0, [sp, #7]
	.loc	7 519 1 epilogue_begin is_stmt 0 @ ../ThirdParty/STM32F4xx_HAL_Driver/Src/stm32f4xx_hal_uart.c:519:1
	add	sp, #8
	pop	{r7, pc}
.Ltmp58:
.Lfunc_end6:
	.size	HAL_UART_DeInit, .Lfunc_end6-HAL_UART_DeInit
	.cfi_endproc
	.cantunwind
	.fnend
                                        @ -- End function
	.section	.text.HAL_UART_MspDeInit,"ax",%progbits
	.hidden	HAL_UART_MspDeInit              @ -- Begin function HAL_UART_MspDeInit
	.weak	HAL_UART_MspDeInit
	.p2align	2
	.type	HAL_UART_MspDeInit,%function
	.code	16                              @ @HAL_UART_MspDeInit
	.thumb_func
HAL_UART_MspDeInit:
.Lfunc_begin7:
	.loc	7 543 0 is_stmt 1               @ ../ThirdParty/STM32F4xx_HAL_Driver/Src/stm32f4xx_hal_uart.c:543:0
	.fnstart
	.cfi_startproc
@ %bb.0:
	.pad	#4
	sub	sp, #4
	.cfi_def_cfa_offset 4
	str	r0, [sp]
.Ltmp59:
	.loc	7 549 1 prologue_end epilogue_begin @ ../ThirdParty/STM32F4xx_HAL_Driver/Src/stm32f4xx_hal_uart.c:549:1
	add	sp, #4
	bx	lr
.Ltmp60:
.Lfunc_end7:
	.size	HAL_UART_MspDeInit, .Lfunc_end7-HAL_UART_MspDeInit
	.cfi_endproc
	.cantunwind
	.fnend
                                        @ -- End function
	.section	.text.HAL_UART_Transmit,"ax",%progbits
	.hidden	HAL_UART_Transmit               @ -- Begin function HAL_UART_Transmit
	.globl	HAL_UART_Transmit
	.p2align	2
	.type	HAL_UART_Transmit,%function
	.code	16                              @ @HAL_UART_Transmit
	.thumb_func
HAL_UART_Transmit:
.Lfunc_begin8:
	.loc	7 617 0                         @ ../ThirdParty/STM32F4xx_HAL_Driver/Src/stm32f4xx_hal_uart.c:617:0
	.fnstart
	.cfi_startproc
@ %bb.0:
	.save	{r7, lr}
	push	{r7, lr}
	.cfi_def_cfa_offset 8
	.cfi_offset lr, -4
	.cfi_offset r7, -8
	.pad	#32
	sub	sp, #32
	.cfi_def_cfa_offset 40
                                        @ kill: def $r12 killed $r2
	str	r0, [sp, #24]
	str	r1, [sp, #20]
	strh.w	r2, [sp, #18]
	str	r3, [sp, #12]
	movs	r0, #0
.Ltmp61:
	.loc	7 619 12 prologue_end           @ ../ThirdParty/STM32F4xx_HAL_Driver/Src/stm32f4xx_hal_uart.c:619:12
	str	r0, [sp, #4]
.Ltmp62:
	.loc	7 622 6                         @ ../ThirdParty/STM32F4xx_HAL_Driver/Src/stm32f4xx_hal_uart.c:622:6
	ldr	r0, [sp, #24]
	.loc	7 622 13 is_stmt 0              @ ../ThirdParty/STM32F4xx_HAL_Driver/Src/stm32f4xx_hal_uart.c:622:13
	ldrb.w	r0, [r0, #57]
.Ltmp63:
	.loc	7 622 6                         @ ../ThirdParty/STM32F4xx_HAL_Driver/Src/stm32f4xx_hal_uart.c:622:6
	cmp	r0, #32
	bne.w	.LBB8_27
	b	.LBB8_1
.LBB8_1:
.Ltmp64:
	.loc	7 624 9 is_stmt 1               @ ../ThirdParty/STM32F4xx_HAL_Driver/Src/stm32f4xx_hal_uart.c:624:9
	ldr	r0, [sp, #20]
	.loc	7 624 25 is_stmt 0              @ ../ThirdParty/STM32F4xx_HAL_Driver/Src/stm32f4xx_hal_uart.c:624:25
	cbz	r0, .LBB8_3
	b	.LBB8_2
.LBB8_2:
	.loc	7 624 29                        @ ../ThirdParty/STM32F4xx_HAL_Driver/Src/stm32f4xx_hal_uart.c:624:29
	ldrh.w	r0, [sp, #18]
.Ltmp65:
	.loc	7 624 8                         @ ../ThirdParty/STM32F4xx_HAL_Driver/Src/stm32f4xx_hal_uart.c:624:8
	cbnz	r0, .LBB8_4
	b	.LBB8_3
.LBB8_3:
	.loc	7 0 8                           @ ../ThirdParty/STM32F4xx_HAL_Driver/Src/stm32f4xx_hal_uart.c:0:8
	movs	r0, #1
.Ltmp66:
	.loc	7 626 7 is_stmt 1               @ ../ThirdParty/STM32F4xx_HAL_Driver/Src/stm32f4xx_hal_uart.c:626:7
	strb.w	r0, [sp, #31]
	b	.LBB8_28
.Ltmp67:
.LBB8_4:
	.loc	7 630 5                         @ ../ThirdParty/STM32F4xx_HAL_Driver/Src/stm32f4xx_hal_uart.c:630:5
	b	.LBB8_5
.LBB8_5:
.Ltmp68:
	.loc	7 630 5 is_stmt 0               @ ../ThirdParty/STM32F4xx_HAL_Driver/Src/stm32f4xx_hal_uart.c:630:5
	ldr	r0, [sp, #24]
	ldrb.w	r0, [r0, #56]
.Ltmp69:
	.loc	7 630 5                         @ ../ThirdParty/STM32F4xx_HAL_Driver/Src/stm32f4xx_hal_uart.c:630:5
	cmp	r0, #1
	bne	.LBB8_7
	b	.LBB8_6
.LBB8_6:
	.loc	7 0 5                           @ ../ThirdParty/STM32F4xx_HAL_Driver/Src/stm32f4xx_hal_uart.c:0:5
	movs	r0, #2
.Ltmp70:
	.loc	7 630 5                         @ ../ThirdParty/STM32F4xx_HAL_Driver/Src/stm32f4xx_hal_uart.c:630:5
	strb.w	r0, [sp, #31]
	b	.LBB8_28
.Ltmp71:
.LBB8_7:
	.loc	7 630 5                         @ ../ThirdParty/STM32F4xx_HAL_Driver/Src/stm32f4xx_hal_uart.c:630:5
	ldr	r1, [sp, #24]
	movs	r0, #1
	strb.w	r0, [r1, #56]
	b	.LBB8_8
.Ltmp72:
.LBB8_8:
	.loc	7 630 5                         @ ../ThirdParty/STM32F4xx_HAL_Driver/Src/stm32f4xx_hal_uart.c:630:5
	b	.LBB8_9
.Ltmp73:
.LBB8_9:
	.loc	7 632 5 is_stmt 1               @ ../ThirdParty/STM32F4xx_HAL_Driver/Src/stm32f4xx_hal_uart.c:632:5
	ldr	r1, [sp, #24]
	movs	r0, #0
	.loc	7 632 22 is_stmt 0              @ ../ThirdParty/STM32F4xx_HAL_Driver/Src/stm32f4xx_hal_uart.c:632:22
	str	r0, [r1, #60]
	.loc	7 633 5 is_stmt 1               @ ../ThirdParty/STM32F4xx_HAL_Driver/Src/stm32f4xx_hal_uart.c:633:5
	ldr	r1, [sp, #24]
	movs	r0, #33
	.loc	7 633 19 is_stmt 0              @ ../ThirdParty/STM32F4xx_HAL_Driver/Src/stm32f4xx_hal_uart.c:633:19
	strb.w	r0, [r1, #57]
	.loc	7 636 17 is_stmt 1              @ ../ThirdParty/STM32F4xx_HAL_Driver/Src/stm32f4xx_hal_uart.c:636:17
	bl	HAL_GetTick
	.loc	7 636 15 is_stmt 0              @ ../ThirdParty/STM32F4xx_HAL_Driver/Src/stm32f4xx_hal_uart.c:636:15
	str	r0, [sp, #4]
	.loc	7 638 25 is_stmt 1              @ ../ThirdParty/STM32F4xx_HAL_Driver/Src/stm32f4xx_hal_uart.c:638:25
	ldrh.w	r0, [sp, #18]
	.loc	7 638 5 is_stmt 0               @ ../ThirdParty/STM32F4xx_HAL_Driver/Src/stm32f4xx_hal_uart.c:638:5
	ldr	r1, [sp, #24]
	.loc	7 638 23                        @ ../ThirdParty/STM32F4xx_HAL_Driver/Src/stm32f4xx_hal_uart.c:638:23
	strh	r0, [r1, #36]
	.loc	7 639 26 is_stmt 1              @ ../ThirdParty/STM32F4xx_HAL_Driver/Src/stm32f4xx_hal_uart.c:639:26
	ldrh.w	r0, [sp, #18]
	.loc	7 639 5 is_stmt 0               @ ../ThirdParty/STM32F4xx_HAL_Driver/Src/stm32f4xx_hal_uart.c:639:5
	ldr	r1, [sp, #24]
	.loc	7 639 24                        @ ../ThirdParty/STM32F4xx_HAL_Driver/Src/stm32f4xx_hal_uart.c:639:24
	strh	r0, [r1, #38]
	.loc	7 640 5 is_stmt 1               @ ../ThirdParty/STM32F4xx_HAL_Driver/Src/stm32f4xx_hal_uart.c:640:5
	b	.LBB8_10
.LBB8_10:                               @ =>This Inner Loop Header: Depth=1
	.loc	7 640 11 is_stmt 0              @ ../ThirdParty/STM32F4xx_HAL_Driver/Src/stm32f4xx_hal_uart.c:640:11
	ldr	r0, [sp, #24]
	.loc	7 640 18                        @ ../ThirdParty/STM32F4xx_HAL_Driver/Src/stm32f4xx_hal_uart.c:640:18
	ldrh	r0, [r0, #38]
	.loc	7 640 5                         @ ../ThirdParty/STM32F4xx_HAL_Driver/Src/stm32f4xx_hal_uart.c:640:5
	cmp	r0, #0
	beq	.LBB8_22
	b	.LBB8_11
.LBB8_11:                               @   in Loop: Header=BB8_10 Depth=1
.Ltmp74:
	.loc	7 642 7 is_stmt 1               @ ../ThirdParty/STM32F4xx_HAL_Driver/Src/stm32f4xx_hal_uart.c:642:7
	ldr	r1, [sp, #24]
	.loc	7 642 25 is_stmt 0              @ ../ThirdParty/STM32F4xx_HAL_Driver/Src/stm32f4xx_hal_uart.c:642:25
	ldrh	r0, [r1, #38]
	subs	r0, #1
	strh	r0, [r1, #38]
.Ltmp75:
	.loc	7 643 10 is_stmt 1              @ ../ThirdParty/STM32F4xx_HAL_Driver/Src/stm32f4xx_hal_uart.c:643:10
	ldr	r0, [sp, #24]
	.loc	7 643 22 is_stmt 0              @ ../ThirdParty/STM32F4xx_HAL_Driver/Src/stm32f4xx_hal_uart.c:643:22
	ldr	r0, [r0, #8]
.Ltmp76:
	.loc	7 643 10                        @ ../ThirdParty/STM32F4xx_HAL_Driver/Src/stm32f4xx_hal_uart.c:643:10
	cmp.w	r0, #4096
	bne	.LBB8_18
	b	.LBB8_12
.LBB8_12:                               @   in Loop: Header=BB8_10 Depth=1
.Ltmp77:
	.loc	7 645 40 is_stmt 1              @ ../ThirdParty/STM32F4xx_HAL_Driver/Src/stm32f4xx_hal_uart.c:645:40
	ldr	r0, [sp, #24]
	.loc	7 645 69 is_stmt 0              @ ../ThirdParty/STM32F4xx_HAL_Driver/Src/stm32f4xx_hal_uart.c:645:69
	ldr	r3, [sp, #4]
	.loc	7 645 80                        @ ../ThirdParty/STM32F4xx_HAL_Driver/Src/stm32f4xx_hal_uart.c:645:80
	ldr	r1, [sp, #12]
	.loc	7 645 12                        @ ../ThirdParty/STM32F4xx_HAL_Driver/Src/stm32f4xx_hal_uart.c:645:12
	mov	r2, sp
	str	r1, [r2]
	movs	r1, #128
	movs	r2, #0
	bl	UART_WaitOnFlagUntilTimeout
.Ltmp78:
	.loc	7 645 12                        @ ../ThirdParty/STM32F4xx_HAL_Driver/Src/stm32f4xx_hal_uart.c:645:12
	cbz	r0, .LBB8_14
	b	.LBB8_13
.LBB8_13:
	.loc	7 0 12                          @ ../ThirdParty/STM32F4xx_HAL_Driver/Src/stm32f4xx_hal_uart.c:0:12
	movs	r0, #3
.Ltmp79:
	.loc	7 647 11 is_stmt 1              @ ../ThirdParty/STM32F4xx_HAL_Driver/Src/stm32f4xx_hal_uart.c:647:11
	strb.w	r0, [sp, #31]
	b	.LBB8_28
.Ltmp80:
.LBB8_14:                               @   in Loop: Header=BB8_10 Depth=1
	.loc	7 649 27                        @ ../ThirdParty/STM32F4xx_HAL_Driver/Src/stm32f4xx_hal_uart.c:649:27
	ldr	r0, [sp, #20]
	.loc	7 649 13 is_stmt 0              @ ../ThirdParty/STM32F4xx_HAL_Driver/Src/stm32f4xx_hal_uart.c:649:13
	str	r0, [sp, #8]
	.loc	7 650 33 is_stmt 1              @ ../ThirdParty/STM32F4xx_HAL_Driver/Src/stm32f4xx_hal_uart.c:650:33
	ldr	r0, [sp, #8]
	.loc	7 650 32 is_stmt 0              @ ../ThirdParty/STM32F4xx_HAL_Driver/Src/stm32f4xx_hal_uart.c:650:32
	ldrh	r0, [r0]
	.loc	7 650 37                        @ ../ThirdParty/STM32F4xx_HAL_Driver/Src/stm32f4xx_hal_uart.c:650:37
	bfc	r0, #9, #23
	.loc	7 650 9                         @ ../ThirdParty/STM32F4xx_HAL_Driver/Src/stm32f4xx_hal_uart.c:650:9
	ldr	r1, [sp, #24]
	.loc	7 650 16                        @ ../ThirdParty/STM32F4xx_HAL_Driver/Src/stm32f4xx_hal_uart.c:650:16
	ldr	r1, [r1]
	.loc	7 650 29                        @ ../ThirdParty/STM32F4xx_HAL_Driver/Src/stm32f4xx_hal_uart.c:650:29
	str	r0, [r1, #4]
.Ltmp81:
	.loc	7 651 12 is_stmt 1              @ ../ThirdParty/STM32F4xx_HAL_Driver/Src/stm32f4xx_hal_uart.c:651:12
	ldr	r0, [sp, #24]
	.loc	7 651 24 is_stmt 0              @ ../ThirdParty/STM32F4xx_HAL_Driver/Src/stm32f4xx_hal_uart.c:651:24
	ldr	r0, [r0, #16]
.Ltmp82:
	.loc	7 651 12                        @ ../ThirdParty/STM32F4xx_HAL_Driver/Src/stm32f4xx_hal_uart.c:651:12
	cbnz	r0, .LBB8_16
	b	.LBB8_15
.LBB8_15:                               @   in Loop: Header=BB8_10 Depth=1
.Ltmp83:
	.loc	7 653 17 is_stmt 1              @ ../ThirdParty/STM32F4xx_HAL_Driver/Src/stm32f4xx_hal_uart.c:653:17
	ldr	r0, [sp, #20]
	adds	r0, #2
	str	r0, [sp, #20]
	.loc	7 654 9                         @ ../ThirdParty/STM32F4xx_HAL_Driver/Src/stm32f4xx_hal_uart.c:654:9
	b	.LBB8_17
.Ltmp84:
.LBB8_16:                               @   in Loop: Header=BB8_10 Depth=1
	.loc	7 657 17                        @ ../ThirdParty/STM32F4xx_HAL_Driver/Src/stm32f4xx_hal_uart.c:657:17
	ldr	r0, [sp, #20]
	adds	r0, #1
	str	r0, [sp, #20]
	b	.LBB8_17
.Ltmp85:
.LBB8_17:                               @   in Loop: Header=BB8_10 Depth=1
	.loc	7 659 7                         @ ../ThirdParty/STM32F4xx_HAL_Driver/Src/stm32f4xx_hal_uart.c:659:7
	b	.LBB8_21
.Ltmp86:
.LBB8_18:                               @   in Loop: Header=BB8_10 Depth=1
	.loc	7 662 40                        @ ../ThirdParty/STM32F4xx_HAL_Driver/Src/stm32f4xx_hal_uart.c:662:40
	ldr	r0, [sp, #24]
	.loc	7 662 69 is_stmt 0              @ ../ThirdParty/STM32F4xx_HAL_Driver/Src/stm32f4xx_hal_uart.c:662:69
	ldr	r3, [sp, #4]
	.loc	7 662 80                        @ ../ThirdParty/STM32F4xx_HAL_Driver/Src/stm32f4xx_hal_uart.c:662:80
	ldr	r1, [sp, #12]
	.loc	7 662 12                        @ ../ThirdParty/STM32F4xx_HAL_Driver/Src/stm32f4xx_hal_uart.c:662:12
	mov	r2, sp
	str	r1, [r2]
	movs	r1, #128
	movs	r2, #0
	bl	UART_WaitOnFlagUntilTimeout
.Ltmp87:
	.loc	7 662 12                        @ ../ThirdParty/STM32F4xx_HAL_Driver/Src/stm32f4xx_hal_uart.c:662:12
	cbz	r0, .LBB8_20
	b	.LBB8_19
.LBB8_19:
	.loc	7 0 12                          @ ../ThirdParty/STM32F4xx_HAL_Driver/Src/stm32f4xx_hal_uart.c:0:12
	movs	r0, #3
.Ltmp88:
	.loc	7 664 11 is_stmt 1              @ ../ThirdParty/STM32F4xx_HAL_Driver/Src/stm32f4xx_hal_uart.c:664:11
	strb.w	r0, [sp, #31]
	b	.LBB8_28
.Ltmp89:
.LBB8_20:                               @   in Loop: Header=BB8_10 Depth=1
	.loc	7 666 38                        @ ../ThirdParty/STM32F4xx_HAL_Driver/Src/stm32f4xx_hal_uart.c:666:38
	ldr	r0, [sp, #20]
	adds	r1, r0, #1
	str	r1, [sp, #20]
	.loc	7 666 32 is_stmt 0              @ ../ThirdParty/STM32F4xx_HAL_Driver/Src/stm32f4xx_hal_uart.c:666:32
	ldrb	r0, [r0]
	.loc	7 666 9                         @ ../ThirdParty/STM32F4xx_HAL_Driver/Src/stm32f4xx_hal_uart.c:666:9
	ldr	r1, [sp, #24]
	.loc	7 666 16                        @ ../ThirdParty/STM32F4xx_HAL_Driver/Src/stm32f4xx_hal_uart.c:666:16
	ldr	r1, [r1]
	.loc	7 666 29                        @ ../ThirdParty/STM32F4xx_HAL_Driver/Src/stm32f4xx_hal_uart.c:666:29
	str	r0, [r1, #4]
	b	.LBB8_21
.Ltmp90:
.LBB8_21:                               @   in Loop: Header=BB8_10 Depth=1
	.loc	7 640 5 is_stmt 1               @ ../ThirdParty/STM32F4xx_HAL_Driver/Src/stm32f4xx_hal_uart.c:640:5
	b	.LBB8_10
.LBB8_22:
.Ltmp91:
	.loc	7 670 36                        @ ../ThirdParty/STM32F4xx_HAL_Driver/Src/stm32f4xx_hal_uart.c:670:36
	ldr	r0, [sp, #24]
	.loc	7 670 64 is_stmt 0              @ ../ThirdParty/STM32F4xx_HAL_Driver/Src/stm32f4xx_hal_uart.c:670:64
	ldr	r3, [sp, #4]
	.loc	7 670 75                        @ ../ThirdParty/STM32F4xx_HAL_Driver/Src/stm32f4xx_hal_uart.c:670:75
	ldr	r1, [sp, #12]
	.loc	7 670 8                         @ ../ThirdParty/STM32F4xx_HAL_Driver/Src/stm32f4xx_hal_uart.c:670:8
	mov	r2, sp
	str	r1, [r2]
	movs	r1, #64
	movs	r2, #0
	bl	UART_WaitOnFlagUntilTimeout
.Ltmp92:
	.loc	7 670 8                         @ ../ThirdParty/STM32F4xx_HAL_Driver/Src/stm32f4xx_hal_uart.c:670:8
	cbz	r0, .LBB8_24
	b	.LBB8_23
.LBB8_23:
	.loc	7 0 8                           @ ../ThirdParty/STM32F4xx_HAL_Driver/Src/stm32f4xx_hal_uart.c:0:8
	movs	r0, #3
.Ltmp93:
	.loc	7 672 7 is_stmt 1               @ ../ThirdParty/STM32F4xx_HAL_Driver/Src/stm32f4xx_hal_uart.c:672:7
	strb.w	r0, [sp, #31]
	b	.LBB8_28
.Ltmp94:
.LBB8_24:
	.loc	7 676 7                         @ ../ThirdParty/STM32F4xx_HAL_Driver/Src/stm32f4xx_hal_uart.c:676:7
	ldr	r1, [sp, #24]
	movs	r0, #32
	.loc	7 676 21 is_stmt 0              @ ../ThirdParty/STM32F4xx_HAL_Driver/Src/stm32f4xx_hal_uart.c:676:21
	strb.w	r0, [r1, #57]
	.loc	7 679 5 is_stmt 1               @ ../ThirdParty/STM32F4xx_HAL_Driver/Src/stm32f4xx_hal_uart.c:679:5
	b	.LBB8_25
.LBB8_25:
.Ltmp95:
	.loc	7 679 5 is_stmt 0               @ ../ThirdParty/STM32F4xx_HAL_Driver/Src/stm32f4xx_hal_uart.c:679:5
	ldr	r1, [sp, #24]
	movs	r0, #0
	strb.w	r0, [r1, #56]
	b	.LBB8_26
.Ltmp96:
.LBB8_26:
	.loc	7 0 5                           @ ../ThirdParty/STM32F4xx_HAL_Driver/Src/stm32f4xx_hal_uart.c:0:5
	movs	r0, #0
	.loc	7 681 5 is_stmt 1               @ ../ThirdParty/STM32F4xx_HAL_Driver/Src/stm32f4xx_hal_uart.c:681:5
	strb.w	r0, [sp, #31]
	b	.LBB8_28
.Ltmp97:
.LBB8_27:
	.loc	7 0 5 is_stmt 0                 @ ../ThirdParty/STM32F4xx_HAL_Driver/Src/stm32f4xx_hal_uart.c:0:5
	movs	r0, #2
.Ltmp98:
	.loc	7 685 5 is_stmt 1               @ ../ThirdParty/STM32F4xx_HAL_Driver/Src/stm32f4xx_hal_uart.c:685:5
	strb.w	r0, [sp, #31]
	b	.LBB8_28
.Ltmp99:
.LBB8_28:
	.loc	7 687 1                         @ ../ThirdParty/STM32F4xx_HAL_Driver/Src/stm32f4xx_hal_uart.c:687:1
	ldrb.w	r0, [sp, #31]
	.loc	7 687 1 epilogue_begin is_stmt 0 @ ../ThirdParty/STM32F4xx_HAL_Driver/Src/stm32f4xx_hal_uart.c:687:1
	add	sp, #32
	pop	{r7, pc}
.Ltmp100:
.Lfunc_end8:
	.size	HAL_UART_Transmit, .Lfunc_end8-HAL_UART_Transmit
	.cfi_endproc
	.cantunwind
	.fnend
                                        @ -- End function
	.section	.text.UART_WaitOnFlagUntilTimeout,"ax",%progbits
	.p2align	2                               @ -- Begin function UART_WaitOnFlagUntilTimeout
	.type	UART_WaitOnFlagUntilTimeout,%function
	.code	16                              @ @UART_WaitOnFlagUntilTimeout
	.thumb_func
UART_WaitOnFlagUntilTimeout:
.Lfunc_begin9:
	.loc	7 2109 0 is_stmt 1              @ ../ThirdParty/STM32F4xx_HAL_Driver/Src/stm32f4xx_hal_uart.c:2109:0
	.fnstart
	.cfi_startproc
@ %bb.0:
	.save	{r7, lr}
	push	{r7, lr}
	.cfi_def_cfa_offset 8
	.cfi_offset lr, -4
	.cfi_offset r7, -8
	.pad	#24
	sub	sp, #24
	.cfi_def_cfa_offset 32
	ldr.w	r12, [sp, #32]
                                        @ kill: def $r12 killed $r2
	str	r0, [sp, #16]
	str	r1, [sp, #12]
	strb.w	r2, [sp, #11]
	str	r3, [sp, #4]
.Ltmp101:
	.loc	7 2111 3 prologue_end           @ ../ThirdParty/STM32F4xx_HAL_Driver/Src/stm32f4xx_hal_uart.c:2111:3
	b	.LBB9_1
.LBB9_1:                                @ =>This Inner Loop Header: Depth=1
	.loc	7 2111 10 is_stmt 0             @ ../ThirdParty/STM32F4xx_HAL_Driver/Src/stm32f4xx_hal_uart.c:2111:10
	ldr	r0, [sp, #16]
	ldr	r0, [r0]
	ldr	r0, [r0]
	ldr	r1, [sp, #12]
	ands	r0, r1
	subs	r0, r0, r1
	clz	r0, r0
	lsrs	r0, r0, #5
	.loc	7 2111 61                       @ ../ThirdParty/STM32F4xx_HAL_Driver/Src/stm32f4xx_hal_uart.c:2111:61
	ldrb.w	r1, [sp, #11]
	.loc	7 2111 3                        @ ../ThirdParty/STM32F4xx_HAL_Driver/Src/stm32f4xx_hal_uart.c:2111:3
	cmp	r0, r1
	bne	.LBB9_10
	b	.LBB9_2
.LBB9_2:                                @   in Loop: Header=BB9_1 Depth=1
.Ltmp102:
	.loc	7 2114 8 is_stmt 1              @ ../ThirdParty/STM32F4xx_HAL_Driver/Src/stm32f4xx_hal_uart.c:2114:8
	ldr	r0, [sp, #32]
.Ltmp103:
	.loc	7 2114 8 is_stmt 0              @ ../ThirdParty/STM32F4xx_HAL_Driver/Src/stm32f4xx_hal_uart.c:2114:8
	adds	r0, #1
	cbz	r0, .LBB9_9
	b	.LBB9_3
.LBB9_3:                                @   in Loop: Header=BB9_1 Depth=1
.Ltmp104:
	.loc	7 2116 11 is_stmt 1             @ ../ThirdParty/STM32F4xx_HAL_Driver/Src/stm32f4xx_hal_uart.c:2116:11
	ldr	r0, [sp, #32]
	.loc	7 2116 25 is_stmt 0             @ ../ThirdParty/STM32F4xx_HAL_Driver/Src/stm32f4xx_hal_uart.c:2116:25
	cbz	r0, .LBB9_5
	b	.LBB9_4
.LBB9_4:                                @   in Loop: Header=BB9_1 Depth=1
	.loc	7 2116 29                       @ ../ThirdParty/STM32F4xx_HAL_Driver/Src/stm32f4xx_hal_uart.c:2116:29
	bl	HAL_GetTick
	.loc	7 2116 45                       @ ../ThirdParty/STM32F4xx_HAL_Driver/Src/stm32f4xx_hal_uart.c:2116:45
	ldr	r1, [sp, #4]
	.loc	7 2116 43                       @ ../ThirdParty/STM32F4xx_HAL_Driver/Src/stm32f4xx_hal_uart.c:2116:43
	subs	r0, r0, r1
	.loc	7 2116 59                       @ ../ThirdParty/STM32F4xx_HAL_Driver/Src/stm32f4xx_hal_uart.c:2116:59
	ldr	r1, [sp, #32]
.Ltmp105:
	.loc	7 2116 10                       @ ../ThirdParty/STM32F4xx_HAL_Driver/Src/stm32f4xx_hal_uart.c:2116:10
	cmp	r0, r1
	bls	.LBB9_8
	b	.LBB9_5
.LBB9_5:
.Ltmp106:
	.loc	7 2119 9 is_stmt 1              @ ../ThirdParty/STM32F4xx_HAL_Driver/Src/stm32f4xx_hal_uart.c:2119:9
	ldr	r0, [sp, #16]
	ldr	r1, [r0]
	ldr	r0, [r1, #12]
	bic	r0, r0, #416
	str	r0, [r1, #12]
	.loc	7 2120 9                        @ ../ThirdParty/STM32F4xx_HAL_Driver/Src/stm32f4xx_hal_uart.c:2120:9
	ldr	r0, [sp, #16]
	ldr	r1, [r0]
	ldr	r0, [r1, #20]
	bic	r0, r0, #1
	str	r0, [r1, #20]
	.loc	7 2122 9                        @ ../ThirdParty/STM32F4xx_HAL_Driver/Src/stm32f4xx_hal_uart.c:2122:9
	ldr	r1, [sp, #16]
	movs	r0, #32
	.loc	7 2122 24 is_stmt 0             @ ../ThirdParty/STM32F4xx_HAL_Driver/Src/stm32f4xx_hal_uart.c:2122:24
	strb.w	r0, [r1, #57]
	.loc	7 2123 9 is_stmt 1              @ ../ThirdParty/STM32F4xx_HAL_Driver/Src/stm32f4xx_hal_uart.c:2123:9
	ldr	r1, [sp, #16]
	.loc	7 2123 24 is_stmt 0             @ ../ThirdParty/STM32F4xx_HAL_Driver/Src/stm32f4xx_hal_uart.c:2123:24
	strb.w	r0, [r1, #58]
	.loc	7 2126 9 is_stmt 1              @ ../ThirdParty/STM32F4xx_HAL_Driver/Src/stm32f4xx_hal_uart.c:2126:9
	b	.LBB9_6
.LBB9_6:
.Ltmp107:
	.loc	7 2126 9 is_stmt 0              @ ../ThirdParty/STM32F4xx_HAL_Driver/Src/stm32f4xx_hal_uart.c:2126:9
	ldr	r1, [sp, #16]
	movs	r0, #0
	strb.w	r0, [r1, #56]
	b	.LBB9_7
.Ltmp108:
.LBB9_7:
	.loc	7 0 9                           @ ../ThirdParty/STM32F4xx_HAL_Driver/Src/stm32f4xx_hal_uart.c:0:9
	movs	r0, #3
	.loc	7 2128 9 is_stmt 1              @ ../ThirdParty/STM32F4xx_HAL_Driver/Src/stm32f4xx_hal_uart.c:2128:9
	strb.w	r0, [sp, #23]
	b	.LBB9_11
.Ltmp109:
.LBB9_8:                                @   in Loop: Header=BB9_1 Depth=1
	.loc	7 2130 5                        @ ../ThirdParty/STM32F4xx_HAL_Driver/Src/stm32f4xx_hal_uart.c:2130:5
	b	.LBB9_9
.Ltmp110:
.LBB9_9:                                @   in Loop: Header=BB9_1 Depth=1
	.loc	7 2111 3                        @ ../ThirdParty/STM32F4xx_HAL_Driver/Src/stm32f4xx_hal_uart.c:2111:3
	b	.LBB9_1
.LBB9_10:
	.loc	7 0 3 is_stmt 0                 @ ../ThirdParty/STM32F4xx_HAL_Driver/Src/stm32f4xx_hal_uart.c:0:3
	movs	r0, #0
	.loc	7 2133 3 is_stmt 1              @ ../ThirdParty/STM32F4xx_HAL_Driver/Src/stm32f4xx_hal_uart.c:2133:3
	strb.w	r0, [sp, #23]
	b	.LBB9_11
.LBB9_11:
	.loc	7 2134 1                        @ ../ThirdParty/STM32F4xx_HAL_Driver/Src/stm32f4xx_hal_uart.c:2134:1
	ldrb.w	r0, [sp, #23]
	.loc	7 2134 1 epilogue_begin is_stmt 0 @ ../ThirdParty/STM32F4xx_HAL_Driver/Src/stm32f4xx_hal_uart.c:2134:1
	add	sp, #24
	pop	{r7, pc}
.Ltmp111:
.Lfunc_end9:
	.size	UART_WaitOnFlagUntilTimeout, .Lfunc_end9-UART_WaitOnFlagUntilTimeout
	.cfi_endproc
	.cantunwind
	.fnend
                                        @ -- End function
	.section	.text.HAL_UART_Receive,"ax",%progbits
	.hidden	HAL_UART_Receive                @ -- Begin function HAL_UART_Receive
	.globl	HAL_UART_Receive
	.p2align	2
	.type	HAL_UART_Receive,%function
	.code	16                              @ @HAL_UART_Receive
	.thumb_func
HAL_UART_Receive:
.Lfunc_begin10:
	.loc	7 699 0 is_stmt 1               @ ../ThirdParty/STM32F4xx_HAL_Driver/Src/stm32f4xx_hal_uart.c:699:0
	.fnstart
	.cfi_startproc
@ %bb.0:
	.save	{r7, lr}
	push	{r7, lr}
	.cfi_def_cfa_offset 8
	.cfi_offset lr, -4
	.cfi_offset r7, -8
	.pad	#32
	sub	sp, #32
	.cfi_def_cfa_offset 40
                                        @ kill: def $r12 killed $r2
	str	r0, [sp, #24]
	str	r1, [sp, #20]
	strh.w	r2, [sp, #18]
	str	r3, [sp, #12]
	movs	r0, #0
.Ltmp112:
	.loc	7 701 12 prologue_end           @ ../ThirdParty/STM32F4xx_HAL_Driver/Src/stm32f4xx_hal_uart.c:701:12
	str	r0, [sp, #4]
.Ltmp113:
	.loc	7 704 6                         @ ../ThirdParty/STM32F4xx_HAL_Driver/Src/stm32f4xx_hal_uart.c:704:6
	ldr	r0, [sp, #24]
	.loc	7 704 13 is_stmt 0              @ ../ThirdParty/STM32F4xx_HAL_Driver/Src/stm32f4xx_hal_uart.c:704:13
	ldrb.w	r0, [r0, #58]
.Ltmp114:
	.loc	7 704 6                         @ ../ThirdParty/STM32F4xx_HAL_Driver/Src/stm32f4xx_hal_uart.c:704:6
	cmp	r0, #32
	bne.w	.LBB10_28
	b	.LBB10_1
.LBB10_1:
.Ltmp115:
	.loc	7 706 9 is_stmt 1               @ ../ThirdParty/STM32F4xx_HAL_Driver/Src/stm32f4xx_hal_uart.c:706:9
	ldr	r0, [sp, #20]
	.loc	7 706 25 is_stmt 0              @ ../ThirdParty/STM32F4xx_HAL_Driver/Src/stm32f4xx_hal_uart.c:706:25
	cbz	r0, .LBB10_3
	b	.LBB10_2
.LBB10_2:
	.loc	7 706 29                        @ ../ThirdParty/STM32F4xx_HAL_Driver/Src/stm32f4xx_hal_uart.c:706:29
	ldrh.w	r0, [sp, #18]
.Ltmp116:
	.loc	7 706 8                         @ ../ThirdParty/STM32F4xx_HAL_Driver/Src/stm32f4xx_hal_uart.c:706:8
	cbnz	r0, .LBB10_4
	b	.LBB10_3
.LBB10_3:
	.loc	7 0 8                           @ ../ThirdParty/STM32F4xx_HAL_Driver/Src/stm32f4xx_hal_uart.c:0:8
	movs	r0, #1
.Ltmp117:
	.loc	7 708 7 is_stmt 1               @ ../ThirdParty/STM32F4xx_HAL_Driver/Src/stm32f4xx_hal_uart.c:708:7
	strb.w	r0, [sp, #31]
	b	.LBB10_29
.Ltmp118:
.LBB10_4:
	.loc	7 712 5                         @ ../ThirdParty/STM32F4xx_HAL_Driver/Src/stm32f4xx_hal_uart.c:712:5
	b	.LBB10_5
.LBB10_5:
.Ltmp119:
	.loc	7 712 5 is_stmt 0               @ ../ThirdParty/STM32F4xx_HAL_Driver/Src/stm32f4xx_hal_uart.c:712:5
	ldr	r0, [sp, #24]
	ldrb.w	r0, [r0, #56]
.Ltmp120:
	.loc	7 712 5                         @ ../ThirdParty/STM32F4xx_HAL_Driver/Src/stm32f4xx_hal_uart.c:712:5
	cmp	r0, #1
	bne	.LBB10_7
	b	.LBB10_6
.LBB10_6:
	.loc	7 0 5                           @ ../ThirdParty/STM32F4xx_HAL_Driver/Src/stm32f4xx_hal_uart.c:0:5
	movs	r0, #2
.Ltmp121:
	.loc	7 712 5                         @ ../ThirdParty/STM32F4xx_HAL_Driver/Src/stm32f4xx_hal_uart.c:712:5
	strb.w	r0, [sp, #31]
	b	.LBB10_29
.Ltmp122:
.LBB10_7:
	.loc	7 712 5                         @ ../ThirdParty/STM32F4xx_HAL_Driver/Src/stm32f4xx_hal_uart.c:712:5
	ldr	r1, [sp, #24]
	movs	r0, #1
	strb.w	r0, [r1, #56]
	b	.LBB10_8
.Ltmp123:
.LBB10_8:
	.loc	7 712 5                         @ ../ThirdParty/STM32F4xx_HAL_Driver/Src/stm32f4xx_hal_uart.c:712:5
	b	.LBB10_9
.Ltmp124:
.LBB10_9:
	.loc	7 714 5 is_stmt 1               @ ../ThirdParty/STM32F4xx_HAL_Driver/Src/stm32f4xx_hal_uart.c:714:5
	ldr	r1, [sp, #24]
	movs	r0, #0
	.loc	7 714 22 is_stmt 0              @ ../ThirdParty/STM32F4xx_HAL_Driver/Src/stm32f4xx_hal_uart.c:714:22
	str	r0, [r1, #60]
	.loc	7 715 5 is_stmt 1               @ ../ThirdParty/STM32F4xx_HAL_Driver/Src/stm32f4xx_hal_uart.c:715:5
	ldr	r1, [sp, #24]
	movs	r0, #34
	.loc	7 715 20 is_stmt 0              @ ../ThirdParty/STM32F4xx_HAL_Driver/Src/stm32f4xx_hal_uart.c:715:20
	strb.w	r0, [r1, #58]
	.loc	7 718 17 is_stmt 1              @ ../ThirdParty/STM32F4xx_HAL_Driver/Src/stm32f4xx_hal_uart.c:718:17
	bl	HAL_GetTick
	.loc	7 718 15 is_stmt 0              @ ../ThirdParty/STM32F4xx_HAL_Driver/Src/stm32f4xx_hal_uart.c:718:15
	str	r0, [sp, #4]
	.loc	7 720 25 is_stmt 1              @ ../ThirdParty/STM32F4xx_HAL_Driver/Src/stm32f4xx_hal_uart.c:720:25
	ldrh.w	r0, [sp, #18]
	.loc	7 720 5 is_stmt 0               @ ../ThirdParty/STM32F4xx_HAL_Driver/Src/stm32f4xx_hal_uart.c:720:5
	ldr	r1, [sp, #24]
	.loc	7 720 23                        @ ../ThirdParty/STM32F4xx_HAL_Driver/Src/stm32f4xx_hal_uart.c:720:23
	strh	r0, [r1, #44]
	.loc	7 721 26 is_stmt 1              @ ../ThirdParty/STM32F4xx_HAL_Driver/Src/stm32f4xx_hal_uart.c:721:26
	ldrh.w	r0, [sp, #18]
	.loc	7 721 5 is_stmt 0               @ ../ThirdParty/STM32F4xx_HAL_Driver/Src/stm32f4xx_hal_uart.c:721:5
	ldr	r1, [sp, #24]
	.loc	7 721 24                        @ ../ThirdParty/STM32F4xx_HAL_Driver/Src/stm32f4xx_hal_uart.c:721:24
	strh	r0, [r1, #46]
	.loc	7 724 5 is_stmt 1               @ ../ThirdParty/STM32F4xx_HAL_Driver/Src/stm32f4xx_hal_uart.c:724:5
	b	.LBB10_10
.LBB10_10:                              @ =>This Inner Loop Header: Depth=1
	.loc	7 724 11 is_stmt 0              @ ../ThirdParty/STM32F4xx_HAL_Driver/Src/stm32f4xx_hal_uart.c:724:11
	ldr	r0, [sp, #24]
	.loc	7 724 18                        @ ../ThirdParty/STM32F4xx_HAL_Driver/Src/stm32f4xx_hal_uart.c:724:18
	ldrh	r0, [r0, #46]
	.loc	7 724 5                         @ ../ThirdParty/STM32F4xx_HAL_Driver/Src/stm32f4xx_hal_uart.c:724:5
	cmp	r0, #0
	beq	.LBB10_25
	b	.LBB10_11
.LBB10_11:                              @   in Loop: Header=BB10_10 Depth=1
.Ltmp125:
	.loc	7 726 7 is_stmt 1               @ ../ThirdParty/STM32F4xx_HAL_Driver/Src/stm32f4xx_hal_uart.c:726:7
	ldr	r1, [sp, #24]
	.loc	7 726 25 is_stmt 0              @ ../ThirdParty/STM32F4xx_HAL_Driver/Src/stm32f4xx_hal_uart.c:726:25
	ldrh	r0, [r1, #46]
	subs	r0, #1
	strh	r0, [r1, #46]
.Ltmp126:
	.loc	7 727 10 is_stmt 1              @ ../ThirdParty/STM32F4xx_HAL_Driver/Src/stm32f4xx_hal_uart.c:727:10
	ldr	r0, [sp, #24]
	.loc	7 727 22 is_stmt 0              @ ../ThirdParty/STM32F4xx_HAL_Driver/Src/stm32f4xx_hal_uart.c:727:22
	ldr	r0, [r0, #8]
.Ltmp127:
	.loc	7 727 10                        @ ../ThirdParty/STM32F4xx_HAL_Driver/Src/stm32f4xx_hal_uart.c:727:10
	cmp.w	r0, #4096
	bne	.LBB10_18
	b	.LBB10_12
.LBB10_12:                              @   in Loop: Header=BB10_10 Depth=1
.Ltmp128:
	.loc	7 729 40 is_stmt 1              @ ../ThirdParty/STM32F4xx_HAL_Driver/Src/stm32f4xx_hal_uart.c:729:40
	ldr	r0, [sp, #24]
	.loc	7 729 70 is_stmt 0              @ ../ThirdParty/STM32F4xx_HAL_Driver/Src/stm32f4xx_hal_uart.c:729:70
	ldr	r3, [sp, #4]
	.loc	7 729 81                        @ ../ThirdParty/STM32F4xx_HAL_Driver/Src/stm32f4xx_hal_uart.c:729:81
	ldr	r1, [sp, #12]
	.loc	7 729 12                        @ ../ThirdParty/STM32F4xx_HAL_Driver/Src/stm32f4xx_hal_uart.c:729:12
	mov	r2, sp
	str	r1, [r2]
	movs	r1, #32
	movs	r2, #0
	bl	UART_WaitOnFlagUntilTimeout
.Ltmp129:
	.loc	7 729 12                        @ ../ThirdParty/STM32F4xx_HAL_Driver/Src/stm32f4xx_hal_uart.c:729:12
	cbz	r0, .LBB10_14
	b	.LBB10_13
.LBB10_13:
	.loc	7 0 12                          @ ../ThirdParty/STM32F4xx_HAL_Driver/Src/stm32f4xx_hal_uart.c:0:12
	movs	r0, #3
.Ltmp130:
	.loc	7 731 11 is_stmt 1              @ ../ThirdParty/STM32F4xx_HAL_Driver/Src/stm32f4xx_hal_uart.c:731:11
	strb.w	r0, [sp, #31]
	b	.LBB10_29
.Ltmp131:
.LBB10_14:                              @   in Loop: Header=BB10_10 Depth=1
	.loc	7 733 27                        @ ../ThirdParty/STM32F4xx_HAL_Driver/Src/stm32f4xx_hal_uart.c:733:27
	ldr	r0, [sp, #20]
	.loc	7 733 13 is_stmt 0              @ ../ThirdParty/STM32F4xx_HAL_Driver/Src/stm32f4xx_hal_uart.c:733:13
	str	r0, [sp, #8]
.Ltmp132:
	.loc	7 734 12 is_stmt 1              @ ../ThirdParty/STM32F4xx_HAL_Driver/Src/stm32f4xx_hal_uart.c:734:12
	ldr	r0, [sp, #24]
	.loc	7 734 24 is_stmt 0              @ ../ThirdParty/STM32F4xx_HAL_Driver/Src/stm32f4xx_hal_uart.c:734:24
	ldr	r0, [r0, #16]
.Ltmp133:
	.loc	7 734 12                        @ ../ThirdParty/STM32F4xx_HAL_Driver/Src/stm32f4xx_hal_uart.c:734:12
	cbnz	r0, .LBB10_16
	b	.LBB10_15
.LBB10_15:                              @   in Loop: Header=BB10_10 Depth=1
.Ltmp134:
	.loc	7 736 29 is_stmt 1              @ ../ThirdParty/STM32F4xx_HAL_Driver/Src/stm32f4xx_hal_uart.c:736:29
	ldr	r0, [sp, #24]
	.loc	7 736 36 is_stmt 0              @ ../ThirdParty/STM32F4xx_HAL_Driver/Src/stm32f4xx_hal_uart.c:736:36
	ldr	r0, [r0]
	.loc	7 736 46                        @ ../ThirdParty/STM32F4xx_HAL_Driver/Src/stm32f4xx_hal_uart.c:736:46
	ldr	r0, [r0, #4]
	.loc	7 736 49                        @ ../ThirdParty/STM32F4xx_HAL_Driver/Src/stm32f4xx_hal_uart.c:736:49
	bfc	r0, #9, #23
	.loc	7 736 12                        @ ../ThirdParty/STM32F4xx_HAL_Driver/Src/stm32f4xx_hal_uart.c:736:12
	ldr	r1, [sp, #8]
	.loc	7 736 16                        @ ../ThirdParty/STM32F4xx_HAL_Driver/Src/stm32f4xx_hal_uart.c:736:16
	strh	r0, [r1]
	.loc	7 737 17 is_stmt 1              @ ../ThirdParty/STM32F4xx_HAL_Driver/Src/stm32f4xx_hal_uart.c:737:17
	ldr	r0, [sp, #20]
	adds	r0, #2
	str	r0, [sp, #20]
	.loc	7 738 9                         @ ../ThirdParty/STM32F4xx_HAL_Driver/Src/stm32f4xx_hal_uart.c:738:9
	b	.LBB10_17
.Ltmp135:
.LBB10_16:                              @   in Loop: Header=BB10_10 Depth=1
	.loc	7 741 29                        @ ../ThirdParty/STM32F4xx_HAL_Driver/Src/stm32f4xx_hal_uart.c:741:29
	ldr	r0, [sp, #24]
	.loc	7 741 36 is_stmt 0              @ ../ThirdParty/STM32F4xx_HAL_Driver/Src/stm32f4xx_hal_uart.c:741:36
	ldr	r0, [r0]
	.loc	7 741 46                        @ ../ThirdParty/STM32F4xx_HAL_Driver/Src/stm32f4xx_hal_uart.c:741:46
	ldr	r0, [r0, #4]
	.loc	7 741 49                        @ ../ThirdParty/STM32F4xx_HAL_Driver/Src/stm32f4xx_hal_uart.c:741:49
	uxtb	r0, r0
	.loc	7 741 12                        @ ../ThirdParty/STM32F4xx_HAL_Driver/Src/stm32f4xx_hal_uart.c:741:12
	ldr	r1, [sp, #8]
	.loc	7 741 16                        @ ../ThirdParty/STM32F4xx_HAL_Driver/Src/stm32f4xx_hal_uart.c:741:16
	strh	r0, [r1]
	.loc	7 742 17 is_stmt 1              @ ../ThirdParty/STM32F4xx_HAL_Driver/Src/stm32f4xx_hal_uart.c:742:17
	ldr	r0, [sp, #20]
	adds	r0, #1
	str	r0, [sp, #20]
	b	.LBB10_17
.Ltmp136:
.LBB10_17:                              @   in Loop: Header=BB10_10 Depth=1
	.loc	7 745 7                         @ ../ThirdParty/STM32F4xx_HAL_Driver/Src/stm32f4xx_hal_uart.c:745:7
	b	.LBB10_24
.Ltmp137:
.LBB10_18:                              @   in Loop: Header=BB10_10 Depth=1
	.loc	7 748 40                        @ ../ThirdParty/STM32F4xx_HAL_Driver/Src/stm32f4xx_hal_uart.c:748:40
	ldr	r0, [sp, #24]
	.loc	7 748 70 is_stmt 0              @ ../ThirdParty/STM32F4xx_HAL_Driver/Src/stm32f4xx_hal_uart.c:748:70
	ldr	r3, [sp, #4]
	.loc	7 748 81                        @ ../ThirdParty/STM32F4xx_HAL_Driver/Src/stm32f4xx_hal_uart.c:748:81
	ldr	r1, [sp, #12]
	.loc	7 748 12                        @ ../ThirdParty/STM32F4xx_HAL_Driver/Src/stm32f4xx_hal_uart.c:748:12
	mov	r2, sp
	str	r1, [r2]
	movs	r1, #32
	movs	r2, #0
	bl	UART_WaitOnFlagUntilTimeout
.Ltmp138:
	.loc	7 748 12                        @ ../ThirdParty/STM32F4xx_HAL_Driver/Src/stm32f4xx_hal_uart.c:748:12
	cbz	r0, .LBB10_20
	b	.LBB10_19
.LBB10_19:
	.loc	7 0 12                          @ ../ThirdParty/STM32F4xx_HAL_Driver/Src/stm32f4xx_hal_uart.c:0:12
	movs	r0, #3
.Ltmp139:
	.loc	7 750 11 is_stmt 1              @ ../ThirdParty/STM32F4xx_HAL_Driver/Src/stm32f4xx_hal_uart.c:750:11
	strb.w	r0, [sp, #31]
	b	.LBB10_29
.Ltmp140:
.LBB10_20:                              @   in Loop: Header=BB10_10 Depth=1
	.loc	7 752 12                        @ ../ThirdParty/STM32F4xx_HAL_Driver/Src/stm32f4xx_hal_uart.c:752:12
	ldr	r0, [sp, #24]
	.loc	7 752 24 is_stmt 0              @ ../ThirdParty/STM32F4xx_HAL_Driver/Src/stm32f4xx_hal_uart.c:752:24
	ldr	r0, [r0, #16]
.Ltmp141:
	.loc	7 752 12                        @ ../ThirdParty/STM32F4xx_HAL_Driver/Src/stm32f4xx_hal_uart.c:752:12
	cbnz	r0, .LBB10_22
	b	.LBB10_21
.LBB10_21:                              @   in Loop: Header=BB10_10 Depth=1
.Ltmp142:
	.loc	7 754 32 is_stmt 1              @ ../ThirdParty/STM32F4xx_HAL_Driver/Src/stm32f4xx_hal_uart.c:754:32
	ldr	r0, [sp, #24]
	.loc	7 754 39 is_stmt 0              @ ../ThirdParty/STM32F4xx_HAL_Driver/Src/stm32f4xx_hal_uart.c:754:39
	ldr	r0, [r0]
	.loc	7 754 49                        @ ../ThirdParty/STM32F4xx_HAL_Driver/Src/stm32f4xx_hal_uart.c:754:49
	ldr	r0, [r0, #4]
	.loc	7 754 17                        @ ../ThirdParty/STM32F4xx_HAL_Driver/Src/stm32f4xx_hal_uart.c:754:17
	ldr	r1, [sp, #20]
	adds	r2, r1, #1
	str	r2, [sp, #20]
	.loc	7 754 20                        @ ../ThirdParty/STM32F4xx_HAL_Driver/Src/stm32f4xx_hal_uart.c:754:20
	strb	r0, [r1]
	.loc	7 755 9 is_stmt 1               @ ../ThirdParty/STM32F4xx_HAL_Driver/Src/stm32f4xx_hal_uart.c:755:9
	b	.LBB10_23
.Ltmp143:
.LBB10_22:                              @   in Loop: Header=BB10_10 Depth=1
	.loc	7 758 32                        @ ../ThirdParty/STM32F4xx_HAL_Driver/Src/stm32f4xx_hal_uart.c:758:32
	ldr	r0, [sp, #24]
	.loc	7 758 39 is_stmt 0              @ ../ThirdParty/STM32F4xx_HAL_Driver/Src/stm32f4xx_hal_uart.c:758:39
	ldr	r0, [r0]
	.loc	7 758 49                        @ ../ThirdParty/STM32F4xx_HAL_Driver/Src/stm32f4xx_hal_uart.c:758:49
	ldr	r0, [r0, #4]
	.loc	7 758 52                        @ ../ThirdParty/STM32F4xx_HAL_Driver/Src/stm32f4xx_hal_uart.c:758:52
	and	r0, r0, #127
	.loc	7 758 17                        @ ../ThirdParty/STM32F4xx_HAL_Driver/Src/stm32f4xx_hal_uart.c:758:17
	ldr	r1, [sp, #20]
	adds	r2, r1, #1
	str	r2, [sp, #20]
	.loc	7 758 20                        @ ../ThirdParty/STM32F4xx_HAL_Driver/Src/stm32f4xx_hal_uart.c:758:20
	strb	r0, [r1]
	b	.LBB10_23
.Ltmp144:
.LBB10_23:                              @   in Loop: Header=BB10_10 Depth=1
	.loc	7 0 20                          @ ../ThirdParty/STM32F4xx_HAL_Driver/Src/stm32f4xx_hal_uart.c:0:20
	b	.LBB10_24
.LBB10_24:                              @   in Loop: Header=BB10_10 Depth=1
	.loc	7 724 5 is_stmt 1               @ ../ThirdParty/STM32F4xx_HAL_Driver/Src/stm32f4xx_hal_uart.c:724:5
	b	.LBB10_10
.LBB10_25:
	.loc	7 765 5                         @ ../ThirdParty/STM32F4xx_HAL_Driver/Src/stm32f4xx_hal_uart.c:765:5
	ldr	r1, [sp, #24]
	movs	r0, #32
	.loc	7 765 20 is_stmt 0              @ ../ThirdParty/STM32F4xx_HAL_Driver/Src/stm32f4xx_hal_uart.c:765:20
	strb.w	r0, [r1, #58]
	.loc	7 768 5 is_stmt 1               @ ../ThirdParty/STM32F4xx_HAL_Driver/Src/stm32f4xx_hal_uart.c:768:5
	b	.LBB10_26
.LBB10_26:
.Ltmp145:
	.loc	7 768 5 is_stmt 0               @ ../ThirdParty/STM32F4xx_HAL_Driver/Src/stm32f4xx_hal_uart.c:768:5
	ldr	r1, [sp, #24]
	movs	r0, #0
	strb.w	r0, [r1, #56]
	b	.LBB10_27
.Ltmp146:
.LBB10_27:
	.loc	7 0 5                           @ ../ThirdParty/STM32F4xx_HAL_Driver/Src/stm32f4xx_hal_uart.c:0:5
	movs	r0, #0
	.loc	7 770 5 is_stmt 1               @ ../ThirdParty/STM32F4xx_HAL_Driver/Src/stm32f4xx_hal_uart.c:770:5
	strb.w	r0, [sp, #31]
	b	.LBB10_29
.Ltmp147:
.LBB10_28:
	.loc	7 0 5 is_stmt 0                 @ ../ThirdParty/STM32F4xx_HAL_Driver/Src/stm32f4xx_hal_uart.c:0:5
	movs	r0, #2
.Ltmp148:
	.loc	7 774 5 is_stmt 1               @ ../ThirdParty/STM32F4xx_HAL_Driver/Src/stm32f4xx_hal_uart.c:774:5
	strb.w	r0, [sp, #31]
	b	.LBB10_29
.Ltmp149:
.LBB10_29:
	.loc	7 776 1                         @ ../ThirdParty/STM32F4xx_HAL_Driver/Src/stm32f4xx_hal_uart.c:776:1
	ldrb.w	r0, [sp, #31]
	.loc	7 776 1 epilogue_begin is_stmt 0 @ ../ThirdParty/STM32F4xx_HAL_Driver/Src/stm32f4xx_hal_uart.c:776:1
	add	sp, #32
	pop	{r7, pc}
.Ltmp150:
.Lfunc_end10:
	.size	HAL_UART_Receive, .Lfunc_end10-HAL_UART_Receive
	.cfi_endproc
	.cantunwind
	.fnend
                                        @ -- End function
	.section	.text.HAL_UART_Transmit_IT,"ax",%progbits
	.hidden	HAL_UART_Transmit_IT            @ -- Begin function HAL_UART_Transmit_IT
	.globl	HAL_UART_Transmit_IT
	.p2align	2
	.type	HAL_UART_Transmit_IT,%function
	.code	16                              @ @HAL_UART_Transmit_IT
	.thumb_func
HAL_UART_Transmit_IT:
.Lfunc_begin11:
	.loc	7 787 0 is_stmt 1               @ ../ThirdParty/STM32F4xx_HAL_Driver/Src/stm32f4xx_hal_uart.c:787:0
	.fnstart
	.cfi_startproc
@ %bb.0:
	.pad	#16
	sub	sp, #16
	.cfi_def_cfa_offset 16
                                        @ kill: def $r3 killed $r2
	str	r0, [sp, #8]
	str	r1, [sp, #4]
	strh.w	r2, [sp, #2]
.Ltmp151:
	.loc	7 789 6 prologue_end            @ ../ThirdParty/STM32F4xx_HAL_Driver/Src/stm32f4xx_hal_uart.c:789:6
	ldr	r0, [sp, #8]
	.loc	7 789 13 is_stmt 0              @ ../ThirdParty/STM32F4xx_HAL_Driver/Src/stm32f4xx_hal_uart.c:789:13
	ldrb.w	r0, [r0, #57]
.Ltmp152:
	.loc	7 789 6                         @ ../ThirdParty/STM32F4xx_HAL_Driver/Src/stm32f4xx_hal_uart.c:789:6
	cmp	r0, #32
	bne	.LBB11_12
	b	.LBB11_1
.LBB11_1:
.Ltmp153:
	.loc	7 791 9 is_stmt 1               @ ../ThirdParty/STM32F4xx_HAL_Driver/Src/stm32f4xx_hal_uart.c:791:9
	ldr	r0, [sp, #4]
	.loc	7 791 25 is_stmt 0              @ ../ThirdParty/STM32F4xx_HAL_Driver/Src/stm32f4xx_hal_uart.c:791:25
	cbz	r0, .LBB11_3
	b	.LBB11_2
.LBB11_2:
	.loc	7 791 29                        @ ../ThirdParty/STM32F4xx_HAL_Driver/Src/stm32f4xx_hal_uart.c:791:29
	ldrh.w	r0, [sp, #2]
.Ltmp154:
	.loc	7 791 8                         @ ../ThirdParty/STM32F4xx_HAL_Driver/Src/stm32f4xx_hal_uart.c:791:8
	cbnz	r0, .LBB11_4
	b	.LBB11_3
.LBB11_3:
	.loc	7 0 8                           @ ../ThirdParty/STM32F4xx_HAL_Driver/Src/stm32f4xx_hal_uart.c:0:8
	movs	r0, #1
.Ltmp155:
	.loc	7 793 7 is_stmt 1               @ ../ThirdParty/STM32F4xx_HAL_Driver/Src/stm32f4xx_hal_uart.c:793:7
	strb.w	r0, [sp, #15]
	b	.LBB11_13
.Ltmp156:
.LBB11_4:
	.loc	7 797 5                         @ ../ThirdParty/STM32F4xx_HAL_Driver/Src/stm32f4xx_hal_uart.c:797:5
	b	.LBB11_5
.LBB11_5:
.Ltmp157:
	.loc	7 797 5 is_stmt 0               @ ../ThirdParty/STM32F4xx_HAL_Driver/Src/stm32f4xx_hal_uart.c:797:5
	ldr	r0, [sp, #8]
	ldrb.w	r0, [r0, #56]
.Ltmp158:
	.loc	7 797 5                         @ ../ThirdParty/STM32F4xx_HAL_Driver/Src/stm32f4xx_hal_uart.c:797:5
	cmp	r0, #1
	bne	.LBB11_7
	b	.LBB11_6
.LBB11_6:
	.loc	7 0 5                           @ ../ThirdParty/STM32F4xx_HAL_Driver/Src/stm32f4xx_hal_uart.c:0:5
	movs	r0, #2
.Ltmp159:
	.loc	7 797 5                         @ ../ThirdParty/STM32F4xx_HAL_Driver/Src/stm32f4xx_hal_uart.c:797:5
	strb.w	r0, [sp, #15]
	b	.LBB11_13
.Ltmp160:
.LBB11_7:
	.loc	7 797 5                         @ ../ThirdParty/STM32F4xx_HAL_Driver/Src/stm32f4xx_hal_uart.c:797:5
	ldr	r1, [sp, #8]
	movs	r0, #1
	strb.w	r0, [r1, #56]
	b	.LBB11_8
.Ltmp161:
.LBB11_8:
	.loc	7 797 5                         @ ../ThirdParty/STM32F4xx_HAL_Driver/Src/stm32f4xx_hal_uart.c:797:5
	b	.LBB11_9
.Ltmp162:
.LBB11_9:
	.loc	7 799 25 is_stmt 1              @ ../ThirdParty/STM32F4xx_HAL_Driver/Src/stm32f4xx_hal_uart.c:799:25
	ldr	r0, [sp, #4]
	.loc	7 799 5 is_stmt 0               @ ../ThirdParty/STM32F4xx_HAL_Driver/Src/stm32f4xx_hal_uart.c:799:5
	ldr	r1, [sp, #8]
	.loc	7 799 23                        @ ../ThirdParty/STM32F4xx_HAL_Driver/Src/stm32f4xx_hal_uart.c:799:23
	str	r0, [r1, #32]
	.loc	7 800 25 is_stmt 1              @ ../ThirdParty/STM32F4xx_HAL_Driver/Src/stm32f4xx_hal_uart.c:800:25
	ldrh.w	r0, [sp, #2]
	.loc	7 800 5 is_stmt 0               @ ../ThirdParty/STM32F4xx_HAL_Driver/Src/stm32f4xx_hal_uart.c:800:5
	ldr	r1, [sp, #8]
	.loc	7 800 23                        @ ../ThirdParty/STM32F4xx_HAL_Driver/Src/stm32f4xx_hal_uart.c:800:23
	strh	r0, [r1, #36]
	.loc	7 801 26 is_stmt 1              @ ../ThirdParty/STM32F4xx_HAL_Driver/Src/stm32f4xx_hal_uart.c:801:26
	ldrh.w	r0, [sp, #2]
	.loc	7 801 5 is_stmt 0               @ ../ThirdParty/STM32F4xx_HAL_Driver/Src/stm32f4xx_hal_uart.c:801:5
	ldr	r1, [sp, #8]
	.loc	7 801 24                        @ ../ThirdParty/STM32F4xx_HAL_Driver/Src/stm32f4xx_hal_uart.c:801:24
	strh	r0, [r1, #38]
	.loc	7 803 5 is_stmt 1               @ ../ThirdParty/STM32F4xx_HAL_Driver/Src/stm32f4xx_hal_uart.c:803:5
	ldr	r1, [sp, #8]
	movs	r0, #0
	.loc	7 803 22 is_stmt 0              @ ../ThirdParty/STM32F4xx_HAL_Driver/Src/stm32f4xx_hal_uart.c:803:22
	str	r0, [r1, #60]
	.loc	7 804 5 is_stmt 1               @ ../ThirdParty/STM32F4xx_HAL_Driver/Src/stm32f4xx_hal_uart.c:804:5
	ldr	r1, [sp, #8]
	movs	r0, #33
	.loc	7 804 19 is_stmt 0              @ ../ThirdParty/STM32F4xx_HAL_Driver/Src/stm32f4xx_hal_uart.c:804:19
	strb.w	r0, [r1, #57]
	.loc	7 807 5 is_stmt 1               @ ../ThirdParty/STM32F4xx_HAL_Driver/Src/stm32f4xx_hal_uart.c:807:5
	b	.LBB11_10
.LBB11_10:
.Ltmp163:
	.loc	7 807 5 is_stmt 0               @ ../ThirdParty/STM32F4xx_HAL_Driver/Src/stm32f4xx_hal_uart.c:807:5
	ldr	r1, [sp, #8]
	movs	r0, #0
	strb.w	r0, [r1, #56]
	b	.LBB11_11
.Ltmp164:
.LBB11_11:
	.loc	7 810 5 is_stmt 1               @ ../ThirdParty/STM32F4xx_HAL_Driver/Src/stm32f4xx_hal_uart.c:810:5
	ldr	r0, [sp, #8]
	ldr	r1, [r0]
	ldr	r0, [r1, #12]
	orr	r0, r0, #128
	str	r0, [r1, #12]
	movs	r0, #0
	.loc	7 812 5                         @ ../ThirdParty/STM32F4xx_HAL_Driver/Src/stm32f4xx_hal_uart.c:812:5
	strb.w	r0, [sp, #15]
	b	.LBB11_13
.Ltmp165:
.LBB11_12:
	.loc	7 0 5 is_stmt 0                 @ ../ThirdParty/STM32F4xx_HAL_Driver/Src/stm32f4xx_hal_uart.c:0:5
	movs	r0, #2
.Ltmp166:
	.loc	7 816 5 is_stmt 1               @ ../ThirdParty/STM32F4xx_HAL_Driver/Src/stm32f4xx_hal_uart.c:816:5
	strb.w	r0, [sp, #15]
	b	.LBB11_13
.Ltmp167:
.LBB11_13:
	.loc	7 818 1                         @ ../ThirdParty/STM32F4xx_HAL_Driver/Src/stm32f4xx_hal_uart.c:818:1
	ldrb.w	r0, [sp, #15]
	.loc	7 818 1 epilogue_begin is_stmt 0 @ ../ThirdParty/STM32F4xx_HAL_Driver/Src/stm32f4xx_hal_uart.c:818:1
	add	sp, #16
	bx	lr
.Ltmp168:
.Lfunc_end11:
	.size	HAL_UART_Transmit_IT, .Lfunc_end11-HAL_UART_Transmit_IT
	.cfi_endproc
	.cantunwind
	.fnend
                                        @ -- End function
	.section	.text.HAL_UART_Receive_IT,"ax",%progbits
	.hidden	HAL_UART_Receive_IT             @ -- Begin function HAL_UART_Receive_IT
	.globl	HAL_UART_Receive_IT
	.p2align	2
	.type	HAL_UART_Receive_IT,%function
	.code	16                              @ @HAL_UART_Receive_IT
	.thumb_func
HAL_UART_Receive_IT:
.Lfunc_begin12:
	.loc	7 829 0 is_stmt 1               @ ../ThirdParty/STM32F4xx_HAL_Driver/Src/stm32f4xx_hal_uart.c:829:0
	.fnstart
	.cfi_startproc
@ %bb.0:
	.pad	#16
	sub	sp, #16
	.cfi_def_cfa_offset 16
                                        @ kill: def $r3 killed $r2
	str	r0, [sp, #8]
	str	r1, [sp, #4]
	strh.w	r2, [sp, #2]
.Ltmp169:
	.loc	7 831 6 prologue_end            @ ../ThirdParty/STM32F4xx_HAL_Driver/Src/stm32f4xx_hal_uart.c:831:6
	ldr	r0, [sp, #8]
	.loc	7 831 13 is_stmt 0              @ ../ThirdParty/STM32F4xx_HAL_Driver/Src/stm32f4xx_hal_uart.c:831:13
	ldrb.w	r0, [r0, #58]
.Ltmp170:
	.loc	7 831 6                         @ ../ThirdParty/STM32F4xx_HAL_Driver/Src/stm32f4xx_hal_uart.c:831:6
	cmp	r0, #32
	bne	.LBB12_12
	b	.LBB12_1
.LBB12_1:
.Ltmp171:
	.loc	7 833 9 is_stmt 1               @ ../ThirdParty/STM32F4xx_HAL_Driver/Src/stm32f4xx_hal_uart.c:833:9
	ldr	r0, [sp, #4]
	.loc	7 833 25 is_stmt 0              @ ../ThirdParty/STM32F4xx_HAL_Driver/Src/stm32f4xx_hal_uart.c:833:25
	cbz	r0, .LBB12_3
	b	.LBB12_2
.LBB12_2:
	.loc	7 833 29                        @ ../ThirdParty/STM32F4xx_HAL_Driver/Src/stm32f4xx_hal_uart.c:833:29
	ldrh.w	r0, [sp, #2]
.Ltmp172:
	.loc	7 833 8                         @ ../ThirdParty/STM32F4xx_HAL_Driver/Src/stm32f4xx_hal_uart.c:833:8
	cbnz	r0, .LBB12_4
	b	.LBB12_3
.LBB12_3:
	.loc	7 0 8                           @ ../ThirdParty/STM32F4xx_HAL_Driver/Src/stm32f4xx_hal_uart.c:0:8
	movs	r0, #1
.Ltmp173:
	.loc	7 835 7 is_stmt 1               @ ../ThirdParty/STM32F4xx_HAL_Driver/Src/stm32f4xx_hal_uart.c:835:7
	strb.w	r0, [sp, #15]
	b	.LBB12_13
.Ltmp174:
.LBB12_4:
	.loc	7 839 5                         @ ../ThirdParty/STM32F4xx_HAL_Driver/Src/stm32f4xx_hal_uart.c:839:5
	b	.LBB12_5
.LBB12_5:
.Ltmp175:
	.loc	7 839 5 is_stmt 0               @ ../ThirdParty/STM32F4xx_HAL_Driver/Src/stm32f4xx_hal_uart.c:839:5
	ldr	r0, [sp, #8]
	ldrb.w	r0, [r0, #56]
.Ltmp176:
	.loc	7 839 5                         @ ../ThirdParty/STM32F4xx_HAL_Driver/Src/stm32f4xx_hal_uart.c:839:5
	cmp	r0, #1
	bne	.LBB12_7
	b	.LBB12_6
.LBB12_6:
	.loc	7 0 5                           @ ../ThirdParty/STM32F4xx_HAL_Driver/Src/stm32f4xx_hal_uart.c:0:5
	movs	r0, #2
.Ltmp177:
	.loc	7 839 5                         @ ../ThirdParty/STM32F4xx_HAL_Driver/Src/stm32f4xx_hal_uart.c:839:5
	strb.w	r0, [sp, #15]
	b	.LBB12_13
.Ltmp178:
.LBB12_7:
	.loc	7 839 5                         @ ../ThirdParty/STM32F4xx_HAL_Driver/Src/stm32f4xx_hal_uart.c:839:5
	ldr	r1, [sp, #8]
	movs	r0, #1
	strb.w	r0, [r1, #56]
	b	.LBB12_8
.Ltmp179:
.LBB12_8:
	.loc	7 839 5                         @ ../ThirdParty/STM32F4xx_HAL_Driver/Src/stm32f4xx_hal_uart.c:839:5
	b	.LBB12_9
.Ltmp180:
.LBB12_9:
	.loc	7 841 25 is_stmt 1              @ ../ThirdParty/STM32F4xx_HAL_Driver/Src/stm32f4xx_hal_uart.c:841:25
	ldr	r0, [sp, #4]
	.loc	7 841 5 is_stmt 0               @ ../ThirdParty/STM32F4xx_HAL_Driver/Src/stm32f4xx_hal_uart.c:841:5
	ldr	r1, [sp, #8]
	.loc	7 841 23                        @ ../ThirdParty/STM32F4xx_HAL_Driver/Src/stm32f4xx_hal_uart.c:841:23
	str	r0, [r1, #40]
	.loc	7 842 25 is_stmt 1              @ ../ThirdParty/STM32F4xx_HAL_Driver/Src/stm32f4xx_hal_uart.c:842:25
	ldrh.w	r0, [sp, #2]
	.loc	7 842 5 is_stmt 0               @ ../ThirdParty/STM32F4xx_HAL_Driver/Src/stm32f4xx_hal_uart.c:842:5
	ldr	r1, [sp, #8]
	.loc	7 842 23                        @ ../ThirdParty/STM32F4xx_HAL_Driver/Src/stm32f4xx_hal_uart.c:842:23
	strh	r0, [r1, #44]
	.loc	7 843 26 is_stmt 1              @ ../ThirdParty/STM32F4xx_HAL_Driver/Src/stm32f4xx_hal_uart.c:843:26
	ldrh.w	r0, [sp, #2]
	.loc	7 843 5 is_stmt 0               @ ../ThirdParty/STM32F4xx_HAL_Driver/Src/stm32f4xx_hal_uart.c:843:5
	ldr	r1, [sp, #8]
	.loc	7 843 24                        @ ../ThirdParty/STM32F4xx_HAL_Driver/Src/stm32f4xx_hal_uart.c:843:24
	strh	r0, [r1, #46]
	.loc	7 845 5 is_stmt 1               @ ../ThirdParty/STM32F4xx_HAL_Driver/Src/stm32f4xx_hal_uart.c:845:5
	ldr	r1, [sp, #8]
	movs	r0, #0
	.loc	7 845 22 is_stmt 0              @ ../ThirdParty/STM32F4xx_HAL_Driver/Src/stm32f4xx_hal_uart.c:845:22
	str	r0, [r1, #60]
	.loc	7 846 5 is_stmt 1               @ ../ThirdParty/STM32F4xx_HAL_Driver/Src/stm32f4xx_hal_uart.c:846:5
	ldr	r1, [sp, #8]
	movs	r0, #34
	.loc	7 846 20 is_stmt 0              @ ../ThirdParty/STM32F4xx_HAL_Driver/Src/stm32f4xx_hal_uart.c:846:20
	strb.w	r0, [r1, #58]
	.loc	7 849 5 is_stmt 1               @ ../ThirdParty/STM32F4xx_HAL_Driver/Src/stm32f4xx_hal_uart.c:849:5
	b	.LBB12_10
.LBB12_10:
.Ltmp181:
	.loc	7 849 5 is_stmt 0               @ ../ThirdParty/STM32F4xx_HAL_Driver/Src/stm32f4xx_hal_uart.c:849:5
	ldr	r1, [sp, #8]
	movs	r0, #0
	strb.w	r0, [r1, #56]
	b	.LBB12_11
.Ltmp182:
.LBB12_11:
	.loc	7 852 5 is_stmt 1               @ ../ThirdParty/STM32F4xx_HAL_Driver/Src/stm32f4xx_hal_uart.c:852:5
	ldr	r0, [sp, #8]
	ldr	r1, [r0]
	ldr	r0, [r1, #20]
	orr	r0, r0, #1
	str	r0, [r1, #20]
	.loc	7 855 5                         @ ../ThirdParty/STM32F4xx_HAL_Driver/Src/stm32f4xx_hal_uart.c:855:5
	ldr	r0, [sp, #8]
	ldr	r1, [r0]
	ldr	r0, [r1, #12]
	orr	r0, r0, #288
	str	r0, [r1, #12]
	movs	r0, #0
	.loc	7 857 5                         @ ../ThirdParty/STM32F4xx_HAL_Driver/Src/stm32f4xx_hal_uart.c:857:5
	strb.w	r0, [sp, #15]
	b	.LBB12_13
.Ltmp183:
.LBB12_12:
	.loc	7 0 5 is_stmt 0                 @ ../ThirdParty/STM32F4xx_HAL_Driver/Src/stm32f4xx_hal_uart.c:0:5
	movs	r0, #2
.Ltmp184:
	.loc	7 861 5 is_stmt 1               @ ../ThirdParty/STM32F4xx_HAL_Driver/Src/stm32f4xx_hal_uart.c:861:5
	strb.w	r0, [sp, #15]
	b	.LBB12_13
.Ltmp185:
.LBB12_13:
	.loc	7 863 1                         @ ../ThirdParty/STM32F4xx_HAL_Driver/Src/stm32f4xx_hal_uart.c:863:1
	ldrb.w	r0, [sp, #15]
	.loc	7 863 1 epilogue_begin is_stmt 0 @ ../ThirdParty/STM32F4xx_HAL_Driver/Src/stm32f4xx_hal_uart.c:863:1
	add	sp, #16
	bx	lr
.Ltmp186:
.Lfunc_end12:
	.size	HAL_UART_Receive_IT, .Lfunc_end12-HAL_UART_Receive_IT
	.cfi_endproc
	.cantunwind
	.fnend
                                        @ -- End function
	.section	.text.HAL_UART_Transmit_DMA,"ax",%progbits
	.hidden	HAL_UART_Transmit_DMA           @ -- Begin function HAL_UART_Transmit_DMA
	.globl	HAL_UART_Transmit_DMA
	.p2align	2
	.type	HAL_UART_Transmit_DMA,%function
	.code	16                              @ @HAL_UART_Transmit_DMA
	.thumb_func
HAL_UART_Transmit_DMA:
.Lfunc_begin13:
	.loc	7 874 0 is_stmt 1               @ ../ThirdParty/STM32F4xx_HAL_Driver/Src/stm32f4xx_hal_uart.c:874:0
	.fnstart
	.cfi_startproc
@ %bb.0:
	.save	{r7, lr}
	push	{r7, lr}
	.cfi_def_cfa_offset 8
	.cfi_offset lr, -4
	.cfi_offset r7, -8
	.pad	#24
	sub	sp, #24
	.cfi_def_cfa_offset 32
                                        @ kill: def $r3 killed $r2
	str	r0, [sp, #16]
	str	r1, [sp, #12]
	strh.w	r2, [sp, #10]
.Ltmp187:
	.loc	7 878 6 prologue_end            @ ../ThirdParty/STM32F4xx_HAL_Driver/Src/stm32f4xx_hal_uart.c:878:6
	ldr	r0, [sp, #16]
	.loc	7 878 13 is_stmt 0              @ ../ThirdParty/STM32F4xx_HAL_Driver/Src/stm32f4xx_hal_uart.c:878:13
	ldrb.w	r0, [r0, #57]
.Ltmp188:
	.loc	7 878 6                         @ ../ThirdParty/STM32F4xx_HAL_Driver/Src/stm32f4xx_hal_uart.c:878:6
	cmp	r0, #32
	bne	.LBB13_12
	b	.LBB13_1
.LBB13_1:
.Ltmp189:
	.loc	7 880 9 is_stmt 1               @ ../ThirdParty/STM32F4xx_HAL_Driver/Src/stm32f4xx_hal_uart.c:880:9
	ldr	r0, [sp, #12]
	.loc	7 880 25 is_stmt 0              @ ../ThirdParty/STM32F4xx_HAL_Driver/Src/stm32f4xx_hal_uart.c:880:25
	cbz	r0, .LBB13_3
	b	.LBB13_2
.LBB13_2:
	.loc	7 880 29                        @ ../ThirdParty/STM32F4xx_HAL_Driver/Src/stm32f4xx_hal_uart.c:880:29
	ldrh.w	r0, [sp, #10]
.Ltmp190:
	.loc	7 880 8                         @ ../ThirdParty/STM32F4xx_HAL_Driver/Src/stm32f4xx_hal_uart.c:880:8
	cbnz	r0, .LBB13_4
	b	.LBB13_3
.LBB13_3:
	.loc	7 0 8                           @ ../ThirdParty/STM32F4xx_HAL_Driver/Src/stm32f4xx_hal_uart.c:0:8
	movs	r0, #1
.Ltmp191:
	.loc	7 882 7 is_stmt 1               @ ../ThirdParty/STM32F4xx_HAL_Driver/Src/stm32f4xx_hal_uart.c:882:7
	strb.w	r0, [sp, #23]
	b	.LBB13_13
.Ltmp192:
.LBB13_4:
	.loc	7 886 5                         @ ../ThirdParty/STM32F4xx_HAL_Driver/Src/stm32f4xx_hal_uart.c:886:5
	b	.LBB13_5
.LBB13_5:
.Ltmp193:
	.loc	7 886 5 is_stmt 0               @ ../ThirdParty/STM32F4xx_HAL_Driver/Src/stm32f4xx_hal_uart.c:886:5
	ldr	r0, [sp, #16]
	ldrb.w	r0, [r0, #56]
.Ltmp194:
	.loc	7 886 5                         @ ../ThirdParty/STM32F4xx_HAL_Driver/Src/stm32f4xx_hal_uart.c:886:5
	cmp	r0, #1
	bne	.LBB13_7
	b	.LBB13_6
.LBB13_6:
	.loc	7 0 5                           @ ../ThirdParty/STM32F4xx_HAL_Driver/Src/stm32f4xx_hal_uart.c:0:5
	movs	r0, #2
.Ltmp195:
	.loc	7 886 5                         @ ../ThirdParty/STM32F4xx_HAL_Driver/Src/stm32f4xx_hal_uart.c:886:5
	strb.w	r0, [sp, #23]
	b	.LBB13_13
.Ltmp196:
.LBB13_7:
	.loc	7 886 5                         @ ../ThirdParty/STM32F4xx_HAL_Driver/Src/stm32f4xx_hal_uart.c:886:5
	ldr	r1, [sp, #16]
	movs	r0, #1
	strb.w	r0, [r1, #56]
	b	.LBB13_8
.Ltmp197:
.LBB13_8:
	.loc	7 886 5                         @ ../ThirdParty/STM32F4xx_HAL_Driver/Src/stm32f4xx_hal_uart.c:886:5
	b	.LBB13_9
.Ltmp198:
.LBB13_9:
	.loc	7 888 25 is_stmt 1              @ ../ThirdParty/STM32F4xx_HAL_Driver/Src/stm32f4xx_hal_uart.c:888:25
	ldr	r0, [sp, #12]
	.loc	7 888 5 is_stmt 0               @ ../ThirdParty/STM32F4xx_HAL_Driver/Src/stm32f4xx_hal_uart.c:888:5
	ldr	r1, [sp, #16]
	.loc	7 888 23                        @ ../ThirdParty/STM32F4xx_HAL_Driver/Src/stm32f4xx_hal_uart.c:888:23
	str	r0, [r1, #32]
	.loc	7 889 25 is_stmt 1              @ ../ThirdParty/STM32F4xx_HAL_Driver/Src/stm32f4xx_hal_uart.c:889:25
	ldrh.w	r0, [sp, #10]
	.loc	7 889 5 is_stmt 0               @ ../ThirdParty/STM32F4xx_HAL_Driver/Src/stm32f4xx_hal_uart.c:889:5
	ldr	r1, [sp, #16]
	.loc	7 889 23                        @ ../ThirdParty/STM32F4xx_HAL_Driver/Src/stm32f4xx_hal_uart.c:889:23
	strh	r0, [r1, #36]
	.loc	7 890 26 is_stmt 1              @ ../ThirdParty/STM32F4xx_HAL_Driver/Src/stm32f4xx_hal_uart.c:890:26
	ldrh.w	r0, [sp, #10]
	.loc	7 890 5 is_stmt 0               @ ../ThirdParty/STM32F4xx_HAL_Driver/Src/stm32f4xx_hal_uart.c:890:5
	ldr	r1, [sp, #16]
	.loc	7 890 24                        @ ../ThirdParty/STM32F4xx_HAL_Driver/Src/stm32f4xx_hal_uart.c:890:24
	strh	r0, [r1, #38]
	.loc	7 892 5 is_stmt 1               @ ../ThirdParty/STM32F4xx_HAL_Driver/Src/stm32f4xx_hal_uart.c:892:5
	ldr	r1, [sp, #16]
	movs	r0, #0
	.loc	7 892 22 is_stmt 0              @ ../ThirdParty/STM32F4xx_HAL_Driver/Src/stm32f4xx_hal_uart.c:892:22
	str	r0, [r1, #60]
	.loc	7 893 5 is_stmt 1               @ ../ThirdParty/STM32F4xx_HAL_Driver/Src/stm32f4xx_hal_uart.c:893:5
	ldr	r2, [sp, #16]
	movs	r1, #33
	.loc	7 893 19 is_stmt 0              @ ../ThirdParty/STM32F4xx_HAL_Driver/Src/stm32f4xx_hal_uart.c:893:19
	strb.w	r1, [r2, #57]
	.loc	7 896 5 is_stmt 1               @ ../ThirdParty/STM32F4xx_HAL_Driver/Src/stm32f4xx_hal_uart.c:896:5
	ldr	r1, [sp, #16]
	.loc	7 896 12 is_stmt 0              @ ../ThirdParty/STM32F4xx_HAL_Driver/Src/stm32f4xx_hal_uart.c:896:12
	ldr	r2, [r1, #48]
	.loc	7 896 37                        @ ../ThirdParty/STM32F4xx_HAL_Driver/Src/stm32f4xx_hal_uart.c:896:37
	movw	r1, :lower16:UART_DMATransmitCplt
	movt	r1, :upper16:UART_DMATransmitCplt
	str	r1, [r2, #60]
	.loc	7 899 5 is_stmt 1               @ ../ThirdParty/STM32F4xx_HAL_Driver/Src/stm32f4xx_hal_uart.c:899:5
	ldr	r1, [sp, #16]
	.loc	7 899 12 is_stmt 0              @ ../ThirdParty/STM32F4xx_HAL_Driver/Src/stm32f4xx_hal_uart.c:899:12
	ldr	r2, [r1, #48]
	.loc	7 899 41                        @ ../ThirdParty/STM32F4xx_HAL_Driver/Src/stm32f4xx_hal_uart.c:899:41
	movw	r1, :lower16:UART_DMATxHalfCplt
	movt	r1, :upper16:UART_DMATxHalfCplt
	str	r1, [r2, #64]
	.loc	7 902 5 is_stmt 1               @ ../ThirdParty/STM32F4xx_HAL_Driver/Src/stm32f4xx_hal_uart.c:902:5
	ldr	r1, [sp, #16]
	.loc	7 902 12 is_stmt 0              @ ../ThirdParty/STM32F4xx_HAL_Driver/Src/stm32f4xx_hal_uart.c:902:12
	ldr	r2, [r1, #48]
	.loc	7 902 38                        @ ../ThirdParty/STM32F4xx_HAL_Driver/Src/stm32f4xx_hal_uart.c:902:38
	movw	r1, :lower16:UART_DMAError
	movt	r1, :upper16:UART_DMAError
	str	r1, [r2, #76]
	.loc	7 905 5 is_stmt 1               @ ../ThirdParty/STM32F4xx_HAL_Driver/Src/stm32f4xx_hal_uart.c:905:5
	ldr	r1, [sp, #16]
	.loc	7 905 12 is_stmt 0              @ ../ThirdParty/STM32F4xx_HAL_Driver/Src/stm32f4xx_hal_uart.c:905:12
	ldr	r1, [r1, #48]
	.loc	7 905 38                        @ ../ThirdParty/STM32F4xx_HAL_Driver/Src/stm32f4xx_hal_uart.c:905:38
	str	r0, [r1, #80]
	add	r0, sp, #12
	.loc	7 908 9 is_stmt 1               @ ../ThirdParty/STM32F4xx_HAL_Driver/Src/stm32f4xx_hal_uart.c:908:9
	str	r0, [sp, #4]
	.loc	7 909 22                        @ ../ThirdParty/STM32F4xx_HAL_Driver/Src/stm32f4xx_hal_uart.c:909:22
	ldr	r0, [sp, #16]
	.loc	7 909 72 is_stmt 0              @ ../ThirdParty/STM32F4xx_HAL_Driver/Src/stm32f4xx_hal_uart.c:909:72
	ldr	r2, [r0]
	.loc	7 909 29                        @ ../ThirdParty/STM32F4xx_HAL_Driver/Src/stm32f4xx_hal_uart.c:909:29
	ldr	r0, [r0, #48]
	.loc	7 909 49                        @ ../ThirdParty/STM32F4xx_HAL_Driver/Src/stm32f4xx_hal_uart.c:909:49
	ldr	r1, [sp, #4]
	.loc	7 909 37                        @ ../ThirdParty/STM32F4xx_HAL_Driver/Src/stm32f4xx_hal_uart.c:909:37
	ldr	r1, [r1]
	.loc	7 909 82                        @ ../ThirdParty/STM32F4xx_HAL_Driver/Src/stm32f4xx_hal_uart.c:909:82
	adds	r2, #4
	.loc	7 909 86                        @ ../ThirdParty/STM32F4xx_HAL_Driver/Src/stm32f4xx_hal_uart.c:909:86
	ldrh.w	r3, [sp, #10]
	.loc	7 909 5                         @ ../ThirdParty/STM32F4xx_HAL_Driver/Src/stm32f4xx_hal_uart.c:909:5
	bl	HAL_DMA_Start_IT
	.loc	7 912 5 is_stmt 1               @ ../ThirdParty/STM32F4xx_HAL_Driver/Src/stm32f4xx_hal_uart.c:912:5
	ldr	r0, [sp, #16]
	ldr	r1, [r0]
	mvn	r0, #64
	str	r0, [r1]
	.loc	7 915 5                         @ ../ThirdParty/STM32F4xx_HAL_Driver/Src/stm32f4xx_hal_uart.c:915:5
	b	.LBB13_10
.LBB13_10:
.Ltmp199:
	.loc	7 915 5 is_stmt 0               @ ../ThirdParty/STM32F4xx_HAL_Driver/Src/stm32f4xx_hal_uart.c:915:5
	ldr	r1, [sp, #16]
	movs	r0, #0
	strb.w	r0, [r1, #56]
	b	.LBB13_11
.Ltmp200:
.LBB13_11:
	.loc	7 919 5 is_stmt 1               @ ../ThirdParty/STM32F4xx_HAL_Driver/Src/stm32f4xx_hal_uart.c:919:5
	ldr	r0, [sp, #16]
	ldr	r1, [r0]
	ldr	r0, [r1, #20]
	orr	r0, r0, #128
	str	r0, [r1, #20]
	movs	r0, #0
	.loc	7 921 5                         @ ../ThirdParty/STM32F4xx_HAL_Driver/Src/stm32f4xx_hal_uart.c:921:5
	strb.w	r0, [sp, #23]
	b	.LBB13_13
.Ltmp201:
.LBB13_12:
	.loc	7 0 5 is_stmt 0                 @ ../ThirdParty/STM32F4xx_HAL_Driver/Src/stm32f4xx_hal_uart.c:0:5
	movs	r0, #2
.Ltmp202:
	.loc	7 925 5 is_stmt 1               @ ../ThirdParty/STM32F4xx_HAL_Driver/Src/stm32f4xx_hal_uart.c:925:5
	strb.w	r0, [sp, #23]
	b	.LBB13_13
.Ltmp203:
.LBB13_13:
	.loc	7 927 1                         @ ../ThirdParty/STM32F4xx_HAL_Driver/Src/stm32f4xx_hal_uart.c:927:1
	ldrb.w	r0, [sp, #23]
	.loc	7 927 1 epilogue_begin is_stmt 0 @ ../ThirdParty/STM32F4xx_HAL_Driver/Src/stm32f4xx_hal_uart.c:927:1
	add	sp, #24
	pop	{r7, pc}
.Ltmp204:
.Lfunc_end13:
	.size	HAL_UART_Transmit_DMA, .Lfunc_end13-HAL_UART_Transmit_DMA
	.cfi_endproc
	.cantunwind
	.fnend
                                        @ -- End function
	.section	.text.UART_DMATransmitCplt,"ax",%progbits
	.p2align	2                               @ -- Begin function UART_DMATransmitCplt
	.type	UART_DMATransmitCplt,%function
	.code	16                              @ @UART_DMATransmitCplt
	.thumb_func
UART_DMATransmitCplt:
.Lfunc_begin14:
	.loc	7 1993 0 is_stmt 1              @ ../ThirdParty/STM32F4xx_HAL_Driver/Src/stm32f4xx_hal_uart.c:1993:0
	.fnstart
	.cfi_startproc
@ %bb.0:
	.save	{r7, lr}
	push	{r7, lr}
	.cfi_def_cfa_offset 8
	.cfi_offset lr, -4
	.cfi_offset r7, -8
	.pad	#8
	sub	sp, #8
	.cfi_def_cfa_offset 16
	str	r0, [sp, #4]
.Ltmp205:
	.loc	7 1994 76 prologue_end          @ ../ThirdParty/STM32F4xx_HAL_Driver/Src/stm32f4xx_hal_uart.c:1994:76
	ldr	r0, [sp, #4]
	.loc	7 1994 83 is_stmt 0             @ ../ThirdParty/STM32F4xx_HAL_Driver/Src/stm32f4xx_hal_uart.c:1994:83
	ldr	r0, [r0, #56]
	.loc	7 1994 23                       @ ../ThirdParty/STM32F4xx_HAL_Driver/Src/stm32f4xx_hal_uart.c:1994:23
	str	r0, [sp]
.Ltmp206:
	.loc	7 1996 7 is_stmt 1              @ ../ThirdParty/STM32F4xx_HAL_Driver/Src/stm32f4xx_hal_uart.c:1996:7
	ldr	r0, [sp, #4]
	.loc	7 1996 13 is_stmt 0             @ ../ThirdParty/STM32F4xx_HAL_Driver/Src/stm32f4xx_hal_uart.c:1996:13
	ldr	r0, [r0]
	.loc	7 1996 23                       @ ../ThirdParty/STM32F4xx_HAL_Driver/Src/stm32f4xx_hal_uart.c:1996:23
	ldr	r0, [r0]
.Ltmp207:
	.loc	7 1996 6                        @ ../ThirdParty/STM32F4xx_HAL_Driver/Src/stm32f4xx_hal_uart.c:1996:6
	lsls	r0, r0, #23
	cmp	r0, #0
	bmi	.LBB14_2
	b	.LBB14_1
.LBB14_1:
.Ltmp208:
	.loc	7 1998 5 is_stmt 1              @ ../ThirdParty/STM32F4xx_HAL_Driver/Src/stm32f4xx_hal_uart.c:1998:5
	ldr	r1, [sp]
	movs	r0, #0
	.loc	7 1998 24 is_stmt 0             @ ../ThirdParty/STM32F4xx_HAL_Driver/Src/stm32f4xx_hal_uart.c:1998:24
	strh	r0, [r1, #38]
	.loc	7 2002 5 is_stmt 1              @ ../ThirdParty/STM32F4xx_HAL_Driver/Src/stm32f4xx_hal_uart.c:2002:5
	ldr	r0, [sp]
	ldr	r1, [r0]
	ldr	r0, [r1, #20]
	bic	r0, r0, #128
	str	r0, [r1, #20]
	.loc	7 2005 5                        @ ../ThirdParty/STM32F4xx_HAL_Driver/Src/stm32f4xx_hal_uart.c:2005:5
	ldr	r0, [sp]
	ldr	r1, [r0]
	ldr	r0, [r1, #12]
	orr	r0, r0, #64
	str	r0, [r1, #12]
	.loc	7 2007 3                        @ ../ThirdParty/STM32F4xx_HAL_Driver/Src/stm32f4xx_hal_uart.c:2007:3
	b	.LBB14_3
.Ltmp209:
.LBB14_2:
	.loc	7 2011 29                       @ ../ThirdParty/STM32F4xx_HAL_Driver/Src/stm32f4xx_hal_uart.c:2011:29
	ldr	r0, [sp]
	.loc	7 2011 5 is_stmt 0              @ ../ThirdParty/STM32F4xx_HAL_Driver/Src/stm32f4xx_hal_uart.c:2011:5
	bl	HAL_UART_TxCpltCallback
	b	.LBB14_3
.Ltmp210:
.LBB14_3:
	.loc	7 2013 1 epilogue_begin is_stmt 1 @ ../ThirdParty/STM32F4xx_HAL_Driver/Src/stm32f4xx_hal_uart.c:2013:1
	add	sp, #8
	pop	{r7, pc}
.Ltmp211:
.Lfunc_end14:
	.size	UART_DMATransmitCplt, .Lfunc_end14-UART_DMATransmitCplt
	.cfi_endproc
	.cantunwind
	.fnend
                                        @ -- End function
	.section	.text.UART_DMATxHalfCplt,"ax",%progbits
	.p2align	2                               @ -- Begin function UART_DMATxHalfCplt
	.type	UART_DMATxHalfCplt,%function
	.code	16                              @ @UART_DMATxHalfCplt
	.thumb_func
UART_DMATxHalfCplt:
.Lfunc_begin15:
	.loc	7 2022 0                        @ ../ThirdParty/STM32F4xx_HAL_Driver/Src/stm32f4xx_hal_uart.c:2022:0
	.fnstart
	.cfi_startproc
@ %bb.0:
	.save	{r7, lr}
	push	{r7, lr}
	.cfi_def_cfa_offset 8
	.cfi_offset lr, -4
	.cfi_offset r7, -8
	.pad	#8
	sub	sp, #8
	.cfi_def_cfa_offset 16
	str	r0, [sp, #4]
.Ltmp212:
	.loc	7 2023 73 prologue_end          @ ../ThirdParty/STM32F4xx_HAL_Driver/Src/stm32f4xx_hal_uart.c:2023:73
	ldr	r0, [sp, #4]
	.loc	7 2023 80 is_stmt 0             @ ../ThirdParty/STM32F4xx_HAL_Driver/Src/stm32f4xx_hal_uart.c:2023:80
	ldr	r0, [r0, #56]
	.loc	7 2023 23                       @ ../ThirdParty/STM32F4xx_HAL_Driver/Src/stm32f4xx_hal_uart.c:2023:23
	str	r0, [sp]
	.loc	7 2025 31 is_stmt 1             @ ../ThirdParty/STM32F4xx_HAL_Driver/Src/stm32f4xx_hal_uart.c:2025:31
	ldr	r0, [sp]
	.loc	7 2025 3 is_stmt 0              @ ../ThirdParty/STM32F4xx_HAL_Driver/Src/stm32f4xx_hal_uart.c:2025:3
	bl	HAL_UART_TxHalfCpltCallback
	.loc	7 2026 1 epilogue_begin is_stmt 1 @ ../ThirdParty/STM32F4xx_HAL_Driver/Src/stm32f4xx_hal_uart.c:2026:1
	add	sp, #8
	pop	{r7, pc}
.Ltmp213:
.Lfunc_end15:
	.size	UART_DMATxHalfCplt, .Lfunc_end15-UART_DMATxHalfCplt
	.cfi_endproc
	.cantunwind
	.fnend
                                        @ -- End function
	.section	.text.UART_DMAError,"ax",%progbits
	.p2align	2                               @ -- Begin function UART_DMAError
	.type	UART_DMAError,%function
	.code	16                              @ @UART_DMAError
	.thumb_func
UART_DMAError:
.Lfunc_begin16:
	.loc	7 2074 0                        @ ../ThirdParty/STM32F4xx_HAL_Driver/Src/stm32f4xx_hal_uart.c:2074:0
	.fnstart
	.cfi_startproc
@ %bb.0:
	.save	{r7, lr}
	push	{r7, lr}
	.cfi_def_cfa_offset 8
	.cfi_offset lr, -4
	.cfi_offset r7, -8
	.pad	#16
	sub	sp, #16
	.cfi_def_cfa_offset 24
	str	r0, [sp, #12]
	movs	r0, #0
.Ltmp214:
	.loc	7 2075 12 prologue_end          @ ../ThirdParty/STM32F4xx_HAL_Driver/Src/stm32f4xx_hal_uart.c:2075:12
	str	r0, [sp, #8]
	.loc	7 2076 76                       @ ../ThirdParty/STM32F4xx_HAL_Driver/Src/stm32f4xx_hal_uart.c:2076:76
	ldr	r0, [sp, #12]
	.loc	7 2076 83 is_stmt 0             @ ../ThirdParty/STM32F4xx_HAL_Driver/Src/stm32f4xx_hal_uart.c:2076:83
	ldr	r0, [r0, #56]
	.loc	7 2076 23                       @ ../ThirdParty/STM32F4xx_HAL_Driver/Src/stm32f4xx_hal_uart.c:2076:23
	str	r0, [sp, #4]
	.loc	7 2079 16 is_stmt 1             @ ../ThirdParty/STM32F4xx_HAL_Driver/Src/stm32f4xx_hal_uart.c:2079:16
	ldr	r0, [sp, #4]
	ldr	r0, [r0]
	ldr	r0, [r0, #20]
	uxtb	r0, r0
	lsrs	r0, r0, #7
	.loc	7 2079 14 is_stmt 0             @ ../ThirdParty/STM32F4xx_HAL_Driver/Src/stm32f4xx_hal_uart.c:2079:14
	str	r0, [sp, #8]
.Ltmp215:
	.loc	7 2080 7 is_stmt 1              @ ../ThirdParty/STM32F4xx_HAL_Driver/Src/stm32f4xx_hal_uart.c:2080:7
	ldr	r0, [sp, #4]
	.loc	7 2080 14 is_stmt 0             @ ../ThirdParty/STM32F4xx_HAL_Driver/Src/stm32f4xx_hal_uart.c:2080:14
	ldrb.w	r0, [r0, #57]
	.loc	7 2080 48                       @ ../ThirdParty/STM32F4xx_HAL_Driver/Src/stm32f4xx_hal_uart.c:2080:48
	cmp	r0, #33
	bne	.LBB16_3
	b	.LBB16_1
.LBB16_1:
	.loc	7 2080 51                       @ ../ThirdParty/STM32F4xx_HAL_Driver/Src/stm32f4xx_hal_uart.c:2080:51
	ldr	r0, [sp, #8]
.Ltmp216:
	.loc	7 2080 6                        @ ../ThirdParty/STM32F4xx_HAL_Driver/Src/stm32f4xx_hal_uart.c:2080:6
	cbz	r0, .LBB16_3
	b	.LBB16_2
.LBB16_2:
.Ltmp217:
	.loc	7 2082 5 is_stmt 1              @ ../ThirdParty/STM32F4xx_HAL_Driver/Src/stm32f4xx_hal_uart.c:2082:5
	ldr	r1, [sp, #4]
	movs	r0, #0
	.loc	7 2082 24 is_stmt 0             @ ../ThirdParty/STM32F4xx_HAL_Driver/Src/stm32f4xx_hal_uart.c:2082:24
	strh	r0, [r1, #38]
	.loc	7 2083 24 is_stmt 1             @ ../ThirdParty/STM32F4xx_HAL_Driver/Src/stm32f4xx_hal_uart.c:2083:24
	ldr	r0, [sp, #4]
	.loc	7 2083 5 is_stmt 0              @ ../ThirdParty/STM32F4xx_HAL_Driver/Src/stm32f4xx_hal_uart.c:2083:5
	bl	UART_EndTxTransfer
	.loc	7 2084 3 is_stmt 1              @ ../ThirdParty/STM32F4xx_HAL_Driver/Src/stm32f4xx_hal_uart.c:2084:3
	b	.LBB16_3
.Ltmp218:
.LBB16_3:
	.loc	7 2087 16                       @ ../ThirdParty/STM32F4xx_HAL_Driver/Src/stm32f4xx_hal_uart.c:2087:16
	ldr	r0, [sp, #4]
	ldr	r0, [r0]
	ldr	r0, [r0, #20]
	ubfx	r0, r0, #6, #1
	.loc	7 2087 14 is_stmt 0             @ ../ThirdParty/STM32F4xx_HAL_Driver/Src/stm32f4xx_hal_uart.c:2087:14
	str	r0, [sp, #8]
.Ltmp219:
	.loc	7 2088 7 is_stmt 1              @ ../ThirdParty/STM32F4xx_HAL_Driver/Src/stm32f4xx_hal_uart.c:2088:7
	ldr	r0, [sp, #4]
	.loc	7 2088 14 is_stmt 0             @ ../ThirdParty/STM32F4xx_HAL_Driver/Src/stm32f4xx_hal_uart.c:2088:14
	ldrb.w	r0, [r0, #58]
	.loc	7 2088 49                       @ ../ThirdParty/STM32F4xx_HAL_Driver/Src/stm32f4xx_hal_uart.c:2088:49
	cmp	r0, #34
	bne	.LBB16_6
	b	.LBB16_4
.LBB16_4:
	.loc	7 2088 52                       @ ../ThirdParty/STM32F4xx_HAL_Driver/Src/stm32f4xx_hal_uart.c:2088:52
	ldr	r0, [sp, #8]
.Ltmp220:
	.loc	7 2088 6                        @ ../ThirdParty/STM32F4xx_HAL_Driver/Src/stm32f4xx_hal_uart.c:2088:6
	cbz	r0, .LBB16_6
	b	.LBB16_5
.LBB16_5:
.Ltmp221:
	.loc	7 2090 5 is_stmt 1              @ ../ThirdParty/STM32F4xx_HAL_Driver/Src/stm32f4xx_hal_uart.c:2090:5
	ldr	r1, [sp, #4]
	movs	r0, #0
	.loc	7 2090 24 is_stmt 0             @ ../ThirdParty/STM32F4xx_HAL_Driver/Src/stm32f4xx_hal_uart.c:2090:24
	strh	r0, [r1, #46]
	.loc	7 2091 24 is_stmt 1             @ ../ThirdParty/STM32F4xx_HAL_Driver/Src/stm32f4xx_hal_uart.c:2091:24
	ldr	r0, [sp, #4]
	.loc	7 2091 5 is_stmt 0              @ ../ThirdParty/STM32F4xx_HAL_Driver/Src/stm32f4xx_hal_uart.c:2091:5
	bl	UART_EndRxTransfer
	.loc	7 2092 3 is_stmt 1              @ ../ThirdParty/STM32F4xx_HAL_Driver/Src/stm32f4xx_hal_uart.c:2092:3
	b	.LBB16_6
.Ltmp222:
.LBB16_6:
	.loc	7 2094 3                        @ ../ThirdParty/STM32F4xx_HAL_Driver/Src/stm32f4xx_hal_uart.c:2094:3
	ldr	r1, [sp, #4]
	.loc	7 2094 20 is_stmt 0             @ ../ThirdParty/STM32F4xx_HAL_Driver/Src/stm32f4xx_hal_uart.c:2094:20
	ldr	r0, [r1, #60]
	orr	r0, r0, #16
	str	r0, [r1, #60]
	.loc	7 2095 26 is_stmt 1             @ ../ThirdParty/STM32F4xx_HAL_Driver/Src/stm32f4xx_hal_uart.c:2095:26
	ldr	r0, [sp, #4]
	.loc	7 2095 3 is_stmt 0              @ ../ThirdParty/STM32F4xx_HAL_Driver/Src/stm32f4xx_hal_uart.c:2095:3
	bl	HAL_UART_ErrorCallback
	.loc	7 2096 1 epilogue_begin is_stmt 1 @ ../ThirdParty/STM32F4xx_HAL_Driver/Src/stm32f4xx_hal_uart.c:2096:1
	add	sp, #16
	pop	{r7, pc}
.Ltmp223:
.Lfunc_end16:
	.size	UART_DMAError, .Lfunc_end16-UART_DMAError
	.cfi_endproc
	.cantunwind
	.fnend
                                        @ -- End function
	.section	.text.HAL_UART_Receive_DMA,"ax",%progbits
	.hidden	HAL_UART_Receive_DMA            @ -- Begin function HAL_UART_Receive_DMA
	.globl	HAL_UART_Receive_DMA
	.p2align	2
	.type	HAL_UART_Receive_DMA,%function
	.code	16                              @ @HAL_UART_Receive_DMA
	.thumb_func
HAL_UART_Receive_DMA:
.Lfunc_begin17:
	.loc	7 939 0                         @ ../ThirdParty/STM32F4xx_HAL_Driver/Src/stm32f4xx_hal_uart.c:939:0
	.fnstart
	.cfi_startproc
@ %bb.0:
	.save	{r7, lr}
	push	{r7, lr}
	.cfi_def_cfa_offset 8
	.cfi_offset lr, -4
	.cfi_offset r7, -8
	.pad	#24
	sub	sp, #24
	.cfi_def_cfa_offset 32
                                        @ kill: def $r3 killed $r2
	str	r0, [sp, #16]
	str	r1, [sp, #12]
	strh.w	r2, [sp, #10]
.Ltmp224:
	.loc	7 943 6 prologue_end            @ ../ThirdParty/STM32F4xx_HAL_Driver/Src/stm32f4xx_hal_uart.c:943:6
	ldr	r0, [sp, #16]
	.loc	7 943 13 is_stmt 0              @ ../ThirdParty/STM32F4xx_HAL_Driver/Src/stm32f4xx_hal_uart.c:943:13
	ldrb.w	r0, [r0, #58]
.Ltmp225:
	.loc	7 943 6                         @ ../ThirdParty/STM32F4xx_HAL_Driver/Src/stm32f4xx_hal_uart.c:943:6
	cmp	r0, #32
	bne	.LBB17_14
	b	.LBB17_1
.LBB17_1:
.Ltmp226:
	.loc	7 945 9 is_stmt 1               @ ../ThirdParty/STM32F4xx_HAL_Driver/Src/stm32f4xx_hal_uart.c:945:9
	ldr	r0, [sp, #12]
	.loc	7 945 25 is_stmt 0              @ ../ThirdParty/STM32F4xx_HAL_Driver/Src/stm32f4xx_hal_uart.c:945:25
	cbz	r0, .LBB17_3
	b	.LBB17_2
.LBB17_2:
	.loc	7 945 29                        @ ../ThirdParty/STM32F4xx_HAL_Driver/Src/stm32f4xx_hal_uart.c:945:29
	ldrh.w	r0, [sp, #10]
.Ltmp227:
	.loc	7 945 8                         @ ../ThirdParty/STM32F4xx_HAL_Driver/Src/stm32f4xx_hal_uart.c:945:8
	cbnz	r0, .LBB17_4
	b	.LBB17_3
.LBB17_3:
	.loc	7 0 8                           @ ../ThirdParty/STM32F4xx_HAL_Driver/Src/stm32f4xx_hal_uart.c:0:8
	movs	r0, #1
.Ltmp228:
	.loc	7 947 7 is_stmt 1               @ ../ThirdParty/STM32F4xx_HAL_Driver/Src/stm32f4xx_hal_uart.c:947:7
	strb.w	r0, [sp, #23]
	b	.LBB17_15
.Ltmp229:
.LBB17_4:
	.loc	7 951 5                         @ ../ThirdParty/STM32F4xx_HAL_Driver/Src/stm32f4xx_hal_uart.c:951:5
	b	.LBB17_5
.LBB17_5:
.Ltmp230:
	.loc	7 951 5 is_stmt 0               @ ../ThirdParty/STM32F4xx_HAL_Driver/Src/stm32f4xx_hal_uart.c:951:5
	ldr	r0, [sp, #16]
	ldrb.w	r0, [r0, #56]
.Ltmp231:
	.loc	7 951 5                         @ ../ThirdParty/STM32F4xx_HAL_Driver/Src/stm32f4xx_hal_uart.c:951:5
	cmp	r0, #1
	bne	.LBB17_7
	b	.LBB17_6
.LBB17_6:
	.loc	7 0 5                           @ ../ThirdParty/STM32F4xx_HAL_Driver/Src/stm32f4xx_hal_uart.c:0:5
	movs	r0, #2
.Ltmp232:
	.loc	7 951 5                         @ ../ThirdParty/STM32F4xx_HAL_Driver/Src/stm32f4xx_hal_uart.c:951:5
	strb.w	r0, [sp, #23]
	b	.LBB17_15
.Ltmp233:
.LBB17_7:
	.loc	7 951 5                         @ ../ThirdParty/STM32F4xx_HAL_Driver/Src/stm32f4xx_hal_uart.c:951:5
	ldr	r1, [sp, #16]
	movs	r0, #1
	strb.w	r0, [r1, #56]
	b	.LBB17_8
.Ltmp234:
.LBB17_8:
	.loc	7 951 5                         @ ../ThirdParty/STM32F4xx_HAL_Driver/Src/stm32f4xx_hal_uart.c:951:5
	b	.LBB17_9
.Ltmp235:
.LBB17_9:
	.loc	7 953 25 is_stmt 1              @ ../ThirdParty/STM32F4xx_HAL_Driver/Src/stm32f4xx_hal_uart.c:953:25
	ldr	r0, [sp, #12]
	.loc	7 953 5 is_stmt 0               @ ../ThirdParty/STM32F4xx_HAL_Driver/Src/stm32f4xx_hal_uart.c:953:5
	ldr	r1, [sp, #16]
	.loc	7 953 23                        @ ../ThirdParty/STM32F4xx_HAL_Driver/Src/stm32f4xx_hal_uart.c:953:23
	str	r0, [r1, #40]
	.loc	7 954 25 is_stmt 1              @ ../ThirdParty/STM32F4xx_HAL_Driver/Src/stm32f4xx_hal_uart.c:954:25
	ldrh.w	r0, [sp, #10]
	.loc	7 954 5 is_stmt 0               @ ../ThirdParty/STM32F4xx_HAL_Driver/Src/stm32f4xx_hal_uart.c:954:5
	ldr	r1, [sp, #16]
	.loc	7 954 23                        @ ../ThirdParty/STM32F4xx_HAL_Driver/Src/stm32f4xx_hal_uart.c:954:23
	strh	r0, [r1, #44]
	.loc	7 956 5 is_stmt 1               @ ../ThirdParty/STM32F4xx_HAL_Driver/Src/stm32f4xx_hal_uart.c:956:5
	ldr	r1, [sp, #16]
	movs	r0, #0
	.loc	7 956 22 is_stmt 0              @ ../ThirdParty/STM32F4xx_HAL_Driver/Src/stm32f4xx_hal_uart.c:956:22
	str	r0, [r1, #60]
	.loc	7 957 5 is_stmt 1               @ ../ThirdParty/STM32F4xx_HAL_Driver/Src/stm32f4xx_hal_uart.c:957:5
	ldr	r2, [sp, #16]
	movs	r1, #34
	.loc	7 957 20 is_stmt 0              @ ../ThirdParty/STM32F4xx_HAL_Driver/Src/stm32f4xx_hal_uart.c:957:20
	strb.w	r1, [r2, #58]
	.loc	7 960 5 is_stmt 1               @ ../ThirdParty/STM32F4xx_HAL_Driver/Src/stm32f4xx_hal_uart.c:960:5
	ldr	r1, [sp, #16]
	.loc	7 960 12 is_stmt 0              @ ../ThirdParty/STM32F4xx_HAL_Driver/Src/stm32f4xx_hal_uart.c:960:12
	ldr	r2, [r1, #52]
	.loc	7 960 37                        @ ../ThirdParty/STM32F4xx_HAL_Driver/Src/stm32f4xx_hal_uart.c:960:37
	movw	r1, :lower16:UART_DMAReceiveCplt
	movt	r1, :upper16:UART_DMAReceiveCplt
	str	r1, [r2, #60]
	.loc	7 963 5 is_stmt 1               @ ../ThirdParty/STM32F4xx_HAL_Driver/Src/stm32f4xx_hal_uart.c:963:5
	ldr	r1, [sp, #16]
	.loc	7 963 12 is_stmt 0              @ ../ThirdParty/STM32F4xx_HAL_Driver/Src/stm32f4xx_hal_uart.c:963:12
	ldr	r2, [r1, #52]
	.loc	7 963 41                        @ ../ThirdParty/STM32F4xx_HAL_Driver/Src/stm32f4xx_hal_uart.c:963:41
	movw	r1, :lower16:UART_DMARxHalfCplt
	movt	r1, :upper16:UART_DMARxHalfCplt
	str	r1, [r2, #64]
	.loc	7 966 5 is_stmt 1               @ ../ThirdParty/STM32F4xx_HAL_Driver/Src/stm32f4xx_hal_uart.c:966:5
	ldr	r1, [sp, #16]
	.loc	7 966 12 is_stmt 0              @ ../ThirdParty/STM32F4xx_HAL_Driver/Src/stm32f4xx_hal_uart.c:966:12
	ldr	r2, [r1, #52]
	.loc	7 966 38                        @ ../ThirdParty/STM32F4xx_HAL_Driver/Src/stm32f4xx_hal_uart.c:966:38
	movw	r1, :lower16:UART_DMAError
	movt	r1, :upper16:UART_DMAError
	str	r1, [r2, #76]
	.loc	7 969 5 is_stmt 1               @ ../ThirdParty/STM32F4xx_HAL_Driver/Src/stm32f4xx_hal_uart.c:969:5
	ldr	r1, [sp, #16]
	.loc	7 969 12 is_stmt 0              @ ../ThirdParty/STM32F4xx_HAL_Driver/Src/stm32f4xx_hal_uart.c:969:12
	ldr	r1, [r1, #52]
	.loc	7 969 38                        @ ../ThirdParty/STM32F4xx_HAL_Driver/Src/stm32f4xx_hal_uart.c:969:38
	str	r0, [r1, #80]
	add	r0, sp, #12
	.loc	7 972 9 is_stmt 1               @ ../ThirdParty/STM32F4xx_HAL_Driver/Src/stm32f4xx_hal_uart.c:972:9
	str	r0, [sp, #4]
	.loc	7 973 22                        @ ../ThirdParty/STM32F4xx_HAL_Driver/Src/stm32f4xx_hal_uart.c:973:22
	ldr	r0, [sp, #16]
	.loc	7 973 55 is_stmt 0              @ ../ThirdParty/STM32F4xx_HAL_Driver/Src/stm32f4xx_hal_uart.c:973:55
	ldr	r1, [r0]
	.loc	7 973 29                        @ ../ThirdParty/STM32F4xx_HAL_Driver/Src/stm32f4xx_hal_uart.c:973:29
	ldr	r0, [r0, #52]
	.loc	7 973 65                        @ ../ThirdParty/STM32F4xx_HAL_Driver/Src/stm32f4xx_hal_uart.c:973:65
	adds	r1, #4
	.loc	7 973 81                        @ ../ThirdParty/STM32F4xx_HAL_Driver/Src/stm32f4xx_hal_uart.c:973:81
	ldr	r2, [sp, #4]
	.loc	7 973 69                        @ ../ThirdParty/STM32F4xx_HAL_Driver/Src/stm32f4xx_hal_uart.c:973:69
	ldr	r2, [r2]
	.loc	7 973 86                        @ ../ThirdParty/STM32F4xx_HAL_Driver/Src/stm32f4xx_hal_uart.c:973:86
	ldrh.w	r3, [sp, #10]
	.loc	7 973 5                         @ ../ThirdParty/STM32F4xx_HAL_Driver/Src/stm32f4xx_hal_uart.c:973:5
	bl	HAL_DMA_Start_IT
	.loc	7 976 5 is_stmt 1               @ ../ThirdParty/STM32F4xx_HAL_Driver/Src/stm32f4xx_hal_uart.c:976:5
	b	.LBB17_10
.LBB17_10:
	.loc	7 0 5 is_stmt 0                 @ ../ThirdParty/STM32F4xx_HAL_Driver/Src/stm32f4xx_hal_uart.c:0:5
	movs	r0, #0
.Ltmp236:
	.loc	7 976 5                         @ ../ThirdParty/STM32F4xx_HAL_Driver/Src/stm32f4xx_hal_uart.c:976:5
	str	r0, [sp]
	ldr	r0, [sp, #16]
	ldr	r0, [r0]
	ldr	r0, [r0]
	str	r0, [sp]
	ldr	r0, [sp, #16]
	ldr	r0, [r0]
	ldr	r0, [r0, #4]
	str	r0, [sp]
	ldr	r0, [sp]
	b	.LBB17_11
.Ltmp237:
.LBB17_11:
	.loc	7 979 5 is_stmt 1               @ ../ThirdParty/STM32F4xx_HAL_Driver/Src/stm32f4xx_hal_uart.c:979:5
	b	.LBB17_12
.LBB17_12:
.Ltmp238:
	.loc	7 979 5 is_stmt 0               @ ../ThirdParty/STM32F4xx_HAL_Driver/Src/stm32f4xx_hal_uart.c:979:5
	ldr	r1, [sp, #16]
	movs	r0, #0
	strb.w	r0, [r1, #56]
	b	.LBB17_13
.Ltmp239:
.LBB17_13:
	.loc	7 982 5 is_stmt 1               @ ../ThirdParty/STM32F4xx_HAL_Driver/Src/stm32f4xx_hal_uart.c:982:5
	ldr	r0, [sp, #16]
	ldr	r1, [r0]
	ldr	r0, [r1, #12]
	orr	r0, r0, #256
	str	r0, [r1, #12]
	.loc	7 985 5                         @ ../ThirdParty/STM32F4xx_HAL_Driver/Src/stm32f4xx_hal_uart.c:985:5
	ldr	r0, [sp, #16]
	ldr	r1, [r0]
	ldr	r0, [r1, #20]
	orr	r0, r0, #1
	str	r0, [r1, #20]
	.loc	7 989 5                         @ ../ThirdParty/STM32F4xx_HAL_Driver/Src/stm32f4xx_hal_uart.c:989:5
	ldr	r0, [sp, #16]
	ldr	r1, [r0]
	ldr	r0, [r1, #20]
	orr	r0, r0, #64
	str	r0, [r1, #20]
	movs	r0, #0
	.loc	7 991 5                         @ ../ThirdParty/STM32F4xx_HAL_Driver/Src/stm32f4xx_hal_uart.c:991:5
	strb.w	r0, [sp, #23]
	b	.LBB17_15
.Ltmp240:
.LBB17_14:
	.loc	7 0 5 is_stmt 0                 @ ../ThirdParty/STM32F4xx_HAL_Driver/Src/stm32f4xx_hal_uart.c:0:5
	movs	r0, #2
.Ltmp241:
	.loc	7 995 5 is_stmt 1               @ ../ThirdParty/STM32F4xx_HAL_Driver/Src/stm32f4xx_hal_uart.c:995:5
	strb.w	r0, [sp, #23]
	b	.LBB17_15
.Ltmp242:
.LBB17_15:
	.loc	7 997 1                         @ ../ThirdParty/STM32F4xx_HAL_Driver/Src/stm32f4xx_hal_uart.c:997:1
	ldrb.w	r0, [sp, #23]
	.loc	7 997 1 epilogue_begin is_stmt 0 @ ../ThirdParty/STM32F4xx_HAL_Driver/Src/stm32f4xx_hal_uart.c:997:1
	add	sp, #24
	pop	{r7, pc}
.Ltmp243:
.Lfunc_end17:
	.size	HAL_UART_Receive_DMA, .Lfunc_end17-HAL_UART_Receive_DMA
	.cfi_endproc
	.cantunwind
	.fnend
                                        @ -- End function
	.section	.text.UART_DMAReceiveCplt,"ax",%progbits
	.p2align	2                               @ -- Begin function UART_DMAReceiveCplt
	.type	UART_DMAReceiveCplt,%function
	.code	16                              @ @UART_DMAReceiveCplt
	.thumb_func
UART_DMAReceiveCplt:
.Lfunc_begin18:
	.loc	7 2034 0 is_stmt 1              @ ../ThirdParty/STM32F4xx_HAL_Driver/Src/stm32f4xx_hal_uart.c:2034:0
	.fnstart
	.cfi_startproc
@ %bb.0:
	.save	{r7, lr}
	push	{r7, lr}
	.cfi_def_cfa_offset 8
	.cfi_offset lr, -4
	.cfi_offset r7, -8
	.pad	#8
	sub	sp, #8
	.cfi_def_cfa_offset 16
	str	r0, [sp, #4]
.Ltmp244:
	.loc	7 2035 76 prologue_end          @ ../ThirdParty/STM32F4xx_HAL_Driver/Src/stm32f4xx_hal_uart.c:2035:76
	ldr	r0, [sp, #4]
	.loc	7 2035 83 is_stmt 0             @ ../ThirdParty/STM32F4xx_HAL_Driver/Src/stm32f4xx_hal_uart.c:2035:83
	ldr	r0, [r0, #56]
	.loc	7 2035 23                       @ ../ThirdParty/STM32F4xx_HAL_Driver/Src/stm32f4xx_hal_uart.c:2035:23
	str	r0, [sp]
.Ltmp245:
	.loc	7 2037 7 is_stmt 1              @ ../ThirdParty/STM32F4xx_HAL_Driver/Src/stm32f4xx_hal_uart.c:2037:7
	ldr	r0, [sp, #4]
	.loc	7 2037 13 is_stmt 0             @ ../ThirdParty/STM32F4xx_HAL_Driver/Src/stm32f4xx_hal_uart.c:2037:13
	ldr	r0, [r0]
	.loc	7 2037 23                       @ ../ThirdParty/STM32F4xx_HAL_Driver/Src/stm32f4xx_hal_uart.c:2037:23
	ldr	r0, [r0]
.Ltmp246:
	.loc	7 2037 6                        @ ../ThirdParty/STM32F4xx_HAL_Driver/Src/stm32f4xx_hal_uart.c:2037:6
	lsls	r0, r0, #23
	cmp	r0, #0
	bmi	.LBB18_2
	b	.LBB18_1
.LBB18_1:
.Ltmp247:
	.loc	7 2039 5 is_stmt 1              @ ../ThirdParty/STM32F4xx_HAL_Driver/Src/stm32f4xx_hal_uart.c:2039:5
	ldr	r1, [sp]
	movs	r0, #0
	.loc	7 2039 24 is_stmt 0             @ ../ThirdParty/STM32F4xx_HAL_Driver/Src/stm32f4xx_hal_uart.c:2039:24
	strh	r0, [r1, #46]
	.loc	7 2042 5 is_stmt 1              @ ../ThirdParty/STM32F4xx_HAL_Driver/Src/stm32f4xx_hal_uart.c:2042:5
	ldr	r0, [sp]
	ldr	r1, [r0]
	ldr	r0, [r1, #12]
	bic	r0, r0, #256
	str	r0, [r1, #12]
	.loc	7 2043 5                        @ ../ThirdParty/STM32F4xx_HAL_Driver/Src/stm32f4xx_hal_uart.c:2043:5
	ldr	r0, [sp]
	ldr	r1, [r0]
	ldr	r0, [r1, #20]
	bic	r0, r0, #1
	str	r0, [r1, #20]
	.loc	7 2047 5                        @ ../ThirdParty/STM32F4xx_HAL_Driver/Src/stm32f4xx_hal_uart.c:2047:5
	ldr	r0, [sp]
	ldr	r1, [r0]
	ldr	r0, [r1, #20]
	bic	r0, r0, #64
	str	r0, [r1, #20]
	.loc	7 2050 5                        @ ../ThirdParty/STM32F4xx_HAL_Driver/Src/stm32f4xx_hal_uart.c:2050:5
	ldr	r1, [sp]
	movs	r0, #32
	.loc	7 2050 20 is_stmt 0             @ ../ThirdParty/STM32F4xx_HAL_Driver/Src/stm32f4xx_hal_uart.c:2050:20
	strb.w	r0, [r1, #58]
	.loc	7 2051 3 is_stmt 1              @ ../ThirdParty/STM32F4xx_HAL_Driver/Src/stm32f4xx_hal_uart.c:2051:3
	b	.LBB18_2
.Ltmp248:
.LBB18_2:
	.loc	7 2052 27                       @ ../ThirdParty/STM32F4xx_HAL_Driver/Src/stm32f4xx_hal_uart.c:2052:27
	ldr	r0, [sp]
	.loc	7 2052 3 is_stmt 0              @ ../ThirdParty/STM32F4xx_HAL_Driver/Src/stm32f4xx_hal_uart.c:2052:3
	bl	HAL_UART_RxCpltCallback
	.loc	7 2053 1 epilogue_begin is_stmt 1 @ ../ThirdParty/STM32F4xx_HAL_Driver/Src/stm32f4xx_hal_uart.c:2053:1
	add	sp, #8
	pop	{r7, pc}
.Ltmp249:
.Lfunc_end18:
	.size	UART_DMAReceiveCplt, .Lfunc_end18-UART_DMAReceiveCplt
	.cfi_endproc
	.cantunwind
	.fnend
                                        @ -- End function
	.section	.text.UART_DMARxHalfCplt,"ax",%progbits
	.p2align	2                               @ -- Begin function UART_DMARxHalfCplt
	.type	UART_DMARxHalfCplt,%function
	.code	16                              @ @UART_DMARxHalfCplt
	.thumb_func
UART_DMARxHalfCplt:
.Lfunc_begin19:
	.loc	7 2062 0                        @ ../ThirdParty/STM32F4xx_HAL_Driver/Src/stm32f4xx_hal_uart.c:2062:0
	.fnstart
	.cfi_startproc
@ %bb.0:
	.save	{r7, lr}
	push	{r7, lr}
	.cfi_def_cfa_offset 8
	.cfi_offset lr, -4
	.cfi_offset r7, -8
	.pad	#8
	sub	sp, #8
	.cfi_def_cfa_offset 16
	str	r0, [sp, #4]
.Ltmp250:
	.loc	7 2063 73 prologue_end          @ ../ThirdParty/STM32F4xx_HAL_Driver/Src/stm32f4xx_hal_uart.c:2063:73
	ldr	r0, [sp, #4]
	.loc	7 2063 80 is_stmt 0             @ ../ThirdParty/STM32F4xx_HAL_Driver/Src/stm32f4xx_hal_uart.c:2063:80
	ldr	r0, [r0, #56]
	.loc	7 2063 23                       @ ../ThirdParty/STM32F4xx_HAL_Driver/Src/stm32f4xx_hal_uart.c:2063:23
	str	r0, [sp]
	.loc	7 2065 31 is_stmt 1             @ ../ThirdParty/STM32F4xx_HAL_Driver/Src/stm32f4xx_hal_uart.c:2065:31
	ldr	r0, [sp]
	.loc	7 2065 3 is_stmt 0              @ ../ThirdParty/STM32F4xx_HAL_Driver/Src/stm32f4xx_hal_uart.c:2065:3
	bl	HAL_UART_RxHalfCpltCallback
	.loc	7 2066 1 epilogue_begin is_stmt 1 @ ../ThirdParty/STM32F4xx_HAL_Driver/Src/stm32f4xx_hal_uart.c:2066:1
	add	sp, #8
	pop	{r7, pc}
.Ltmp251:
.Lfunc_end19:
	.size	UART_DMARxHalfCplt, .Lfunc_end19-UART_DMARxHalfCplt
	.cfi_endproc
	.cantunwind
	.fnend
                                        @ -- End function
	.section	.text.HAL_UART_DMAPause,"ax",%progbits
	.hidden	HAL_UART_DMAPause               @ -- Begin function HAL_UART_DMAPause
	.globl	HAL_UART_DMAPause
	.p2align	2
	.type	HAL_UART_DMAPause,%function
	.code	16                              @ @HAL_UART_DMAPause
	.thumb_func
HAL_UART_DMAPause:
.Lfunc_begin20:
	.loc	7 1006 0                        @ ../ThirdParty/STM32F4xx_HAL_Driver/Src/stm32f4xx_hal_uart.c:1006:0
	.fnstart
	.cfi_startproc
@ %bb.0:
	.pad	#12
	sub	sp, #12
	.cfi_def_cfa_offset 12
	str	r0, [sp, #4]
	movs	r0, #0
.Ltmp252:
	.loc	7 1007 13 prologue_end          @ ../ThirdParty/STM32F4xx_HAL_Driver/Src/stm32f4xx_hal_uart.c:1007:13
	str	r0, [sp]
	.loc	7 1010 3                        @ ../ThirdParty/STM32F4xx_HAL_Driver/Src/stm32f4xx_hal_uart.c:1010:3
	b	.LBB20_1
.LBB20_1:
.Ltmp253:
	.loc	7 1010 3 is_stmt 0              @ ../ThirdParty/STM32F4xx_HAL_Driver/Src/stm32f4xx_hal_uart.c:1010:3
	ldr	r0, [sp, #4]
	ldrb.w	r0, [r0, #56]
.Ltmp254:
	.loc	7 1010 3                        @ ../ThirdParty/STM32F4xx_HAL_Driver/Src/stm32f4xx_hal_uart.c:1010:3
	cmp	r0, #1
	bne	.LBB20_3
	b	.LBB20_2
.LBB20_2:
	.loc	7 0 3                           @ ../ThirdParty/STM32F4xx_HAL_Driver/Src/stm32f4xx_hal_uart.c:0:3
	movs	r0, #2
.Ltmp255:
	.loc	7 1010 3                        @ ../ThirdParty/STM32F4xx_HAL_Driver/Src/stm32f4xx_hal_uart.c:1010:3
	strb.w	r0, [sp, #11]
	b	.LBB20_14
.Ltmp256:
.LBB20_3:
	.loc	7 1010 3                        @ ../ThirdParty/STM32F4xx_HAL_Driver/Src/stm32f4xx_hal_uart.c:1010:3
	ldr	r1, [sp, #4]
	movs	r0, #1
	strb.w	r0, [r1, #56]
	b	.LBB20_4
.Ltmp257:
.LBB20_4:
	.loc	7 1010 3                        @ ../ThirdParty/STM32F4xx_HAL_Driver/Src/stm32f4xx_hal_uart.c:1010:3
	b	.LBB20_5
.Ltmp258:
.LBB20_5:
	.loc	7 1011 16 is_stmt 1             @ ../ThirdParty/STM32F4xx_HAL_Driver/Src/stm32f4xx_hal_uart.c:1011:16
	ldr	r0, [sp, #4]
	ldr	r0, [r0]
	ldr	r0, [r0, #20]
	uxtb	r0, r0
	lsrs	r0, r0, #7
	.loc	7 1011 14 is_stmt 0             @ ../ThirdParty/STM32F4xx_HAL_Driver/Src/stm32f4xx_hal_uart.c:1011:14
	str	r0, [sp]
.Ltmp259:
	.loc	7 1012 7 is_stmt 1              @ ../ThirdParty/STM32F4xx_HAL_Driver/Src/stm32f4xx_hal_uart.c:1012:7
	ldr	r0, [sp, #4]
	.loc	7 1012 14 is_stmt 0             @ ../ThirdParty/STM32F4xx_HAL_Driver/Src/stm32f4xx_hal_uart.c:1012:14
	ldrb.w	r0, [r0, #57]
	.loc	7 1012 48                       @ ../ThirdParty/STM32F4xx_HAL_Driver/Src/stm32f4xx_hal_uart.c:1012:48
	cmp	r0, #33
	bne	.LBB20_8
	b	.LBB20_6
.LBB20_6:
	.loc	7 1012 51                       @ ../ThirdParty/STM32F4xx_HAL_Driver/Src/stm32f4xx_hal_uart.c:1012:51
	ldr	r0, [sp]
.Ltmp260:
	.loc	7 1012 6                        @ ../ThirdParty/STM32F4xx_HAL_Driver/Src/stm32f4xx_hal_uart.c:1012:6
	cbz	r0, .LBB20_8
	b	.LBB20_7
.LBB20_7:
.Ltmp261:
	.loc	7 1015 5 is_stmt 1              @ ../ThirdParty/STM32F4xx_HAL_Driver/Src/stm32f4xx_hal_uart.c:1015:5
	ldr	r0, [sp, #4]
	ldr	r1, [r0]
	ldr	r0, [r1, #20]
	bic	r0, r0, #128
	str	r0, [r1, #20]
	.loc	7 1016 3                        @ ../ThirdParty/STM32F4xx_HAL_Driver/Src/stm32f4xx_hal_uart.c:1016:3
	b	.LBB20_8
.Ltmp262:
.LBB20_8:
	.loc	7 1017 16                       @ ../ThirdParty/STM32F4xx_HAL_Driver/Src/stm32f4xx_hal_uart.c:1017:16
	ldr	r0, [sp, #4]
	ldr	r0, [r0]
	ldr	r0, [r0, #20]
	ubfx	r0, r0, #6, #1
	.loc	7 1017 14 is_stmt 0             @ ../ThirdParty/STM32F4xx_HAL_Driver/Src/stm32f4xx_hal_uart.c:1017:14
	str	r0, [sp]
.Ltmp263:
	.loc	7 1018 7 is_stmt 1              @ ../ThirdParty/STM32F4xx_HAL_Driver/Src/stm32f4xx_hal_uart.c:1018:7
	ldr	r0, [sp, #4]
	.loc	7 1018 14 is_stmt 0             @ ../ThirdParty/STM32F4xx_HAL_Driver/Src/stm32f4xx_hal_uart.c:1018:14
	ldrb.w	r0, [r0, #58]
	.loc	7 1018 49                       @ ../ThirdParty/STM32F4xx_HAL_Driver/Src/stm32f4xx_hal_uart.c:1018:49
	cmp	r0, #34
	bne	.LBB20_11
	b	.LBB20_9
.LBB20_9:
	.loc	7 1018 52                       @ ../ThirdParty/STM32F4xx_HAL_Driver/Src/stm32f4xx_hal_uart.c:1018:52
	ldr	r0, [sp]
.Ltmp264:
	.loc	7 1018 6                        @ ../ThirdParty/STM32F4xx_HAL_Driver/Src/stm32f4xx_hal_uart.c:1018:6
	cbz	r0, .LBB20_11
	b	.LBB20_10
.LBB20_10:
.Ltmp265:
	.loc	7 1021 5 is_stmt 1              @ ../ThirdParty/STM32F4xx_HAL_Driver/Src/stm32f4xx_hal_uart.c:1021:5
	ldr	r0, [sp, #4]
	ldr	r1, [r0]
	ldr	r0, [r1, #12]
	bic	r0, r0, #256
	str	r0, [r1, #12]
	.loc	7 1022 5                        @ ../ThirdParty/STM32F4xx_HAL_Driver/Src/stm32f4xx_hal_uart.c:1022:5
	ldr	r0, [sp, #4]
	ldr	r1, [r0]
	ldr	r0, [r1, #20]
	bic	r0, r0, #1
	str	r0, [r1, #20]
	.loc	7 1025 5                        @ ../ThirdParty/STM32F4xx_HAL_Driver/Src/stm32f4xx_hal_uart.c:1025:5
	ldr	r0, [sp, #4]
	ldr	r1, [r0]
	ldr	r0, [r1, #20]
	bic	r0, r0, #64
	str	r0, [r1, #20]
	.loc	7 1026 3                        @ ../ThirdParty/STM32F4xx_HAL_Driver/Src/stm32f4xx_hal_uart.c:1026:3
	b	.LBB20_11
.Ltmp266:
.LBB20_11:
	.loc	7 1029 3                        @ ../ThirdParty/STM32F4xx_HAL_Driver/Src/stm32f4xx_hal_uart.c:1029:3
	b	.LBB20_12
.LBB20_12:
.Ltmp267:
	.loc	7 1029 3 is_stmt 0              @ ../ThirdParty/STM32F4xx_HAL_Driver/Src/stm32f4xx_hal_uart.c:1029:3
	ldr	r1, [sp, #4]
	movs	r0, #0
	strb.w	r0, [r1, #56]
	b	.LBB20_13
.Ltmp268:
.LBB20_13:
	.loc	7 0 3                           @ ../ThirdParty/STM32F4xx_HAL_Driver/Src/stm32f4xx_hal_uart.c:0:3
	movs	r0, #0
	.loc	7 1031 3 is_stmt 1              @ ../ThirdParty/STM32F4xx_HAL_Driver/Src/stm32f4xx_hal_uart.c:1031:3
	strb.w	r0, [sp, #11]
	b	.LBB20_14
.LBB20_14:
	.loc	7 1032 1                        @ ../ThirdParty/STM32F4xx_HAL_Driver/Src/stm32f4xx_hal_uart.c:1032:1
	ldrb.w	r0, [sp, #11]
	.loc	7 1032 1 epilogue_begin is_stmt 0 @ ../ThirdParty/STM32F4xx_HAL_Driver/Src/stm32f4xx_hal_uart.c:1032:1
	add	sp, #12
	bx	lr
.Ltmp269:
.Lfunc_end20:
	.size	HAL_UART_DMAPause, .Lfunc_end20-HAL_UART_DMAPause
	.cfi_endproc
	.cantunwind
	.fnend
                                        @ -- End function
	.section	.text.HAL_UART_DMAResume,"ax",%progbits
	.hidden	HAL_UART_DMAResume              @ -- Begin function HAL_UART_DMAResume
	.globl	HAL_UART_DMAResume
	.p2align	2
	.type	HAL_UART_DMAResume,%function
	.code	16                              @ @HAL_UART_DMAResume
	.thumb_func
HAL_UART_DMAResume:
.Lfunc_begin21:
	.loc	7 1041 0 is_stmt 1              @ ../ThirdParty/STM32F4xx_HAL_Driver/Src/stm32f4xx_hal_uart.c:1041:0
	.fnstart
	.cfi_startproc
@ %bb.0:
	.pad	#12
	sub	sp, #12
	.cfi_def_cfa_offset 12
	str	r0, [sp, #4]
.Ltmp270:
	.loc	7 1043 3 prologue_end           @ ../ThirdParty/STM32F4xx_HAL_Driver/Src/stm32f4xx_hal_uart.c:1043:3
	b	.LBB21_1
.LBB21_1:
.Ltmp271:
	.loc	7 1043 3 is_stmt 0              @ ../ThirdParty/STM32F4xx_HAL_Driver/Src/stm32f4xx_hal_uart.c:1043:3
	ldr	r0, [sp, #4]
	ldrb.w	r0, [r0, #56]
.Ltmp272:
	.loc	7 1043 3                        @ ../ThirdParty/STM32F4xx_HAL_Driver/Src/stm32f4xx_hal_uart.c:1043:3
	cmp	r0, #1
	bne	.LBB21_3
	b	.LBB21_2
.LBB21_2:
	.loc	7 0 3                           @ ../ThirdParty/STM32F4xx_HAL_Driver/Src/stm32f4xx_hal_uart.c:0:3
	movs	r0, #2
.Ltmp273:
	.loc	7 1043 3                        @ ../ThirdParty/STM32F4xx_HAL_Driver/Src/stm32f4xx_hal_uart.c:1043:3
	strb.w	r0, [sp, #11]
	b	.LBB21_14
.Ltmp274:
.LBB21_3:
	.loc	7 1043 3                        @ ../ThirdParty/STM32F4xx_HAL_Driver/Src/stm32f4xx_hal_uart.c:1043:3
	ldr	r1, [sp, #4]
	movs	r0, #1
	strb.w	r0, [r1, #56]
	b	.LBB21_4
.Ltmp275:
.LBB21_4:
	.loc	7 1043 3                        @ ../ThirdParty/STM32F4xx_HAL_Driver/Src/stm32f4xx_hal_uart.c:1043:3
	b	.LBB21_5
.Ltmp276:
.LBB21_5:
	.loc	7 1045 6 is_stmt 1              @ ../ThirdParty/STM32F4xx_HAL_Driver/Src/stm32f4xx_hal_uart.c:1045:6
	ldr	r0, [sp, #4]
	.loc	7 1045 13 is_stmt 0             @ ../ThirdParty/STM32F4xx_HAL_Driver/Src/stm32f4xx_hal_uart.c:1045:13
	ldrb.w	r0, [r0, #57]
.Ltmp277:
	.loc	7 1045 6                        @ ../ThirdParty/STM32F4xx_HAL_Driver/Src/stm32f4xx_hal_uart.c:1045:6
	cmp	r0, #33
	bne	.LBB21_7
	b	.LBB21_6
.LBB21_6:
.Ltmp278:
	.loc	7 1048 5 is_stmt 1              @ ../ThirdParty/STM32F4xx_HAL_Driver/Src/stm32f4xx_hal_uart.c:1048:5
	ldr	r0, [sp, #4]
	ldr	r1, [r0]
	ldr	r0, [r1, #20]
	orr	r0, r0, #128
	str	r0, [r1, #20]
	.loc	7 1049 3                        @ ../ThirdParty/STM32F4xx_HAL_Driver/Src/stm32f4xx_hal_uart.c:1049:3
	b	.LBB21_7
.Ltmp279:
.LBB21_7:
	.loc	7 1050 6                        @ ../ThirdParty/STM32F4xx_HAL_Driver/Src/stm32f4xx_hal_uart.c:1050:6
	ldr	r0, [sp, #4]
	.loc	7 1050 13 is_stmt 0             @ ../ThirdParty/STM32F4xx_HAL_Driver/Src/stm32f4xx_hal_uart.c:1050:13
	ldrb.w	r0, [r0, #58]
.Ltmp280:
	.loc	7 1050 6                        @ ../ThirdParty/STM32F4xx_HAL_Driver/Src/stm32f4xx_hal_uart.c:1050:6
	cmp	r0, #34
	bne	.LBB21_11
	b	.LBB21_8
.LBB21_8:
.Ltmp281:
	.loc	7 1053 5 is_stmt 1              @ ../ThirdParty/STM32F4xx_HAL_Driver/Src/stm32f4xx_hal_uart.c:1053:5
	b	.LBB21_9
.LBB21_9:
	.loc	7 0 5 is_stmt 0                 @ ../ThirdParty/STM32F4xx_HAL_Driver/Src/stm32f4xx_hal_uart.c:0:5
	movs	r0, #0
.Ltmp282:
	.loc	7 1053 5                        @ ../ThirdParty/STM32F4xx_HAL_Driver/Src/stm32f4xx_hal_uart.c:1053:5
	str	r0, [sp]
	ldr	r0, [sp, #4]
	ldr	r0, [r0]
	ldr	r0, [r0]
	str	r0, [sp]
	ldr	r0, [sp, #4]
	ldr	r0, [r0]
	ldr	r0, [r0, #4]
	str	r0, [sp]
	ldr	r0, [sp]
	b	.LBB21_10
.Ltmp283:
.LBB21_10:
	.loc	7 1056 5 is_stmt 1              @ ../ThirdParty/STM32F4xx_HAL_Driver/Src/stm32f4xx_hal_uart.c:1056:5
	ldr	r0, [sp, #4]
	ldr	r1, [r0]
	ldr	r0, [r1, #12]
	orr	r0, r0, #256
	str	r0, [r1, #12]
	.loc	7 1057 5                        @ ../ThirdParty/STM32F4xx_HAL_Driver/Src/stm32f4xx_hal_uart.c:1057:5
	ldr	r0, [sp, #4]
	ldr	r1, [r0]
	ldr	r0, [r1, #20]
	orr	r0, r0, #1
	str	r0, [r1, #20]
	.loc	7 1060 5                        @ ../ThirdParty/STM32F4xx_HAL_Driver/Src/stm32f4xx_hal_uart.c:1060:5
	ldr	r0, [sp, #4]
	ldr	r1, [r0]
	ldr	r0, [r1, #20]
	orr	r0, r0, #64
	str	r0, [r1, #20]
	.loc	7 1061 3                        @ ../ThirdParty/STM32F4xx_HAL_Driver/Src/stm32f4xx_hal_uart.c:1061:3
	b	.LBB21_11
.Ltmp284:
.LBB21_11:
	.loc	7 1064 3                        @ ../ThirdParty/STM32F4xx_HAL_Driver/Src/stm32f4xx_hal_uart.c:1064:3
	b	.LBB21_12
.LBB21_12:
.Ltmp285:
	.loc	7 1064 3 is_stmt 0              @ ../ThirdParty/STM32F4xx_HAL_Driver/Src/stm32f4xx_hal_uart.c:1064:3
	ldr	r1, [sp, #4]
	movs	r0, #0
	strb.w	r0, [r1, #56]
	b	.LBB21_13
.Ltmp286:
.LBB21_13:
	.loc	7 0 3                           @ ../ThirdParty/STM32F4xx_HAL_Driver/Src/stm32f4xx_hal_uart.c:0:3
	movs	r0, #0
	.loc	7 1066 3 is_stmt 1              @ ../ThirdParty/STM32F4xx_HAL_Driver/Src/stm32f4xx_hal_uart.c:1066:3
	strb.w	r0, [sp, #11]
	b	.LBB21_14
.LBB21_14:
	.loc	7 1067 1                        @ ../ThirdParty/STM32F4xx_HAL_Driver/Src/stm32f4xx_hal_uart.c:1067:1
	ldrb.w	r0, [sp, #11]
	.loc	7 1067 1 epilogue_begin is_stmt 0 @ ../ThirdParty/STM32F4xx_HAL_Driver/Src/stm32f4xx_hal_uart.c:1067:1
	add	sp, #12
	bx	lr
.Ltmp287:
.Lfunc_end21:
	.size	HAL_UART_DMAResume, .Lfunc_end21-HAL_UART_DMAResume
	.cfi_endproc
	.cantunwind
	.fnend
                                        @ -- End function
	.section	.text.HAL_UART_DMAStop,"ax",%progbits
	.hidden	HAL_UART_DMAStop                @ -- Begin function HAL_UART_DMAStop
	.globl	HAL_UART_DMAStop
	.p2align	2
	.type	HAL_UART_DMAStop,%function
	.code	16                              @ @HAL_UART_DMAStop
	.thumb_func
HAL_UART_DMAStop:
.Lfunc_begin22:
	.loc	7 1076 0 is_stmt 1              @ ../ThirdParty/STM32F4xx_HAL_Driver/Src/stm32f4xx_hal_uart.c:1076:0
	.fnstart
	.cfi_startproc
@ %bb.0:
	.save	{r7, lr}
	push	{r7, lr}
	.cfi_def_cfa_offset 8
	.cfi_offset lr, -4
	.cfi_offset r7, -8
	.pad	#8
	sub	sp, #8
	.cfi_def_cfa_offset 16
	str	r0, [sp, #4]
	movs	r0, #0
.Ltmp288:
	.loc	7 1077 12 prologue_end          @ ../ThirdParty/STM32F4xx_HAL_Driver/Src/stm32f4xx_hal_uart.c:1077:12
	str	r0, [sp]
	.loc	7 1085 16                       @ ../ThirdParty/STM32F4xx_HAL_Driver/Src/stm32f4xx_hal_uart.c:1085:16
	ldr	r0, [sp, #4]
	ldr	r0, [r0]
	ldr	r0, [r0, #20]
	uxtb	r0, r0
	lsrs	r0, r0, #7
	.loc	7 1085 14 is_stmt 0             @ ../ThirdParty/STM32F4xx_HAL_Driver/Src/stm32f4xx_hal_uart.c:1085:14
	str	r0, [sp]
.Ltmp289:
	.loc	7 1086 7 is_stmt 1              @ ../ThirdParty/STM32F4xx_HAL_Driver/Src/stm32f4xx_hal_uart.c:1086:7
	ldr	r0, [sp, #4]
	.loc	7 1086 14 is_stmt 0             @ ../ThirdParty/STM32F4xx_HAL_Driver/Src/stm32f4xx_hal_uart.c:1086:14
	ldrb.w	r0, [r0, #57]
	.loc	7 1086 48                       @ ../ThirdParty/STM32F4xx_HAL_Driver/Src/stm32f4xx_hal_uart.c:1086:48
	cmp	r0, #33
	bne	.LBB22_5
	b	.LBB22_1
.LBB22_1:
	.loc	7 1086 51                       @ ../ThirdParty/STM32F4xx_HAL_Driver/Src/stm32f4xx_hal_uart.c:1086:51
	ldr	r0, [sp]
.Ltmp290:
	.loc	7 1086 6                        @ ../ThirdParty/STM32F4xx_HAL_Driver/Src/stm32f4xx_hal_uart.c:1086:6
	cbz	r0, .LBB22_5
	b	.LBB22_2
.LBB22_2:
.Ltmp291:
	.loc	7 1088 5 is_stmt 1              @ ../ThirdParty/STM32F4xx_HAL_Driver/Src/stm32f4xx_hal_uart.c:1088:5
	ldr	r0, [sp, #4]
	ldr	r1, [r0]
	ldr	r0, [r1, #20]
	bic	r0, r0, #128
	str	r0, [r1, #20]
.Ltmp292:
	.loc	7 1091 8                        @ ../ThirdParty/STM32F4xx_HAL_Driver/Src/stm32f4xx_hal_uart.c:1091:8
	ldr	r0, [sp, #4]
	.loc	7 1091 15 is_stmt 0             @ ../ThirdParty/STM32F4xx_HAL_Driver/Src/stm32f4xx_hal_uart.c:1091:15
	ldr	r0, [r0, #48]
.Ltmp293:
	.loc	7 1091 8                        @ ../ThirdParty/STM32F4xx_HAL_Driver/Src/stm32f4xx_hal_uart.c:1091:8
	cbz	r0, .LBB22_4
	b	.LBB22_3
.LBB22_3:
.Ltmp294:
	.loc	7 1093 21 is_stmt 1             @ ../ThirdParty/STM32F4xx_HAL_Driver/Src/stm32f4xx_hal_uart.c:1093:21
	ldr	r0, [sp, #4]
	.loc	7 1093 28 is_stmt 0             @ ../ThirdParty/STM32F4xx_HAL_Driver/Src/stm32f4xx_hal_uart.c:1093:28
	ldr	r0, [r0, #48]
	.loc	7 1093 7                        @ ../ThirdParty/STM32F4xx_HAL_Driver/Src/stm32f4xx_hal_uart.c:1093:7
	bl	HAL_DMA_Abort
	.loc	7 1094 5 is_stmt 1              @ ../ThirdParty/STM32F4xx_HAL_Driver/Src/stm32f4xx_hal_uart.c:1094:5
	b	.LBB22_4
.Ltmp295:
.LBB22_4:
	.loc	7 1095 24                       @ ../ThirdParty/STM32F4xx_HAL_Driver/Src/stm32f4xx_hal_uart.c:1095:24
	ldr	r0, [sp, #4]
	.loc	7 1095 5 is_stmt 0              @ ../ThirdParty/STM32F4xx_HAL_Driver/Src/stm32f4xx_hal_uart.c:1095:5
	bl	UART_EndTxTransfer
	.loc	7 1096 3 is_stmt 1              @ ../ThirdParty/STM32F4xx_HAL_Driver/Src/stm32f4xx_hal_uart.c:1096:3
	b	.LBB22_5
.Ltmp296:
.LBB22_5:
	.loc	7 1099 16                       @ ../ThirdParty/STM32F4xx_HAL_Driver/Src/stm32f4xx_hal_uart.c:1099:16
	ldr	r0, [sp, #4]
	ldr	r0, [r0]
	ldr	r0, [r0, #20]
	ubfx	r0, r0, #6, #1
	.loc	7 1099 14 is_stmt 0             @ ../ThirdParty/STM32F4xx_HAL_Driver/Src/stm32f4xx_hal_uart.c:1099:14
	str	r0, [sp]
.Ltmp297:
	.loc	7 1100 7 is_stmt 1              @ ../ThirdParty/STM32F4xx_HAL_Driver/Src/stm32f4xx_hal_uart.c:1100:7
	ldr	r0, [sp, #4]
	.loc	7 1100 14 is_stmt 0             @ ../ThirdParty/STM32F4xx_HAL_Driver/Src/stm32f4xx_hal_uart.c:1100:14
	ldrb.w	r0, [r0, #58]
	.loc	7 1100 49                       @ ../ThirdParty/STM32F4xx_HAL_Driver/Src/stm32f4xx_hal_uart.c:1100:49
	cmp	r0, #34
	bne	.LBB22_10
	b	.LBB22_6
.LBB22_6:
	.loc	7 1100 52                       @ ../ThirdParty/STM32F4xx_HAL_Driver/Src/stm32f4xx_hal_uart.c:1100:52
	ldr	r0, [sp]
.Ltmp298:
	.loc	7 1100 6                        @ ../ThirdParty/STM32F4xx_HAL_Driver/Src/stm32f4xx_hal_uart.c:1100:6
	cbz	r0, .LBB22_10
	b	.LBB22_7
.LBB22_7:
.Ltmp299:
	.loc	7 1102 5 is_stmt 1              @ ../ThirdParty/STM32F4xx_HAL_Driver/Src/stm32f4xx_hal_uart.c:1102:5
	ldr	r0, [sp, #4]
	ldr	r1, [r0]
	ldr	r0, [r1, #20]
	bic	r0, r0, #64
	str	r0, [r1, #20]
.Ltmp300:
	.loc	7 1105 8                        @ ../ThirdParty/STM32F4xx_HAL_Driver/Src/stm32f4xx_hal_uart.c:1105:8
	ldr	r0, [sp, #4]
	.loc	7 1105 15 is_stmt 0             @ ../ThirdParty/STM32F4xx_HAL_Driver/Src/stm32f4xx_hal_uart.c:1105:15
	ldr	r0, [r0, #52]
.Ltmp301:
	.loc	7 1105 8                        @ ../ThirdParty/STM32F4xx_HAL_Driver/Src/stm32f4xx_hal_uart.c:1105:8
	cbz	r0, .LBB22_9
	b	.LBB22_8
.LBB22_8:
.Ltmp302:
	.loc	7 1107 21 is_stmt 1             @ ../ThirdParty/STM32F4xx_HAL_Driver/Src/stm32f4xx_hal_uart.c:1107:21
	ldr	r0, [sp, #4]
	.loc	7 1107 28 is_stmt 0             @ ../ThirdParty/STM32F4xx_HAL_Driver/Src/stm32f4xx_hal_uart.c:1107:28
	ldr	r0, [r0, #52]
	.loc	7 1107 7                        @ ../ThirdParty/STM32F4xx_HAL_Driver/Src/stm32f4xx_hal_uart.c:1107:7
	bl	HAL_DMA_Abort
	.loc	7 1108 5 is_stmt 1              @ ../ThirdParty/STM32F4xx_HAL_Driver/Src/stm32f4xx_hal_uart.c:1108:5
	b	.LBB22_9
.Ltmp303:
.LBB22_9:
	.loc	7 1109 24                       @ ../ThirdParty/STM32F4xx_HAL_Driver/Src/stm32f4xx_hal_uart.c:1109:24
	ldr	r0, [sp, #4]
	.loc	7 1109 5 is_stmt 0              @ ../ThirdParty/STM32F4xx_HAL_Driver/Src/stm32f4xx_hal_uart.c:1109:5
	bl	UART_EndRxTransfer
	.loc	7 1110 3 is_stmt 1              @ ../ThirdParty/STM32F4xx_HAL_Driver/Src/stm32f4xx_hal_uart.c:1110:3
	b	.LBB22_10
.Ltmp304:
.LBB22_10:
	.loc	7 0 3 is_stmt 0                 @ ../ThirdParty/STM32F4xx_HAL_Driver/Src/stm32f4xx_hal_uart.c:0:3
	movs	r0, #0
	.loc	7 1112 3 epilogue_begin is_stmt 1 @ ../ThirdParty/STM32F4xx_HAL_Driver/Src/stm32f4xx_hal_uart.c:1112:3
	add	sp, #8
	pop	{r7, pc}
.Ltmp305:
.Lfunc_end22:
	.size	HAL_UART_DMAStop, .Lfunc_end22-HAL_UART_DMAStop
	.cfi_endproc
	.cantunwind
	.fnend
                                        @ -- End function
	.section	.text.UART_EndTxTransfer,"ax",%progbits
	.p2align	2                               @ -- Begin function UART_EndTxTransfer
	.type	UART_EndTxTransfer,%function
	.code	16                              @ @UART_EndTxTransfer
	.thumb_func
UART_EndTxTransfer:
.Lfunc_begin23:
	.loc	7 2142 0                        @ ../ThirdParty/STM32F4xx_HAL_Driver/Src/stm32f4xx_hal_uart.c:2142:0
	.fnstart
	.cfi_startproc
@ %bb.0:
	.pad	#4
	sub	sp, #4
	.cfi_def_cfa_offset 4
	str	r0, [sp]
.Ltmp306:
	.loc	7 2144 3 prologue_end           @ ../ThirdParty/STM32F4xx_HAL_Driver/Src/stm32f4xx_hal_uart.c:2144:3
	ldr	r0, [sp]
	ldr	r1, [r0]
	ldr	r0, [r1, #12]
	bic	r0, r0, #192
	str	r0, [r1, #12]
	.loc	7 2147 3                        @ ../ThirdParty/STM32F4xx_HAL_Driver/Src/stm32f4xx_hal_uart.c:2147:3
	ldr	r1, [sp]
	movs	r0, #32
	.loc	7 2147 17 is_stmt 0             @ ../ThirdParty/STM32F4xx_HAL_Driver/Src/stm32f4xx_hal_uart.c:2147:17
	strb.w	r0, [r1, #57]
	.loc	7 2148 1 epilogue_begin is_stmt 1 @ ../ThirdParty/STM32F4xx_HAL_Driver/Src/stm32f4xx_hal_uart.c:2148:1
	add	sp, #4
	bx	lr
.Ltmp307:
.Lfunc_end23:
	.size	UART_EndTxTransfer, .Lfunc_end23-UART_EndTxTransfer
	.cfi_endproc
	.cantunwind
	.fnend
                                        @ -- End function
	.section	.text.UART_EndRxTransfer,"ax",%progbits
	.p2align	2                               @ -- Begin function UART_EndRxTransfer
	.type	UART_EndRxTransfer,%function
	.code	16                              @ @UART_EndRxTransfer
	.thumb_func
UART_EndRxTransfer:
.Lfunc_begin24:
	.loc	7 2156 0                        @ ../ThirdParty/STM32F4xx_HAL_Driver/Src/stm32f4xx_hal_uart.c:2156:0
	.fnstart
	.cfi_startproc
@ %bb.0:
	.pad	#4
	sub	sp, #4
	.cfi_def_cfa_offset 4
	str	r0, [sp]
.Ltmp308:
	.loc	7 2158 3 prologue_end           @ ../ThirdParty/STM32F4xx_HAL_Driver/Src/stm32f4xx_hal_uart.c:2158:3
	ldr	r0, [sp]
	ldr	r1, [r0]
	ldr	r0, [r1, #12]
	bic	r0, r0, #288
	str	r0, [r1, #12]
	.loc	7 2159 3                        @ ../ThirdParty/STM32F4xx_HAL_Driver/Src/stm32f4xx_hal_uart.c:2159:3
	ldr	r0, [sp]
	ldr	r1, [r0]
	ldr	r0, [r1, #20]
	bic	r0, r0, #1
	str	r0, [r1, #20]
	.loc	7 2162 3                        @ ../ThirdParty/STM32F4xx_HAL_Driver/Src/stm32f4xx_hal_uart.c:2162:3
	ldr	r1, [sp]
	movs	r0, #32
	.loc	7 2162 18 is_stmt 0             @ ../ThirdParty/STM32F4xx_HAL_Driver/Src/stm32f4xx_hal_uart.c:2162:18
	strb.w	r0, [r1, #58]
	.loc	7 2163 1 epilogue_begin is_stmt 1 @ ../ThirdParty/STM32F4xx_HAL_Driver/Src/stm32f4xx_hal_uart.c:2163:1
	add	sp, #4
	bx	lr
.Ltmp309:
.Lfunc_end24:
	.size	UART_EndRxTransfer, .Lfunc_end24-UART_EndRxTransfer
	.cfi_endproc
	.cantunwind
	.fnend
                                        @ -- End function
	.section	.text.HAL_UART_Abort,"ax",%progbits
	.hidden	HAL_UART_Abort                  @ -- Begin function HAL_UART_Abort
	.globl	HAL_UART_Abort
	.p2align	2
	.type	HAL_UART_Abort,%function
	.code	16                              @ @HAL_UART_Abort
	.thumb_func
HAL_UART_Abort:
.Lfunc_begin25:
	.loc	7 1128 0                        @ ../ThirdParty/STM32F4xx_HAL_Driver/Src/stm32f4xx_hal_uart.c:1128:0
	.fnstart
	.cfi_startproc
@ %bb.0:
	.save	{r7, lr}
	push	{r7, lr}
	.cfi_def_cfa_offset 8
	.cfi_offset lr, -4
	.cfi_offset r7, -8
	.pad	#8
	sub	sp, #8
	.cfi_def_cfa_offset 16
	str	r0, [sp, #4]
.Ltmp310:
	.loc	7 1130 3 prologue_end           @ ../ThirdParty/STM32F4xx_HAL_Driver/Src/stm32f4xx_hal_uart.c:1130:3
	ldr	r0, [sp, #4]
	ldr	r1, [r0]
	ldr	r0, [r1, #12]
	bic	r0, r0, #480
	str	r0, [r1, #12]
	.loc	7 1131 3                        @ ../ThirdParty/STM32F4xx_HAL_Driver/Src/stm32f4xx_hal_uart.c:1131:3
	ldr	r0, [sp, #4]
	ldr	r1, [r0]
	ldr	r0, [r1, #20]
	bic	r0, r0, #1
	str	r0, [r1, #20]
.Ltmp311:
	.loc	7 1134 6                        @ ../ThirdParty/STM32F4xx_HAL_Driver/Src/stm32f4xx_hal_uart.c:1134:6
	ldr	r0, [sp, #4]
	ldr	r0, [r0]
	ldr	r0, [r0, #20]
.Ltmp312:
	.loc	7 1134 6 is_stmt 0              @ ../ThirdParty/STM32F4xx_HAL_Driver/Src/stm32f4xx_hal_uart.c:1134:6
	lsls	r0, r0, #24
	cmp	r0, #0
	bpl	.LBB25_4
	b	.LBB25_1
.LBB25_1:
.Ltmp313:
	.loc	7 1136 5 is_stmt 1              @ ../ThirdParty/STM32F4xx_HAL_Driver/Src/stm32f4xx_hal_uart.c:1136:5
	ldr	r0, [sp, #4]
	ldr	r1, [r0]
	ldr	r0, [r1, #20]
	bic	r0, r0, #128
	str	r0, [r1, #20]
.Ltmp314:
	.loc	7 1139 8                        @ ../ThirdParty/STM32F4xx_HAL_Driver/Src/stm32f4xx_hal_uart.c:1139:8
	ldr	r0, [sp, #4]
	.loc	7 1139 15 is_stmt 0             @ ../ThirdParty/STM32F4xx_HAL_Driver/Src/stm32f4xx_hal_uart.c:1139:15
	ldr	r0, [r0, #48]
.Ltmp315:
	.loc	7 1139 8                        @ ../ThirdParty/STM32F4xx_HAL_Driver/Src/stm32f4xx_hal_uart.c:1139:8
	cbz	r0, .LBB25_3
	b	.LBB25_2
.LBB25_2:
.Ltmp316:
	.loc	7 1143 7 is_stmt 1              @ ../ThirdParty/STM32F4xx_HAL_Driver/Src/stm32f4xx_hal_uart.c:1143:7
	ldr	r0, [sp, #4]
	.loc	7 1143 14 is_stmt 0             @ ../ThirdParty/STM32F4xx_HAL_Driver/Src/stm32f4xx_hal_uart.c:1143:14
	ldr	r1, [r0, #48]
	movs	r0, #0
	.loc	7 1143 40                       @ ../ThirdParty/STM32F4xx_HAL_Driver/Src/stm32f4xx_hal_uart.c:1143:40
	str	r0, [r1, #80]
	.loc	7 1145 21 is_stmt 1             @ ../ThirdParty/STM32F4xx_HAL_Driver/Src/stm32f4xx_hal_uart.c:1145:21
	ldr	r0, [sp, #4]
	.loc	7 1145 28 is_stmt 0             @ ../ThirdParty/STM32F4xx_HAL_Driver/Src/stm32f4xx_hal_uart.c:1145:28
	ldr	r0, [r0, #48]
	.loc	7 1145 7                        @ ../ThirdParty/STM32F4xx_HAL_Driver/Src/stm32f4xx_hal_uart.c:1145:7
	bl	HAL_DMA_Abort
	.loc	7 1146 5 is_stmt 1              @ ../ThirdParty/STM32F4xx_HAL_Driver/Src/stm32f4xx_hal_uart.c:1146:5
	b	.LBB25_3
.Ltmp317:
.LBB25_3:
	.loc	7 1147 3                        @ ../ThirdParty/STM32F4xx_HAL_Driver/Src/stm32f4xx_hal_uart.c:1147:3
	b	.LBB25_4
.Ltmp318:
.LBB25_4:
	.loc	7 1150 6                        @ ../ThirdParty/STM32F4xx_HAL_Driver/Src/stm32f4xx_hal_uart.c:1150:6
	ldr	r0, [sp, #4]
	ldr	r0, [r0]
	ldr	r0, [r0, #20]
.Ltmp319:
	.loc	7 1150 6 is_stmt 0              @ ../ThirdParty/STM32F4xx_HAL_Driver/Src/stm32f4xx_hal_uart.c:1150:6
	lsls	r0, r0, #25
	cmp	r0, #0
	bpl	.LBB25_8
	b	.LBB25_5
.LBB25_5:
.Ltmp320:
	.loc	7 1152 5 is_stmt 1              @ ../ThirdParty/STM32F4xx_HAL_Driver/Src/stm32f4xx_hal_uart.c:1152:5
	ldr	r0, [sp, #4]
	ldr	r1, [r0]
	ldr	r0, [r1, #20]
	bic	r0, r0, #64
	str	r0, [r1, #20]
.Ltmp321:
	.loc	7 1155 8                        @ ../ThirdParty/STM32F4xx_HAL_Driver/Src/stm32f4xx_hal_uart.c:1155:8
	ldr	r0, [sp, #4]
	.loc	7 1155 15 is_stmt 0             @ ../ThirdParty/STM32F4xx_HAL_Driver/Src/stm32f4xx_hal_uart.c:1155:15
	ldr	r0, [r0, #52]
.Ltmp322:
	.loc	7 1155 8                        @ ../ThirdParty/STM32F4xx_HAL_Driver/Src/stm32f4xx_hal_uart.c:1155:8
	cbz	r0, .LBB25_7
	b	.LBB25_6
.LBB25_6:
.Ltmp323:
	.loc	7 1159 7 is_stmt 1              @ ../ThirdParty/STM32F4xx_HAL_Driver/Src/stm32f4xx_hal_uart.c:1159:7
	ldr	r0, [sp, #4]
	.loc	7 1159 14 is_stmt 0             @ ../ThirdParty/STM32F4xx_HAL_Driver/Src/stm32f4xx_hal_uart.c:1159:14
	ldr	r1, [r0, #52]
	movs	r0, #0
	.loc	7 1159 40                       @ ../ThirdParty/STM32F4xx_HAL_Driver/Src/stm32f4xx_hal_uart.c:1159:40
	str	r0, [r1, #80]
	.loc	7 1161 21 is_stmt 1             @ ../ThirdParty/STM32F4xx_HAL_Driver/Src/stm32f4xx_hal_uart.c:1161:21
	ldr	r0, [sp, #4]
	.loc	7 1161 28 is_stmt 0             @ ../ThirdParty/STM32F4xx_HAL_Driver/Src/stm32f4xx_hal_uart.c:1161:28
	ldr	r0, [r0, #52]
	.loc	7 1161 7                        @ ../ThirdParty/STM32F4xx_HAL_Driver/Src/stm32f4xx_hal_uart.c:1161:7
	bl	HAL_DMA_Abort
	.loc	7 1162 5 is_stmt 1              @ ../ThirdParty/STM32F4xx_HAL_Driver/Src/stm32f4xx_hal_uart.c:1162:5
	b	.LBB25_7
.Ltmp324:
.LBB25_7:
	.loc	7 1163 3                        @ ../ThirdParty/STM32F4xx_HAL_Driver/Src/stm32f4xx_hal_uart.c:1163:3
	b	.LBB25_8
.Ltmp325:
.LBB25_8:
	.loc	7 1166 3                        @ ../ThirdParty/STM32F4xx_HAL_Driver/Src/stm32f4xx_hal_uart.c:1166:3
	ldr	r1, [sp, #4]
	movs	r0, #0
	.loc	7 1166 22 is_stmt 0             @ ../ThirdParty/STM32F4xx_HAL_Driver/Src/stm32f4xx_hal_uart.c:1166:22
	strh	r0, [r1, #38]
	.loc	7 1167 3 is_stmt 1              @ ../ThirdParty/STM32F4xx_HAL_Driver/Src/stm32f4xx_hal_uart.c:1167:3
	ldr	r1, [sp, #4]
	.loc	7 1167 22 is_stmt 0             @ ../ThirdParty/STM32F4xx_HAL_Driver/Src/stm32f4xx_hal_uart.c:1167:22
	strh	r0, [r1, #46]
	.loc	7 1170 3 is_stmt 1              @ ../ThirdParty/STM32F4xx_HAL_Driver/Src/stm32f4xx_hal_uart.c:1170:3
	ldr	r1, [sp, #4]
	.loc	7 1170 20 is_stmt 0             @ ../ThirdParty/STM32F4xx_HAL_Driver/Src/stm32f4xx_hal_uart.c:1170:20
	str	r0, [r1, #60]
	.loc	7 1173 3 is_stmt 1              @ ../ThirdParty/STM32F4xx_HAL_Driver/Src/stm32f4xx_hal_uart.c:1173:3
	ldr	r2, [sp, #4]
	movs	r1, #32
	.loc	7 1173 18 is_stmt 0             @ ../ThirdParty/STM32F4xx_HAL_Driver/Src/stm32f4xx_hal_uart.c:1173:18
	strb.w	r1, [r2, #58]
	.loc	7 1174 3 is_stmt 1              @ ../ThirdParty/STM32F4xx_HAL_Driver/Src/stm32f4xx_hal_uart.c:1174:3
	ldr	r2, [sp, #4]
	.loc	7 1174 17 is_stmt 0             @ ../ThirdParty/STM32F4xx_HAL_Driver/Src/stm32f4xx_hal_uart.c:1174:17
	strb.w	r1, [r2, #57]
	.loc	7 1176 3 epilogue_begin is_stmt 1 @ ../ThirdParty/STM32F4xx_HAL_Driver/Src/stm32f4xx_hal_uart.c:1176:3
	add	sp, #8
	pop	{r7, pc}
.Ltmp326:
.Lfunc_end25:
	.size	HAL_UART_Abort, .Lfunc_end25-HAL_UART_Abort
	.cfi_endproc
	.cantunwind
	.fnend
                                        @ -- End function
	.section	.text.HAL_UART_AbortTransmit,"ax",%progbits
	.hidden	HAL_UART_AbortTransmit          @ -- Begin function HAL_UART_AbortTransmit
	.globl	HAL_UART_AbortTransmit
	.p2align	2
	.type	HAL_UART_AbortTransmit,%function
	.code	16                              @ @HAL_UART_AbortTransmit
	.thumb_func
HAL_UART_AbortTransmit:
.Lfunc_begin26:
	.loc	7 1192 0                        @ ../ThirdParty/STM32F4xx_HAL_Driver/Src/stm32f4xx_hal_uart.c:1192:0
	.fnstart
	.cfi_startproc
@ %bb.0:
	.save	{r7, lr}
	push	{r7, lr}
	.cfi_def_cfa_offset 8
	.cfi_offset lr, -4
	.cfi_offset r7, -8
	.pad	#8
	sub	sp, #8
	.cfi_def_cfa_offset 16
	str	r0, [sp, #4]
.Ltmp327:
	.loc	7 1194 3 prologue_end           @ ../ThirdParty/STM32F4xx_HAL_Driver/Src/stm32f4xx_hal_uart.c:1194:3
	ldr	r0, [sp, #4]
	ldr	r1, [r0]
	ldr	r0, [r1, #12]
	bic	r0, r0, #192
	str	r0, [r1, #12]
.Ltmp328:
	.loc	7 1197 6                        @ ../ThirdParty/STM32F4xx_HAL_Driver/Src/stm32f4xx_hal_uart.c:1197:6
	ldr	r0, [sp, #4]
	ldr	r0, [r0]
	ldr	r0, [r0, #20]
.Ltmp329:
	.loc	7 1197 6 is_stmt 0              @ ../ThirdParty/STM32F4xx_HAL_Driver/Src/stm32f4xx_hal_uart.c:1197:6
	lsls	r0, r0, #24
	cmp	r0, #0
	bpl	.LBB26_4
	b	.LBB26_1
.LBB26_1:
.Ltmp330:
	.loc	7 1199 5 is_stmt 1              @ ../ThirdParty/STM32F4xx_HAL_Driver/Src/stm32f4xx_hal_uart.c:1199:5
	ldr	r0, [sp, #4]
	ldr	r1, [r0]
	ldr	r0, [r1, #20]
	bic	r0, r0, #128
	str	r0, [r1, #20]
.Ltmp331:
	.loc	7 1202 8                        @ ../ThirdParty/STM32F4xx_HAL_Driver/Src/stm32f4xx_hal_uart.c:1202:8
	ldr	r0, [sp, #4]
	.loc	7 1202 15 is_stmt 0             @ ../ThirdParty/STM32F4xx_HAL_Driver/Src/stm32f4xx_hal_uart.c:1202:15
	ldr	r0, [r0, #48]
.Ltmp332:
	.loc	7 1202 8                        @ ../ThirdParty/STM32F4xx_HAL_Driver/Src/stm32f4xx_hal_uart.c:1202:8
	cbz	r0, .LBB26_3
	b	.LBB26_2
.LBB26_2:
.Ltmp333:
	.loc	7 1206 7 is_stmt 1              @ ../ThirdParty/STM32F4xx_HAL_Driver/Src/stm32f4xx_hal_uart.c:1206:7
	ldr	r0, [sp, #4]
	.loc	7 1206 14 is_stmt 0             @ ../ThirdParty/STM32F4xx_HAL_Driver/Src/stm32f4xx_hal_uart.c:1206:14
	ldr	r1, [r0, #48]
	movs	r0, #0
	.loc	7 1206 40                       @ ../ThirdParty/STM32F4xx_HAL_Driver/Src/stm32f4xx_hal_uart.c:1206:40
	str	r0, [r1, #80]
	.loc	7 1208 21 is_stmt 1             @ ../ThirdParty/STM32F4xx_HAL_Driver/Src/stm32f4xx_hal_uart.c:1208:21
	ldr	r0, [sp, #4]
	.loc	7 1208 28 is_stmt 0             @ ../ThirdParty/STM32F4xx_HAL_Driver/Src/stm32f4xx_hal_uart.c:1208:28
	ldr	r0, [r0, #48]
	.loc	7 1208 7                        @ ../ThirdParty/STM32F4xx_HAL_Driver/Src/stm32f4xx_hal_uart.c:1208:7
	bl	HAL_DMA_Abort
	.loc	7 1209 5 is_stmt 1              @ ../ThirdParty/STM32F4xx_HAL_Driver/Src/stm32f4xx_hal_uart.c:1209:5
	b	.LBB26_3
.Ltmp334:
.LBB26_3:
	.loc	7 1210 3                        @ ../ThirdParty/STM32F4xx_HAL_Driver/Src/stm32f4xx_hal_uart.c:1210:3
	b	.LBB26_4
.Ltmp335:
.LBB26_4:
	.loc	7 1213 3                        @ ../ThirdParty/STM32F4xx_HAL_Driver/Src/stm32f4xx_hal_uart.c:1213:3
	ldr	r1, [sp, #4]
	movs	r0, #0
	.loc	7 1213 22 is_stmt 0             @ ../ThirdParty/STM32F4xx_HAL_Driver/Src/stm32f4xx_hal_uart.c:1213:22
	strh	r0, [r1, #38]
	.loc	7 1216 3 is_stmt 1              @ ../ThirdParty/STM32F4xx_HAL_Driver/Src/stm32f4xx_hal_uart.c:1216:3
	ldr	r2, [sp, #4]
	movs	r1, #32
	.loc	7 1216 17 is_stmt 0             @ ../ThirdParty/STM32F4xx_HAL_Driver/Src/stm32f4xx_hal_uart.c:1216:17
	strb.w	r1, [r2, #57]
	.loc	7 1218 3 epilogue_begin is_stmt 1 @ ../ThirdParty/STM32F4xx_HAL_Driver/Src/stm32f4xx_hal_uart.c:1218:3
	add	sp, #8
	pop	{r7, pc}
.Ltmp336:
.Lfunc_end26:
	.size	HAL_UART_AbortTransmit, .Lfunc_end26-HAL_UART_AbortTransmit
	.cfi_endproc
	.cantunwind
	.fnend
                                        @ -- End function
	.section	.text.HAL_UART_AbortReceive,"ax",%progbits
	.hidden	HAL_UART_AbortReceive           @ -- Begin function HAL_UART_AbortReceive
	.globl	HAL_UART_AbortReceive
	.p2align	2
	.type	HAL_UART_AbortReceive,%function
	.code	16                              @ @HAL_UART_AbortReceive
	.thumb_func
HAL_UART_AbortReceive:
.Lfunc_begin27:
	.loc	7 1234 0                        @ ../ThirdParty/STM32F4xx_HAL_Driver/Src/stm32f4xx_hal_uart.c:1234:0
	.fnstart
	.cfi_startproc
@ %bb.0:
	.save	{r7, lr}
	push	{r7, lr}
	.cfi_def_cfa_offset 8
	.cfi_offset lr, -4
	.cfi_offset r7, -8
	.pad	#8
	sub	sp, #8
	.cfi_def_cfa_offset 16
	str	r0, [sp, #4]
.Ltmp337:
	.loc	7 1236 3 prologue_end           @ ../ThirdParty/STM32F4xx_HAL_Driver/Src/stm32f4xx_hal_uart.c:1236:3
	ldr	r0, [sp, #4]
	ldr	r1, [r0]
	ldr	r0, [r1, #12]
	bic	r0, r0, #288
	str	r0, [r1, #12]
	.loc	7 1237 3                        @ ../ThirdParty/STM32F4xx_HAL_Driver/Src/stm32f4xx_hal_uart.c:1237:3
	ldr	r0, [sp, #4]
	ldr	r1, [r0]
	ldr	r0, [r1, #20]
	bic	r0, r0, #1
	str	r0, [r1, #20]
.Ltmp338:
	.loc	7 1240 6                        @ ../ThirdParty/STM32F4xx_HAL_Driver/Src/stm32f4xx_hal_uart.c:1240:6
	ldr	r0, [sp, #4]
	ldr	r0, [r0]
	ldr	r0, [r0, #20]
.Ltmp339:
	.loc	7 1240 6 is_stmt 0              @ ../ThirdParty/STM32F4xx_HAL_Driver/Src/stm32f4xx_hal_uart.c:1240:6
	lsls	r0, r0, #25
	cmp	r0, #0
	bpl	.LBB27_4
	b	.LBB27_1
.LBB27_1:
.Ltmp340:
	.loc	7 1242 5 is_stmt 1              @ ../ThirdParty/STM32F4xx_HAL_Driver/Src/stm32f4xx_hal_uart.c:1242:5
	ldr	r0, [sp, #4]
	ldr	r1, [r0]
	ldr	r0, [r1, #20]
	bic	r0, r0, #64
	str	r0, [r1, #20]
.Ltmp341:
	.loc	7 1245 8                        @ ../ThirdParty/STM32F4xx_HAL_Driver/Src/stm32f4xx_hal_uart.c:1245:8
	ldr	r0, [sp, #4]
	.loc	7 1245 15 is_stmt 0             @ ../ThirdParty/STM32F4xx_HAL_Driver/Src/stm32f4xx_hal_uart.c:1245:15
	ldr	r0, [r0, #52]
.Ltmp342:
	.loc	7 1245 8                        @ ../ThirdParty/STM32F4xx_HAL_Driver/Src/stm32f4xx_hal_uart.c:1245:8
	cbz	r0, .LBB27_3
	b	.LBB27_2
.LBB27_2:
.Ltmp343:
	.loc	7 1249 7 is_stmt 1              @ ../ThirdParty/STM32F4xx_HAL_Driver/Src/stm32f4xx_hal_uart.c:1249:7
	ldr	r0, [sp, #4]
	.loc	7 1249 14 is_stmt 0             @ ../ThirdParty/STM32F4xx_HAL_Driver/Src/stm32f4xx_hal_uart.c:1249:14
	ldr	r1, [r0, #52]
	movs	r0, #0
	.loc	7 1249 40                       @ ../ThirdParty/STM32F4xx_HAL_Driver/Src/stm32f4xx_hal_uart.c:1249:40
	str	r0, [r1, #80]
	.loc	7 1251 21 is_stmt 1             @ ../ThirdParty/STM32F4xx_HAL_Driver/Src/stm32f4xx_hal_uart.c:1251:21
	ldr	r0, [sp, #4]
	.loc	7 1251 28 is_stmt 0             @ ../ThirdParty/STM32F4xx_HAL_Driver/Src/stm32f4xx_hal_uart.c:1251:28
	ldr	r0, [r0, #52]
	.loc	7 1251 7                        @ ../ThirdParty/STM32F4xx_HAL_Driver/Src/stm32f4xx_hal_uart.c:1251:7
	bl	HAL_DMA_Abort
	.loc	7 1252 5 is_stmt 1              @ ../ThirdParty/STM32F4xx_HAL_Driver/Src/stm32f4xx_hal_uart.c:1252:5
	b	.LBB27_3
.Ltmp344:
.LBB27_3:
	.loc	7 1253 3                        @ ../ThirdParty/STM32F4xx_HAL_Driver/Src/stm32f4xx_hal_uart.c:1253:3
	b	.LBB27_4
.Ltmp345:
.LBB27_4:
	.loc	7 1256 3                        @ ../ThirdParty/STM32F4xx_HAL_Driver/Src/stm32f4xx_hal_uart.c:1256:3
	ldr	r1, [sp, #4]
	movs	r0, #0
	.loc	7 1256 22 is_stmt 0             @ ../ThirdParty/STM32F4xx_HAL_Driver/Src/stm32f4xx_hal_uart.c:1256:22
	strh	r0, [r1, #46]
	.loc	7 1259 3 is_stmt 1              @ ../ThirdParty/STM32F4xx_HAL_Driver/Src/stm32f4xx_hal_uart.c:1259:3
	ldr	r2, [sp, #4]
	movs	r1, #32
	.loc	7 1259 18 is_stmt 0             @ ../ThirdParty/STM32F4xx_HAL_Driver/Src/stm32f4xx_hal_uart.c:1259:18
	strb.w	r1, [r2, #58]
	.loc	7 1261 3 epilogue_begin is_stmt 1 @ ../ThirdParty/STM32F4xx_HAL_Driver/Src/stm32f4xx_hal_uart.c:1261:3
	add	sp, #8
	pop	{r7, pc}
.Ltmp346:
.Lfunc_end27:
	.size	HAL_UART_AbortReceive, .Lfunc_end27-HAL_UART_AbortReceive
	.cfi_endproc
	.cantunwind
	.fnend
                                        @ -- End function
	.section	.text.HAL_UART_Abort_IT,"ax",%progbits
	.hidden	HAL_UART_Abort_IT               @ -- Begin function HAL_UART_Abort_IT
	.globl	HAL_UART_Abort_IT
	.p2align	2
	.type	HAL_UART_Abort_IT,%function
	.code	16                              @ @HAL_UART_Abort_IT
	.thumb_func
HAL_UART_Abort_IT:
.Lfunc_begin28:
	.loc	7 1279 0                        @ ../ThirdParty/STM32F4xx_HAL_Driver/Src/stm32f4xx_hal_uart.c:1279:0
	.fnstart
	.cfi_startproc
@ %bb.0:
	.save	{r7, lr}
	push	{r7, lr}
	.cfi_def_cfa_offset 8
	.cfi_offset lr, -4
	.cfi_offset r7, -8
	.pad	#8
	sub	sp, #8
	.cfi_def_cfa_offset 16
	str	r0, [sp, #4]
	movs	r0, #1
.Ltmp347:
	.loc	7 1280 12 prologue_end          @ ../ThirdParty/STM32F4xx_HAL_Driver/Src/stm32f4xx_hal_uart.c:1280:12
	str	r0, [sp]
	.loc	7 1283 3                        @ ../ThirdParty/STM32F4xx_HAL_Driver/Src/stm32f4xx_hal_uart.c:1283:3
	ldr	r0, [sp, #4]
	ldr	r1, [r0]
	ldr	r0, [r1, #12]
	bic	r0, r0, #480
	str	r0, [r1, #12]
	.loc	7 1284 3                        @ ../ThirdParty/STM32F4xx_HAL_Driver/Src/stm32f4xx_hal_uart.c:1284:3
	ldr	r0, [sp, #4]
	ldr	r1, [r0]
	ldr	r0, [r1, #20]
	bic	r0, r0, #1
	str	r0, [r1, #20]
.Ltmp348:
	.loc	7 1289 6                        @ ../ThirdParty/STM32F4xx_HAL_Driver/Src/stm32f4xx_hal_uart.c:1289:6
	ldr	r0, [sp, #4]
	.loc	7 1289 13 is_stmt 0             @ ../ThirdParty/STM32F4xx_HAL_Driver/Src/stm32f4xx_hal_uart.c:1289:13
	ldr	r0, [r0, #48]
.Ltmp349:
	.loc	7 1289 6                        @ ../ThirdParty/STM32F4xx_HAL_Driver/Src/stm32f4xx_hal_uart.c:1289:6
	cbz	r0, .LBB28_5
	b	.LBB28_1
.LBB28_1:
.Ltmp350:
	.loc	7 1293 8 is_stmt 1              @ ../ThirdParty/STM32F4xx_HAL_Driver/Src/stm32f4xx_hal_uart.c:1293:8
	ldr	r0, [sp, #4]
	ldr	r0, [r0]
	ldr	r0, [r0, #20]
.Ltmp351:
	.loc	7 1293 8 is_stmt 0              @ ../ThirdParty/STM32F4xx_HAL_Driver/Src/stm32f4xx_hal_uart.c:1293:8
	lsls	r0, r0, #24
	cmp	r0, #0
	bpl	.LBB28_3
	b	.LBB28_2
.LBB28_2:
.Ltmp352:
	.loc	7 1295 7 is_stmt 1              @ ../ThirdParty/STM32F4xx_HAL_Driver/Src/stm32f4xx_hal_uart.c:1295:7
	ldr	r0, [sp, #4]
	.loc	7 1295 14 is_stmt 0             @ ../ThirdParty/STM32F4xx_HAL_Driver/Src/stm32f4xx_hal_uart.c:1295:14
	ldr	r1, [r0, #48]
	.loc	7 1295 40                       @ ../ThirdParty/STM32F4xx_HAL_Driver/Src/stm32f4xx_hal_uart.c:1295:40
	movw	r0, :lower16:UART_DMATxAbortCallback
	movt	r0, :upper16:UART_DMATxAbortCallback
	str	r0, [r1, #80]
	.loc	7 1296 5 is_stmt 1              @ ../ThirdParty/STM32F4xx_HAL_Driver/Src/stm32f4xx_hal_uart.c:1296:5
	b	.LBB28_4
.Ltmp353:
.LBB28_3:
	.loc	7 1299 7                        @ ../ThirdParty/STM32F4xx_HAL_Driver/Src/stm32f4xx_hal_uart.c:1299:7
	ldr	r0, [sp, #4]
	.loc	7 1299 14 is_stmt 0             @ ../ThirdParty/STM32F4xx_HAL_Driver/Src/stm32f4xx_hal_uart.c:1299:14
	ldr	r1, [r0, #48]
	movs	r0, #0
	.loc	7 1299 40                       @ ../ThirdParty/STM32F4xx_HAL_Driver/Src/stm32f4xx_hal_uart.c:1299:40
	str	r0, [r1, #80]
	b	.LBB28_4
.Ltmp354:
.LBB28_4:
	.loc	7 1301 3 is_stmt 1              @ ../ThirdParty/STM32F4xx_HAL_Driver/Src/stm32f4xx_hal_uart.c:1301:3
	b	.LBB28_5
.Ltmp355:
.LBB28_5:
	.loc	7 1303 6                        @ ../ThirdParty/STM32F4xx_HAL_Driver/Src/stm32f4xx_hal_uart.c:1303:6
	ldr	r0, [sp, #4]
	.loc	7 1303 13 is_stmt 0             @ ../ThirdParty/STM32F4xx_HAL_Driver/Src/stm32f4xx_hal_uart.c:1303:13
	ldr	r0, [r0, #52]
.Ltmp356:
	.loc	7 1303 6                        @ ../ThirdParty/STM32F4xx_HAL_Driver/Src/stm32f4xx_hal_uart.c:1303:6
	cbz	r0, .LBB28_10
	b	.LBB28_6
.LBB28_6:
.Ltmp357:
	.loc	7 1307 8 is_stmt 1              @ ../ThirdParty/STM32F4xx_HAL_Driver/Src/stm32f4xx_hal_uart.c:1307:8
	ldr	r0, [sp, #4]
	ldr	r0, [r0]
	ldr	r0, [r0, #20]
.Ltmp358:
	.loc	7 1307 8 is_stmt 0              @ ../ThirdParty/STM32F4xx_HAL_Driver/Src/stm32f4xx_hal_uart.c:1307:8
	lsls	r0, r0, #25
	cmp	r0, #0
	bpl	.LBB28_8
	b	.LBB28_7
.LBB28_7:
.Ltmp359:
	.loc	7 1309 7 is_stmt 1              @ ../ThirdParty/STM32F4xx_HAL_Driver/Src/stm32f4xx_hal_uart.c:1309:7
	ldr	r0, [sp, #4]
	.loc	7 1309 14 is_stmt 0             @ ../ThirdParty/STM32F4xx_HAL_Driver/Src/stm32f4xx_hal_uart.c:1309:14
	ldr	r1, [r0, #52]
	.loc	7 1309 40                       @ ../ThirdParty/STM32F4xx_HAL_Driver/Src/stm32f4xx_hal_uart.c:1309:40
	movw	r0, :lower16:UART_DMARxAbortCallback
	movt	r0, :upper16:UART_DMARxAbortCallback
	str	r0, [r1, #80]
	.loc	7 1310 5 is_stmt 1              @ ../ThirdParty/STM32F4xx_HAL_Driver/Src/stm32f4xx_hal_uart.c:1310:5
	b	.LBB28_9
.Ltmp360:
.LBB28_8:
	.loc	7 1313 7                        @ ../ThirdParty/STM32F4xx_HAL_Driver/Src/stm32f4xx_hal_uart.c:1313:7
	ldr	r0, [sp, #4]
	.loc	7 1313 14 is_stmt 0             @ ../ThirdParty/STM32F4xx_HAL_Driver/Src/stm32f4xx_hal_uart.c:1313:14
	ldr	r1, [r0, #52]
	movs	r0, #0
	.loc	7 1313 40                       @ ../ThirdParty/STM32F4xx_HAL_Driver/Src/stm32f4xx_hal_uart.c:1313:40
	str	r0, [r1, #80]
	b	.LBB28_9
.Ltmp361:
.LBB28_9:
	.loc	7 1315 3 is_stmt 1              @ ../ThirdParty/STM32F4xx_HAL_Driver/Src/stm32f4xx_hal_uart.c:1315:3
	b	.LBB28_10
.Ltmp362:
.LBB28_10:
	.loc	7 1318 6                        @ ../ThirdParty/STM32F4xx_HAL_Driver/Src/stm32f4xx_hal_uart.c:1318:6
	ldr	r0, [sp, #4]
	ldr	r0, [r0]
	ldr	r0, [r0, #20]
.Ltmp363:
	.loc	7 1318 6 is_stmt 0              @ ../ThirdParty/STM32F4xx_HAL_Driver/Src/stm32f4xx_hal_uart.c:1318:6
	lsls	r0, r0, #24
	cmp	r0, #0
	bpl	.LBB28_17
	b	.LBB28_11
.LBB28_11:
.Ltmp364:
	.loc	7 1321 5 is_stmt 1              @ ../ThirdParty/STM32F4xx_HAL_Driver/Src/stm32f4xx_hal_uart.c:1321:5
	ldr	r0, [sp, #4]
	ldr	r1, [r0]
	ldr	r0, [r1, #20]
	bic	r0, r0, #128
	str	r0, [r1, #20]
.Ltmp365:
	.loc	7 1324 8                        @ ../ThirdParty/STM32F4xx_HAL_Driver/Src/stm32f4xx_hal_uart.c:1324:8
	ldr	r0, [sp, #4]
	.loc	7 1324 15 is_stmt 0             @ ../ThirdParty/STM32F4xx_HAL_Driver/Src/stm32f4xx_hal_uart.c:1324:15
	ldr	r0, [r0, #48]
.Ltmp366:
	.loc	7 1324 8                        @ ../ThirdParty/STM32F4xx_HAL_Driver/Src/stm32f4xx_hal_uart.c:1324:8
	cbz	r0, .LBB28_16
	b	.LBB28_12
.LBB28_12:
.Ltmp367:
	.loc	7 1330 27 is_stmt 1             @ ../ThirdParty/STM32F4xx_HAL_Driver/Src/stm32f4xx_hal_uart.c:1330:27
	ldr	r0, [sp, #4]
	.loc	7 1330 34 is_stmt 0             @ ../ThirdParty/STM32F4xx_HAL_Driver/Src/stm32f4xx_hal_uart.c:1330:34
	ldr	r0, [r0, #48]
	.loc	7 1330 10                       @ ../ThirdParty/STM32F4xx_HAL_Driver/Src/stm32f4xx_hal_uart.c:1330:10
	bl	HAL_DMA_Abort_IT
.Ltmp368:
	.loc	7 1330 10                       @ ../ThirdParty/STM32F4xx_HAL_Driver/Src/stm32f4xx_hal_uart.c:1330:10
	cbz	r0, .LBB28_14
	b	.LBB28_13
.LBB28_13:
.Ltmp369:
	.loc	7 1332 9 is_stmt 1              @ ../ThirdParty/STM32F4xx_HAL_Driver/Src/stm32f4xx_hal_uart.c:1332:9
	ldr	r0, [sp, #4]
	.loc	7 1332 16 is_stmt 0             @ ../ThirdParty/STM32F4xx_HAL_Driver/Src/stm32f4xx_hal_uart.c:1332:16
	ldr	r1, [r0, #48]
	movs	r0, #0
	.loc	7 1332 42                       @ ../ThirdParty/STM32F4xx_HAL_Driver/Src/stm32f4xx_hal_uart.c:1332:42
	str	r0, [r1, #80]
	.loc	7 1333 7 is_stmt 1              @ ../ThirdParty/STM32F4xx_HAL_Driver/Src/stm32f4xx_hal_uart.c:1333:7
	b	.LBB28_15
.Ltmp370:
.LBB28_14:
	.loc	7 0 7 is_stmt 0                 @ ../ThirdParty/STM32F4xx_HAL_Driver/Src/stm32f4xx_hal_uart.c:0:7
	movs	r0, #0
.Ltmp371:
	.loc	7 1336 19 is_stmt 1             @ ../ThirdParty/STM32F4xx_HAL_Driver/Src/stm32f4xx_hal_uart.c:1336:19
	str	r0, [sp]
	b	.LBB28_15
.Ltmp372:
.LBB28_15:
	.loc	7 1338 5                        @ ../ThirdParty/STM32F4xx_HAL_Driver/Src/stm32f4xx_hal_uart.c:1338:5
	b	.LBB28_16
.Ltmp373:
.LBB28_16:
	.loc	7 1339 3                        @ ../ThirdParty/STM32F4xx_HAL_Driver/Src/stm32f4xx_hal_uart.c:1339:3
	b	.LBB28_17
.Ltmp374:
.LBB28_17:
	.loc	7 1342 6                        @ ../ThirdParty/STM32F4xx_HAL_Driver/Src/stm32f4xx_hal_uart.c:1342:6
	ldr	r0, [sp, #4]
	ldr	r0, [r0]
	ldr	r0, [r0, #20]
.Ltmp375:
	.loc	7 1342 6 is_stmt 0              @ ../ThirdParty/STM32F4xx_HAL_Driver/Src/stm32f4xx_hal_uart.c:1342:6
	lsls	r0, r0, #25
	cmp	r0, #0
	bpl	.LBB28_24
	b	.LBB28_18
.LBB28_18:
.Ltmp376:
	.loc	7 1344 5 is_stmt 1              @ ../ThirdParty/STM32F4xx_HAL_Driver/Src/stm32f4xx_hal_uart.c:1344:5
	ldr	r0, [sp, #4]
	ldr	r1, [r0]
	ldr	r0, [r1, #20]
	bic	r0, r0, #64
	str	r0, [r1, #20]
.Ltmp377:
	.loc	7 1347 8                        @ ../ThirdParty/STM32F4xx_HAL_Driver/Src/stm32f4xx_hal_uart.c:1347:8
	ldr	r0, [sp, #4]
	.loc	7 1347 15 is_stmt 0             @ ../ThirdParty/STM32F4xx_HAL_Driver/Src/stm32f4xx_hal_uart.c:1347:15
	ldr	r0, [r0, #52]
.Ltmp378:
	.loc	7 1347 8                        @ ../ThirdParty/STM32F4xx_HAL_Driver/Src/stm32f4xx_hal_uart.c:1347:8
	cbz	r0, .LBB28_23
	b	.LBB28_19
.LBB28_19:
.Ltmp379:
	.loc	7 1353 27 is_stmt 1             @ ../ThirdParty/STM32F4xx_HAL_Driver/Src/stm32f4xx_hal_uart.c:1353:27
	ldr	r0, [sp, #4]
	.loc	7 1353 34 is_stmt 0             @ ../ThirdParty/STM32F4xx_HAL_Driver/Src/stm32f4xx_hal_uart.c:1353:34
	ldr	r0, [r0, #52]
	.loc	7 1353 10                       @ ../ThirdParty/STM32F4xx_HAL_Driver/Src/stm32f4xx_hal_uart.c:1353:10
	bl	HAL_DMA_Abort_IT
.Ltmp380:
	.loc	7 1353 10                       @ ../ThirdParty/STM32F4xx_HAL_Driver/Src/stm32f4xx_hal_uart.c:1353:10
	cbz	r0, .LBB28_21
	b	.LBB28_20
.LBB28_20:
.Ltmp381:
	.loc	7 1355 9 is_stmt 1              @ ../ThirdParty/STM32F4xx_HAL_Driver/Src/stm32f4xx_hal_uart.c:1355:9
	ldr	r0, [sp, #4]
	.loc	7 1355 16 is_stmt 0             @ ../ThirdParty/STM32F4xx_HAL_Driver/Src/stm32f4xx_hal_uart.c:1355:16
	ldr	r1, [r0, #52]
	movs	r0, #0
	.loc	7 1355 42                       @ ../ThirdParty/STM32F4xx_HAL_Driver/Src/stm32f4xx_hal_uart.c:1355:42
	str	r0, [r1, #80]
	movs	r0, #1
	.loc	7 1356 19 is_stmt 1             @ ../ThirdParty/STM32F4xx_HAL_Driver/Src/stm32f4xx_hal_uart.c:1356:19
	str	r0, [sp]
	.loc	7 1357 7                        @ ../ThirdParty/STM32F4xx_HAL_Driver/Src/stm32f4xx_hal_uart.c:1357:7
	b	.LBB28_22
.Ltmp382:
.LBB28_21:
	.loc	7 0 7 is_stmt 0                 @ ../ThirdParty/STM32F4xx_HAL_Driver/Src/stm32f4xx_hal_uart.c:0:7
	movs	r0, #0
.Ltmp383:
	.loc	7 1360 19 is_stmt 1             @ ../ThirdParty/STM32F4xx_HAL_Driver/Src/stm32f4xx_hal_uart.c:1360:19
	str	r0, [sp]
	b	.LBB28_22
.Ltmp384:
.LBB28_22:
	.loc	7 1362 5                        @ ../ThirdParty/STM32F4xx_HAL_Driver/Src/stm32f4xx_hal_uart.c:1362:5
	b	.LBB28_23
.Ltmp385:
.LBB28_23:
	.loc	7 1363 3                        @ ../ThirdParty/STM32F4xx_HAL_Driver/Src/stm32f4xx_hal_uart.c:1363:3
	b	.LBB28_24
.Ltmp386:
.LBB28_24:
	.loc	7 1366 6                        @ ../ThirdParty/STM32F4xx_HAL_Driver/Src/stm32f4xx_hal_uart.c:1366:6
	ldr	r0, [sp]
.Ltmp387:
	.loc	7 1366 6 is_stmt 0              @ ../ThirdParty/STM32F4xx_HAL_Driver/Src/stm32f4xx_hal_uart.c:1366:6
	cmp	r0, #1
	bne	.LBB28_26
	b	.LBB28_25
.LBB28_25:
.Ltmp388:
	.loc	7 1369 5 is_stmt 1              @ ../ThirdParty/STM32F4xx_HAL_Driver/Src/stm32f4xx_hal_uart.c:1369:5
	ldr	r1, [sp, #4]
	movs	r0, #0
	.loc	7 1369 24 is_stmt 0             @ ../ThirdParty/STM32F4xx_HAL_Driver/Src/stm32f4xx_hal_uart.c:1369:24
	strh	r0, [r1, #38]
	.loc	7 1370 5 is_stmt 1              @ ../ThirdParty/STM32F4xx_HAL_Driver/Src/stm32f4xx_hal_uart.c:1370:5
	ldr	r1, [sp, #4]
	.loc	7 1370 24 is_stmt 0             @ ../ThirdParty/STM32F4xx_HAL_Driver/Src/stm32f4xx_hal_uart.c:1370:24
	strh	r0, [r1, #46]
	.loc	7 1373 5 is_stmt 1              @ ../ThirdParty/STM32F4xx_HAL_Driver/Src/stm32f4xx_hal_uart.c:1373:5
	ldr	r1, [sp, #4]
	.loc	7 1373 22 is_stmt 0             @ ../ThirdParty/STM32F4xx_HAL_Driver/Src/stm32f4xx_hal_uart.c:1373:22
	str	r0, [r1, #60]
	.loc	7 1376 5 is_stmt 1              @ ../ThirdParty/STM32F4xx_HAL_Driver/Src/stm32f4xx_hal_uart.c:1376:5
	ldr	r1, [sp, #4]
	movs	r0, #32
	.loc	7 1376 20 is_stmt 0             @ ../ThirdParty/STM32F4xx_HAL_Driver/Src/stm32f4xx_hal_uart.c:1376:20
	strb.w	r0, [r1, #57]
	.loc	7 1377 5 is_stmt 1              @ ../ThirdParty/STM32F4xx_HAL_Driver/Src/stm32f4xx_hal_uart.c:1377:5
	ldr	r1, [sp, #4]
	.loc	7 1377 20 is_stmt 0             @ ../ThirdParty/STM32F4xx_HAL_Driver/Src/stm32f4xx_hal_uart.c:1377:20
	strb.w	r0, [r1, #58]
	.loc	7 1380 32 is_stmt 1             @ ../ThirdParty/STM32F4xx_HAL_Driver/Src/stm32f4xx_hal_uart.c:1380:32
	ldr	r0, [sp, #4]
	.loc	7 1380 5 is_stmt 0              @ ../ThirdParty/STM32F4xx_HAL_Driver/Src/stm32f4xx_hal_uart.c:1380:5
	bl	HAL_UART_AbortCpltCallback
	.loc	7 1381 3 is_stmt 1              @ ../ThirdParty/STM32F4xx_HAL_Driver/Src/stm32f4xx_hal_uart.c:1381:3
	b	.LBB28_26
.Ltmp389:
.LBB28_26:
	.loc	7 0 3 is_stmt 0                 @ ../ThirdParty/STM32F4xx_HAL_Driver/Src/stm32f4xx_hal_uart.c:0:3
	movs	r0, #0
	.loc	7 1383 3 epilogue_begin is_stmt 1 @ ../ThirdParty/STM32F4xx_HAL_Driver/Src/stm32f4xx_hal_uart.c:1383:3
	add	sp, #8
	pop	{r7, pc}
.Ltmp390:
.Lfunc_end28:
	.size	HAL_UART_Abort_IT, .Lfunc_end28-HAL_UART_Abort_IT
	.cfi_endproc
	.cantunwind
	.fnend
                                        @ -- End function
	.section	.text.UART_DMATxAbortCallback,"ax",%progbits
	.p2align	2                               @ -- Begin function UART_DMATxAbortCallback
	.type	UART_DMATxAbortCallback,%function
	.code	16                              @ @UART_DMATxAbortCallback
	.thumb_func
UART_DMATxAbortCallback:
.Lfunc_begin29:
	.loc	7 2189 0                        @ ../ThirdParty/STM32F4xx_HAL_Driver/Src/stm32f4xx_hal_uart.c:2189:0
	.fnstart
	.cfi_startproc
@ %bb.0:
	.save	{r7, lr}
	push	{r7, lr}
	.cfi_def_cfa_offset 8
	.cfi_offset lr, -4
	.cfi_offset r7, -8
	.pad	#8
	sub	sp, #8
	.cfi_def_cfa_offset 16
	str	r0, [sp, #4]
.Ltmp391:
	.loc	7 2190 76 prologue_end          @ ../ThirdParty/STM32F4xx_HAL_Driver/Src/stm32f4xx_hal_uart.c:2190:76
	ldr	r0, [sp, #4]
	.loc	7 2190 83 is_stmt 0             @ ../ThirdParty/STM32F4xx_HAL_Driver/Src/stm32f4xx_hal_uart.c:2190:83
	ldr	r0, [r0, #56]
	.loc	7 2190 23                       @ ../ThirdParty/STM32F4xx_HAL_Driver/Src/stm32f4xx_hal_uart.c:2190:23
	str	r0, [sp]
	.loc	7 2192 3 is_stmt 1              @ ../ThirdParty/STM32F4xx_HAL_Driver/Src/stm32f4xx_hal_uart.c:2192:3
	ldr	r0, [sp]
	.loc	7 2192 10 is_stmt 0             @ ../ThirdParty/STM32F4xx_HAL_Driver/Src/stm32f4xx_hal_uart.c:2192:10
	ldr	r1, [r0, #48]
	movs	r0, #0
	.loc	7 2192 36                       @ ../ThirdParty/STM32F4xx_HAL_Driver/Src/stm32f4xx_hal_uart.c:2192:36
	str	r0, [r1, #80]
.Ltmp392:
	.loc	7 2195 6 is_stmt 1              @ ../ThirdParty/STM32F4xx_HAL_Driver/Src/stm32f4xx_hal_uart.c:2195:6
	ldr	r0, [sp]
	.loc	7 2195 13 is_stmt 0             @ ../ThirdParty/STM32F4xx_HAL_Driver/Src/stm32f4xx_hal_uart.c:2195:13
	ldr	r0, [r0, #52]
.Ltmp393:
	.loc	7 2195 6                        @ ../ThirdParty/STM32F4xx_HAL_Driver/Src/stm32f4xx_hal_uart.c:2195:6
	cbz	r0, .LBB29_4
	b	.LBB29_1
.LBB29_1:
.Ltmp394:
	.loc	7 2197 8 is_stmt 1              @ ../ThirdParty/STM32F4xx_HAL_Driver/Src/stm32f4xx_hal_uart.c:2197:8
	ldr	r0, [sp]
	.loc	7 2197 15 is_stmt 0             @ ../ThirdParty/STM32F4xx_HAL_Driver/Src/stm32f4xx_hal_uart.c:2197:15
	ldr	r0, [r0, #52]
	.loc	7 2197 23                       @ ../ThirdParty/STM32F4xx_HAL_Driver/Src/stm32f4xx_hal_uart.c:2197:23
	ldr	r0, [r0, #80]
.Ltmp395:
	.loc	7 2197 8                        @ ../ThirdParty/STM32F4xx_HAL_Driver/Src/stm32f4xx_hal_uart.c:2197:8
	cbz	r0, .LBB29_3
	b	.LBB29_2
.LBB29_2:
.Ltmp396:
	.loc	7 2199 7 is_stmt 1              @ ../ThirdParty/STM32F4xx_HAL_Driver/Src/stm32f4xx_hal_uart.c:2199:7
	b	.LBB29_5
.Ltmp397:
.LBB29_3:
	.loc	7 2201 3                        @ ../ThirdParty/STM32F4xx_HAL_Driver/Src/stm32f4xx_hal_uart.c:2201:3
	b	.LBB29_4
.Ltmp398:
.LBB29_4:
	.loc	7 2204 3                        @ ../ThirdParty/STM32F4xx_HAL_Driver/Src/stm32f4xx_hal_uart.c:2204:3
	ldr	r1, [sp]
	movs	r0, #0
	.loc	7 2204 22 is_stmt 0             @ ../ThirdParty/STM32F4xx_HAL_Driver/Src/stm32f4xx_hal_uart.c:2204:22
	strh	r0, [r1, #38]
	.loc	7 2205 3 is_stmt 1              @ ../ThirdParty/STM32F4xx_HAL_Driver/Src/stm32f4xx_hal_uart.c:2205:3
	ldr	r1, [sp]
	.loc	7 2205 22 is_stmt 0             @ ../ThirdParty/STM32F4xx_HAL_Driver/Src/stm32f4xx_hal_uart.c:2205:22
	strh	r0, [r1, #46]
	.loc	7 2208 3 is_stmt 1              @ ../ThirdParty/STM32F4xx_HAL_Driver/Src/stm32f4xx_hal_uart.c:2208:3
	ldr	r1, [sp]
	.loc	7 2208 20 is_stmt 0             @ ../ThirdParty/STM32F4xx_HAL_Driver/Src/stm32f4xx_hal_uart.c:2208:20
	str	r0, [r1, #60]
	.loc	7 2211 3 is_stmt 1              @ ../ThirdParty/STM32F4xx_HAL_Driver/Src/stm32f4xx_hal_uart.c:2211:3
	ldr	r1, [sp]
	movs	r0, #32
	.loc	7 2211 18 is_stmt 0             @ ../ThirdParty/STM32F4xx_HAL_Driver/Src/stm32f4xx_hal_uart.c:2211:18
	strb.w	r0, [r1, #57]
	.loc	7 2212 3 is_stmt 1              @ ../ThirdParty/STM32F4xx_HAL_Driver/Src/stm32f4xx_hal_uart.c:2212:3
	ldr	r1, [sp]
	.loc	7 2212 18 is_stmt 0             @ ../ThirdParty/STM32F4xx_HAL_Driver/Src/stm32f4xx_hal_uart.c:2212:18
	strb.w	r0, [r1, #58]
	.loc	7 2215 30 is_stmt 1             @ ../ThirdParty/STM32F4xx_HAL_Driver/Src/stm32f4xx_hal_uart.c:2215:30
	ldr	r0, [sp]
	.loc	7 2215 3 is_stmt 0              @ ../ThirdParty/STM32F4xx_HAL_Driver/Src/stm32f4xx_hal_uart.c:2215:3
	bl	HAL_UART_AbortCpltCallback
	.loc	7 2216 1 is_stmt 1              @ ../ThirdParty/STM32F4xx_HAL_Driver/Src/stm32f4xx_hal_uart.c:2216:1
	b	.LBB29_5
.LBB29_5:
	.loc	7 2216 1 epilogue_begin is_stmt 0 @ ../ThirdParty/STM32F4xx_HAL_Driver/Src/stm32f4xx_hal_uart.c:2216:1
	add	sp, #8
	pop	{r7, pc}
.Ltmp399:
.Lfunc_end29:
	.size	UART_DMATxAbortCallback, .Lfunc_end29-UART_DMATxAbortCallback
	.cfi_endproc
	.cantunwind
	.fnend
                                        @ -- End function
	.section	.text.UART_DMARxAbortCallback,"ax",%progbits
	.p2align	2                               @ -- Begin function UART_DMARxAbortCallback
	.type	UART_DMARxAbortCallback,%function
	.code	16                              @ @UART_DMARxAbortCallback
	.thumb_func
UART_DMARxAbortCallback:
.Lfunc_begin30:
	.loc	7 2227 0 is_stmt 1              @ ../ThirdParty/STM32F4xx_HAL_Driver/Src/stm32f4xx_hal_uart.c:2227:0
	.fnstart
	.cfi_startproc
@ %bb.0:
	.save	{r7, lr}
	push	{r7, lr}
	.cfi_def_cfa_offset 8
	.cfi_offset lr, -4
	.cfi_offset r7, -8
	.pad	#8
	sub	sp, #8
	.cfi_def_cfa_offset 16
	str	r0, [sp, #4]
.Ltmp400:
	.loc	7 2228 76 prologue_end          @ ../ThirdParty/STM32F4xx_HAL_Driver/Src/stm32f4xx_hal_uart.c:2228:76
	ldr	r0, [sp, #4]
	.loc	7 2228 83 is_stmt 0             @ ../ThirdParty/STM32F4xx_HAL_Driver/Src/stm32f4xx_hal_uart.c:2228:83
	ldr	r0, [r0, #56]
	.loc	7 2228 23                       @ ../ThirdParty/STM32F4xx_HAL_Driver/Src/stm32f4xx_hal_uart.c:2228:23
	str	r0, [sp]
	.loc	7 2230 3 is_stmt 1              @ ../ThirdParty/STM32F4xx_HAL_Driver/Src/stm32f4xx_hal_uart.c:2230:3
	ldr	r0, [sp]
	.loc	7 2230 10 is_stmt 0             @ ../ThirdParty/STM32F4xx_HAL_Driver/Src/stm32f4xx_hal_uart.c:2230:10
	ldr	r1, [r0, #52]
	movs	r0, #0
	.loc	7 2230 36                       @ ../ThirdParty/STM32F4xx_HAL_Driver/Src/stm32f4xx_hal_uart.c:2230:36
	str	r0, [r1, #80]
.Ltmp401:
	.loc	7 2233 6 is_stmt 1              @ ../ThirdParty/STM32F4xx_HAL_Driver/Src/stm32f4xx_hal_uart.c:2233:6
	ldr	r0, [sp]
	.loc	7 2233 13 is_stmt 0             @ ../ThirdParty/STM32F4xx_HAL_Driver/Src/stm32f4xx_hal_uart.c:2233:13
	ldr	r0, [r0, #48]
.Ltmp402:
	.loc	7 2233 6                        @ ../ThirdParty/STM32F4xx_HAL_Driver/Src/stm32f4xx_hal_uart.c:2233:6
	cbz	r0, .LBB30_4
	b	.LBB30_1
.LBB30_1:
.Ltmp403:
	.loc	7 2235 8 is_stmt 1              @ ../ThirdParty/STM32F4xx_HAL_Driver/Src/stm32f4xx_hal_uart.c:2235:8
	ldr	r0, [sp]
	.loc	7 2235 15 is_stmt 0             @ ../ThirdParty/STM32F4xx_HAL_Driver/Src/stm32f4xx_hal_uart.c:2235:15
	ldr	r0, [r0, #48]
	.loc	7 2235 23                       @ ../ThirdParty/STM32F4xx_HAL_Driver/Src/stm32f4xx_hal_uart.c:2235:23
	ldr	r0, [r0, #80]
.Ltmp404:
	.loc	7 2235 8                        @ ../ThirdParty/STM32F4xx_HAL_Driver/Src/stm32f4xx_hal_uart.c:2235:8
	cbz	r0, .LBB30_3
	b	.LBB30_2
.LBB30_2:
.Ltmp405:
	.loc	7 2237 7 is_stmt 1              @ ../ThirdParty/STM32F4xx_HAL_Driver/Src/stm32f4xx_hal_uart.c:2237:7
	b	.LBB30_5
.Ltmp406:
.LBB30_3:
	.loc	7 2239 3                        @ ../ThirdParty/STM32F4xx_HAL_Driver/Src/stm32f4xx_hal_uart.c:2239:3
	b	.LBB30_4
.Ltmp407:
.LBB30_4:
	.loc	7 2242 3                        @ ../ThirdParty/STM32F4xx_HAL_Driver/Src/stm32f4xx_hal_uart.c:2242:3
	ldr	r1, [sp]
	movs	r0, #0
	.loc	7 2242 22 is_stmt 0             @ ../ThirdParty/STM32F4xx_HAL_Driver/Src/stm32f4xx_hal_uart.c:2242:22
	strh	r0, [r1, #38]
	.loc	7 2243 3 is_stmt 1              @ ../ThirdParty/STM32F4xx_HAL_Driver/Src/stm32f4xx_hal_uart.c:2243:3
	ldr	r1, [sp]
	.loc	7 2243 22 is_stmt 0             @ ../ThirdParty/STM32F4xx_HAL_Driver/Src/stm32f4xx_hal_uart.c:2243:22
	strh	r0, [r1, #46]
	.loc	7 2246 3 is_stmt 1              @ ../ThirdParty/STM32F4xx_HAL_Driver/Src/stm32f4xx_hal_uart.c:2246:3
	ldr	r1, [sp]
	.loc	7 2246 20 is_stmt 0             @ ../ThirdParty/STM32F4xx_HAL_Driver/Src/stm32f4xx_hal_uart.c:2246:20
	str	r0, [r1, #60]
	.loc	7 2249 3 is_stmt 1              @ ../ThirdParty/STM32F4xx_HAL_Driver/Src/stm32f4xx_hal_uart.c:2249:3
	ldr	r1, [sp]
	movs	r0, #32
	.loc	7 2249 18 is_stmt 0             @ ../ThirdParty/STM32F4xx_HAL_Driver/Src/stm32f4xx_hal_uart.c:2249:18
	strb.w	r0, [r1, #57]
	.loc	7 2250 3 is_stmt 1              @ ../ThirdParty/STM32F4xx_HAL_Driver/Src/stm32f4xx_hal_uart.c:2250:3
	ldr	r1, [sp]
	.loc	7 2250 18 is_stmt 0             @ ../ThirdParty/STM32F4xx_HAL_Driver/Src/stm32f4xx_hal_uart.c:2250:18
	strb.w	r0, [r1, #58]
	.loc	7 2253 30 is_stmt 1             @ ../ThirdParty/STM32F4xx_HAL_Driver/Src/stm32f4xx_hal_uart.c:2253:30
	ldr	r0, [sp]
	.loc	7 2253 3 is_stmt 0              @ ../ThirdParty/STM32F4xx_HAL_Driver/Src/stm32f4xx_hal_uart.c:2253:3
	bl	HAL_UART_AbortCpltCallback
	.loc	7 2254 1 is_stmt 1              @ ../ThirdParty/STM32F4xx_HAL_Driver/Src/stm32f4xx_hal_uart.c:2254:1
	b	.LBB30_5
.LBB30_5:
	.loc	7 2254 1 epilogue_begin is_stmt 0 @ ../ThirdParty/STM32F4xx_HAL_Driver/Src/stm32f4xx_hal_uart.c:2254:1
	add	sp, #8
	pop	{r7, pc}
.Ltmp408:
.Lfunc_end30:
	.size	UART_DMARxAbortCallback, .Lfunc_end30-UART_DMARxAbortCallback
	.cfi_endproc
	.cantunwind
	.fnend
                                        @ -- End function
	.section	.text.HAL_UART_AbortCpltCallback,"ax",%progbits
	.hidden	HAL_UART_AbortCpltCallback      @ -- Begin function HAL_UART_AbortCpltCallback
	.weak	HAL_UART_AbortCpltCallback
	.p2align	2
	.type	HAL_UART_AbortCpltCallback,%function
	.code	16                              @ @HAL_UART_AbortCpltCallback
	.thumb_func
HAL_UART_AbortCpltCallback:
.Lfunc_begin31:
	.loc	7 1725 0 is_stmt 1              @ ../ThirdParty/STM32F4xx_HAL_Driver/Src/stm32f4xx_hal_uart.c:1725:0
	.fnstart
	.cfi_startproc
@ %bb.0:
	.pad	#4
	sub	sp, #4
	.cfi_def_cfa_offset 4
	str	r0, [sp]
.Ltmp409:
	.loc	7 1732 1 prologue_end epilogue_begin @ ../ThirdParty/STM32F4xx_HAL_Driver/Src/stm32f4xx_hal_uart.c:1732:1
	add	sp, #4
	bx	lr
.Ltmp410:
.Lfunc_end31:
	.size	HAL_UART_AbortCpltCallback, .Lfunc_end31-HAL_UART_AbortCpltCallback
	.cfi_endproc
	.cantunwind
	.fnend
                                        @ -- End function
	.section	.text.HAL_UART_AbortTransmit_IT,"ax",%progbits
	.hidden	HAL_UART_AbortTransmit_IT       @ -- Begin function HAL_UART_AbortTransmit_IT
	.globl	HAL_UART_AbortTransmit_IT
	.p2align	2
	.type	HAL_UART_AbortTransmit_IT,%function
	.code	16                              @ @HAL_UART_AbortTransmit_IT
	.thumb_func
HAL_UART_AbortTransmit_IT:
.Lfunc_begin32:
	.loc	7 1401 0                        @ ../ThirdParty/STM32F4xx_HAL_Driver/Src/stm32f4xx_hal_uart.c:1401:0
	.fnstart
	.cfi_startproc
@ %bb.0:
	.save	{r7, lr}
	push	{r7, lr}
	.cfi_def_cfa_offset 8
	.cfi_offset lr, -4
	.cfi_offset r7, -8
	.pad	#8
	sub	sp, #8
	.cfi_def_cfa_offset 16
	str	r0, [sp, #4]
.Ltmp411:
	.loc	7 1403 3 prologue_end           @ ../ThirdParty/STM32F4xx_HAL_Driver/Src/stm32f4xx_hal_uart.c:1403:3
	ldr	r0, [sp, #4]
	ldr	r1, [r0]
	ldr	r0, [r1, #12]
	bic	r0, r0, #192
	str	r0, [r1, #12]
.Ltmp412:
	.loc	7 1406 6                        @ ../ThirdParty/STM32F4xx_HAL_Driver/Src/stm32f4xx_hal_uart.c:1406:6
	ldr	r0, [sp, #4]
	ldr	r0, [r0]
	ldr	r0, [r0, #20]
.Ltmp413:
	.loc	7 1406 6 is_stmt 0              @ ../ThirdParty/STM32F4xx_HAL_Driver/Src/stm32f4xx_hal_uart.c:1406:6
	lsls	r0, r0, #24
	cmp	r0, #0
	bpl	.LBB32_7
	b	.LBB32_1
.LBB32_1:
.Ltmp414:
	.loc	7 1408 5 is_stmt 1              @ ../ThirdParty/STM32F4xx_HAL_Driver/Src/stm32f4xx_hal_uart.c:1408:5
	ldr	r0, [sp, #4]
	ldr	r1, [r0]
	ldr	r0, [r1, #20]
	bic	r0, r0, #128
	str	r0, [r1, #20]
.Ltmp415:
	.loc	7 1411 8                        @ ../ThirdParty/STM32F4xx_HAL_Driver/Src/stm32f4xx_hal_uart.c:1411:8
	ldr	r0, [sp, #4]
	.loc	7 1411 15 is_stmt 0             @ ../ThirdParty/STM32F4xx_HAL_Driver/Src/stm32f4xx_hal_uart.c:1411:15
	ldr	r0, [r0, #48]
.Ltmp416:
	.loc	7 1411 8                        @ ../ThirdParty/STM32F4xx_HAL_Driver/Src/stm32f4xx_hal_uart.c:1411:8
	cbz	r0, .LBB32_5
	b	.LBB32_2
.LBB32_2:
.Ltmp417:
	.loc	7 1415 7 is_stmt 1              @ ../ThirdParty/STM32F4xx_HAL_Driver/Src/stm32f4xx_hal_uart.c:1415:7
	ldr	r0, [sp, #4]
	.loc	7 1415 14 is_stmt 0             @ ../ThirdParty/STM32F4xx_HAL_Driver/Src/stm32f4xx_hal_uart.c:1415:14
	ldr	r1, [r0, #48]
	.loc	7 1415 40                       @ ../ThirdParty/STM32F4xx_HAL_Driver/Src/stm32f4xx_hal_uart.c:1415:40
	movw	r0, :lower16:UART_DMATxOnlyAbortCallback
	movt	r0, :upper16:UART_DMATxOnlyAbortCallback
	str	r0, [r1, #80]
.Ltmp418:
	.loc	7 1418 27 is_stmt 1             @ ../ThirdParty/STM32F4xx_HAL_Driver/Src/stm32f4xx_hal_uart.c:1418:27
	ldr	r0, [sp, #4]
	.loc	7 1418 34 is_stmt 0             @ ../ThirdParty/STM32F4xx_HAL_Driver/Src/stm32f4xx_hal_uart.c:1418:34
	ldr	r0, [r0, #48]
	.loc	7 1418 10                       @ ../ThirdParty/STM32F4xx_HAL_Driver/Src/stm32f4xx_hal_uart.c:1418:10
	bl	HAL_DMA_Abort_IT
.Ltmp419:
	.loc	7 1418 10                       @ ../ThirdParty/STM32F4xx_HAL_Driver/Src/stm32f4xx_hal_uart.c:1418:10
	cbz	r0, .LBB32_4
	b	.LBB32_3
.LBB32_3:
.Ltmp420:
	.loc	7 1421 9 is_stmt 1              @ ../ThirdParty/STM32F4xx_HAL_Driver/Src/stm32f4xx_hal_uart.c:1421:9
	ldr	r0, [sp, #4]
	.loc	7 1421 16 is_stmt 0             @ ../ThirdParty/STM32F4xx_HAL_Driver/Src/stm32f4xx_hal_uart.c:1421:16
	ldr	r0, [r0, #48]
	.loc	7 1421 24                       @ ../ThirdParty/STM32F4xx_HAL_Driver/Src/stm32f4xx_hal_uart.c:1421:24
	ldr	r1, [r0, #80]
	.loc	7 1421 9                        @ ../ThirdParty/STM32F4xx_HAL_Driver/Src/stm32f4xx_hal_uart.c:1421:9
	blx	r1
	.loc	7 1422 7 is_stmt 1              @ ../ThirdParty/STM32F4xx_HAL_Driver/Src/stm32f4xx_hal_uart.c:1422:7
	b	.LBB32_4
.Ltmp421:
.LBB32_4:
	.loc	7 1423 5                        @ ../ThirdParty/STM32F4xx_HAL_Driver/Src/stm32f4xx_hal_uart.c:1423:5
	b	.LBB32_6
.Ltmp422:
.LBB32_5:
	.loc	7 1427 7                        @ ../ThirdParty/STM32F4xx_HAL_Driver/Src/stm32f4xx_hal_uart.c:1427:7
	ldr	r1, [sp, #4]
	movs	r0, #0
	.loc	7 1427 26 is_stmt 0             @ ../ThirdParty/STM32F4xx_HAL_Driver/Src/stm32f4xx_hal_uart.c:1427:26
	strh	r0, [r1, #38]
	.loc	7 1430 7 is_stmt 1              @ ../ThirdParty/STM32F4xx_HAL_Driver/Src/stm32f4xx_hal_uart.c:1430:7
	ldr	r1, [sp, #4]
	movs	r0, #32
	.loc	7 1430 21 is_stmt 0             @ ../ThirdParty/STM32F4xx_HAL_Driver/Src/stm32f4xx_hal_uart.c:1430:21
	strb.w	r0, [r1, #57]
	.loc	7 1433 42 is_stmt 1             @ ../ThirdParty/STM32F4xx_HAL_Driver/Src/stm32f4xx_hal_uart.c:1433:42
	ldr	r0, [sp, #4]
	.loc	7 1433 7 is_stmt 0              @ ../ThirdParty/STM32F4xx_HAL_Driver/Src/stm32f4xx_hal_uart.c:1433:7
	bl	HAL_UART_AbortTransmitCpltCallback
	b	.LBB32_6
.Ltmp423:
.LBB32_6:
	.loc	7 1435 3 is_stmt 1              @ ../ThirdParty/STM32F4xx_HAL_Driver/Src/stm32f4xx_hal_uart.c:1435:3
	b	.LBB32_8
.Ltmp424:
.LBB32_7:
	.loc	7 1439 5                        @ ../ThirdParty/STM32F4xx_HAL_Driver/Src/stm32f4xx_hal_uart.c:1439:5
	ldr	r1, [sp, #4]
	movs	r0, #0
	.loc	7 1439 24 is_stmt 0             @ ../ThirdParty/STM32F4xx_HAL_Driver/Src/stm32f4xx_hal_uart.c:1439:24
	strh	r0, [r1, #38]
	.loc	7 1442 5 is_stmt 1              @ ../ThirdParty/STM32F4xx_HAL_Driver/Src/stm32f4xx_hal_uart.c:1442:5
	ldr	r1, [sp, #4]
	movs	r0, #32
	.loc	7 1442 19 is_stmt 0             @ ../ThirdParty/STM32F4xx_HAL_Driver/Src/stm32f4xx_hal_uart.c:1442:19
	strb.w	r0, [r1, #57]
	.loc	7 1445 40 is_stmt 1             @ ../ThirdParty/STM32F4xx_HAL_Driver/Src/stm32f4xx_hal_uart.c:1445:40
	ldr	r0, [sp, #4]
	.loc	7 1445 5 is_stmt 0              @ ../ThirdParty/STM32F4xx_HAL_Driver/Src/stm32f4xx_hal_uart.c:1445:5
	bl	HAL_UART_AbortTransmitCpltCallback
	b	.LBB32_8
.Ltmp425:
.LBB32_8:
	.loc	7 0 5                           @ ../ThirdParty/STM32F4xx_HAL_Driver/Src/stm32f4xx_hal_uart.c:0:5
	movs	r0, #0
	.loc	7 1448 3 epilogue_begin is_stmt 1 @ ../ThirdParty/STM32F4xx_HAL_Driver/Src/stm32f4xx_hal_uart.c:1448:3
	add	sp, #8
	pop	{r7, pc}
.Ltmp426:
.Lfunc_end32:
	.size	HAL_UART_AbortTransmit_IT, .Lfunc_end32-HAL_UART_AbortTransmit_IT
	.cfi_endproc
	.cantunwind
	.fnend
                                        @ -- End function
	.section	.text.UART_DMATxOnlyAbortCallback,"ax",%progbits
	.p2align	2                               @ -- Begin function UART_DMATxOnlyAbortCallback
	.type	UART_DMATxOnlyAbortCallback,%function
	.code	16                              @ @UART_DMATxOnlyAbortCallback
	.thumb_func
UART_DMATxOnlyAbortCallback:
.Lfunc_begin33:
	.loc	7 2265 0                        @ ../ThirdParty/STM32F4xx_HAL_Driver/Src/stm32f4xx_hal_uart.c:2265:0
	.fnstart
	.cfi_startproc
@ %bb.0:
	.save	{r7, lr}
	push	{r7, lr}
	.cfi_def_cfa_offset 8
	.cfi_offset lr, -4
	.cfi_offset r7, -8
	.pad	#8
	sub	sp, #8
	.cfi_def_cfa_offset 16
	str	r0, [sp, #4]
.Ltmp427:
	.loc	7 2266 76 prologue_end          @ ../ThirdParty/STM32F4xx_HAL_Driver/Src/stm32f4xx_hal_uart.c:2266:76
	ldr	r0, [sp, #4]
	.loc	7 2266 83 is_stmt 0             @ ../ThirdParty/STM32F4xx_HAL_Driver/Src/stm32f4xx_hal_uart.c:2266:83
	ldr	r0, [r0, #56]
	.loc	7 2266 23                       @ ../ThirdParty/STM32F4xx_HAL_Driver/Src/stm32f4xx_hal_uart.c:2266:23
	str	r0, [sp]
	.loc	7 2268 3 is_stmt 1              @ ../ThirdParty/STM32F4xx_HAL_Driver/Src/stm32f4xx_hal_uart.c:2268:3
	ldr	r1, [sp]
	movs	r0, #0
	.loc	7 2268 22 is_stmt 0             @ ../ThirdParty/STM32F4xx_HAL_Driver/Src/stm32f4xx_hal_uart.c:2268:22
	strh	r0, [r1, #38]
	.loc	7 2271 3 is_stmt 1              @ ../ThirdParty/STM32F4xx_HAL_Driver/Src/stm32f4xx_hal_uart.c:2271:3
	ldr	r1, [sp]
	movs	r0, #32
	.loc	7 2271 17 is_stmt 0             @ ../ThirdParty/STM32F4xx_HAL_Driver/Src/stm32f4xx_hal_uart.c:2271:17
	strb.w	r0, [r1, #57]
	.loc	7 2274 38 is_stmt 1             @ ../ThirdParty/STM32F4xx_HAL_Driver/Src/stm32f4xx_hal_uart.c:2274:38
	ldr	r0, [sp]
	.loc	7 2274 3 is_stmt 0              @ ../ThirdParty/STM32F4xx_HAL_Driver/Src/stm32f4xx_hal_uart.c:2274:3
	bl	HAL_UART_AbortTransmitCpltCallback
	.loc	7 2275 1 epilogue_begin is_stmt 1 @ ../ThirdParty/STM32F4xx_HAL_Driver/Src/stm32f4xx_hal_uart.c:2275:1
	add	sp, #8
	pop	{r7, pc}
.Ltmp428:
.Lfunc_end33:
	.size	UART_DMATxOnlyAbortCallback, .Lfunc_end33-UART_DMATxOnlyAbortCallback
	.cfi_endproc
	.cantunwind
	.fnend
                                        @ -- End function
	.section	.text.HAL_UART_AbortTransmitCpltCallback,"ax",%progbits
	.hidden	HAL_UART_AbortTransmitCpltCallback @ -- Begin function HAL_UART_AbortTransmitCpltCallback
	.weak	HAL_UART_AbortTransmitCpltCallback
	.p2align	2
	.type	HAL_UART_AbortTransmitCpltCallback,%function
	.code	16                              @ @HAL_UART_AbortTransmitCpltCallback
	.thumb_func
HAL_UART_AbortTransmitCpltCallback:
.Lfunc_begin34:
	.loc	7 1739 0                        @ ../ThirdParty/STM32F4xx_HAL_Driver/Src/stm32f4xx_hal_uart.c:1739:0
	.fnstart
	.cfi_startproc
@ %bb.0:
	.pad	#4
	sub	sp, #4
	.cfi_def_cfa_offset 4
	str	r0, [sp]
.Ltmp429:
	.loc	7 1746 1 prologue_end epilogue_begin @ ../ThirdParty/STM32F4xx_HAL_Driver/Src/stm32f4xx_hal_uart.c:1746:1
	add	sp, #4
	bx	lr
.Ltmp430:
.Lfunc_end34:
	.size	HAL_UART_AbortTransmitCpltCallback, .Lfunc_end34-HAL_UART_AbortTransmitCpltCallback
	.cfi_endproc
	.cantunwind
	.fnend
                                        @ -- End function
	.section	.text.HAL_UART_AbortReceive_IT,"ax",%progbits
	.hidden	HAL_UART_AbortReceive_IT        @ -- Begin function HAL_UART_AbortReceive_IT
	.globl	HAL_UART_AbortReceive_IT
	.p2align	2
	.type	HAL_UART_AbortReceive_IT,%function
	.code	16                              @ @HAL_UART_AbortReceive_IT
	.thumb_func
HAL_UART_AbortReceive_IT:
.Lfunc_begin35:
	.loc	7 1466 0                        @ ../ThirdParty/STM32F4xx_HAL_Driver/Src/stm32f4xx_hal_uart.c:1466:0
	.fnstart
	.cfi_startproc
@ %bb.0:
	.save	{r7, lr}
	push	{r7, lr}
	.cfi_def_cfa_offset 8
	.cfi_offset lr, -4
	.cfi_offset r7, -8
	.pad	#8
	sub	sp, #8
	.cfi_def_cfa_offset 16
	str	r0, [sp, #4]
.Ltmp431:
	.loc	7 1468 3 prologue_end           @ ../ThirdParty/STM32F4xx_HAL_Driver/Src/stm32f4xx_hal_uart.c:1468:3
	ldr	r0, [sp, #4]
	ldr	r1, [r0]
	ldr	r0, [r1, #12]
	bic	r0, r0, #288
	str	r0, [r1, #12]
	.loc	7 1469 3                        @ ../ThirdParty/STM32F4xx_HAL_Driver/Src/stm32f4xx_hal_uart.c:1469:3
	ldr	r0, [sp, #4]
	ldr	r1, [r0]
	ldr	r0, [r1, #20]
	bic	r0, r0, #1
	str	r0, [r1, #20]
.Ltmp432:
	.loc	7 1472 6                        @ ../ThirdParty/STM32F4xx_HAL_Driver/Src/stm32f4xx_hal_uart.c:1472:6
	ldr	r0, [sp, #4]
	ldr	r0, [r0]
	ldr	r0, [r0, #20]
.Ltmp433:
	.loc	7 1472 6 is_stmt 0              @ ../ThirdParty/STM32F4xx_HAL_Driver/Src/stm32f4xx_hal_uart.c:1472:6
	lsls	r0, r0, #25
	cmp	r0, #0
	bpl	.LBB35_7
	b	.LBB35_1
.LBB35_1:
.Ltmp434:
	.loc	7 1474 5 is_stmt 1              @ ../ThirdParty/STM32F4xx_HAL_Driver/Src/stm32f4xx_hal_uart.c:1474:5
	ldr	r0, [sp, #4]
	ldr	r1, [r0]
	ldr	r0, [r1, #20]
	bic	r0, r0, #64
	str	r0, [r1, #20]
.Ltmp435:
	.loc	7 1477 8                        @ ../ThirdParty/STM32F4xx_HAL_Driver/Src/stm32f4xx_hal_uart.c:1477:8
	ldr	r0, [sp, #4]
	.loc	7 1477 15 is_stmt 0             @ ../ThirdParty/STM32F4xx_HAL_Driver/Src/stm32f4xx_hal_uart.c:1477:15
	ldr	r0, [r0, #52]
.Ltmp436:
	.loc	7 1477 8                        @ ../ThirdParty/STM32F4xx_HAL_Driver/Src/stm32f4xx_hal_uart.c:1477:8
	cbz	r0, .LBB35_5
	b	.LBB35_2
.LBB35_2:
.Ltmp437:
	.loc	7 1481 7 is_stmt 1              @ ../ThirdParty/STM32F4xx_HAL_Driver/Src/stm32f4xx_hal_uart.c:1481:7
	ldr	r0, [sp, #4]
	.loc	7 1481 14 is_stmt 0             @ ../ThirdParty/STM32F4xx_HAL_Driver/Src/stm32f4xx_hal_uart.c:1481:14
	ldr	r1, [r0, #52]
	.loc	7 1481 40                       @ ../ThirdParty/STM32F4xx_HAL_Driver/Src/stm32f4xx_hal_uart.c:1481:40
	movw	r0, :lower16:UART_DMARxOnlyAbortCallback
	movt	r0, :upper16:UART_DMARxOnlyAbortCallback
	str	r0, [r1, #80]
.Ltmp438:
	.loc	7 1484 27 is_stmt 1             @ ../ThirdParty/STM32F4xx_HAL_Driver/Src/stm32f4xx_hal_uart.c:1484:27
	ldr	r0, [sp, #4]
	.loc	7 1484 34 is_stmt 0             @ ../ThirdParty/STM32F4xx_HAL_Driver/Src/stm32f4xx_hal_uart.c:1484:34
	ldr	r0, [r0, #52]
	.loc	7 1484 10                       @ ../ThirdParty/STM32F4xx_HAL_Driver/Src/stm32f4xx_hal_uart.c:1484:10
	bl	HAL_DMA_Abort_IT
.Ltmp439:
	.loc	7 1484 10                       @ ../ThirdParty/STM32F4xx_HAL_Driver/Src/stm32f4xx_hal_uart.c:1484:10
	cbz	r0, .LBB35_4
	b	.LBB35_3
.LBB35_3:
.Ltmp440:
	.loc	7 1487 9 is_stmt 1              @ ../ThirdParty/STM32F4xx_HAL_Driver/Src/stm32f4xx_hal_uart.c:1487:9
	ldr	r0, [sp, #4]
	.loc	7 1487 16 is_stmt 0             @ ../ThirdParty/STM32F4xx_HAL_Driver/Src/stm32f4xx_hal_uart.c:1487:16
	ldr	r0, [r0, #52]
	.loc	7 1487 24                       @ ../ThirdParty/STM32F4xx_HAL_Driver/Src/stm32f4xx_hal_uart.c:1487:24
	ldr	r1, [r0, #80]
	.loc	7 1487 9                        @ ../ThirdParty/STM32F4xx_HAL_Driver/Src/stm32f4xx_hal_uart.c:1487:9
	blx	r1
	.loc	7 1488 7 is_stmt 1              @ ../ThirdParty/STM32F4xx_HAL_Driver/Src/stm32f4xx_hal_uart.c:1488:7
	b	.LBB35_4
.Ltmp441:
.LBB35_4:
	.loc	7 1489 5                        @ ../ThirdParty/STM32F4xx_HAL_Driver/Src/stm32f4xx_hal_uart.c:1489:5
	b	.LBB35_6
.Ltmp442:
.LBB35_5:
	.loc	7 1493 7                        @ ../ThirdParty/STM32F4xx_HAL_Driver/Src/stm32f4xx_hal_uart.c:1493:7
	ldr	r1, [sp, #4]
	movs	r0, #0
	.loc	7 1493 26 is_stmt 0             @ ../ThirdParty/STM32F4xx_HAL_Driver/Src/stm32f4xx_hal_uart.c:1493:26
	strh	r0, [r1, #46]
	.loc	7 1496 7 is_stmt 1              @ ../ThirdParty/STM32F4xx_HAL_Driver/Src/stm32f4xx_hal_uart.c:1496:7
	ldr	r1, [sp, #4]
	movs	r0, #32
	.loc	7 1496 22 is_stmt 0             @ ../ThirdParty/STM32F4xx_HAL_Driver/Src/stm32f4xx_hal_uart.c:1496:22
	strb.w	r0, [r1, #58]
	.loc	7 1499 41 is_stmt 1             @ ../ThirdParty/STM32F4xx_HAL_Driver/Src/stm32f4xx_hal_uart.c:1499:41
	ldr	r0, [sp, #4]
	.loc	7 1499 7 is_stmt 0              @ ../ThirdParty/STM32F4xx_HAL_Driver/Src/stm32f4xx_hal_uart.c:1499:7
	bl	HAL_UART_AbortReceiveCpltCallback
	b	.LBB35_6
.Ltmp443:
.LBB35_6:
	.loc	7 1501 3 is_stmt 1              @ ../ThirdParty/STM32F4xx_HAL_Driver/Src/stm32f4xx_hal_uart.c:1501:3
	b	.LBB35_8
.Ltmp444:
.LBB35_7:
	.loc	7 1505 5                        @ ../ThirdParty/STM32F4xx_HAL_Driver/Src/stm32f4xx_hal_uart.c:1505:5
	ldr	r1, [sp, #4]
	movs	r0, #0
	.loc	7 1505 24 is_stmt 0             @ ../ThirdParty/STM32F4xx_HAL_Driver/Src/stm32f4xx_hal_uart.c:1505:24
	strh	r0, [r1, #46]
	.loc	7 1508 5 is_stmt 1              @ ../ThirdParty/STM32F4xx_HAL_Driver/Src/stm32f4xx_hal_uart.c:1508:5
	ldr	r1, [sp, #4]
	movs	r0, #32
	.loc	7 1508 20 is_stmt 0             @ ../ThirdParty/STM32F4xx_HAL_Driver/Src/stm32f4xx_hal_uart.c:1508:20
	strb.w	r0, [r1, #58]
	.loc	7 1511 39 is_stmt 1             @ ../ThirdParty/STM32F4xx_HAL_Driver/Src/stm32f4xx_hal_uart.c:1511:39
	ldr	r0, [sp, #4]
	.loc	7 1511 5 is_stmt 0              @ ../ThirdParty/STM32F4xx_HAL_Driver/Src/stm32f4xx_hal_uart.c:1511:5
	bl	HAL_UART_AbortReceiveCpltCallback
	b	.LBB35_8
.Ltmp445:
.LBB35_8:
	.loc	7 0 5                           @ ../ThirdParty/STM32F4xx_HAL_Driver/Src/stm32f4xx_hal_uart.c:0:5
	movs	r0, #0
	.loc	7 1514 3 epilogue_begin is_stmt 1 @ ../ThirdParty/STM32F4xx_HAL_Driver/Src/stm32f4xx_hal_uart.c:1514:3
	add	sp, #8
	pop	{r7, pc}
.Ltmp446:
.Lfunc_end35:
	.size	HAL_UART_AbortReceive_IT, .Lfunc_end35-HAL_UART_AbortReceive_IT
	.cfi_endproc
	.cantunwind
	.fnend
                                        @ -- End function
	.section	.text.UART_DMARxOnlyAbortCallback,"ax",%progbits
	.p2align	2                               @ -- Begin function UART_DMARxOnlyAbortCallback
	.type	UART_DMARxOnlyAbortCallback,%function
	.code	16                              @ @UART_DMARxOnlyAbortCallback
	.thumb_func
UART_DMARxOnlyAbortCallback:
.Lfunc_begin36:
	.loc	7 2286 0                        @ ../ThirdParty/STM32F4xx_HAL_Driver/Src/stm32f4xx_hal_uart.c:2286:0
	.fnstart
	.cfi_startproc
@ %bb.0:
	.save	{r7, lr}
	push	{r7, lr}
	.cfi_def_cfa_offset 8
	.cfi_offset lr, -4
	.cfi_offset r7, -8
	.pad	#8
	sub	sp, #8
	.cfi_def_cfa_offset 16
	str	r0, [sp, #4]
.Ltmp447:
	.loc	7 2287 76 prologue_end          @ ../ThirdParty/STM32F4xx_HAL_Driver/Src/stm32f4xx_hal_uart.c:2287:76
	ldr	r0, [sp, #4]
	.loc	7 2287 83 is_stmt 0             @ ../ThirdParty/STM32F4xx_HAL_Driver/Src/stm32f4xx_hal_uart.c:2287:83
	ldr	r0, [r0, #56]
	.loc	7 2287 23                       @ ../ThirdParty/STM32F4xx_HAL_Driver/Src/stm32f4xx_hal_uart.c:2287:23
	str	r0, [sp]
	.loc	7 2289 3 is_stmt 1              @ ../ThirdParty/STM32F4xx_HAL_Driver/Src/stm32f4xx_hal_uart.c:2289:3
	ldr	r1, [sp]
	movs	r0, #0
	.loc	7 2289 22 is_stmt 0             @ ../ThirdParty/STM32F4xx_HAL_Driver/Src/stm32f4xx_hal_uart.c:2289:22
	strh	r0, [r1, #46]
	.loc	7 2292 3 is_stmt 1              @ ../ThirdParty/STM32F4xx_HAL_Driver/Src/stm32f4xx_hal_uart.c:2292:3
	ldr	r1, [sp]
	movs	r0, #32
	.loc	7 2292 18 is_stmt 0             @ ../ThirdParty/STM32F4xx_HAL_Driver/Src/stm32f4xx_hal_uart.c:2292:18
	strb.w	r0, [r1, #58]
	.loc	7 2295 37 is_stmt 1             @ ../ThirdParty/STM32F4xx_HAL_Driver/Src/stm32f4xx_hal_uart.c:2295:37
	ldr	r0, [sp]
	.loc	7 2295 3 is_stmt 0              @ ../ThirdParty/STM32F4xx_HAL_Driver/Src/stm32f4xx_hal_uart.c:2295:3
	bl	HAL_UART_AbortReceiveCpltCallback
	.loc	7 2296 1 epilogue_begin is_stmt 1 @ ../ThirdParty/STM32F4xx_HAL_Driver/Src/stm32f4xx_hal_uart.c:2296:1
	add	sp, #8
	pop	{r7, pc}
.Ltmp448:
.Lfunc_end36:
	.size	UART_DMARxOnlyAbortCallback, .Lfunc_end36-UART_DMARxOnlyAbortCallback
	.cfi_endproc
	.cantunwind
	.fnend
                                        @ -- End function
	.section	.text.HAL_UART_AbortReceiveCpltCallback,"ax",%progbits
	.hidden	HAL_UART_AbortReceiveCpltCallback @ -- Begin function HAL_UART_AbortReceiveCpltCallback
	.weak	HAL_UART_AbortReceiveCpltCallback
	.p2align	2
	.type	HAL_UART_AbortReceiveCpltCallback,%function
	.code	16                              @ @HAL_UART_AbortReceiveCpltCallback
	.thumb_func
HAL_UART_AbortReceiveCpltCallback:
.Lfunc_begin37:
	.loc	7 1754 0                        @ ../ThirdParty/STM32F4xx_HAL_Driver/Src/stm32f4xx_hal_uart.c:1754:0
	.fnstart
	.cfi_startproc
@ %bb.0:
	.pad	#4
	sub	sp, #4
	.cfi_def_cfa_offset 4
	str	r0, [sp]
.Ltmp449:
	.loc	7 1761 1 prologue_end epilogue_begin @ ../ThirdParty/STM32F4xx_HAL_Driver/Src/stm32f4xx_hal_uart.c:1761:1
	add	sp, #4
	bx	lr
.Ltmp450:
.Lfunc_end37:
	.size	HAL_UART_AbortReceiveCpltCallback, .Lfunc_end37-HAL_UART_AbortReceiveCpltCallback
	.cfi_endproc
	.cantunwind
	.fnend
                                        @ -- End function
	.section	.text.HAL_UART_IRQHandler,"ax",%progbits
	.hidden	HAL_UART_IRQHandler             @ -- Begin function HAL_UART_IRQHandler
	.globl	HAL_UART_IRQHandler
	.p2align	2
	.type	HAL_UART_IRQHandler,%function
	.code	16                              @ @HAL_UART_IRQHandler
	.thumb_func
HAL_UART_IRQHandler:
.Lfunc_begin38:
	.loc	7 1524 0                        @ ../ThirdParty/STM32F4xx_HAL_Driver/Src/stm32f4xx_hal_uart.c:1524:0
	.fnstart
	.cfi_startproc
@ %bb.0:
	.save	{r7, lr}
	push	{r7, lr}
	.cfi_def_cfa_offset 8
	.cfi_offset lr, -4
	.cfi_offset r7, -8
	.pad	#24
	sub	sp, #24
	.cfi_def_cfa_offset 32
	str	r0, [sp, #20]
.Ltmp451:
	.loc	7 1525 26 prologue_end          @ ../ThirdParty/STM32F4xx_HAL_Driver/Src/stm32f4xx_hal_uart.c:1525:26
	ldr	r0, [sp, #20]
	ldr	r0, [r0]
	ldr	r0, [r0]
	.loc	7 1525 13 is_stmt 0             @ ../ThirdParty/STM32F4xx_HAL_Driver/Src/stm32f4xx_hal_uart.c:1525:13
	str	r0, [sp, #16]
	.loc	7 1526 26 is_stmt 1             @ ../ThirdParty/STM32F4xx_HAL_Driver/Src/stm32f4xx_hal_uart.c:1526:26
	ldr	r0, [sp, #20]
	ldr	r0, [r0]
	ldr	r0, [r0, #12]
	.loc	7 1526 13 is_stmt 0             @ ../ThirdParty/STM32F4xx_HAL_Driver/Src/stm32f4xx_hal_uart.c:1526:13
	str	r0, [sp, #12]
	.loc	7 1527 26 is_stmt 1             @ ../ThirdParty/STM32F4xx_HAL_Driver/Src/stm32f4xx_hal_uart.c:1527:26
	ldr	r0, [sp, #20]
	ldr	r0, [r0]
	ldr	r0, [r0, #20]
	.loc	7 1527 13 is_stmt 0             @ ../ThirdParty/STM32F4xx_HAL_Driver/Src/stm32f4xx_hal_uart.c:1527:13
	str	r0, [sp, #8]
	movs	r0, #0
	.loc	7 1528 13 is_stmt 1             @ ../ThirdParty/STM32F4xx_HAL_Driver/Src/stm32f4xx_hal_uart.c:1528:13
	str	r0, [sp, #4]
	.loc	7 1529 13                       @ ../ThirdParty/STM32F4xx_HAL_Driver/Src/stm32f4xx_hal_uart.c:1529:13
	str	r0, [sp]
	.loc	7 1532 17                       @ ../ThirdParty/STM32F4xx_HAL_Driver/Src/stm32f4xx_hal_uart.c:1532:17
	ldr	r0, [sp, #16]
	.loc	7 1532 26 is_stmt 0             @ ../ThirdParty/STM32F4xx_HAL_Driver/Src/stm32f4xx_hal_uart.c:1532:26
	and	r0, r0, #15
	.loc	7 1532 14                       @ ../ThirdParty/STM32F4xx_HAL_Driver/Src/stm32f4xx_hal_uart.c:1532:14
	str	r0, [sp, #4]
.Ltmp452:
	.loc	7 1533 6 is_stmt 1              @ ../ThirdParty/STM32F4xx_HAL_Driver/Src/stm32f4xx_hal_uart.c:1533:6
	ldr	r0, [sp, #4]
.Ltmp453:
	.loc	7 1533 6 is_stmt 0              @ ../ThirdParty/STM32F4xx_HAL_Driver/Src/stm32f4xx_hal_uart.c:1533:6
	cbnz	r0, .LBB38_5
	b	.LBB38_1
.LBB38_1:
.Ltmp454:
	.loc	7 1536 46 is_stmt 1             @ ../ThirdParty/STM32F4xx_HAL_Driver/Src/stm32f4xx_hal_uart.c:1536:46
	ldrb.w	r0, [sp, #16]
	lsls	r0, r0, #26
	cmp	r0, #0
	bpl	.LBB38_4
	b	.LBB38_2
.Ltmp455:
.LBB38_2:
	.loc	7 1536 8 is_stmt 0              @ ../ThirdParty/STM32F4xx_HAL_Driver/Src/stm32f4xx_hal_uart.c:1536:8
	ldrb.w	r0, [sp, #12]
	lsls	r0, r0, #26
	cmp	r0, #0
	bpl	.LBB38_4
	b	.LBB38_3
.LBB38_3:
.Ltmp456:
	.loc	7 1538 23 is_stmt 1             @ ../ThirdParty/STM32F4xx_HAL_Driver/Src/stm32f4xx_hal_uart.c:1538:23
	ldr	r0, [sp, #20]
	.loc	7 1538 7 is_stmt 0              @ ../ThirdParty/STM32F4xx_HAL_Driver/Src/stm32f4xx_hal_uart.c:1538:7
	bl	UART_Receive_IT
	.loc	7 1539 7 is_stmt 1              @ ../ThirdParty/STM32F4xx_HAL_Driver/Src/stm32f4xx_hal_uart.c:1539:7
	b	.LBB38_44
.Ltmp457:
.LBB38_4:
	.loc	7 1541 3                        @ ../ThirdParty/STM32F4xx_HAL_Driver/Src/stm32f4xx_hal_uart.c:1541:3
	b	.LBB38_5
.Ltmp458:
.LBB38_5:
	.loc	7 1544 7                        @ ../ThirdParty/STM32F4xx_HAL_Driver/Src/stm32f4xx_hal_uart.c:1544:7
	ldr	r0, [sp, #4]
	.loc	7 1544 28 is_stmt 0             @ ../ThirdParty/STM32F4xx_HAL_Driver/Src/stm32f4xx_hal_uart.c:1544:28
	cmp	r0, #0
	beq.w	.LBB38_38
	b	.LBB38_6
.LBB38_6:
	.loc	7 1544 68                       @ ../ThirdParty/STM32F4xx_HAL_Driver/Src/stm32f4xx_hal_uart.c:1544:68
	ldrb.w	r0, [sp, #8]
	lsls	r0, r0, #31
	cbnz	r0, .LBB38_8
	b	.LBB38_7
.Ltmp459:
.LBB38_7:
	.loc	7 1544 6                        @ ../ThirdParty/STM32F4xx_HAL_Driver/Src/stm32f4xx_hal_uart.c:1544:6
	ldrh.w	r0, [sp, #12]
	tst.w	r0, #288
	beq.w	.LBB38_38
	b	.LBB38_8
.LBB38_8:
.Ltmp460:
	.loc	7 1547 44 is_stmt 1             @ ../ThirdParty/STM32F4xx_HAL_Driver/Src/stm32f4xx_hal_uart.c:1547:44
	ldrb.w	r0, [sp, #16]
	lsls	r0, r0, #31
	cbz	r0, .LBB38_11
	b	.LBB38_9
.Ltmp461:
.LBB38_9:
	.loc	7 1547 8 is_stmt 0              @ ../ThirdParty/STM32F4xx_HAL_Driver/Src/stm32f4xx_hal_uart.c:1547:8
	ldrb.w	r0, [sp, #13]
	lsls	r0, r0, #31
	cbz	r0, .LBB38_11
	b	.LBB38_10
.LBB38_10:
.Ltmp462:
	.loc	7 1549 7 is_stmt 1              @ ../ThirdParty/STM32F4xx_HAL_Driver/Src/stm32f4xx_hal_uart.c:1549:7
	ldr	r1, [sp, #20]
	.loc	7 1549 24 is_stmt 0             @ ../ThirdParty/STM32F4xx_HAL_Driver/Src/stm32f4xx_hal_uart.c:1549:24
	ldr	r0, [r1, #60]
	orr	r0, r0, #1
	str	r0, [r1, #60]
	.loc	7 1550 5 is_stmt 1              @ ../ThirdParty/STM32F4xx_HAL_Driver/Src/stm32f4xx_hal_uart.c:1550:5
	b	.LBB38_11
.Ltmp463:
.LBB38_11:
	.loc	7 1553 44                       @ ../ThirdParty/STM32F4xx_HAL_Driver/Src/stm32f4xx_hal_uart.c:1553:44
	ldrb.w	r0, [sp, #16]
	lsls	r0, r0, #29
	cmp	r0, #0
	bpl	.LBB38_14
	b	.LBB38_12
.Ltmp464:
.LBB38_12:
	.loc	7 1553 8 is_stmt 0              @ ../ThirdParty/STM32F4xx_HAL_Driver/Src/stm32f4xx_hal_uart.c:1553:8
	ldrb.w	r0, [sp, #8]
	lsls	r0, r0, #31
	cbz	r0, .LBB38_14
	b	.LBB38_13
.LBB38_13:
.Ltmp465:
	.loc	7 1555 7 is_stmt 1              @ ../ThirdParty/STM32F4xx_HAL_Driver/Src/stm32f4xx_hal_uart.c:1555:7
	ldr	r1, [sp, #20]
	.loc	7 1555 24 is_stmt 0             @ ../ThirdParty/STM32F4xx_HAL_Driver/Src/stm32f4xx_hal_uart.c:1555:24
	ldr	r0, [r1, #60]
	orr	r0, r0, #2
	str	r0, [r1, #60]
	.loc	7 1556 5 is_stmt 1              @ ../ThirdParty/STM32F4xx_HAL_Driver/Src/stm32f4xx_hal_uart.c:1556:5
	b	.LBB38_14
.Ltmp466:
.LBB38_14:
	.loc	7 1559 44                       @ ../ThirdParty/STM32F4xx_HAL_Driver/Src/stm32f4xx_hal_uart.c:1559:44
	ldrb.w	r0, [sp, #16]
	lsls	r0, r0, #30
	cmp	r0, #0
	bpl	.LBB38_17
	b	.LBB38_15
.Ltmp467:
.LBB38_15:
	.loc	7 1559 8 is_stmt 0              @ ../ThirdParty/STM32F4xx_HAL_Driver/Src/stm32f4xx_hal_uart.c:1559:8
	ldrb.w	r0, [sp, #8]
	lsls	r0, r0, #31
	cbz	r0, .LBB38_17
	b	.LBB38_16
.LBB38_16:
.Ltmp468:
	.loc	7 1561 7 is_stmt 1              @ ../ThirdParty/STM32F4xx_HAL_Driver/Src/stm32f4xx_hal_uart.c:1561:7
	ldr	r1, [sp, #20]
	.loc	7 1561 24 is_stmt 0             @ ../ThirdParty/STM32F4xx_HAL_Driver/Src/stm32f4xx_hal_uart.c:1561:24
	ldr	r0, [r1, #60]
	orr	r0, r0, #4
	str	r0, [r1, #60]
	.loc	7 1562 5 is_stmt 1              @ ../ThirdParty/STM32F4xx_HAL_Driver/Src/stm32f4xx_hal_uart.c:1562:5
	b	.LBB38_17
.Ltmp469:
.LBB38_17:
	.loc	7 1565 45                       @ ../ThirdParty/STM32F4xx_HAL_Driver/Src/stm32f4xx_hal_uart.c:1565:45
	ldrb.w	r0, [sp, #16]
	lsls	r0, r0, #28
	cmp	r0, #0
	bpl	.LBB38_20
	b	.LBB38_18
.Ltmp470:
.LBB38_18:
	.loc	7 1565 8 is_stmt 0              @ ../ThirdParty/STM32F4xx_HAL_Driver/Src/stm32f4xx_hal_uart.c:1565:8
	ldrb.w	r0, [sp, #8]
	lsls	r0, r0, #31
	cbz	r0, .LBB38_20
	b	.LBB38_19
.LBB38_19:
.Ltmp471:
	.loc	7 1567 7 is_stmt 1              @ ../ThirdParty/STM32F4xx_HAL_Driver/Src/stm32f4xx_hal_uart.c:1567:7
	ldr	r1, [sp, #20]
	.loc	7 1567 24 is_stmt 0             @ ../ThirdParty/STM32F4xx_HAL_Driver/Src/stm32f4xx_hal_uart.c:1567:24
	ldr	r0, [r1, #60]
	orr	r0, r0, #8
	str	r0, [r1, #60]
	.loc	7 1568 5 is_stmt 1              @ ../ThirdParty/STM32F4xx_HAL_Driver/Src/stm32f4xx_hal_uart.c:1568:5
	b	.LBB38_20
.Ltmp472:
.LBB38_20:
	.loc	7 1571 8                        @ ../ThirdParty/STM32F4xx_HAL_Driver/Src/stm32f4xx_hal_uart.c:1571:8
	ldr	r0, [sp, #20]
	.loc	7 1571 15 is_stmt 0             @ ../ThirdParty/STM32F4xx_HAL_Driver/Src/stm32f4xx_hal_uart.c:1571:15
	ldr	r0, [r0, #60]
.Ltmp473:
	.loc	7 1571 8                        @ ../ThirdParty/STM32F4xx_HAL_Driver/Src/stm32f4xx_hal_uart.c:1571:8
	cmp	r0, #0
	beq	.LBB38_37
	b	.LBB38_21
.LBB38_21:
.Ltmp474:
	.loc	7 1574 48 is_stmt 1             @ ../ThirdParty/STM32F4xx_HAL_Driver/Src/stm32f4xx_hal_uart.c:1574:48
	ldrb.w	r0, [sp, #16]
	lsls	r0, r0, #26
	cmp	r0, #0
	bpl	.LBB38_24
	b	.LBB38_22
.Ltmp475:
.LBB38_22:
	.loc	7 1574 10 is_stmt 0             @ ../ThirdParty/STM32F4xx_HAL_Driver/Src/stm32f4xx_hal_uart.c:1574:10
	ldrb.w	r0, [sp, #12]
	lsls	r0, r0, #26
	cmp	r0, #0
	bpl	.LBB38_24
	b	.LBB38_23
.LBB38_23:
.Ltmp476:
	.loc	7 1576 25 is_stmt 1             @ ../ThirdParty/STM32F4xx_HAL_Driver/Src/stm32f4xx_hal_uart.c:1576:25
	ldr	r0, [sp, #20]
	.loc	7 1576 9 is_stmt 0              @ ../ThirdParty/STM32F4xx_HAL_Driver/Src/stm32f4xx_hal_uart.c:1576:9
	bl	UART_Receive_IT
	.loc	7 1577 7 is_stmt 1              @ ../ThirdParty/STM32F4xx_HAL_Driver/Src/stm32f4xx_hal_uart.c:1577:7
	b	.LBB38_24
.Ltmp477:
.LBB38_24:
	.loc	7 1581 20                       @ ../ThirdParty/STM32F4xx_HAL_Driver/Src/stm32f4xx_hal_uart.c:1581:20
	ldr	r0, [sp, #20]
	ldr	r0, [r0]
	ldr	r0, [r0, #20]
	ubfx	r0, r0, #6, #1
	.loc	7 1581 18 is_stmt 0             @ ../ThirdParty/STM32F4xx_HAL_Driver/Src/stm32f4xx_hal_uart.c:1581:18
	str	r0, [sp]
.Ltmp478:
	.loc	7 1582 12 is_stmt 1             @ ../ThirdParty/STM32F4xx_HAL_Driver/Src/stm32f4xx_hal_uart.c:1582:12
	ldr	r0, [sp, #20]
	.loc	7 1582 19 is_stmt 0             @ ../ThirdParty/STM32F4xx_HAL_Driver/Src/stm32f4xx_hal_uart.c:1582:19
	ldr	r0, [r0, #60]
	.loc	7 1582 61                       @ ../ThirdParty/STM32F4xx_HAL_Driver/Src/stm32f4xx_hal_uart.c:1582:61
	lsls	r0, r0, #28
	cmp	r0, #0
	bmi	.LBB38_26
	b	.LBB38_25
.LBB38_25:
	.loc	7 1582 64                       @ ../ThirdParty/STM32F4xx_HAL_Driver/Src/stm32f4xx_hal_uart.c:1582:64
	ldr	r0, [sp]
.Ltmp479:
	.loc	7 1582 10                       @ ../ThirdParty/STM32F4xx_HAL_Driver/Src/stm32f4xx_hal_uart.c:1582:10
	cbz	r0, .LBB38_35
	b	.LBB38_26
.LBB38_26:
.Ltmp480:
	.loc	7 1587 28 is_stmt 1             @ ../ThirdParty/STM32F4xx_HAL_Driver/Src/stm32f4xx_hal_uart.c:1587:28
	ldr	r0, [sp, #20]
	.loc	7 1587 9 is_stmt 0              @ ../ThirdParty/STM32F4xx_HAL_Driver/Src/stm32f4xx_hal_uart.c:1587:9
	bl	UART_EndRxTransfer
.Ltmp481:
	.loc	7 1590 12 is_stmt 1             @ ../ThirdParty/STM32F4xx_HAL_Driver/Src/stm32f4xx_hal_uart.c:1590:12
	ldr	r0, [sp, #20]
	ldr	r0, [r0]
	ldr	r0, [r0, #20]
.Ltmp482:
	.loc	7 1590 12 is_stmt 0             @ ../ThirdParty/STM32F4xx_HAL_Driver/Src/stm32f4xx_hal_uart.c:1590:12
	lsls	r0, r0, #25
	cmp	r0, #0
	bpl	.LBB38_33
	b	.LBB38_27
.LBB38_27:
.Ltmp483:
	.loc	7 1592 11 is_stmt 1             @ ../ThirdParty/STM32F4xx_HAL_Driver/Src/stm32f4xx_hal_uart.c:1592:11
	ldr	r0, [sp, #20]
	ldr	r1, [r0]
	ldr	r0, [r1, #20]
	bic	r0, r0, #64
	str	r0, [r1, #20]
.Ltmp484:
	.loc	7 1595 14                       @ ../ThirdParty/STM32F4xx_HAL_Driver/Src/stm32f4xx_hal_uart.c:1595:14
	ldr	r0, [sp, #20]
	.loc	7 1595 21 is_stmt 0             @ ../ThirdParty/STM32F4xx_HAL_Driver/Src/stm32f4xx_hal_uart.c:1595:21
	ldr	r0, [r0, #52]
.Ltmp485:
	.loc	7 1595 14                       @ ../ThirdParty/STM32F4xx_HAL_Driver/Src/stm32f4xx_hal_uart.c:1595:14
	cbz	r0, .LBB38_31
	b	.LBB38_28
.LBB38_28:
.Ltmp486:
	.loc	7 1599 13 is_stmt 1             @ ../ThirdParty/STM32F4xx_HAL_Driver/Src/stm32f4xx_hal_uart.c:1599:13
	ldr	r0, [sp, #20]
	.loc	7 1599 20 is_stmt 0             @ ../ThirdParty/STM32F4xx_HAL_Driver/Src/stm32f4xx_hal_uart.c:1599:20
	ldr	r1, [r0, #52]
	.loc	7 1599 46                       @ ../ThirdParty/STM32F4xx_HAL_Driver/Src/stm32f4xx_hal_uart.c:1599:46
	movw	r0, :lower16:UART_DMAAbortOnError
	movt	r0, :upper16:UART_DMAAbortOnError
	str	r0, [r1, #80]
.Ltmp487:
	.loc	7 1600 33 is_stmt 1             @ ../ThirdParty/STM32F4xx_HAL_Driver/Src/stm32f4xx_hal_uart.c:1600:33
	ldr	r0, [sp, #20]
	.loc	7 1600 40 is_stmt 0             @ ../ThirdParty/STM32F4xx_HAL_Driver/Src/stm32f4xx_hal_uart.c:1600:40
	ldr	r0, [r0, #52]
	.loc	7 1600 16                       @ ../ThirdParty/STM32F4xx_HAL_Driver/Src/stm32f4xx_hal_uart.c:1600:16
	bl	HAL_DMA_Abort_IT
.Ltmp488:
	.loc	7 1600 16                       @ ../ThirdParty/STM32F4xx_HAL_Driver/Src/stm32f4xx_hal_uart.c:1600:16
	cbz	r0, .LBB38_30
	b	.LBB38_29
.LBB38_29:
.Ltmp489:
	.loc	7 1603 15 is_stmt 1             @ ../ThirdParty/STM32F4xx_HAL_Driver/Src/stm32f4xx_hal_uart.c:1603:15
	ldr	r0, [sp, #20]
	.loc	7 1603 22 is_stmt 0             @ ../ThirdParty/STM32F4xx_HAL_Driver/Src/stm32f4xx_hal_uart.c:1603:22
	ldr	r0, [r0, #52]
	.loc	7 1603 30                       @ ../ThirdParty/STM32F4xx_HAL_Driver/Src/stm32f4xx_hal_uart.c:1603:30
	ldr	r1, [r0, #80]
	.loc	7 1603 15                       @ ../ThirdParty/STM32F4xx_HAL_Driver/Src/stm32f4xx_hal_uart.c:1603:15
	blx	r1
	.loc	7 1604 13 is_stmt 1             @ ../ThirdParty/STM32F4xx_HAL_Driver/Src/stm32f4xx_hal_uart.c:1604:13
	b	.LBB38_30
.Ltmp490:
.LBB38_30:
	.loc	7 1605 11                       @ ../ThirdParty/STM32F4xx_HAL_Driver/Src/stm32f4xx_hal_uart.c:1605:11
	b	.LBB38_32
.Ltmp491:
.LBB38_31:
	.loc	7 1609 36                       @ ../ThirdParty/STM32F4xx_HAL_Driver/Src/stm32f4xx_hal_uart.c:1609:36
	ldr	r0, [sp, #20]
	.loc	7 1609 13 is_stmt 0             @ ../ThirdParty/STM32F4xx_HAL_Driver/Src/stm32f4xx_hal_uart.c:1609:13
	bl	HAL_UART_ErrorCallback
	b	.LBB38_32
.Ltmp492:
.LBB38_32:
	.loc	7 1611 9 is_stmt 1              @ ../ThirdParty/STM32F4xx_HAL_Driver/Src/stm32f4xx_hal_uart.c:1611:9
	b	.LBB38_34
.Ltmp493:
.LBB38_33:
	.loc	7 1615 34                       @ ../ThirdParty/STM32F4xx_HAL_Driver/Src/stm32f4xx_hal_uart.c:1615:34
	ldr	r0, [sp, #20]
	.loc	7 1615 11 is_stmt 0             @ ../ThirdParty/STM32F4xx_HAL_Driver/Src/stm32f4xx_hal_uart.c:1615:11
	bl	HAL_UART_ErrorCallback
	b	.LBB38_34
.Ltmp494:
.LBB38_34:
	.loc	7 1617 7 is_stmt 1              @ ../ThirdParty/STM32F4xx_HAL_Driver/Src/stm32f4xx_hal_uart.c:1617:7
	b	.LBB38_36
.Ltmp495:
.LBB38_35:
	.loc	7 1622 32                       @ ../ThirdParty/STM32F4xx_HAL_Driver/Src/stm32f4xx_hal_uart.c:1622:32
	ldr	r0, [sp, #20]
	.loc	7 1622 9 is_stmt 0              @ ../ThirdParty/STM32F4xx_HAL_Driver/Src/stm32f4xx_hal_uart.c:1622:9
	bl	HAL_UART_ErrorCallback
	.loc	7 1623 9 is_stmt 1              @ ../ThirdParty/STM32F4xx_HAL_Driver/Src/stm32f4xx_hal_uart.c:1623:9
	ldr	r1, [sp, #20]
	movs	r0, #0
	.loc	7 1623 26 is_stmt 0             @ ../ThirdParty/STM32F4xx_HAL_Driver/Src/stm32f4xx_hal_uart.c:1623:26
	str	r0, [r1, #60]
	b	.LBB38_36
.Ltmp496:
.LBB38_36:
	.loc	7 1625 5 is_stmt 1              @ ../ThirdParty/STM32F4xx_HAL_Driver/Src/stm32f4xx_hal_uart.c:1625:5
	b	.LBB38_37
.Ltmp497:
.LBB38_37:
	.loc	7 1626 5                        @ ../ThirdParty/STM32F4xx_HAL_Driver/Src/stm32f4xx_hal_uart.c:1626:5
	b	.LBB38_44
.Ltmp498:
.LBB38_38:
	.loc	7 1630 43                       @ ../ThirdParty/STM32F4xx_HAL_Driver/Src/stm32f4xx_hal_uart.c:1630:43
	ldrb.w	r0, [sp, #16]
	lsls	r0, r0, #24
	cmp	r0, #0
	bpl	.LBB38_41
	b	.LBB38_39
.Ltmp499:
.LBB38_39:
	.loc	7 1630 6 is_stmt 0              @ ../ThirdParty/STM32F4xx_HAL_Driver/Src/stm32f4xx_hal_uart.c:1630:6
	ldrb.w	r0, [sp, #12]
	lsls	r0, r0, #24
	cmp	r0, #0
	bpl	.LBB38_41
	b	.LBB38_40
.LBB38_40:
.Ltmp500:
	.loc	7 1632 22 is_stmt 1             @ ../ThirdParty/STM32F4xx_HAL_Driver/Src/stm32f4xx_hal_uart.c:1632:22
	ldr	r0, [sp, #20]
	.loc	7 1632 5 is_stmt 0              @ ../ThirdParty/STM32F4xx_HAL_Driver/Src/stm32f4xx_hal_uart.c:1632:5
	bl	UART_Transmit_IT
	.loc	7 1633 5 is_stmt 1              @ ../ThirdParty/STM32F4xx_HAL_Driver/Src/stm32f4xx_hal_uart.c:1633:5
	b	.LBB38_44
.Ltmp501:
.LBB38_41:
	.loc	7 1637 42                       @ ../ThirdParty/STM32F4xx_HAL_Driver/Src/stm32f4xx_hal_uart.c:1637:42
	ldrb.w	r0, [sp, #16]
	lsls	r0, r0, #25
	cmp	r0, #0
	bpl	.LBB38_44
	b	.LBB38_42
.Ltmp502:
.LBB38_42:
	.loc	7 1637 6 is_stmt 0              @ ../ThirdParty/STM32F4xx_HAL_Driver/Src/stm32f4xx_hal_uart.c:1637:6
	ldrb.w	r0, [sp, #12]
	lsls	r0, r0, #25
	cmp	r0, #0
	bpl	.LBB38_44
	b	.LBB38_43
.LBB38_43:
.Ltmp503:
	.loc	7 1639 25 is_stmt 1             @ ../ThirdParty/STM32F4xx_HAL_Driver/Src/stm32f4xx_hal_uart.c:1639:25
	ldr	r0, [sp, #20]
	.loc	7 1639 5 is_stmt 0              @ ../ThirdParty/STM32F4xx_HAL_Driver/Src/stm32f4xx_hal_uart.c:1639:5
	bl	UART_EndTransmit_IT
	.loc	7 1640 5 is_stmt 1              @ ../ThirdParty/STM32F4xx_HAL_Driver/Src/stm32f4xx_hal_uart.c:1640:5
	b	.LBB38_44
.Ltmp504:
.LBB38_44:
	.loc	7 1642 1 epilogue_begin         @ ../ThirdParty/STM32F4xx_HAL_Driver/Src/stm32f4xx_hal_uart.c:1642:1
	add	sp, #24
	pop	{r7, pc}
.Ltmp505:
.Lfunc_end38:
	.size	HAL_UART_IRQHandler, .Lfunc_end38-HAL_UART_IRQHandler
	.cfi_endproc
	.cantunwind
	.fnend
                                        @ -- End function
	.section	.text.UART_Receive_IT,"ax",%progbits
	.p2align	2                               @ -- Begin function UART_Receive_IT
	.type	UART_Receive_IT,%function
	.code	16                              @ @UART_Receive_IT
	.thumb_func
UART_Receive_IT:
.Lfunc_begin39:
	.loc	7 2371 0                        @ ../ThirdParty/STM32F4xx_HAL_Driver/Src/stm32f4xx_hal_uart.c:2371:0
	.fnstart
	.cfi_startproc
@ %bb.0:
	.save	{r7, lr}
	push	{r7, lr}
	.cfi_def_cfa_offset 8
	.cfi_offset lr, -4
	.cfi_offset r7, -8
	.pad	#16
	sub	sp, #16
	.cfi_def_cfa_offset 24
	str	r0, [sp, #8]
.Ltmp506:
	.loc	7 2375 6 prologue_end           @ ../ThirdParty/STM32F4xx_HAL_Driver/Src/stm32f4xx_hal_uart.c:2375:6
	ldr	r0, [sp, #8]
	.loc	7 2375 13 is_stmt 0             @ ../ThirdParty/STM32F4xx_HAL_Driver/Src/stm32f4xx_hal_uart.c:2375:13
	ldrb.w	r0, [r0, #58]
.Ltmp507:
	.loc	7 2375 6                        @ ../ThirdParty/STM32F4xx_HAL_Driver/Src/stm32f4xx_hal_uart.c:2375:6
	cmp	r0, #34
	bne	.LBB39_13
	b	.LBB39_1
.LBB39_1:
.Ltmp508:
	.loc	7 2377 8 is_stmt 1              @ ../ThirdParty/STM32F4xx_HAL_Driver/Src/stm32f4xx_hal_uart.c:2377:8
	ldr	r0, [sp, #8]
	.loc	7 2377 20 is_stmt 0             @ ../ThirdParty/STM32F4xx_HAL_Driver/Src/stm32f4xx_hal_uart.c:2377:20
	ldr	r0, [r0, #8]
.Ltmp509:
	.loc	7 2377 8                        @ ../ThirdParty/STM32F4xx_HAL_Driver/Src/stm32f4xx_hal_uart.c:2377:8
	cmp.w	r0, #4096
	bne	.LBB39_6
	b	.LBB39_2
.LBB39_2:
.Ltmp510:
	.loc	7 2379 25 is_stmt 1             @ ../ThirdParty/STM32F4xx_HAL_Driver/Src/stm32f4xx_hal_uart.c:2379:25
	ldr	r0, [sp, #8]
	.loc	7 2379 32 is_stmt 0             @ ../ThirdParty/STM32F4xx_HAL_Driver/Src/stm32f4xx_hal_uart.c:2379:32
	ldr	r0, [r0, #40]
	.loc	7 2379 11                       @ ../ThirdParty/STM32F4xx_HAL_Driver/Src/stm32f4xx_hal_uart.c:2379:11
	str	r0, [sp, #4]
.Ltmp511:
	.loc	7 2380 10 is_stmt 1             @ ../ThirdParty/STM32F4xx_HAL_Driver/Src/stm32f4xx_hal_uart.c:2380:10
	ldr	r0, [sp, #8]
	.loc	7 2380 22 is_stmt 0             @ ../ThirdParty/STM32F4xx_HAL_Driver/Src/stm32f4xx_hal_uart.c:2380:22
	ldr	r0, [r0, #16]
.Ltmp512:
	.loc	7 2380 10                       @ ../ThirdParty/STM32F4xx_HAL_Driver/Src/stm32f4xx_hal_uart.c:2380:10
	cbnz	r0, .LBB39_4
	b	.LBB39_3
.LBB39_3:
.Ltmp513:
	.loc	7 2382 27 is_stmt 1             @ ../ThirdParty/STM32F4xx_HAL_Driver/Src/stm32f4xx_hal_uart.c:2382:27
	ldr	r0, [sp, #8]
	.loc	7 2382 34 is_stmt 0             @ ../ThirdParty/STM32F4xx_HAL_Driver/Src/stm32f4xx_hal_uart.c:2382:34
	ldr	r0, [r0]
	.loc	7 2382 44                       @ ../ThirdParty/STM32F4xx_HAL_Driver/Src/stm32f4xx_hal_uart.c:2382:44
	ldr	r0, [r0, #4]
	.loc	7 2382 47                       @ ../ThirdParty/STM32F4xx_HAL_Driver/Src/stm32f4xx_hal_uart.c:2382:47
	bfc	r0, #9, #23
	.loc	7 2382 10                       @ ../ThirdParty/STM32F4xx_HAL_Driver/Src/stm32f4xx_hal_uart.c:2382:10
	ldr	r1, [sp, #4]
	.loc	7 2382 14                       @ ../ThirdParty/STM32F4xx_HAL_Driver/Src/stm32f4xx_hal_uart.c:2382:14
	strh	r0, [r1]
	.loc	7 2383 9 is_stmt 1              @ ../ThirdParty/STM32F4xx_HAL_Driver/Src/stm32f4xx_hal_uart.c:2383:9
	ldr	r1, [sp, #8]
	.loc	7 2383 27 is_stmt 0             @ ../ThirdParty/STM32F4xx_HAL_Driver/Src/stm32f4xx_hal_uart.c:2383:27
	ldr	r0, [r1, #40]
	adds	r0, #2
	str	r0, [r1, #40]
	.loc	7 2384 7 is_stmt 1              @ ../ThirdParty/STM32F4xx_HAL_Driver/Src/stm32f4xx_hal_uart.c:2384:7
	b	.LBB39_5
.Ltmp514:
.LBB39_4:
	.loc	7 2387 27                       @ ../ThirdParty/STM32F4xx_HAL_Driver/Src/stm32f4xx_hal_uart.c:2387:27
	ldr	r0, [sp, #8]
	.loc	7 2387 34 is_stmt 0             @ ../ThirdParty/STM32F4xx_HAL_Driver/Src/stm32f4xx_hal_uart.c:2387:34
	ldr	r0, [r0]
	.loc	7 2387 44                       @ ../ThirdParty/STM32F4xx_HAL_Driver/Src/stm32f4xx_hal_uart.c:2387:44
	ldr	r0, [r0, #4]
	.loc	7 2387 47                       @ ../ThirdParty/STM32F4xx_HAL_Driver/Src/stm32f4xx_hal_uart.c:2387:47
	uxtb	r0, r0
	.loc	7 2387 10                       @ ../ThirdParty/STM32F4xx_HAL_Driver/Src/stm32f4xx_hal_uart.c:2387:10
	ldr	r1, [sp, #4]
	.loc	7 2387 14                       @ ../ThirdParty/STM32F4xx_HAL_Driver/Src/stm32f4xx_hal_uart.c:2387:14
	strh	r0, [r1]
	.loc	7 2388 9 is_stmt 1              @ ../ThirdParty/STM32F4xx_HAL_Driver/Src/stm32f4xx_hal_uart.c:2388:9
	ldr	r1, [sp, #8]
	.loc	7 2388 27 is_stmt 0             @ ../ThirdParty/STM32F4xx_HAL_Driver/Src/stm32f4xx_hal_uart.c:2388:27
	ldr	r0, [r1, #40]
	adds	r0, #1
	str	r0, [r1, #40]
	b	.LBB39_5
.Ltmp515:
.LBB39_5:
	.loc	7 2390 5 is_stmt 1              @ ../ThirdParty/STM32F4xx_HAL_Driver/Src/stm32f4xx_hal_uart.c:2390:5
	b	.LBB39_10
.Ltmp516:
.LBB39_6:
	.loc	7 2393 10                       @ ../ThirdParty/STM32F4xx_HAL_Driver/Src/stm32f4xx_hal_uart.c:2393:10
	ldr	r0, [sp, #8]
	.loc	7 2393 22 is_stmt 0             @ ../ThirdParty/STM32F4xx_HAL_Driver/Src/stm32f4xx_hal_uart.c:2393:22
	ldr	r0, [r0, #16]
.Ltmp517:
	.loc	7 2393 10                       @ ../ThirdParty/STM32F4xx_HAL_Driver/Src/stm32f4xx_hal_uart.c:2393:10
	cbnz	r0, .LBB39_8
	b	.LBB39_7
.LBB39_7:
.Ltmp518:
	.loc	7 2395 42 is_stmt 1             @ ../ThirdParty/STM32F4xx_HAL_Driver/Src/stm32f4xx_hal_uart.c:2395:42
	ldr	r0, [sp, #8]
	.loc	7 2395 49 is_stmt 0             @ ../ThirdParty/STM32F4xx_HAL_Driver/Src/stm32f4xx_hal_uart.c:2395:49
	ldr	r0, [r0]
	.loc	7 2395 59                       @ ../ThirdParty/STM32F4xx_HAL_Driver/Src/stm32f4xx_hal_uart.c:2395:59
	ldr	r0, [r0, #4]
	.loc	7 2395 10                       @ ../ThirdParty/STM32F4xx_HAL_Driver/Src/stm32f4xx_hal_uart.c:2395:10
	ldr	r3, [sp, #8]
	.loc	7 2395 27                       @ ../ThirdParty/STM32F4xx_HAL_Driver/Src/stm32f4xx_hal_uart.c:2395:27
	ldr	r1, [r3, #40]
	adds	r2, r1, #1
	str	r2, [r3, #40]
	.loc	7 2395 30                       @ ../ThirdParty/STM32F4xx_HAL_Driver/Src/stm32f4xx_hal_uart.c:2395:30
	strb	r0, [r1]
	.loc	7 2396 7 is_stmt 1              @ ../ThirdParty/STM32F4xx_HAL_Driver/Src/stm32f4xx_hal_uart.c:2396:7
	b	.LBB39_9
.Ltmp519:
.LBB39_8:
	.loc	7 2399 42                       @ ../ThirdParty/STM32F4xx_HAL_Driver/Src/stm32f4xx_hal_uart.c:2399:42
	ldr	r0, [sp, #8]
	.loc	7 2399 49 is_stmt 0             @ ../ThirdParty/STM32F4xx_HAL_Driver/Src/stm32f4xx_hal_uart.c:2399:49
	ldr	r0, [r0]
	.loc	7 2399 59                       @ ../ThirdParty/STM32F4xx_HAL_Driver/Src/stm32f4xx_hal_uart.c:2399:59
	ldr	r0, [r0, #4]
	.loc	7 2399 62                       @ ../ThirdParty/STM32F4xx_HAL_Driver/Src/stm32f4xx_hal_uart.c:2399:62
	and	r0, r0, #127
	.loc	7 2399 10                       @ ../ThirdParty/STM32F4xx_HAL_Driver/Src/stm32f4xx_hal_uart.c:2399:10
	ldr	r3, [sp, #8]
	.loc	7 2399 27                       @ ../ThirdParty/STM32F4xx_HAL_Driver/Src/stm32f4xx_hal_uart.c:2399:27
	ldr	r1, [r3, #40]
	adds	r2, r1, #1
	str	r2, [r3, #40]
	.loc	7 2399 30                       @ ../ThirdParty/STM32F4xx_HAL_Driver/Src/stm32f4xx_hal_uart.c:2399:30
	strb	r0, [r1]
	b	.LBB39_9
.Ltmp520:
.LBB39_9:
	.loc	7 0 30                          @ ../ThirdParty/STM32F4xx_HAL_Driver/Src/stm32f4xx_hal_uart.c:0:30
	b	.LBB39_10
.LBB39_10:
.Ltmp521:
	.loc	7 2403 10 is_stmt 1             @ ../ThirdParty/STM32F4xx_HAL_Driver/Src/stm32f4xx_hal_uart.c:2403:10
	ldr	r1, [sp, #8]
	.loc	7 2403 8 is_stmt 0              @ ../ThirdParty/STM32F4xx_HAL_Driver/Src/stm32f4xx_hal_uart.c:2403:8
	ldrh	r0, [r1, #46]
	subs	r0, #1
	strh	r0, [r1, #46]
.Ltmp522:
	.loc	7 2403 8                        @ ../ThirdParty/STM32F4xx_HAL_Driver/Src/stm32f4xx_hal_uart.c:2403:8
	lsls	r0, r0, #16
	cbnz	r0, .LBB39_12
	b	.LBB39_11
.LBB39_11:
.Ltmp523:
	.loc	7 2406 7 is_stmt 1              @ ../ThirdParty/STM32F4xx_HAL_Driver/Src/stm32f4xx_hal_uart.c:2406:7
	ldr	r0, [sp, #8]
	ldr	r1, [r0]
	ldr	r0, [r1, #12]
	bic	r0, r0, #288
	str	r0, [r1, #12]
	.loc	7 2409 7                        @ ../ThirdParty/STM32F4xx_HAL_Driver/Src/stm32f4xx_hal_uart.c:2409:7
	ldr	r0, [sp, #8]
	ldr	r1, [r0]
	ldr	r0, [r1, #20]
	bic	r0, r0, #1
	str	r0, [r1, #20]
	.loc	7 2412 7                        @ ../ThirdParty/STM32F4xx_HAL_Driver/Src/stm32f4xx_hal_uart.c:2412:7
	ldr	r1, [sp, #8]
	movs	r0, #32
	.loc	7 2412 22 is_stmt 0             @ ../ThirdParty/STM32F4xx_HAL_Driver/Src/stm32f4xx_hal_uart.c:2412:22
	strb.w	r0, [r1, #58]
	.loc	7 2414 31 is_stmt 1             @ ../ThirdParty/STM32F4xx_HAL_Driver/Src/stm32f4xx_hal_uart.c:2414:31
	ldr	r0, [sp, #8]
	.loc	7 2414 7 is_stmt 0              @ ../ThirdParty/STM32F4xx_HAL_Driver/Src/stm32f4xx_hal_uart.c:2414:7
	bl	HAL_UART_RxCpltCallback
	movs	r0, #0
	.loc	7 2416 7 is_stmt 1              @ ../ThirdParty/STM32F4xx_HAL_Driver/Src/stm32f4xx_hal_uart.c:2416:7
	strb.w	r0, [sp, #15]
	b	.LBB39_14
.Ltmp524:
.LBB39_12:
	.loc	7 0 7 is_stmt 0                 @ ../ThirdParty/STM32F4xx_HAL_Driver/Src/stm32f4xx_hal_uart.c:0:7
	movs	r0, #0
	.loc	7 2418 5 is_stmt 1              @ ../ThirdParty/STM32F4xx_HAL_Driver/Src/stm32f4xx_hal_uart.c:2418:5
	strb.w	r0, [sp, #15]
	b	.LBB39_14
.Ltmp525:
.LBB39_13:
	.loc	7 0 5 is_stmt 0                 @ ../ThirdParty/STM32F4xx_HAL_Driver/Src/stm32f4xx_hal_uart.c:0:5
	movs	r0, #2
.Ltmp526:
	.loc	7 2422 5 is_stmt 1              @ ../ThirdParty/STM32F4xx_HAL_Driver/Src/stm32f4xx_hal_uart.c:2422:5
	strb.w	r0, [sp, #15]
	b	.LBB39_14
.Ltmp527:
.LBB39_14:
	.loc	7 2424 1                        @ ../ThirdParty/STM32F4xx_HAL_Driver/Src/stm32f4xx_hal_uart.c:2424:1
	ldrb.w	r0, [sp, #15]
	.loc	7 2424 1 epilogue_begin is_stmt 0 @ ../ThirdParty/STM32F4xx_HAL_Driver/Src/stm32f4xx_hal_uart.c:2424:1
	add	sp, #16
	pop	{r7, pc}
.Ltmp528:
.Lfunc_end39:
	.size	UART_Receive_IT, .Lfunc_end39-UART_Receive_IT
	.cfi_endproc
	.cantunwind
	.fnend
                                        @ -- End function
	.section	.text.UART_DMAAbortOnError,"ax",%progbits
	.p2align	2                               @ -- Begin function UART_DMAAbortOnError
	.type	UART_DMAAbortOnError,%function
	.code	16                              @ @UART_DMAAbortOnError
	.thumb_func
UART_DMAAbortOnError:
.Lfunc_begin40:
	.loc	7 2172 0 is_stmt 1              @ ../ThirdParty/STM32F4xx_HAL_Driver/Src/stm32f4xx_hal_uart.c:2172:0
	.fnstart
	.cfi_startproc
@ %bb.0:
	.save	{r7, lr}
	push	{r7, lr}
	.cfi_def_cfa_offset 8
	.cfi_offset lr, -4
	.cfi_offset r7, -8
	.pad	#8
	sub	sp, #8
	.cfi_def_cfa_offset 16
	str	r0, [sp, #4]
.Ltmp529:
	.loc	7 2173 76 prologue_end          @ ../ThirdParty/STM32F4xx_HAL_Driver/Src/stm32f4xx_hal_uart.c:2173:76
	ldr	r0, [sp, #4]
	.loc	7 2173 83 is_stmt 0             @ ../ThirdParty/STM32F4xx_HAL_Driver/Src/stm32f4xx_hal_uart.c:2173:83
	ldr	r0, [r0, #56]
	.loc	7 2173 23                       @ ../ThirdParty/STM32F4xx_HAL_Driver/Src/stm32f4xx_hal_uart.c:2173:23
	str	r0, [sp]
	.loc	7 2174 3 is_stmt 1              @ ../ThirdParty/STM32F4xx_HAL_Driver/Src/stm32f4xx_hal_uart.c:2174:3
	ldr	r1, [sp]
	movs	r0, #0
	.loc	7 2174 22 is_stmt 0             @ ../ThirdParty/STM32F4xx_HAL_Driver/Src/stm32f4xx_hal_uart.c:2174:22
	strh	r0, [r1, #46]
	.loc	7 2175 3 is_stmt 1              @ ../ThirdParty/STM32F4xx_HAL_Driver/Src/stm32f4xx_hal_uart.c:2175:3
	ldr	r1, [sp]
	.loc	7 2175 22 is_stmt 0             @ ../ThirdParty/STM32F4xx_HAL_Driver/Src/stm32f4xx_hal_uart.c:2175:22
	strh	r0, [r1, #38]
	.loc	7 2177 26 is_stmt 1             @ ../ThirdParty/STM32F4xx_HAL_Driver/Src/stm32f4xx_hal_uart.c:2177:26
	ldr	r0, [sp]
	.loc	7 2177 3 is_stmt 0              @ ../ThirdParty/STM32F4xx_HAL_Driver/Src/stm32f4xx_hal_uart.c:2177:3
	bl	HAL_UART_ErrorCallback
	.loc	7 2178 1 epilogue_begin is_stmt 1 @ ../ThirdParty/STM32F4xx_HAL_Driver/Src/stm32f4xx_hal_uart.c:2178:1
	add	sp, #8
	pop	{r7, pc}
.Ltmp530:
.Lfunc_end40:
	.size	UART_DMAAbortOnError, .Lfunc_end40-UART_DMAAbortOnError
	.cfi_endproc
	.cantunwind
	.fnend
                                        @ -- End function
	.section	.text.HAL_UART_ErrorCallback,"ax",%progbits
	.hidden	HAL_UART_ErrorCallback          @ -- Begin function HAL_UART_ErrorCallback
	.weak	HAL_UART_ErrorCallback
	.p2align	2
	.type	HAL_UART_ErrorCallback,%function
	.code	16                              @ @HAL_UART_ErrorCallback
	.thumb_func
HAL_UART_ErrorCallback:
.Lfunc_begin41:
	.loc	7 1711 0                        @ ../ThirdParty/STM32F4xx_HAL_Driver/Src/stm32f4xx_hal_uart.c:1711:0
	.fnstart
	.cfi_startproc
@ %bb.0:
	.pad	#4
	sub	sp, #4
	.cfi_def_cfa_offset 4
	str	r0, [sp]
.Ltmp531:
	.loc	7 1717 1 prologue_end epilogue_begin @ ../ThirdParty/STM32F4xx_HAL_Driver/Src/stm32f4xx_hal_uart.c:1717:1
	add	sp, #4
	bx	lr
.Ltmp532:
.Lfunc_end41:
	.size	HAL_UART_ErrorCallback, .Lfunc_end41-HAL_UART_ErrorCallback
	.cfi_endproc
	.cantunwind
	.fnend
                                        @ -- End function
	.section	.text.UART_Transmit_IT,"ax",%progbits
	.p2align	2                               @ -- Begin function UART_Transmit_IT
	.type	UART_Transmit_IT,%function
	.code	16                              @ @UART_Transmit_IT
	.thumb_func
UART_Transmit_IT:
.Lfunc_begin42:
	.loc	7 2305 0                        @ ../ThirdParty/STM32F4xx_HAL_Driver/Src/stm32f4xx_hal_uart.c:2305:0
	.fnstart
	.cfi_startproc
@ %bb.0:
	.pad	#12
	sub	sp, #12
	.cfi_def_cfa_offset 12
	str	r0, [sp, #4]
.Ltmp533:
	.loc	7 2309 6 prologue_end           @ ../ThirdParty/STM32F4xx_HAL_Driver/Src/stm32f4xx_hal_uart.c:2309:6
	ldr	r0, [sp, #4]
	.loc	7 2309 13 is_stmt 0             @ ../ThirdParty/STM32F4xx_HAL_Driver/Src/stm32f4xx_hal_uart.c:2309:13
	ldrb.w	r0, [r0, #57]
.Ltmp534:
	.loc	7 2309 6                        @ ../ThirdParty/STM32F4xx_HAL_Driver/Src/stm32f4xx_hal_uart.c:2309:6
	cmp	r0, #33
	bne	.LBB42_10
	b	.LBB42_1
.LBB42_1:
.Ltmp535:
	.loc	7 2311 8 is_stmt 1              @ ../ThirdParty/STM32F4xx_HAL_Driver/Src/stm32f4xx_hal_uart.c:2311:8
	ldr	r0, [sp, #4]
	.loc	7 2311 20 is_stmt 0             @ ../ThirdParty/STM32F4xx_HAL_Driver/Src/stm32f4xx_hal_uart.c:2311:20
	ldr	r0, [r0, #8]
.Ltmp536:
	.loc	7 2311 8                        @ ../ThirdParty/STM32F4xx_HAL_Driver/Src/stm32f4xx_hal_uart.c:2311:8
	cmp.w	r0, #4096
	bne	.LBB42_6
	b	.LBB42_2
.LBB42_2:
.Ltmp537:
	.loc	7 2313 25 is_stmt 1             @ ../ThirdParty/STM32F4xx_HAL_Driver/Src/stm32f4xx_hal_uart.c:2313:25
	ldr	r0, [sp, #4]
	.loc	7 2313 32 is_stmt 0             @ ../ThirdParty/STM32F4xx_HAL_Driver/Src/stm32f4xx_hal_uart.c:2313:32
	ldr	r0, [r0, #32]
	.loc	7 2313 11                       @ ../ThirdParty/STM32F4xx_HAL_Driver/Src/stm32f4xx_hal_uart.c:2313:11
	str	r0, [sp]
	.loc	7 2314 41 is_stmt 1             @ ../ThirdParty/STM32F4xx_HAL_Driver/Src/stm32f4xx_hal_uart.c:2314:41
	ldr	r0, [sp]
	.loc	7 2314 40 is_stmt 0             @ ../ThirdParty/STM32F4xx_HAL_Driver/Src/stm32f4xx_hal_uart.c:2314:40
	ldrh	r0, [r0]
	.loc	7 2314 45                       @ ../ThirdParty/STM32F4xx_HAL_Driver/Src/stm32f4xx_hal_uart.c:2314:45
	bfc	r0, #9, #23
	.loc	7 2314 7                        @ ../ThirdParty/STM32F4xx_HAL_Driver/Src/stm32f4xx_hal_uart.c:2314:7
	ldr	r1, [sp, #4]
	.loc	7 2314 14                       @ ../ThirdParty/STM32F4xx_HAL_Driver/Src/stm32f4xx_hal_uart.c:2314:14
	ldr	r1, [r1]
	.loc	7 2314 27                       @ ../ThirdParty/STM32F4xx_HAL_Driver/Src/stm32f4xx_hal_uart.c:2314:27
	str	r0, [r1, #4]
.Ltmp538:
	.loc	7 2315 10 is_stmt 1             @ ../ThirdParty/STM32F4xx_HAL_Driver/Src/stm32f4xx_hal_uart.c:2315:10
	ldr	r0, [sp, #4]
	.loc	7 2315 22 is_stmt 0             @ ../ThirdParty/STM32F4xx_HAL_Driver/Src/stm32f4xx_hal_uart.c:2315:22
	ldr	r0, [r0, #16]
.Ltmp539:
	.loc	7 2315 10                       @ ../ThirdParty/STM32F4xx_HAL_Driver/Src/stm32f4xx_hal_uart.c:2315:10
	cbnz	r0, .LBB42_4
	b	.LBB42_3
.LBB42_3:
.Ltmp540:
	.loc	7 2317 9 is_stmt 1              @ ../ThirdParty/STM32F4xx_HAL_Driver/Src/stm32f4xx_hal_uart.c:2317:9
	ldr	r1, [sp, #4]
	.loc	7 2317 27 is_stmt 0             @ ../ThirdParty/STM32F4xx_HAL_Driver/Src/stm32f4xx_hal_uart.c:2317:27
	ldr	r0, [r1, #32]
	adds	r0, #2
	str	r0, [r1, #32]
	.loc	7 2318 7 is_stmt 1              @ ../ThirdParty/STM32F4xx_HAL_Driver/Src/stm32f4xx_hal_uart.c:2318:7
	b	.LBB42_5
.Ltmp541:
.LBB42_4:
	.loc	7 2321 9                        @ ../ThirdParty/STM32F4xx_HAL_Driver/Src/stm32f4xx_hal_uart.c:2321:9
	ldr	r1, [sp, #4]
	.loc	7 2321 27 is_stmt 0             @ ../ThirdParty/STM32F4xx_HAL_Driver/Src/stm32f4xx_hal_uart.c:2321:27
	ldr	r0, [r1, #32]
	adds	r0, #1
	str	r0, [r1, #32]
	b	.LBB42_5
.Ltmp542:
.LBB42_5:
	.loc	7 2323 5 is_stmt 1              @ ../ThirdParty/STM32F4xx_HAL_Driver/Src/stm32f4xx_hal_uart.c:2323:5
	b	.LBB42_7
.Ltmp543:
.LBB42_6:
	.loc	7 2326 40                       @ ../ThirdParty/STM32F4xx_HAL_Driver/Src/stm32f4xx_hal_uart.c:2326:40
	ldr	r2, [sp, #4]
	.loc	7 2326 57 is_stmt 0             @ ../ThirdParty/STM32F4xx_HAL_Driver/Src/stm32f4xx_hal_uart.c:2326:57
	ldr	r0, [r2, #32]
	adds	r1, r0, #1
	str	r1, [r2, #32]
	.loc	7 2326 39                       @ ../ThirdParty/STM32F4xx_HAL_Driver/Src/stm32f4xx_hal_uart.c:2326:39
	ldrb	r0, [r0]
	.loc	7 2326 7                        @ ../ThirdParty/STM32F4xx_HAL_Driver/Src/stm32f4xx_hal_uart.c:2326:7
	ldr	r1, [sp, #4]
	.loc	7 2326 14                       @ ../ThirdParty/STM32F4xx_HAL_Driver/Src/stm32f4xx_hal_uart.c:2326:14
	ldr	r1, [r1]
	.loc	7 2326 27                       @ ../ThirdParty/STM32F4xx_HAL_Driver/Src/stm32f4xx_hal_uart.c:2326:27
	str	r0, [r1, #4]
	b	.LBB42_7
.Ltmp544:
.LBB42_7:
	.loc	7 2329 10 is_stmt 1             @ ../ThirdParty/STM32F4xx_HAL_Driver/Src/stm32f4xx_hal_uart.c:2329:10
	ldr	r1, [sp, #4]
	.loc	7 2329 8 is_stmt 0              @ ../ThirdParty/STM32F4xx_HAL_Driver/Src/stm32f4xx_hal_uart.c:2329:8
	ldrh	r0, [r1, #38]
	subs	r0, #1
	strh	r0, [r1, #38]
.Ltmp545:
	.loc	7 2329 8                        @ ../ThirdParty/STM32F4xx_HAL_Driver/Src/stm32f4xx_hal_uart.c:2329:8
	lsls	r0, r0, #16
	cbnz	r0, .LBB42_9
	b	.LBB42_8
.LBB42_8:
.Ltmp546:
	.loc	7 2332 7 is_stmt 1              @ ../ThirdParty/STM32F4xx_HAL_Driver/Src/stm32f4xx_hal_uart.c:2332:7
	ldr	r0, [sp, #4]
	ldr	r1, [r0]
	ldr	r0, [r1, #12]
	bic	r0, r0, #128
	str	r0, [r1, #12]
	.loc	7 2335 7                        @ ../ThirdParty/STM32F4xx_HAL_Driver/Src/stm32f4xx_hal_uart.c:2335:7
	ldr	r0, [sp, #4]
	ldr	r1, [r0]
	ldr	r0, [r1, #12]
	orr	r0, r0, #64
	str	r0, [r1, #12]
	.loc	7 2336 5                        @ ../ThirdParty/STM32F4xx_HAL_Driver/Src/stm32f4xx_hal_uart.c:2336:5
	b	.LBB42_9
.Ltmp547:
.LBB42_9:
	.loc	7 0 5 is_stmt 0                 @ ../ThirdParty/STM32F4xx_HAL_Driver/Src/stm32f4xx_hal_uart.c:0:5
	movs	r0, #0
	.loc	7 2337 5 is_stmt 1              @ ../ThirdParty/STM32F4xx_HAL_Driver/Src/stm32f4xx_hal_uart.c:2337:5
	strb.w	r0, [sp, #11]
	b	.LBB42_11
.Ltmp548:
.LBB42_10:
	.loc	7 0 5 is_stmt 0                 @ ../ThirdParty/STM32F4xx_HAL_Driver/Src/stm32f4xx_hal_uart.c:0:5
	movs	r0, #2
.Ltmp549:
	.loc	7 2341 5 is_stmt 1              @ ../ThirdParty/STM32F4xx_HAL_Driver/Src/stm32f4xx_hal_uart.c:2341:5
	strb.w	r0, [sp, #11]
	b	.LBB42_11
.Ltmp550:
.LBB42_11:
	.loc	7 2343 1                        @ ../ThirdParty/STM32F4xx_HAL_Driver/Src/stm32f4xx_hal_uart.c:2343:1
	ldrb.w	r0, [sp, #11]
	.loc	7 2343 1 epilogue_begin is_stmt 0 @ ../ThirdParty/STM32F4xx_HAL_Driver/Src/stm32f4xx_hal_uart.c:2343:1
	add	sp, #12
	bx	lr
.Ltmp551:
.Lfunc_end42:
	.size	UART_Transmit_IT, .Lfunc_end42-UART_Transmit_IT
	.cfi_endproc
	.cantunwind
	.fnend
                                        @ -- End function
	.section	.text.UART_EndTransmit_IT,"ax",%progbits
	.p2align	2                               @ -- Begin function UART_EndTransmit_IT
	.type	UART_EndTransmit_IT,%function
	.code	16                              @ @UART_EndTransmit_IT
	.thumb_func
UART_EndTransmit_IT:
.Lfunc_begin43:
	.loc	7 2352 0 is_stmt 1              @ ../ThirdParty/STM32F4xx_HAL_Driver/Src/stm32f4xx_hal_uart.c:2352:0
	.fnstart
	.cfi_startproc
@ %bb.0:
	.save	{r7, lr}
	push	{r7, lr}
	.cfi_def_cfa_offset 8
	.cfi_offset lr, -4
	.cfi_offset r7, -8
	.pad	#8
	sub	sp, #8
	.cfi_def_cfa_offset 16
	str	r0, [sp, #4]
.Ltmp552:
	.loc	7 2354 3 prologue_end           @ ../ThirdParty/STM32F4xx_HAL_Driver/Src/stm32f4xx_hal_uart.c:2354:3
	ldr	r0, [sp, #4]
	ldr	r1, [r0]
	ldr	r0, [r1, #12]
	bic	r0, r0, #64
	str	r0, [r1, #12]
	.loc	7 2357 3                        @ ../ThirdParty/STM32F4xx_HAL_Driver/Src/stm32f4xx_hal_uart.c:2357:3
	ldr	r1, [sp, #4]
	movs	r0, #32
	.loc	7 2357 17 is_stmt 0             @ ../ThirdParty/STM32F4xx_HAL_Driver/Src/stm32f4xx_hal_uart.c:2357:17
	strb.w	r0, [r1, #57]
	.loc	7 2359 27 is_stmt 1             @ ../ThirdParty/STM32F4xx_HAL_Driver/Src/stm32f4xx_hal_uart.c:2359:27
	ldr	r0, [sp, #4]
	.loc	7 2359 3 is_stmt 0              @ ../ThirdParty/STM32F4xx_HAL_Driver/Src/stm32f4xx_hal_uart.c:2359:3
	bl	HAL_UART_TxCpltCallback
	movs	r0, #0
	.loc	7 2361 3 epilogue_begin is_stmt 1 @ ../ThirdParty/STM32F4xx_HAL_Driver/Src/stm32f4xx_hal_uart.c:2361:3
	add	sp, #8
	pop	{r7, pc}
.Ltmp553:
.Lfunc_end43:
	.size	UART_EndTransmit_IT, .Lfunc_end43-UART_EndTransmit_IT
	.cfi_endproc
	.cantunwind
	.fnend
                                        @ -- End function
	.section	.text.HAL_UART_TxCpltCallback,"ax",%progbits
	.hidden	HAL_UART_TxCpltCallback         @ -- Begin function HAL_UART_TxCpltCallback
	.weak	HAL_UART_TxCpltCallback
	.p2align	2
	.type	HAL_UART_TxCpltCallback,%function
	.code	16                              @ @HAL_UART_TxCpltCallback
	.thumb_func
HAL_UART_TxCpltCallback:
.Lfunc_begin44:
	.loc	7 1651 0                        @ ../ThirdParty/STM32F4xx_HAL_Driver/Src/stm32f4xx_hal_uart.c:1651:0
	.fnstart
	.cfi_startproc
@ %bb.0:
	.pad	#4
	sub	sp, #4
	.cfi_def_cfa_offset 4
	str	r0, [sp]
.Ltmp554:
	.loc	7 1657 1 prologue_end epilogue_begin @ ../ThirdParty/STM32F4xx_HAL_Driver/Src/stm32f4xx_hal_uart.c:1657:1
	add	sp, #4
	bx	lr
.Ltmp555:
.Lfunc_end44:
	.size	HAL_UART_TxCpltCallback, .Lfunc_end44-HAL_UART_TxCpltCallback
	.cfi_endproc
	.cantunwind
	.fnend
                                        @ -- End function
	.section	.text.HAL_UART_TxHalfCpltCallback,"ax",%progbits
	.hidden	HAL_UART_TxHalfCpltCallback     @ -- Begin function HAL_UART_TxHalfCpltCallback
	.weak	HAL_UART_TxHalfCpltCallback
	.p2align	2
	.type	HAL_UART_TxHalfCpltCallback,%function
	.code	16                              @ @HAL_UART_TxHalfCpltCallback
	.thumb_func
HAL_UART_TxHalfCpltCallback:
.Lfunc_begin45:
	.loc	7 1666 0                        @ ../ThirdParty/STM32F4xx_HAL_Driver/Src/stm32f4xx_hal_uart.c:1666:0
	.fnstart
	.cfi_startproc
@ %bb.0:
	.pad	#4
	sub	sp, #4
	.cfi_def_cfa_offset 4
	str	r0, [sp]
.Ltmp556:
	.loc	7 1672 1 prologue_end epilogue_begin @ ../ThirdParty/STM32F4xx_HAL_Driver/Src/stm32f4xx_hal_uart.c:1672:1
	add	sp, #4
	bx	lr
.Ltmp557:
.Lfunc_end45:
	.size	HAL_UART_TxHalfCpltCallback, .Lfunc_end45-HAL_UART_TxHalfCpltCallback
	.cfi_endproc
	.cantunwind
	.fnend
                                        @ -- End function
	.section	.text.HAL_UART_RxCpltCallback,"ax",%progbits
	.hidden	HAL_UART_RxCpltCallback         @ -- Begin function HAL_UART_RxCpltCallback
	.weak	HAL_UART_RxCpltCallback
	.p2align	2
	.type	HAL_UART_RxCpltCallback,%function
	.code	16                              @ @HAL_UART_RxCpltCallback
	.thumb_func
HAL_UART_RxCpltCallback:
.Lfunc_begin46:
	.loc	7 1681 0                        @ ../ThirdParty/STM32F4xx_HAL_Driver/Src/stm32f4xx_hal_uart.c:1681:0
	.fnstart
	.cfi_startproc
@ %bb.0:
	.pad	#4
	sub	sp, #4
	.cfi_def_cfa_offset 4
	str	r0, [sp]
.Ltmp558:
	.loc	7 1687 1 prologue_end epilogue_begin @ ../ThirdParty/STM32F4xx_HAL_Driver/Src/stm32f4xx_hal_uart.c:1687:1
	add	sp, #4
	bx	lr
.Ltmp559:
.Lfunc_end46:
	.size	HAL_UART_RxCpltCallback, .Lfunc_end46-HAL_UART_RxCpltCallback
	.cfi_endproc
	.cantunwind
	.fnend
                                        @ -- End function
	.section	.text.HAL_UART_RxHalfCpltCallback,"ax",%progbits
	.hidden	HAL_UART_RxHalfCpltCallback     @ -- Begin function HAL_UART_RxHalfCpltCallback
	.weak	HAL_UART_RxHalfCpltCallback
	.p2align	2
	.type	HAL_UART_RxHalfCpltCallback,%function
	.code	16                              @ @HAL_UART_RxHalfCpltCallback
	.thumb_func
HAL_UART_RxHalfCpltCallback:
.Lfunc_begin47:
	.loc	7 1696 0                        @ ../ThirdParty/STM32F4xx_HAL_Driver/Src/stm32f4xx_hal_uart.c:1696:0
	.fnstart
	.cfi_startproc
@ %bb.0:
	.pad	#4
	sub	sp, #4
	.cfi_def_cfa_offset 4
	str	r0, [sp]
.Ltmp560:
	.loc	7 1702 1 prologue_end epilogue_begin @ ../ThirdParty/STM32F4xx_HAL_Driver/Src/stm32f4xx_hal_uart.c:1702:1
	add	sp, #4
	bx	lr
.Ltmp561:
.Lfunc_end47:
	.size	HAL_UART_RxHalfCpltCallback, .Lfunc_end47-HAL_UART_RxHalfCpltCallback
	.cfi_endproc
	.cantunwind
	.fnend
                                        @ -- End function
	.section	.text.HAL_LIN_SendBreak,"ax",%progbits
	.hidden	HAL_LIN_SendBreak               @ -- Begin function HAL_LIN_SendBreak
	.globl	HAL_LIN_SendBreak
	.p2align	2
	.type	HAL_LIN_SendBreak,%function
	.code	16                              @ @HAL_LIN_SendBreak
	.thumb_func
HAL_LIN_SendBreak:
.Lfunc_begin48:
	.loc	7 1791 0                        @ ../ThirdParty/STM32F4xx_HAL_Driver/Src/stm32f4xx_hal_uart.c:1791:0
	.fnstart
	.cfi_startproc
@ %bb.0:
	.pad	#8
	sub	sp, #8
	.cfi_def_cfa_offset 8
	str	r0, [sp]
.Ltmp562:
	.loc	7 1796 3 prologue_end           @ ../ThirdParty/STM32F4xx_HAL_Driver/Src/stm32f4xx_hal_uart.c:1796:3
	b	.LBB48_1
.LBB48_1:
.Ltmp563:
	.loc	7 1796 3 is_stmt 0              @ ../ThirdParty/STM32F4xx_HAL_Driver/Src/stm32f4xx_hal_uart.c:1796:3
	ldr	r0, [sp]
	ldrb.w	r0, [r0, #56]
.Ltmp564:
	.loc	7 1796 3                        @ ../ThirdParty/STM32F4xx_HAL_Driver/Src/stm32f4xx_hal_uart.c:1796:3
	cmp	r0, #1
	bne	.LBB48_3
	b	.LBB48_2
.LBB48_2:
	.loc	7 0 3                           @ ../ThirdParty/STM32F4xx_HAL_Driver/Src/stm32f4xx_hal_uart.c:0:3
	movs	r0, #2
.Ltmp565:
	.loc	7 1796 3                        @ ../ThirdParty/STM32F4xx_HAL_Driver/Src/stm32f4xx_hal_uart.c:1796:3
	strb.w	r0, [sp, #7]
	b	.LBB48_8
.Ltmp566:
.LBB48_3:
	.loc	7 1796 3                        @ ../ThirdParty/STM32F4xx_HAL_Driver/Src/stm32f4xx_hal_uart.c:1796:3
	ldr	r1, [sp]
	movs	r0, #1
	strb.w	r0, [r1, #56]
	b	.LBB48_4
.Ltmp567:
.LBB48_4:
	.loc	7 1796 3                        @ ../ThirdParty/STM32F4xx_HAL_Driver/Src/stm32f4xx_hal_uart.c:1796:3
	b	.LBB48_5
.Ltmp568:
.LBB48_5:
	.loc	7 1798 3 is_stmt 1              @ ../ThirdParty/STM32F4xx_HAL_Driver/Src/stm32f4xx_hal_uart.c:1798:3
	ldr	r1, [sp]
	movs	r0, #36
	.loc	7 1798 17 is_stmt 0             @ ../ThirdParty/STM32F4xx_HAL_Driver/Src/stm32f4xx_hal_uart.c:1798:17
	strb.w	r0, [r1, #57]
	.loc	7 1801 3 is_stmt 1              @ ../ThirdParty/STM32F4xx_HAL_Driver/Src/stm32f4xx_hal_uart.c:1801:3
	ldr	r0, [sp]
	ldr	r1, [r0]
	ldr	r0, [r1, #12]
	orr	r0, r0, #1
	str	r0, [r1, #12]
	.loc	7 1803 3                        @ ../ThirdParty/STM32F4xx_HAL_Driver/Src/stm32f4xx_hal_uart.c:1803:3
	ldr	r1, [sp]
	movs	r0, #32
	.loc	7 1803 17 is_stmt 0             @ ../ThirdParty/STM32F4xx_HAL_Driver/Src/stm32f4xx_hal_uart.c:1803:17
	strb.w	r0, [r1, #57]
	.loc	7 1806 3 is_stmt 1              @ ../ThirdParty/STM32F4xx_HAL_Driver/Src/stm32f4xx_hal_uart.c:1806:3
	b	.LBB48_6
.LBB48_6:
.Ltmp569:
	.loc	7 1806 3 is_stmt 0              @ ../ThirdParty/STM32F4xx_HAL_Driver/Src/stm32f4xx_hal_uart.c:1806:3
	ldr	r1, [sp]
	movs	r0, #0
	strb.w	r0, [r1, #56]
	b	.LBB48_7
.Ltmp570:
.LBB48_7:
	.loc	7 0 3                           @ ../ThirdParty/STM32F4xx_HAL_Driver/Src/stm32f4xx_hal_uart.c:0:3
	movs	r0, #0
	.loc	7 1808 3 is_stmt 1              @ ../ThirdParty/STM32F4xx_HAL_Driver/Src/stm32f4xx_hal_uart.c:1808:3
	strb.w	r0, [sp, #7]
	b	.LBB48_8
.LBB48_8:
	.loc	7 1809 1                        @ ../ThirdParty/STM32F4xx_HAL_Driver/Src/stm32f4xx_hal_uart.c:1809:1
	ldrb.w	r0, [sp, #7]
	.loc	7 1809 1 epilogue_begin is_stmt 0 @ ../ThirdParty/STM32F4xx_HAL_Driver/Src/stm32f4xx_hal_uart.c:1809:1
	add	sp, #8
	bx	lr
.Ltmp571:
.Lfunc_end48:
	.size	HAL_LIN_SendBreak, .Lfunc_end48-HAL_LIN_SendBreak
	.cfi_endproc
	.cantunwind
	.fnend
                                        @ -- End function
	.section	.text.HAL_MultiProcessor_EnterMuteMode,"ax",%progbits
	.hidden	HAL_MultiProcessor_EnterMuteMode @ -- Begin function HAL_MultiProcessor_EnterMuteMode
	.globl	HAL_MultiProcessor_EnterMuteMode
	.p2align	2
	.type	HAL_MultiProcessor_EnterMuteMode,%function
	.code	16                              @ @HAL_MultiProcessor_EnterMuteMode
	.thumb_func
HAL_MultiProcessor_EnterMuteMode:
.Lfunc_begin49:
	.loc	7 1818 0 is_stmt 1              @ ../ThirdParty/STM32F4xx_HAL_Driver/Src/stm32f4xx_hal_uart.c:1818:0
	.fnstart
	.cfi_startproc
@ %bb.0:
	.pad	#8
	sub	sp, #8
	.cfi_def_cfa_offset 8
	str	r0, [sp]
.Ltmp572:
	.loc	7 1823 3 prologue_end           @ ../ThirdParty/STM32F4xx_HAL_Driver/Src/stm32f4xx_hal_uart.c:1823:3
	b	.LBB49_1
.LBB49_1:
.Ltmp573:
	.loc	7 1823 3 is_stmt 0              @ ../ThirdParty/STM32F4xx_HAL_Driver/Src/stm32f4xx_hal_uart.c:1823:3
	ldr	r0, [sp]
	ldrb.w	r0, [r0, #56]
.Ltmp574:
	.loc	7 1823 3                        @ ../ThirdParty/STM32F4xx_HAL_Driver/Src/stm32f4xx_hal_uart.c:1823:3
	cmp	r0, #1
	bne	.LBB49_3
	b	.LBB49_2
.LBB49_2:
	.loc	7 0 3                           @ ../ThirdParty/STM32F4xx_HAL_Driver/Src/stm32f4xx_hal_uart.c:0:3
	movs	r0, #2
.Ltmp575:
	.loc	7 1823 3                        @ ../ThirdParty/STM32F4xx_HAL_Driver/Src/stm32f4xx_hal_uart.c:1823:3
	strb.w	r0, [sp, #7]
	b	.LBB49_8
.Ltmp576:
.LBB49_3:
	.loc	7 1823 3                        @ ../ThirdParty/STM32F4xx_HAL_Driver/Src/stm32f4xx_hal_uart.c:1823:3
	ldr	r1, [sp]
	movs	r0, #1
	strb.w	r0, [r1, #56]
	b	.LBB49_4
.Ltmp577:
.LBB49_4:
	.loc	7 1823 3                        @ ../ThirdParty/STM32F4xx_HAL_Driver/Src/stm32f4xx_hal_uart.c:1823:3
	b	.LBB49_5
.Ltmp578:
.LBB49_5:
	.loc	7 1825 3 is_stmt 1              @ ../ThirdParty/STM32F4xx_HAL_Driver/Src/stm32f4xx_hal_uart.c:1825:3
	ldr	r1, [sp]
	movs	r0, #36
	.loc	7 1825 17 is_stmt 0             @ ../ThirdParty/STM32F4xx_HAL_Driver/Src/stm32f4xx_hal_uart.c:1825:17
	strb.w	r0, [r1, #57]
	.loc	7 1828 3 is_stmt 1              @ ../ThirdParty/STM32F4xx_HAL_Driver/Src/stm32f4xx_hal_uart.c:1828:3
	ldr	r0, [sp]
	ldr	r1, [r0]
	ldr	r0, [r1, #12]
	orr	r0, r0, #2
	str	r0, [r1, #12]
	.loc	7 1830 3                        @ ../ThirdParty/STM32F4xx_HAL_Driver/Src/stm32f4xx_hal_uart.c:1830:3
	ldr	r1, [sp]
	movs	r0, #32
	.loc	7 1830 17 is_stmt 0             @ ../ThirdParty/STM32F4xx_HAL_Driver/Src/stm32f4xx_hal_uart.c:1830:17
