	.text
	.syntax unified
	.eabi_attribute	67, "2.09"	@ Tag_conformance
	.cpu	cortex-m4
	.eabi_attribute	6, 13	@ Tag_CPU_arch
	.eabi_attribute	7, 77	@ Tag_CPU_arch_profile
	.eabi_attribute	8, 0	@ Tag_ARM_ISA_use
	.eabi_attribute	9, 2	@ Tag_THUMB_ISA_use
	.fpu	fpv4-sp-d16
	.eabi_attribute	27, 1	@ Tag_ABI_HardFP_use
	.eabi_attribute	36, 1	@ Tag_FP_HP_extension
	.eabi_attribute	34, 1	@ Tag_CPU_unaligned_access
	.eabi_attribute	17, 1	@ Tag_ABI_PCS_GOT_use
	.eabi_attribute	20, 2	@ Tag_ABI_FP_denormal
	.eabi_attribute	21, 0	@ Tag_ABI_FP_exceptions
	.eabi_attribute	23, 1	@ Tag_ABI_FP_number_model
	.eabi_attribute	24, 1	@ Tag_ABI_align_needed
	.eabi_attribute	25, 1	@ Tag_ABI_align_preserved
	.eabi_attribute	28, 1	@ Tag_ABI_VFP_args
	.eabi_attribute	38, 1	@ Tag_ABI_FP_16bit_format
	.eabi_attribute	18, 2	@ Tag_ABI_PCS_wchar_t
	.eabi_attribute	26, 1	@ Tag_ABI_enum_size
	.eabi_attribute	14, 0	@ Tag_ABI_PCS_R9_use
	.file	"stm32f4xx_hal_tim_ex.c"
	.file	1 "D:\\ikingtec\\Robot\\ODrive\\Firmware\\MDK-ARM" "../ThirdParty/STM32F4xx_HAL_Driver/Inc/stm32f4xx_hal_def.h"
	.file	2 "D:\\ikingtec\\Robot\\ODrive\\Firmware\\MDK-ARM" "../ThirdParty/STM32F4xx_HAL_Driver/Inc\\stm32f4xx_hal_tim.h"
	.file	3 "D:\\ikingtec\\Robot\\ODrive\\Firmware\\MDK-ARM" "../ThirdParty/STM32F4xx_HAL_Driver/Inc\\stm32f4xx_hal_dma.h"
	.file	4 "D:\\ikingtec\\Robot\\ODrive\\Firmware\\MDK-ARM" "../ThirdParty/CMSIS/Device/ST/STM32F4xx/Include\\stm32f4xx.h"
	.file	5 "D:\\Embed\\MDK\\MDK\\ARM\\ARMCompilerV621\\Bin\\..\\include" "stdint.h"
	.file	6 "D:\\ikingtec\\Robot\\ODrive\\Firmware\\MDK-ARM" "../ThirdParty/CMSIS/Device/ST/STM32F4xx/Include/stm32f405xx.h"
	.section	.text.HAL_TIMEx_HallSensor_Init,"ax",%progbits
	.hidden	HAL_TIMEx_HallSensor_Init       @ -- Begin function HAL_TIMEx_HallSensor_Init
	.globl	HAL_TIMEx_HallSensor_Init
	.p2align	2
	.type	HAL_TIMEx_HallSensor_Init,%function
	.code	16                              @ @HAL_TIMEx_HallSensor_Init
	.thumb_func
HAL_TIMEx_HallSensor_Init:
.Lfunc_begin0:
	.file	7 "D:\\ikingtec\\Robot\\ODrive\\Firmware\\MDK-ARM" "../ThirdParty/STM32F4xx_HAL_Driver/Src/stm32f4xx_hal_tim_ex.c"
	.loc	7 158 0                         @ ../ThirdParty/STM32F4xx_HAL_Driver/Src/stm32f4xx_hal_tim_ex.c:158:0
	.fnstart
	.cfi_sections .debug_frame
	.cfi_startproc
@ %bb.0:
	.save	{r7, lr}
	push	{r7, lr}
	.cfi_def_cfa_offset 8
	.cfi_offset lr, -4
	.cfi_offset r7, -8
	.pad	#48
	sub	sp, #48
	.cfi_def_cfa_offset 56
	str	r0, [sp, #40]
	str	r1, [sp, #36]
.Ltmp0:
	.loc	7 162 6 prologue_end            @ ../ThirdParty/STM32F4xx_HAL_Driver/Src/stm32f4xx_hal_tim_ex.c:162:6
	ldr	r0, [sp, #40]
.Ltmp1:
	.loc	7 162 6 is_stmt 0               @ ../ThirdParty/STM32F4xx_HAL_Driver/Src/stm32f4xx_hal_tim_ex.c:162:6
	cbnz	r0, .LBB0_2
	b	.LBB0_1
.LBB0_1:
	.loc	7 0 6                           @ ../ThirdParty/STM32F4xx_HAL_Driver/Src/stm32f4xx_hal_tim_ex.c:0:6
	movs	r0, #1
.Ltmp2:
	.loc	7 164 5 is_stmt 1               @ ../ThirdParty/STM32F4xx_HAL_Driver/Src/stm32f4xx_hal_tim_ex.c:164:5
	strb.w	r0, [sp, #47]
	b	.LBB0_3
.Ltmp3:
.LBB0_2:
	.loc	7 175 3                         @ ../ThirdParty/STM32F4xx_HAL_Driver/Src/stm32f4xx_hal_tim_ex.c:175:3
	ldr	r1, [sp, #40]
	movs	r0, #2
	.loc	7 175 14 is_stmt 0              @ ../ThirdParty/STM32F4xx_HAL_Driver/Src/stm32f4xx_hal_tim_ex.c:175:14
	strb.w	r0, [r1, #57]
	.loc	7 178 32 is_stmt 1              @ ../ThirdParty/STM32F4xx_HAL_Driver/Src/stm32f4xx_hal_tim_ex.c:178:32
	ldr	r0, [sp, #40]
	.loc	7 178 3 is_stmt 0               @ ../ThirdParty/STM32F4xx_HAL_Driver/Src/stm32f4xx_hal_tim_ex.c:178:3
	bl	HAL_TIMEx_HallSensor_MspInit
	.loc	7 181 22 is_stmt 1              @ ../ThirdParty/STM32F4xx_HAL_Driver/Src/stm32f4xx_hal_tim_ex.c:181:22
	ldr	r1, [sp, #40]
	.loc	7 181 28 is_stmt 0              @ ../ThirdParty/STM32F4xx_HAL_Driver/Src/stm32f4xx_hal_tim_ex.c:181:28
	ldr	r0, [r1], #4
	.loc	7 181 3                         @ ../ThirdParty/STM32F4xx_HAL_Driver/Src/stm32f4xx_hal_tim_ex.c:181:3
	bl	TIM_Base_SetConfig
	.loc	7 184 21 is_stmt 1              @ ../ThirdParty/STM32F4xx_HAL_Driver/Src/stm32f4xx_hal_tim_ex.c:184:21
	ldr	r0, [sp, #40]
	.loc	7 184 27 is_stmt 0              @ ../ThirdParty/STM32F4xx_HAL_Driver/Src/stm32f4xx_hal_tim_ex.c:184:27
	ldr	r0, [r0]
	.loc	7 184 37                        @ ../ThirdParty/STM32F4xx_HAL_Driver/Src/stm32f4xx_hal_tim_ex.c:184:37
	ldr	r2, [sp, #36]
	.loc	7 184 46                        @ ../ThirdParty/STM32F4xx_HAL_Driver/Src/stm32f4xx_hal_tim_ex.c:184:46
	ldr	r1, [r2]
	.loc	7 184 89                        @ ../ThirdParty/STM32F4xx_HAL_Driver/Src/stm32f4xx_hal_tim_ex.c:184:89
	ldr	r3, [r2, #8]
	movs	r2, #3
	.loc	7 184 3                         @ ../ThirdParty/STM32F4xx_HAL_Driver/Src/stm32f4xx_hal_tim_ex.c:184:3
	bl	TIM_TI1_SetConfig
	.loc	7 187 3 is_stmt 1               @ ../ThirdParty/STM32F4xx_HAL_Driver/Src/stm32f4xx_hal_tim_ex.c:187:3
	ldr	r0, [sp, #40]
	.loc	7 187 9 is_stmt 0               @ ../ThirdParty/STM32F4xx_HAL_Driver/Src/stm32f4xx_hal_tim_ex.c:187:9
	ldr	r1, [r0]
	.loc	7 187 25                        @ ../ThirdParty/STM32F4xx_HAL_Driver/Src/stm32f4xx_hal_tim_ex.c:187:25
	ldr	r0, [r1, #24]
	bic	r0, r0, #12
	str	r0, [r1, #24]
	.loc	7 189 28 is_stmt 1              @ ../ThirdParty/STM32F4xx_HAL_Driver/Src/stm32f4xx_hal_tim_ex.c:189:28
	ldr	r0, [sp, #36]
	.loc	7 189 37 is_stmt 0              @ ../ThirdParty/STM32F4xx_HAL_Driver/Src/stm32f4xx_hal_tim_ex.c:189:37
	ldr	r2, [r0, #4]
	.loc	7 189 3                         @ ../ThirdParty/STM32F4xx_HAL_Driver/Src/stm32f4xx_hal_tim_ex.c:189:3
	ldr	r0, [sp, #40]
	.loc	7 189 9                         @ ../ThirdParty/STM32F4xx_HAL_Driver/Src/stm32f4xx_hal_tim_ex.c:189:9
	ldr	r1, [r0]
	.loc	7 189 25                        @ ../ThirdParty/STM32F4xx_HAL_Driver/Src/stm32f4xx_hal_tim_ex.c:189:25
	ldr	r0, [r1, #24]
	orrs	r0, r2
	str	r0, [r1, #24]
	.loc	7 192 3 is_stmt 1               @ ../ThirdParty/STM32F4xx_HAL_Driver/Src/stm32f4xx_hal_tim_ex.c:192:3
	ldr	r0, [sp, #40]
	.loc	7 192 9 is_stmt 0               @ ../ThirdParty/STM32F4xx_HAL_Driver/Src/stm32f4xx_hal_tim_ex.c:192:9
	ldr	r1, [r0]
	.loc	7 192 23                        @ ../ThirdParty/STM32F4xx_HAL_Driver/Src/stm32f4xx_hal_tim_ex.c:192:23
	ldr	r0, [r1, #4]
	orr	r0, r0, #128
	str	r0, [r1, #4]
	.loc	7 195 3 is_stmt 1               @ ../ThirdParty/STM32F4xx_HAL_Driver/Src/stm32f4xx_hal_tim_ex.c:195:3
	ldr	r0, [sp, #40]
	.loc	7 195 9 is_stmt 0               @ ../ThirdParty/STM32F4xx_HAL_Driver/Src/stm32f4xx_hal_tim_ex.c:195:9
	ldr	r1, [r0]
	.loc	7 195 24                        @ ../ThirdParty/STM32F4xx_HAL_Driver/Src/stm32f4xx_hal_tim_ex.c:195:24
	ldr	r0, [r1, #8]
	bic	r0, r0, #112
	str	r0, [r1, #8]
	.loc	7 196 3 is_stmt 1               @ ../ThirdParty/STM32F4xx_HAL_Driver/Src/stm32f4xx_hal_tim_ex.c:196:3
	ldr	r0, [sp, #40]
	.loc	7 196 9 is_stmt 0               @ ../ThirdParty/STM32F4xx_HAL_Driver/Src/stm32f4xx_hal_tim_ex.c:196:9
	ldr	r1, [r0]
	.loc	7 196 24                        @ ../ThirdParty/STM32F4xx_HAL_Driver/Src/stm32f4xx_hal_tim_ex.c:196:24
	ldr	r0, [r1, #8]
	orr	r0, r0, #64
	str	r0, [r1, #8]
	.loc	7 199 3 is_stmt 1               @ ../ThirdParty/STM32F4xx_HAL_Driver/Src/stm32f4xx_hal_tim_ex.c:199:3
	ldr	r0, [sp, #40]
	.loc	7 199 9 is_stmt 0               @ ../ThirdParty/STM32F4xx_HAL_Driver/Src/stm32f4xx_hal_tim_ex.c:199:9
	ldr	r1, [r0]
	.loc	7 199 24                        @ ../ThirdParty/STM32F4xx_HAL_Driver/Src/stm32f4xx_hal_tim_ex.c:199:24
	ldr	r0, [r1, #8]
	bic	r0, r0, #7
	str	r0, [r1, #8]
	.loc	7 200 3 is_stmt 1               @ ../ThirdParty/STM32F4xx_HAL_Driver/Src/stm32f4xx_hal_tim_ex.c:200:3
	ldr	r0, [sp, #40]
	.loc	7 200 9 is_stmt 0               @ ../ThirdParty/STM32F4xx_HAL_Driver/Src/stm32f4xx_hal_tim_ex.c:200:9
	ldr	r1, [r0]
	.loc	7 200 24                        @ ../ThirdParty/STM32F4xx_HAL_Driver/Src/stm32f4xx_hal_tim_ex.c:200:24
	ldr	r0, [r1, #8]
	orr	r0, r0, #4
	str	r0, [r1, #8]
	movs	r0, #0
	.loc	7 203 24 is_stmt 1              @ ../ThirdParty/STM32F4xx_HAL_Driver/Src/stm32f4xx_hal_tim_ex.c:203:24
	str	r0, [sp, #4]                    @ 4-byte Spill
	str	r0, [sp, #24]
	.loc	7 204 25                        @ ../ThirdParty/STM32F4xx_HAL_Driver/Src/stm32f4xx_hal_tim_ex.c:204:25
	str	r0, [sp, #28]
	movs	r1, #112
	.loc	7 205 20                        @ ../ThirdParty/STM32F4xx_HAL_Driver/Src/stm32f4xx_hal_tim_ex.c:205:20
	str	r1, [sp, #8]
	.loc	7 206 26                        @ ../ThirdParty/STM32F4xx_HAL_Driver/Src/stm32f4xx_hal_tim_ex.c:206:26
	str	r0, [sp, #32]
	.loc	7 207 25                        @ ../ThirdParty/STM32F4xx_HAL_Driver/Src/stm32f4xx_hal_tim_ex.c:207:25
	str	r0, [sp, #20]
	.loc	7 208 24                        @ ../ThirdParty/STM32F4xx_HAL_Driver/Src/stm32f4xx_hal_tim_ex.c:208:24
	str	r0, [sp, #16]
	.loc	7 209 21                        @ ../ThirdParty/STM32F4xx_HAL_Driver/Src/stm32f4xx_hal_tim_ex.c:209:21
	ldr	r0, [sp, #36]
	.loc	7 209 30 is_stmt 0              @ ../ThirdParty/STM32F4xx_HAL_Driver/Src/stm32f4xx_hal_tim_ex.c:209:30
	ldr	r0, [r0, #12]
	.loc	7 209 19                        @ ../ThirdParty/STM32F4xx_HAL_Driver/Src/stm32f4xx_hal_tim_ex.c:209:19
	str	r0, [sp, #12]
	.loc	7 211 21 is_stmt 1              @ ../ThirdParty/STM32F4xx_HAL_Driver/Src/stm32f4xx_hal_tim_ex.c:211:21
	ldr	r0, [sp, #40]
	.loc	7 211 27 is_stmt 0              @ ../ThirdParty/STM32F4xx_HAL_Driver/Src/stm32f4xx_hal_tim_ex.c:211:27
	ldr	r0, [r0]
	add	r1, sp, #8
	.loc	7 211 3                         @ ../ThirdParty/STM32F4xx_HAL_Driver/Src/stm32f4xx_hal_tim_ex.c:211:3
	bl	TIM_OC2_SetConfig
	ldr	r0, [sp, #4]                    @ 4-byte Reload
	.loc	7 215 3 is_stmt 1               @ ../ThirdParty/STM32F4xx_HAL_Driver/Src/stm32f4xx_hal_tim_ex.c:215:3
	ldr	r1, [sp, #40]
	.loc	7 215 9 is_stmt 0               @ ../ThirdParty/STM32F4xx_HAL_Driver/Src/stm32f4xx_hal_tim_ex.c:215:9
	ldr	r2, [r1]
	.loc	7 215 23                        @ ../ThirdParty/STM32F4xx_HAL_Driver/Src/stm32f4xx_hal_tim_ex.c:215:23
	ldr	r1, [r2, #4]
	bic	r1, r1, #112
	str	r1, [r2, #4]
	.loc	7 216 3 is_stmt 1               @ ../ThirdParty/STM32F4xx_HAL_Driver/Src/stm32f4xx_hal_tim_ex.c:216:3
	ldr	r1, [sp, #40]
	.loc	7 216 9 is_stmt 0               @ ../ThirdParty/STM32F4xx_HAL_Driver/Src/stm32f4xx_hal_tim_ex.c:216:9
	ldr	r2, [r1]
	.loc	7 216 23                        @ ../ThirdParty/STM32F4xx_HAL_Driver/Src/stm32f4xx_hal_tim_ex.c:216:23
	ldr	r1, [r2, #4]
	orr	r1, r1, #80
	str	r1, [r2, #4]
	.loc	7 219 3 is_stmt 1               @ ../ThirdParty/STM32F4xx_HAL_Driver/Src/stm32f4xx_hal_tim_ex.c:219:3
	ldr	r2, [sp, #40]
	movs	r1, #1
	.loc	7 219 14 is_stmt 0              @ ../ThirdParty/STM32F4xx_HAL_Driver/Src/stm32f4xx_hal_tim_ex.c:219:14
	strb.w	r1, [r2, #57]
	.loc	7 221 3 is_stmt 1               @ ../ThirdParty/STM32F4xx_HAL_Driver/Src/stm32f4xx_hal_tim_ex.c:221:3
	strb.w	r0, [sp, #47]
	b	.LBB0_3
.LBB0_3:
	.loc	7 222 1                         @ ../ThirdParty/STM32F4xx_HAL_Driver/Src/stm32f4xx_hal_tim_ex.c:222:1
	ldrb.w	r0, [sp, #47]
	.loc	7 222 1 epilogue_begin is_stmt 0 @ ../ThirdParty/STM32F4xx_HAL_Driver/Src/stm32f4xx_hal_tim_ex.c:222:1
	add	sp, #48
	pop	{r7, pc}
.Ltmp4:
.Lfunc_end0:
	.size	HAL_TIMEx_HallSensor_Init, .Lfunc_end0-HAL_TIMEx_HallSensor_Init
	.cfi_endproc
	.cantunwind
	.fnend
                                        @ -- End function
	.section	.text.HAL_TIMEx_HallSensor_MspInit,"ax",%progbits
	.hidden	HAL_TIMEx_HallSensor_MspInit    @ -- Begin function HAL_TIMEx_HallSensor_MspInit
	.weak	HAL_TIMEx_HallSensor_MspInit
	.p2align	2
	.type	HAL_TIMEx_HallSensor_MspInit,%function
	.code	16                              @ @HAL_TIMEx_HallSensor_MspInit
	.thumb_func
HAL_TIMEx_HallSensor_MspInit:
.Lfunc_begin1:
	.loc	7 259 0 is_stmt 1               @ ../ThirdParty/STM32F4xx_HAL_Driver/Src/stm32f4xx_hal_tim_ex.c:259:0
	.fnstart
	.cfi_startproc
@ %bb.0:
	.pad	#4
	sub	sp, #4
	.cfi_def_cfa_offset 4
	str	r0, [sp]
.Ltmp5:
	.loc	7 265 1 prologue_end epilogue_begin @ ../ThirdParty/STM32F4xx_HAL_Driver/Src/stm32f4xx_hal_tim_ex.c:265:1
	add	sp, #4
	bx	lr
.Ltmp6:
.Lfunc_end1:
	.size	HAL_TIMEx_HallSensor_MspInit, .Lfunc_end1-HAL_TIMEx_HallSensor_MspInit
	.cfi_endproc
	.cantunwind
	.fnend
                                        @ -- End function
	.section	.text.HAL_TIMEx_HallSensor_DeInit,"ax",%progbits
	.hidden	HAL_TIMEx_HallSensor_DeInit     @ -- Begin function HAL_TIMEx_HallSensor_DeInit
	.globl	HAL_TIMEx_HallSensor_DeInit
	.p2align	2
	.type	HAL_TIMEx_HallSensor_DeInit,%function
	.code	16                              @ @HAL_TIMEx_HallSensor_DeInit
	.thumb_func
HAL_TIMEx_HallSensor_DeInit:
.Lfunc_begin2:
	.loc	7 231 0                         @ ../ThirdParty/STM32F4xx_HAL_Driver/Src/stm32f4xx_hal_tim_ex.c:231:0
	.fnstart
	.cfi_startproc
@ %bb.0:
	.save	{r7, lr}
	push	{r7, lr}
	.cfi_def_cfa_offset 8
	.cfi_offset lr, -4
	.cfi_offset r7, -8
	.pad	#8
	sub	sp, #8
	.cfi_def_cfa_offset 16
	str	r0, [sp, #4]
.Ltmp7:
	.loc	7 235 3 prologue_end            @ ../ThirdParty/STM32F4xx_HAL_Driver/Src/stm32f4xx_hal_tim_ex.c:235:3
	ldr	r1, [sp, #4]
	movs	r0, #2
	.loc	7 235 15 is_stmt 0              @ ../ThirdParty/STM32F4xx_HAL_Driver/Src/stm32f4xx_hal_tim_ex.c:235:15
	strb.w	r0, [r1, #57]
	.loc	7 238 3 is_stmt 1               @ ../ThirdParty/STM32F4xx_HAL_Driver/Src/stm32f4xx_hal_tim_ex.c:238:3
	b	.LBB2_1
.LBB2_1:
.Ltmp8:
	.loc	7 238 3 is_stmt 0               @ ../ThirdParty/STM32F4xx_HAL_Driver/Src/stm32f4xx_hal_tim_ex.c:238:3
	ldr	r0, [sp, #4]
	ldr	r0, [r0]
	ldr	r0, [r0, #32]
	movw	r1, #4369
.Ltmp9:
	.loc	7 238 3                         @ ../ThirdParty/STM32F4xx_HAL_Driver/Src/stm32f4xx_hal_tim_ex.c:238:3
	tst	r0, r1
	bne	.LBB2_5
	b	.LBB2_2
.LBB2_2:
.Ltmp10:
	.loc	7 238 3                         @ ../ThirdParty/STM32F4xx_HAL_Driver/Src/stm32f4xx_hal_tim_ex.c:238:3
	ldr	r0, [sp, #4]
	ldr	r0, [r0]
	ldr	r0, [r0, #32]
	movw	r1, #1092
.Ltmp11:
	.loc	7 238 3                         @ ../ThirdParty/STM32F4xx_HAL_Driver/Src/stm32f4xx_hal_tim_ex.c:238:3
	tst	r0, r1
	bne	.LBB2_4
	b	.LBB2_3
.LBB2_3:
.Ltmp12:
	.loc	7 238 3                         @ ../ThirdParty/STM32F4xx_HAL_Driver/Src/stm32f4xx_hal_tim_ex.c:238:3
	ldr	r0, [sp, #4]
	ldr	r1, [r0]
	ldr	r0, [r1]
	bic	r0, r0, #1
	str	r0, [r1]
	b	.LBB2_4
.Ltmp13:
.LBB2_4:
	.loc	7 238 3                         @ ../ThirdParty/STM32F4xx_HAL_Driver/Src/stm32f4xx_hal_tim_ex.c:238:3
	b	.LBB2_5
.Ltmp14:
.LBB2_5:
	.loc	7 238 3                         @ ../ThirdParty/STM32F4xx_HAL_Driver/Src/stm32f4xx_hal_tim_ex.c:238:3
	b	.LBB2_6
.Ltmp15:
.LBB2_6:
	.loc	7 241 34 is_stmt 1              @ ../ThirdParty/STM32F4xx_HAL_Driver/Src/stm32f4xx_hal_tim_ex.c:241:34
	ldr	r0, [sp, #4]
	.loc	7 241 3 is_stmt 0               @ ../ThirdParty/STM32F4xx_HAL_Driver/Src/stm32f4xx_hal_tim_ex.c:241:3
	bl	HAL_TIMEx_HallSensor_MspDeInit
	.loc	7 244 3 is_stmt 1               @ ../ThirdParty/STM32F4xx_HAL_Driver/Src/stm32f4xx_hal_tim_ex.c:244:3
	ldr	r1, [sp, #4]
	movs	r0, #0
	.loc	7 244 15 is_stmt 0              @ ../ThirdParty/STM32F4xx_HAL_Driver/Src/stm32f4xx_hal_tim_ex.c:244:15
	strb.w	r0, [r1, #57]
	.loc	7 247 3 is_stmt 1               @ ../ThirdParty/STM32F4xx_HAL_Driver/Src/stm32f4xx_hal_tim_ex.c:247:3
	b	.LBB2_7
.LBB2_7:
.Ltmp16:
	.loc	7 247 3 is_stmt 0               @ ../ThirdParty/STM32F4xx_HAL_Driver/Src/stm32f4xx_hal_tim_ex.c:247:3
	ldr	r1, [sp, #4]
	movs	r0, #0
	strb.w	r0, [r1, #56]
	b	.LBB2_8
.Ltmp17:
.LBB2_8:
	.loc	7 0 3                           @ ../ThirdParty/STM32F4xx_HAL_Driver/Src/stm32f4xx_hal_tim_ex.c:0:3
	movs	r0, #0
	.loc	7 249 3 epilogue_begin is_stmt 1 @ ../ThirdParty/STM32F4xx_HAL_Driver/Src/stm32f4xx_hal_tim_ex.c:249:3
	add	sp, #8
	pop	{r7, pc}
.Ltmp18:
.Lfunc_end2:
	.size	HAL_TIMEx_HallSensor_DeInit, .Lfunc_end2-HAL_TIMEx_HallSensor_DeInit
	.cfi_endproc
	.cantunwind
	.fnend
                                        @ -- End function
	.section	.text.HAL_TIMEx_HallSensor_MspDeInit,"ax",%progbits
	.hidden	HAL_TIMEx_HallSensor_MspDeInit  @ -- Begin function HAL_TIMEx_HallSensor_MspDeInit
	.weak	HAL_TIMEx_HallSensor_MspDeInit
	.p2align	2
	.type	HAL_TIMEx_HallSensor_MspDeInit,%function
	.code	16                              @ @HAL_TIMEx_HallSensor_MspDeInit
	.thumb_func
HAL_TIMEx_HallSensor_MspDeInit:
.Lfunc_begin3:
	.loc	7 274 0                         @ ../ThirdParty/STM32F4xx_HAL_Driver/Src/stm32f4xx_hal_tim_ex.c:274:0
	.fnstart
	.cfi_startproc
@ %bb.0:
	.pad	#4
	sub	sp, #4
	.cfi_def_cfa_offset 4
	str	r0, [sp]
.Ltmp19:
	.loc	7 280 1 prologue_end epilogue_begin @ ../ThirdParty/STM32F4xx_HAL_Driver/Src/stm32f4xx_hal_tim_ex.c:280:1
	add	sp, #4
	bx	lr
.Ltmp20:
.Lfunc_end3:
	.size	HAL_TIMEx_HallSensor_MspDeInit, .Lfunc_end3-HAL_TIMEx_HallSensor_MspDeInit
	.cfi_endproc
	.cantunwind
	.fnend
                                        @ -- End function
	.section	.text.HAL_TIMEx_HallSensor_Start,"ax",%progbits
	.hidden	HAL_TIMEx_HallSensor_Start      @ -- Begin function HAL_TIMEx_HallSensor_Start
	.globl	HAL_TIMEx_HallSensor_Start
	.p2align	2
	.type	HAL_TIMEx_HallSensor_Start,%function
	.code	16                              @ @HAL_TIMEx_HallSensor_Start
	.thumb_func
HAL_TIMEx_HallSensor_Start:
.Lfunc_begin4:
	.loc	7 289 0                         @ ../ThirdParty/STM32F4xx_HAL_Driver/Src/stm32f4xx_hal_tim_ex.c:289:0
	.fnstart
	.cfi_startproc
@ %bb.0:
	.save	{r7, lr}
	push	{r7, lr}
	.cfi_def_cfa_offset 8
	.cfi_offset lr, -4
	.cfi_offset r7, -8
	.pad	#8
	sub	sp, #8
	.cfi_def_cfa_offset 16
	str	r0, [sp, #4]
.Ltmp21:
	.loc	7 295 21 prologue_end           @ ../ThirdParty/STM32F4xx_HAL_Driver/Src/stm32f4xx_hal_tim_ex.c:295:21
	ldr	r0, [sp, #4]
	.loc	7 295 27 is_stmt 0              @ ../ThirdParty/STM32F4xx_HAL_Driver/Src/stm32f4xx_hal_tim_ex.c:295:27
	ldr	r0, [r0]
	movs	r1, #0
	str	r1, [sp]                        @ 4-byte Spill
	movs	r2, #1
	.loc	7 295 3                         @ ../ThirdParty/STM32F4xx_HAL_Driver/Src/stm32f4xx_hal_tim_ex.c:295:3
	bl	TIM_CCxChannelCmd
	ldr	r0, [sp]                        @ 4-byte Reload
	.loc	7 298 3 is_stmt 1               @ ../ThirdParty/STM32F4xx_HAL_Driver/Src/stm32f4xx_hal_tim_ex.c:298:3
	ldr	r1, [sp, #4]
	ldr	r2, [r1]
	ldr	r1, [r2]
	orr	r1, r1, #1
	str	r1, [r2]
	.loc	7 301 3 epilogue_begin          @ ../ThirdParty/STM32F4xx_HAL_Driver/Src/stm32f4xx_hal_tim_ex.c:301:3
	add	sp, #8
	pop	{r7, pc}
.Ltmp22:
.Lfunc_end4:
	.size	HAL_TIMEx_HallSensor_Start, .Lfunc_end4-HAL_TIMEx_HallSensor_Start
	.cfi_endproc
	.cantunwind
	.fnend
                                        @ -- End function
	.section	.text.HAL_TIMEx_HallSensor_Stop,"ax",%progbits
	.hidden	HAL_TIMEx_HallSensor_Stop       @ -- Begin function HAL_TIMEx_HallSensor_Stop
	.globl	HAL_TIMEx_HallSensor_Stop
	.p2align	2
	.type	HAL_TIMEx_HallSensor_Stop,%function
	.code	16                              @ @HAL_TIMEx_HallSensor_Stop
	.thumb_func
HAL_TIMEx_HallSensor_Stop:
.Lfunc_begin5:
	.loc	7 311 0                         @ ../ThirdParty/STM32F4xx_HAL_Driver/Src/stm32f4xx_hal_tim_ex.c:311:0
	.fnstart
	.cfi_startproc
@ %bb.0:
	.save	{r7, lr}
	push	{r7, lr}
	.cfi_def_cfa_offset 8
	.cfi_offset lr, -4
	.cfi_offset r7, -8
	.pad	#8
	sub	sp, #8
	.cfi_def_cfa_offset 16
	str	r0, [sp, #4]
.Ltmp23:
	.loc	7 317 21 prologue_end           @ ../ThirdParty/STM32F4xx_HAL_Driver/Src/stm32f4xx_hal_tim_ex.c:317:21
	ldr	r0, [sp, #4]
	.loc	7 317 27 is_stmt 0              @ ../ThirdParty/STM32F4xx_HAL_Driver/Src/stm32f4xx_hal_tim_ex.c:317:27
	ldr	r0, [r0]
	movs	r2, #0
	.loc	7 317 3                         @ ../ThirdParty/STM32F4xx_HAL_Driver/Src/stm32f4xx_hal_tim_ex.c:317:3
	mov	r1, r2
	bl	TIM_CCxChannelCmd
	.loc	7 320 3 is_stmt 1               @ ../ThirdParty/STM32F4xx_HAL_Driver/Src/stm32f4xx_hal_tim_ex.c:320:3
	b	.LBB5_1
.LBB5_1:
.Ltmp24:
	.loc	7 320 3 is_stmt 0               @ ../ThirdParty/STM32F4xx_HAL_Driver/Src/stm32f4xx_hal_tim_ex.c:320:3
	ldr	r0, [sp, #4]
	ldr	r0, [r0]
	ldr	r0, [r0, #32]
	movw	r1, #4369
.Ltmp25:
	.loc	7 320 3                         @ ../ThirdParty/STM32F4xx_HAL_Driver/Src/stm32f4xx_hal_tim_ex.c:320:3
	tst	r0, r1
	bne	.LBB5_5
	b	.LBB5_2
.LBB5_2:
.Ltmp26:
	.loc	7 320 3                         @ ../ThirdParty/STM32F4xx_HAL_Driver/Src/stm32f4xx_hal_tim_ex.c:320:3
	ldr	r0, [sp, #4]
	ldr	r0, [r0]
	ldr	r0, [r0, #32]
	movw	r1, #1092
.Ltmp27:
	.loc	7 320 3                         @ ../ThirdParty/STM32F4xx_HAL_Driver/Src/stm32f4xx_hal_tim_ex.c:320:3
	tst	r0, r1
	bne	.LBB5_4
	b	.LBB5_3
.LBB5_3:
.Ltmp28:
	.loc	7 320 3                         @ ../ThirdParty/STM32F4xx_HAL_Driver/Src/stm32f4xx_hal_tim_ex.c:320:3
	ldr	r0, [sp, #4]
	ldr	r1, [r0]
	ldr	r0, [r1]
	bic	r0, r0, #1
	str	r0, [r1]
	b	.LBB5_4
.Ltmp29:
.LBB5_4:
	.loc	7 320 3                         @ ../ThirdParty/STM32F4xx_HAL_Driver/Src/stm32f4xx_hal_tim_ex.c:320:3
	b	.LBB5_5
.Ltmp30:
.LBB5_5:
	.loc	7 320 3                         @ ../ThirdParty/STM32F4xx_HAL_Driver/Src/stm32f4xx_hal_tim_ex.c:320:3
	b	.LBB5_6
.Ltmp31:
.LBB5_6:
	.loc	7 0 3                           @ ../ThirdParty/STM32F4xx_HAL_Driver/Src/stm32f4xx_hal_tim_ex.c:0:3
	movs	r0, #0
	.loc	7 323 3 epilogue_begin is_stmt 1 @ ../ThirdParty/STM32F4xx_HAL_Driver/Src/stm32f4xx_hal_tim_ex.c:323:3
	add	sp, #8
	pop	{r7, pc}
.Ltmp32:
.Lfunc_end5:
	.size	HAL_TIMEx_HallSensor_Stop, .Lfunc_end5-HAL_TIMEx_HallSensor_Stop
	.cfi_endproc
	.cantunwind
	.fnend
                                        @ -- End function
	.section	.text.HAL_TIMEx_HallSensor_Start_IT,"ax",%progbits
	.hidden	HAL_TIMEx_HallSensor_Start_IT   @ -- Begin function HAL_TIMEx_HallSensor_Start_IT
	.globl	HAL_TIMEx_HallSensor_Start_IT
	.p2align	2
	.type	HAL_TIMEx_HallSensor_Start_IT,%function
	.code	16                              @ @HAL_TIMEx_HallSensor_Start_IT
	.thumb_func
HAL_TIMEx_HallSensor_Start_IT:
.Lfunc_begin6:
	.loc	7 333 0                         @ ../ThirdParty/STM32F4xx_HAL_Driver/Src/stm32f4xx_hal_tim_ex.c:333:0
	.fnstart
	.cfi_startproc
@ %bb.0:
	.save	{r7, lr}
	push	{r7, lr}
	.cfi_def_cfa_offset 8
	.cfi_offset lr, -4
	.cfi_offset r7, -8
	.pad	#8
	sub	sp, #8
	.cfi_def_cfa_offset 16
	str	r0, [sp, #4]
.Ltmp33:
	.loc	7 338 3 prologue_end            @ ../ThirdParty/STM32F4xx_HAL_Driver/Src/stm32f4xx_hal_tim_ex.c:338:3
	ldr	r0, [sp, #4]
	ldr	r1, [r0]
	ldr	r0, [r1, #12]
	orr	r0, r0, #2
	str	r0, [r1, #12]
	.loc	7 342 21                        @ ../ThirdParty/STM32F4xx_HAL_Driver/Src/stm32f4xx_hal_tim_ex.c:342:21
	ldr	r0, [sp, #4]
	.loc	7 342 27 is_stmt 0              @ ../ThirdParty/STM32F4xx_HAL_Driver/Src/stm32f4xx_hal_tim_ex.c:342:27
	ldr	r0, [r0]
	movs	r1, #0
	str	r1, [sp]                        @ 4-byte Spill
	movs	r2, #1
	.loc	7 342 3                         @ ../ThirdParty/STM32F4xx_HAL_Driver/Src/stm32f4xx_hal_tim_ex.c:342:3
	bl	TIM_CCxChannelCmd
	ldr	r0, [sp]                        @ 4-byte Reload
	.loc	7 345 3 is_stmt 1               @ ../ThirdParty/STM32F4xx_HAL_Driver/Src/stm32f4xx_hal_tim_ex.c:345:3
	ldr	r1, [sp, #4]
	ldr	r2, [r1]
	ldr	r1, [r2]
	orr	r1, r1, #1
	str	r1, [r2]
	.loc	7 348 3 epilogue_begin          @ ../ThirdParty/STM32F4xx_HAL_Driver/Src/stm32f4xx_hal_tim_ex.c:348:3
	add	sp, #8
	pop	{r7, pc}
.Ltmp34:
.Lfunc_end6:
	.size	HAL_TIMEx_HallSensor_Start_IT, .Lfunc_end6-HAL_TIMEx_HallSensor_Start_IT
	.cfi_endproc
	.cantunwind
	.fnend
                                        @ -- End function
	.section	.text.HAL_TIMEx_HallSensor_Stop_IT,"ax",%progbits
	.hidden	HAL_TIMEx_HallSensor_Stop_IT    @ -- Begin function HAL_TIMEx_HallSensor_Stop_IT
	.globl	HAL_TIMEx_HallSensor_Stop_IT
	.p2align	2
	.type	HAL_TIMEx_HallSensor_Stop_IT,%function
	.code	16                              @ @HAL_TIMEx_HallSensor_Stop_IT
	.thumb_func
HAL_TIMEx_HallSensor_Stop_IT:
.Lfunc_begin7:
	.loc	7 358 0                         @ ../ThirdParty/STM32F4xx_HAL_Driver/Src/stm32f4xx_hal_tim_ex.c:358:0
	.fnstart
	.cfi_startproc
@ %bb.0:
	.save	{r7, lr}
	push	{r7, lr}
	.cfi_def_cfa_offset 8
	.cfi_offset lr, -4
	.cfi_offset r7, -8
	.pad	#8
	sub	sp, #8
	.cfi_def_cfa_offset 16
	str	r0, [sp, #4]
.Ltmp35:
	.loc	7 364 21 prologue_end           @ ../ThirdParty/STM32F4xx_HAL_Driver/Src/stm32f4xx_hal_tim_ex.c:364:21
	ldr	r0, [sp, #4]
	.loc	7 364 27 is_stmt 0              @ ../ThirdParty/STM32F4xx_HAL_Driver/Src/stm32f4xx_hal_tim_ex.c:364:27
	ldr	r0, [r0]
	movs	r2, #0
	.loc	7 364 3                         @ ../ThirdParty/STM32F4xx_HAL_Driver/Src/stm32f4xx_hal_tim_ex.c:364:3
	mov	r1, r2
	bl	TIM_CCxChannelCmd
	.loc	7 367 3 is_stmt 1               @ ../ThirdParty/STM32F4xx_HAL_Driver/Src/stm32f4xx_hal_tim_ex.c:367:3
	ldr	r0, [sp, #4]
	ldr	r1, [r0]
	ldr	r0, [r1, #12]
	bic	r0, r0, #2
	str	r0, [r1, #12]
	.loc	7 370 3                         @ ../ThirdParty/STM32F4xx_HAL_Driver/Src/stm32f4xx_hal_tim_ex.c:370:3
	b	.LBB7_1
.LBB7_1:
.Ltmp36:
	.loc	7 370 3 is_stmt 0               @ ../ThirdParty/STM32F4xx_HAL_Driver/Src/stm32f4xx_hal_tim_ex.c:370:3
	ldr	r0, [sp, #4]
	ldr	r0, [r0]
	ldr	r0, [r0, #32]
	movw	r1, #4369
.Ltmp37:
	.loc	7 370 3                         @ ../ThirdParty/STM32F4xx_HAL_Driver/Src/stm32f4xx_hal_tim_ex.c:370:3
	tst	r0, r1
	bne	.LBB7_5
	b	.LBB7_2
.LBB7_2:
.Ltmp38:
	.loc	7 370 3                         @ ../ThirdParty/STM32F4xx_HAL_Driver/Src/stm32f4xx_hal_tim_ex.c:370:3
	ldr	r0, [sp, #4]
	ldr	r0, [r0]
	ldr	r0, [r0, #32]
	movw	r1, #1092
.Ltmp39:
	.loc	7 370 3                         @ ../ThirdParty/STM32F4xx_HAL_Driver/Src/stm32f4xx_hal_tim_ex.c:370:3
	tst	r0, r1
	bne	.LBB7_4
	b	.LBB7_3
.LBB7_3:
.Ltmp40:
	.loc	7 370 3                         @ ../ThirdParty/STM32F4xx_HAL_Driver/Src/stm32f4xx_hal_tim_ex.c:370:3
	ldr	r0, [sp, #4]
	ldr	r1, [r0]
	ldr	r0, [r1]
	bic	r0, r0, #1
	str	r0, [r1]
	b	.LBB7_4
.Ltmp41:
.LBB7_4:
	.loc	7 370 3                         @ ../ThirdParty/STM32F4xx_HAL_Driver/Src/stm32f4xx_hal_tim_ex.c:370:3
	b	.LBB7_5
.Ltmp42:
.LBB7_5:
	.loc	7 370 3                         @ ../ThirdParty/STM32F4xx_HAL_Driver/Src/stm32f4xx_hal_tim_ex.c:370:3
	b	.LBB7_6
.Ltmp43:
.LBB7_6:
	.loc	7 0 3                           @ ../ThirdParty/STM32F4xx_HAL_Driver/Src/stm32f4xx_hal_tim_ex.c:0:3
	movs	r0, #0
	.loc	7 373 3 epilogue_begin is_stmt 1 @ ../ThirdParty/STM32F4xx_HAL_Driver/Src/stm32f4xx_hal_tim_ex.c:373:3
	add	sp, #8
	pop	{r7, pc}
.Ltmp44:
.Lfunc_end7:
	.size	HAL_TIMEx_HallSensor_Stop_IT, .Lfunc_end7-HAL_TIMEx_HallSensor_Stop_IT
	.cfi_endproc
	.cantunwind
	.fnend
                                        @ -- End function
	.section	.text.HAL_TIMEx_HallSensor_Start_DMA,"ax",%progbits
	.hidden	HAL_TIMEx_HallSensor_Start_DMA  @ -- Begin function HAL_TIMEx_HallSensor_Start_DMA
	.globl	HAL_TIMEx_HallSensor_Start_DMA
	.p2align	2
	.type	HAL_TIMEx_HallSensor_Start_DMA,%function
	.code	16                              @ @HAL_TIMEx_HallSensor_Start_DMA
	.thumb_func
HAL_TIMEx_HallSensor_Start_DMA:
.Lfunc_begin8:
	.loc	7 385 0                         @ ../ThirdParty/STM32F4xx_HAL_Driver/Src/stm32f4xx_hal_tim_ex.c:385:0
	.fnstart
	.cfi_startproc
@ %bb.0:
	.save	{r7, lr}
	push	{r7, lr}
	.cfi_def_cfa_offset 8
	.cfi_offset lr, -4
	.cfi_offset r7, -8
	.pad	#24
	sub	sp, #24
	.cfi_def_cfa_offset 32
                                        @ kill: def $r3 killed $r2
	str	r0, [sp, #16]
	str	r1, [sp, #12]
	strh.w	r2, [sp, #10]
.Ltmp45:
	.loc	7 389 8 prologue_end            @ ../ThirdParty/STM32F4xx_HAL_Driver/Src/stm32f4xx_hal_tim_ex.c:389:8
	ldr	r0, [sp, #16]
	.loc	7 389 14 is_stmt 0              @ ../ThirdParty/STM32F4xx_HAL_Driver/Src/stm32f4xx_hal_tim_ex.c:389:14
	ldrb.w	r0, [r0, #57]
.Ltmp46:
	.loc	7 389 7                         @ ../ThirdParty/STM32F4xx_HAL_Driver/Src/stm32f4xx_hal_tim_ex.c:389:7
	cmp	r0, #2
	bne	.LBB8_2
	b	.LBB8_1
.LBB8_1:
	.loc	7 0 7                           @ ../ThirdParty/STM32F4xx_HAL_Driver/Src/stm32f4xx_hal_tim_ex.c:0:7
	movs	r0, #2
.Ltmp47:
	.loc	7 391 6 is_stmt 1               @ ../ThirdParty/STM32F4xx_HAL_Driver/Src/stm32f4xx_hal_tim_ex.c:391:6
	strb.w	r0, [sp, #23]
	b	.LBB8_10
.Ltmp48:
.LBB8_2:
	.loc	7 393 12                        @ ../ThirdParty/STM32F4xx_HAL_Driver/Src/stm32f4xx_hal_tim_ex.c:393:12
	ldr	r0, [sp, #16]
	.loc	7 393 18 is_stmt 0              @ ../ThirdParty/STM32F4xx_HAL_Driver/Src/stm32f4xx_hal_tim_ex.c:393:18
	ldrb.w	r0, [r0, #57]
.Ltmp49:
	.loc	7 393 11                        @ ../ThirdParty/STM32F4xx_HAL_Driver/Src/stm32f4xx_hal_tim_ex.c:393:11
	cmp	r0, #1
	bne	.LBB8_8
	b	.LBB8_3
.LBB8_3:
.Ltmp50:
	.loc	7 395 19 is_stmt 1              @ ../ThirdParty/STM32F4xx_HAL_Driver/Src/stm32f4xx_hal_tim_ex.c:395:19
	ldr	r0, [sp, #12]
	.loc	7 395 32 is_stmt 0              @ ../ThirdParty/STM32F4xx_HAL_Driver/Src/stm32f4xx_hal_tim_ex.c:395:32
	cbnz	r0, .LBB8_6
	b	.LBB8_4
.LBB8_4:
	.loc	7 395 36                        @ ../ThirdParty/STM32F4xx_HAL_Driver/Src/stm32f4xx_hal_tim_ex.c:395:36
	ldrh.w	r0, [sp, #10]
.Ltmp51:
	.loc	7 395 8                         @ ../ThirdParty/STM32F4xx_HAL_Driver/Src/stm32f4xx_hal_tim_ex.c:395:8
	cmp	r0, #1
	blt	.LBB8_6
	b	.LBB8_5
.LBB8_5:
	.loc	7 0 8                           @ ../ThirdParty/STM32F4xx_HAL_Driver/Src/stm32f4xx_hal_tim_ex.c:0:8
	movs	r0, #1
.Ltmp52:
	.loc	7 397 7 is_stmt 1               @ ../ThirdParty/STM32F4xx_HAL_Driver/Src/stm32f4xx_hal_tim_ex.c:397:7
	strb.w	r0, [sp, #23]
	b	.LBB8_10
.Ltmp53:
.LBB8_6:
	.loc	7 401 7                         @ ../ThirdParty/STM32F4xx_HAL_Driver/Src/stm32f4xx_hal_tim_ex.c:401:7
	ldr	r1, [sp, #16]
	movs	r0, #2
	.loc	7 401 19 is_stmt 0              @ ../ThirdParty/STM32F4xx_HAL_Driver/Src/stm32f4xx_hal_tim_ex.c:401:19
	strb.w	r0, [r1, #57]
	b	.LBB8_7
.Ltmp54:
.LBB8_7:
	.loc	7 403 3 is_stmt 1               @ ../ThirdParty/STM32F4xx_HAL_Driver/Src/stm32f4xx_hal_tim_ex.c:403:3
	b	.LBB8_8
.Ltmp55:
.LBB8_8:
	.loc	7 0 3 is_stmt 0                 @ ../ThirdParty/STM32F4xx_HAL_Driver/Src/stm32f4xx_hal_tim_ex.c:0:3
	b	.LBB8_9
.LBB8_9:
	.loc	7 406 21 is_stmt 1              @ ../ThirdParty/STM32F4xx_HAL_Driver/Src/stm32f4xx_hal_tim_ex.c:406:21
	ldr	r0, [sp, #16]
	.loc	7 406 27 is_stmt 0              @ ../ThirdParty/STM32F4xx_HAL_Driver/Src/stm32f4xx_hal_tim_ex.c:406:27
	ldr	r0, [r0]
	movs	r1, #0
	str	r1, [sp, #4]                    @ 4-byte Spill
	movs	r2, #1
	.loc	7 406 3                         @ ../ThirdParty/STM32F4xx_HAL_Driver/Src/stm32f4xx_hal_tim_ex.c:406:3
	bl	TIM_CCxChannelCmd
	.loc	7 409 3 is_stmt 1               @ ../ThirdParty/STM32F4xx_HAL_Driver/Src/stm32f4xx_hal_tim_ex.c:409:3
	ldr	r0, [sp, #16]
	ldr	r1, [r0, #32]
	.loc	7 409 48 is_stmt 0              @ ../ThirdParty/STM32F4xx_HAL_Driver/Src/stm32f4xx_hal_tim_ex.c:409:48
	movw	r0, :lower16:TIM_DMACaptureCplt
	movt	r0, :upper16:TIM_DMACaptureCplt
	str	r0, [r1, #60]
	.loc	7 411 3 is_stmt 1               @ ../ThirdParty/STM32F4xx_HAL_Driver/Src/stm32f4xx_hal_tim_ex.c:411:3
	ldr	r0, [sp, #16]
	ldr	r1, [r0, #32]
	.loc	7 411 49 is_stmt 0              @ ../ThirdParty/STM32F4xx_HAL_Driver/Src/stm32f4xx_hal_tim_ex.c:411:49
	movw	r0, :lower16:TIM_DMAError
	movt	r0, :upper16:TIM_DMAError
	str	r0, [r1, #76]
	.loc	7 414 20 is_stmt 1              @ ../ThirdParty/STM32F4xx_HAL_Driver/Src/stm32f4xx_hal_tim_ex.c:414:20
	ldr	r0, [sp, #16]
	.loc	7 414 65 is_stmt 0              @ ../ThirdParty/STM32F4xx_HAL_Driver/Src/stm32f4xx_hal_tim_ex.c:414:65
	ldr	r1, [r0]
	.loc	7 414 20                        @ ../ThirdParty/STM32F4xx_HAL_Driver/Src/stm32f4xx_hal_tim_ex.c:414:20
	ldr	r0, [r0, #32]
	.loc	7 414 75                        @ ../ThirdParty/STM32F4xx_HAL_Driver/Src/stm32f4xx_hal_tim_ex.c:414:75
	adds	r1, #52
	.loc	7 414 91                        @ ../ThirdParty/STM32F4xx_HAL_Driver/Src/stm32f4xx_hal_tim_ex.c:414:91
	ldr	r2, [sp, #12]
	.loc	7 414 98                        @ ../ThirdParty/STM32F4xx_HAL_Driver/Src/stm32f4xx_hal_tim_ex.c:414:98
	ldrh.w	r3, [sp, #10]
	.loc	7 414 3                         @ ../ThirdParty/STM32F4xx_HAL_Driver/Src/stm32f4xx_hal_tim_ex.c:414:3
	bl	HAL_DMA_Start_IT
                                        @ kill: def $r1 killed $r0
	.loc	7 417 3 is_stmt 1               @ ../ThirdParty/STM32F4xx_HAL_Driver/Src/stm32f4xx_hal_tim_ex.c:417:3
	ldr	r0, [sp, #4]                    @ 4-byte Reload
	ldr	r1, [sp, #16]
	ldr	r2, [r1]
	ldr	r1, [r2, #12]
	orr	r1, r1, #512
	str	r1, [r2, #12]
	.loc	7 420 3                         @ ../ThirdParty/STM32F4xx_HAL_Driver/Src/stm32f4xx_hal_tim_ex.c:420:3
	ldr	r1, [sp, #16]
	ldr	r2, [r1]
	ldr	r1, [r2]
	orr	r1, r1, #1
	str	r1, [r2]
	.loc	7 423 3                         @ ../ThirdParty/STM32F4xx_HAL_Driver/Src/stm32f4xx_hal_tim_ex.c:423:3
	strb.w	r0, [sp, #23]
	b	.LBB8_10
.LBB8_10:
	.loc	7 424 1                         @ ../ThirdParty/STM32F4xx_HAL_Driver/Src/stm32f4xx_hal_tim_ex.c:424:1
	ldrb.w	r0, [sp, #23]
	.loc	7 424 1 epilogue_begin is_stmt 0 @ ../ThirdParty/STM32F4xx_HAL_Driver/Src/stm32f4xx_hal_tim_ex.c:424:1
	add	sp, #24
	pop	{r7, pc}
.Ltmp56:
.Lfunc_end8:
	.size	HAL_TIMEx_HallSensor_Start_DMA, .Lfunc_end8-HAL_TIMEx_HallSensor_Start_DMA
	.cfi_endproc
	.cantunwind
	.fnend
                                        @ -- End function
	.section	.text.HAL_TIMEx_HallSensor_Stop_DMA,"ax",%progbits
	.hidden	HAL_TIMEx_HallSensor_Stop_DMA   @ -- Begin function HAL_TIMEx_HallSensor_Stop_DMA
	.globl	HAL_TIMEx_HallSensor_Stop_DMA
	.p2align	2
	.type	HAL_TIMEx_HallSensor_Stop_DMA,%function
	.code	16                              @ @HAL_TIMEx_HallSensor_Stop_DMA
	.thumb_func
HAL_TIMEx_HallSensor_Stop_DMA:
.Lfunc_begin9:
	.loc	7 433 0 is_stmt 1               @ ../ThirdParty/STM32F4xx_HAL_Driver/Src/stm32f4xx_hal_tim_ex.c:433:0
	.fnstart
	.cfi_startproc
@ %bb.0:
	.save	{r7, lr}
	push	{r7, lr}
	.cfi_def_cfa_offset 8
	.cfi_offset lr, -4
	.cfi_offset r7, -8
	.pad	#8
	sub	sp, #8
	.cfi_def_cfa_offset 16
	str	r0, [sp, #4]
.Ltmp57:
	.loc	7 439 21 prologue_end           @ ../ThirdParty/STM32F4xx_HAL_Driver/Src/stm32f4xx_hal_tim_ex.c:439:21
	ldr	r0, [sp, #4]
	.loc	7 439 27 is_stmt 0              @ ../ThirdParty/STM32F4xx_HAL_Driver/Src/stm32f4xx_hal_tim_ex.c:439:27
	ldr	r0, [r0]
	movs	r2, #0
	.loc	7 439 3                         @ ../ThirdParty/STM32F4xx_HAL_Driver/Src/stm32f4xx_hal_tim_ex.c:439:3
	mov	r1, r2
	bl	TIM_CCxChannelCmd
	.loc	7 443 3 is_stmt 1               @ ../ThirdParty/STM32F4xx_HAL_Driver/Src/stm32f4xx_hal_tim_ex.c:443:3
	ldr	r0, [sp, #4]
	ldr	r1, [r0]
	ldr	r0, [r1, #12]
	bic	r0, r0, #512
	str	r0, [r1, #12]
	.loc	7 446 3                         @ ../ThirdParty/STM32F4xx_HAL_Driver/Src/stm32f4xx_hal_tim_ex.c:446:3
	b	.LBB9_1
.LBB9_1:
.Ltmp58:
	.loc	7 446 3 is_stmt 0               @ ../ThirdParty/STM32F4xx_HAL_Driver/Src/stm32f4xx_hal_tim_ex.c:446:3
	ldr	r0, [sp, #4]
	ldr	r0, [r0]
	ldr	r0, [r0, #32]
	movw	r1, #4369
.Ltmp59:
	.loc	7 446 3                         @ ../ThirdParty/STM32F4xx_HAL_Driver/Src/stm32f4xx_hal_tim_ex.c:446:3
	tst	r0, r1
	bne	.LBB9_5
	b	.LBB9_2
.LBB9_2:
.Ltmp60:
	.loc	7 446 3                         @ ../ThirdParty/STM32F4xx_HAL_Driver/Src/stm32f4xx_hal_tim_ex.c:446:3
	ldr	r0, [sp, #4]
	ldr	r0, [r0]
	ldr	r0, [r0, #32]
	movw	r1, #1092
.Ltmp61:
	.loc	7 446 3                         @ ../ThirdParty/STM32F4xx_HAL_Driver/Src/stm32f4xx_hal_tim_ex.c:446:3
	tst	r0, r1
	bne	.LBB9_4
	b	.LBB9_3
.LBB9_3:
.Ltmp62:
	.loc	7 446 3                         @ ../ThirdParty/STM32F4xx_HAL_Driver/Src/stm32f4xx_hal_tim_ex.c:446:3
	ldr	r0, [sp, #4]
	ldr	r1, [r0]
	ldr	r0, [r1]
	bic	r0, r0, #1
	str	r0, [r1]
	b	.LBB9_4
.Ltmp63:
.LBB9_4:
	.loc	7 446 3                         @ ../ThirdParty/STM32F4xx_HAL_Driver/Src/stm32f4xx_hal_tim_ex.c:446:3
	b	.LBB9_5
.Ltmp64:
.LBB9_5:
	.loc	7 446 3                         @ ../ThirdParty/STM32F4xx_HAL_Driver/Src/stm32f4xx_hal_tim_ex.c:446:3
	b	.LBB9_6
.Ltmp65:
.LBB9_6:
	.loc	7 0 3                           @ ../ThirdParty/STM32F4xx_HAL_Driver/Src/stm32f4xx_hal_tim_ex.c:0:3
	movs	r0, #0
	.loc	7 449 3 epilogue_begin is_stmt 1 @ ../ThirdParty/STM32F4xx_HAL_Driver/Src/stm32f4xx_hal_tim_ex.c:449:3
	add	sp, #8
	pop	{r7, pc}
.Ltmp66:
.Lfunc_end9:
	.size	HAL_TIMEx_HallSensor_Stop_DMA, .Lfunc_end9-HAL_TIMEx_HallSensor_Stop_DMA
	.cfi_endproc
	.cantunwind
	.fnend
                                        @ -- End function
	.section	.text.HAL_TIMEx_OCN_Start,"ax",%progbits
	.hidden	HAL_TIMEx_OCN_Start             @ -- Begin function HAL_TIMEx_OCN_Start
	.globl	HAL_TIMEx_OCN_Start
	.p2align	2
	.type	HAL_TIMEx_OCN_Start,%function
	.code	16                              @ @HAL_TIMEx_OCN_Start
	.thumb_func
HAL_TIMEx_OCN_Start:
.Lfunc_begin10:
	.loc	7 488 0                         @ ../ThirdParty/STM32F4xx_HAL_Driver/Src/stm32f4xx_hal_tim_ex.c:488:0
	.fnstart
	.cfi_startproc
@ %bb.0:
	.save	{r7, lr}
	push	{r7, lr}
	.cfi_def_cfa_offset 8
	.cfi_offset lr, -4
	.cfi_offset r7, -8
	.pad	#8
	sub	sp, #8
	.cfi_def_cfa_offset 16
	str	r0, [sp, #4]
	str	r1, [sp]
.Ltmp67:
	.loc	7 493 25 prologue_end           @ ../ThirdParty/STM32F4xx_HAL_Driver/Src/stm32f4xx_hal_tim_ex.c:493:25
	ldr	r0, [sp, #4]
	.loc	7 493 31 is_stmt 0              @ ../ThirdParty/STM32F4xx_HAL_Driver/Src/stm32f4xx_hal_tim_ex.c:493:31
	ldr	r0, [r0]
	.loc	7 493 41                        @ ../ThirdParty/STM32F4xx_HAL_Driver/Src/stm32f4xx_hal_tim_ex.c:493:41
	ldr	r1, [sp]
	movs	r2, #4
	.loc	7 493 6                         @ ../ThirdParty/STM32F4xx_HAL_Driver/Src/stm32f4xx_hal_tim_ex.c:493:6
	bl	TIM_CCxNChannelCmd
	.loc	7 496 5 is_stmt 1               @ ../ThirdParty/STM32F4xx_HAL_Driver/Src/stm32f4xx_hal_tim_ex.c:496:5
	ldr	r0, [sp, #4]
	ldr	r1, [r0]
	ldr	r0, [r1, #68]
	orr	r0, r0, #32768
	str	r0, [r1, #68]
	.loc	7 499 3                         @ ../ThirdParty/STM32F4xx_HAL_Driver/Src/stm32f4xx_hal_tim_ex.c:499:3
	ldr	r0, [sp, #4]
	ldr	r1, [r0]
	ldr	r0, [r1]
	orr	r0, r0, #1
	str	r0, [r1]
	movs	r0, #0
	.loc	7 502 3 epilogue_begin          @ ../ThirdParty/STM32F4xx_HAL_Driver/Src/stm32f4xx_hal_tim_ex.c:502:3
	add	sp, #8
	pop	{r7, pc}
.Ltmp68:
.Lfunc_end10:
	.size	HAL_TIMEx_OCN_Start, .Lfunc_end10-HAL_TIMEx_OCN_Start
	.cfi_endproc
	.cantunwind
	.fnend
                                        @ -- End function
	.section	.text.TIM_CCxNChannelCmd,"ax",%progbits
	.p2align	2                               @ -- Begin function TIM_CCxNChannelCmd
	.type	TIM_CCxNChannelCmd,%function
	.code	16                              @ @TIM_CCxNChannelCmd
	.thumb_func
TIM_CCxNChannelCmd:
.Lfunc_begin11:
	.loc	7 1854 0                        @ ../ThirdParty/STM32F4xx_HAL_Driver/Src/stm32f4xx_hal_tim_ex.c:1854:0
	.fnstart
	.cfi_startproc
@ %bb.0:
	.pad	#16
	sub	sp, #16
	.cfi_def_cfa_offset 16
	str	r0, [sp, #12]
	str	r1, [sp, #8]
	str	r2, [sp, #4]
	movs	r0, #0
.Ltmp69:
	.loc	7 1855 12 prologue_end          @ ../ThirdParty/STM32F4xx_HAL_Driver/Src/stm32f4xx_hal_tim_ex.c:1855:12
	str	r0, [sp]
	.loc	7 1861 27                       @ ../ThirdParty/STM32F4xx_HAL_Driver/Src/stm32f4xx_hal_tim_ex.c:1861:27
	ldr	r1, [sp, #8]
	movs	r0, #4
	.loc	7 1861 24 is_stmt 0             @ ../ThirdParty/STM32F4xx_HAL_Driver/Src/stm32f4xx_hal_tim_ex.c:1861:24
	lsls	r0, r1
	.loc	7 1861 7                        @ ../ThirdParty/STM32F4xx_HAL_Driver/Src/stm32f4xx_hal_tim_ex.c:1861:7
	str	r0, [sp]
	.loc	7 1864 18 is_stmt 1             @ ../ThirdParty/STM32F4xx_HAL_Driver/Src/stm32f4xx_hal_tim_ex.c:1864:18
	ldr	r2, [sp]
	.loc	7 1864 3 is_stmt 0              @ ../ThirdParty/STM32F4xx_HAL_Driver/Src/stm32f4xx_hal_tim_ex.c:1864:3
	ldr	r1, [sp, #12]
	.loc	7 1864 14                       @ ../ThirdParty/STM32F4xx_HAL_Driver/Src/stm32f4xx_hal_tim_ex.c:1864:14
	ldr	r0, [r1, #32]
	bics	r0, r2
	str	r0, [r1, #32]
	.loc	7 1867 28 is_stmt 1             @ ../ThirdParty/STM32F4xx_HAL_Driver/Src/stm32f4xx_hal_tim_ex.c:1867:28
	ldr	r0, [sp, #4]
	.loc	7 1867 45 is_stmt 0             @ ../ThirdParty/STM32F4xx_HAL_Driver/Src/stm32f4xx_hal_tim_ex.c:1867:45
	ldr	r1, [sp, #8]
	.loc	7 1867 42                       @ ../ThirdParty/STM32F4xx_HAL_Driver/Src/stm32f4xx_hal_tim_ex.c:1867:42
	lsl.w	r2, r0, r1
	.loc	7 1867 3                        @ ../ThirdParty/STM32F4xx_HAL_Driver/Src/stm32f4xx_hal_tim_ex.c:1867:3
	ldr	r1, [sp, #12]
	.loc	7 1867 14                       @ ../ThirdParty/STM32F4xx_HAL_Driver/Src/stm32f4xx_hal_tim_ex.c:1867:14
	ldr	r0, [r1, #32]
	orrs	r0, r2
	str	r0, [r1, #32]
	.loc	7 1868 1 epilogue_begin is_stmt 1 @ ../ThirdParty/STM32F4xx_HAL_Driver/Src/stm32f4xx_hal_tim_ex.c:1868:1
	add	sp, #16
	bx	lr
.Ltmp70:
.Lfunc_end11:
	.size	TIM_CCxNChannelCmd, .Lfunc_end11-TIM_CCxNChannelCmd
	.cfi_endproc
	.cantunwind
	.fnend
                                        @ -- End function
	.section	.text.HAL_TIMEx_OCN_Stop,"ax",%progbits
	.hidden	HAL_TIMEx_OCN_Stop              @ -- Begin function HAL_TIMEx_OCN_Stop
	.globl	HAL_TIMEx_OCN_Stop
	.p2align	2
	.type	HAL_TIMEx_OCN_Stop,%function
	.code	16                              @ @HAL_TIMEx_OCN_Stop
	.thumb_func
HAL_TIMEx_OCN_Stop:
.Lfunc_begin12:
	.loc	7 518 0                         @ ../ThirdParty/STM32F4xx_HAL_Driver/Src/stm32f4xx_hal_tim_ex.c:518:0
	.fnstart
	.cfi_startproc
@ %bb.0:
	.save	{r7, lr}
	push	{r7, lr}
	.cfi_def_cfa_offset 8
	.cfi_offset lr, -4
	.cfi_offset r7, -8
	.pad	#8
	sub	sp, #8
	.cfi_def_cfa_offset 16
	str	r0, [sp, #4]
	str	r1, [sp]
.Ltmp71:
	.loc	7 523 22 prologue_end           @ ../ThirdParty/STM32F4xx_HAL_Driver/Src/stm32f4xx_hal_tim_ex.c:523:22
	ldr	r0, [sp, #4]
	.loc	7 523 28 is_stmt 0              @ ../ThirdParty/STM32F4xx_HAL_Driver/Src/stm32f4xx_hal_tim_ex.c:523:28
	ldr	r0, [r0]
	.loc	7 523 38                        @ ../ThirdParty/STM32F4xx_HAL_Driver/Src/stm32f4xx_hal_tim_ex.c:523:38
	ldr	r1, [sp]
	movs	r2, #0
	.loc	7 523 3                         @ ../ThirdParty/STM32F4xx_HAL_Driver/Src/stm32f4xx_hal_tim_ex.c:523:3
	bl	TIM_CCxNChannelCmd
	.loc	7 526 5 is_stmt 1               @ ../ThirdParty/STM32F4xx_HAL_Driver/Src/stm32f4xx_hal_tim_ex.c:526:5
	b	.LBB12_1
.LBB12_1:
.Ltmp72:
	.loc	7 526 5 is_stmt 0               @ ../ThirdParty/STM32F4xx_HAL_Driver/Src/stm32f4xx_hal_tim_ex.c:526:5
	ldr	r0, [sp, #4]
	ldr	r0, [r0]
	ldr	r0, [r0, #32]
	movw	r1, #4369
.Ltmp73:
	.loc	7 526 5                         @ ../ThirdParty/STM32F4xx_HAL_Driver/Src/stm32f4xx_hal_tim_ex.c:526:5
	tst	r0, r1
	bne	.LBB12_5
	b	.LBB12_2
.LBB12_2:
.Ltmp74:
	.loc	7 526 5                         @ ../ThirdParty/STM32F4xx_HAL_Driver/Src/stm32f4xx_hal_tim_ex.c:526:5
	ldr	r0, [sp, #4]
	ldr	r0, [r0]
	ldr	r0, [r0, #32]
	movw	r1, #1092
.Ltmp75:
	.loc	7 526 5                         @ ../ThirdParty/STM32F4xx_HAL_Driver/Src/stm32f4xx_hal_tim_ex.c:526:5
	tst	r0, r1
	bne	.LBB12_4
	b	.LBB12_3
.LBB12_3:
.Ltmp76:
	.loc	7 526 5                         @ ../ThirdParty/STM32F4xx_HAL_Driver/Src/stm32f4xx_hal_tim_ex.c:526:5
	ldr	r0, [sp, #4]
	ldr	r1, [r0]
	ldr	r0, [r1, #68]
	bic	r0, r0, #32768
	str	r0, [r1, #68]
	b	.LBB12_4
.Ltmp77:
.LBB12_4:
	.loc	7 526 5                         @ ../ThirdParty/STM32F4xx_HAL_Driver/Src/stm32f4xx_hal_tim_ex.c:526:5
	b	.LBB12_5
.Ltmp78:
.LBB12_5:
	.loc	7 526 5                         @ ../ThirdParty/STM32F4xx_HAL_Driver/Src/stm32f4xx_hal_tim_ex.c:526:5
	b	.LBB12_6
.Ltmp79:
.LBB12_6:
	.loc	7 529 3 is_stmt 1               @ ../ThirdParty/STM32F4xx_HAL_Driver/Src/stm32f4xx_hal_tim_ex.c:529:3
	b	.LBB12_7
.LBB12_7:
.Ltmp80:
	.loc	7 529 3 is_stmt 0               @ ../ThirdParty/STM32F4xx_HAL_Driver/Src/stm32f4xx_hal_tim_ex.c:529:3
	ldr	r0, [sp, #4]
	ldr	r0, [r0]
	ldr	r0, [r0, #32]
	movw	r1, #4369
.Ltmp81:
	.loc	7 529 3                         @ ../ThirdParty/STM32F4xx_HAL_Driver/Src/stm32f4xx_hal_tim_ex.c:529:3
	tst	r0, r1
	bne	.LBB12_11
	b	.LBB12_8
.LBB12_8:
.Ltmp82:
	.loc	7 529 3                         @ ../ThirdParty/STM32F4xx_HAL_Driver/Src/stm32f4xx_hal_tim_ex.c:529:3
	ldr	r0, [sp, #4]
	ldr	r0, [r0]
	ldr	r0, [r0, #32]
	movw	r1, #1092
.Ltmp83:
	.loc	7 529 3                         @ ../ThirdParty/STM32F4xx_HAL_Driver/Src/stm32f4xx_hal_tim_ex.c:529:3
	tst	r0, r1
	bne	.LBB12_10
	b	.LBB12_9
.LBB12_9:
.Ltmp84:
	.loc	7 529 3                         @ ../ThirdParty/STM32F4xx_HAL_Driver/Src/stm32f4xx_hal_tim_ex.c:529:3
	ldr	r0, [sp, #4]
	ldr	r1, [r0]
	ldr	r0, [r1]
	bic	r0, r0, #1
	str	r0, [r1]
	b	.LBB12_10
.Ltmp85:
.LBB12_10:
	.loc	7 529 3                         @ ../ThirdParty/STM32F4xx_HAL_Driver/Src/stm32f4xx_hal_tim_ex.c:529:3
	b	.LBB12_11
.Ltmp86:
.LBB12_11:
	.loc	7 529 3                         @ ../ThirdParty/STM32F4xx_HAL_Driver/Src/stm32f4xx_hal_tim_ex.c:529:3
	b	.LBB12_12
.Ltmp87:
.LBB12_12:
	.loc	7 0 3                           @ ../ThirdParty/STM32F4xx_HAL_Driver/Src/stm32f4xx_hal_tim_ex.c:0:3
	movs	r0, #0
	.loc	7 532 3 epilogue_begin is_stmt 1 @ ../ThirdParty/STM32F4xx_HAL_Driver/Src/stm32f4xx_hal_tim_ex.c:532:3
	add	sp, #8
	pop	{r7, pc}
.Ltmp88:
.Lfunc_end12:
	.size	HAL_TIMEx_OCN_Stop, .Lfunc_end12-HAL_TIMEx_OCN_Stop
	.cfi_endproc
	.cantunwind
	.fnend
                                        @ -- End function
	.section	.text.HAL_TIMEx_OCN_Start_IT,"ax",%progbits
	.hidden	HAL_TIMEx_OCN_Start_IT          @ -- Begin function HAL_TIMEx_OCN_Start_IT
	.globl	HAL_TIMEx_OCN_Start_IT
	.p2align	2
	.type	HAL_TIMEx_OCN_Start_IT,%function
	.code	16                              @ @HAL_TIMEx_OCN_Start_IT
	.thumb_func
HAL_TIMEx_OCN_Start_IT:
.Lfunc_begin13:
	.loc	7 548 0                         @ ../ThirdParty/STM32F4xx_HAL_Driver/Src/stm32f4xx_hal_tim_ex.c:548:0
	.fnstart
	.cfi_startproc
@ %bb.0:
	.save	{r7, lr}
	push	{r7, lr}
	.cfi_def_cfa_offset 8
	.cfi_offset lr, -4
	.cfi_offset r7, -8
	.pad	#16
	sub	sp, #16
	.cfi_def_cfa_offset 24
	str	r0, [sp, #12]
	str	r1, [sp, #8]
.Ltmp89:
	.loc	7 552 11 prologue_end           @ ../ThirdParty/STM32F4xx_HAL_Driver/Src/stm32f4xx_hal_tim_ex.c:552:11
	ldr	r0, [sp, #8]
	.loc	7 552 3 is_stmt 0               @ ../ThirdParty/STM32F4xx_HAL_Driver/Src/stm32f4xx_hal_tim_ex.c:552:3
	str	r0, [sp, #4]                    @ 4-byte Spill
	cmp	r0, #12
	bhi	.LBB13_7
@ %bb.1:
	.loc	7 0 3                           @ ../ThirdParty/STM32F4xx_HAL_Driver/Src/stm32f4xx_hal_tim_ex.c:0:3
	ldr	r1, [sp, #4]                    @ 4-byte Reload
.LCPI13_0:
	tbb	[pc, r1]
@ %bb.2:
.LJTI13_0:
	.byte	(.LBB13_3-(.LCPI13_0+4))/2
	.byte	(.LBB13_7-(.LCPI13_0+4))/2
	.byte	(.LBB13_7-(.LCPI13_0+4))/2
	.byte	(.LBB13_7-(.LCPI13_0+4))/2
	.byte	(.LBB13_4-(.LCPI13_0+4))/2
	.byte	(.LBB13_7-(.LCPI13_0+4))/2
	.byte	(.LBB13_7-(.LCPI13_0+4))/2
	.byte	(.LBB13_7-(.LCPI13_0+4))/2
	.byte	(.LBB13_5-(.LCPI13_0+4))/2
	.byte	(.LBB13_7-(.LCPI13_0+4))/2
	.byte	(.LBB13_7-(.LCPI13_0+4))/2
	.byte	(.LBB13_7-(.LCPI13_0+4))/2
	.byte	(.LBB13_6-(.LCPI13_0+4))/2
	.p2align	1
.LBB13_3:
.Ltmp90:
	.loc	7 557 7 is_stmt 1               @ ../ThirdParty/STM32F4xx_HAL_Driver/Src/stm32f4xx_hal_tim_ex.c:557:7
	ldr	r0, [sp, #12]
	ldr	r1, [r0]
	ldr	r0, [r1, #12]
	orr	r0, r0, #2
	str	r0, [r1, #12]
.Ltmp91:
	.loc	7 559 5                         @ ../ThirdParty/STM32F4xx_HAL_Driver/Src/stm32f4xx_hal_tim_ex.c:559:5
	b	.LBB13_8
.LBB13_4:
.Ltmp92:
	.loc	7 564 7                         @ ../ThirdParty/STM32F4xx_HAL_Driver/Src/stm32f4xx_hal_tim_ex.c:564:7
	ldr	r0, [sp, #12]
	ldr	r1, [r0]
	ldr	r0, [r1, #12]
	orr	r0, r0, #4
	str	r0, [r1, #12]
.Ltmp93:
	.loc	7 566 5                         @ ../ThirdParty/STM32F4xx_HAL_Driver/Src/stm32f4xx_hal_tim_ex.c:566:5
	b	.LBB13_8
.LBB13_5:
.Ltmp94:
	.loc	7 571 7                         @ ../ThirdParty/STM32F4xx_HAL_Driver/Src/stm32f4xx_hal_tim_ex.c:571:7
	ldr	r0, [sp, #12]
	ldr	r1, [r0]
	ldr	r0, [r1, #12]
	orr	r0, r0, #8
	str	r0, [r1, #12]
.Ltmp95:
	.loc	7 573 5                         @ ../ThirdParty/STM32F4xx_HAL_Driver/Src/stm32f4xx_hal_tim_ex.c:573:5
	b	.LBB13_8
.LBB13_6:
.Ltmp96:
	.loc	7 578 7                         @ ../ThirdParty/STM32F4xx_HAL_Driver/Src/stm32f4xx_hal_tim_ex.c:578:7
	ldr	r0, [sp, #12]
	ldr	r1, [r0]
	ldr	r0, [r1, #12]
	orr	r0, r0, #16
	str	r0, [r1, #12]
.Ltmp97:
	.loc	7 580 5                         @ ../ThirdParty/STM32F4xx_HAL_Driver/Src/stm32f4xx_hal_tim_ex.c:580:5
	b	.LBB13_8
.LBB13_7:
	.loc	7 583 5                         @ ../ThirdParty/STM32F4xx_HAL_Driver/Src/stm32f4xx_hal_tim_ex.c:583:5
	b	.LBB13_8
.Ltmp98:
.LBB13_8:
	.loc	7 587 3                         @ ../ThirdParty/STM32F4xx_HAL_Driver/Src/stm32f4xx_hal_tim_ex.c:587:3
	ldr	r0, [sp, #12]
	ldr	r1, [r0]
	ldr	r0, [r1, #12]
	orr	r0, r0, #128
	str	r0, [r1, #12]
	.loc	7 590 22                        @ ../ThirdParty/STM32F4xx_HAL_Driver/Src/stm32f4xx_hal_tim_ex.c:590:22
	ldr	r0, [sp, #12]
	.loc	7 590 28 is_stmt 0              @ ../ThirdParty/STM32F4xx_HAL_Driver/Src/stm32f4xx_hal_tim_ex.c:590:28
	ldr	r0, [r0]
	.loc	7 590 38                        @ ../ThirdParty/STM32F4xx_HAL_Driver/Src/stm32f4xx_hal_tim_ex.c:590:38
	ldr	r1, [sp, #8]
	movs	r2, #4
	.loc	7 590 3                         @ ../ThirdParty/STM32F4xx_HAL_Driver/Src/stm32f4xx_hal_tim_ex.c:590:3
	bl	TIM_CCxNChannelCmd
	.loc	7 593 3 is_stmt 1               @ ../ThirdParty/STM32F4xx_HAL_Driver/Src/stm32f4xx_hal_tim_ex.c:593:3
	ldr	r0, [sp, #12]
	ldr	r1, [r0]
	ldr	r0, [r1, #68]
	orr	r0, r0, #32768
	str	r0, [r1, #68]
	.loc	7 596 3                         @ ../ThirdParty/STM32F4xx_HAL_Driver/Src/stm32f4xx_hal_tim_ex.c:596:3
	ldr	r0, [sp, #12]
	ldr	r1, [r0]
	ldr	r0, [r1]
	orr	r0, r0, #1
	str	r0, [r1]
	movs	r0, #0
	.loc	7 599 3 epilogue_begin          @ ../ThirdParty/STM32F4xx_HAL_Driver/Src/stm32f4xx_hal_tim_ex.c:599:3
	add	sp, #16
	pop	{r7, pc}
.Ltmp99:
.Lfunc_end13:
	.size	HAL_TIMEx_OCN_Start_IT, .Lfunc_end13-HAL_TIMEx_OCN_Start_IT
	.cfi_endproc
	.cantunwind
	.fnend
                                        @ -- End function
	.section	.text.HAL_TIMEx_OCN_Stop_IT,"ax",%progbits
	.hidden	HAL_TIMEx_OCN_Stop_IT           @ -- Begin function HAL_TIMEx_OCN_Stop_IT
	.globl	HAL_TIMEx_OCN_Stop_IT
	.p2align	2
	.type	HAL_TIMEx_OCN_Stop_IT,%function
	.code	16                              @ @HAL_TIMEx_OCN_Stop_IT
	.thumb_func
HAL_TIMEx_OCN_Stop_IT:
.Lfunc_begin14:
	.loc	7 615 0                         @ ../ThirdParty/STM32F4xx_HAL_Driver/Src/stm32f4xx_hal_tim_ex.c:615:0
	.fnstart
	.cfi_startproc
@ %bb.0:
	.save	{r7, lr}
	push	{r7, lr}
	.cfi_def_cfa_offset 8
	.cfi_offset lr, -4
	.cfi_offset r7, -8
	.pad	#16
	sub	sp, #16
	.cfi_def_cfa_offset 24
	str	r0, [sp, #12]
	str	r1, [sp, #8]
.Ltmp100:
	.loc	7 619 11 prologue_end           @ ../ThirdParty/STM32F4xx_HAL_Driver/Src/stm32f4xx_hal_tim_ex.c:619:11
	ldr	r0, [sp, #8]
	.loc	7 619 3 is_stmt 0               @ ../ThirdParty/STM32F4xx_HAL_Driver/Src/stm32f4xx_hal_tim_ex.c:619:3
	str	r0, [sp, #4]                    @ 4-byte Spill
	cmp	r0, #12
	bhi	.LBB14_7
@ %bb.1:
	.loc	7 0 3                           @ ../ThirdParty/STM32F4xx_HAL_Driver/Src/stm32f4xx_hal_tim_ex.c:0:3
	ldr	r1, [sp, #4]                    @ 4-byte Reload
.LCPI14_0:
	tbb	[pc, r1]
@ %bb.2:
.LJTI14_0:
	.byte	(.LBB14_3-(.LCPI14_0+4))/2
	.byte	(.LBB14_7-(.LCPI14_0+4))/2
	.byte	(.LBB14_7-(.LCPI14_0+4))/2
	.byte	(.LBB14_7-(.LCPI14_0+4))/2
	.byte	(.LBB14_4-(.LCPI14_0+4))/2
	.byte	(.LBB14_7-(.LCPI14_0+4))/2
	.byte	(.LBB14_7-(.LCPI14_0+4))/2
	.byte	(.LBB14_7-(.LCPI14_0+4))/2
	.byte	(.LBB14_5-(.LCPI14_0+4))/2
	.byte	(.LBB14_7-(.LCPI14_0+4))/2
	.byte	(.LBB14_7-(.LCPI14_0+4))/2
	.byte	(.LBB14_7-(.LCPI14_0+4))/2
	.byte	(.LBB14_6-(.LCPI14_0+4))/2
	.p2align	1
.LBB14_3:
.Ltmp101:
	.loc	7 624 7 is_stmt 1               @ ../ThirdParty/STM32F4xx_HAL_Driver/Src/stm32f4xx_hal_tim_ex.c:624:7
	ldr	r0, [sp, #12]
	ldr	r1, [r0]
	ldr	r0, [r1, #12]
	bic	r0, r0, #2
	str	r0, [r1, #12]
.Ltmp102:
	.loc	7 626 5                         @ ../ThirdParty/STM32F4xx_HAL_Driver/Src/stm32f4xx_hal_tim_ex.c:626:5
	b	.LBB14_8
.LBB14_4:
.Ltmp103:
	.loc	7 631 7                         @ ../ThirdParty/STM32F4xx_HAL_Driver/Src/stm32f4xx_hal_tim_ex.c:631:7
	ldr	r0, [sp, #12]
	ldr	r1, [r0]
	ldr	r0, [r1, #12]
	bic	r0, r0, #4
	str	r0, [r1, #12]
.Ltmp104:
	.loc	7 633 5                         @ ../ThirdParty/STM32F4xx_HAL_Driver/Src/stm32f4xx_hal_tim_ex.c:633:5
	b	.LBB14_8
.LBB14_5:
.Ltmp105:
	.loc	7 638 7                         @ ../ThirdParty/STM32F4xx_HAL_Driver/Src/stm32f4xx_hal_tim_ex.c:638:7
	ldr	r0, [sp, #12]
	ldr	r1, [r0]
	ldr	r0, [r1, #12]
	bic	r0, r0, #8
	str	r0, [r1, #12]
.Ltmp106:
	.loc	7 640 5                         @ ../ThirdParty/STM32F4xx_HAL_Driver/Src/stm32f4xx_hal_tim_ex.c:640:5
	b	.LBB14_8
.LBB14_6:
.Ltmp107:
	.loc	7 645 7                         @ ../ThirdParty/STM32F4xx_HAL_Driver/Src/stm32f4xx_hal_tim_ex.c:645:7
	ldr	r0, [sp, #12]
	ldr	r1, [r0]
	ldr	r0, [r1, #12]
	bic	r0, r0, #16
	str	r0, [r1, #12]
.Ltmp108:
	.loc	7 647 5                         @ ../ThirdParty/STM32F4xx_HAL_Driver/Src/stm32f4xx_hal_tim_ex.c:647:5
	b	.LBB14_8
.LBB14_7:
	.loc	7 650 5                         @ ../ThirdParty/STM32F4xx_HAL_Driver/Src/stm32f4xx_hal_tim_ex.c:650:5
	b	.LBB14_8
.Ltmp109:
.LBB14_8:
	.loc	7 654 22                        @ ../ThirdParty/STM32F4xx_HAL_Driver/Src/stm32f4xx_hal_tim_ex.c:654:22
	ldr	r0, [sp, #12]
	.loc	7 654 28 is_stmt 0              @ ../ThirdParty/STM32F4xx_HAL_Driver/Src/stm32f4xx_hal_tim_ex.c:654:28
	ldr	r0, [r0]
	.loc	7 654 38                        @ ../ThirdParty/STM32F4xx_HAL_Driver/Src/stm32f4xx_hal_tim_ex.c:654:38
	ldr	r1, [sp, #8]
	movs	r2, #0
	.loc	7 654 3                         @ ../ThirdParty/STM32F4xx_HAL_Driver/Src/stm32f4xx_hal_tim_ex.c:654:3
	bl	TIM_CCxNChannelCmd
.Ltmp110:
	.loc	7 657 7 is_stmt 1               @ ../ThirdParty/STM32F4xx_HAL_Driver/Src/stm32f4xx_hal_tim_ex.c:657:7
	ldr	r0, [sp, #12]
	ldr	r0, [r0]
	ldr	r0, [r0, #32]
	movw	r1, #1092
.Ltmp111:
	.loc	7 657 6 is_stmt 0               @ ../ThirdParty/STM32F4xx_HAL_Driver/Src/stm32f4xx_hal_tim_ex.c:657:6
	tst	r0, r1
	bne	.LBB14_10
	b	.LBB14_9
.LBB14_9:
.Ltmp112:
	.loc	7 659 5 is_stmt 1               @ ../ThirdParty/STM32F4xx_HAL_Driver/Src/stm32f4xx_hal_tim_ex.c:659:5
	ldr	r0, [sp, #12]
	ldr	r1, [r0]
	ldr	r0, [r1, #12]
	bic	r0, r0, #128
	str	r0, [r1, #12]
	.loc	7 660 3                         @ ../ThirdParty/STM32F4xx_HAL_Driver/Src/stm32f4xx_hal_tim_ex.c:660:3
	b	.LBB14_10
.Ltmp113:
.LBB14_10:
	.loc	7 663 3                         @ ../ThirdParty/STM32F4xx_HAL_Driver/Src/stm32f4xx_hal_tim_ex.c:663:3
	b	.LBB14_11
.LBB14_11:
.Ltmp114:
	.loc	7 663 3 is_stmt 0               @ ../ThirdParty/STM32F4xx_HAL_Driver/Src/stm32f4xx_hal_tim_ex.c:663:3
	ldr	r0, [sp, #12]
	ldr	r0, [r0]
	ldr	r0, [r0, #32]
	movw	r1, #4369
.Ltmp115:
	.loc	7 663 3                         @ ../ThirdParty/STM32F4xx_HAL_Driver/Src/stm32f4xx_hal_tim_ex.c:663:3
	tst	r0, r1
	bne	.LBB14_15
	b	.LBB14_12
.LBB14_12:
.Ltmp116:
	.loc	7 663 3                         @ ../ThirdParty/STM32F4xx_HAL_Driver/Src/stm32f4xx_hal_tim_ex.c:663:3
	ldr	r0, [sp, #12]
	ldr	r0, [r0]
	ldr	r0, [r0, #32]
	movw	r1, #1092
.Ltmp117:
	.loc	7 663 3                         @ ../ThirdParty/STM32F4xx_HAL_Driver/Src/stm32f4xx_hal_tim_ex.c:663:3
	tst	r0, r1
	bne	.LBB14_14
	b	.LBB14_13
.LBB14_13:
.Ltmp118:
	.loc	7 663 3                         @ ../ThirdParty/STM32F4xx_HAL_Driver/Src/stm32f4xx_hal_tim_ex.c:663:3
	ldr	r0, [sp, #12]
	ldr	r1, [r0]
	ldr	r0, [r1, #68]
	bic	r0, r0, #32768
	str	r0, [r1, #68]
	b	.LBB14_14
.Ltmp119:
.LBB14_14:
	.loc	7 663 3                         @ ../ThirdParty/STM32F4xx_HAL_Driver/Src/stm32f4xx_hal_tim_ex.c:663:3
	b	.LBB14_15
.Ltmp120:
.LBB14_15:
	.loc	7 663 3                         @ ../ThirdParty/STM32F4xx_HAL_Driver/Src/stm32f4xx_hal_tim_ex.c:663:3
	b	.LBB14_16
.Ltmp121:
.LBB14_16:
	.loc	7 666 3 is_stmt 1               @ ../ThirdParty/STM32F4xx_HAL_Driver/Src/stm32f4xx_hal_tim_ex.c:666:3
	b	.LBB14_17
.LBB14_17:
.Ltmp122:
	.loc	7 666 3 is_stmt 0               @ ../ThirdParty/STM32F4xx_HAL_Driver/Src/stm32f4xx_hal_tim_ex.c:666:3
	ldr	r0, [sp, #12]
	ldr	r0, [r0]
	ldr	r0, [r0, #32]
	movw	r1, #4369
.Ltmp123:
	.loc	7 666 3                         @ ../ThirdParty/STM32F4xx_HAL_Driver/Src/stm32f4xx_hal_tim_ex.c:666:3
	tst	r0, r1
	bne	.LBB14_21
	b	.LBB14_18
.LBB14_18:
.Ltmp124:
	.loc	7 666 3                         @ ../ThirdParty/STM32F4xx_HAL_Driver/Src/stm32f4xx_hal_tim_ex.c:666:3
	ldr	r0, [sp, #12]
	ldr	r0, [r0]
	ldr	r0, [r0, #32]
	movw	r1, #1092
.Ltmp125:
	.loc	7 666 3                         @ ../ThirdParty/STM32F4xx_HAL_Driver/Src/stm32f4xx_hal_tim_ex.c:666:3
	tst	r0, r1
	bne	.LBB14_20
	b	.LBB14_19
.LBB14_19:
.Ltmp126:
	.loc	7 666 3                         @ ../ThirdParty/STM32F4xx_HAL_Driver/Src/stm32f4xx_hal_tim_ex.c:666:3
	ldr	r0, [sp, #12]
	ldr	r1, [r0]
	ldr	r0, [r1]
	bic	r0, r0, #1
	str	r0, [r1]
	b	.LBB14_20
.Ltmp127:
.LBB14_20:
	.loc	7 666 3                         @ ../ThirdParty/STM32F4xx_HAL_Driver/Src/stm32f4xx_hal_tim_ex.c:666:3
	b	.LBB14_21
.Ltmp128:
.LBB14_21:
	.loc	7 666 3                         @ ../ThirdParty/STM32F4xx_HAL_Driver/Src/stm32f4xx_hal_tim_ex.c:666:3
	b	.LBB14_22
.Ltmp129:
.LBB14_22:
	.loc	7 0 3                           @ ../ThirdParty/STM32F4xx_HAL_Driver/Src/stm32f4xx_hal_tim_ex.c:0:3
	movs	r0, #0
	.loc	7 669 3 epilogue_begin is_stmt 1 @ ../ThirdParty/STM32F4xx_HAL_Driver/Src/stm32f4xx_hal_tim_ex.c:669:3
	add	sp, #16
	pop	{r7, pc}
.Ltmp130:
.Lfunc_end14:
	.size	HAL_TIMEx_OCN_Stop_IT, .Lfunc_end14-HAL_TIMEx_OCN_Stop_IT
	.cfi_endproc
	.cantunwind
	.fnend
                                        @ -- End function
	.section	.text.HAL_TIMEx_OCN_Start_DMA,"ax",%progbits
	.hidden	HAL_TIMEx_OCN_Start_DMA         @ -- Begin function HAL_TIMEx_OCN_Start_DMA
	.globl	HAL_TIMEx_OCN_Start_DMA
	.p2align	2
	.type	HAL_TIMEx_OCN_Start_DMA,%function
	.code	16                              @ @HAL_TIMEx_OCN_Start_DMA
	.thumb_func
HAL_TIMEx_OCN_Start_DMA:
.Lfunc_begin15:
	.loc	7 687 0                         @ ../ThirdParty/STM32F4xx_HAL_Driver/Src/stm32f4xx_hal_tim_ex.c:687:0
	.fnstart
	.cfi_startproc
@ %bb.0:
	.save	{r7, lr}
	push	{r7, lr}
	.cfi_def_cfa_offset 8
	.cfi_offset lr, -4
	.cfi_offset r7, -8
	.pad	#24
	sub	sp, #24
	.cfi_def_cfa_offset 32
                                        @ kill: def $r12 killed $r3
	str	r0, [sp, #16]
	str	r1, [sp, #12]
	str	r2, [sp, #8]
	strh.w	r3, [sp, #6]
.Ltmp131:
	.loc	7 691 7 prologue_end            @ ../ThirdParty/STM32F4xx_HAL_Driver/Src/stm32f4xx_hal_tim_ex.c:691:7
	ldr	r0, [sp, #16]
	.loc	7 691 13 is_stmt 0              @ ../ThirdParty/STM32F4xx_HAL_Driver/Src/stm32f4xx_hal_tim_ex.c:691:13
	ldrb.w	r0, [r0, #57]
.Ltmp132:
	.loc	7 691 6                         @ ../ThirdParty/STM32F4xx_HAL_Driver/Src/stm32f4xx_hal_tim_ex.c:691:6
	cmp	r0, #2
	bne	.LBB15_2
	b	.LBB15_1
.LBB15_1:
	.loc	7 0 6                           @ ../ThirdParty/STM32F4xx_HAL_Driver/Src/stm32f4xx_hal_tim_ex.c:0:6
	movs	r0, #2
.Ltmp133:
	.loc	7 693 6 is_stmt 1               @ ../ThirdParty/STM32F4xx_HAL_Driver/Src/stm32f4xx_hal_tim_ex.c:693:6
	strb.w	r0, [sp, #23]
	b	.LBB15_18
.Ltmp134:
.LBB15_2:
	.loc	7 695 12                        @ ../ThirdParty/STM32F4xx_HAL_Driver/Src/stm32f4xx_hal_tim_ex.c:695:12
	ldr	r0, [sp, #16]
	.loc	7 695 18 is_stmt 0              @ ../ThirdParty/STM32F4xx_HAL_Driver/Src/stm32f4xx_hal_tim_ex.c:695:18
	ldrb.w	r0, [r0, #57]
.Ltmp135:
	.loc	7 695 11                        @ ../ThirdParty/STM32F4xx_HAL_Driver/Src/stm32f4xx_hal_tim_ex.c:695:11
	cmp	r0, #1
	bne	.LBB15_8
	b	.LBB15_3
.LBB15_3:
.Ltmp136:
	.loc	7 697 19 is_stmt 1              @ ../ThirdParty/STM32F4xx_HAL_Driver/Src/stm32f4xx_hal_tim_ex.c:697:19
	ldr	r0, [sp, #8]
	.loc	7 697 32 is_stmt 0              @ ../ThirdParty/STM32F4xx_HAL_Driver/Src/stm32f4xx_hal_tim_ex.c:697:32
	cbnz	r0, .LBB15_6
	b	.LBB15_4
.LBB15_4:
	.loc	7 697 36                        @ ../ThirdParty/STM32F4xx_HAL_Driver/Src/stm32f4xx_hal_tim_ex.c:697:36
	ldrh.w	r0, [sp, #6]
.Ltmp137:
	.loc	7 697 8                         @ ../ThirdParty/STM32F4xx_HAL_Driver/Src/stm32f4xx_hal_tim_ex.c:697:8
	cmp	r0, #1
	blt	.LBB15_6
	b	.LBB15_5
.LBB15_5:
	.loc	7 0 8                           @ ../ThirdParty/STM32F4xx_HAL_Driver/Src/stm32f4xx_hal_tim_ex.c:0:8
	movs	r0, #1
.Ltmp138:
	.loc	7 699 7 is_stmt 1               @ ../ThirdParty/STM32F4xx_HAL_Driver/Src/stm32f4xx_hal_tim_ex.c:699:7
	strb.w	r0, [sp, #23]
	b	.LBB15_18
.Ltmp139:
.LBB15_6:
	.loc	7 703 7                         @ ../ThirdParty/STM32F4xx_HAL_Driver/Src/stm32f4xx_hal_tim_ex.c:703:7
	ldr	r1, [sp, #16]
	movs	r0, #2
	.loc	7 703 19 is_stmt 0              @ ../ThirdParty/STM32F4xx_HAL_Driver/Src/stm32f4xx_hal_tim_ex.c:703:19
	strb.w	r0, [r1, #57]
	b	.LBB15_7
.Ltmp140:
.LBB15_7:
	.loc	7 705 3 is_stmt 1               @ ../ThirdParty/STM32F4xx_HAL_Driver/Src/stm32f4xx_hal_tim_ex.c:705:3
	b	.LBB15_8
.Ltmp141:
.LBB15_8:
	.loc	7 0 3 is_stmt 0                 @ ../ThirdParty/STM32F4xx_HAL_Driver/Src/stm32f4xx_hal_tim_ex.c:0:3
	b	.LBB15_9
.LBB15_9:
	.loc	7 706 11 is_stmt 1              @ ../ThirdParty/STM32F4xx_HAL_Driver/Src/stm32f4xx_hal_tim_ex.c:706:11
	ldr	r0, [sp, #12]
	.loc	7 706 3 is_stmt 0               @ ../ThirdParty/STM32F4xx_HAL_Driver/Src/stm32f4xx_hal_tim_ex.c:706:3
	str	r0, [sp]                        @ 4-byte Spill
	cmp	r0, #12
	bhi.w	.LBB15_16
@ %bb.10:
	.loc	7 0 3                           @ ../ThirdParty/STM32F4xx_HAL_Driver/Src/stm32f4xx_hal_tim_ex.c:0:3
	ldr	r1, [sp]                        @ 4-byte Reload
.LCPI15_0:
	tbb	[pc, r1]
@ %bb.11:
.LJTI15_0:
	.byte	(.LBB15_12-(.LCPI15_0+4))/2
	.byte	(.LBB15_16-(.LCPI15_0+4))/2
	.byte	(.LBB15_16-(.LCPI15_0+4))/2
	.byte	(.LBB15_16-(.LCPI15_0+4))/2
	.byte	(.LBB15_13-(.LCPI15_0+4))/2
	.byte	(.LBB15_16-(.LCPI15_0+4))/2
	.byte	(.LBB15_16-(.LCPI15_0+4))/2
	.byte	(.LBB15_16-(.LCPI15_0+4))/2
	.byte	(.LBB15_14-(.LCPI15_0+4))/2
	.byte	(.LBB15_16-(.LCPI15_0+4))/2
	.byte	(.LBB15_16-(.LCPI15_0+4))/2
	.byte	(.LBB15_16-(.LCPI15_0+4))/2
	.byte	(.LBB15_15-(.LCPI15_0+4))/2
	.p2align	1
.LBB15_12:
.Ltmp142:
	.loc	7 711 7 is_stmt 1               @ ../ThirdParty/STM32F4xx_HAL_Driver/Src/stm32f4xx_hal_tim_ex.c:711:7
	ldr	r0, [sp, #16]
	ldr	r1, [r0, #32]
	.loc	7 711 52 is_stmt 0              @ ../ThirdParty/STM32F4xx_HAL_Driver/Src/stm32f4xx_hal_tim_ex.c:711:52
	movw	r0, :lower16:TIM_DMADelayPulseCplt
	movt	r0, :upper16:TIM_DMADelayPulseCplt
	str	r0, [r1, #60]
	.loc	7 714 7 is_stmt 1               @ ../ThirdParty/STM32F4xx_HAL_Driver/Src/stm32f4xx_hal_tim_ex.c:714:7
	ldr	r0, [sp, #16]
	ldr	r1, [r0, #32]
	.loc	7 714 53 is_stmt 0              @ ../ThirdParty/STM32F4xx_HAL_Driver/Src/stm32f4xx_hal_tim_ex.c:714:53
	movw	r0, :lower16:TIM_DMAError
	movt	r0, :upper16:TIM_DMAError
	str	r0, [r1, #76]
	.loc	7 717 24 is_stmt 1              @ ../ThirdParty/STM32F4xx_HAL_Driver/Src/stm32f4xx_hal_tim_ex.c:717:24
	ldr	r0, [sp, #16]
	.loc	7 717 86 is_stmt 0              @ ../ThirdParty/STM32F4xx_HAL_Driver/Src/stm32f4xx_hal_tim_ex.c:717:86
	ldr	r2, [r0]
	.loc	7 717 24                        @ ../ThirdParty/STM32F4xx_HAL_Driver/Src/stm32f4xx_hal_tim_ex.c:717:24
	ldr	r0, [r0, #32]
	.loc	7 717 62                        @ ../ThirdParty/STM32F4xx_HAL_Driver/Src/stm32f4xx_hal_tim_ex.c:717:62
	ldr	r1, [sp, #8]
	.loc	7 717 96                        @ ../ThirdParty/STM32F4xx_HAL_Driver/Src/stm32f4xx_hal_tim_ex.c:717:96
	adds	r2, #52
	.loc	7 717 102                       @ ../ThirdParty/STM32F4xx_HAL_Driver/Src/stm32f4xx_hal_tim_ex.c:717:102
	ldrh.w	r3, [sp, #6]
	.loc	7 717 7                         @ ../ThirdParty/STM32F4xx_HAL_Driver/Src/stm32f4xx_hal_tim_ex.c:717:7
	bl	HAL_DMA_Start_IT
	.loc	7 720 7 is_stmt 1               @ ../ThirdParty/STM32F4xx_HAL_Driver/Src/stm32f4xx_hal_tim_ex.c:720:7
	ldr	r0, [sp, #16]
	ldr	r1, [r0]
	ldr	r0, [r1, #12]
	orr	r0, r0, #512
	str	r0, [r1, #12]
.Ltmp143:
	.loc	7 722 5                         @ ../ThirdParty/STM32F4xx_HAL_Driver/Src/stm32f4xx_hal_tim_ex.c:722:5
	b	.LBB15_17
.LBB15_13:
.Ltmp144:
	.loc	7 727 7                         @ ../ThirdParty/STM32F4xx_HAL_Driver/Src/stm32f4xx_hal_tim_ex.c:727:7
	ldr	r0, [sp, #16]
	ldr	r1, [r0, #36]
	.loc	7 727 52 is_stmt 0              @ ../ThirdParty/STM32F4xx_HAL_Driver/Src/stm32f4xx_hal_tim_ex.c:727:52
	movw	r0, :lower16:TIM_DMADelayPulseCplt
	movt	r0, :upper16:TIM_DMADelayPulseCplt
	str	r0, [r1, #60]
	.loc	7 730 7 is_stmt 1               @ ../ThirdParty/STM32F4xx_HAL_Driver/Src/stm32f4xx_hal_tim_ex.c:730:7
	ldr	r0, [sp, #16]
	ldr	r1, [r0, #36]
	.loc	7 730 53 is_stmt 0              @ ../ThirdParty/STM32F4xx_HAL_Driver/Src/stm32f4xx_hal_tim_ex.c:730:53
	movw	r0, :lower16:TIM_DMAError
	movt	r0, :upper16:TIM_DMAError
	str	r0, [r1, #76]
	.loc	7 733 24 is_stmt 1              @ ../ThirdParty/STM32F4xx_HAL_Driver/Src/stm32f4xx_hal_tim_ex.c:733:24
	ldr	r0, [sp, #16]
	.loc	7 733 86 is_stmt 0              @ ../ThirdParty/STM32F4xx_HAL_Driver/Src/stm32f4xx_hal_tim_ex.c:733:86
	ldr	r2, [r0]
	.loc	7 733 24                        @ ../ThirdParty/STM32F4xx_HAL_Driver/Src/stm32f4xx_hal_tim_ex.c:733:24
	ldr	r0, [r0, #36]
	.loc	7 733 62                        @ ../ThirdParty/STM32F4xx_HAL_Driver/Src/stm32f4xx_hal_tim_ex.c:733:62
	ldr	r1, [sp, #8]
	.loc	7 733 96                        @ ../ThirdParty/STM32F4xx_HAL_Driver/Src/stm32f4xx_hal_tim_ex.c:733:96
	adds	r2, #56
	.loc	7 733 102                       @ ../ThirdParty/STM32F4xx_HAL_Driver/Src/stm32f4xx_hal_tim_ex.c:733:102
	ldrh.w	r3, [sp, #6]
	.loc	7 733 7                         @ ../ThirdParty/STM32F4xx_HAL_Driver/Src/stm32f4xx_hal_tim_ex.c:733:7
	bl	HAL_DMA_Start_IT
	.loc	7 736 7 is_stmt 1               @ ../ThirdParty/STM32F4xx_HAL_Driver/Src/stm32f4xx_hal_tim_ex.c:736:7
	ldr	r0, [sp, #16]
	ldr	r1, [r0]
	ldr	r0, [r1, #12]
	orr	r0, r0, #1024
	str	r0, [r1, #12]
.Ltmp145:
	.loc	7 738 5                         @ ../ThirdParty/STM32F4xx_HAL_Driver/Src/stm32f4xx_hal_tim_ex.c:738:5
	b	.LBB15_17
.LBB15_14:
.Ltmp146:
	.loc	7 743 7                         @ ../ThirdParty/STM32F4xx_HAL_Driver/Src/stm32f4xx_hal_tim_ex.c:743:7
	ldr	r0, [sp, #16]
	ldr	r1, [r0, #40]
	.loc	7 743 52 is_stmt 0              @ ../ThirdParty/STM32F4xx_HAL_Driver/Src/stm32f4xx_hal_tim_ex.c:743:52
	movw	r0, :lower16:TIM_DMADelayPulseCplt
	movt	r0, :upper16:TIM_DMADelayPulseCplt
	str	r0, [r1, #60]
	.loc	7 746 7 is_stmt 1               @ ../ThirdParty/STM32F4xx_HAL_Driver/Src/stm32f4xx_hal_tim_ex.c:746:7
	ldr	r0, [sp, #16]
	ldr	r1, [r0, #40]
	.loc	7 746 53 is_stmt 0              @ ../ThirdParty/STM32F4xx_HAL_Driver/Src/stm32f4xx_hal_tim_ex.c:746:53
	movw	r0, :lower16:TIM_DMAError
	movt	r0, :upper16:TIM_DMAError
	str	r0, [r1, #76]
	.loc	7 749 24 is_stmt 1              @ ../ThirdParty/STM32F4xx_HAL_Driver/Src/stm32f4xx_hal_tim_ex.c:749:24
	ldr	r0, [sp, #16]
	.loc	7 749 86 is_stmt 0              @ ../ThirdParty/STM32F4xx_HAL_Driver/Src/stm32f4xx_hal_tim_ex.c:749:86
	ldr	r2, [r0]
	.loc	7 749 24                        @ ../ThirdParty/STM32F4xx_HAL_Driver/Src/stm32f4xx_hal_tim_ex.c:749:24
	ldr	r0, [r0, #40]
	.loc	7 749 62                        @ ../ThirdParty/STM32F4xx_HAL_Driver/Src/stm32f4xx_hal_tim_ex.c:749:62
	ldr	r1, [sp, #8]
	.loc	7 749 96                        @ ../ThirdParty/STM32F4xx_HAL_Driver/Src/stm32f4xx_hal_tim_ex.c:749:96
	adds	r2, #60
	.loc	7 749 101                       @ ../ThirdParty/STM32F4xx_HAL_Driver/Src/stm32f4xx_hal_tim_ex.c:749:101
	ldrh.w	r3, [sp, #6]
	.loc	7 749 7                         @ ../ThirdParty/STM32F4xx_HAL_Driver/Src/stm32f4xx_hal_tim_ex.c:749:7
	bl	HAL_DMA_Start_IT
	.loc	7 752 7 is_stmt 1               @ ../ThirdParty/STM32F4xx_HAL_Driver/Src/stm32f4xx_hal_tim_ex.c:752:7
	ldr	r0, [sp, #16]
	ldr	r1, [r0]
	ldr	r0, [r1, #12]
	orr	r0, r0, #2048
	str	r0, [r1, #12]
.Ltmp147:
	.loc	7 754 5                         @ ../ThirdParty/STM32F4xx_HAL_Driver/Src/stm32f4xx_hal_tim_ex.c:754:5
	b	.LBB15_17
.LBB15_15:
.Ltmp148:
	.loc	7 759 7                         @ ../ThirdParty/STM32F4xx_HAL_Driver/Src/stm32f4xx_hal_tim_ex.c:759:7
	ldr	r0, [sp, #16]
	ldr	r1, [r0, #44]
	.loc	7 759 52 is_stmt 0              @ ../ThirdParty/STM32F4xx_HAL_Driver/Src/stm32f4xx_hal_tim_ex.c:759:52
	movw	r0, :lower16:TIM_DMADelayPulseCplt
	movt	r0, :upper16:TIM_DMADelayPulseCplt
	str	r0, [r1, #60]
	.loc	7 762 7 is_stmt 1               @ ../ThirdParty/STM32F4xx_HAL_Driver/Src/stm32f4xx_hal_tim_ex.c:762:7
	ldr	r0, [sp, #16]
	ldr	r1, [r0, #44]
	.loc	7 762 53 is_stmt 0              @ ../ThirdParty/STM32F4xx_HAL_Driver/Src/stm32f4xx_hal_tim_ex.c:762:53
	movw	r0, :lower16:TIM_DMAError
	movt	r0, :upper16:TIM_DMAError
	str	r0, [r1, #76]
	.loc	7 765 24 is_stmt 1              @ ../ThirdParty/STM32F4xx_HAL_Driver/Src/stm32f4xx_hal_tim_ex.c:765:24
	ldr	r0, [sp, #16]
	.loc	7 765 86 is_stmt 0              @ ../ThirdParty/STM32F4xx_HAL_Driver/Src/stm32f4xx_hal_tim_ex.c:765:86
	ldr	r2, [r0]
	.loc	7 765 24                        @ ../ThirdParty/STM32F4xx_HAL_Driver/Src/stm32f4xx_hal_tim_ex.c:765:24
	ldr	r0, [r0, #44]
	.loc	7 765 62                        @ ../ThirdParty/STM32F4xx_HAL_Driver/Src/stm32f4xx_hal_tim_ex.c:765:62
	ldr	r1, [sp, #8]
	.loc	7 765 96                        @ ../ThirdParty/STM32F4xx_HAL_Driver/Src/stm32f4xx_hal_tim_ex.c:765:96
	adds	r2, #64
	.loc	7 765 102                       @ ../ThirdParty/STM32F4xx_HAL_Driver/Src/stm32f4xx_hal_tim_ex.c:765:102
	ldrh.w	r3, [sp, #6]
	.loc	7 765 7                         @ ../ThirdParty/STM32F4xx_HAL_Driver/Src/stm32f4xx_hal_tim_ex.c:765:7
	bl	HAL_DMA_Start_IT
	.loc	7 768 7 is_stmt 1               @ ../ThirdParty/STM32F4xx_HAL_Driver/Src/stm32f4xx_hal_tim_ex.c:768:7
	ldr	r0, [sp, #16]
	ldr	r1, [r0]
	ldr	r0, [r1, #12]
	orr	r0, r0, #4096
	str	r0, [r1, #12]
.Ltmp149:
	.loc	7 770 5                         @ ../ThirdParty/STM32F4xx_HAL_Driver/Src/stm32f4xx_hal_tim_ex.c:770:5
	b	.LBB15_17
.LBB15_16:
	.loc	7 773 5                         @ ../ThirdParty/STM32F4xx_HAL_Driver/Src/stm32f4xx_hal_tim_ex.c:773:5
	b	.LBB15_17
.Ltmp150:
.LBB15_17:
	.loc	7 777 22                        @ ../ThirdParty/STM32F4xx_HAL_Driver/Src/stm32f4xx_hal_tim_ex.c:777:22
	ldr	r0, [sp, #16]
	.loc	7 777 28 is_stmt 0              @ ../ThirdParty/STM32F4xx_HAL_Driver/Src/stm32f4xx_hal_tim_ex.c:777:28
	ldr	r0, [r0]
	.loc	7 777 38                        @ ../ThirdParty/STM32F4xx_HAL_Driver/Src/stm32f4xx_hal_tim_ex.c:777:38
	ldr	r1, [sp, #12]
	movs	r2, #4
	.loc	7 777 3                         @ ../ThirdParty/STM32F4xx_HAL_Driver/Src/stm32f4xx_hal_tim_ex.c:777:3
	bl	TIM_CCxNChannelCmd
	.loc	7 780 3 is_stmt 1               @ ../ThirdParty/STM32F4xx_HAL_Driver/Src/stm32f4xx_hal_tim_ex.c:780:3
	ldr	r0, [sp, #16]
	ldr	r1, [r0]
	ldr	r0, [r1, #68]
	orr	r0, r0, #32768
	str	r0, [r1, #68]
	.loc	7 783 3                         @ ../ThirdParty/STM32F4xx_HAL_Driver/Src/stm32f4xx_hal_tim_ex.c:783:3
	ldr	r0, [sp, #16]
	ldr	r1, [r0]
	ldr	r0, [r1]
	orr	r0, r0, #1
	str	r0, [r1]
	movs	r0, #0
	.loc	7 786 3                         @ ../ThirdParty/STM32F4xx_HAL_Driver/Src/stm32f4xx_hal_tim_ex.c:786:3
	strb.w	r0, [sp, #23]
	b	.LBB15_18
.LBB15_18:
	.loc	7 787 1                         @ ../ThirdParty/STM32F4xx_HAL_Driver/Src/stm32f4xx_hal_tim_ex.c:787:1
	ldrb.w	r0, [sp, #23]
	.loc	7 787 1 epilogue_begin is_stmt 0 @ ../ThirdParty/STM32F4xx_HAL_Driver/Src/stm32f4xx_hal_tim_ex.c:787:1
	add	sp, #24
	pop	{r7, pc}
.Ltmp151:
.Lfunc_end15:
	.size	HAL_TIMEx_OCN_Start_DMA, .Lfunc_end15-HAL_TIMEx_OCN_Start_DMA
	.cfi_endproc
	.cantunwind
	.fnend
                                        @ -- End function
	.section	.text.HAL_TIMEx_OCN_Stop_DMA,"ax",%progbits
	.hidden	HAL_TIMEx_OCN_Stop_DMA          @ -- Begin function HAL_TIMEx_OCN_Stop_DMA
	.globl	HAL_TIMEx_OCN_Stop_DMA
	.p2align	2
	.type	HAL_TIMEx_OCN_Stop_DMA,%function
	.code	16                              @ @HAL_TIMEx_OCN_Stop_DMA
	.thumb_func
HAL_TIMEx_OCN_Stop_DMA:
.Lfunc_begin16:
	.loc	7 802 0 is_stmt 1               @ ../ThirdParty/STM32F4xx_HAL_Driver/Src/stm32f4xx_hal_tim_ex.c:802:0
	.fnstart
	.cfi_startproc
@ %bb.0:
	.save	{r7, lr}
	push	{r7, lr}
	.cfi_def_cfa_offset 8
	.cfi_offset lr, -4
	.cfi_offset r7, -8
	.pad	#16
	sub	sp, #16
	.cfi_def_cfa_offset 24
	str	r0, [sp, #12]
	str	r1, [sp, #8]
.Ltmp152:
	.loc	7 806 11 prologue_end           @ ../ThirdParty/STM32F4xx_HAL_Driver/Src/stm32f4xx_hal_tim_ex.c:806:11
	ldr	r0, [sp, #8]
	.loc	7 806 3 is_stmt 0               @ ../ThirdParty/STM32F4xx_HAL_Driver/Src/stm32f4xx_hal_tim_ex.c:806:3
	str	r0, [sp, #4]                    @ 4-byte Spill
	cmp	r0, #12
	bhi	.LBB16_7
@ %bb.1:
	.loc	7 0 3                           @ ../ThirdParty/STM32F4xx_HAL_Driver/Src/stm32f4xx_hal_tim_ex.c:0:3
	ldr	r1, [sp, #4]                    @ 4-byte Reload
.LCPI16_0:
	tbb	[pc, r1]
@ %bb.2:
.LJTI16_0:
	.byte	(.LBB16_3-(.LCPI16_0+4))/2
	.byte	(.LBB16_7-(.LCPI16_0+4))/2
	.byte	(.LBB16_7-(.LCPI16_0+4))/2
	.byte	(.LBB16_7-(.LCPI16_0+4))/2
	.byte	(.LBB16_4-(.LCPI16_0+4))/2
	.byte	(.LBB16_7-(.LCPI16_0+4))/2
	.byte	(.LBB16_7-(.LCPI16_0+4))/2
	.byte	(.LBB16_7-(.LCPI16_0+4))/2
	.byte	(.LBB16_5-(.LCPI16_0+4))/2
	.byte	(.LBB16_7-(.LCPI16_0+4))/2
	.byte	(.LBB16_7-(.LCPI16_0+4))/2
	.byte	(.LBB16_7-(.LCPI16_0+4))/2
	.byte	(.LBB16_6-(.LCPI16_0+4))/2
	.p2align	1
.LBB16_3:
.Ltmp153:
	.loc	7 811 7 is_stmt 1               @ ../ThirdParty/STM32F4xx_HAL_Driver/Src/stm32f4xx_hal_tim_ex.c:811:7
	ldr	r0, [sp, #12]
	ldr	r1, [r0]
	ldr	r0, [r1, #12]
	bic	r0, r0, #512
	str	r0, [r1, #12]
.Ltmp154:
	.loc	7 813 5                         @ ../ThirdParty/STM32F4xx_HAL_Driver/Src/stm32f4xx_hal_tim_ex.c:813:5
	b	.LBB16_8
.LBB16_4:
.Ltmp155:
	.loc	7 818 7                         @ ../ThirdParty/STM32F4xx_HAL_Driver/Src/stm32f4xx_hal_tim_ex.c:818:7
	ldr	r0, [sp, #12]
	ldr	r1, [r0]
	ldr	r0, [r1, #12]
	bic	r0, r0, #1024
	str	r0, [r1, #12]
.Ltmp156:
	.loc	7 820 5                         @ ../ThirdParty/STM32F4xx_HAL_Driver/Src/stm32f4xx_hal_tim_ex.c:820:5
	b	.LBB16_8
.LBB16_5:
.Ltmp157:
	.loc	7 825 7                         @ ../ThirdParty/STM32F4xx_HAL_Driver/Src/stm32f4xx_hal_tim_ex.c:825:7
	ldr	r0, [sp, #12]
	ldr	r1, [r0]
	ldr	r0, [r1, #12]
	bic	r0, r0, #2048
	str	r0, [r1, #12]
.Ltmp158:
	.loc	7 827 5                         @ ../ThirdParty/STM32F4xx_HAL_Driver/Src/stm32f4xx_hal_tim_ex.c:827:5
	b	.LBB16_8
.LBB16_6:
.Ltmp159:
	.loc	7 832 7                         @ ../ThirdParty/STM32F4xx_HAL_Driver/Src/stm32f4xx_hal_tim_ex.c:832:7
	ldr	r0, [sp, #12]
	ldr	r1, [r0]
	ldr	r0, [r1, #12]
	bic	r0, r0, #4096
	str	r0, [r1, #12]
.Ltmp160:
	.loc	7 834 5                         @ ../ThirdParty/STM32F4xx_HAL_Driver/Src/stm32f4xx_hal_tim_ex.c:834:5
	b	.LBB16_8
.LBB16_7:
	.loc	7 837 5                         @ ../ThirdParty/STM32F4xx_HAL_Driver/Src/stm32f4xx_hal_tim_ex.c:837:5
	b	.LBB16_8
.Ltmp161:
.LBB16_8:
	.loc	7 841 22                        @ ../ThirdParty/STM32F4xx_HAL_Driver/Src/stm32f4xx_hal_tim_ex.c:841:22
	ldr	r0, [sp, #12]
	.loc	7 841 28 is_stmt 0              @ ../ThirdParty/STM32F4xx_HAL_Driver/Src/stm32f4xx_hal_tim_ex.c:841:28
	ldr	r0, [r0]
	.loc	7 841 38                        @ ../ThirdParty/STM32F4xx_HAL_Driver/Src/stm32f4xx_hal_tim_ex.c:841:38
	ldr	r1, [sp, #8]
	movs	r2, #0
	.loc	7 841 3                         @ ../ThirdParty/STM32F4xx_HAL_Driver/Src/stm32f4xx_hal_tim_ex.c:841:3
	bl	TIM_CCxNChannelCmd
	.loc	7 844 3 is_stmt 1               @ ../ThirdParty/STM32F4xx_HAL_Driver/Src/stm32f4xx_hal_tim_ex.c:844:3
	b	.LBB16_9
.LBB16_9:
.Ltmp162:
	.loc	7 844 3 is_stmt 0               @ ../ThirdParty/STM32F4xx_HAL_Driver/Src/stm32f4xx_hal_tim_ex.c:844:3
	ldr	r0, [sp, #12]
	ldr	r0, [r0]
	ldr	r0, [r0, #32]
	movw	r1, #4369
.Ltmp163:
	.loc	7 844 3                         @ ../ThirdParty/STM32F4xx_HAL_Driver/Src/stm32f4xx_hal_tim_ex.c:844:3
	tst	r0, r1
	bne	.LBB16_13
	b	.LBB16_10
.LBB16_10:
.Ltmp164:
	.loc	7 844 3                         @ ../ThirdParty/STM32F4xx_HAL_Driver/Src/stm32f4xx_hal_tim_ex.c:844:3
	ldr	r0, [sp, #12]
	ldr	r0, [r0]
	ldr	r0, [r0, #32]
	movw	r1, #1092
.Ltmp165:
	.loc	7 844 3                         @ ../ThirdParty/STM32F4xx_HAL_Driver/Src/stm32f4xx_hal_tim_ex.c:844:3
	tst	r0, r1
	bne	.LBB16_12
	b	.LBB16_11
.LBB16_11:
.Ltmp166:
	.loc	7 844 3                         @ ../ThirdParty/STM32F4xx_HAL_Driver/Src/stm32f4xx_hal_tim_ex.c:844:3
	ldr	r0, [sp, #12]
	ldr	r1, [r0]
	ldr	r0, [r1, #68]
	bic	r0, r0, #32768
	str	r0, [r1, #68]
	b	.LBB16_12
.Ltmp167:
.LBB16_12:
	.loc	7 844 3                         @ ../ThirdParty/STM32F4xx_HAL_Driver/Src/stm32f4xx_hal_tim_ex.c:844:3
	b	.LBB16_13
.Ltmp168:
.LBB16_13:
	.loc	7 844 3                         @ ../ThirdParty/STM32F4xx_HAL_Driver/Src/stm32f4xx_hal_tim_ex.c:844:3
	b	.LBB16_14
.Ltmp169:
.LBB16_14:
	.loc	7 847 3 is_stmt 1               @ ../ThirdParty/STM32F4xx_HAL_Driver/Src/stm32f4xx_hal_tim_ex.c:847:3
	b	.LBB16_15
.LBB16_15:
.Ltmp170:
	.loc	7 847 3 is_stmt 0               @ ../ThirdParty/STM32F4xx_HAL_Driver/Src/stm32f4xx_hal_tim_ex.c:847:3
	ldr	r0, [sp, #12]
	ldr	r0, [r0]
	ldr	r0, [r0, #32]
	movw	r1, #4369
.Ltmp171:
	.loc	7 847 3                         @ ../ThirdParty/STM32F4xx_HAL_Driver/Src/stm32f4xx_hal_tim_ex.c:847:3
	tst	r0, r1
	bne	.LBB16_19
	b	.LBB16_16
.LBB16_16:
.Ltmp172:
	.loc	7 847 3                         @ ../ThirdParty/STM32F4xx_HAL_Driver/Src/stm32f4xx_hal_tim_ex.c:847:3
	ldr	r0, [sp, #12]
	ldr	r0, [r0]
	ldr	r0, [r0, #32]
	movw	r1, #1092
.Ltmp173:
	.loc	7 847 3                         @ ../ThirdParty/STM32F4xx_HAL_Driver/Src/stm32f4xx_hal_tim_ex.c:847:3
	tst	r0, r1
	bne	.LBB16_18
	b	.LBB16_17
.LBB16_17:
.Ltmp174:
	.loc	7 847 3                         @ ../ThirdParty/STM32F4xx_HAL_Driver/Src/stm32f4xx_hal_tim_ex.c:847:3
	ldr	r0, [sp, #12]
	ldr	r1, [r0]
	ldr	r0, [r1]
	bic	r0, r0, #1
	str	r0, [r1]
	b	.LBB16_18
.Ltmp175:
.LBB16_18:
	.loc	7 847 3                         @ ../ThirdParty/STM32F4xx_HAL_Driver/Src/stm32f4xx_hal_tim_ex.c:847:3
	b	.LBB16_19
.Ltmp176:
.LBB16_19:
	.loc	7 847 3                         @ ../ThirdParty/STM32F4xx_HAL_Driver/Src/stm32f4xx_hal_tim_ex.c:847:3
	b	.LBB16_20
.Ltmp177:
.LBB16_20:
	.loc	7 850 3 is_stmt 1               @ ../ThirdParty/STM32F4xx_HAL_Driver/Src/stm32f4xx_hal_tim_ex.c:850:3
	ldr	r1, [sp, #12]
	movs	r0, #1
	.loc	7 850 15 is_stmt 0              @ ../ThirdParty/STM32F4xx_HAL_Driver/Src/stm32f4xx_hal_tim_ex.c:850:15
	strb.w	r0, [r1, #57]
	movs	r0, #0
	.loc	7 853 3 epilogue_begin is_stmt 1 @ ../ThirdParty/STM32F4xx_HAL_Driver/Src/stm32f4xx_hal_tim_ex.c:853:3
	add	sp, #16
	pop	{r7, pc}
.Ltmp178:
.Lfunc_end16:
	.size	HAL_TIMEx_OCN_Stop_DMA, .Lfunc_end16-HAL_TIMEx_OCN_Stop_DMA
	.cfi_endproc
	.cantunwind
	.fnend
                                        @ -- End function
	.section	.text.HAL_TIMEx_PWMN_Start,"ax",%progbits
	.hidden	HAL_TIMEx_PWMN_Start            @ -- Begin function HAL_TIMEx_PWMN_Start
	.globl	HAL_TIMEx_PWMN_Start
	.p2align	2
	.type	HAL_TIMEx_PWMN_Start,%function
	.code	16                              @ @HAL_TIMEx_PWMN_Start
	.thumb_func
HAL_TIMEx_PWMN_Start:
.Lfunc_begin17:
	.loc	7 901 0                         @ ../ThirdParty/STM32F4xx_HAL_Driver/Src/stm32f4xx_hal_tim_ex.c:901:0
	.fnstart
	.cfi_startproc
@ %bb.0:
	.save	{r7, lr}
	push	{r7, lr}
	.cfi_def_cfa_offset 8
	.cfi_offset lr, -4
	.cfi_offset r7, -8
	.pad	#8
	sub	sp, #8
	.cfi_def_cfa_offset 16
	str	r0, [sp, #4]
	str	r1, [sp]
.Ltmp179:
	.loc	7 906 22 prologue_end           @ ../ThirdParty/STM32F4xx_HAL_Driver/Src/stm32f4xx_hal_tim_ex.c:906:22
	ldr	r0, [sp, #4]
	.loc	7 906 28 is_stmt 0              @ ../ThirdParty/STM32F4xx_HAL_Driver/Src/stm32f4xx_hal_tim_ex.c:906:28
	ldr	r0, [r0]
	.loc	7 906 38                        @ ../ThirdParty/STM32F4xx_HAL_Driver/Src/stm32f4xx_hal_tim_ex.c:906:38
	ldr	r1, [sp]
	movs	r2, #4
	.loc	7 906 3                         @ ../ThirdParty/STM32F4xx_HAL_Driver/Src/stm32f4xx_hal_tim_ex.c:906:3
	bl	TIM_CCxNChannelCmd
	.loc	7 909 3 is_stmt 1               @ ../ThirdParty/STM32F4xx_HAL_Driver/Src/stm32f4xx_hal_tim_ex.c:909:3
	ldr	r0, [sp, #4]
	ldr	r1, [r0]
	ldr	r0, [r1, #68]
	orr	r0, r0, #32768
	str	r0, [r1, #68]
	.loc	7 912 3                         @ ../ThirdParty/STM32F4xx_HAL_Driver/Src/stm32f4xx_hal_tim_ex.c:912:3
	ldr	r0, [sp, #4]
	ldr	r1, [r0]
	ldr	r0, [r1]
	orr	r0, r0, #1
	str	r0, [r1]
	movs	r0, #0
	.loc	7 915 3 epilogue_begin          @ ../ThirdParty/STM32F4xx_HAL_Driver/Src/stm32f4xx_hal_tim_ex.c:915:3
	add	sp, #8
	pop	{r7, pc}
.Ltmp180:
.Lfunc_end17:
	.size	HAL_TIMEx_PWMN_Start, .Lfunc_end17-HAL_TIMEx_PWMN_Start
	.cfi_endproc
	.cantunwind
	.fnend
                                        @ -- End function
	.section	.text.HAL_TIMEx_PWMN_Stop,"ax",%progbits
	.hidden	HAL_TIMEx_PWMN_Stop             @ -- Begin function HAL_TIMEx_PWMN_Stop
	.globl	HAL_TIMEx_PWMN_Stop
	.p2align	2
	.type	HAL_TIMEx_PWMN_Stop,%function
	.code	16                              @ @HAL_TIMEx_PWMN_Stop
	.thumb_func
HAL_TIMEx_PWMN_Stop:
.Lfunc_begin18:
	.loc	7 930 0                         @ ../ThirdParty/STM32F4xx_HAL_Driver/Src/stm32f4xx_hal_tim_ex.c:930:0
	.fnstart
	.cfi_startproc
@ %bb.0:
	.save	{r7, lr}
	push	{r7, lr}
	.cfi_def_cfa_offset 8
	.cfi_offset lr, -4
	.cfi_offset r7, -8
	.pad	#8
	sub	sp, #8
	.cfi_def_cfa_offset 16
	str	r0, [sp, #4]
	str	r1, [sp]
.Ltmp181:
	.loc	7 935 22 prologue_end           @ ../ThirdParty/STM32F4xx_HAL_Driver/Src/stm32f4xx_hal_tim_ex.c:935:22
	ldr	r0, [sp, #4]
	.loc	7 935 28 is_stmt 0              @ ../ThirdParty/STM32F4xx_HAL_Driver/Src/stm32f4xx_hal_tim_ex.c:935:28
	ldr	r0, [r0]
	.loc	7 935 38                        @ ../ThirdParty/STM32F4xx_HAL_Driver/Src/stm32f4xx_hal_tim_ex.c:935:38
	ldr	r1, [sp]
	movs	r2, #0
	.loc	7 935 3                         @ ../ThirdParty/STM32F4xx_HAL_Driver/Src/stm32f4xx_hal_tim_ex.c:935:3
	bl	TIM_CCxNChannelCmd
	.loc	7 938 3 is_stmt 1               @ ../ThirdParty/STM32F4xx_HAL_Driver/Src/stm32f4xx_hal_tim_ex.c:938:3
	b	.LBB18_1
.LBB18_1:
.Ltmp182:
	.loc	7 938 3 is_stmt 0               @ ../ThirdParty/STM32F4xx_HAL_Driver/Src/stm32f4xx_hal_tim_ex.c:938:3
	ldr	r0, [sp, #4]
	ldr	r0, [r0]
	ldr	r0, [r0, #32]
	movw	r1, #4369
.Ltmp183:
	.loc	7 938 3                         @ ../ThirdParty/STM32F4xx_HAL_Driver/Src/stm32f4xx_hal_tim_ex.c:938:3
	tst	r0, r1
	bne	.LBB18_5
	b	.LBB18_2
.LBB18_2:
.Ltmp184:
	.loc	7 938 3                         @ ../ThirdParty/STM32F4xx_HAL_Driver/Src/stm32f4xx_hal_tim_ex.c:938:3
	ldr	r0, [sp, #4]
	ldr	r0, [r0]
	ldr	r0, [r0, #32]
	movw	r1, #1092
.Ltmp185:
	.loc	7 938 3                         @ ../ThirdParty/STM32F4xx_HAL_Driver/Src/stm32f4xx_hal_tim_ex.c:938:3
	tst	r0, r1
	bne	.LBB18_4
	b	.LBB18_3
.LBB18_3:
.Ltmp186:
	.loc	7 938 3                         @ ../ThirdParty/STM32F4xx_HAL_Driver/Src/stm32f4xx_hal_tim_ex.c:938:3
	ldr	r0, [sp, #4]
	ldr	r1, [r0]
	ldr	r0, [r1, #68]
	bic	r0, r0, #32768
	str	r0, [r1, #68]
	b	.LBB18_4
.Ltmp187:
.LBB18_4:
	.loc	7 938 3                         @ ../ThirdParty/STM32F4xx_HAL_Driver/Src/stm32f4xx_hal_tim_ex.c:938:3
	b	.LBB18_5
.Ltmp188:
.LBB18_5:
	.loc	7 938 3                         @ ../ThirdParty/STM32F4xx_HAL_Driver/Src/stm32f4xx_hal_tim_ex.c:938:3
	b	.LBB18_6
.Ltmp189:
.LBB18_6:
	.loc	7 941 3 is_stmt 1               @ ../ThirdParty/STM32F4xx_HAL_Driver/Src/stm32f4xx_hal_tim_ex.c:941:3
	b	.LBB18_7
.LBB18_7:
.Ltmp190:
	.loc	7 941 3 is_stmt 0               @ ../ThirdParty/STM32F4xx_HAL_Driver/Src/stm32f4xx_hal_tim_ex.c:941:3
	ldr	r0, [sp, #4]
	ldr	r0, [r0]
	ldr	r0, [r0, #32]
	movw	r1, #4369
.Ltmp191:
	.loc	7 941 3                         @ ../ThirdParty/STM32F4xx_HAL_Driver/Src/stm32f4xx_hal_tim_ex.c:941:3
	tst	r0, r1
	bne	.LBB18_11
	b	.LBB18_8
.LBB18_8:
.Ltmp192:
	.loc	7 941 3                         @ ../ThirdParty/STM32F4xx_HAL_Driver/Src/stm32f4xx_hal_tim_ex.c:941:3
	ldr	r0, [sp, #4]
	ldr	r0, [r0]
	ldr	r0, [r0, #32]
	movw	r1, #1092
.Ltmp193:
	.loc	7 941 3                         @ ../ThirdParty/STM32F4xx_HAL_Driver/Src/stm32f4xx_hal_tim_ex.c:941:3
	tst	r0, r1
	bne	.LBB18_10
	b	.LBB18_9
.LBB18_9:
.Ltmp194:
	.loc	7 941 3                         @ ../ThirdParty/STM32F4xx_HAL_Driver/Src/stm32f4xx_hal_tim_ex.c:941:3
	ldr	r0, [sp, #4]
	ldr	r1, [r0]
	ldr	r0, [r1]
	bic	r0, r0, #1
	str	r0, [r1]
	b	.LBB18_10
.Ltmp195:
.LBB18_10:
	.loc	7 941 3                         @ ../ThirdParty/STM32F4xx_HAL_Driver/Src/stm32f4xx_hal_tim_ex.c:941:3
	b	.LBB18_11
.Ltmp196:
.LBB18_11:
	.loc	7 941 3                         @ ../ThirdParty/STM32F4xx_HAL_Driver/Src/stm32f4xx_hal_tim_ex.c:941:3
	b	.LBB18_12
.Ltmp197:
.LBB18_12:
	.loc	7 0 3                           @ ../ThirdParty/STM32F4xx_HAL_Driver/Src/stm32f4xx_hal_tim_ex.c:0:3
	movs	r0, #0
	.loc	7 944 3 epilogue_begin is_stmt 1 @ ../ThirdParty/STM32F4xx_HAL_Driver/Src/stm32f4xx_hal_tim_ex.c:944:3
	add	sp, #8
	pop	{r7, pc}
.Ltmp198:
.Lfunc_end18:
	.size	HAL_TIMEx_PWMN_Stop, .Lfunc_end18-HAL_TIMEx_PWMN_Stop
	.cfi_endproc
	.cantunwind
	.fnend
                                        @ -- End function
	.section	.text.HAL_TIMEx_PWMN_Start_IT,"ax",%progbits
	.hidden	HAL_TIMEx_PWMN_Start_IT         @ -- Begin function HAL_TIMEx_PWMN_Start_IT
	.globl	HAL_TIMEx_PWMN_Start_IT
	.p2align	2
	.type	HAL_TIMEx_PWMN_Start_IT,%function
	.code	16                              @ @HAL_TIMEx_PWMN_Start_IT
	.thumb_func
HAL_TIMEx_PWMN_Start_IT:
.Lfunc_begin19:
	.loc	7 960 0                         @ ../ThirdParty/STM32F4xx_HAL_Driver/Src/stm32f4xx_hal_tim_ex.c:960:0
	.fnstart
	.cfi_startproc
@ %bb.0:
	.save	{r7, lr}
	push	{r7, lr}
	.cfi_def_cfa_offset 8
	.cfi_offset lr, -4
	.cfi_offset r7, -8
	.pad	#16
	sub	sp, #16
	.cfi_def_cfa_offset 24
	str	r0, [sp, #12]
	str	r1, [sp, #8]
.Ltmp199:
	.loc	7 964 11 prologue_end           @ ../ThirdParty/STM32F4xx_HAL_Driver/Src/stm32f4xx_hal_tim_ex.c:964:11
	ldr	r0, [sp, #8]
	.loc	7 964 3 is_stmt 0               @ ../ThirdParty/STM32F4xx_HAL_Driver/Src/stm32f4xx_hal_tim_ex.c:964:3
	str	r0, [sp, #4]                    @ 4-byte Spill
	cmp	r0, #12
	bhi	.LBB19_7
@ %bb.1:
	.loc	7 0 3                           @ ../ThirdParty/STM32F4xx_HAL_Driver/Src/stm32f4xx_hal_tim_ex.c:0:3
	ldr	r1, [sp, #4]                    @ 4-byte Reload
.LCPI19_0:
	tbb	[pc, r1]
@ %bb.2:
.LJTI19_0:
	.byte	(.LBB19_3-(.LCPI19_0+4))/2
	.byte	(.LBB19_7-(.LCPI19_0+4))/2
	.byte	(.LBB19_7-(.LCPI19_0+4))/2
	.byte	(.LBB19_7-(.LCPI19_0+4))/2
	.byte	(.LBB19_4-(.LCPI19_0+4))/2
	.byte	(.LBB19_7-(.LCPI19_0+4))/2
	.byte	(.LBB19_7-(.LCPI19_0+4))/2
	.byte	(.LBB19_7-(.LCPI19_0+4))/2
	.byte	(.LBB19_5-(.LCPI19_0+4))/2
	.byte	(.LBB19_7-(.LCPI19_0+4))/2
	.byte	(.LBB19_7-(.LCPI19_0+4))/2
	.byte	(.LBB19_7-(.LCPI19_0+4))/2
	.byte	(.LBB19_6-(.LCPI19_0+4))/2
	.p2align	1
.LBB19_3:
.Ltmp200:
	.loc	7 969 7 is_stmt 1               @ ../ThirdParty/STM32F4xx_HAL_Driver/Src/stm32f4xx_hal_tim_ex.c:969:7
	ldr	r0, [sp, #12]
	ldr	r1, [r0]
	ldr	r0, [r1, #12]
	orr	r0, r0, #2
	str	r0, [r1, #12]
.Ltmp201:
	.loc	7 971 5                         @ ../ThirdParty/STM32F4xx_HAL_Driver/Src/stm32f4xx_hal_tim_ex.c:971:5
	b	.LBB19_8
.LBB19_4:
.Ltmp202:
	.loc	7 976 7                         @ ../ThirdParty/STM32F4xx_HAL_Driver/Src/stm32f4xx_hal_tim_ex.c:976:7
	ldr	r0, [sp, #12]
	ldr	r1, [r0]
	ldr	r0, [r1, #12]
	orr	r0, r0, #4
	str	r0, [r1, #12]
.Ltmp203:
	.loc	7 978 5                         @ ../ThirdParty/STM32F4xx_HAL_Driver/Src/stm32f4xx_hal_tim_ex.c:978:5
	b	.LBB19_8
.LBB19_5:
.Ltmp204:
	.loc	7 983 7                         @ ../ThirdParty/STM32F4xx_HAL_Driver/Src/stm32f4xx_hal_tim_ex.c:983:7
	ldr	r0, [sp, #12]
	ldr	r1, [r0]
	ldr	r0, [r1, #12]
	orr	r0, r0, #8
	str	r0, [r1, #12]
.Ltmp205:
	.loc	7 985 5                         @ ../ThirdParty/STM32F4xx_HAL_Driver/Src/stm32f4xx_hal_tim_ex.c:985:5
	b	.LBB19_8
.LBB19_6:
.Ltmp206:
	.loc	7 990 7                         @ ../ThirdParty/STM32F4xx_HAL_Driver/Src/stm32f4xx_hal_tim_ex.c:990:7
	ldr	r0, [sp, #12]
	ldr	r1, [r0]
	ldr	r0, [r1, #12]
	orr	r0, r0, #16
	str	r0, [r1, #12]
.Ltmp207:
	.loc	7 992 5                         @ ../ThirdParty/STM32F4xx_HAL_Driver/Src/stm32f4xx_hal_tim_ex.c:992:5
	b	.LBB19_8
.LBB19_7:
	.loc	7 995 5                         @ ../ThirdParty/STM32F4xx_HAL_Driver/Src/stm32f4xx_hal_tim_ex.c:995:5
	b	.LBB19_8
.Ltmp208:
.LBB19_8:
	.loc	7 999 3                         @ ../ThirdParty/STM32F4xx_HAL_Driver/Src/stm32f4xx_hal_tim_ex.c:999:3
	ldr	r0, [sp, #12]
	ldr	r1, [r0]
	ldr	r0, [r1, #12]
	orr	r0, r0, #128
	str	r0, [r1, #12]
	.loc	7 1002 22                       @ ../ThirdParty/STM32F4xx_HAL_Driver/Src/stm32f4xx_hal_tim_ex.c:1002:22
	ldr	r0, [sp, #12]
	.loc	7 1002 28 is_stmt 0             @ ../ThirdParty/STM32F4xx_HAL_Driver/Src/stm32f4xx_hal_tim_ex.c:1002:28
	ldr	r0, [r0]
	.loc	7 1002 38                       @ ../ThirdParty/STM32F4xx_HAL_Driver/Src/stm32f4xx_hal_tim_ex.c:1002:38
	ldr	r1, [sp, #8]
	movs	r2, #4
	.loc	7 1002 3                        @ ../ThirdParty/STM32F4xx_HAL_Driver/Src/stm32f4xx_hal_tim_ex.c:1002:3
	bl	TIM_CCxNChannelCmd
	.loc	7 1005 3 is_stmt 1              @ ../ThirdParty/STM32F4xx_HAL_Driver/Src/stm32f4xx_hal_tim_ex.c:1005:3
	ldr	r0, [sp, #12]
	ldr	r1, [r0]
	ldr	r0, [r1, #68]
	orr	r0, r0, #32768
	str	r0, [r1, #68]
	.loc	7 1008 3                        @ ../ThirdParty/STM32F4xx_HAL_Driver/Src/stm32f4xx_hal_tim_ex.c:1008:3
	ldr	r0, [sp, #12]
	ldr	r1, [r0]
	ldr	r0, [r1]
	orr	r0, r0, #1
	str	r0, [r1]
	movs	r0, #0
	.loc	7 1011 3 epilogue_begin         @ ../ThirdParty/STM32F4xx_HAL_Driver/Src/stm32f4xx_hal_tim_ex.c:1011:3
	add	sp, #16
	pop	{r7, pc}
.Ltmp209:
.Lfunc_end19:
	.size	HAL_TIMEx_PWMN_Start_IT, .Lfunc_end19-HAL_TIMEx_PWMN_Start_IT
	.cfi_endproc
	.cantunwind
	.fnend
                                        @ -- End function
	.section	.text.HAL_TIMEx_PWMN_Stop_IT,"ax",%progbits
	.hidden	HAL_TIMEx_PWMN_Stop_IT          @ -- Begin function HAL_TIMEx_PWMN_Stop_IT
	.globl	HAL_TIMEx_PWMN_Stop_IT
	.p2align	2
	.type	HAL_TIMEx_PWMN_Stop_IT,%function
	.code	16                              @ @HAL_TIMEx_PWMN_Stop_IT
	.thumb_func
HAL_TIMEx_PWMN_Stop_IT:
.Lfunc_begin20:
	.loc	7 1027 0                        @ ../ThirdParty/STM32F4xx_HAL_Driver/Src/stm32f4xx_hal_tim_ex.c:1027:0
	.fnstart
	.cfi_startproc
@ %bb.0:
	.save	{r7, lr}
	push	{r7, lr}
	.cfi_def_cfa_offset 8
	.cfi_offset lr, -4
	.cfi_offset r7, -8
	.pad	#16
	sub	sp, #16
	.cfi_def_cfa_offset 24
	str	r0, [sp, #12]
	str	r1, [sp, #8]
.Ltmp210:
	.loc	7 1031 11 prologue_end          @ ../ThirdParty/STM32F4xx_HAL_Driver/Src/stm32f4xx_hal_tim_ex.c:1031:11
	ldr	r0, [sp, #8]
	.loc	7 1031 3 is_stmt 0              @ ../ThirdParty/STM32F4xx_HAL_Driver/Src/stm32f4xx_hal_tim_ex.c:1031:3
	str	r0, [sp, #4]                    @ 4-byte Spill
	cmp	r0, #12
	bhi	.LBB20_7
@ %bb.1:
	.loc	7 0 3                           @ ../ThirdParty/STM32F4xx_HAL_Driver/Src/stm32f4xx_hal_tim_ex.c:0:3
	ldr	r1, [sp, #4]                    @ 4-byte Reload
.LCPI20_0:
	tbb	[pc, r1]
@ %bb.2:
.LJTI20_0:
	.byte	(.LBB20_3-(.LCPI20_0+4))/2
	.byte	(.LBB20_7-(.LCPI20_0+4))/2
	.byte	(.LBB20_7-(.LCPI20_0+4))/2
	.byte	(.LBB20_7-(.LCPI20_0+4))/2
	.byte	(.LBB20_4-(.LCPI20_0+4))/2
	.byte	(.LBB20_7-(.LCPI20_0+4))/2
	.byte	(.LBB20_7-(.LCPI20_0+4))/2
	.byte	(.LBB20_7-(.LCPI20_0+4))/2
	.byte	(.LBB20_5-(.LCPI20_0+4))/2
	.byte	(.LBB20_7-(.LCPI20_0+4))/2
	.byte	(.LBB20_7-(.LCPI20_0+4))/2
	.byte	(.LBB20_7-(.LCPI20_0+4))/2
	.byte	(.LBB20_6-(.LCPI20_0+4))/2
	.p2align	1
.LBB20_3:
.Ltmp211:
	.loc	7 1036 7 is_stmt 1              @ ../ThirdParty/STM32F4xx_HAL_Driver/Src/stm32f4xx_hal_tim_ex.c:1036:7
	ldr	r0, [sp, #12]
	ldr	r1, [r0]
	ldr	r0, [r1, #12]
	bic	r0, r0, #2
	str	r0, [r1, #12]
.Ltmp212:
	.loc	7 1038 5                        @ ../ThirdParty/STM32F4xx_HAL_Driver/Src/stm32f4xx_hal_tim_ex.c:1038:5
	b	.LBB20_8
.LBB20_4:
.Ltmp213:
	.loc	7 1043 7                        @ ../ThirdParty/STM32F4xx_HAL_Driver/Src/stm32f4xx_hal_tim_ex.c:1043:7
	ldr	r0, [sp, #12]
	ldr	r1, [r0]
	ldr	r0, [r1, #12]
	bic	r0, r0, #4
	str	r0, [r1, #12]
.Ltmp214:
	.loc	7 1045 5                        @ ../ThirdParty/STM32F4xx_HAL_Driver/Src/stm32f4xx_hal_tim_ex.c:1045:5
	b	.LBB20_8
.LBB20_5:
.Ltmp215:
	.loc	7 1050 7                        @ ../ThirdParty/STM32F4xx_HAL_Driver/Src/stm32f4xx_hal_tim_ex.c:1050:7
	ldr	r0, [sp, #12]
	ldr	r1, [r0]
	ldr	r0, [r1, #12]
	bic	r0, r0, #8
	str	r0, [r1, #12]
.Ltmp216:
	.loc	7 1052 5                        @ ../ThirdParty/STM32F4xx_HAL_Driver/Src/stm32f4xx_hal_tim_ex.c:1052:5
	b	.LBB20_8
.LBB20_6:
.Ltmp217:
	.loc	7 1057 7                        @ ../ThirdParty/STM32F4xx_HAL_Driver/Src/stm32f4xx_hal_tim_ex.c:1057:7
	ldr	r0, [sp, #12]
	ldr	r1, [r0]
	ldr	r0, [r1, #12]
	bic	r0, r0, #16
	str	r0, [r1, #12]
.Ltmp218:
	.loc	7 1059 5                        @ ../ThirdParty/STM32F4xx_HAL_Driver/Src/stm32f4xx_hal_tim_ex.c:1059:5
	b	.LBB20_8
.LBB20_7:
	.loc	7 1062 5                        @ ../ThirdParty/STM32F4xx_HAL_Driver/Src/stm32f4xx_hal_tim_ex.c:1062:5
	b	.LBB20_8
.Ltmp219:
.LBB20_8:
	.loc	7 1066 22                       @ ../ThirdParty/STM32F4xx_HAL_Driver/Src/stm32f4xx_hal_tim_ex.c:1066:22
	ldr	r0, [sp, #12]
	.loc	7 1066 28 is_stmt 0             @ ../ThirdParty/STM32F4xx_HAL_Driver/Src/stm32f4xx_hal_tim_ex.c:1066:28
	ldr	r0, [r0]
	.loc	7 1066 38                       @ ../ThirdParty/STM32F4xx_HAL_Driver/Src/stm32f4xx_hal_tim_ex.c:1066:38
	ldr	r1, [sp, #8]
	movs	r2, #0
	.loc	7 1066 3                        @ ../ThirdParty/STM32F4xx_HAL_Driver/Src/stm32f4xx_hal_tim_ex.c:1066:3
	bl	TIM_CCxNChannelCmd
.Ltmp220:
	.loc	7 1069 7 is_stmt 1              @ ../ThirdParty/STM32F4xx_HAL_Driver/Src/stm32f4xx_hal_tim_ex.c:1069:7
	ldr	r0, [sp, #12]
	ldr	r0, [r0]
	ldr	r0, [r0, #32]
	movw	r1, #1092
.Ltmp221:
	.loc	7 1069 6 is_stmt 0              @ ../ThirdParty/STM32F4xx_HAL_Driver/Src/stm32f4xx_hal_tim_ex.c:1069:6
	tst	r0, r1
	bne	.LBB20_10
	b	.LBB20_9
.LBB20_9:
.Ltmp222:
	.loc	7 1071 5 is_stmt 1              @ ../ThirdParty/STM32F4xx_HAL_Driver/Src/stm32f4xx_hal_tim_ex.c:1071:5
	ldr	r0, [sp, #12]
	ldr	r1, [r0]
	ldr	r0, [r1, #12]
	bic	r0, r0, #128
	str	r0, [r1, #12]
	.loc	7 1072 3                        @ ../ThirdParty/STM32F4xx_HAL_Driver/Src/stm32f4xx_hal_tim_ex.c:1072:3
	b	.LBB20_10
.Ltmp223:
.LBB20_10:
	.loc	7 1075 3                        @ ../ThirdParty/STM32F4xx_HAL_Driver/Src/stm32f4xx_hal_tim_ex.c:1075:3
	b	.LBB20_11
.LBB20_11:
.Ltmp224:
	.loc	7 1075 3 is_stmt 0              @ ../ThirdParty/STM32F4xx_HAL_Driver/Src/stm32f4xx_hal_tim_ex.c:1075:3
	ldr	r0, [sp, #12]
	ldr	r0, [r0]
	ldr	r0, [r0, #32]
	movw	r1, #4369
.Ltmp225:
	.loc	7 1075 3                        @ ../ThirdParty/STM32F4xx_HAL_Driver/Src/stm32f4xx_hal_tim_ex.c:1075:3
	tst	r0, r1
	bne	.LBB20_15
	b	.LBB20_12
.LBB20_12:
.Ltmp226:
	.loc	7 1075 3                        @ ../ThirdParty/STM32F4xx_HAL_Driver/Src/stm32f4xx_hal_tim_ex.c:1075:3
	ldr	r0, [sp, #12]
	ldr	r0, [r0]
	ldr	r0, [r0, #32]
	movw	r1, #1092
.Ltmp227:
	.loc	7 1075 3                        @ ../ThirdParty/STM32F4xx_HAL_Driver/Src/stm32f4xx_hal_tim_ex.c:1075:3
	tst	r0, r1
	bne	.LBB20_14
	b	.LBB20_13
.LBB20_13:
.Ltmp228:
	.loc	7 1075 3                        @ ../ThirdParty/STM32F4xx_HAL_Driver/Src/stm32f4xx_hal_tim_ex.c:1075:3
	ldr	r0, [sp, #12]
	ldr	r1, [r0]
	ldr	r0, [r1, #68]
	bic	r0, r0, #32768
	str	r0, [r1, #68]
	b	.LBB20_14
.Ltmp229:
.LBB20_14:
	.loc	7 1075 3                        @ ../ThirdParty/STM32F4xx_HAL_Driver/Src/stm32f4xx_hal_tim_ex.c:1075:3
	b	.LBB20_15
.Ltmp230:
.LBB20_15:
	.loc	7 1075 3                        @ ../ThirdParty/STM32F4xx_HAL_Driver/Src/stm32f4xx_hal_tim_ex.c:1075:3
	b	.LBB20_16
.Ltmp231:
.LBB20_16:
	.loc	7 1078 3 is_stmt 1              @ ../ThirdParty/STM32F4xx_HAL_Driver/Src/stm32f4xx_hal_tim_ex.c:1078:3
	b	.LBB20_17
.LBB20_17:
.Ltmp232:
	.loc	7 1078 3 is_stmt 0              @ ../ThirdParty/STM32F4xx_HAL_Driver/Src/stm32f4xx_hal_tim_ex.c:1078:3
	ldr	r0, [sp, #12]
	ldr	r0, [r0]
	ldr	r0, [r0, #32]
	movw	r1, #4369
.Ltmp233:
	.loc	7 1078 3                        @ ../ThirdParty/STM32F4xx_HAL_Driver/Src/stm32f4xx_hal_tim_ex.c:1078:3
	tst	r0, r1
	bne	.LBB20_21
	b	.LBB20_18
.LBB20_18:
.Ltmp234:
	.loc	7 1078 3                        @ ../ThirdParty/STM32F4xx_HAL_Driver/Src/stm32f4xx_hal_tim_ex.c:1078:3
	ldr	r0, [sp, #12]
	ldr	r0, [r0]
	ldr	r0, [r0, #32]
	movw	r1, #1092
.Ltmp235:
	.loc	7 1078 3                        @ ../ThirdParty/STM32F4xx_HAL_Driver/Src/stm32f4xx_hal_tim_ex.c:1078:3
	tst	r0, r1
	bne	.LBB20_20
	b	.LBB20_19
.LBB20_19:
.Ltmp236:
	.loc	7 1078 3                        @ ../ThirdParty/STM32F4xx_HAL_Driver/Src/stm32f4xx_hal_tim_ex.c:1078:3
	ldr	r0, [sp, #12]
	ldr	r1, [r0]
	ldr	r0, [r1]
	bic	r0, r0, #1
	str	r0, [r1]
	b	.LBB20_20
.Ltmp237:
.LBB20_20:
	.loc	7 1078 3                        @ ../ThirdParty/STM32F4xx_HAL_Driver/Src/stm32f4xx_hal_tim_ex.c:1078:3
	b	.LBB20_21
.Ltmp238:
.LBB20_21:
	.loc	7 1078 3                        @ ../ThirdParty/STM32F4xx_HAL_Driver/Src/stm32f4xx_hal_tim_ex.c:1078:3
	b	.LBB20_22
.Ltmp239:
.LBB20_22:
	.loc	7 0 3                           @ ../ThirdParty/STM32F4xx_HAL_Driver/Src/stm32f4xx_hal_tim_ex.c:0:3
	movs	r0, #0
	.loc	7 1081 3 epilogue_begin is_stmt 1 @ ../ThirdParty/STM32F4xx_HAL_Driver/Src/stm32f4xx_hal_tim_ex.c:1081:3
	add	sp, #16
	pop	{r7, pc}
.Ltmp240:
.Lfunc_end20:
	.size	HAL_TIMEx_PWMN_Stop_IT, .Lfunc_end20-HAL_TIMEx_PWMN_Stop_IT
	.cfi_endproc
	.cantunwind
	.fnend
                                        @ -- End function
	.section	.text.HAL_TIMEx_PWMN_Start_DMA,"ax",%progbits
	.hidden	HAL_TIMEx_PWMN_Start_DMA        @ -- Begin function HAL_TIMEx_PWMN_Start_DMA
	.globl	HAL_TIMEx_PWMN_Start_DMA
	.p2align	2
	.type	HAL_TIMEx_PWMN_Start_DMA,%function
	.code	16                              @ @HAL_TIMEx_PWMN_Start_DMA
	.thumb_func
HAL_TIMEx_PWMN_Start_DMA:
.Lfunc_begin21:
	.loc	7 1099 0                        @ ../ThirdParty/STM32F4xx_HAL_Driver/Src/stm32f4xx_hal_tim_ex.c:1099:0
	.fnstart
	.cfi_startproc
@ %bb.0:
	.save	{r7, lr}
	push	{r7, lr}
	.cfi_def_cfa_offset 8
	.cfi_offset lr, -4
	.cfi_offset r7, -8
	.pad	#24
	sub	sp, #24
	.cfi_def_cfa_offset 32
                                        @ kill: def $r12 killed $r3
	str	r0, [sp, #16]
	str	r1, [sp, #12]
	str	r2, [sp, #8]
	strh.w	r3, [sp, #6]
.Ltmp241:
	.loc	7 1103 7 prologue_end           @ ../ThirdParty/STM32F4xx_HAL_Driver/Src/stm32f4xx_hal_tim_ex.c:1103:7
	ldr	r0, [sp, #16]
	.loc	7 1103 13 is_stmt 0             @ ../ThirdParty/STM32F4xx_HAL_Driver/Src/stm32f4xx_hal_tim_ex.c:1103:13
	ldrb.w	r0, [r0, #57]
.Ltmp242:
	.loc	7 1103 6                        @ ../ThirdParty/STM32F4xx_HAL_Driver/Src/stm32f4xx_hal_tim_ex.c:1103:6
	cmp	r0, #2
	bne	.LBB21_2
	b	.LBB21_1
.LBB21_1:
	.loc	7 0 6                           @ ../ThirdParty/STM32F4xx_HAL_Driver/Src/stm32f4xx_hal_tim_ex.c:0:6
	movs	r0, #2
.Ltmp243:
	.loc	7 1105 6 is_stmt 1              @ ../ThirdParty/STM32F4xx_HAL_Driver/Src/stm32f4xx_hal_tim_ex.c:1105:6
	strb.w	r0, [sp, #23]
	b	.LBB21_18
.Ltmp244:
.LBB21_2:
	.loc	7 1107 12                       @ ../ThirdParty/STM32F4xx_HAL_Driver/Src/stm32f4xx_hal_tim_ex.c:1107:12
	ldr	r0, [sp, #16]
	.loc	7 1107 18 is_stmt 0             @ ../ThirdParty/STM32F4xx_HAL_Driver/Src/stm32f4xx_hal_tim_ex.c:1107:18
	ldrb.w	r0, [r0, #57]
.Ltmp245:
	.loc	7 1107 11                       @ ../ThirdParty/STM32F4xx_HAL_Driver/Src/stm32f4xx_hal_tim_ex.c:1107:11
	cmp	r0, #1
	bne	.LBB21_8
	b	.LBB21_3
.LBB21_3:
.Ltmp246:
	.loc	7 1109 19 is_stmt 1             @ ../ThirdParty/STM32F4xx_HAL_Driver/Src/stm32f4xx_hal_tim_ex.c:1109:19
	ldr	r0, [sp, #8]
	.loc	7 1109 32 is_stmt 0             @ ../ThirdParty/STM32F4xx_HAL_Driver/Src/stm32f4xx_hal_tim_ex.c:1109:32
	cbnz	r0, .LBB21_6
	b	.LBB21_4
.LBB21_4:
	.loc	7 1109 36                       @ ../ThirdParty/STM32F4xx_HAL_Driver/Src/stm32f4xx_hal_tim_ex.c:1109:36
	ldrh.w	r0, [sp, #6]
.Ltmp247:
	.loc	7 1109 8                        @ ../ThirdParty/STM32F4xx_HAL_Driver/Src/stm32f4xx_hal_tim_ex.c:1109:8
	cmp	r0, #1
	blt	.LBB21_6
	b	.LBB21_5
.LBB21_5:
	.loc	7 0 8                           @ ../ThirdParty/STM32F4xx_HAL_Driver/Src/stm32f4xx_hal_tim_ex.c:0:8
	movs	r0, #1
.Ltmp248:
	.loc	7 1111 7 is_stmt 1              @ ../ThirdParty/STM32F4xx_HAL_Driver/Src/stm32f4xx_hal_tim_ex.c:1111:7
	strb.w	r0, [sp, #23]
	b	.LBB21_18
.Ltmp249:
.LBB21_6:
	.loc	7 1115 7                        @ ../ThirdParty/STM32F4xx_HAL_Driver/Src/stm32f4xx_hal_tim_ex.c:1115:7
	ldr	r1, [sp, #16]
	movs	r0, #2
	.loc	7 1115 19 is_stmt 0             @ ../ThirdParty/STM32F4xx_HAL_Driver/Src/stm32f4xx_hal_tim_ex.c:1115:19
	strb.w	r0, [r1, #57]
	b	.LBB21_7
.Ltmp250:
.LBB21_7:
	.loc	7 1117 3 is_stmt 1              @ ../ThirdParty/STM32F4xx_HAL_Driver/Src/stm32f4xx_hal_tim_ex.c:1117:3
	b	.LBB21_8
.Ltmp251:
.LBB21_8:
	.loc	7 0 3 is_stmt 0                 @ ../ThirdParty/STM32F4xx_HAL_Driver/Src/stm32f4xx_hal_tim_ex.c:0:3
	b	.LBB21_9
.LBB21_9:
	.loc	7 1118 11 is_stmt 1             @ ../ThirdParty/STM32F4xx_HAL_Driver/Src/stm32f4xx_hal_tim_ex.c:1118:11
	ldr	r0, [sp, #12]
	.loc	7 1118 3 is_stmt 0              @ ../ThirdParty/STM32F4xx_HAL_Driver/Src/stm32f4xx_hal_tim_ex.c:1118:3
	str	r0, [sp]                        @ 4-byte Spill
	cmp	r0, #12
	bhi.w	.LBB21_16
@ %bb.10:
	.loc	7 0 3                           @ ../ThirdParty/STM32F4xx_HAL_Driver/Src/stm32f4xx_hal_tim_ex.c:0:3
	ldr	r1, [sp]                        @ 4-byte Reload
.LCPI21_0:
	tbb	[pc, r1]
@ %bb.11:
.LJTI21_0:
	.byte	(.LBB21_12-(.LCPI21_0+4))/2
	.byte	(.LBB21_16-(.LCPI21_0+4))/2
	.byte	(.LBB21_16-(.LCPI21_0+4))/2
	.byte	(.LBB21_16-(.LCPI21_0+4))/2
	.byte	(.LBB21_13-(.LCPI21_0+4))/2
	.byte	(.LBB21_16-(.LCPI21_0+4))/2
	.byte	(.LBB21_16-(.LCPI21_0+4))/2
	.byte	(.LBB21_16-(.LCPI21_0+4))/2
	.byte	(.LBB21_14-(.LCPI21_0+4))/2
	.byte	(.LBB21_16-(.LCPI21_0+4))/2
	.byte	(.LBB21_16-(.LCPI21_0+4))/2
	.byte	(.LBB21_16-(.LCPI21_0+4))/2
	.byte	(.LBB21_15-(.LCPI21_0+4))/2
	.p2align	1
.LBB21_12:
.Ltmp252:
	.loc	7 1123 7 is_stmt 1              @ ../ThirdParty/STM32F4xx_HAL_Driver/Src/stm32f4xx_hal_tim_ex.c:1123:7
	ldr	r0, [sp, #16]
	ldr	r1, [r0, #32]
	.loc	7 1123 52 is_stmt 0             @ ../ThirdParty/STM32F4xx_HAL_Driver/Src/stm32f4xx_hal_tim_ex.c:1123:52
	movw	r0, :lower16:TIM_DMADelayPulseCplt
	movt	r0, :upper16:TIM_DMADelayPulseCplt
	str	r0, [r1, #60]
	.loc	7 1126 7 is_stmt 1              @ ../ThirdParty/STM32F4xx_HAL_Driver/Src/stm32f4xx_hal_tim_ex.c:1126:7
	ldr	r0, [sp, #16]
	ldr	r1, [r0, #32]
	.loc	7 1126 53 is_stmt 0             @ ../ThirdParty/STM32F4xx_HAL_Driver/Src/stm32f4xx_hal_tim_ex.c:1126:53
	movw	r0, :lower16:TIM_DMAError
	movt	r0, :upper16:TIM_DMAError
	str	r0, [r1, #76]
	.loc	7 1129 24 is_stmt 1             @ ../ThirdParty/STM32F4xx_HAL_Driver/Src/stm32f4xx_hal_tim_ex.c:1129:24
	ldr	r0, [sp, #16]
	.loc	7 1129 86 is_stmt 0             @ ../ThirdParty/STM32F4xx_HAL_Driver/Src/stm32f4xx_hal_tim_ex.c:1129:86
	ldr	r2, [r0]
	.loc	7 1129 24                       @ ../ThirdParty/STM32F4xx_HAL_Driver/Src/stm32f4xx_hal_tim_ex.c:1129:24
	ldr	r0, [r0, #32]
	.loc	7 1129 62                       @ ../ThirdParty/STM32F4xx_HAL_Driver/Src/stm32f4xx_hal_tim_ex.c:1129:62
	ldr	r1, [sp, #8]
	.loc	7 1129 96                       @ ../ThirdParty/STM32F4xx_HAL_Driver/Src/stm32f4xx_hal_tim_ex.c:1129:96
	adds	r2, #52
	.loc	7 1129 102                      @ ../ThirdParty/STM32F4xx_HAL_Driver/Src/stm32f4xx_hal_tim_ex.c:1129:102
	ldrh.w	r3, [sp, #6]
	.loc	7 1129 7                        @ ../ThirdParty/STM32F4xx_HAL_Driver/Src/stm32f4xx_hal_tim_ex.c:1129:7
	bl	HAL_DMA_Start_IT
	.loc	7 1132 7 is_stmt 1              @ ../ThirdParty/STM32F4xx_HAL_Driver/Src/stm32f4xx_hal_tim_ex.c:1132:7
	ldr	r0, [sp, #16]
	ldr	r1, [r0]
	ldr	r0, [r1, #12]
	orr	r0, r0, #512
	str	r0, [r1, #12]
.Ltmp253:
	.loc	7 1134 5                        @ ../ThirdParty/STM32F4xx_HAL_Driver/Src/stm32f4xx_hal_tim_ex.c:1134:5
	b	.LBB21_17
.LBB21_13:
.Ltmp254:
	.loc	7 1139 7                        @ ../ThirdParty/STM32F4xx_HAL_Driver/Src/stm32f4xx_hal_tim_ex.c:1139:7
	ldr	r0, [sp, #16]
	ldr	r1, [r0, #36]
	.loc	7 1139 52 is_stmt 0             @ ../ThirdParty/STM32F4xx_HAL_Driver/Src/stm32f4xx_hal_tim_ex.c:1139:52
	movw	r0, :lower16:TIM_DMADelayPulseCplt
	movt	r0, :upper16:TIM_DMADelayPulseCplt
	str	r0, [r1, #60]
	.loc	7 1142 7 is_stmt 1              @ ../ThirdParty/STM32F4xx_HAL_Driver/Src/stm32f4xx_hal_tim_ex.c:1142:7
	ldr	r0, [sp, #16]
	ldr	r1, [r0, #36]
	.loc	7 1142 53 is_stmt 0             @ ../ThirdParty/STM32F4xx_HAL_Driver/Src/stm32f4xx_hal_tim_ex.c:1142:53
	movw	r0, :lower16:TIM_DMAError
	movt	r0, :upper16:TIM_DMAError
	str	r0, [r1, #76]
	.loc	7 1145 24 is_stmt 1             @ ../ThirdParty/STM32F4xx_HAL_Driver/Src/stm32f4xx_hal_tim_ex.c:1145:24
	ldr	r0, [sp, #16]
	.loc	7 1145 86 is_stmt 0             @ ../ThirdParty/STM32F4xx_HAL_Driver/Src/stm32f4xx_hal_tim_ex.c:1145:86
	ldr	r2, [r0]
	.loc	7 1145 24                       @ ../ThirdParty/STM32F4xx_HAL_Driver/Src/stm32f4xx_hal_tim_ex.c:1145:24
	ldr	r0, [r0, #36]
	.loc	7 1145 62                       @ ../ThirdParty/STM32F4xx_HAL_Driver/Src/stm32f4xx_hal_tim_ex.c:1145:62
	ldr	r1, [sp, #8]
	.loc	7 1145 96                       @ ../ThirdParty/STM32F4xx_HAL_Driver/Src/stm32f4xx_hal_tim_ex.c:1145:96
	adds	r2, #56
	.loc	7 1145 102                      @ ../ThirdParty/STM32F4xx_HAL_Driver/Src/stm32f4xx_hal_tim_ex.c:1145:102
	ldrh.w	r3, [sp, #6]
	.loc	7 1145 7                        @ ../ThirdParty/STM32F4xx_HAL_Driver/Src/stm32f4xx_hal_tim_ex.c:1145:7
	bl	HAL_DMA_Start_IT
	.loc	7 1148 7 is_stmt 1              @ ../ThirdParty/STM32F4xx_HAL_Driver/Src/stm32f4xx_hal_tim_ex.c:1148:7
	ldr	r0, [sp, #16]
	ldr	r1, [r0]
	ldr	r0, [r1, #12]
	orr	r0, r0, #1024
	str	r0, [r1, #12]
.Ltmp255:
	.loc	7 1150 5                        @ ../ThirdParty/STM32F4xx_HAL_Driver/Src/stm32f4xx_hal_tim_ex.c:1150:5
	b	.LBB21_17
.LBB21_14:
.Ltmp256:
	.loc	7 1155 7                        @ ../ThirdParty/STM32F4xx_HAL_Driver/Src/stm32f4xx_hal_tim_ex.c:1155:7
	ldr	r0, [sp, #16]
	ldr	r1, [r0, #40]
	.loc	7 1155 52 is_stmt 0             @ ../ThirdParty/STM32F4xx_HAL_Driver/Src/stm32f4xx_hal_tim_ex.c:1155:52
	movw	r0, :lower16:TIM_DMADelayPulseCplt
	movt	r0, :upper16:TIM_DMADelayPulseCplt
	str	r0, [r1, #60]
	.loc	7 1158 7 is_stmt 1              @ ../ThirdParty/STM32F4xx_HAL_Driver/Src/stm32f4xx_hal_tim_ex.c:1158:7
	ldr	r0, [sp, #16]
	ldr	r1, [r0, #40]
	.loc	7 1158 53 is_stmt 0             @ ../ThirdParty/STM32F4xx_HAL_Driver/Src/stm32f4xx_hal_tim_ex.c:1158:53
	movw	r0, :lower16:TIM_DMAError
	movt	r0, :upper16:TIM_DMAError
	str	r0, [r1, #76]
	.loc	7 1161 24 is_stmt 1             @ ../ThirdParty/STM32F4xx_HAL_Driver/Src/stm32f4xx_hal_tim_ex.c:1161:24
	ldr	r0, [sp, #16]
	.loc	7 1161 86 is_stmt 0             @ ../ThirdParty/STM32F4xx_HAL_Driver/Src/stm32f4xx_hal_tim_ex.c:1161:86
	ldr	r2, [r0]
	.loc	7 1161 24                       @ ../ThirdParty/STM32F4xx_HAL_Driver/Src/stm32f4xx_hal_tim_ex.c:1161:24
	ldr	r0, [r0, #40]
	.loc	7 1161 62                       @ ../ThirdParty/STM32F4xx_HAL_Driver/Src/stm32f4xx_hal_tim_ex.c:1161:62
	ldr	r1, [sp, #8]
	.loc	7 1161 96                       @ ../ThirdParty/STM32F4xx_HAL_Driver/Src/stm32f4xx_hal_tim_ex.c:1161:96
	adds	r2, #60
	.loc	7 1161 101                      @ ../ThirdParty/STM32F4xx_HAL_Driver/Src/stm32f4xx_hal_tim_ex.c:1161:101
	ldrh.w	r3, [sp, #6]
	.loc	7 1161 7                        @ ../ThirdParty/STM32F4xx_HAL_Driver/Src/stm32f4xx_hal_tim_ex.c:1161:7
	bl	HAL_DMA_Start_IT
	.loc	7 1164 7 is_stmt 1              @ ../ThirdParty/STM32F4xx_HAL_Driver/Src/stm32f4xx_hal_tim_ex.c:1164:7
	ldr	r0, [sp, #16]
	ldr	r1, [r0]
	ldr	r0, [r1, #12]
	orr	r0, r0, #2048
	str	r0, [r1, #12]
.Ltmp257:
	.loc	7 1166 5                        @ ../ThirdParty/STM32F4xx_HAL_Driver/Src/stm32f4xx_hal_tim_ex.c:1166:5
	b	.LBB21_17
.LBB21_15:
.Ltmp258:
	.loc	7 1171 7                        @ ../ThirdParty/STM32F4xx_HAL_Driver/Src/stm32f4xx_hal_tim_ex.c:1171:7
	ldr	r0, [sp, #16]
	ldr	r1, [r0, #44]
	.loc	7 1171 52 is_stmt 0             @ ../ThirdParty/STM32F4xx_HAL_Driver/Src/stm32f4xx_hal_tim_ex.c:1171:52
	movw	r0, :lower16:TIM_DMADelayPulseCplt
	movt	r0, :upper16:TIM_DMADelayPulseCplt
	str	r0, [r1, #60]
	.loc	7 1174 7 is_stmt 1              @ ../ThirdParty/STM32F4xx_HAL_Driver/Src/stm32f4xx_hal_tim_ex.c:1174:7
	ldr	r0, [sp, #16]
	ldr	r1, [r0, #44]
	.loc	7 1174 53 is_stmt 0             @ ../ThirdParty/STM32F4xx_HAL_Driver/Src/stm32f4xx_hal_tim_ex.c:1174:53
	movw	r0, :lower16:TIM_DMAError
	movt	r0, :upper16:TIM_DMAError
	str	r0, [r1, #76]
	.loc	7 1177 24 is_stmt 1             @ ../ThirdParty/STM32F4xx_HAL_Driver/Src/stm32f4xx_hal_tim_ex.c:1177:24
	ldr	r0, [sp, #16]
	.loc	7 1177 86 is_stmt 0             @ ../ThirdParty/STM32F4xx_HAL_Driver/Src/stm32f4xx_hal_tim_ex.c:1177:86
	ldr	r2, [r0]
	.loc	7 1177 24                       @ ../ThirdParty/STM32F4xx_HAL_Driver/Src/stm32f4xx_hal_tim_ex.c:1177:24
	ldr	r0, [r0, #44]
	.loc	7 1177 62                       @ ../ThirdParty/STM32F4xx_HAL_Driver/Src/stm32f4xx_hal_tim_ex.c:1177:62
	ldr	r1, [sp, #8]
	.loc	7 1177 96                       @ ../ThirdParty/STM32F4xx_HAL_Driver/Src/stm32f4xx_hal_tim_ex.c:1177:96
	adds	r2, #64
	.loc	7 1177 102                      @ ../ThirdParty/STM32F4xx_HAL_Driver/Src/stm32f4xx_hal_tim_ex.c:1177:102
	ldrh.w	r3, [sp, #6]
	.loc	7 1177 7                        @ ../ThirdParty/STM32F4xx_HAL_Driver/Src/stm32f4xx_hal_tim_ex.c:1177:7
	bl	HAL_DMA_Start_IT
	.loc	7 1180 7 is_stmt 1              @ ../ThirdParty/STM32F4xx_HAL_Driver/Src/stm32f4xx_hal_tim_ex.c:1180:7
	ldr	r0, [sp, #16]
	ldr	r1, [r0]
	ldr	r0, [r1, #12]
	orr	r0, r0, #4096
	str	r0, [r1, #12]
.Ltmp259:
	.loc	7 1182 5                        @ ../ThirdParty/STM32F4xx_HAL_Driver/Src/stm32f4xx_hal_tim_ex.c:1182:5
	b	.LBB21_17
.LBB21_16:
	.loc	7 1185 5                        @ ../ThirdParty/STM32F4xx_HAL_Driver/Src/stm32f4xx_hal_tim_ex.c:1185:5
	b	.LBB21_17
.Ltmp260:
.LBB21_17:
	.loc	7 1189 25                       @ ../ThirdParty/STM32F4xx_HAL_Driver/Src/stm32f4xx_hal_tim_ex.c:1189:25
	ldr	r0, [sp, #16]
	.loc	7 1189 31 is_stmt 0             @ ../ThirdParty/STM32F4xx_HAL_Driver/Src/stm32f4xx_hal_tim_ex.c:1189:31
	ldr	r0, [r0]
	.loc	7 1189 41                       @ ../ThirdParty/STM32F4xx_HAL_Driver/Src/stm32f4xx_hal_tim_ex.c:1189:41
	ldr	r1, [sp, #12]
	movs	r2, #4
	.loc	7 1189 6                        @ ../ThirdParty/STM32F4xx_HAL_Driver/Src/stm32f4xx_hal_tim_ex.c:1189:6
	bl	TIM_CCxNChannelCmd
	.loc	7 1192 5 is_stmt 1              @ ../ThirdParty/STM32F4xx_HAL_Driver/Src/stm32f4xx_hal_tim_ex.c:1192:5
	ldr	r0, [sp, #16]
	ldr	r1, [r0]
	ldr	r0, [r1, #68]
	orr	r0, r0, #32768
	str	r0, [r1, #68]
	.loc	7 1195 3                        @ ../ThirdParty/STM32F4xx_HAL_Driver/Src/stm32f4xx_hal_tim_ex.c:1195:3
	ldr	r0, [sp, #16]
	ldr	r1, [r0]
	ldr	r0, [r1]
	orr	r0, r0, #1
	str	r0, [r1]
	movs	r0, #0
	.loc	7 1198 3                        @ ../ThirdParty/STM32F4xx_HAL_Driver/Src/stm32f4xx_hal_tim_ex.c:1198:3
	strb.w	r0, [sp, #23]
	b	.LBB21_18
.LBB21_18:
	.loc	7 1199 1                        @ ../ThirdParty/STM32F4xx_HAL_Driver/Src/stm32f4xx_hal_tim_ex.c:1199:1
	ldrb.w	r0, [sp, #23]
	.loc	7 1199 1 epilogue_begin is_stmt 0 @ ../ThirdParty/STM32F4xx_HAL_Driver/Src/stm32f4xx_hal_tim_ex.c:1199:1
	add	sp, #24
	pop	{r7, pc}
.Ltmp261:
.Lfunc_end21:
	.size	HAL_TIMEx_PWMN_Start_DMA, .Lfunc_end21-HAL_TIMEx_PWMN_Start_DMA
	.cfi_endproc
	.cantunwind
	.fnend
                                        @ -- End function
	.section	.text.HAL_TIMEx_PWMN_Stop_DMA,"ax",%progbits
	.hidden	HAL_TIMEx_PWMN_Stop_DMA         @ -- Begin function HAL_TIMEx_PWMN_Stop_DMA
	.globl	HAL_TIMEx_PWMN_Stop_DMA
	.p2align	2
	.type	HAL_TIMEx_PWMN_Stop_DMA,%function
	.code	16                              @ @HAL_TIMEx_PWMN_Stop_DMA
	.thumb_func
HAL_TIMEx_PWMN_Stop_DMA:
.Lfunc_begin22:
	.loc	7 1214 0 is_stmt 1              @ ../ThirdParty/STM32F4xx_HAL_Driver/Src/stm32f4xx_hal_tim_ex.c:1214:0
	.fnstart
	.cfi_startproc
@ %bb.0:
	.save	{r7, lr}
	push	{r7, lr}
	.cfi_def_cfa_offset 8
	.cfi_offset lr, -4
	.cfi_offset r7, -8
	.pad	#16
	sub	sp, #16
	.cfi_def_cfa_offset 24
	str	r0, [sp, #12]
	str	r1, [sp, #8]
.Ltmp262:
	.loc	7 1218 11 prologue_end          @ ../ThirdParty/STM32F4xx_HAL_Driver/Src/stm32f4xx_hal_tim_ex.c:1218:11
	ldr	r0, [sp, #8]
	.loc	7 1218 3 is_stmt 0              @ ../ThirdParty/STM32F4xx_HAL_Driver/Src/stm32f4xx_hal_tim_ex.c:1218:3
	str	r0, [sp, #4]                    @ 4-byte Spill
	cmp	r0, #12
	bhi	.LBB22_7
@ %bb.1:
	.loc	7 0 3                           @ ../ThirdParty/STM32F4xx_HAL_Driver/Src/stm32f4xx_hal_tim_ex.c:0:3
	ldr	r1, [sp, #4]                    @ 4-byte Reload
.LCPI22_0:
	tbb	[pc, r1]
@ %bb.2:
.LJTI22_0:
	.byte	(.LBB22_3-(.LCPI22_0+4))/2
	.byte	(.LBB22_7-(.LCPI22_0+4))/2
	.byte	(.LBB22_7-(.LCPI22_0+4))/2
	.byte	(.LBB22_7-(.LCPI22_0+4))/2
	.byte	(.LBB22_4-(.LCPI22_0+4))/2
	.byte	(.LBB22_7-(.LCPI22_0+4))/2
	.byte	(.LBB22_7-(.LCPI22_0+4))/2
	.byte	(.LBB22_7-(.LCPI22_0+4))/2
	.byte	(.LBB22_5-(.LCPI22_0+4))/2
	.byte	(.LBB22_7-(.LCPI22_0+4))/2
	.byte	(.LBB22_7-(.LCPI22_0+4))/2
	.byte	(.LBB22_7-(.LCPI22_0+4))/2
	.byte	(.LBB22_6-(.LCPI22_0+4))/2
	.p2align	1
.LBB22_3:
.Ltmp263:
	.loc	7 1223 7 is_stmt 1              @ ../ThirdParty/STM32F4xx_HAL_Driver/Src/stm32f4xx_hal_tim_ex.c:1223:7
	ldr	r0, [sp, #12]
	ldr	r1, [r0]
	ldr	r0, [r1, #12]
	bic	r0, r0, #512
	str	r0, [r1, #12]
.Ltmp264:
	.loc	7 1225 5                        @ ../ThirdParty/STM32F4xx_HAL_Driver/Src/stm32f4xx_hal_tim_ex.c:1225:5
	b	.LBB22_8
.LBB22_4:
.Ltmp265:
	.loc	7 1230 7                        @ ../ThirdParty/STM32F4xx_HAL_Driver/Src/stm32f4xx_hal_tim_ex.c:1230:7
	ldr	r0, [sp, #12]
	ldr	r1, [r0]
	ldr	r0, [r1, #12]
	bic	r0, r0, #1024
	str	r0, [r1, #12]
.Ltmp266:
	.loc	7 1232 5                        @ ../ThirdParty/STM32F4xx_HAL_Driver/Src/stm32f4xx_hal_tim_ex.c:1232:5
	b	.LBB22_8
.LBB22_5:
.Ltmp267:
	.loc	7 1237 7                        @ ../ThirdParty/STM32F4xx_HAL_Driver/Src/stm32f4xx_hal_tim_ex.c:1237:7
	ldr	r0, [sp, #12]
	ldr	r1, [r0]
	ldr	r0, [r1, #12]
	bic	r0, r0, #2048
	str	r0, [r1, #12]
.Ltmp268:
	.loc	7 1239 5                        @ ../ThirdParty/STM32F4xx_HAL_Driver/Src/stm32f4xx_hal_tim_ex.c:1239:5
	b	.LBB22_8
.LBB22_6:
.Ltmp269:
	.loc	7 1244 7                        @ ../ThirdParty/STM32F4xx_HAL_Driver/Src/stm32f4xx_hal_tim_ex.c:1244:7
	ldr	r0, [sp, #12]
	ldr	r1, [r0]
	ldr	r0, [r1, #12]
	bic	r0, r0, #4096
	str	r0, [r1, #12]
.Ltmp270:
	.loc	7 1246 5                        @ ../ThirdParty/STM32F4xx_HAL_Driver/Src/stm32f4xx_hal_tim_ex.c:1246:5
	b	.LBB22_8
.LBB22_7:
	.loc	7 1249 5                        @ ../ThirdParty/STM32F4xx_HAL_Driver/Src/stm32f4xx_hal_tim_ex.c:1249:5
	b	.LBB22_8
.Ltmp271:
.LBB22_8:
	.loc	7 1253 24                       @ ../ThirdParty/STM32F4xx_HAL_Driver/Src/stm32f4xx_hal_tim_ex.c:1253:24
	ldr	r0, [sp, #12]
	.loc	7 1253 30 is_stmt 0             @ ../ThirdParty/STM32F4xx_HAL_Driver/Src/stm32f4xx_hal_tim_ex.c:1253:30
	ldr	r0, [r0]
	.loc	7 1253 40                       @ ../ThirdParty/STM32F4xx_HAL_Driver/Src/stm32f4xx_hal_tim_ex.c:1253:40
	ldr	r1, [sp, #8]
	movs	r2, #0
	.loc	7 1253 5                        @ ../ThirdParty/STM32F4xx_HAL_Driver/Src/stm32f4xx_hal_tim_ex.c:1253:5
	bl	TIM_CCxNChannelCmd
	.loc	7 1256 5 is_stmt 1              @ ../ThirdParty/STM32F4xx_HAL_Driver/Src/stm32f4xx_hal_tim_ex.c:1256:5
	b	.LBB22_9
.LBB22_9:
.Ltmp272:
	.loc	7 1256 5 is_stmt 0              @ ../ThirdParty/STM32F4xx_HAL_Driver/Src/stm32f4xx_hal_tim_ex.c:1256:5
	ldr	r0, [sp, #12]
	ldr	r0, [r0]
	ldr	r0, [r0, #32]
	movw	r1, #4369
.Ltmp273:
	.loc	7 1256 5                        @ ../ThirdParty/STM32F4xx_HAL_Driver/Src/stm32f4xx_hal_tim_ex.c:1256:5
	tst	r0, r1
	bne	.LBB22_13
	b	.LBB22_10
.LBB22_10:
.Ltmp274:
	.loc	7 1256 5                        @ ../ThirdParty/STM32F4xx_HAL_Driver/Src/stm32f4xx_hal_tim_ex.c:1256:5
	ldr	r0, [sp, #12]
	ldr	r0, [r0]
	ldr	r0, [r0, #32]
	movw	r1, #1092
.Ltmp275:
	.loc	7 1256 5                        @ ../ThirdParty/STM32F4xx_HAL_Driver/Src/stm32f4xx_hal_tim_ex.c:1256:5
	tst	r0, r1
	bne	.LBB22_12
	b	.LBB22_11
.LBB22_11:
.Ltmp276:
	.loc	7 1256 5                        @ ../ThirdParty/STM32F4xx_HAL_Driver/Src/stm32f4xx_hal_tim_ex.c:1256:5
	ldr	r0, [sp, #12]
	ldr	r1, [r0]
	ldr	r0, [r1, #68]
	bic	r0, r0, #32768
	str	r0, [r1, #68]
	b	.LBB22_12
.Ltmp277:
.LBB22_12:
	.loc	7 1256 5                        @ ../ThirdParty/STM32F4xx_HAL_Driver/Src/stm32f4xx_hal_tim_ex.c:1256:5
	b	.LBB22_13
.Ltmp278:
.LBB22_13:
	.loc	7 1256 5                        @ ../ThirdParty/STM32F4xx_HAL_Driver/Src/stm32f4xx_hal_tim_ex.c:1256:5
	b	.LBB22_14
.Ltmp279:
.LBB22_14:
	.loc	7 1259 3 is_stmt 1              @ ../ThirdParty/STM32F4xx_HAL_Driver/Src/stm32f4xx_hal_tim_ex.c:1259:3
	b	.LBB22_15
.LBB22_15:
.Ltmp280:
	.loc	7 1259 3 is_stmt 0              @ ../ThirdParty/STM32F4xx_HAL_Driver/Src/stm32f4xx_hal_tim_ex.c:1259:3
	ldr	r0, [sp, #12]
	ldr	r0, [r0]
	ldr	r0, [r0, #32]
	movw	r1, #4369
.Ltmp281:
	.loc	7 1259 3                        @ ../ThirdParty/STM32F4xx_HAL_Driver/Src/stm32f4xx_hal_tim_ex.c:1259:3
	tst	r0, r1
	bne	.LBB22_19
	b	.LBB22_16
.LBB22_16:
.Ltmp282:
	.loc	7 1259 3                        @ ../ThirdParty/STM32F4xx_HAL_Driver/Src/stm32f4xx_hal_tim_ex.c:1259:3
	ldr	r0, [sp, #12]
	ldr	r0, [r0]
	ldr	r0, [r0, #32]
	movw	r1, #1092
.Ltmp283:
	.loc	7 1259 3                        @ ../ThirdParty/STM32F4xx_HAL_Driver/Src/stm32f4xx_hal_tim_ex.c:1259:3
	tst	r0, r1
	bne	.LBB22_18
	b	.LBB22_17
.LBB22_17:
.Ltmp284:
	.loc	7 1259 3                        @ ../ThirdParty/STM32F4xx_HAL_Driver/Src/stm32f4xx_hal_tim_ex.c:1259:3
	ldr	r0, [sp, #12]
	ldr	r1, [r0]
	ldr	r0, [r1]
	bic	r0, r0, #1
	str	r0, [r1]
	b	.LBB22_18
.Ltmp285:
.LBB22_18:
	.loc	7 1259 3                        @ ../ThirdParty/STM32F4xx_HAL_Driver/Src/stm32f4xx_hal_tim_ex.c:1259:3
	b	.LBB22_19
.Ltmp286:
.LBB22_19:
	.loc	7 1259 3                        @ ../ThirdParty/STM32F4xx_HAL_Driver/Src/stm32f4xx_hal_tim_ex.c:1259:3
	b	.LBB22_20
.Ltmp287:
.LBB22_20:
	.loc	7 1262 3 is_stmt 1              @ ../ThirdParty/STM32F4xx_HAL_Driver/Src/stm32f4xx_hal_tim_ex.c:1262:3
	ldr	r1, [sp, #12]
	movs	r0, #1
	.loc	7 1262 15 is_stmt 0             @ ../ThirdParty/STM32F4xx_HAL_Driver/Src/stm32f4xx_hal_tim_ex.c:1262:15
	strb.w	r0, [r1, #57]
	movs	r0, #0
	.loc	7 1265 3 epilogue_begin is_stmt 1 @ ../ThirdParty/STM32F4xx_HAL_Driver/Src/stm32f4xx_hal_tim_ex.c:1265:3
	add	sp, #16
	pop	{r7, pc}
.Ltmp288:
.Lfunc_end22:
	.size	HAL_TIMEx_PWMN_Stop_DMA, .Lfunc_end22-HAL_TIMEx_PWMN_Stop_DMA
	.cfi_endproc
	.cantunwind
	.fnend
                                        @ -- End function
	.section	.text.HAL_TIMEx_OnePulseN_Start,"ax",%progbits
	.hidden	HAL_TIMEx_OnePulseN_Start       @ -- Begin function HAL_TIMEx_OnePulseN_Start
	.globl	HAL_TIMEx_OnePulseN_Start
	.p2align	2
	.type	HAL_TIMEx_OnePulseN_Start,%function
	.code	16                              @ @HAL_TIMEx_OnePulseN_Start
	.thumb_func
HAL_TIMEx_OnePulseN_Start:
.Lfunc_begin23:
	.loc	7 1302 0                        @ ../ThirdParty/STM32F4xx_HAL_Driver/Src/stm32f4xx_hal_tim_ex.c:1302:0
	.fnstart
	.cfi_startproc
@ %bb.0:
	.save	{r7, lr}
	push	{r7, lr}
	.cfi_def_cfa_offset 8
	.cfi_offset lr, -4
	.cfi_offset r7, -8
	.pad	#8
	sub	sp, #8
	.cfi_def_cfa_offset 16
	str	r0, [sp, #4]
	str	r1, [sp]
.Ltmp289:
	.loc	7 1307 22 prologue_end          @ ../ThirdParty/STM32F4xx_HAL_Driver/Src/stm32f4xx_hal_tim_ex.c:1307:22
	ldr	r0, [sp, #4]
	.loc	7 1307 28 is_stmt 0             @ ../ThirdParty/STM32F4xx_HAL_Driver/Src/stm32f4xx_hal_tim_ex.c:1307:28
	ldr	r0, [r0]
	.loc	7 1307 38                       @ ../ThirdParty/STM32F4xx_HAL_Driver/Src/stm32f4xx_hal_tim_ex.c:1307:38
	ldr	r1, [sp]
	movs	r2, #4
	.loc	7 1307 3                        @ ../ThirdParty/STM32F4xx_HAL_Driver/Src/stm32f4xx_hal_tim_ex.c:1307:3
	bl	TIM_CCxNChannelCmd
	.loc	7 1310 3 is_stmt 1              @ ../ThirdParty/STM32F4xx_HAL_Driver/Src/stm32f4xx_hal_tim_ex.c:1310:3
	ldr	r0, [sp, #4]
	ldr	r1, [r0]
	ldr	r0, [r1, #68]
	orr	r0, r0, #32768
	str	r0, [r1, #68]
	movs	r0, #0
	.loc	7 1313 3 epilogue_begin         @ ../ThirdParty/STM32F4xx_HAL_Driver/Src/stm32f4xx_hal_tim_ex.c:1313:3
	add	sp, #8
	pop	{r7, pc}
.Ltmp290:
.Lfunc_end23:
	.size	HAL_TIMEx_OnePulseN_Start, .Lfunc_end23-HAL_TIMEx_OnePulseN_Start
	.cfi_endproc
	.cantunwind
	.fnend
                                        @ -- End function
	.section	.text.HAL_TIMEx_OnePulseN_Stop,"ax",%progbits
	.hidden	HAL_TIMEx_OnePulseN_Stop        @ -- Begin function HAL_TIMEx_OnePulseN_Stop
	.globl	HAL_TIMEx_OnePulseN_Stop
	.p2align	2
	.type	HAL_TIMEx_OnePulseN_Stop,%function
	.code	16                              @ @HAL_TIMEx_OnePulseN_Stop
	.thumb_func
HAL_TIMEx_OnePulseN_Stop:
.Lfunc_begin24:
	.loc	7 1328 0                        @ ../ThirdParty/STM32F4xx_HAL_Driver/Src/stm32f4xx_hal_tim_ex.c:1328:0
	.fnstart
	.cfi_startproc
@ %bb.0:
	.save	{r7, lr}
	push	{r7, lr}
	.cfi_def_cfa_offset 8
	.cfi_offset lr, -4
	.cfi_offset r7, -8
	.pad	#8
	sub	sp, #8
	.cfi_def_cfa_offset 16
	str	r0, [sp, #4]
	str	r1, [sp]
.Ltmp291:
	.loc	7 1334 24 prologue_end          @ ../ThirdParty/STM32F4xx_HAL_Driver/Src/stm32f4xx_hal_tim_ex.c:1334:24
	ldr	r0, [sp, #4]
	.loc	7 1334 30 is_stmt 0             @ ../ThirdParty/STM32F4xx_HAL_Driver/Src/stm32f4xx_hal_tim_ex.c:1334:30
	ldr	r0, [r0]
	.loc	7 1334 40                       @ ../ThirdParty/STM32F4xx_HAL_Driver/Src/stm32f4xx_hal_tim_ex.c:1334:40
	ldr	r1, [sp]
	movs	r2, #0
	.loc	7 1334 5                        @ ../ThirdParty/STM32F4xx_HAL_Driver/Src/stm32f4xx_hal_tim_ex.c:1334:5
	bl	TIM_CCxNChannelCmd
	.loc	7 1337 5 is_stmt 1              @ ../ThirdParty/STM32F4xx_HAL_Driver/Src/stm32f4xx_hal_tim_ex.c:1337:5
	b	.LBB24_1
.LBB24_1:
.Ltmp292:
	.loc	7 1337 5 is_stmt 0              @ ../ThirdParty/STM32F4xx_HAL_Driver/Src/stm32f4xx_hal_tim_ex.c:1337:5
	ldr	r0, [sp, #4]
	ldr	r0, [r0]
	ldr	r0, [r0, #32]
	movw	r1, #4369
.Ltmp293:
	.loc	7 1337 5                        @ ../ThirdParty/STM32F4xx_HAL_Driver/Src/stm32f4xx_hal_tim_ex.c:1337:5
	tst	r0, r1
	bne	.LBB24_5
	b	.LBB24_2
.LBB24_2:
.Ltmp294:
	.loc	7 1337 5                        @ ../ThirdParty/STM32F4xx_HAL_Driver/Src/stm32f4xx_hal_tim_ex.c:1337:5
	ldr	r0, [sp, #4]
	ldr	r0, [r0]
	ldr	r0, [r0, #32]
	movw	r1, #1092
.Ltmp295:
	.loc	7 1337 5                        @ ../ThirdParty/STM32F4xx_HAL_Driver/Src/stm32f4xx_hal_tim_ex.c:1337:5
	tst	r0, r1
	bne	.LBB24_4
	b	.LBB24_3
.LBB24_3:
.Ltmp296:
	.loc	7 1337 5                        @ ../ThirdParty/STM32F4xx_HAL_Driver/Src/stm32f4xx_hal_tim_ex.c:1337:5
	ldr	r0, [sp, #4]
	ldr	r1, [r0]
	ldr	r0, [r1, #68]
	bic	r0, r0, #32768
	str	r0, [r1, #68]
	b	.LBB24_4
.Ltmp297:
.LBB24_4:
	.loc	7 1337 5                        @ ../ThirdParty/STM32F4xx_HAL_Driver/Src/stm32f4xx_hal_tim_ex.c:1337:5
	b	.LBB24_5
.Ltmp298:
.LBB24_5:
	.loc	7 1337 5                        @ ../ThirdParty/STM32F4xx_HAL_Driver/Src/stm32f4xx_hal_tim_ex.c:1337:5
	b	.LBB24_6
.Ltmp299:
.LBB24_6:
	.loc	7 1340 3 is_stmt 1              @ ../ThirdParty/STM32F4xx_HAL_Driver/Src/stm32f4xx_hal_tim_ex.c:1340:3
	b	.LBB24_7
.LBB24_7:
.Ltmp300:
	.loc	7 1340 3 is_stmt 0              @ ../ThirdParty/STM32F4xx_HAL_Driver/Src/stm32f4xx_hal_tim_ex.c:1340:3
	ldr	r0, [sp, #4]
	ldr	r0, [r0]
	ldr	r0, [r0, #32]
	movw	r1, #4369
.Ltmp301:
	.loc	7 1340 3                        @ ../ThirdParty/STM32F4xx_HAL_Driver/Src/stm32f4xx_hal_tim_ex.c:1340:3
	tst	r0, r1
	bne	.LBB24_11
	b	.LBB24_8
.LBB24_8:
.Ltmp302:
	.loc	7 1340 3                        @ ../ThirdParty/STM32F4xx_HAL_Driver/Src/stm32f4xx_hal_tim_ex.c:1340:3
	ldr	r0, [sp, #4]
	ldr	r0, [r0]
	ldr	r0, [r0, #32]
	movw	r1, #1092
.Ltmp303:
	.loc	7 1340 3                        @ ../ThirdParty/STM32F4xx_HAL_Driver/Src/stm32f4xx_hal_tim_ex.c:1340:3
	tst	r0, r1
	bne	.LBB24_10
	b	.LBB24_9
.LBB24_9:
.Ltmp304:
	.loc	7 1340 3                        @ ../ThirdParty/STM32F4xx_HAL_Driver/Src/stm32f4xx_hal_tim_ex.c:1340:3
	ldr	r0, [sp, #4]
	ldr	r1, [r0]
	ldr	r0, [r1]
	bic	r0, r0, #1
	str	r0, [r1]
	b	.LBB24_10
.Ltmp305:
.LBB24_10:
	.loc	7 1340 3                        @ ../ThirdParty/STM32F4xx_HAL_Driver/Src/stm32f4xx_hal_tim_ex.c:1340:3
	b	.LBB24_11
.Ltmp306:
.LBB24_11:
	.loc	7 1340 3                        @ ../ThirdParty/STM32F4xx_HAL_Driver/Src/stm32f4xx_hal_tim_ex.c:1340:3
	b	.LBB24_12
.Ltmp307:
.LBB24_12:
	.loc	7 0 3                           @ ../ThirdParty/STM32F4xx_HAL_Driver/Src/stm32f4xx_hal_tim_ex.c:0:3
	movs	r0, #0
	.loc	7 1343 3 epilogue_begin is_stmt 1 @ ../ThirdParty/STM32F4xx_HAL_Driver/Src/stm32f4xx_hal_tim_ex.c:1343:3
	add	sp, #8
	pop	{r7, pc}
.Ltmp308:
.Lfunc_end24:
	.size	HAL_TIMEx_OnePulseN_Stop, .Lfunc_end24-HAL_TIMEx_OnePulseN_Stop
	.cfi_endproc
	.cantunwind
	.fnend
                                        @ -- End function
	.section	.text.HAL_TIMEx_OnePulseN_Start_IT,"ax",%progbits
	.hidden	HAL_TIMEx_OnePulseN_Start_IT    @ -- Begin function HAL_TIMEx_OnePulseN_Start_IT
	.globl	HAL_TIMEx_OnePulseN_Start_IT
	.p2align	2
	.type	HAL_TIMEx_OnePulseN_Start_IT,%function
	.code	16                              @ @HAL_TIMEx_OnePulseN_Start_IT
	.thumb_func
HAL_TIMEx_OnePulseN_Start_IT:
.Lfunc_begin25:
	.loc	7 1358 0                        @ ../ThirdParty/STM32F4xx_HAL_Driver/Src/stm32f4xx_hal_tim_ex.c:1358:0
	.fnstart
	.cfi_startproc
@ %bb.0:
	.save	{r7, lr}
	push	{r7, lr}
	.cfi_def_cfa_offset 8
	.cfi_offset lr, -4
	.cfi_offset r7, -8
	.pad	#8
	sub	sp, #8
	.cfi_def_cfa_offset 16
	str	r0, [sp, #4]
	str	r1, [sp]
.Ltmp309:
	.loc	7 1363 3 prologue_end           @ ../ThirdParty/STM32F4xx_HAL_Driver/Src/stm32f4xx_hal_tim_ex.c:1363:3
	ldr	r0, [sp, #4]
	ldr	r1, [r0]
	ldr	r0, [r1, #12]
	orr	r0, r0, #2
	str	r0, [r1, #12]
	.loc	7 1366 3                        @ ../ThirdParty/STM32F4xx_HAL_Driver/Src/stm32f4xx_hal_tim_ex.c:1366:3
	ldr	r0, [sp, #4]
	ldr	r1, [r0]
	ldr	r0, [r1, #12]
	orr	r0, r0, #4
	str	r0, [r1, #12]
	.loc	7 1369 22                       @ ../ThirdParty/STM32F4xx_HAL_Driver/Src/stm32f4xx_hal_tim_ex.c:1369:22
	ldr	r0, [sp, #4]
	.loc	7 1369 28 is_stmt 0             @ ../ThirdParty/STM32F4xx_HAL_Driver/Src/stm32f4xx_hal_tim_ex.c:1369:28
	ldr	r0, [r0]
	.loc	7 1369 38                       @ ../ThirdParty/STM32F4xx_HAL_Driver/Src/stm32f4xx_hal_tim_ex.c:1369:38
	ldr	r1, [sp]
	movs	r2, #4
	.loc	7 1369 3                        @ ../ThirdParty/STM32F4xx_HAL_Driver/Src/stm32f4xx_hal_tim_ex.c:1369:3
	bl	TIM_CCxNChannelCmd
	.loc	7 1372 3 is_stmt 1              @ ../ThirdParty/STM32F4xx_HAL_Driver/Src/stm32f4xx_hal_tim_ex.c:1372:3
	ldr	r0, [sp, #4]
	ldr	r1, [r0]
	ldr	r0, [r1, #68]
	orr	r0, r0, #32768
	str	r0, [r1, #68]
	movs	r0, #0
	.loc	7 1375 3 epilogue_begin         @ ../ThirdParty/STM32F4xx_HAL_Driver/Src/stm32f4xx_hal_tim_ex.c:1375:3
	add	sp, #8
	pop	{r7, pc}
.Ltmp310:
.Lfunc_end25:
	.size	HAL_TIMEx_OnePulseN_Start_IT, .Lfunc_end25-HAL_TIMEx_OnePulseN_Start_IT
	.cfi_endproc
	.cantunwind
	.fnend
                                        @ -- End function
	.section	.text.HAL_TIMEx_OnePulseN_Stop_IT,"ax",%progbits
	.hidden	HAL_TIMEx_OnePulseN_Stop_IT     @ -- Begin function HAL_TIMEx_OnePulseN_Stop_IT
	.globl	HAL_TIMEx_OnePulseN_Stop_IT
	.p2align	2
	.type	HAL_TIMEx_OnePulseN_Stop_IT,%function
	.code	16                              @ @HAL_TIMEx_OnePulseN_Stop_IT
	.thumb_func
HAL_TIMEx_OnePulseN_Stop_IT:
.Lfunc_begin26:
	.loc	7 1390 0                        @ ../ThirdParty/STM32F4xx_HAL_Driver/Src/stm32f4xx_hal_tim_ex.c:1390:0
	.fnstart
	.cfi_startproc
@ %bb.0:
	.save	{r7, lr}
	push	{r7, lr}
	.cfi_def_cfa_offset 8
	.cfi_offset lr, -4
	.cfi_offset r7, -8
	.pad	#8
	sub	sp, #8
	.cfi_def_cfa_offset 16
	str	r0, [sp, #4]
	str	r1, [sp]
.Ltmp311:
	.loc	7 1395 3 prologue_end           @ ../ThirdParty/STM32F4xx_HAL_Driver/Src/stm32f4xx_hal_tim_ex.c:1395:3
	ldr	r0, [sp, #4]
	ldr	r1, [r0]
	ldr	r0, [r1, #12]
	bic	r0, r0, #2
	str	r0, [r1, #12]
	.loc	7 1398 3                        @ ../ThirdParty/STM32F4xx_HAL_Driver/Src/stm32f4xx_hal_tim_ex.c:1398:3
	ldr	r0, [sp, #4]
	ldr	r1, [r0]
	ldr	r0, [r1, #12]
	bic	r0, r0, #4
	str	r0, [r1, #12]
	.loc	7 1401 22                       @ ../ThirdParty/STM32F4xx_HAL_Driver/Src/stm32f4xx_hal_tim_ex.c:1401:22
	ldr	r0, [sp, #4]
	.loc	7 1401 28 is_stmt 0             @ ../ThirdParty/STM32F4xx_HAL_Driver/Src/stm32f4xx_hal_tim_ex.c:1401:28
	ldr	r0, [r0]
	.loc	7 1401 38                       @ ../ThirdParty/STM32F4xx_HAL_Driver/Src/stm32f4xx_hal_tim_ex.c:1401:38
	ldr	r1, [sp]
	movs	r2, #0
	.loc	7 1401 3                        @ ../ThirdParty/STM32F4xx_HAL_Driver/Src/stm32f4xx_hal_tim_ex.c:1401:3
	bl	TIM_CCxNChannelCmd
	.loc	7 1404 3 is_stmt 1              @ ../ThirdParty/STM32F4xx_HAL_Driver/Src/stm32f4xx_hal_tim_ex.c:1404:3
	b	.LBB26_1
.LBB26_1:
.Ltmp312:
	.loc	7 1404 3 is_stmt 0              @ ../ThirdParty/STM32F4xx_HAL_Driver/Src/stm32f4xx_hal_tim_ex.c:1404:3
	ldr	r0, [sp, #4]
	ldr	r0, [r0]
	ldr	r0, [r0, #32]
	movw	r1, #4369
.Ltmp313:
	.loc	7 1404 3                        @ ../ThirdParty/STM32F4xx_HAL_Driver/Src/stm32f4xx_hal_tim_ex.c:1404:3
	tst	r0, r1
	bne	.LBB26_5
	b	.LBB26_2
.LBB26_2:
.Ltmp314:
	.loc	7 1404 3                        @ ../ThirdParty/STM32F4xx_HAL_Driver/Src/stm32f4xx_hal_tim_ex.c:1404:3
	ldr	r0, [sp, #4]
	ldr	r0, [r0]
	ldr	r0, [r0, #32]
	movw	r1, #1092
.Ltmp315:
	.loc	7 1404 3                        @ ../ThirdParty/STM32F4xx_HAL_Driver/Src/stm32f4xx_hal_tim_ex.c:1404:3
	tst	r0, r1
	bne	.LBB26_4
	b	.LBB26_3
.LBB26_3:
.Ltmp316:
	.loc	7 1404 3                        @ ../ThirdParty/STM32F4xx_HAL_Driver/Src/stm32f4xx_hal_tim_ex.c:1404:3
	ldr	r0, [sp, #4]
	ldr	r1, [r0]
	ldr	r0, [r1, #68]
	bic	r0, r0, #32768
	str	r0, [r1, #68]
	b	.LBB26_4
.Ltmp317:
.LBB26_4:
	.loc	7 1404 3                        @ ../ThirdParty/STM32F4xx_HAL_Driver/Src/stm32f4xx_hal_tim_ex.c:1404:3
	b	.LBB26_5
.Ltmp318:
.LBB26_5:
	.loc	7 1404 3                        @ ../ThirdParty/STM32F4xx_HAL_Driver/Src/stm32f4xx_hal_tim_ex.c:1404:3
	b	.LBB26_6
.Ltmp319:
.LBB26_6:
	.loc	7 1407 4 is_stmt 1              @ ../ThirdParty/STM32F4xx_HAL_Driver/Src/stm32f4xx_hal_tim_ex.c:1407:4
	b	.LBB26_7
.LBB26_7:
.Ltmp320:
	.loc	7 1407 4 is_stmt 0              @ ../ThirdParty/STM32F4xx_HAL_Driver/Src/stm32f4xx_hal_tim_ex.c:1407:4
	ldr	r0, [sp, #4]
	ldr	r0, [r0]
	ldr	r0, [r0, #32]
	movw	r1, #4369
.Ltmp321:
	.loc	7 1407 4                        @ ../ThirdParty/STM32F4xx_HAL_Driver/Src/stm32f4xx_hal_tim_ex.c:1407:4
	tst	r0, r1
	bne	.LBB26_11
	b	.LBB26_8
.LBB26_8:
.Ltmp322:
	.loc	7 1407 4                        @ ../ThirdParty/STM32F4xx_HAL_Driver/Src/stm32f4xx_hal_tim_ex.c:1407:4
	ldr	r0, [sp, #4]
	ldr	r0, [r0]
	ldr	r0, [r0, #32]
	movw	r1, #1092
.Ltmp323:
	.loc	7 1407 4                        @ ../ThirdParty/STM32F4xx_HAL_Driver/Src/stm32f4xx_hal_tim_ex.c:1407:4
	tst	r0, r1
	bne	.LBB26_10
	b	.LBB26_9
.LBB26_9:
.Ltmp324:
	.loc	7 1407 4                        @ ../ThirdParty/STM32F4xx_HAL_Driver/Src/stm32f4xx_hal_tim_ex.c:1407:4
	ldr	r0, [sp, #4]
	ldr	r1, [r0]
	ldr	r0, [r1]
	bic	r0, r0, #1
	str	r0, [r1]
	b	.LBB26_10
.Ltmp325:
.LBB26_10:
	.loc	7 1407 4                        @ ../ThirdParty/STM32F4xx_HAL_Driver/Src/stm32f4xx_hal_tim_ex.c:1407:4
	b	.LBB26_11
.Ltmp326:
.LBB26_11:
	.loc	7 1407 4                        @ ../ThirdParty/STM32F4xx_HAL_Driver/Src/stm32f4xx_hal_tim_ex.c:1407:4
	b	.LBB26_12
.Ltmp327:
.LBB26_12:
	.loc	7 0 4                           @ ../ThirdParty/STM32F4xx_HAL_Driver/Src/stm32f4xx_hal_tim_ex.c:0:4
	movs	r0, #0
	.loc	7 1410 3 epilogue_begin is_stmt 1 @ ../ThirdParty/STM32F4xx_HAL_Driver/Src/stm32f4xx_hal_tim_ex.c:1410:3
	add	sp, #8
	pop	{r7, pc}
.Ltmp328:
.Lfunc_end26:
	.size	HAL_TIMEx_OnePulseN_Stop_IT, .Lfunc_end26-HAL_TIMEx_OnePulseN_Stop_IT
	.cfi_endproc
	.cantunwind
	.fnend
                                        @ -- End function
	.section	.text.HAL_TIMEx_ConfigCommutationEvent,"ax",%progbits
	.hidden	HAL_TIMEx_ConfigCommutationEvent @ -- Begin function HAL_TIMEx_ConfigCommutationEvent
	.globl	HAL_TIMEx_ConfigCommutationEvent
	.p2align	2
	.type	HAL_TIMEx_ConfigCommutationEvent,%function
	.code	16                              @ @HAL_TIMEx_ConfigCommutationEvent
	.thumb_func
HAL_TIMEx_ConfigCommutationEvent:
.Lfunc_begin27:
	.loc	7 1459 0                        @ ../ThirdParty/STM32F4xx_HAL_Driver/Src/stm32f4xx_hal_tim_ex.c:1459:0
	.fnstart
	.cfi_startproc
@ %bb.0:
	.pad	#16
	sub	sp, #16
	.cfi_def_cfa_offset 16
	str	r0, [sp, #8]
	str	r1, [sp, #4]
	str	r2, [sp]
.Ltmp329:
	.loc	7 1464 3 prologue_end           @ ../ThirdParty/STM32F4xx_HAL_Driver/Src/stm32f4xx_hal_tim_ex.c:1464:3
	b	.LBB27_1
.LBB27_1:
.Ltmp330:
	.loc	7 1464 3 is_stmt 0              @ ../ThirdParty/STM32F4xx_HAL_Driver/Src/stm32f4xx_hal_tim_ex.c:1464:3
	ldr	r0, [sp, #8]
	ldrb.w	r0, [r0, #56]
.Ltmp331:
	.loc	7 1464 3                        @ ../ThirdParty/STM32F4xx_HAL_Driver/Src/stm32f4xx_hal_tim_ex.c:1464:3
	cmp	r0, #1
	bne	.LBB27_3
	b	.LBB27_2
.LBB27_2:
	.loc	7 0 3                           @ ../ThirdParty/STM32F4xx_HAL_Driver/Src/stm32f4xx_hal_tim_ex.c:0:3
	movs	r0, #2
.Ltmp332:
	.loc	7 1464 3                        @ ../ThirdParty/STM32F4xx_HAL_Driver/Src/stm32f4xx_hal_tim_ex.c:1464:3
	strb.w	r0, [sp, #15]
	b	.LBB27_13
.Ltmp333:
.LBB27_3:
	.loc	7 1464 3                        @ ../ThirdParty/STM32F4xx_HAL_Driver/Src/stm32f4xx_hal_tim_ex.c:1464:3
	ldr	r1, [sp, #8]
	movs	r0, #1
	strb.w	r0, [r1, #56]
	b	.LBB27_4
.Ltmp334:
.LBB27_4:
	.loc	7 1464 3                        @ ../ThirdParty/STM32F4xx_HAL_Driver/Src/stm32f4xx_hal_tim_ex.c:1464:3
	b	.LBB27_5
.Ltmp335:
.LBB27_5:
	.loc	7 1466 8 is_stmt 1              @ ../ThirdParty/STM32F4xx_HAL_Driver/Src/stm32f4xx_hal_tim_ex.c:1466:8
	ldr	r0, [sp, #4]
	.loc	7 1466 37 is_stmt 0             @ ../ThirdParty/STM32F4xx_HAL_Driver/Src/stm32f4xx_hal_tim_ex.c:1466:37
	cbz	r0, .LBB27_9
	b	.LBB27_6
.LBB27_6:
	.loc	7 1466 41                       @ ../ThirdParty/STM32F4xx_HAL_Driver/Src/stm32f4xx_hal_tim_ex.c:1466:41
	ldr	r0, [sp, #4]
	.loc	7 1466 70                       @ ../ThirdParty/STM32F4xx_HAL_Driver/Src/stm32f4xx_hal_tim_ex.c:1466:70
	cmp	r0, #16
	beq	.LBB27_9
	b	.LBB27_7
.LBB27_7:
	.loc	7 1467 8 is_stmt 1              @ ../ThirdParty/STM32F4xx_HAL_Driver/Src/stm32f4xx_hal_tim_ex.c:1467:8
	ldr	r0, [sp, #4]
	.loc	7 1467 37 is_stmt 0             @ ../ThirdParty/STM32F4xx_HAL_Driver/Src/stm32f4xx_hal_tim_ex.c:1467:37
	cmp	r0, #32
	beq	.LBB27_9
	b	.LBB27_8
.LBB27_8:
	.loc	7 1467 41                       @ ../ThirdParty/STM32F4xx_HAL_Driver/Src/stm32f4xx_hal_tim_ex.c:1467:41
	ldr	r0, [sp, #4]
.Ltmp336:
	.loc	7 1466 7 is_stmt 1              @ ../ThirdParty/STM32F4xx_HAL_Driver/Src/stm32f4xx_hal_tim_ex.c:1466:7
	cmp	r0, #48
	bne	.LBB27_10
	b	.LBB27_9
.LBB27_9:
.Ltmp337:
	.loc	7 1470 5                        @ ../ThirdParty/STM32F4xx_HAL_Driver/Src/stm32f4xx_hal_tim_ex.c:1470:5
	ldr	r0, [sp, #8]
	.loc	7 1470 11 is_stmt 0             @ ../ThirdParty/STM32F4xx_HAL_Driver/Src/stm32f4xx_hal_tim_ex.c:1470:11
	ldr	r1, [r0]
	.loc	7 1470 26                       @ ../ThirdParty/STM32F4xx_HAL_Driver/Src/stm32f4xx_hal_tim_ex.c:1470:26
	ldr	r0, [r1, #8]
	bic	r0, r0, #112
	str	r0, [r1, #8]
	.loc	7 1471 29 is_stmt 1             @ ../ThirdParty/STM32F4xx_HAL_Driver/Src/stm32f4xx_hal_tim_ex.c:1471:29
	ldr	r2, [sp, #4]
	.loc	7 1471 5 is_stmt 0              @ ../ThirdParty/STM32F4xx_HAL_Driver/Src/stm32f4xx_hal_tim_ex.c:1471:5
	ldr	r0, [sp, #8]
	.loc	7 1471 11                       @ ../ThirdParty/STM32F4xx_HAL_Driver/Src/stm32f4xx_hal_tim_ex.c:1471:11
	ldr	r1, [r0]
	.loc	7 1471 26                       @ ../ThirdParty/STM32F4xx_HAL_Driver/Src/stm32f4xx_hal_tim_ex.c:1471:26
	ldr	r0, [r1, #8]
	orrs	r0, r2
	str	r0, [r1, #8]
	.loc	7 1472 3 is_stmt 1              @ ../ThirdParty/STM32F4xx_HAL_Driver/Src/stm32f4xx_hal_tim_ex.c:1472:3
	b	.LBB27_10
.Ltmp338:
.LBB27_10:
	.loc	7 1475 3                        @ ../ThirdParty/STM32F4xx_HAL_Driver/Src/stm32f4xx_hal_tim_ex.c:1475:3
	ldr	r0, [sp, #8]
	.loc	7 1475 9 is_stmt 0              @ ../ThirdParty/STM32F4xx_HAL_Driver/Src/stm32f4xx_hal_tim_ex.c:1475:9
	ldr	r1, [r0]
	.loc	7 1475 23                       @ ../ThirdParty/STM32F4xx_HAL_Driver/Src/stm32f4xx_hal_tim_ex.c:1475:23
	ldr	r0, [r1, #4]
	orr	r0, r0, #1
	str	r0, [r1, #4]
	.loc	7 1477 3 is_stmt 1              @ ../ThirdParty/STM32F4xx_HAL_Driver/Src/stm32f4xx_hal_tim_ex.c:1477:3
	ldr	r0, [sp, #8]
	.loc	7 1477 9 is_stmt 0              @ ../ThirdParty/STM32F4xx_HAL_Driver/Src/stm32f4xx_hal_tim_ex.c:1477:9
	ldr	r1, [r0]
	.loc	7 1477 23                       @ ../ThirdParty/STM32F4xx_HAL_Driver/Src/stm32f4xx_hal_tim_ex.c:1477:23
	ldr	r0, [r1, #4]
	bic	r0, r0, #4
	str	r0, [r1, #4]
	.loc	7 1478 26 is_stmt 1             @ ../ThirdParty/STM32F4xx_HAL_Driver/Src/stm32f4xx_hal_tim_ex.c:1478:26
	ldr	r2, [sp]
	.loc	7 1478 3 is_stmt 0              @ ../ThirdParty/STM32F4xx_HAL_Driver/Src/stm32f4xx_hal_tim_ex.c:1478:3
	ldr	r0, [sp, #8]
	.loc	7 1478 9                        @ ../ThirdParty/STM32F4xx_HAL_Driver/Src/stm32f4xx_hal_tim_ex.c:1478:9
	ldr	r1, [r0]
	.loc	7 1478 23                       @ ../ThirdParty/STM32F4xx_HAL_Driver/Src/stm32f4xx_hal_tim_ex.c:1478:23
	ldr	r0, [r1, #4]
	orrs	r0, r2
	str	r0, [r1, #4]
	.loc	7 1480 3 is_stmt 1              @ ../ThirdParty/STM32F4xx_HAL_Driver/Src/stm32f4xx_hal_tim_ex.c:1480:3
	b	.LBB27_11
.LBB27_11:
.Ltmp339:
	.loc	7 1480 3 is_stmt 0              @ ../ThirdParty/STM32F4xx_HAL_Driver/Src/stm32f4xx_hal_tim_ex.c:1480:3
	ldr	r1, [sp, #8]
	movs	r0, #0
	strb.w	r0, [r1, #56]
	b	.LBB27_12
.Ltmp340:
.LBB27_12:
	.loc	7 0 3                           @ ../ThirdParty/STM32F4xx_HAL_Driver/Src/stm32f4xx_hal_tim_ex.c:0:3
	movs	r0, #0
	.loc	7 1482 3 is_stmt 1              @ ../ThirdParty/STM32F4xx_HAL_Driver/Src/stm32f4xx_hal_tim_ex.c:1482:3
	strb.w	r0, [sp, #15]
	b	.LBB27_13
.LBB27_13:
	.loc	7 1483 1                        @ ../ThirdParty/STM32F4xx_HAL_Driver/Src/stm32f4xx_hal_tim_ex.c:1483:1
	ldrb.w	r0, [sp, #15]
	.loc	7 1483 1 epilogue_begin is_stmt 0 @ ../ThirdParty/STM32F4xx_HAL_Driver/Src/stm32f4xx_hal_tim_ex.c:1483:1
	add	sp, #16
	bx	lr
.Ltmp341:
.Lfunc_end27:
	.size	HAL_TIMEx_ConfigCommutationEvent, .Lfunc_end27-HAL_TIMEx_ConfigCommutationEvent
	.cfi_endproc
	.cantunwind
	.fnend
                                        @ -- End function
	.section	.text.HAL_TIMEx_ConfigCommutationEvent_IT,"ax",%progbits
	.hidden	HAL_TIMEx_ConfigCommutationEvent_IT @ -- Begin function HAL_TIMEx_ConfigCommutationEvent_IT
	.globl	HAL_TIMEx_ConfigCommutationEvent_IT
	.p2align	2
	.type	HAL_TIMEx_ConfigCommutationEvent_IT,%function
	.code	16                              @ @HAL_TIMEx_ConfigCommutationEvent_IT
	.thumb_func
HAL_TIMEx_ConfigCommutationEvent_IT:
.Lfunc_begin28:
	.loc	7 1509 0 is_stmt 1              @ ../ThirdParty/STM32F4xx_HAL_Driver/Src/stm32f4xx_hal_tim_ex.c:1509:0
	.fnstart
	.cfi_startproc
@ %bb.0:
	.pad	#16
	sub	sp, #16
	.cfi_def_cfa_offset 16
	str	r0, [sp, #8]
	str	r1, [sp, #4]
	str	r2, [sp]
.Ltmp342:
	.loc	7 1514 3 prologue_end           @ ../ThirdParty/STM32F4xx_HAL_Driver/Src/stm32f4xx_hal_tim_ex.c:1514:3
	b	.LBB28_1
.LBB28_1:
.Ltmp343:
	.loc	7 1514 3 is_stmt 0              @ ../ThirdParty/STM32F4xx_HAL_Driver/Src/stm32f4xx_hal_tim_ex.c:1514:3
	ldr	r0, [sp, #8]
	ldrb.w	r0, [r0, #56]
.Ltmp344:
	.loc	7 1514 3                        @ ../ThirdParty/STM32F4xx_HAL_Driver/Src/stm32f4xx_hal_tim_ex.c:1514:3
	cmp	r0, #1
	bne	.LBB28_3
	b	.LBB28_2
.LBB28_2:
	.loc	7 0 3                           @ ../ThirdParty/STM32F4xx_HAL_Driver/Src/stm32f4xx_hal_tim_ex.c:0:3
	movs	r0, #2
.Ltmp345:
	.loc	7 1514 3                        @ ../ThirdParty/STM32F4xx_HAL_Driver/Src/stm32f4xx_hal_tim_ex.c:1514:3
	strb.w	r0, [sp, #15]
	b	.LBB28_13
.Ltmp346:
.LBB28_3:
	.loc	7 1514 3                        @ ../ThirdParty/STM32F4xx_HAL_Driver/Src/stm32f4xx_hal_tim_ex.c:1514:3
	ldr	r1, [sp, #8]
	movs	r0, #1
	strb.w	r0, [r1, #56]
	b	.LBB28_4
.Ltmp347:
.LBB28_4:
	.loc	7 1514 3                        @ ../ThirdParty/STM32F4xx_HAL_Driver/Src/stm32f4xx_hal_tim_ex.c:1514:3
	b	.LBB28_5
.Ltmp348:
.LBB28_5:
	.loc	7 1516 8 is_stmt 1              @ ../ThirdParty/STM32F4xx_HAL_Driver/Src/stm32f4xx_hal_tim_ex.c:1516:8
	ldr	r0, [sp, #4]
	.loc	7 1516 37 is_stmt 0             @ ../ThirdParty/STM32F4xx_HAL_Driver/Src/stm32f4xx_hal_tim_ex.c:1516:37
	cbz	r0, .LBB28_9
	b	.LBB28_6
.LBB28_6:
	.loc	7 1516 41                       @ ../ThirdParty/STM32F4xx_HAL_Driver/Src/stm32f4xx_hal_tim_ex.c:1516:41
	ldr	r0, [sp, #4]
	.loc	7 1516 70                       @ ../ThirdParty/STM32F4xx_HAL_Driver/Src/stm32f4xx_hal_tim_ex.c:1516:70
	cmp	r0, #16
	beq	.LBB28_9
	b	.LBB28_7
.LBB28_7:
	.loc	7 1517 8 is_stmt 1              @ ../ThirdParty/STM32F4xx_HAL_Driver/Src/stm32f4xx_hal_tim_ex.c:1517:8
	ldr	r0, [sp, #4]
	.loc	7 1517 37 is_stmt 0             @ ../ThirdParty/STM32F4xx_HAL_Driver/Src/stm32f4xx_hal_tim_ex.c:1517:37
	cmp	r0, #32
	beq	.LBB28_9
	b	.LBB28_8
.LBB28_8:
	.loc	7 1517 41                       @ ../ThirdParty/STM32F4xx_HAL_Driver/Src/stm32f4xx_hal_tim_ex.c:1517:41
	ldr	r0, [sp, #4]
.Ltmp349:
	.loc	7 1516 7 is_stmt 1              @ ../ThirdParty/STM32F4xx_HAL_Driver/Src/stm32f4xx_hal_tim_ex.c:1516:7
	cmp	r0, #48
	bne	.LBB28_10
	b	.LBB28_9
.LBB28_9:
.Ltmp350:
	.loc	7 1520 5                        @ ../ThirdParty/STM32F4xx_HAL_Driver/Src/stm32f4xx_hal_tim_ex.c:1520:5
	ldr	r0, [sp, #8]
	.loc	7 1520 11 is_stmt 0             @ ../ThirdParty/STM32F4xx_HAL_Driver/Src/stm32f4xx_hal_tim_ex.c:1520:11
	ldr	r1, [r0]
	.loc	7 1520 26                       @ ../ThirdParty/STM32F4xx_HAL_Driver/Src/stm32f4xx_hal_tim_ex.c:1520:26
	ldr	r0, [r1, #8]
	bic	r0, r0, #112
	str	r0, [r1, #8]
	.loc	7 1521 29 is_stmt 1             @ ../ThirdParty/STM32F4xx_HAL_Driver/Src/stm32f4xx_hal_tim_ex.c:1521:29
	ldr	r2, [sp, #4]
	.loc	7 1521 5 is_stmt 0              @ ../ThirdParty/STM32F4xx_HAL_Driver/Src/stm32f4xx_hal_tim_ex.c:1521:5
	ldr	r0, [sp, #8]
	.loc	7 1521 11                       @ ../ThirdParty/STM32F4xx_HAL_Driver/Src/stm32f4xx_hal_tim_ex.c:1521:11
	ldr	r1, [r0]
	.loc	7 1521 26                       @ ../ThirdParty/STM32F4xx_HAL_Driver/Src/stm32f4xx_hal_tim_ex.c:1521:26
	ldr	r0, [r1, #8]
	orrs	r0, r2
	str	r0, [r1, #8]
	.loc	7 1522 3 is_stmt 1              @ ../ThirdParty/STM32F4xx_HAL_Driver/Src/stm32f4xx_hal_tim_ex.c:1522:3
	b	.LBB28_10
.Ltmp351:
.LBB28_10:
	.loc	7 1525 3                        @ ../ThirdParty/STM32F4xx_HAL_Driver/Src/stm32f4xx_hal_tim_ex.c:1525:3
	ldr	r0, [sp, #8]
	.loc	7 1525 9 is_stmt 0              @ ../ThirdParty/STM32F4xx_HAL_Driver/Src/stm32f4xx_hal_tim_ex.c:1525:9
	ldr	r1, [r0]
	.loc	7 1525 23                       @ ../ThirdParty/STM32F4xx_HAL_Driver/Src/stm32f4xx_hal_tim_ex.c:1525:23
	ldr	r0, [r1, #4]
	orr	r0, r0, #1
	str	r0, [r1, #4]
	.loc	7 1527 3 is_stmt 1              @ ../ThirdParty/STM32F4xx_HAL_Driver/Src/stm32f4xx_hal_tim_ex.c:1527:3
	ldr	r0, [sp, #8]
	.loc	7 1527 9 is_stmt 0              @ ../ThirdParty/STM32F4xx_HAL_Driver/Src/stm32f4xx_hal_tim_ex.c:1527:9
	ldr	r1, [r0]
	.loc	7 1527 23                       @ ../ThirdParty/STM32F4xx_HAL_Driver/Src/stm32f4xx_hal_tim_ex.c:1527:23
	ldr	r0, [r1, #4]
	bic	r0, r0, #4
	str	r0, [r1, #4]
	.loc	7 1528 26 is_stmt 1             @ ../ThirdParty/STM32F4xx_HAL_Driver/Src/stm32f4xx_hal_tim_ex.c:1528:26
	ldr	r2, [sp]
	.loc	7 1528 3 is_stmt 0              @ ../ThirdParty/STM32F4xx_HAL_Driver/Src/stm32f4xx_hal_tim_ex.c:1528:3
	ldr	r0, [sp, #8]
	.loc	7 1528 9                        @ ../ThirdParty/STM32F4xx_HAL_Driver/Src/stm32f4xx_hal_tim_ex.c:1528:9
	ldr	r1, [r0]
	.loc	7 1528 23                       @ ../ThirdParty/STM32F4xx_HAL_Driver/Src/stm32f4xx_hal_tim_ex.c:1528:23
	ldr	r0, [r1, #4]
	orrs	r0, r2
	str	r0, [r1, #4]
	.loc	7 1531 3 is_stmt 1              @ ../ThirdParty/STM32F4xx_HAL_Driver/Src/stm32f4xx_hal_tim_ex.c:1531:3
	ldr	r0, [sp, #8]
	ldr	r1, [r0]
	ldr	r0, [r1, #12]
	orr	r0, r0, #32
	str	r0, [r1, #12]
	.loc	7 1533 3                        @ ../ThirdParty/STM32F4xx_HAL_Driver/Src/stm32f4xx_hal_tim_ex.c:1533:3
	b	.LBB28_11
.LBB28_11:
.Ltmp352:
	.loc	7 1533 3 is_stmt 0              @ ../ThirdParty/STM32F4xx_HAL_Driver/Src/stm32f4xx_hal_tim_ex.c:1533:3
	ldr	r1, [sp, #8]
	movs	r0, #0
	strb.w	r0, [r1, #56]
	b	.LBB28_12
.Ltmp353:
.LBB28_12:
	.loc	7 0 3                           @ ../ThirdParty/STM32F4xx_HAL_Driver/Src/stm32f4xx_hal_tim_ex.c:0:3
	movs	r0, #0
	.loc	7 1535 3 is_stmt 1              @ ../ThirdParty/STM32F4xx_HAL_Driver/Src/stm32f4xx_hal_tim_ex.c:1535:3
	strb.w	r0, [sp, #15]
	b	.LBB28_13
.LBB28_13:
	.loc	7 1536 1                        @ ../ThirdParty/STM32F4xx_HAL_Driver/Src/stm32f4xx_hal_tim_ex.c:1536:1
	ldrb.w	r0, [sp, #15]
	.loc	7 1536 1 epilogue_begin is_stmt 0 @ ../ThirdParty/STM32F4xx_HAL_Driver/Src/stm32f4xx_hal_tim_ex.c:1536:1
	add	sp, #16
	bx	lr
.Ltmp354:
.Lfunc_end28:
	.size	HAL_TIMEx_ConfigCommutationEvent_IT, .Lfunc_end28-HAL_TIMEx_ConfigCommutationEvent_IT
	.cfi_endproc
	.cantunwind
	.fnend
                                        @ -- End function
	.section	.text.HAL_TIMEx_ConfigCommutationEvent_DMA,"ax",%progbits
	.hidden	HAL_TIMEx_ConfigCommutationEvent_DMA @ -- Begin function HAL_TIMEx_ConfigCommutationEvent_DMA
	.globl	HAL_TIMEx_ConfigCommutationEvent_DMA
	.p2align	2
	.type	HAL_TIMEx_ConfigCommutationEvent_DMA,%function
	.code	16                              @ @HAL_TIMEx_ConfigCommutationEvent_DMA
	.thumb_func
HAL_TIMEx_ConfigCommutationEvent_DMA:
.Lfunc_begin29:
	.loc	7 1563 0 is_stmt 1              @ ../ThirdParty/STM32F4xx_HAL_Driver/Src/stm32f4xx_hal_tim_ex.c:1563:0
	.fnstart
	.cfi_startproc
@ %bb.0:
	.pad	#16
	sub	sp, #16
	.cfi_def_cfa_offset 16
	str	r0, [sp, #8]
	str	r1, [sp, #4]
	str	r2, [sp]
.Ltmp355:
	.loc	7 1568 3 prologue_end           @ ../ThirdParty/STM32F4xx_HAL_Driver/Src/stm32f4xx_hal_tim_ex.c:1568:3
	b	.LBB29_1
.LBB29_1:
.Ltmp356:
	.loc	7 1568 3 is_stmt 0              @ ../ThirdParty/STM32F4xx_HAL_Driver/Src/stm32f4xx_hal_tim_ex.c:1568:3
	ldr	r0, [sp, #8]
	ldrb.w	r0, [r0, #56]
.Ltmp357:
	.loc	7 1568 3                        @ ../ThirdParty/STM32F4xx_HAL_Driver/Src/stm32f4xx_hal_tim_ex.c:1568:3
	cmp	r0, #1
	bne	.LBB29_3
	b	.LBB29_2
.LBB29_2:
	.loc	7 0 3                           @ ../ThirdParty/STM32F4xx_HAL_Driver/Src/stm32f4xx_hal_tim_ex.c:0:3
	movs	r0, #2
.Ltmp358:
	.loc	7 1568 3                        @ ../ThirdParty/STM32F4xx_HAL_Driver/Src/stm32f4xx_hal_tim_ex.c:1568:3
	strb.w	r0, [sp, #15]
	b	.LBB29_13
.Ltmp359:
.LBB29_3:
	.loc	7 1568 3                        @ ../ThirdParty/STM32F4xx_HAL_Driver/Src/stm32f4xx_hal_tim_ex.c:1568:3
	ldr	r1, [sp, #8]
	movs	r0, #1
	strb.w	r0, [r1, #56]
	b	.LBB29_4
.Ltmp360:
.LBB29_4:
	.loc	7 1568 3                        @ ../ThirdParty/STM32F4xx_HAL_Driver/Src/stm32f4xx_hal_tim_ex.c:1568:3
	b	.LBB29_5
.Ltmp361:
.LBB29_5:
	.loc	7 1570 8 is_stmt 1              @ ../ThirdParty/STM32F4xx_HAL_Driver/Src/stm32f4xx_hal_tim_ex.c:1570:8
	ldr	r0, [sp, #4]
	.loc	7 1570 37 is_stmt 0             @ ../ThirdParty/STM32F4xx_HAL_Driver/Src/stm32f4xx_hal_tim_ex.c:1570:37
	cbz	r0, .LBB29_9
	b	.LBB29_6
.LBB29_6:
	.loc	7 1570 41                       @ ../ThirdParty/STM32F4xx_HAL_Driver/Src/stm32f4xx_hal_tim_ex.c:1570:41
	ldr	r0, [sp, #4]
	.loc	7 1570 70                       @ ../ThirdParty/STM32F4xx_HAL_Driver/Src/stm32f4xx_hal_tim_ex.c:1570:70
	cmp	r0, #16
	beq	.LBB29_9
	b	.LBB29_7
.LBB29_7:
	.loc	7 1571 8 is_stmt 1              @ ../ThirdParty/STM32F4xx_HAL_Driver/Src/stm32f4xx_hal_tim_ex.c:1571:8
	ldr	r0, [sp, #4]
	.loc	7 1571 37 is_stmt 0             @ ../ThirdParty/STM32F4xx_HAL_Driver/Src/stm32f4xx_hal_tim_ex.c:1571:37
	cmp	r0, #32
	beq	.LBB29_9
	b	.LBB29_8
.LBB29_8:
	.loc	7 1571 41                       @ ../ThirdParty/STM32F4xx_HAL_Driver/Src/stm32f4xx_hal_tim_ex.c:1571:41
	ldr	r0, [sp, #4]
.Ltmp362:
	.loc	7 1570 7 is_stmt 1              @ ../ThirdParty/STM32F4xx_HAL_Driver/Src/stm32f4xx_hal_tim_ex.c:1570:7
	cmp	r0, #48
	bne	.LBB29_10
	b	.LBB29_9
.LBB29_9:
.Ltmp363:
	.loc	7 1574 5                        @ ../ThirdParty/STM32F4xx_HAL_Driver/Src/stm32f4xx_hal_tim_ex.c:1574:5
	ldr	r0, [sp, #8]
	.loc	7 1574 11 is_stmt 0             @ ../ThirdParty/STM32F4xx_HAL_Driver/Src/stm32f4xx_hal_tim_ex.c:1574:11
	ldr	r1, [r0]
	.loc	7 1574 26                       @ ../ThirdParty/STM32F4xx_HAL_Driver/Src/stm32f4xx_hal_tim_ex.c:1574:26
	ldr	r0, [r1, #8]
	bic	r0, r0, #112
	str	r0, [r1, #8]
	.loc	7 1575 29 is_stmt 1             @ ../ThirdParty/STM32F4xx_HAL_Driver/Src/stm32f4xx_hal_tim_ex.c:1575:29
	ldr	r2, [sp, #4]
	.loc	7 1575 5 is_stmt 0              @ ../ThirdParty/STM32F4xx_HAL_Driver/Src/stm32f4xx_hal_tim_ex.c:1575:5
	ldr	r0, [sp, #8]
	.loc	7 1575 11                       @ ../ThirdParty/STM32F4xx_HAL_Driver/Src/stm32f4xx_hal_tim_ex.c:1575:11
	ldr	r1, [r0]
	.loc	7 1575 26                       @ ../ThirdParty/STM32F4xx_HAL_Driver/Src/stm32f4xx_hal_tim_ex.c:1575:26
	ldr	r0, [r1, #8]
	orrs	r0, r2
	str	r0, [r1, #8]
	.loc	7 1576 3 is_stmt 1              @ ../ThirdParty/STM32F4xx_HAL_Driver/Src/stm32f4xx_hal_tim_ex.c:1576:3
	b	.LBB29_10
.Ltmp364:
.LBB29_10:
	.loc	7 1579 3                        @ ../ThirdParty/STM32F4xx_HAL_Driver/Src/stm32f4xx_hal_tim_ex.c:1579:3
	ldr	r0, [sp, #8]
	.loc	7 1579 9 is_stmt 0              @ ../ThirdParty/STM32F4xx_HAL_Driver/Src/stm32f4xx_hal_tim_ex.c:1579:9
	ldr	r1, [r0]
	.loc	7 1579 23                       @ ../ThirdParty/STM32F4xx_HAL_Driver/Src/stm32f4xx_hal_tim_ex.c:1579:23
	ldr	r0, [r1, #4]
	orr	r0, r0, #1
	str	r0, [r1, #4]
	.loc	7 1581 3 is_stmt 1              @ ../ThirdParty/STM32F4xx_HAL_Driver/Src/stm32f4xx_hal_tim_ex.c:1581:3
	ldr	r0, [sp, #8]
	.loc	7 1581 9 is_stmt 0              @ ../ThirdParty/STM32F4xx_HAL_Driver/Src/stm32f4xx_hal_tim_ex.c:1581:9
	ldr	r1, [r0]
	.loc	7 1581 23                       @ ../ThirdParty/STM32F4xx_HAL_Driver/Src/stm32f4xx_hal_tim_ex.c:1581:23
	ldr	r0, [r1, #4]
	bic	r0, r0, #4
	str	r0, [r1, #4]
	.loc	7 1582 26 is_stmt 1             @ ../ThirdParty/STM32F4xx_HAL_Driver/Src/stm32f4xx_hal_tim_ex.c:1582:26
	ldr	r2, [sp]
	.loc	7 1582 3 is_stmt 0              @ ../ThirdParty/STM32F4xx_HAL_Driver/Src/stm32f4xx_hal_tim_ex.c:1582:3
	ldr	r0, [sp, #8]
	.loc	7 1582 9                        @ ../ThirdParty/STM32F4xx_HAL_Driver/Src/stm32f4xx_hal_tim_ex.c:1582:9
	ldr	r1, [r0]
	.loc	7 1582 23                       @ ../ThirdParty/STM32F4xx_HAL_Driver/Src/stm32f4xx_hal_tim_ex.c:1582:23
	ldr	r0, [r1, #4]
	orrs	r0, r2
	str	r0, [r1, #4]
	.loc	7 1586 3 is_stmt 1              @ ../ThirdParty/STM32F4xx_HAL_Driver/Src/stm32f4xx_hal_tim_ex.c:1586:3
	ldr	r0, [sp, #8]
	ldr	r1, [r0, #48]
	.loc	7 1586 56 is_stmt 0             @ ../ThirdParty/STM32F4xx_HAL_Driver/Src/stm32f4xx_hal_tim_ex.c:1586:56
	movw	r0, :lower16:TIMEx_DMACommutationCplt
	movt	r0, :upper16:TIMEx_DMACommutationCplt
	str	r0, [r1, #60]
	.loc	7 1588 3 is_stmt 1              @ ../ThirdParty/STM32F4xx_HAL_Driver/Src/stm32f4xx_hal_tim_ex.c:1588:3
	ldr	r0, [sp, #8]
	ldr	r1, [r0, #48]
	.loc	7 1588 57 is_stmt 0             @ ../ThirdParty/STM32F4xx_HAL_Driver/Src/stm32f4xx_hal_tim_ex.c:1588:57
	movw	r0, :lower16:TIM_DMAError
	movt	r0, :upper16:TIM_DMAError
	str	r0, [r1, #76]
	.loc	7 1591 3 is_stmt 1              @ ../ThirdParty/STM32F4xx_HAL_Driver/Src/stm32f4xx_hal_tim_ex.c:1591:3
	ldr	r0, [sp, #8]
	ldr	r1, [r0]
	ldr	r0, [r1, #12]
	orr	r0, r0, #8192
	str	r0, [r1, #12]
	.loc	7 1593 3                        @ ../ThirdParty/STM32F4xx_HAL_Driver/Src/stm32f4xx_hal_tim_ex.c:1593:3
	b	.LBB29_11
.LBB29_11:
.Ltmp365:
	.loc	7 1593 3 is_stmt 0              @ ../ThirdParty/STM32F4xx_HAL_Driver/Src/stm32f4xx_hal_tim_ex.c:1593:3
	ldr	r1, [sp, #8]
	movs	r0, #0
	strb.w	r0, [r1, #56]
	b	.LBB29_12
.Ltmp366:
.LBB29_12:
	.loc	7 0 3                           @ ../ThirdParty/STM32F4xx_HAL_Driver/Src/stm32f4xx_hal_tim_ex.c:0:3
	movs	r0, #0
	.loc	7 1595 3 is_stmt 1              @ ../ThirdParty/STM32F4xx_HAL_Driver/Src/stm32f4xx_hal_tim_ex.c:1595:3
	strb.w	r0, [sp, #15]
	b	.LBB29_13
.LBB29_13:
	.loc	7 1596 1                        @ ../ThirdParty/STM32F4xx_HAL_Driver/Src/stm32f4xx_hal_tim_ex.c:1596:1
	ldrb.w	r0, [sp, #15]
	.loc	7 1596 1 epilogue_begin is_stmt 0 @ ../ThirdParty/STM32F4xx_HAL_Driver/Src/stm32f4xx_hal_tim_ex.c:1596:1
	add	sp, #16
	bx	lr
.Ltmp367:
.Lfunc_end29:
	.size	HAL_TIMEx_ConfigCommutationEvent_DMA, .Lfunc_end29-HAL_TIMEx_ConfigCommutationEvent_DMA
	.cfi_endproc
	.cantunwind
	.fnend
                                        @ -- End function
	.section	.text.TIMEx_DMACommutationCplt,"ax",%progbits
	.hidden	TIMEx_DMACommutationCplt        @ -- Begin function TIMEx_DMACommutationCplt
	.globl	TIMEx_DMACommutationCplt
	.p2align	2
	.type	TIMEx_DMACommutationCplt,%function
	.code	16                              @ @TIMEx_DMACommutationCplt
	.thumb_func
TIMEx_DMACommutationCplt:
.Lfunc_begin30:
	.loc	7 1830 0 is_stmt 1              @ ../ThirdParty/STM32F4xx_HAL_Driver/Src/stm32f4xx_hal_tim_ex.c:1830:0
	.fnstart
	.cfi_startproc
@ %bb.0:
	.save	{r7, lr}
	push	{r7, lr}
	.cfi_def_cfa_offset 8
	.cfi_offset lr, -4
	.cfi_offset r7, -8
	.pad	#8
	sub	sp, #8
	.cfi_def_cfa_offset 16
	str	r0, [sp, #4]
.Ltmp368:
	.loc	7 1831 73 prologue_end          @ ../ThirdParty/STM32F4xx_HAL_Driver/Src/stm32f4xx_hal_tim_ex.c:1831:73
	ldr	r0, [sp, #4]
	.loc	7 1831 80 is_stmt 0             @ ../ThirdParty/STM32F4xx_HAL_Driver/Src/stm32f4xx_hal_tim_ex.c:1831:80
	ldr	r0, [r0, #56]
	.loc	7 1831 22                       @ ../ThirdParty/STM32F4xx_HAL_Driver/Src/stm32f4xx_hal_tim_ex.c:1831:22
	str	r0, [sp]
	.loc	7 1833 3 is_stmt 1              @ ../ThirdParty/STM32F4xx_HAL_Driver/Src/stm32f4xx_hal_tim_ex.c:1833:3
	ldr	r1, [sp]
	movs	r0, #1
	.loc	7 1833 14 is_stmt 0             @ ../ThirdParty/STM32F4xx_HAL_Driver/Src/stm32f4xx_hal_tim_ex.c:1833:14
	strb.w	r0, [r1, #57]
	.loc	7 1835 33 is_stmt 1             @ ../ThirdParty/STM32F4xx_HAL_Driver/Src/stm32f4xx_hal_tim_ex.c:1835:33
	ldr	r0, [sp]
	.loc	7 1835 3 is_stmt 0              @ ../ThirdParty/STM32F4xx_HAL_Driver/Src/stm32f4xx_hal_tim_ex.c:1835:3
	bl	HAL_TIMEx_CommutationCallback
	.loc	7 1836 1 epilogue_begin is_stmt 1 @ ../ThirdParty/STM32F4xx_HAL_Driver/Src/stm32f4xx_hal_tim_ex.c:1836:1
	add	sp, #8
	pop	{r7, pc}
.Ltmp369:
.Lfunc_end30:
	.size	TIMEx_DMACommutationCplt, .Lfunc_end30-TIMEx_DMACommutationCplt
	.cfi_endproc
	.cantunwind
	.fnend
                                        @ -- End function
	.section	.text.HAL_TIMEx_MasterConfigSynchronization,"ax",%progbits
	.hidden	HAL_TIMEx_MasterConfigSynchronization @ -- Begin function HAL_TIMEx_MasterConfigSynchronization
	.globl	HAL_TIMEx_MasterConfigSynchronization
	.p2align	2
	.type	HAL_TIMEx_MasterConfigSynchronization,%function
	.code	16                              @ @HAL_TIMEx_MasterConfigSynchronization
	.thumb_func
HAL_TIMEx_MasterConfigSynchronization:
.Lfunc_begin31:
	.loc	7 1608 0                        @ ../ThirdParty/STM32F4xx_HAL_Driver/Src/stm32f4xx_hal_tim_ex.c:1608:0
	.fnstart
	.cfi_startproc
@ %bb.0:
	.pad	#12
	sub	sp, #12
	.cfi_def_cfa_offset 12
	str	r0, [sp, #4]
	str	r1, [sp]
.Ltmp370:
	.loc	7 1614 3 prologue_end           @ ../ThirdParty/STM32F4xx_HAL_Driver/Src/stm32f4xx_hal_tim_ex.c:1614:3
	b	.LBB31_1
.LBB31_1:
.Ltmp371:
	.loc	7 1614 3 is_stmt 0              @ ../ThirdParty/STM32F4xx_HAL_Driver/Src/stm32f4xx_hal_tim_ex.c:1614:3
	ldr	r0, [sp, #4]
	ldrb.w	r0, [r0, #56]
.Ltmp372:
	.loc	7 1614 3                        @ ../ThirdParty/STM32F4xx_HAL_Driver/Src/stm32f4xx_hal_tim_ex.c:1614:3
	cmp	r0, #1
	bne	.LBB31_3
	b	.LBB31_2
.LBB31_2:
	.loc	7 0 3                           @ ../ThirdParty/STM32F4xx_HAL_Driver/Src/stm32f4xx_hal_tim_ex.c:0:3
	movs	r0, #2
.Ltmp373:
	.loc	7 1614 3                        @ ../ThirdParty/STM32F4xx_HAL_Driver/Src/stm32f4xx_hal_tim_ex.c:1614:3
	strb.w	r0, [sp, #11]
	b	.LBB31_8
.Ltmp374:
.LBB31_3:
	.loc	7 1614 3                        @ ../ThirdParty/STM32F4xx_HAL_Driver/Src/stm32f4xx_hal_tim_ex.c:1614:3
	ldr	r1, [sp, #4]
	movs	r0, #1
	strb.w	r0, [r1, #56]
	b	.LBB31_4
.Ltmp375:
.LBB31_4:
	.loc	7 1614 3                        @ ../ThirdParty/STM32F4xx_HAL_Driver/Src/stm32f4xx_hal_tim_ex.c:1614:3
	b	.LBB31_5
.Ltmp376:
.LBB31_5:
	.loc	7 1616 3 is_stmt 1              @ ../ThirdParty/STM32F4xx_HAL_Driver/Src/stm32f4xx_hal_tim_ex.c:1616:3
	ldr	r1, [sp, #4]
	movs	r0, #2
	.loc	7 1616 15 is_stmt 0             @ ../ThirdParty/STM32F4xx_HAL_Driver/Src/stm32f4xx_hal_tim_ex.c:1616:15
	strb.w	r0, [r1, #57]
	.loc	7 1619 3 is_stmt 1              @ ../ThirdParty/STM32F4xx_HAL_Driver/Src/stm32f4xx_hal_tim_ex.c:1619:3
	ldr	r0, [sp, #4]
	.loc	7 1619 9 is_stmt 0              @ ../ThirdParty/STM32F4xx_HAL_Driver/Src/stm32f4xx_hal_tim_ex.c:1619:9
	ldr	r1, [r0]
	.loc	7 1619 23                       @ ../ThirdParty/STM32F4xx_HAL_Driver/Src/stm32f4xx_hal_tim_ex.c:1619:23
	ldr	r0, [r1, #4]
	bic	r0, r0, #112
	str	r0, [r1, #4]
	.loc	7 1621 26 is_stmt 1             @ ../ThirdParty/STM32F4xx_HAL_Driver/Src/stm32f4xx_hal_tim_ex.c:1621:26
	ldr	r0, [sp]
	.loc	7 1621 41 is_stmt 0             @ ../ThirdParty/STM32F4xx_HAL_Driver/Src/stm32f4xx_hal_tim_ex.c:1621:41
	ldr	r2, [r0]
	.loc	7 1621 3                        @ ../ThirdParty/STM32F4xx_HAL_Driver/Src/stm32f4xx_hal_tim_ex.c:1621:3
	ldr	r0, [sp, #4]
	.loc	7 1621 9                        @ ../ThirdParty/STM32F4xx_HAL_Driver/Src/stm32f4xx_hal_tim_ex.c:1621:9
	ldr	r1, [r0]
	.loc	7 1621 23                       @ ../ThirdParty/STM32F4xx_HAL_Driver/Src/stm32f4xx_hal_tim_ex.c:1621:23
	ldr	r0, [r1, #4]
	orrs	r0, r2
	str	r0, [r1, #4]
	.loc	7 1624 3 is_stmt 1              @ ../ThirdParty/STM32F4xx_HAL_Driver/Src/stm32f4xx_hal_tim_ex.c:1624:3
	ldr	r0, [sp, #4]
	.loc	7 1624 9 is_stmt 0              @ ../ThirdParty/STM32F4xx_HAL_Driver/Src/stm32f4xx_hal_tim_ex.c:1624:9
	ldr	r1, [r0]
	.loc	7 1624 24                       @ ../ThirdParty/STM32F4xx_HAL_Driver/Src/stm32f4xx_hal_tim_ex.c:1624:24
	ldr	r0, [r1, #8]
	bic	r0, r0, #128
	str	r0, [r1, #8]
	.loc	7 1626 27 is_stmt 1             @ ../ThirdParty/STM32F4xx_HAL_Driver/Src/stm32f4xx_hal_tim_ex.c:1626:27
	ldr	r0, [sp]
	.loc	7 1626 42 is_stmt 0             @ ../ThirdParty/STM32F4xx_HAL_Driver/Src/stm32f4xx_hal_tim_ex.c:1626:42
	ldr	r2, [r0, #4]
	.loc	7 1626 3                        @ ../ThirdParty/STM32F4xx_HAL_Driver/Src/stm32f4xx_hal_tim_ex.c:1626:3
	ldr	r0, [sp, #4]
	.loc	7 1626 9                        @ ../ThirdParty/STM32F4xx_HAL_Driver/Src/stm32f4xx_hal_tim_ex.c:1626:9
	ldr	r1, [r0]
	.loc	7 1626 24                       @ ../ThirdParty/STM32F4xx_HAL_Driver/Src/stm32f4xx_hal_tim_ex.c:1626:24
	ldr	r0, [r1, #8]
	orrs	r0, r2
	str	r0, [r1, #8]
	.loc	7 1628 3 is_stmt 1              @ ../ThirdParty/STM32F4xx_HAL_Driver/Src/stm32f4xx_hal_tim_ex.c:1628:3
	ldr	r1, [sp, #4]
	movs	r0, #1
	.loc	7 1628 15 is_stmt 0             @ ../ThirdParty/STM32F4xx_HAL_Driver/Src/stm32f4xx_hal_tim_ex.c:1628:15
	strb.w	r0, [r1, #57]
	.loc	7 1630 3 is_stmt 1              @ ../ThirdParty/STM32F4xx_HAL_Driver/Src/stm32f4xx_hal_tim_ex.c:1630:3
	b	.LBB31_6
.LBB31_6:
.Ltmp377:
	.loc	7 1630 3 is_stmt 0              @ ../ThirdParty/STM32F4xx_HAL_Driver/Src/stm32f4xx_hal_tim_ex.c:1630:3
	ldr	r1, [sp, #4]
	movs	r0, #0
	strb.w	r0, [r1, #56]
	b	.LBB31_7
.Ltmp378:
.LBB31_7:
	.loc	7 0 3                           @ ../ThirdParty/STM32F4xx_HAL_Driver/Src/stm32f4xx_hal_tim_ex.c:0:3
	movs	r0, #0
	.loc	7 1632 3 is_stmt 1              @ ../ThirdParty/STM32F4xx_HAL_Driver/Src/stm32f4xx_hal_tim_ex.c:1632:3
	strb.w	r0, [sp, #11]
	b	.LBB31_8
.LBB31_8:
	.loc	7 1633 1                        @ ../ThirdParty/STM32F4xx_HAL_Driver/Src/stm32f4xx_hal_tim_ex.c:1633:1
	ldrb.w	r0, [sp, #11]
	.loc	7 1633 1 epilogue_begin is_stmt 0 @ ../ThirdParty/STM32F4xx_HAL_Driver/Src/stm32f4xx_hal_tim_ex.c:1633:1
	add	sp, #12
	bx	lr
.Ltmp379:
.Lfunc_end31:
	.size	HAL_TIMEx_MasterConfigSynchronization, .Lfunc_end31-HAL_TIMEx_MasterConfigSynchronization
	.cfi_endproc
	.cantunwind
	.fnend
                                        @ -- End function
	.section	.text.HAL_TIMEx_ConfigBreakDeadTime,"ax",%progbits
	.hidden	HAL_TIMEx_ConfigBreakDeadTime   @ -- Begin function HAL_TIMEx_ConfigBreakDeadTime
	.globl	HAL_TIMEx_ConfigBreakDeadTime
	.p2align	2
	.type	HAL_TIMEx_ConfigBreakDeadTime,%function
	.code	16                              @ @HAL_TIMEx_ConfigBreakDeadTime
	.thumb_func
HAL_TIMEx_ConfigBreakDeadTime:
.Lfunc_begin32:
	.loc	7 1646 0 is_stmt 1              @ ../ThirdParty/STM32F4xx_HAL_Driver/Src/stm32f4xx_hal_tim_ex.c:1646:0
	.fnstart
	.cfi_startproc
@ %bb.0:
	.pad	#16
	sub	sp, #16
	.cfi_def_cfa_offset 16
	str	r0, [sp, #8]
	str	r1, [sp, #4]
	movs	r0, #0
.Ltmp380:
	.loc	7 1647 12 prologue_end          @ ../ThirdParty/STM32F4xx_HAL_Driver/Src/stm32f4xx_hal_tim_ex.c:1647:12
	str	r0, [sp]
	.loc	7 1660 3                        @ ../ThirdParty/STM32F4xx_HAL_Driver/Src/stm32f4xx_hal_tim_ex.c:1660:3
	b	.LBB32_1
.LBB32_1:
.Ltmp381:
	.loc	7 1660 3 is_stmt 0              @ ../ThirdParty/STM32F4xx_HAL_Driver/Src/stm32f4xx_hal_tim_ex.c:1660:3
	ldr	r0, [sp, #8]
	ldrb.w	r0, [r0, #56]
.Ltmp382:
	.loc	7 1660 3                        @ ../ThirdParty/STM32F4xx_HAL_Driver/Src/stm32f4xx_hal_tim_ex.c:1660:3
	cmp	r0, #1
	bne	.LBB32_3
	b	.LBB32_2
.LBB32_2:
	.loc	7 0 3                           @ ../ThirdParty/STM32F4xx_HAL_Driver/Src/stm32f4xx_hal_tim_ex.c:0:3
	movs	r0, #2
.Ltmp383:
	.loc	7 1660 3                        @ ../ThirdParty/STM32F4xx_HAL_Driver/Src/stm32f4xx_hal_tim_ex.c:1660:3
	strb.w	r0, [sp, #15]
	b	.LBB32_8
.Ltmp384:
.LBB32_3:
	.loc	7 1660 3                        @ ../ThirdParty/STM32F4xx_HAL_Driver/Src/stm32f4xx_hal_tim_ex.c:1660:3
	ldr	r1, [sp, #8]
	movs	r0, #1
	strb.w	r0, [r1, #56]
	b	.LBB32_4
.Ltmp385:
.LBB32_4:
	.loc	7 1660 3                        @ ../ThirdParty/STM32F4xx_HAL_Driver/Src/stm32f4xx_hal_tim_ex.c:1660:3
	b	.LBB32_5
.Ltmp386:
.LBB32_5:
	.loc	7 1666 3 is_stmt 1              @ ../ThirdParty/STM32F4xx_HAL_Driver/Src/stm32f4xx_hal_tim_ex.c:1666:3
	ldr	r0, [sp]
	bic	r0, r0, #255
	ldr	r1, [sp, #4]
	ldr	r1, [r1, #12]
	orrs	r0, r1
	str	r0, [sp]
	.loc	7 1667 3                        @ ../ThirdParty/STM32F4xx_HAL_Driver/Src/stm32f4xx_hal_tim_ex.c:1667:3
	ldr	r0, [sp]
	bic	r0, r0, #768
	ldr	r1, [sp, #4]
	ldr	r1, [r1, #8]
	orrs	r0, r1
	str	r0, [sp]
	.loc	7 1668 3                        @ ../ThirdParty/STM32F4xx_HAL_Driver/Src/stm32f4xx_hal_tim_ex.c:1668:3
	ldr	r0, [sp]
	bic	r0, r0, #1024
	ldr	r1, [sp, #4]
	ldr	r1, [r1, #4]
	orrs	r0, r1
	str	r0, [sp]
	.loc	7 1669 3                        @ ../ThirdParty/STM32F4xx_HAL_Driver/Src/stm32f4xx_hal_tim_ex.c:1669:3
	ldr	r0, [sp]
	bic	r0, r0, #2048
	ldr	r1, [sp, #4]
	ldr	r1, [r1]
	orrs	r0, r1
	str	r0, [sp]
	.loc	7 1670 3                        @ ../ThirdParty/STM32F4xx_HAL_Driver/Src/stm32f4xx_hal_tim_ex.c:1670:3
	ldr	r0, [sp]
	bic	r0, r0, #4096
	ldr	r1, [sp, #4]
	ldr	r1, [r1, #16]
	orrs	r0, r1
	str	r0, [sp]
	.loc	7 1671 3                        @ ../ThirdParty/STM32F4xx_HAL_Driver/Src/stm32f4xx_hal_tim_ex.c:1671:3
	ldr	r0, [sp]
	bic	r0, r0, #8192
	ldr	r1, [sp, #4]
	ldr	r1, [r1, #20]
	orrs	r0, r1
	str	r0, [sp]
	.loc	7 1672 3                        @ ../ThirdParty/STM32F4xx_HAL_Driver/Src/stm32f4xx_hal_tim_ex.c:1672:3
	ldr	r0, [sp]
	bic	r0, r0, #16384
	ldr	r1, [sp, #4]
	ldr	r1, [r1, #24]
	orrs	r0, r1
	str	r0, [sp]
	.loc	7 1673 3                        @ ../ThirdParty/STM32F4xx_HAL_Driver/Src/stm32f4xx_hal_tim_ex.c:1673:3
	ldr	r0, [sp]
	bic	r0, r0, #32768
	ldr	r1, [sp, #4]
	ldr	r1, [r1, #24]
	orrs	r0, r1
	str	r0, [sp]
	.loc	7 1676 26                       @ ../ThirdParty/STM32F4xx_HAL_Driver/Src/stm32f4xx_hal_tim_ex.c:1676:26
	ldr	r0, [sp]
	.loc	7 1676 3 is_stmt 0              @ ../ThirdParty/STM32F4xx_HAL_Driver/Src/stm32f4xx_hal_tim_ex.c:1676:3
	ldr	r1, [sp, #8]
	.loc	7 1676 9                        @ ../ThirdParty/STM32F4xx_HAL_Driver/Src/stm32f4xx_hal_tim_ex.c:1676:9
	ldr	r1, [r1]
	.loc	7 1676 24                       @ ../ThirdParty/STM32F4xx_HAL_Driver/Src/stm32f4xx_hal_tim_ex.c:1676:24
	str	r0, [r1, #68]
	.loc	7 1678 3 is_stmt 1              @ ../ThirdParty/STM32F4xx_HAL_Driver/Src/stm32f4xx_hal_tim_ex.c:1678:3
	b	.LBB32_6
.LBB32_6:
.Ltmp387:
	.loc	7 1678 3 is_stmt 0              @ ../ThirdParty/STM32F4xx_HAL_Driver/Src/stm32f4xx_hal_tim_ex.c:1678:3
	ldr	r1, [sp, #8]
	movs	r0, #0
	strb.w	r0, [r1, #56]
	b	.LBB32_7
.Ltmp388:
.LBB32_7:
	.loc	7 0 3                           @ ../ThirdParty/STM32F4xx_HAL_Driver/Src/stm32f4xx_hal_tim_ex.c:0:3
	movs	r0, #0
	.loc	7 1680 3 is_stmt 1              @ ../ThirdParty/STM32F4xx_HAL_Driver/Src/stm32f4xx_hal_tim_ex.c:1680:3
	strb.w	r0, [sp, #15]
	b	.LBB32_8
.LBB32_8:
	.loc	7 1681 1                        @ ../ThirdParty/STM32F4xx_HAL_Driver/Src/stm32f4xx_hal_tim_ex.c:1681:1
	ldrb.w	r0, [sp, #15]
	.loc	7 1681 1 epilogue_begin is_stmt 0 @ ../ThirdParty/STM32F4xx_HAL_Driver/Src/stm32f4xx_hal_tim_ex.c:1681:1
	add	sp, #16
	bx	lr
.Ltmp389:
.Lfunc_end32:
	.size	HAL_TIMEx_ConfigBreakDeadTime, .Lfunc_end32-HAL_TIMEx_ConfigBreakDeadTime
	.cfi_endproc
	.cantunwind
	.fnend
                                        @ -- End function
	.section	.text.HAL_TIMEx_RemapConfig,"ax",%progbits
	.hidden	HAL_TIMEx_RemapConfig           @ -- Begin function HAL_TIMEx_RemapConfig
	.globl	HAL_TIMEx_RemapConfig
	.p2align	2
	.type	HAL_TIMEx_RemapConfig,%function
	.code	16                              @ @HAL_TIMEx_RemapConfig
	.thumb_func
HAL_TIMEx_RemapConfig:
.Lfunc_begin33:
	.loc	7 1709 0 is_stmt 1              @ ../ThirdParty/STM32F4xx_HAL_Driver/Src/stm32f4xx_hal_tim_ex.c:1709:0
	.fnstart
	.cfi_startproc
@ %bb.0:
	.pad	#12
	sub	sp, #12
	.cfi_def_cfa_offset 12
	str	r0, [sp, #4]
	str	r1, [sp]
.Ltmp390:
	.loc	7 1710 3 prologue_end           @ ../ThirdParty/STM32F4xx_HAL_Driver/Src/stm32f4xx_hal_tim_ex.c:1710:3
	b	.LBB33_1
.LBB33_1:
.Ltmp391:
	.loc	7 1710 3 is_stmt 0              @ ../ThirdParty/STM32F4xx_HAL_Driver/Src/stm32f4xx_hal_tim_ex.c:1710:3
	ldr	r0, [sp, #4]
	ldrb.w	r0, [r0, #56]
.Ltmp392:
	.loc	7 1710 3                        @ ../ThirdParty/STM32F4xx_HAL_Driver/Src/stm32f4xx_hal_tim_ex.c:1710:3
	cmp	r0, #1
	bne	.LBB33_3
	b	.LBB33_2
.LBB33_2:
	.loc	7 0 3                           @ ../ThirdParty/STM32F4xx_HAL_Driver/Src/stm32f4xx_hal_tim_ex.c:0:3
	movs	r0, #2
.Ltmp393:
	.loc	7 1710 3                        @ ../ThirdParty/STM32F4xx_HAL_Driver/Src/stm32f4xx_hal_tim_ex.c:1710:3
	strb.w	r0, [sp, #11]
	b	.LBB33_8
.Ltmp394:
.LBB33_3:
	.loc	7 1710 3                        @ ../ThirdParty/STM32F4xx_HAL_Driver/Src/stm32f4xx_hal_tim_ex.c:1710:3
	ldr	r1, [sp, #4]
	movs	r0, #1
	strb.w	r0, [r1, #56]
	b	.LBB33_4
.Ltmp395:
.LBB33_4:
	.loc	7 1710 3                        @ ../ThirdParty/STM32F4xx_HAL_Driver/Src/stm32f4xx_hal_tim_ex.c:1710:3
	b	.LBB33_5
.Ltmp396:
.LBB33_5:
	.loc	7 1731 24 is_stmt 1             @ ../ThirdParty/STM32F4xx_HAL_Driver/Src/stm32f4xx_hal_tim_ex.c:1731:24
	ldr	r0, [sp]
	.loc	7 1731 3 is_stmt 0              @ ../ThirdParty/STM32F4xx_HAL_Driver/Src/stm32f4xx_hal_tim_ex.c:1731:3
	ldr	r1, [sp, #4]
	.loc	7 1731 9                        @ ../ThirdParty/STM32F4xx_HAL_Driver/Src/stm32f4xx_hal_tim_ex.c:1731:9
	ldr	r1, [r1]
	.loc	7 1731 22                       @ ../ThirdParty/STM32F4xx_HAL_Driver/Src/stm32f4xx_hal_tim_ex.c:1731:22
	str	r0, [r1, #80]
	.loc	7 1733 3 is_stmt 1              @ ../ThirdParty/STM32F4xx_HAL_Driver/Src/stm32f4xx_hal_tim_ex.c:1733:3
	ldr	r1, [sp, #4]
	movs	r0, #1
	.loc	7 1733 15 is_stmt 0             @ ../ThirdParty/STM32F4xx_HAL_Driver/Src/stm32f4xx_hal_tim_ex.c:1733:15
	strb.w	r0, [r1, #57]
	.loc	7 1735 3 is_stmt 1              @ ../ThirdParty/STM32F4xx_HAL_Driver/Src/stm32f4xx_hal_tim_ex.c:1735:3
	b	.LBB33_6
.LBB33_6:
.Ltmp397:
	.loc	7 1735 3 is_stmt 0              @ ../ThirdParty/STM32F4xx_HAL_Driver/Src/stm32f4xx_hal_tim_ex.c:1735:3
	ldr	r1, [sp, #4]
	movs	r0, #0
	strb.w	r0, [r1, #56]
	b	.LBB33_7
.Ltmp398:
.LBB33_7:
	.loc	7 0 3                           @ ../ThirdParty/STM32F4xx_HAL_Driver/Src/stm32f4xx_hal_tim_ex.c:0:3
	movs	r0, #0
	.loc	7 1737 3 is_stmt 1              @ ../ThirdParty/STM32F4xx_HAL_Driver/Src/stm32f4xx_hal_tim_ex.c:1737:3
	strb.w	r0, [sp, #11]
	b	.LBB33_8
.LBB33_8:
	.loc	7 1738 1                        @ ../ThirdParty/STM32F4xx_HAL_Driver/Src/stm32f4xx_hal_tim_ex.c:1738:1
	ldrb.w	r0, [sp, #11]
	.loc	7 1738 1 epilogue_begin is_stmt 0 @ ../ThirdParty/STM32F4xx_HAL_Driver/Src/stm32f4xx_hal_tim_ex.c:1738:1
	add	sp, #12
	bx	lr
.Ltmp399:
.Lfunc_end33:
	.size	HAL_TIMEx_RemapConfig, .Lfunc_end33-HAL_TIMEx_RemapConfig
	.cfi_endproc
	.cantunwind
	.fnend
                                        @ -- End function
	.section	.text.HAL_TIMEx_CommutationCallback,"ax",%progbits
	.hidden	HAL_TIMEx_CommutationCallback   @ -- Begin function HAL_TIMEx_CommutationCallback
	.weak	HAL_TIMEx_CommutationCallback
	.p2align	2
	.type	HAL_TIMEx_CommutationCallback,%function
	.code	16                              @ @HAL_TIMEx_CommutationCallback
	.thumb_func
HAL_TIMEx_CommutationCallback:
.Lfunc_begin34:
	.loc	7 1767 0 is_stmt 1              @ ../ThirdParty/STM32F4xx_HAL_Driver/Src/stm32f4xx_hal_tim_ex.c:1767:0
	.fnstart
	.cfi_startproc
@ %bb.0:
	.pad	#4
	sub	sp, #4
	.cfi_def_cfa_offset 4
	str	r0, [sp]
.Ltmp400:
	.loc	7 1773 1 prologue_end epilogue_begin @ ../ThirdParty/STM32F4xx_HAL_Driver/Src/stm32f4xx_hal_tim_ex.c:1773:1
	add	sp, #4
	bx	lr
.Ltmp401:
.Lfunc_end34:
	.size	HAL_TIMEx_CommutationCallback, .Lfunc_end34-HAL_TIMEx_CommutationCallback
	.cfi_endproc
	.cantunwind
	.fnend
                                        @ -- End function
	.section	.text.HAL_TIMEx_BreakCallback,"ax",%progbits
	.hidden	HAL_TIMEx_BreakCallback         @ -- Begin function HAL_TIMEx_BreakCallback
	.weak	HAL_TIMEx_BreakCallback
	.p2align	2
	.type	HAL_TIMEx_BreakCallback,%function
	.code	16                              @ @HAL_TIMEx_BreakCallback
	.thumb_func
HAL_TIMEx_BreakCallback:
.Lfunc_begin35:
	.loc	7 1782 0                        @ ../ThirdParty/STM32F4xx_HAL_Driver/Src/stm32f4xx_hal_tim_ex.c:1782:0
	.fnstart
	.cfi_startproc
@ %bb.0:
	.pad	#4
	sub	sp, #4
	.cfi_def_cfa_offset 4
	str	r0, [sp]
.Ltmp402:
	.loc	7 1788 1 prologue_end epilogue_begin @ ../ThirdParty/STM32F4xx_HAL_Driver/Src/stm32f4xx_hal_tim_ex.c:1788:1
	add	sp, #4
	bx	lr
.Ltmp403:
.Lfunc_end35:
	.size	HAL_TIMEx_BreakCallback, .Lfunc_end35-HAL_TIMEx_BreakCallback
	.cfi_endproc
	.cantunwind
	.fnend
                                        @ -- End function
	.section	.text.HAL_TIMEx_HallSensor_GetState,"ax",%progbits
	.hidden	HAL_TIMEx_HallSensor_GetState   @ -- Begin function HAL_TIMEx_HallSensor_GetState
	.globl	HAL_TIMEx_HallSensor_GetState
	.p2align	2
	.type	HAL_TIMEx_HallSensor_GetState,%function
	.code	16                              @ @HAL_TIMEx_HallSensor_GetState
	.thumb_func
HAL_TIMEx_HallSensor_GetState:
.Lfunc_begin36:
	.loc	7 1815 0                        @ ../ThirdParty/STM32F4xx_HAL_Driver/Src/stm32f4xx_hal_tim_ex.c:1815:0
	.fnstart
	.cfi_startproc
@ %bb.0:
	.pad	#4
	sub	sp, #4
	.cfi_def_cfa_offset 4
	str	r0, [sp]
.Ltmp404:
	.loc	7 1816 10 prologue_end          @ ../ThirdParty/STM32F4xx_HAL_Driver/Src/stm32f4xx_hal_tim_ex.c:1816:10
	ldr	r0, [sp]
	.loc	7 1816 16 is_stmt 0             @ ../ThirdParty/STM32F4xx_HAL_Driver/Src/stm32f4xx_hal_tim_ex.c:1816:16
	ldrb.w	r0, [r0, #57]
	.loc	7 1816 3 epilogue_begin         @ ../ThirdParty/STM32F4xx_HAL_Driver/Src/stm32f4xx_hal_tim_ex.c:1816:3
	add	sp, #4
	bx	lr
.Ltmp405:
.Lfunc_end36:
	.size	HAL_TIMEx_HallSensor_GetState, .Lfunc_end36-HAL_TIMEx_HallSensor_GetState
	.cfi_endproc
	.cantunwind
	.fnend
                                        @ -- End function
	.file	8 "D:\\ikingtec\\Robot\\ODrive\\Firmware\\MDK-ARM" "../ThirdParty/STM32F4xx_HAL_Driver/Inc/stm32f4xx_hal_tim_ex.h"
	.section	".note.GNU-stack","",%progbits
	.eabi_attribute	30, 6	@ Tag_ABI_optimization_goals
	.ARM_attribute	16, 1	@ Tag_AV_eba