	.text
	.syntax unified
	.eabi_attribute	67, "2.09"	@ Tag_conformance
	.cpu	cortex-m4
	.eabi_attribute	6, 13	@ Tag_CPU_arch
	.eabi_attribute	7, 77	@ Tag_CPU_arch_profile
	.eabi_attribute	8, 0	@ Tag_ARM_ISA_use
	.eabi_attribute	9, 2	@ Tag_THUMB_ISA_use
	.fpu	fpv4-sp-d16
	.eabi_attribute	27, 1	@ Tag_ABI_HardFP_use
	.eabi_attribute	36, 1	@ Tag_FP_HP_extension
	.eabi_attribute	34, 1	@ Tag_CPU_unaligned_access
	.eabi_attribute	17, 1	@ Tag_ABI_PCS_GOT_use
	.eabi_attribute	20, 2	@ Tag_ABI_FP_denormal
	.eabi_attribute	21, 0	@ Tag_ABI_FP_exceptions
	.eabi_attribute	23, 1	@ Tag_ABI_FP_number_model
	.eabi_attribute	24, 1	@ Tag_ABI_align_needed
	.eabi_attribute	25, 1	@ Tag_ABI_align_preserved
	.eabi_attribute	28, 1	@ Tag_ABI_VFP_args
	.eabi_attribute	38, 1	@ Tag_ABI_FP_16bit_format
	.eabi_attribute	18, 2	@ Tag_ABI_PCS_wchar_t
	.eabi_attribute	26, 1	@ Tag_ABI_enum_size
	.eabi_attribute	14, 0	@ Tag_ABI_PCS_R9_use
	.file	"stm32f4xx_ll_usb.c"
	.file	1 "D:\\Embed\\MDK\\MDK\\ARM\\ARMCompilerV621\\Bin\\..\\include" "stdint.h"
	.file	2 "D:\\ikingtec\\Robot\\ODrive\\Firmware\\MDK-ARM" "../ThirdParty/STM32F4xx_HAL_Driver/Src/stm32f4xx_ll_usb.c"
	.file	3 "D:\\ikingtec\\Robot\\ODrive\\Firmware\\MDK-ARM" "../ThirdParty/STM32F4xx_HAL_Driver/Inc/stm32f4xx_hal_def.h"
	.file	4 "D:\\ikingtec\\Robot\\ODrive\\Firmware\\MDK-ARM" "../ThirdParty/CMSIS/Device/ST/STM32F4xx/Include\\stm32f4xx.h"
	.file	5 "D:\\ikingtec\\Robot\\ODrive\\Firmware\\MDK-ARM" "../ThirdParty/STM32F4xx_HAL_Driver/Inc/stm32f4xx_ll_usb.h"
	.file	6 "D:\\ikingtec\\Robot\\ODrive\\Firmware\\MDK-ARM" "../ThirdParty/CMSIS/Device/ST/STM32F4xx/Include/stm32f405xx.h"
	.file	7 "D:\\ikingtec\\Robot\\ODrive\\Firmware\\MDK-ARM" "../ThirdParty/CMSIS/Include/cmsis_armclang.h"
	.section	.text.USB_CoreInit,"ax",%progbits
	.hidden	USB_CoreInit                    @ -- Begin function USB_CoreInit
	.globl	USB_CoreInit
	.p2align	2
	.type	USB_CoreInit,%function
	.code	16                              @ @USB_CoreInit
	.thumb_func
USB_CoreInit:
.Lfunc_begin0:
	.loc	2 118 0                         @ ../ThirdParty/STM32F4xx_HAL_Driver/Src/stm32f4xx_ll_usb.c:118:0
	.fnstart
	.cfi_sections .debug_frame
	.cfi_startproc
@ %bb.0:
	.save	{r4, r5, r6, r7, r8, r9, r10, r11, lr}
	push.w	{r4, r5, r6, r7, r8, r9, r10, r11, lr}
	.cfi_def_cfa_offset 36
	.cfi_offset lr, -4
	.cfi_offset r11, -8
	.cfi_offset r10, -12
	.cfi_offset r9, -16
	.cfi_offset r8, -20
	.cfi_offset r7, -24
	.cfi_offset r6, -28
	.cfi_offset r5, -32
	.cfi_offset r4, -36
	.pad	#60
	sub	sp, #60
	.cfi_def_cfa_offset 96
	str	r1, [sp]                        @ 4-byte Spill
	ldr.w	r11, [sp, #132]
	ldr.w	r10, [sp, #128]
	ldr.w	r9, [sp, #124]
	ldr.w	r8, [sp, #120]
	ldr	r7, [sp, #116]
	ldr	r6, [sp, #112]
	ldr	r5, [sp, #108]
	ldr	r4, [sp, #104]
	ldr.w	lr, [sp, #100]
	ldr.w	r12, [sp, #96]
                                        @ kill: def $r1 killed $r3
                                        @ kill: def $r1 killed $r2
	ldr	r1, [sp]                        @ 4-byte Reload
	ldr	r1, [sp]                        @ 4-byte Reload
	str.w	r11, [sp, #56]
	str.w	r10, [sp, #52]
	str.w	r9, [sp, #48]
	str.w	r8, [sp, #44]
	str	r7, [sp, #40]
	str	r6, [sp, #36]
	str	r5, [sp, #32]
	str	r4, [sp, #28]
	str.w	lr, [sp, #24]
	str.w	r12, [sp, #20]
	str	r3, [sp, #16]
	str	r2, [sp, #12]
	str	r1, [sp, #8]
	str	r0, [sp, #4]
.Ltmp0:
	.loc	2 119 11 prologue_end           @ ../ThirdParty/STM32F4xx_HAL_Driver/Src/stm32f4xx_ll_usb.c:119:11
	ldr	r0, [sp, #28]
.Ltmp1:
	.loc	2 119 7 is_stmt 0               @ ../ThirdParty/STM32F4xx_HAL_Driver/Src/stm32f4xx_ll_usb.c:119:7
	cmp	r0, #1
	bne	.LBB0_4
	b	.LBB0_1
.LBB0_1:
.Ltmp2:
	.loc	2 122 5 is_stmt 1               @ ../ThirdParty/STM32F4xx_HAL_Driver/Src/stm32f4xx_ll_usb.c:122:5
	ldr	r1, [sp, #4]
	.loc	2 122 17 is_stmt 0              @ ../ThirdParty/STM32F4xx_HAL_Driver/Src/stm32f4xx_ll_usb.c:122:17
	ldr	r0, [r1, #56]
	bic	r0, r0, #65536
	str	r0, [r1, #56]
	.loc	2 125 5 is_stmt 1               @ ../ThirdParty/STM32F4xx_HAL_Driver/Src/stm32f4xx_ll_usb.c:125:5
	ldr	r1, [sp, #4]
	.loc	2 125 19 is_stmt 0              @ ../ThirdParty/STM32F4xx_HAL_Driver/Src/stm32f4xx_ll_usb.c:125:19
	ldr	r0, [r1, #12]
	movw	r2, #65471
	movt	r2, #65469
	ands	r0, r2
	str	r0, [r1, #12]
	.loc	2 128 5 is_stmt 1               @ ../ThirdParty/STM32F4xx_HAL_Driver/Src/stm32f4xx_ll_usb.c:128:5
	ldr	r1, [sp, #4]
	.loc	2 128 19 is_stmt 0              @ ../ThirdParty/STM32F4xx_HAL_Driver/Src/stm32f4xx_ll_usb.c:128:19
	ldr	r0, [r1, #12]
	bic	r0, r0, #3145728
	str	r0, [r1, #12]
.Ltmp3:
	.loc	2 129 12 is_stmt 1              @ ../ThirdParty/STM32F4xx_HAL_Driver/Src/stm32f4xx_ll_usb.c:129:12
	ldr	r0, [sp, #56]
.Ltmp4:
	.loc	2 129 8 is_stmt 0               @ ../ThirdParty/STM32F4xx_HAL_Driver/Src/stm32f4xx_ll_usb.c:129:8
	cmp	r0, #1
	bne	.LBB0_3
	b	.LBB0_2
.LBB0_2:
.Ltmp5:
	.loc	2 131 7 is_stmt 1               @ ../ThirdParty/STM32F4xx_HAL_Driver/Src/stm32f4xx_ll_usb.c:131:7
	ldr	r1, [sp, #4]
	.loc	2 131 21 is_stmt 0              @ ../ThirdParty/STM32F4xx_HAL_Driver/Src/stm32f4xx_ll_usb.c:131:21
	ldr	r0, [r1, #12]
	orr	r0, r0, #1048576
	str	r0, [r1, #12]
	.loc	2 132 5 is_stmt 1               @ ../ThirdParty/STM32F4xx_HAL_Driver/Src/stm32f4xx_ll_usb.c:132:5
	b	.LBB0_3
.Ltmp6:
.LBB0_3:
	.loc	2 134 19                        @ ../ThirdParty/STM32F4xx_HAL_Driver/Src/stm32f4xx_ll_usb.c:134:19
	ldr	r0, [sp, #4]
	.loc	2 134 5 is_stmt 0               @ ../ThirdParty/STM32F4xx_HAL_Driver/Src/stm32f4xx_ll_usb.c:134:5
	bl	USB_CoreReset
	.loc	2 135 3 is_stmt 1               @ ../ThirdParty/STM32F4xx_HAL_Driver/Src/stm32f4xx_ll_usb.c:135:3
	b	.LBB0_5
.Ltmp7:
.LBB0_4:
	.loc	2 139 5                         @ ../ThirdParty/STM32F4xx_HAL_Driver/Src/stm32f4xx_ll_usb.c:139:5
	ldr	r1, [sp, #4]
	.loc	2 139 19 is_stmt 0              @ ../ThirdParty/STM32F4xx_HAL_Driver/Src/stm32f4xx_ll_usb.c:139:19
	ldr	r0, [r1, #12]
	orr	r0, r0, #64
	str	r0, [r1, #12]
	.loc	2 142 19 is_stmt 1              @ ../ThirdParty/STM32F4xx_HAL_Driver/Src/stm32f4xx_ll_usb.c:142:19
	ldr	r0, [sp, #4]
	.loc	2 142 5 is_stmt 0               @ ../ThirdParty/STM32F4xx_HAL_Driver/Src/stm32f4xx_ll_usb.c:142:5
	bl	USB_CoreReset
	.loc	2 145 5 is_stmt 1               @ ../ThirdParty/STM32F4xx_HAL_Driver/Src/stm32f4xx_ll_usb.c:145:5
	ldr	r1, [sp, #4]
	mov.w	r0, #65536
	.loc	2 145 17 is_stmt 0              @ ../ThirdParty/STM32F4xx_HAL_Driver/Src/stm32f4xx_ll_usb.c:145:17
	str	r0, [r1, #56]
	b	.LBB0_5
.Ltmp8:
.LBB0_5:
	.loc	2 148 10 is_stmt 1              @ ../ThirdParty/STM32F4xx_HAL_Driver/Src/stm32f4xx_ll_usb.c:148:10
	ldr	r0, [sp, #20]
.Ltmp9:
	.loc	2 148 6 is_stmt 0               @ ../ThirdParty/STM32F4xx_HAL_Driver/Src/stm32f4xx_ll_usb.c:148:6
	cmp	r0, #1
	bne	.LBB0_7
	b	.LBB0_6
.LBB0_6:
.Ltmp10:
	.loc	2 150 5 is_stmt 1               @ ../ThirdParty/STM32F4xx_HAL_Driver/Src/stm32f4xx_ll_usb.c:150:5
	ldr	r1, [sp, #4]
	.loc	2 150 19 is_stmt 0              @ ../ThirdParty/STM32F4xx_HAL_Driver/Src/stm32f4xx_ll_usb.c:150:19
	ldr	r0, [r1, #8]
	orr	r0, r0, #6
	str	r0, [r1, #8]
	.loc	2 151 5 is_stmt 1               @ ../ThirdParty/STM32F4xx_HAL_Driver/Src/stm32f4xx_ll_usb.c:151:5
	ldr	r1, [sp, #4]
	.loc	2 151 19 is_stmt 0              @ ../ThirdParty/STM32F4xx_HAL_Driver/Src/stm32f4xx_ll_usb.c:151:19
	ldr	r0, [r1, #8]
	orr	r0, r0, #32
	str	r0, [r1, #8]
	.loc	2 152 3 is_stmt 1               @ ../ThirdParty/STM32F4xx_HAL_Driver/Src/stm32f4xx_ll_usb.c:152:3
	b	.LBB0_7
.Ltmp11:
.LBB0_7:
	.loc	2 0 3 is_stmt 0                 @ ../ThirdParty/STM32F4xx_HAL_Driver/Src/stm32f4xx_ll_usb.c:0:3
	movs	r0, #0
	.loc	2 154 3 epilogue_begin is_stmt 1 @ ../ThirdParty/STM32F4xx_HAL_Driver/Src/stm32f4xx_ll_usb.c:154:3
	add	sp, #60
	pop.w	{r4, r5, r6, r7, r8, r9, r10, r11, pc}
.Ltmp12:
.Lfunc_end0:
	.size	USB_CoreInit, .Lfunc_end0-USB_CoreInit
	.cfi_endproc
	.cantunwind
	.fnend
                                        @ -- End function
	.section	.text.USB_CoreReset,"ax",%progbits
	.p2align	2                               @ -- Begin function USB_CoreReset
	.type	USB_CoreReset,%function
	.code	16                              @ @USB_CoreReset
	.thumb_func
USB_CoreReset:
.Lfunc_begin1:
	.loc	2 1209 0                        @ ../ThirdParty/STM32F4xx_HAL_Driver/Src/stm32f4xx_ll_usb.c:1209:0
	.fnstart
	.cfi_startproc
@ %bb.0:
	.pad	#12
	sub	sp, #12
	.cfi_def_cfa_offset 12
	str	r0, [sp, #4]
	movs	r0, #0
.Ltmp13:
	.loc	2 1210 12 prologue_end          @ ../ThirdParty/STM32F4xx_HAL_Driver/Src/stm32f4xx_ll_usb.c:1210:12
	str	r0, [sp]
	.loc	2 1213 3                        @ ../ThirdParty/STM32F4xx_HAL_Driver/Src/stm32f4xx_ll_usb.c:1213:3
	b	.LBB1_1
.LBB1_1:                                @ =>This Inner Loop Header: Depth=1
.Ltmp14:
	.loc	2 1215 9                        @ ../ThirdParty/STM32F4xx_HAL_Driver/Src/stm32f4xx_ll_usb.c:1215:9
	ldr	r0, [sp]
	adds	r0, #1
	str	r0, [sp]
	movw	r1, #3393
	movt	r1, #3
.Ltmp15:
	.loc	2 1215 9 is_stmt 0              @ ../ThirdParty/STM32F4xx_HAL_Driver/Src/stm32f4xx_ll_usb.c:1215:9
	cmp	r0, r1
	blo	.LBB1_3
	b	.LBB1_2
.LBB1_2:
	.loc	2 0 9                           @ ../ThirdParty/STM32F4xx_HAL_Driver/Src/stm32f4xx_ll_usb.c:0:9
	movs	r0, #3
.Ltmp16:
	.loc	2 1217 7 is_stmt 1              @ ../ThirdParty/STM32F4xx_HAL_Driver/Src/stm32f4xx_ll_usb.c:1217:7
	strb.w	r0, [sp, #11]
	b	.LBB1_11
.Ltmp17:
.LBB1_3:                                @   in Loop: Header=BB1_1 Depth=1
	.loc	2 1219 3                        @ ../ThirdParty/STM32F4xx_HAL_Driver/Src/stm32f4xx_ll_usb.c:1219:3
	b	.LBB1_4
.Ltmp18:
.LBB1_4:                                @   in Loop: Header=BB1_1 Depth=1
	.loc	2 1220 11                       @ ../ThirdParty/STM32F4xx_HAL_Driver/Src/stm32f4xx_ll_usb.c:1220:11
	ldr	r0, [sp, #4]
	.loc	2 1220 17 is_stmt 0             @ ../ThirdParty/STM32F4xx_HAL_Driver/Src/stm32f4xx_ll_usb.c:1220:17
	ldr	r0, [r0, #16]
.Ltmp19:
	.loc	2 1219 3 is_stmt 1              @ ../ThirdParty/STM32F4xx_HAL_Driver/Src/stm32f4xx_ll_usb.c:1219:3
	lsrs	r0, r0, #31
	cmp	r0, #0
	beq	.LBB1_1
	b	.LBB1_5
.Ltmp20:
.LBB1_5:
	.loc	2 0 3 is_stmt 0                 @ ../ThirdParty/STM32F4xx_HAL_Driver/Src/stm32f4xx_ll_usb.c:0:3
	movs	r0, #0
	.loc	2 1223 9 is_stmt 1              @ ../ThirdParty/STM32F4xx_HAL_Driver/Src/stm32f4xx_ll_usb.c:1223:9
	str	r0, [sp]
	.loc	2 1224 3                        @ ../ThirdParty/STM32F4xx_HAL_Driver/Src/stm32f4xx_ll_usb.c:1224:3
	ldr	r1, [sp, #4]
	.loc	2 1224 17 is_stmt 0             @ ../ThirdParty/STM32F4xx_HAL_Driver/Src/stm32f4xx_ll_usb.c:1224:17
	ldr	r0, [r1, #16]
	orr	r0, r0, #1
	str	r0, [r1, #16]
	.loc	2 1226 3 is_stmt 1              @ ../ThirdParty/STM32F4xx_HAL_Driver/Src/stm32f4xx_ll_usb.c:1226:3
	b	.LBB1_6
.LBB1_6:                                @ =>This Inner Loop Header: Depth=1
.Ltmp21:
	.loc	2 1228 9                        @ ../ThirdParty/STM32F4xx_HAL_Driver/Src/stm32f4xx_ll_usb.c:1228:9
	ldr	r0, [sp]
	adds	r0, #1
	str	r0, [sp]
	movw	r1, #3393
	movt	r1, #3
.Ltmp22:
	.loc	2 1228 9 is_stmt 0              @ ../ThirdParty/STM32F4xx_HAL_Driver/Src/stm32f4xx_ll_usb.c:1228:9
	cmp	r0, r1
	blo	.LBB1_8
	b	.LBB1_7
.LBB1_7:
	.loc	2 0 9                           @ ../ThirdParty/STM32F4xx_HAL_Driver/Src/stm32f4xx_ll_usb.c:0:9
	movs	r0, #3
.Ltmp23:
	.loc	2 1230 7 is_stmt 1              @ ../ThirdParty/STM32F4xx_HAL_Driver/Src/stm32f4xx_ll_usb.c:1230:7
	strb.w	r0, [sp, #11]
	b	.LBB1_11
.Ltmp24:
.LBB1_8:                                @   in Loop: Header=BB1_6 Depth=1
	.loc	2 1232 3                        @ ../ThirdParty/STM32F4xx_HAL_Driver/Src/stm32f4xx_ll_usb.c:1232:3
	b	.LBB1_9
.Ltmp25:
.LBB1_9:                                @   in Loop: Header=BB1_6 Depth=1
	.loc	2 1233 11                       @ ../ThirdParty/STM32F4xx_HAL_Driver/Src/stm32f4xx_ll_usb.c:1233:11
	ldr	r0, [sp, #4]
	.loc	2 1233 17 is_stmt 0             @ ../ThirdParty/STM32F4xx_HAL_Driver/Src/stm32f4xx_ll_usb.c:1233:17
	ldr	r0, [r0, #16]
.Ltmp26:
	.loc	2 1232 3 is_stmt 1              @ ../ThirdParty/STM32F4xx_HAL_Driver/Src/stm32f4xx_ll_usb.c:1232:3
	lsls	r0, r0, #31
	cmp	r0, #0
	bne	.LBB1_6
	b	.LBB1_10
.Ltmp27:
.LBB1_10:
	.loc	2 0 3 is_stmt 0                 @ ../ThirdParty/STM32F4xx_HAL_Driver/Src/stm32f4xx_ll_usb.c:0:3
	movs	r0, #0
	.loc	2 1235 3 is_stmt 1              @ ../ThirdParty/STM32F4xx_HAL_Driver/Src/stm32f4xx_ll_usb.c:1235:3
	strb.w	r0, [sp, #11]
	b	.LBB1_11
.LBB1_11:
	.loc	2 1236 1                        @ ../ThirdParty/STM32F4xx_HAL_Driver/Src/stm32f4xx_ll_usb.c:1236:1
	ldrb.w	r0, [sp, #11]
	.loc	2 1236 1 epilogue_begin is_stmt 0 @ ../ThirdParty/STM32F4xx_HAL_Driver/Src/stm32f4xx_ll_usb.c:1236:1
	add	sp, #12
	bx	lr
.Ltmp28:
.Lfunc_end1:
	.size	USB_CoreReset, .Lfunc_end1-USB_CoreReset
	.cfi_endproc
	.cantunwind
	.fnend
                                        @ -- End function
	.section	.text.USB_EnableGlobalInt,"ax",%progbits
	.hidden	USB_EnableGlobalInt             @ -- Begin function USB_EnableGlobalInt
	.globl	USB_EnableGlobalInt
	.p2align	2
	.type	USB_EnableGlobalInt,%function
	.code	16                              @ @USB_EnableGlobalInt
	.thumb_func
USB_EnableGlobalInt:
.Lfunc_begin2:
	.loc	2 164 0 is_stmt 1               @ ../ThirdParty/STM32F4xx_HAL_Driver/Src/stm32f4xx_ll_usb.c:164:0
	.fnstart
	.cfi_startproc
@ %bb.0:
	.pad	#4
	sub	sp, #4
	.cfi_def_cfa_offset 4
	str	r0, [sp]
.Ltmp29:
	.loc	2 165 3 prologue_end            @ ../ThirdParty/STM32F4xx_HAL_Driver/Src/stm32f4xx_ll_usb.c:165:3
	ldr	r1, [sp]
	.loc	2 165 17 is_stmt 0              @ ../ThirdParty/STM32F4xx_HAL_Driver/Src/stm32f4xx_ll_usb.c:165:17
	ldr	r0, [r1, #8]
	orr	r0, r0, #1
	str	r0, [r1, #8]
	movs	r0, #0
	.loc	2 166 3 epilogue_begin is_stmt 1 @ ../ThirdParty/STM32F4xx_HAL_Driver/Src/stm32f4xx_ll_usb.c:166:3
	add	sp, #4
	bx	lr
.Ltmp30:
.Lfunc_end2:
	.size	USB_EnableGlobalInt, .Lfunc_end2-USB_EnableGlobalInt
	.cfi_endproc
	.cantunwind
	.fnend
                                        @ -- End function
	.section	.text.USB_DisableGlobalInt,"ax",%progbits
	.hidden	USB_DisableGlobalInt            @ -- Begin function USB_DisableGlobalInt
	.globl	USB_DisableGlobalInt
	.p2align	2
	.type	USB_DisableGlobalInt,%function
	.code	16                              @ @USB_DisableGlobalInt
	.thumb_func
USB_DisableGlobalInt:
.Lfunc_begin3:
	.loc	2 177 0                         @ ../ThirdParty/STM32F4xx_HAL_Driver/Src/stm32f4xx_ll_usb.c:177:0
	.fnstart
	.cfi_startproc
@ %bb.0:
	.pad	#4
	sub	sp, #4
	.cfi_def_cfa_offset 4
	str	r0, [sp]
.Ltmp31:
	.loc	2 178 3 prologue_end            @ ../ThirdParty/STM32F4xx_HAL_Driver/Src/stm32f4xx_ll_usb.c:178:3
	ldr	r1, [sp]
	.loc	2 178 17 is_stmt 0              @ ../ThirdParty/STM32F4xx_HAL_Driver/Src/stm32f4xx_ll_usb.c:178:17
	ldr	r0, [r1, #8]
	bic	r0, r0, #1
	str	r0, [r1, #8]
	movs	r0, #0
	.loc	2 179 3 epilogue_begin is_stmt 1 @ ../ThirdParty/STM32F4xx_HAL_Driver/Src/stm32f4xx_ll_usb.c:179:3
	add	sp, #4
	bx	lr
.Ltmp32:
.Lfunc_end3:
	.size	USB_DisableGlobalInt, .Lfunc_end3-USB_DisableGlobalInt
	.cfi_endproc
	.cantunwind
	.fnend
                                        @ -- End function
	.section	.text.USB_SetCurrentMode,"ax",%progbits
	.hidden	USB_SetCurrentMode              @ -- Begin function USB_SetCurrentMode
	.globl	USB_SetCurrentMode
	.p2align	2
	.type	USB_SetCurrentMode,%function
	.code	16                              @ @USB_SetCurrentMode
	.thumb_func
USB_SetCurrentMode:
.Lfunc_begin4:
	.loc	2 193 0                         @ ../ThirdParty/STM32F4xx_HAL_Driver/Src/stm32f4xx_ll_usb.c:193:0
	.fnstart
	.cfi_startproc
@ %bb.0:
	.save	{r7, lr}
	push	{r7, lr}
	.cfi_def_cfa_offset 8
	.cfi_offset lr, -4
	.cfi_offset r7, -8
	.pad	#8
	sub	sp, #8
	.cfi_def_cfa_offset 16
                                        @ kill: def $r2 killed $r1
	str	r0, [sp, #4]
	strb.w	r1, [sp, #3]
.Ltmp33:
	.loc	2 194 3 prologue_end            @ ../ThirdParty/STM32F4xx_HAL_Driver/Src/stm32f4xx_ll_usb.c:194:3
	ldr	r1, [sp, #4]
	.loc	2 194 17 is_stmt 0              @ ../ThirdParty/STM32F4xx_HAL_Driver/Src/stm32f4xx_ll_usb.c:194:17
	ldr	r0, [r1, #12]
	bic	r0, r0, #1610612736
	str	r0, [r1, #12]
.Ltmp34:
	.loc	2 196 8 is_stmt 1               @ ../ThirdParty/STM32F4xx_HAL_Driver/Src/stm32f4xx_ll_usb.c:196:8
	ldrb.w	r0, [sp, #3]
.Ltmp35:
	.loc	2 196 8 is_stmt 0               @ ../ThirdParty/STM32F4xx_HAL_Driver/Src/stm32f4xx_ll_usb.c:196:8
	cmp	r0, #1
	bne	.LBB4_2
	b	.LBB4_1
.LBB4_1:
.Ltmp36:
	.loc	2 198 5 is_stmt 1               @ ../ThirdParty/STM32F4xx_HAL_Driver/Src/stm32f4xx_ll_usb.c:198:5
	ldr	r1, [sp, #4]
	.loc	2 198 19 is_stmt 0              @ ../ThirdParty/STM32F4xx_HAL_Driver/Src/stm32f4xx_ll_usb.c:198:19
	ldr	r0, [r1, #12]
	orr	r0, r0, #536870912
	str	r0, [r1, #12]
	.loc	2 199 3 is_stmt 1               @ ../ThirdParty/STM32F4xx_HAL_Driver/Src/stm32f4xx_ll_usb.c:199:3
	b	.LBB4_5
.Ltmp37:
.LBB4_2:
	.loc	2 200 13                        @ ../ThirdParty/STM32F4xx_HAL_Driver/Src/stm32f4xx_ll_usb.c:200:13
	ldrb.w	r0, [sp, #3]
.Ltmp38:
	.loc	2 200 13 is_stmt 0              @ ../ThirdParty/STM32F4xx_HAL_Driver/Src/stm32f4xx_ll_usb.c:200:13
	cbnz	r0, .LBB4_4
	b	.LBB4_3
.LBB4_3:
.Ltmp39:
	.loc	2 202 5 is_stmt 1               @ ../ThirdParty/STM32F4xx_HAL_Driver/Src/stm32f4xx_ll_usb.c:202:5
	ldr	r1, [sp, #4]
	.loc	2 202 19 is_stmt 0              @ ../ThirdParty/STM32F4xx_HAL_Driver/Src/stm32f4xx_ll_usb.c:202:19
	ldr	r0, [r1, #12]
	orr	r0, r0, #1073741824
	str	r0, [r1, #12]
	.loc	2 203 3 is_stmt 1               @ ../ThirdParty/STM32F4xx_HAL_Driver/Src/stm32f4xx_ll_usb.c:203:3
	b	.LBB4_4
.Ltmp40:
.LBB4_4:
	.loc	2 0 3 is_stmt 0                 @ ../ThirdParty/STM32F4xx_HAL_Driver/Src/stm32f4xx_ll_usb.c:0:3
	b	.LBB4_5
.LBB4_5:
	movs	r0, #50
	.loc	2 204 3 is_stmt 1               @ ../ThirdParty/STM32F4xx_HAL_Driver/Src/stm32f4xx_ll_usb.c:204:3
	bl	HAL_Delay
	movs	r0, #0
	.loc	2 206 3 epilogue_begin          @ ../ThirdParty/STM32F4xx_HAL_Driver/Src/stm32f4xx_ll_usb.c:206:3
	add	sp, #8
	pop	{r7, pc}
.Ltmp41:
.Lfunc_end4:
	.size	USB_SetCurrentMode, .Lfunc_end4-USB_SetCurrentMode
	.cfi_endproc
	.cantunwind
	.fnend
                                        @ -- End function
	.section	.text.USB_DevInit,"ax",%progbits
	.hidden	USB_DevInit                     @ -- Begin function USB_DevInit
	.globl	USB_DevInit
	.p2align	2
	.type	USB_DevInit,%function
	.code	16                              @ @USB_DevInit
	.thumb_func
USB_DevInit:
.Lfunc_begin5:
	.loc	2 218 0                         @ ../ThirdParty/STM32F4xx_HAL_Driver/Src/stm32f4xx_ll_usb.c:218:0
	.fnstart
	.cfi_startproc
@ %bb.0:
	.save	{r4, r5, r6, r7, r8, r9, r10, r11, lr}
	push.w	{r4, r5, r6, r7, r8, r9, r10, r11, lr}
	.cfi_def_cfa_offset 36
	.cfi_offset lr, -4
	.cfi_offset r11, -8
	.cfi_offset r10, -12
	.cfi_offset r9, -16
	.cfi_offset r8, -20
	.cfi_offset r7, -24
	.cfi_offset r6, -28
	.cfi_offset r5, -32
	.cfi_offset r4, -36
	.pad	#68
	sub	sp, #68
	.cfi_def_cfa_offset 104
	str	r1, [sp, #4]                    @ 4-byte Spill
	ldr.w	r11, [sp, #140]
	ldr.w	r10, [sp, #136]
	ldr.w	r9, [sp, #132]
	ldr.w	r8, [sp, #128]
	ldr	r7, [sp, #124]
	ldr	r6, [sp, #120]
	ldr	r5, [sp, #116]
	ldr	r4, [sp, #112]
	ldr.w	lr, [sp, #108]
	ldr.w	r12, [sp, #104]
                                        @ kill: def $r1 killed $r3
                                        @ kill: def $r1 killed $r2
	ldr	r1, [sp, #4]                    @ 4-byte Reload
	ldr	r1, [sp, #4]                    @ 4-byte Reload
	str.w	r11, [sp, #64]
	str.w	r10, [sp, #60]
	str.w	r9, [sp, #56]
	str.w	r8, [sp, #52]
	str	r7, [sp, #48]
	str	r6, [sp, #44]
	str	r5, [sp, #40]
	str	r4, [sp, #36]
	str.w	lr, [sp, #32]
	str.w	r12, [sp, #28]
	str	r3, [sp, #24]
	str	r2, [sp, #20]
	str	r1, [sp, #16]
	str	r0, [sp, #12]
	movs	r0, #0
.Ltmp42:
	.loc	2 219 12 prologue_end           @ ../ThirdParty/STM32F4xx_HAL_Driver/Src/stm32f4xx_ll_usb.c:219:12
	str	r0, [sp, #8]
.Ltmp43:
	.loc	2 236 11                        @ ../ThirdParty/STM32F4xx_HAL_Driver/Src/stm32f4xx_ll_usb.c:236:11
	ldr	r0, [sp, #56]
.Ltmp44:
	.loc	2 236 7 is_stmt 0               @ ../ThirdParty/STM32F4xx_HAL_Driver/Src/stm32f4xx_ll_usb.c:236:7
	cbnz	r0, .LBB5_2
	b	.LBB5_1
.LBB5_1:
.Ltmp45:
	.loc	2 238 5 is_stmt 1               @ ../ThirdParty/STM32F4xx_HAL_Driver/Src/stm32f4xx_ll_usb.c:238:5
	ldr	r1, [sp, #12]
	.loc	2 238 17 is_stmt 0              @ ../ThirdParty/STM32F4xx_HAL_Driver/Src/stm32f4xx_ll_usb.c:238:17
	ldr	r0, [r1, #56]
	orr	r0, r0, #2097152
	str	r0, [r1, #56]
	.loc	2 239 3 is_stmt 1               @ ../ThirdParty/STM32F4xx_HAL_Driver/Src/stm32f4xx_ll_usb.c:239:3
	b	.LBB5_3
.Ltmp46:
.LBB5_2:
	.loc	2 243 5                         @ ../ThirdParty/STM32F4xx_HAL_Driver/Src/stm32f4xx_ll_usb.c:243:5
	ldr	r1, [sp, #12]
	.loc	2 243 17 is_stmt 0              @ ../ThirdParty/STM32F4xx_HAL_Driver/Src/stm32f4xx_ll_usb.c:243:17
	ldr	r0, [r1, #56]
	orr	r0, r0, #524288
	str	r0, [r1, #56]
	b	.LBB5_3
.Ltmp47:
.LBB5_3:
	.loc	2 248 3 is_stmt 1               @ ../ThirdParty/STM32F4xx_HAL_Driver/Src/stm32f4xx_ll_usb.c:248:3
	ldr	r1, [sp, #12]
	movs	r0, #0
	.loc	2 248 16 is_stmt 0              @ ../ThirdParty/STM32F4xx_HAL_Driver/Src/stm32f4xx_ll_usb.c:248:16
	str.w	r0, [r1, #3584]
	.loc	2 251 3 is_stmt 1               @ ../ThirdParty/STM32F4xx_HAL_Driver/Src/stm32f4xx_ll_usb.c:251:3
	ldr	r1, [sp, #12]
	.loc	2 251 21 is_stmt 0              @ ../ThirdParty/STM32F4xx_HAL_Driver/Src/stm32f4xx_ll_usb.c:251:21
	ldr.w	r0, [r1, #2048]
	str.w	r0, [r1, #2048]
.Ltmp48:
	.loc	2 253 10 is_stmt 1              @ ../ThirdParty/STM32F4xx_HAL_Driver/Src/stm32f4xx_ll_usb.c:253:10
	ldr	r0, [sp, #36]
.Ltmp49:
	.loc	2 253 6 is_stmt 0               @ ../ThirdParty/STM32F4xx_HAL_Driver/Src/stm32f4xx_ll_usb.c:253:6
	cmp	r0, #1
	bne	.LBB5_8
	b	.LBB5_4
.LBB5_4:
.Ltmp50:
	.loc	2 255 12 is_stmt 1              @ ../ThirdParty/STM32F4xx_HAL_Driver/Src/stm32f4xx_ll_usb.c:255:12
	ldr	r0, [sp, #24]
.Ltmp51:
	.loc	2 255 8 is_stmt 0               @ ../ThirdParty/STM32F4xx_HAL_Driver/Src/stm32f4xx_ll_usb.c:255:8
	cbnz	r0, .LBB5_6
	b	.LBB5_5
.LBB5_5:
.Ltmp52:
	.loc	2 258 24 is_stmt 1              @ ../ThirdParty/STM32F4xx_HAL_Driver/Src/stm32f4xx_ll_usb.c:258:24
	ldr	r0, [sp, #12]
	movs	r1, #0
	.loc	2 258 7 is_stmt 0               @ ../ThirdParty/STM32F4xx_HAL_Driver/Src/stm32f4xx_ll_usb.c:258:7
	bl	USB_SetDevSpeed
	.loc	2 259 5 is_stmt 1               @ ../ThirdParty/STM32F4xx_HAL_Driver/Src/stm32f4xx_ll_usb.c:259:5
	b	.LBB5_7
.Ltmp53:
.LBB5_6:
	.loc	2 263 24                        @ ../ThirdParty/STM32F4xx_HAL_Driver/Src/stm32f4xx_ll_usb.c:263:24
	ldr	r0, [sp, #12]
	movs	r1, #1
	.loc	2 263 7 is_stmt 0               @ ../ThirdParty/STM32F4xx_HAL_Driver/Src/stm32f4xx_ll_usb.c:263:7
	bl	USB_SetDevSpeed
	b	.LBB5_7
.Ltmp54:
.LBB5_7:
	.loc	2 265 3 is_stmt 1               @ ../ThirdParty/STM32F4xx_HAL_Driver/Src/stm32f4xx_ll_usb.c:265:3
	b	.LBB5_9
.Ltmp55:
.LBB5_8:
	.loc	2 269 22                        @ ../ThirdParty/STM32F4xx_HAL_Driver/Src/stm32f4xx_ll_usb.c:269:22
	ldr	r0, [sp, #12]
	movs	r1, #3
	.loc	2 269 5 is_stmt 0               @ ../ThirdParty/STM32F4xx_HAL_Driver/Src/stm32f4xx_ll_usb.c:269:5
	bl	USB_SetDevSpeed
	b	.LBB5_9
.Ltmp56:
.LBB5_9:
	.loc	2 273 19 is_stmt 1              @ ../ThirdParty/STM32F4xx_HAL_Driver/Src/stm32f4xx_ll_usb.c:273:19
	ldr	r0, [sp, #12]
	movs	r1, #16
	.loc	2 273 3 is_stmt 0               @ ../ThirdParty/STM32F4xx_HAL_Driver/Src/stm32f4xx_ll_usb.c:273:3
	bl	USB_FlushTxFifo
	.loc	2 274 19 is_stmt 1              @ ../ThirdParty/STM32F4xx_HAL_Driver/Src/stm32f4xx_ll_usb.c:274:19
	ldr	r0, [sp, #12]
	.loc	2 274 3 is_stmt 0               @ ../ThirdParty/STM32F4xx_HAL_Driver/Src/stm32f4xx_ll_usb.c:274:3
	bl	USB_FlushRxFifo
	.loc	2 277 3 is_stmt 1               @ ../ThirdParty/STM32F4xx_HAL_Driver/Src/stm32f4xx_ll_usb.c:277:3
	ldr	r1, [sp, #12]
	movs	r0, #0
	.loc	2 277 24 is_stmt 0              @ ../ThirdParty/STM32F4xx_HAL_Driver/Src/stm32f4xx_ll_usb.c:277:24
	str.w	r0, [r1, #2064]
	.loc	2 278 3 is_stmt 1               @ ../ThirdParty/STM32F4xx_HAL_Driver/Src/stm32f4xx_ll_usb.c:278:3
	ldr	r1, [sp, #12]
	.loc	2 278 24 is_stmt 0              @ ../ThirdParty/STM32F4xx_HAL_Driver/Src/stm32f4xx_ll_usb.c:278:24
	str.w	r0, [r1, #2068]
	.loc	2 279 3 is_stmt 1               @ ../ThirdParty/STM32F4xx_HAL_Driver/Src/stm32f4xx_ll_usb.c:279:3
	ldr	r2, [sp, #12]
	mov.w	r1, #-1
	.loc	2 279 22 is_stmt 0              @ ../ThirdParty/STM32F4xx_HAL_Driver/Src/stm32f4xx_ll_usb.c:279:22
	str.w	r1, [r2, #2072]
	.loc	2 280 3 is_stmt 1               @ ../ThirdParty/STM32F4xx_HAL_Driver/Src/stm32f4xx_ll_usb.c:280:3
	ldr	r1, [sp, #12]
	.loc	2 280 25 is_stmt 0              @ ../ThirdParty/STM32F4xx_HAL_Driver/Src/stm32f4xx_ll_usb.c:280:25
	str.w	r0, [r1, #2076]
.Ltmp57:
	.loc	2 282 10 is_stmt 1              @ ../ThirdParty/STM32F4xx_HAL_Driver/Src/stm32f4xx_ll_usb.c:282:10
	str	r0, [sp, #8]
	.loc	2 282 8 is_stmt 0               @ ../ThirdParty/STM32F4xx_HAL_Driver/Src/stm32f4xx_ll_usb.c:282:8
	b	.LBB5_10
.LBB5_10:                               @ =>This Inner Loop Header: Depth=1
.Ltmp58:
	.loc	2 282 16                        @ ../ThirdParty/STM32F4xx_HAL_Driver/Src/stm32f4xx_ll_usb.c:282:16
	ldr	r0, [sp, #8]
	.loc	2 282 24                        @ ../ThirdParty/STM32F4xx_HAL_Driver/Src/stm32f4xx_ll_usb.c:282:24
	ldr	r1, [sp, #16]
.Ltmp59:
	.loc	2 282 3                         @ ../ThirdParty/STM32F4xx_HAL_Driver/Src/stm32f4xx_ll_usb.c:282:3
	cmp	r0, r1
	bhs	.LBB5_16
	b	.LBB5_11
.LBB5_11:                               @   in Loop: Header=BB5_10 Depth=1
.Ltmp60:
	.loc	2 284 10 is_stmt 1              @ ../ThirdParty/STM32F4xx_HAL_Driver/Src/stm32f4xx_ll_usb.c:284:10
	ldr	r0, [sp, #12]
	ldr	r1, [sp, #8]
	add.w	r0, r0, r1, lsl #5
	.loc	2 284 24 is_stmt 0              @ ../ThirdParty/STM32F4xx_HAL_Driver/Src/stm32f4xx_ll_usb.c:284:24
	ldr.w	r0, [r0, #2304]
.Ltmp61:
	.loc	2 284 9                         @ ../ThirdParty/STM32F4xx_HAL_Driver/Src/stm32f4xx_ll_usb.c:284:9
	lsrs	r0, r0, #31
	cbz	r0, .LBB5_13
	b	.LBB5_12
.LBB5_12:                               @   in Loop: Header=BB5_10 Depth=1
.Ltmp62:
	.loc	2 286 7 is_stmt 1               @ ../ThirdParty/STM32F4xx_HAL_Driver/Src/stm32f4xx_ll_usb.c:286:7
	ldr	r0, [sp, #12]
	ldr	r1, [sp, #8]
	add.w	r1, r0, r1, lsl #5
	mov.w	r0, #1207959552
	.loc	2 286 29 is_stmt 0              @ ../ThirdParty/STM32F4xx_HAL_Driver/Src/stm32f4xx_ll_usb.c:286:29
	str.w	r0, [r1, #2304]
	.loc	2 287 5 is_stmt 1               @ ../ThirdParty/STM32F4xx_HAL_Driver/Src/stm32f4xx_ll_usb.c:287:5
	b	.LBB5_14
.Ltmp63:
.LBB5_13:                               @   in Loop: Header=BB5_10 Depth=1
	.loc	2 290 7                         @ ../ThirdParty/STM32F4xx_HAL_Driver/Src/stm32f4xx_ll_usb.c:290:7
	ldr	r0, [sp, #12]
	ldr	r1, [sp, #8]
	add.w	r1, r0, r1, lsl #5
	movs	r0, #0
	.loc	2 290 29 is_stmt 0              @ ../ThirdParty/STM32F4xx_HAL_Driver/Src/stm32f4xx_ll_usb.c:290:29
	str.w	r0, [r1, #2304]
	b	.LBB5_14
.Ltmp64:
.LBB5_14:                               @   in Loop: Header=BB5_10 Depth=1
	.loc	2 293 5 is_stmt 1               @ ../ThirdParty/STM32F4xx_HAL_Driver/Src/stm32f4xx_ll_usb.c:293:5
	ldr	r0, [sp, #12]
	ldr	r1, [sp, #8]
	add.w	r1, r0, r1, lsl #5
	movs	r0, #0
	.loc	2 293 28 is_stmt 0              @ ../ThirdParty/STM32F4xx_HAL_Driver/Src/stm32f4xx_ll_usb.c:293:28
	str.w	r0, [r1, #2320]
	.loc	2 294 5 is_stmt 1               @ ../ThirdParty/STM32F4xx_HAL_Driver/Src/stm32f4xx_ll_usb.c:294:5
	ldr	r0, [sp, #12]
	ldr	r1, [sp, #8]
	add.w	r1, r0, r1, lsl #5
	movs	r0, #255
	.loc	2 294 28 is_stmt 0              @ ../ThirdParty/STM32F4xx_HAL_Driver/Src/stm32f4xx_ll_usb.c:294:28
	str.w	r0, [r1, #2312]
	.loc	2 295 3 is_stmt 1               @ ../ThirdParty/STM32F4xx_HAL_Driver/Src/stm32f4xx_ll_usb.c:295:3
	b	.LBB5_15
.Ltmp65:
.LBB5_15:                               @   in Loop: Header=BB5_10 Depth=1
	.loc	2 282 40                        @ ../ThirdParty/STM32F4xx_HAL_Driver/Src/stm32f4xx_ll_usb.c:282:40
	ldr	r0, [sp, #8]
	adds	r0, #1
	str	r0, [sp, #8]
	.loc	2 282 3 is_stmt 0               @ ../ThirdParty/STM32F4xx_HAL_Driver/Src/stm32f4xx_ll_usb.c:282:3
	b	.LBB5_10
.Ltmp66:
.LBB5_16:
	.loc	2 0 3                           @ ../ThirdParty/STM32F4xx_HAL_Driver/Src/stm32f4xx_ll_usb.c:0:3
	movs	r0, #0
.Ltmp67:
	.loc	2 297 10 is_stmt 1              @ ../ThirdParty/STM32F4xx_HAL_Driver/Src/stm32f4xx_ll_usb.c:297:10
	str	r0, [sp, #8]
	.loc	2 297 8 is_stmt 0               @ ../ThirdParty/STM32F4xx_HAL_Driver/Src/stm32f4xx_ll_usb.c:297:8
	b	.LBB5_17
.LBB5_17:                               @ =>This Inner Loop Header: Depth=1
.Ltmp68:
	.loc	2 297 16                        @ ../ThirdParty/STM32F4xx_HAL_Driver/Src/stm32f4xx_ll_usb.c:297:16
	ldr	r0, [sp, #8]
	.loc	2 297 24                        @ ../ThirdParty/STM32F4xx_HAL_Driver/Src/stm32f4xx_ll_usb.c:297:24
	ldr	r1, [sp, #16]
.Ltmp69:
	.loc	2 297 3                         @ ../ThirdParty/STM32F4xx_HAL_Driver/Src/stm32f4xx_ll_usb.c:297:3
	cmp	r0, r1
	bhs	.LBB5_23
	b	.LBB5_18
.LBB5_18:                               @   in Loop: Header=BB5_17 Depth=1
.Ltmp70:
	.loc	2 299 10 is_stmt 1              @ ../ThirdParty/STM32F4xx_HAL_Driver/Src/stm32f4xx_ll_usb.c:299:10
	ldr	r0, [sp, #12]
	ldr	r1, [sp, #8]
	add.w	r0, r0, r1, lsl #5
	.loc	2 299 25 is_stmt 0              @ ../ThirdParty/STM32F4xx_HAL_Driver/Src/stm32f4xx_ll_usb.c:299:25
	ldr.w	r0, [r0, #2816]
.Ltmp71:
	.loc	2 299 9                         @ ../ThirdParty/STM32F4xx_HAL_Driver/Src/stm32f4xx_ll_usb.c:299:9
	lsrs	r0, r0, #31
	cbz	r0, .LBB5_20
	b	.LBB5_19
.LBB5_19:                               @   in Loop: Header=BB5_17 Depth=1
.Ltmp72:
	.loc	2 301 7 is_stmt 1               @ ../ThirdParty/STM32F4xx_HAL_Driver/Src/stm32f4xx_ll_usb.c:301:7
	ldr	r0, [sp, #12]
	ldr	r1, [sp, #8]
	add.w	r1, r0, r1, lsl #5
	mov.w	r0, #1207959552
	.loc	2 301 30 is_stmt 0              @ ../ThirdParty/STM32F4xx_HAL_Driver/Src/stm32f4xx_ll_usb.c:301:30
	str.w	r0, [r1, #2816]
	.loc	2 302 5 is_stmt 1               @ ../ThirdParty/STM32F4xx_HAL_Driver/Src/stm32f4xx_ll_usb.c:302:5
	b	.LBB5_21
.Ltmp73:
.LBB5_20:                               @   in Loop: Header=BB5_17 Depth=1
	.loc	2 305 7                         @ ../ThirdParty/STM32F4xx_HAL_Driver/Src/stm32f4xx_ll_usb.c:305:7
	ldr	r0, [sp, #12]
	ldr	r1, [sp, #8]
	add.w	r1, r0, r1, lsl #5
	movs	r0, #0
	.loc	2 305 30 is_stmt 0              @ ../ThirdParty/STM32F4xx_HAL_Driver/Src/stm32f4xx_ll_usb.c:305:30
	str.w	r0, [r1, #2816]
	b	.LBB5_21
.Ltmp74:
.LBB5_21:                               @   in Loop: Header=BB5_17 Depth=1
	.loc	2 308 5 is_stmt 1               @ ../ThirdParty/STM32F4xx_HAL_Driver/Src/stm32f4xx_ll_usb.c:308:5
	ldr	r0, [sp, #12]
	ldr	r1, [sp, #8]
	add.w	r1, r0, r1, lsl #5
	movs	r0, #0
	.loc	2 308 29 is_stmt 0              @ ../ThirdParty/STM32F4xx_HAL_Driver/Src/stm32f4xx_ll_usb.c:308:29
	str.w	r0, [r1, #2832]
	.loc	2 309 5 is_stmt 1               @ ../ThirdParty/STM32F4xx_HAL_Driver/Src/stm32f4xx_ll_usb.c:309:5
	ldr	r0, [sp, #12]
	ldr	r1, [sp, #8]
	add.w	r1, r0, r1, lsl #5
	movs	r0, #255
	.loc	2 309 29 is_stmt 0              @ ../ThirdParty/STM32F4xx_HAL_Driver/Src/stm32f4xx_ll_usb.c:309:29
	str.w	r0, [r1, #2824]
	.loc	2 310 3 is_stmt 1               @ ../ThirdParty/STM32F4xx_HAL_Driver/Src/stm32f4xx_ll_usb.c:310:3
	b	.LBB5_22
.Ltmp75:
.LBB5_22:                               @   in Loop: Header=BB5_17 Depth=1
	.loc	2 297 40                        @ ../ThirdParty/STM32F4xx_HAL_Driver/Src/stm32f4xx_ll_usb.c:297:40
	ldr	r0, [sp, #8]
	adds	r0, #1
	str	r0, [sp, #8]
	.loc	2 297 3 is_stmt 0               @ ../ThirdParty/STM32F4xx_HAL_Driver/Src/stm32f4xx_ll_usb.c:297:3
	b	.LBB5_17
.Ltmp76:
.LBB5_23:
	.loc	2 312 3 is_stmt 1               @ ../ThirdParty/STM32F4xx_HAL_Driver/Src/stm32f4xx_ll_usb.c:312:3
	ldr	r1, [sp, #12]
	.loc	2 312 24 is_stmt 0              @ ../ThirdParty/STM32F4xx_HAL_Driver/Src/stm32f4xx_ll_usb.c:312:24
	ldr.w	r0, [r1, #2064]
	bic	r0, r0, #256
	str.w	r0, [r1, #2064]
.Ltmp77:
	.loc	2 314 11 is_stmt 1              @ ../ThirdParty/STM32F4xx_HAL_Driver/Src/stm32f4xx_ll_usb.c:314:11
	ldr	r0, [sp, #28]
.Ltmp78:
	.loc	2 314 7 is_stmt 0               @ ../ThirdParty/STM32F4xx_HAL_Driver/Src/stm32f4xx_ll_usb.c:314:7
	cmp	r0, #1
	bne	.LBB5_25
	b	.LBB5_24
.LBB5_24:
.Ltmp79:
	.loc	2 317 5 is_stmt 1               @ ../ThirdParty/STM32F4xx_HAL_Driver/Src/stm32f4xx_ll_usb.c:317:5
	ldr	r1, [sp, #12]
	movw	r0, #256
	movt	r0, #128
	.loc	2 317 26 is_stmt 0              @ ../ThirdParty/STM32F4xx_HAL_Driver/Src/stm32f4xx_ll_usb.c:317:26
	str.w	r0, [r1, #2096]
	.loc	2 318 5 is_stmt 1               @ ../ThirdParty/STM32F4xx_HAL_Driver/Src/stm32f4xx_ll_usb.c:318:5
	ldr	r1, [sp, #12]
	.loc	2 318 26 is_stmt 0              @ ../ThirdParty/STM32F4xx_HAL_Driver/Src/stm32f4xx_ll_usb.c:318:26
	ldr.w	r0, [r1, #2096]
	movs	r2, #3
	movt	r2, #1
	orrs	r0, r2
	str.w	r0, [r1, #2096]
	.loc	2 320 8 is_stmt 1               @ ../ThirdParty/STM32F4xx_HAL_Driver/Src/stm32f4xx_ll_usb.c:320:8
	ldr	r0, [sp, #12]
	.loc	2 320 21 is_stmt 0              @ ../ThirdParty/STM32F4xx_HAL_Driver/Src/stm32f4xx_ll_usb.c:320:21
	ldr.w	r0, [r0, #2096]
	.loc	2 320 6                         @ ../ThirdParty/STM32F4xx_HAL_Driver/Src/stm32f4xx_ll_usb.c:320:6
	str	r0, [sp, #8]
	.loc	2 321 3 is_stmt 1               @ ../ThirdParty/STM32F4xx_HAL_Driver/Src/stm32f4xx_ll_usb.c:321:3
	b	.LBB5_25
.Ltmp80:
.LBB5_25:
	.loc	2 324 3                         @ ../ThirdParty/STM32F4xx_HAL_Driver/Src/stm32f4xx_ll_usb.c:324:3
	ldr	r1, [sp, #12]
	movs	r0, #0
	.loc	2 324 17 is_stmt 0              @ ../ThirdParty/STM32F4xx_HAL_Driver/Src/stm32f4xx_ll_usb.c:324:17
	str	r0, [r1, #24]
	.loc	2 327 3 is_stmt 1               @ ../ThirdParty/STM32F4xx_HAL_Driver/Src/stm32f4xx_ll_usb.c:327:3
	ldr	r1, [sp, #12]
	mvn	r0, #1073741824
	.loc	2 327 17 is_stmt 0              @ ../ThirdParty/STM32F4xx_HAL_Driver/Src/stm32f4xx_ll_usb.c:327:17
	str	r0, [r1, #20]
.Ltmp81:
	.loc	2 330 11 is_stmt 1              @ ../ThirdParty/STM32F4xx_HAL_Driver/Src/stm32f4xx_ll_usb.c:330:11
	ldr	r0, [sp, #28]
.Ltmp82:
	.loc	2 330 7 is_stmt 0               @ ../ThirdParty/STM32F4xx_HAL_Driver/Src/stm32f4xx_ll_usb.c:330:7
	cbnz	r0, .LBB5_27
	b	.LBB5_26
.LBB5_26:
.Ltmp83:
	.loc	2 332 5 is_stmt 1               @ ../ThirdParty/STM32F4xx_HAL_Driver/Src/stm32f4xx_ll_usb.c:332:5
	ldr	r1, [sp, #12]
	.loc	2 332 19 is_stmt 0              @ ../ThirdParty/STM32F4xx_HAL_Driver/Src/stm32f4xx_ll_usb.c:332:19
	ldr	r0, [r1, #24]
	orr	r0, r0, #16
	str	r0, [r1, #24]
	.loc	2 333 3 is_stmt 1               @ ../ThirdParty/STM32F4xx_HAL_Driver/Src/stm32f4xx_ll_usb.c:333:3
	b	.LBB5_27
.Ltmp84:
.LBB5_27:
	.loc	2 336 3                         @ ../ThirdParty/STM32F4xx_HAL_Driver/Src/stm32f4xx_ll_usb.c:336:3
	ldr	r1, [sp, #12]
	.loc	2 336 17 is_stmt 0              @ ../ThirdParty/STM32F4xx_HAL_Driver/Src/stm32f4xx_ll_usb.c:336:17
	ldr	r0, [r1, #24]
	movw	r2, #14336
	movt	r2, #32828
	orrs	r0, r2
	str	r0, [r1, #24]
.Ltmp85:
	.loc	2 341 10 is_stmt 1              @ ../ThirdParty/STM32F4xx_HAL_Driver/Src/stm32f4xx_ll_usb.c:341:10
	ldr	r0, [sp, #40]
.Ltmp86:
	.loc	2 341 6 is_stmt 0               @ ../ThirdParty/STM32F4xx_HAL_Driver/Src/stm32f4xx_ll_usb.c:341:6
	cbz	r0, .LBB5_29
	b	.LBB5_28
.LBB5_28:
.Ltmp87:
	.loc	2 343 5 is_stmt 1               @ ../ThirdParty/STM32F4xx_HAL_Driver/Src/stm32f4xx_ll_usb.c:343:5
	ldr	r1, [sp, #12]
	.loc	2 343 19 is_stmt 0              @ ../ThirdParty/STM32F4xx_HAL_Driver/Src/stm32f4xx_ll_usb.c:343:19
	ldr	r0, [r1, #24]
	orr	r0, r0, #8
	str	r0, [r1, #24]
	.loc	2 344 3 is_stmt 1               @ ../ThirdParty/STM32F4xx_HAL_Driver/Src/stm32f4xx_ll_usb.c:344:3
	b	.LBB5_29
.Ltmp88:
.LBB5_29:
	.loc	2 346 11                        @ ../ThirdParty/STM32F4xx_HAL_Driver/Src/stm32f4xx_ll_usb.c:346:11
	ldr	r0, [sp, #56]
.Ltmp89:
	.loc	2 346 7 is_stmt 0               @ ../ThirdParty/STM32F4xx_HAL_Driver/Src/stm32f4xx_ll_usb.c:346:7
	cmp	r0, #1
	bne	.LBB5_31
	b	.LBB5_30
.LBB5_30:
.Ltmp90:
	.loc	2 348 5 is_stmt 1               @ ../ThirdParty/STM32F4xx_HAL_Driver/Src/stm32f4xx_ll_usb.c:348:5
	ldr	r1, [sp, #12]
	.loc	2 348 19 is_stmt 0              @ ../ThirdParty/STM32F4xx_HAL_Driver/Src/stm32f4xx_ll_usb.c:348:19
	ldr	r0, [r1, #24]
	movs	r2, #4
	movt	r2, #16384
	orrs	r0, r2
	str	r0, [r1, #24]
	.loc	2 349 3 is_stmt 1               @ ../ThirdParty/STM32F4xx_HAL_Driver/Src/stm32f4xx_ll_usb.c:349:3
	b	.LBB5_31
.Ltmp91:
.LBB5_31:
	.loc	2 0 3 is_stmt 0                 @ ../ThirdParty/STM32F4xx_HAL_Driver/Src/stm32f4xx_ll_usb.c:0:3
	movs	r0, #0
	.loc	2 351 3 epilogue_begin is_stmt 1 @ ../ThirdParty/STM32F4xx_HAL_Driver/Src/stm32f4xx_ll_usb.c:351:3
	add	sp, #68
	pop.w	{r4, r5, r6, r7, r8, r9, r10, r11, pc}
.Ltmp92:
.Lfunc_end5:
	.size	USB_DevInit, .Lfunc_end5-USB_DevInit
	.cfi_endproc
	.cantunwind
	.fnend
                                        @ -- End function
	.section	.text.USB_SetDevSpeed,"ax",%progbits
	.hidden	USB_SetDevSpeed                 @ -- Begin function USB_SetDevSpeed
	.globl	USB_SetDevSpeed
	.p2align	2
	.type	USB_SetDevSpeed,%function
	.code	16                              @ @USB_SetDevSpeed
	.thumb_func
USB_SetDevSpeed:
.Lfunc_begin6:
	.loc	2 418 0                         @ ../ThirdParty/STM32F4xx_HAL_Driver/Src/stm32f4xx_ll_usb.c:418:0
	.fnstart
	.cfi_startproc
@ %bb.0:
	.pad	#8
	sub	sp, #8
	.cfi_def_cfa_offset 8
                                        @ kill: def $r2 killed $r1
	str	r0, [sp, #4]
	strb.w	r1, [sp, #3]
.Ltmp93:
	.loc	2 419 24 prologue_end           @ ../ThirdParty/STM32F4xx_HAL_Driver/Src/stm32f4xx_ll_usb.c:419:24
	ldrb.w	r2, [sp, #3]
	.loc	2 419 3 is_stmt 0               @ ../ThirdParty/STM32F4xx_HAL_Driver/Src/stm32f4xx_ll_usb.c:419:3
	ldr	r1, [sp, #4]
	.loc	2 419 21                        @ ../ThirdParty/STM32F4xx_HAL_Driver/Src/stm32f4xx_ll_usb.c:419:21
	ldr.w	r0, [r1, #2048]
	orrs	r0, r2
	str.w	r0, [r1, #2048]
	movs	r0, #0
	.loc	2 420 3 epilogue_begin is_stmt 1 @ ../ThirdParty/STM32F4xx_HAL_Driver/Src/stm32f4xx_ll_usb.c:420:3
	add	sp, #8
	bx	lr
.Ltmp94:
.Lfunc_end6:
	.size	USB_SetDevSpeed, .Lfunc_end6-USB_SetDevSpeed
	.cfi_endproc
	.cantunwind
	.fnend
                                        @ -- End function
	.section	.text.USB_FlushTxFifo,"ax",%progbits
	.hidden	USB_FlushTxFifo                 @ -- Begin function USB_FlushTxFifo
	.globl	USB_FlushTxFifo
	.p2align	2
	.type	USB_FlushTxFifo,%function
	.code	16                              @ @USB_FlushTxFifo
	.thumb_func
USB_FlushTxFifo:
.Lfunc_begin7:
	.loc	2 364 0                         @ ../ThirdParty/STM32F4xx_HAL_Driver/Src/stm32f4xx_ll_usb.c:364:0
	.fnstart
	.cfi_startproc
@ %bb.0:
	.pad	#16
	sub	sp, #16
	.cfi_def_cfa_offset 16
	str	r0, [sp, #8]
	str	r1, [sp, #4]
	movs	r0, #0
.Ltmp95:
	.loc	2 365 12 prologue_end           @ ../ThirdParty/STM32F4xx_HAL_Driver/Src/stm32f4xx_ll_usb.c:365:12
	str	r0, [sp]
	.loc	2 367 58                        @ ../ThirdParty/STM32F4xx_HAL_Driver/Src/stm32f4xx_ll_usb.c:367:58
	ldr	r0, [sp, #4]
	.loc	2 367 62 is_stmt 0              @ ../ThirdParty/STM32F4xx_HAL_Driver/Src/stm32f4xx_ll_usb.c:367:62
	lsls	r0, r0, #6
	.loc	2 367 45                        @ ../ThirdParty/STM32F4xx_HAL_Driver/Src/stm32f4xx_ll_usb.c:367:45
	adds	r0, #32
	.loc	2 367 3                         @ ../ThirdParty/STM32F4xx_HAL_Driver/Src/stm32f4xx_ll_usb.c:367:3
	ldr	r1, [sp, #8]
	.loc	2 367 17                        @ ../ThirdParty/STM32F4xx_HAL_Driver/Src/stm32f4xx_ll_usb.c:367:17
	str	r0, [r1, #16]
	.loc	2 369 3 is_stmt 1               @ ../ThirdParty/STM32F4xx_HAL_Driver/Src/stm32f4xx_ll_usb.c:369:3
	b	.LBB7_1
.LBB7_1:                                @ =>This Inner Loop Header: Depth=1
.Ltmp96:
	.loc	2 371 9                         @ ../ThirdParty/STM32F4xx_HAL_Driver/Src/stm32f4xx_ll_usb.c:371:9
	ldr	r0, [sp]
	adds	r0, #1
	str	r0, [sp]
	movw	r1, #3393
	movt	r1, #3
.Ltmp97:
	.loc	2 371 9 is_stmt 0               @ ../ThirdParty/STM32F4xx_HAL_Driver/Src/stm32f4xx_ll_usb.c:371:9
	cmp	r0, r1
	blo	.LBB7_3
	b	.LBB7_2
.LBB7_2:
	.loc	2 0 9                           @ ../ThirdParty/STM32F4xx_HAL_Driver/Src/stm32f4xx_ll_usb.c:0:9
	movs	r0, #3
.Ltmp98:
	.loc	2 373 7 is_stmt 1               @ ../ThirdParty/STM32F4xx_HAL_Driver/Src/stm32f4xx_ll_usb.c:373:7
	strb.w	r0, [sp, #15]
	b	.LBB7_6
.Ltmp99:
.LBB7_3:                                @   in Loop: Header=BB7_1 Depth=1
	.loc	2 375 3                         @ ../ThirdParty/STM32F4xx_HAL_Driver/Src/stm32f4xx_ll_usb.c:375:3
	b	.LBB7_4
.Ltmp100:
.LBB7_4:                                @   in Loop: Header=BB7_1 Depth=1
	.loc	2 376 11                        @ ../ThirdParty/STM32F4xx_HAL_Driver/Src/stm32f4xx_ll_usb.c:376:11
	ldr	r0, [sp, #8]
	.loc	2 376 17 is_stmt 0              @ ../ThirdParty/STM32F4xx_HAL_Driver/Src/stm32f4xx_ll_usb.c:376:17
	ldr	r0, [r0, #16]
	.loc	2 376 25                        @ ../ThirdParty/STM32F4xx_HAL_Driver/Src/stm32f4xx_ll_usb.c:376:25
	and	r0, r0, #32
.Ltmp101:
	.loc	2 375 3 is_stmt 1               @ ../ThirdParty/STM32F4xx_HAL_Driver/Src/stm32f4xx_ll_usb.c:375:3
	cmp	r0, #32
	beq	.LBB7_1
	b	.LBB7_5
.Ltmp102:
.LBB7_5:
	.loc	2 0 3 is_stmt 0                 @ ../ThirdParty/STM32F4xx_HAL_Driver/Src/stm32f4xx_ll_usb.c:0:3
	movs	r0, #0
	.loc	2 378 3 is_stmt 1               @ ../ThirdParty/STM32F4xx_HAL_Driver/Src/stm32f4xx_ll_usb.c:378:3
	strb.w	r0, [sp, #15]
	b	.LBB7_6
.LBB7_6:
	.loc	2 379 1                         @ ../ThirdParty/STM32F4xx_HAL_Driver/Src/stm32f4xx_ll_usb.c:379:1
	ldrb.w	r0, [sp, #15]
	.loc	2 379 1 epilogue_begin is_stmt 0 @ ../ThirdParty/STM32F4xx_HAL_Driver/Src/stm32f4xx_ll_usb.c:379:1
	add	sp, #16
	bx	lr
.Ltmp103:
.Lfunc_end7:
	.size	USB_FlushTxFifo, .Lfunc_end7-USB_FlushTxFifo
	.cfi_endproc
	.cantunwind
	.fnend
                                        @ -- End function
	.section	.text.USB_FlushRxFifo,"ax",%progbits
	.hidden	USB_FlushRxFifo                 @ -- Begin function USB_FlushRxFifo
	.globl	USB_FlushRxFifo
	.p2align	2
	.type	USB_FlushRxFifo,%function
	.code	16                              @ @USB_FlushRxFifo
	.thumb_func
USB_FlushRxFifo:
.Lfunc_begin8:
	.loc	2 388 0 is_stmt 1               @ ../ThirdParty/STM32F4xx_HAL_Driver/Src/stm32f4xx_ll_usb.c:388:0
	.fnstart
	.cfi_startproc
@ %bb.0:
	.pad	#12
	sub	sp, #12
	.cfi_def_cfa_offset 12
	str	r0, [sp, #4]
	movs	r0, #0
.Ltmp104:
	.loc	2 389 12 prologue_end           @ ../ThirdParty/STM32F4xx_HAL_Driver/Src/stm32f4xx_ll_usb.c:389:12
	str	r0, [sp]
	.loc	2 391 3                         @ ../ThirdParty/STM32F4xx_HAL_Driver/Src/stm32f4xx_ll_usb.c:391:3
	ldr	r1, [sp, #4]
	movs	r0, #16
	.loc	2 391 17 is_stmt 0              @ ../ThirdParty/STM32F4xx_HAL_Driver/Src/stm32f4xx_ll_usb.c:391:17
	str	r0, [r1, #16]
	.loc	2 393 3 is_stmt 1               @ ../ThirdParty/STM32F4xx_HAL_Driver/Src/stm32f4xx_ll_usb.c:393:3
	b	.LBB8_1
.LBB8_1:                                @ =>This Inner Loop Header: Depth=1
.Ltmp105:
	.loc	2 395 9                         @ ../ThirdParty/STM32F4xx_HAL_Driver/Src/stm32f4xx_ll_usb.c:395:9
	ldr	r0, [sp]
	adds	r0, #1
	str	r0, [sp]
	movw	r1, #3393
	movt	r1, #3
.Ltmp106:
	.loc	2 395 9 is_stmt 0               @ ../ThirdParty/STM32F4xx_HAL_Driver/Src/stm32f4xx_ll_usb.c:395:9
	cmp	r0, r1
	blo	.LBB8_3
	b	.LBB8_2
.LBB8_2:
	.loc	2 0 9                           @ ../ThirdParty/STM32F4xx_HAL_Driver/Src/stm32f4xx_ll_usb.c:0:9
	movs	r0, #3
.Ltmp107:
	.loc	2 397 7 is_stmt 1               @ ../ThirdParty/STM32F4xx_HAL_Driver/Src/stm32f4xx_ll_usb.c:397:7
	strb.w	r0, [sp, #11]
	b	.LBB8_6
.Ltmp108:
.LBB8_3:                                @   in Loop: Header=BB8_1 Depth=1
	.loc	2 399 3                         @ ../ThirdParty/STM32F4xx_HAL_Driver/Src/stm32f4xx_ll_usb.c:399:3
	b	.LBB8_4
.Ltmp109:
.LBB8_4:                                @   in Loop: Header=BB8_1 Depth=1
	.loc	2 400 11                        @ ../ThirdParty/STM32F4xx_HAL_Driver/Src/stm32f4xx_ll_usb.c:400:11
	ldr	r0, [sp, #4]
	.loc	2 400 17 is_stmt 0              @ ../ThirdParty/STM32F4xx_HAL_Driver/Src/stm32f4xx_ll_usb.c:400:17
	ldr	r0, [r0, #16]
	.loc	2 400 25                        @ ../ThirdParty/STM32F4xx_HAL_Driver/Src/stm32f4xx_ll_usb.c:400:25
	and	r0, r0, #16
.Ltmp110:
	.loc	2 399 3 is_stmt 1               @ ../ThirdParty/STM32F4xx_HAL_Driver/Src/stm32f4xx_ll_usb.c:399:3
	cmp	r0, #16
	beq	.LBB8_1
	b	.LBB8_5
.Ltmp111:
.LBB8_5:
	.loc	2 0 3 is_stmt 0                 @ ../ThirdParty/STM32F4xx_HAL_Driver/Src/stm32f4xx_ll_usb.c:0:3
	movs	r0, #0
	.loc	2 402 3 is_stmt 1               @ ../ThirdParty/STM32F4xx_HAL_Driver/Src/stm32f4xx_ll_usb.c:402:3
	strb.w	r0, [sp, #11]
	b	.LBB8_6
.LBB8_6:
	.loc	2 403 1                         @ ../ThirdParty/STM32F4xx_HAL_Driver/Src/stm32f4xx_ll_usb.c:403:1
	ldrb.w	r0, [sp, #11]
	.loc	2 403 1 epilogue_begin is_stmt 0 @ ../ThirdParty/STM32F4xx_HAL_Driver/Src/stm32f4xx_ll_usb.c:403:1
	add	sp, #12
	bx	lr
.Ltmp112:
.Lfunc_end8:
	.size	USB_FlushRxFifo, .Lfunc_end8-USB_FlushRxFifo
	.cfi_endproc
	.cantunwind
	.fnend
                                        @ -- End function
	.section	.text.USB_GetDevSpeed,"ax",%progbits
	.hidden	USB_GetDevSpeed                 @ -- Begin function USB_GetDevSpeed
	.globl	USB_GetDevSpeed
	.p2align	2
	.type	USB_GetDevSpeed,%function
	.code	16                              @ @USB_GetDevSpeed
	.thumb_func
USB_GetDevSpeed:
.Lfunc_begin9:
	.loc	2 433 0 is_stmt 1               @ ../ThirdParty/STM32F4xx_HAL_Driver/Src/stm32f4xx_ll_usb.c:433:0
	.fnstart
	.cfi_startproc
@ %bb.0:
	.pad	#8
	sub	sp, #8
	.cfi_def_cfa_offset 8
	str	r0, [sp, #4]
	movs	r0, #0
.Ltmp113:
	.loc	2 434 11 prologue_end           @ ../ThirdParty/STM32F4xx_HAL_Driver/Src/stm32f4xx_ll_usb.c:434:11
	strb.w	r0, [sp, #3]
.Ltmp114:
	.loc	2 436 7                         @ ../ThirdParty/STM32F4xx_HAL_Driver/Src/stm32f4xx_ll_usb.c:436:7
	ldr	r0, [sp, #4]
	.loc	2 436 20 is_stmt 0              @ ../ThirdParty/STM32F4xx_HAL_Driver/Src/stm32f4xx_ll_usb.c:436:20
	ldr.w	r0, [r0, #2056]
.Ltmp115:
	.loc	2 436 6                         @ ../ThirdParty/STM32F4xx_HAL_Driver/Src/stm32f4xx_ll_usb.c:436:6
	tst.w	r0, #6
	bne	.LBB9_2
	b	.LBB9_1
.LBB9_1:
	.loc	2 0 6                           @ ../ThirdParty/STM32F4xx_HAL_Driver/Src/stm32f4xx_ll_usb.c:0:6
	movs	r0, #0
.Ltmp116:
	.loc	2 438 11 is_stmt 1              @ ../ThirdParty/STM32F4xx_HAL_Driver/Src/stm32f4xx_ll_usb.c:438:11
	strb.w	r0, [sp, #3]
	.loc	2 439 3                         @ ../ThirdParty/STM32F4xx_HAL_Driver/Src/stm32f4xx_ll_usb.c:439:3
	b	.LBB9_9
.Ltmp117:
.LBB9_2:
	.loc	2 440 14                        @ ../ThirdParty/STM32F4xx_HAL_Driver/Src/stm32f4xx_ll_usb.c:440:14
	ldr	r0, [sp, #4]
	.loc	2 440 27 is_stmt 0              @ ../ThirdParty/STM32F4xx_HAL_Driver/Src/stm32f4xx_ll_usb.c:440:27
	ldr.w	r0, [r0, #2056]
	.loc	2 440 32                        @ ../ThirdParty/STM32F4xx_HAL_Driver/Src/stm32f4xx_ll_usb.c:440:32
	and	r0, r0, #6
	.loc	2 440 94                        @ ../ThirdParty/STM32F4xx_HAL_Driver/Src/stm32f4xx_ll_usb.c:440:94
	cmp	r0, #2
	beq	.LBB9_4
	b	.LBB9_3
.LBB9_3:
	.loc	2 441 14 is_stmt 1              @ ../ThirdParty/STM32F4xx_HAL_Driver/Src/stm32f4xx_ll_usb.c:441:14
	ldr	r0, [sp, #4]
	.loc	2 441 27 is_stmt 0              @ ../ThirdParty/STM32F4xx_HAL_Driver/Src/stm32f4xx_ll_usb.c:441:27
	ldr.w	r0, [r0, #2056]
	.loc	2 441 32                        @ ../ThirdParty/STM32F4xx_HAL_Driver/Src/stm32f4xx_ll_usb.c:441:32
	and	r0, r0, #6
.Ltmp118:
	.loc	2 440 12 is_stmt 1              @ ../ThirdParty/STM32F4xx_HAL_Driver/Src/stm32f4xx_ll_usb.c:440:12
	cmp	r0, #6
	bne	.LBB9_5
	b	.LBB9_4
.LBB9_4:
	.loc	2 0 12 is_stmt 0                @ ../ThirdParty/STM32F4xx_HAL_Driver/Src/stm32f4xx_ll_usb.c:0:12
	movs	r0, #3
.Ltmp119:
	.loc	2 443 11 is_stmt 1              @ ../ThirdParty/STM32F4xx_HAL_Driver/Src/stm32f4xx_ll_usb.c:443:11
	strb.w	r0, [sp, #3]
	.loc	2 444 3                         @ ../ThirdParty/STM32F4xx_HAL_Driver/Src/stm32f4xx_ll_usb.c:444:3
	b	.LBB9_8
.Ltmp120:
.LBB9_5:
	.loc	2 445 12                        @ ../ThirdParty/STM32F4xx_HAL_Driver/Src/stm32f4xx_ll_usb.c:445:12
	ldr	r0, [sp, #4]
	.loc	2 445 25 is_stmt 0              @ ../ThirdParty/STM32F4xx_HAL_Driver/Src/stm32f4xx_ll_usb.c:445:25
	ldr.w	r0, [r0, #2056]
	.loc	2 445 30                        @ ../ThirdParty/STM32F4xx_HAL_Driver/Src/stm32f4xx_ll_usb.c:445:30
	and	r0, r0, #6
.Ltmp121:
	.loc	2 445 11                        @ ../ThirdParty/STM32F4xx_HAL_Driver/Src/stm32f4xx_ll_usb.c:445:11
	cmp	r0, #4
	bne	.LBB9_7
	b	.LBB9_6
.LBB9_6:
	.loc	2 0 11                          @ ../ThirdParty/STM32F4xx_HAL_Driver/Src/stm32f4xx_ll_usb.c:0:11
	movs	r0, #2
.Ltmp122:
	.loc	2 447 11 is_stmt 1              @ ../ThirdParty/STM32F4xx_HAL_Driver/Src/stm32f4xx_ll_usb.c:447:11
	strb.w	r0, [sp, #3]
	.loc	2 448 3                         @ ../ThirdParty/STM32F4xx_HAL_Driver/Src/stm32f4xx_ll_usb.c:448:3
	b	.LBB9_7
.Ltmp123:
.LBB9_7:
	.loc	2 0 3 is_stmt 0                 @ ../ThirdParty/STM32F4xx_HAL_Driver/Src/stm32f4xx_ll_usb.c:0:3
	b	.LBB9_8
.LBB9_8:
	b	.LBB9_9
.LBB9_9:
	.loc	2 450 10 is_stmt 1              @ ../ThirdParty/STM32F4xx_HAL_Driver/Src/stm32f4xx_ll_usb.c:450:10
	ldrb.w	r0, [sp, #3]
	.loc	2 450 3 epilogue_begin is_stmt 0 @ ../ThirdParty/STM32F4xx_HAL_Driver/Src/stm32f4xx_ll_usb.c:450:3
	add	sp, #8
	bx	lr
.Ltmp124:
.Lfunc_end9:
	.size	USB_GetDevSpeed, .Lfunc_end9-USB_GetDevSpeed
	.cfi_endproc
	.cantunwind
	.fnend
                                        @ -- End function
	.section	.text.USB_ActivateEndpoint,"ax",%progbits
	.hidden	USB_ActivateEndpoint            @ -- Begin function USB_ActivateEndpoint
	.globl	USB_ActivateEndpoint
	.p2align	2
	.type	USB_ActivateEndpoint,%function
	.code	16                              @ @USB_ActivateEndpoint
	.thumb_func
USB_ActivateEndpoint:
.Lfunc_begin10:
	.loc	2 460 0 is_stmt 1               @ ../ThirdParty/STM32F4xx_HAL_Driver/Src/stm32f4xx_ll_usb.c:460:0
	.fnstart
	.cfi_startproc
@ %bb.0:
	.pad	#8
	sub	sp, #8
	.cfi_def_cfa_offset 8
	str	r0, [sp, #4]
	str	r1, [sp]
.Ltmp125:
	.loc	2 461 7 prologue_end            @ ../ThirdParty/STM32F4xx_HAL_Driver/Src/stm32f4xx_ll_usb.c:461:7
	ldr	r0, [sp]
	.loc	2 461 11 is_stmt 0              @ ../ThirdParty/STM32F4xx_HAL_Driver/Src/stm32f4xx_ll_usb.c:461:11
	ldrb	r0, [r0, #1]
.Ltmp126:
	.loc	2 461 7                         @ ../ThirdParty/STM32F4xx_HAL_Driver/Src/stm32f4xx_ll_usb.c:461:7
	cmp	r0, #1
	bne	.LBB10_4
	b	.LBB10_1
.LBB10_1:
.Ltmp127:
	.loc	2 463 62 is_stmt 1              @ ../ThirdParty/STM32F4xx_HAL_Driver/Src/stm32f4xx_ll_usb.c:463:62
	ldr	r0, [sp]
	.loc	2 463 66 is_stmt 0              @ ../ThirdParty/STM32F4xx_HAL_Driver/Src/stm32f4xx_ll_usb.c:463:66
	ldrb	r1, [r0]
	movs	r0, #1
	.loc	2 463 58                        @ ../ThirdParty/STM32F4xx_HAL_Driver/Src/stm32f4xx_ll_usb.c:463:58
	lsls	r0, r1
	.loc	2 463 51                        @ ../ThirdParty/STM32F4xx_HAL_Driver/Src/stm32f4xx_ll_usb.c:463:51
	uxth	r2, r0
	.loc	2 463 4                         @ ../ThirdParty/STM32F4xx_HAL_Driver/Src/stm32f4xx_ll_usb.c:463:4
	ldr	r1, [sp, #4]
	.loc	2 463 26                        @ ../ThirdParty/STM32F4xx_HAL_Driver/Src/stm32f4xx_ll_usb.c:463:26
	ldr.w	r0, [r1, #2076]
	orrs	r0, r2
	str.w	r0, [r1, #2076]
.Ltmp128:
	.loc	2 465 11 is_stmt 1              @ ../ThirdParty/STM32F4xx_HAL_Driver/Src/stm32f4xx_ll_usb.c:465:11
	ldr	r0, [sp, #4]
	ldr	r1, [sp]
	ldrb	r1, [r1]
	add.w	r0, r0, r1, lsl #5
	.loc	2 465 31 is_stmt 0              @ ../ThirdParty/STM32F4xx_HAL_Driver/Src/stm32f4xx_ll_usb.c:465:31
	ldr.w	r0, [r0, #2304]
.Ltmp129:
	.loc	2 465 9                         @ ../ThirdParty/STM32F4xx_HAL_Driver/Src/stm32f4xx_ll_usb.c:465:9
	lsls	r0, r0, #16
	cmp	r0, #0
	bmi	.LBB10_3
	b	.LBB10_2
.LBB10_2:
.Ltmp130:
	.loc	2 467 40 is_stmt 1              @ ../ThirdParty/STM32F4xx_HAL_Driver/Src/stm32f4xx_ll_usb.c:467:40
	ldr	r1, [sp]
	.loc	2 467 44 is_stmt 0              @ ../ThirdParty/STM32F4xx_HAL_Driver/Src/stm32f4xx_ll_usb.c:467:44
	ldr	r0, [r1, #8]
	.loc	2 467 54                        @ ../ThirdParty/STM32F4xx_HAL_Driver/Src/stm32f4xx_ll_usb.c:467:54
	bfc	r0, #11, #21
	.loc	2 468 15 is_stmt 1              @ ../ThirdParty/STM32F4xx_HAL_Driver/Src/stm32f4xx_ll_usb.c:468:15
	ldrb	r2, [r1]
	.loc	2 467 87                        @ ../ThirdParty/STM32F4xx_HAL_Driver/Src/stm32f4xx_ll_usb.c:467:87
	ldrb	r1, [r1, #3]
	.loc	2 467 80 is_stmt 0              @ ../ThirdParty/STM32F4xx_HAL_Driver/Src/stm32f4xx_ll_usb.c:467:80
	orr.w	r0, r0, r1, lsl #18
	.loc	2 467 100                       @ ../ThirdParty/STM32F4xx_HAL_Driver/Src/stm32f4xx_ll_usb.c:467:100
	orr.w	r0, r0, r2, lsl #22
	.loc	2 467 7                         @ ../ThirdParty/STM32F4xx_HAL_Driver/Src/stm32f4xx_ll_usb.c:467:7
	ldr	r1, [sp, #4]
	add.w	r1, r1, r2, lsl #5
	.loc	2 467 35                        @ ../ThirdParty/STM32F4xx_HAL_Driver/Src/stm32f4xx_ll_usb.c:467:35
	ldr.w	r2, [r1, #2304]
	.loc	2 468 28 is_stmt 1              @ ../ThirdParty/STM32F4xx_HAL_Driver/Src/stm32f4xx_ll_usb.c:468:28
	orrs	r0, r2
	movw	r2, #32768
	movt	r2, #4096
	.loc	2 467 35                        @ ../ThirdParty/STM32F4xx_HAL_Driver/Src/stm32f4xx_ll_usb.c:467:35
	orrs	r0, r2
	str.w	r0, [r1, #2304]
	.loc	2 469 5                         @ ../ThirdParty/STM32F4xx_HAL_Driver/Src/stm32f4xx_ll_usb.c:469:5
	b	.LBB10_3
.Ltmp131:
.LBB10_3:
	.loc	2 470 3                         @ ../ThirdParty/STM32F4xx_HAL_Driver/Src/stm32f4xx_ll_usb.c:470:3
	b	.LBB10_7
.Ltmp132:
.LBB10_4:
	.loc	2 473 64                        @ ../ThirdParty/STM32F4xx_HAL_Driver/Src/stm32f4xx_ll_usb.c:473:64
	ldr	r0, [sp]
	.loc	2 473 68 is_stmt 0              @ ../ThirdParty/STM32F4xx_HAL_Driver/Src/stm32f4xx_ll_usb.c:473:68
	ldrb	r1, [r0]
	movs	r0, #1
	.loc	2 473 60                        @ ../ThirdParty/STM32F4xx_HAL_Driver/Src/stm32f4xx_ll_usb.c:473:60
	lsl.w	r2, r0, r1
	.loc	2 473 6                         @ ../ThirdParty/STM32F4xx_HAL_Driver/Src/stm32f4xx_ll_usb.c:473:6
	ldr	r1, [sp, #4]
	.loc	2 473 28                        @ ../ThirdParty/STM32F4xx_HAL_Driver/Src/stm32f4xx_ll_usb.c:473:28
	ldr.w	r0, [r1, #2076]
	orr.w	r0, r0, r2, lsl #16
	str.w	r0, [r1, #2076]
.Ltmp133:
	.loc	2 475 11 is_stmt 1              @ ../ThirdParty/STM32F4xx_HAL_Driver/Src/stm32f4xx_ll_usb.c:475:11
	ldr	r0, [sp, #4]
	ldr	r1, [sp]
	ldrb	r1, [r1]
	add.w	r0, r0, r1, lsl #5
	.loc	2 475 32 is_stmt 0              @ ../ThirdParty/STM32F4xx_HAL_Driver/Src/stm32f4xx_ll_usb.c:475:32
	ldr.w	r0, [r0, #2816]
.Ltmp134:
	.loc	2 475 9                         @ ../ThirdParty/STM32F4xx_HAL_Driver/Src/stm32f4xx_ll_usb.c:475:9
	lsls	r0, r0, #16
	cmp	r0, #0
	bmi	.LBB10_6
	b	.LBB10_5
.LBB10_5:
.Ltmp135:
	.loc	2 477 41 is_stmt 1              @ ../ThirdParty/STM32F4xx_HAL_Driver/Src/stm32f4xx_ll_usb.c:477:41
	ldr	r1, [sp]
	.loc	2 477 45 is_stmt 0              @ ../ThirdParty/STM32F4xx_HAL_Driver/Src/stm32f4xx_ll_usb.c:477:45
	ldr	r0, [r1, #8]
	.loc	2 477 55                        @ ../ThirdParty/STM32F4xx_HAL_Driver/Src/stm32f4xx_ll_usb.c:477:55
	bfc	r0, #11, #21
	.loc	2 477 7                         @ ../ThirdParty/STM32F4xx_HAL_Driver/Src/stm32f4xx_ll_usb.c:477:7
	ldrb	r2, [r1]
	.loc	2 477 88                        @ ../ThirdParty/STM32F4xx_HAL_Driver/Src/stm32f4xx_ll_usb.c:477:88
	ldrb	r1, [r1, #3]
	.loc	2 477 81                        @ ../ThirdParty/STM32F4xx_HAL_Driver/Src/stm32f4xx_ll_usb.c:477:81
	orr.w	r0, r0, r1, lsl #18
	.loc	2 477 7                         @ ../ThirdParty/STM32F4xx_HAL_Driver/Src/stm32f4xx_ll_usb.c:477:7
	ldr	r1, [sp, #4]
	add.w	r1, r1, r2, lsl #5
	.loc	2 477 36                        @ ../ThirdParty/STM32F4xx_HAL_Driver/Src/stm32f4xx_ll_usb.c:477:36
	ldr.w	r2, [r1, #2816]
	.loc	2 477 101                       @ ../ThirdParty/STM32F4xx_HAL_Driver/Src/stm32f4xx_ll_usb.c:477:101
	orrs	r0, r2
	movw	r2, #32768
	movt	r2, #4096
	.loc	2 477 36                        @ ../ThirdParty/STM32F4xx_HAL_Driver/Src/stm32f4xx_ll_usb.c:477:36
	orrs	r0, r2
	str.w	r0, [r1, #2816]
	.loc	2 479 5 is_stmt 1               @ ../ThirdParty/STM32F4xx_HAL_Driver/Src/stm32f4xx_ll_usb.c:479:5
	b	.LBB10_6
.Ltmp136:
.LBB10_6:
	.loc	2 0 5 is_stmt 0                 @ ../ThirdParty/STM32F4xx_HAL_Driver/Src/stm32f4xx_ll_usb.c:0:5
	b	.LBB10_7
.LBB10_7:
	movs	r0, #0
	.loc	2 481 3 epilogue_begin is_stmt 1 @ ../ThirdParty/STM32F4xx_HAL_Driver/Src/stm32f4xx_ll_usb.c:481:3
	add	sp, #8
	bx	lr
.Ltmp137:
.Lfunc_end10:
	.size	USB_ActivateEndpoint, .Lfunc_end10-USB_ActivateEndpoint
	.cfi_endproc
	.cantunwind
	.fnend
                                        @ -- End function
	.section	.text.USB_ActivateDedicatedEndpoint,"ax",%progbits
	.hidden	USB_ActivateDedicatedEndpoint   @ -- Begin function USB_ActivateDedicatedEndpoint
	.globl	USB_ActivateDedicatedEndpoint
	.p2align	2
	.type	USB_ActivateDedicatedEndpoint,%function
	.code	16                              @ @USB_ActivateDedicatedEndpoint
	.thumb_func
USB_ActivateDedicatedEndpoint:
.Lfunc_begin11:
	.loc	2 490 0                         @ ../ThirdParty/STM32F4xx_HAL_Driver/Src/stm32f4xx_ll_usb.c:490:0
	.fnstart
	.cfi_startproc
@ %bb.0:
	.pad	#8
	sub	sp, #8
	.cfi_def_cfa_offset 8
	str	r0, [sp, #4]
	str	r1, [sp]
.Ltmp138:
	.loc	2 494 7 prologue_end            @ ../ThirdParty/STM32F4xx_HAL_Driver/Src/stm32f4xx_ll_usb.c:494:7
	ldr	r0, [sp]
	.loc	2 494 11 is_stmt 0              @ ../ThirdParty/STM32F4xx_HAL_Driver/Src/stm32f4xx_ll_usb.c:494:11
	ldrb	r0, [r0, #1]
.Ltmp139:
	.loc	2 494 7                         @ ../ThirdParty/STM32F4xx_HAL_Driver/Src/stm32f4xx_ll_usb.c:494:7
	cmp	r0, #1
	bne	.LBB11_4
	b	.LBB11_1
.LBB11_1:
.Ltmp140:
	.loc	2 496 11 is_stmt 1              @ ../ThirdParty/STM32F4xx_HAL_Driver/Src/stm32f4xx_ll_usb.c:496:11
	ldr	r0, [sp, #4]
	ldr	r1, [sp]
	ldrb	r1, [r1]
	add.w	r0, r0, r1, lsl #5
	.loc	2 496 31 is_stmt 0              @ ../ThirdParty/STM32F4xx_HAL_Driver/Src/stm32f4xx_ll_usb.c:496:31
	ldr.w	r0, [r0, #2304]
.Ltmp141:
	.loc	2 496 9                         @ ../ThirdParty/STM32F4xx_HAL_Driver/Src/stm32f4xx_ll_usb.c:496:9
	lsls	r0, r0, #16
	cmp	r0, #0
	bmi	.LBB11_3
	b	.LBB11_2
.LBB11_2:
.Ltmp142:
	.loc	2 498 40 is_stmt 1              @ ../ThirdParty/STM32F4xx_HAL_Driver/Src/stm32f4xx_ll_usb.c:498:40
	ldr	r1, [sp]
	.loc	2 498 44 is_stmt 0              @ ../ThirdParty/STM32F4xx_HAL_Driver/Src/stm32f4xx_ll_usb.c:498:44
	ldr	r0, [r1, #8]
	.loc	2 498 54                        @ ../ThirdParty/STM32F4xx_HAL_Driver/Src/stm32f4xx_ll_usb.c:498:54
	bfc	r0, #11, #21
	.loc	2 499 15 is_stmt 1              @ ../ThirdParty/STM32F4xx_HAL_Driver/Src/stm32f4xx_ll_usb.c:499:15
	ldrb	r2, [r1]
	.loc	2 498 87                        @ ../ThirdParty/STM32F4xx_HAL_Driver/Src/stm32f4xx_ll_usb.c:498:87
	ldrb	r1, [r1, #3]
	.loc	2 498 80 is_stmt 0              @ ../ThirdParty/STM32F4xx_HAL_Driver/Src/stm32f4xx_ll_usb.c:498:80
	orr.w	r0, r0, r1, lsl #18
	.loc	2 498 100                       @ ../ThirdParty/STM32F4xx_HAL_Driver/Src/stm32f4xx_ll_usb.c:498:100
	orr.w	r0, r0, r2, lsl #22
	.loc	2 498 7                         @ ../ThirdParty/STM32F4xx_HAL_Driver/Src/stm32f4xx_ll_usb.c:498:7
	ldr	r1, [sp, #4]
	add.w	r1, r1, r2, lsl #5
	.loc	2 498 35                        @ ../ThirdParty/STM32F4xx_HAL_Driver/Src/stm32f4xx_ll_usb.c:498:35
	ldr.w	r2, [r1, #2304]
	.loc	2 499 28 is_stmt 1              @ ../ThirdParty/STM32F4xx_HAL_Driver/Src/stm32f4xx_ll_usb.c:499:28
	orrs	r0, r2
	movw	r2, #32768
	movt	r2, #4096
	.loc	2 498 35                        @ ../ThirdParty/STM32F4xx_HAL_Driver/Src/stm32f4xx_ll_usb.c:498:35
	orrs	r0, r2
	str.w	r0, [r1, #2304]
	.loc	2 500 5                         @ ../ThirdParty/STM32F4xx_HAL_Driver/Src/stm32f4xx_ll_usb.c:500:5
	b	.LBB11_3
.Ltmp143:
.LBB11_3:
	.loc	2 503 17                        @ ../ThirdParty/STM32F4xx_HAL_Driver/Src/stm32f4xx_ll_usb.c:503:17
	ldr	r2, [sp]
	.loc	2 503 21 is_stmt 0              @ ../ThirdParty/STM32F4xx_HAL_Driver/Src/stm32f4xx_ll_usb.c:503:21
	ldr	r0, [r2, #8]
	.loc	2 503 31                        @ ../ThirdParty/STM32F4xx_HAL_Driver/Src/stm32f4xx_ll_usb.c:503:31
	bfc	r0, #11, #21
	.loc	2 504 15 is_stmt 1              @ ../ThirdParty/STM32F4xx_HAL_Driver/Src/stm32f4xx_ll_usb.c:504:15
	ldrb	r1, [r2]
	.loc	2 503 64                        @ ../ThirdParty/STM32F4xx_HAL_Driver/Src/stm32f4xx_ll_usb.c:503:64
	ldrb	r2, [r2, #3]
	.loc	2 503 57 is_stmt 0              @ ../ThirdParty/STM32F4xx_HAL_Driver/Src/stm32f4xx_ll_usb.c:503:57
	orr.w	r0, r0, r2, lsl #18
	.loc	2 503 77                        @ ../ThirdParty/STM32F4xx_HAL_Driver/Src/stm32f4xx_ll_usb.c:503:77
	orr.w	r0, r0, r1, lsl #22
	.loc	2 503 12                        @ ../ThirdParty/STM32F4xx_HAL_Driver/Src/stm32f4xx_ll_usb.c:503:12
	movw	r1, :lower16:USB_ActivateDedicatedEndpoint.debug
	movt	r1, :upper16:USB_ActivateDedicatedEndpoint.debug
	ldr	r2, [r1]
	.loc	2 504 28 is_stmt 1              @ ../ThirdParty/STM32F4xx_HAL_Driver/Src/stm32f4xx_ll_usb.c:504:28
	orrs	r0, r2
	movw	r2, #32768
	movt	r2, #4096
	.loc	2 503 12                        @ ../ThirdParty/STM32F4xx_HAL_Driver/Src/stm32f4xx_ll_usb.c:503:12
	orrs	r0, r2
	str	r0, [r1]
	.loc	2 506 62                        @ ../ThirdParty/STM32F4xx_HAL_Driver/Src/stm32f4xx_ll_usb.c:506:62
	ldr	r0, [sp]
	.loc	2 506 66 is_stmt 0              @ ../ThirdParty/STM32F4xx_HAL_Driver/Src/stm32f4xx_ll_usb.c:506:66
	ldrb	r1, [r0]
	movs	r0, #1
	.loc	2 506 58                        @ ../ThirdParty/STM32F4xx_HAL_Driver/Src/stm32f4xx_ll_usb.c:506:58
	lsls	r0, r1
	.loc	2 506 51                        @ ../ThirdParty/STM32F4xx_HAL_Driver/Src/stm32f4xx_ll_usb.c:506:51
	uxth	r2, r0
	.loc	2 506 4                         @ ../ThirdParty/STM32F4xx_HAL_Driver/Src/stm32f4xx_ll_usb.c:506:4
	ldr	r1, [sp, #4]
	.loc	2 506 26                        @ ../ThirdParty/STM32F4xx_HAL_Driver/Src/stm32f4xx_ll_usb.c:506:26
	ldr.w	r0, [r1, #2108]
	orrs	r0, r2
	str.w	r0, [r1, #2108]
	.loc	2 507 3 is_stmt 1               @ ../ThirdParty/STM32F4xx_HAL_Driver/Src/stm32f4xx_ll_usb.c:507:3
	b	.LBB11_7
.Ltmp144:
.LBB11_4:
	.loc	2 510 11                        @ ../ThirdParty/STM32F4xx_HAL_Driver/Src/stm32f4xx_ll_usb.c:510:11
	ldr	r0, [sp, #4]
	ldr	r1, [sp]
	ldrb	r1, [r1]
	add.w	r0, r0, r1, lsl #5
	.loc	2 510 32 is_stmt 0              @ ../ThirdParty/STM32F4xx_HAL_Driver/Src/stm32f4xx_ll_usb.c:510:32
	ldr.w	r0, [r0, #2816]
.Ltmp145:
	.loc	2 510 9                         @ ../ThirdParty/STM32F4xx_HAL_Driver/Src/stm32f4xx_ll_usb.c:510:9
	lsls	r0, r0, #16
	cmp	r0, #0
	bmi	.LBB11_6
	b	.LBB11_5
.LBB11_5:
.Ltmp146:
	.loc	2 512 41 is_stmt 1              @ ../ThirdParty/STM32F4xx_HAL_Driver/Src/stm32f4xx_ll_usb.c:512:41
	ldr	r1, [sp]
	.loc	2 512 45 is_stmt 0              @ ../ThirdParty/STM32F4xx_HAL_Driver/Src/stm32f4xx_ll_usb.c:512:45
	ldr	r0, [r1, #8]
	.loc	2 512 55                        @ ../ThirdParty/STM32F4xx_HAL_Driver/Src/stm32f4xx_ll_usb.c:512:55
	bfc	r0, #11, #21
	.loc	2 513 15 is_stmt 1              @ ../ThirdParty/STM32F4xx_HAL_Driver/Src/stm32f4xx_ll_usb.c:513:15
	ldrb	r2, [r1]
	.loc	2 512 88                        @ ../ThirdParty/STM32F4xx_HAL_Driver/Src/stm32f4xx_ll_usb.c:512:88
	ldrb	r1, [r1, #3]
	.loc	2 512 81 is_stmt 0              @ ../ThirdParty/STM32F4xx_HAL_Driver/Src/stm32f4xx_ll_usb.c:512:81
	orr.w	r0, r0, r1, lsl #18
	.loc	2 512 101                       @ ../ThirdParty/STM32F4xx_HAL_Driver/Src/stm32f4xx_ll_usb.c:512:101
	orr.w	r0, r0, r2, lsl #22
	.loc	2 512 7                         @ ../ThirdParty/STM32F4xx_HAL_Driver/Src/stm32f4xx_ll_usb.c:512:7
	ldr	r1, [sp, #4]
	add.w	r1, r1, r2, lsl #5
	.loc	2 512 36                        @ ../ThirdParty/STM32F4xx_HAL_Driver/Src/stm32f4xx_ll_usb.c:512:36
	ldr.w	r2, [r1, #2816]
	.loc	2 513 28 is_stmt 1              @ ../ThirdParty/STM32F4xx_HAL_Driver/Src/stm32f4xx_ll_usb.c:513:28
	orrs	r0, r2
	.loc	2 512 36                        @ ../ThirdParty/STM32F4xx_HAL_Driver/Src/stm32f4xx_ll_usb.c:512:36
	orr	r0, r0, #32768
	str.w	r0, [r1, #2816]
	.loc	2 515 38                        @ ../ThirdParty/STM32F4xx_HAL_Driver/Src/stm32f4xx_ll_usb.c:515:38
	ldr	r0, [sp, #4]
	.loc	2 515 44 is_stmt 0              @ ../ThirdParty/STM32F4xx_HAL_Driver/Src/stm32f4xx_ll_usb.c:515:44
	add.w	r0, r0, #2816
	.loc	2 515 13                        @ ../ThirdParty/STM32F4xx_HAL_Driver/Src/stm32f4xx_ll_usb.c:515:13
	movw	r1, :lower16:USB_ActivateDedicatedEndpoint.debug
	movt	r1, :upper16:USB_ActivateDedicatedEndpoint.debug
	str	r0, [r1]
	.loc	2 516 27 is_stmt 1              @ ../ThirdParty/STM32F4xx_HAL_Driver/Src/stm32f4xx_ll_usb.c:516:27
	ldr	r0, [sp, #4]
	ldr	r2, [sp]
	ldrb	r2, [r2]
	add.w	r0, r0, r2, lsl #5
	add.w	r0, r0, #2816
	.loc	2 516 13 is_stmt 0              @ ../ThirdParty/STM32F4xx_HAL_Driver/Src/stm32f4xx_ll_usb.c:516:13
	str	r0, [r1]
	.loc	2 517 18 is_stmt 1              @ ../ThirdParty/STM32F4xx_HAL_Driver/Src/stm32f4xx_ll_usb.c:517:18
	ldr	r3, [sp]
	.loc	2 517 22 is_stmt 0              @ ../ThirdParty/STM32F4xx_HAL_Driver/Src/stm32f4xx_ll_usb.c:517:22
	ldr	r0, [r3, #8]
	.loc	2 517 32                        @ ../ThirdParty/STM32F4xx_HAL_Driver/Src/stm32f4xx_ll_usb.c:517:32
	bfc	r0, #11, #21
	.loc	2 518 15 is_stmt 1              @ ../ThirdParty/STM32F4xx_HAL_Driver/Src/stm32f4xx_ll_usb.c:518:15
	ldrb	r2, [r3]
	.loc	2 517 65                        @ ../ThirdParty/STM32F4xx_HAL_Driver/Src/stm32f4xx_ll_usb.c:517:65
	ldrb	r3, [r3, #3]
	.loc	2 517 58 is_stmt 0              @ ../ThirdParty/STM32F4xx_HAL_Driver/Src/stm32f4xx_ll_usb.c:517:58
	orr.w	r0, r0, r3, lsl #18
	.loc	2 517 78                        @ ../ThirdParty/STM32F4xx_HAL_Driver/Src/stm32f4xx_ll_usb.c:517:78
	orr.w	r0, r0, r2, lsl #22
	.loc	2 517 13                        @ ../ThirdParty/STM32F4xx_HAL_Driver/Src/stm32f4xx_ll_usb.c:517:13
	ldr	r2, [r1]
	.loc	2 518 28 is_stmt 1              @ ../ThirdParty/STM32F4xx_HAL_Driver/Src/stm32f4xx_ll_usb.c:518:28
	orrs	r0, r2
	.loc	2 517 13                        @ ../ThirdParty/STM32F4xx_HAL_Driver/Src/stm32f4xx_ll_usb.c:517:13
	orr	r0, r0, #32768
	str	r0, [r1]
	.loc	2 519 5                         @ ../ThirdParty/STM32F4xx_HAL_Driver/Src/stm32f4xx_ll_usb.c:519:5
	b	.LBB11_6
.Ltmp147:
.LBB11_6:
	.loc	2 521 64                        @ ../ThirdParty/STM32F4xx_HAL_Driver/Src/stm32f4xx_ll_usb.c:521:64
	ldr	r0, [sp]
	.loc	2 521 68 is_stmt 0              @ ../ThirdParty/STM32F4xx_HAL_Driver/Src/stm32f4xx_ll_usb.c:521:68
	ldrb	r1, [r0]
	movs	r0, #1
	.loc	2 521 60                        @ ../ThirdParty/STM32F4xx_HAL_Driver/Src/stm32f4xx_ll_usb.c:521:60
	lsl.w	r2, r0, r1
	.loc	2 521 6                         @ ../ThirdParty/STM32F4xx_HAL_Driver/Src/stm32f4xx_ll_usb.c:521:6
	ldr	r1, [sp, #4]
	.loc	2 521 28                        @ ../ThirdParty/STM32F4xx_HAL_Driver/Src/stm32f4xx_ll_usb.c:521:28
	ldr.w	r0, [r1, #2108]
	orr.w	r0, r0, r2, lsl #16
	str.w	r0, [r1, #2108]
	b	.LBB11_7
.Ltmp148:
.LBB11_7:
	.loc	2 0 28                          @ ../ThirdParty/STM32F4xx_HAL_Driver/Src/stm32f4xx_ll_usb.c:0:28
	movs	r0, #0
	.loc	2 524 3 epilogue_begin is_stmt 1 @ ../ThirdParty/STM32F4xx_HAL_Driver/Src/stm32f4xx_ll_usb.c:524:3
	add	sp, #8
	bx	lr
.Ltmp149:
.Lfunc_end11:
	.size	USB_ActivateDedicatedEndpoint, .Lfunc_end11-USB_ActivateDedicatedEndpoint
	.cfi_endproc
	.cantunwind
	.fnend
                                        @ -- End function
	.section	.text.USB_DeactivateEndpoint,"ax",%progbits
	.hidden	USB_DeactivateEndpoint          @ -- Begin function USB_DeactivateEndpoint
	.globl	USB_DeactivateEndpoint
	.p2align	2
	.type	USB_DeactivateEndpoint,%function
	.code	16                              @ @USB_DeactivateEndpoint
	.thumb_func
USB_DeactivateEndpoint:
.Lfunc_begin12:
	.loc	2 533 0                         @ ../ThirdParty/STM32F4xx_HAL_Driver/Src/stm32f4xx_ll_usb.c:533:0
	.fnstart
	.cfi_startproc
@ %bb.0:
	.save	{r7, lr}
	push	{r7, lr}
	.cfi_def_cfa_offset 8
	.cfi_offset lr, -4
	.cfi_offset r7, -8
	.pad	#16
	sub	sp, #16
	.cfi_def_cfa_offset 24
	str	r0, [sp, #8]
	str	r1, [sp, #4]
	movs	r0, #0
.Ltmp150:
	.loc	2 534 12 prologue_end           @ ../ThirdParty/STM32F4xx_HAL_Driver/Src/stm32f4xx_ll_usb.c:534:12
	str	r0, [sp]
.Ltmp151:
	.loc	2 537 7                         @ ../ThirdParty/STM32F4xx_HAL_Driver/Src/stm32f4xx_ll_usb.c:537:7
	ldr	r0, [sp, #4]
	.loc	2 537 11 is_stmt 0              @ ../ThirdParty/STM32F4xx_HAL_Driver/Src/stm32f4xx_ll_usb.c:537:11
	ldrb	r0, [r0, #1]
.Ltmp152:
	.loc	2 537 7                         @ ../ThirdParty/STM32F4xx_HAL_Driver/Src/stm32f4xx_ll_usb.c:537:7
	cmp	r0, #1
	bne	.LBB12_7
	b	.LBB12_1
.LBB12_1:
.Ltmp153:
	.loc	2 539 5 is_stmt 1               @ ../ThirdParty/STM32F4xx_HAL_Driver/Src/stm32f4xx_ll_usb.c:539:5
	ldr	r0, [sp, #8]
	ldr	r1, [sp, #4]
	ldrb	r1, [r1]
	add.w	r1, r0, r1, lsl #5
	.loc	2 539 33 is_stmt 0              @ ../ThirdParty/STM32F4xx_HAL_Driver/Src/stm32f4xx_ll_usb.c:539:33
	ldr.w	r0, [r1, #2304]
	bic	r0, r0, #32768
	str.w	r0, [r1, #2304]
	.loc	2 542 5 is_stmt 1               @ ../ThirdParty/STM32F4xx_HAL_Driver/Src/stm32f4xx_ll_usb.c:542:5
	ldr	r0, [sp, #8]
	ldr	r1, [sp, #4]
	ldrb	r1, [r1]
	add.w	r1, r0, r1, lsl #5
	mov.w	r0, #134217728
	.loc	2 542 33 is_stmt 0              @ ../ThirdParty/STM32F4xx_HAL_Driver/Src/stm32f4xx_ll_usb.c:542:33
	str.w	r0, [r1, #2304]
	.loc	2 545 5 is_stmt 1               @ ../ThirdParty/STM32F4xx_HAL_Driver/Src/stm32f4xx_ll_usb.c:545:5
	ldr	r0, [sp, #8]
	ldr	r1, [sp, #4]
	ldrb	r1, [r1]
	add.w	r1, r0, r1, lsl #5
	mov.w	r0, #1073741824
	.loc	2 545 33 is_stmt 0              @ ../ThirdParty/STM32F4xx_HAL_Driver/Src/stm32f4xx_ll_usb.c:545:33
	str.w	r0, [r1, #2304]
	.loc	2 547 5 is_stmt 1               @ ../ThirdParty/STM32F4xx_HAL_Driver/Src/stm32f4xx_ll_usb.c:547:5
	b	.LBB12_2
.LBB12_2:                               @ =>This Inner Loop Header: Depth=1
.Ltmp154:
	.loc	2 549 11                        @ ../ThirdParty/STM32F4xx_HAL_Driver/Src/stm32f4xx_ll_usb.c:549:11
	ldr	r0, [sp]
	adds	r0, #1
	str	r0, [sp]
	movw	r1, #3393
	movt	r1, #3
.Ltmp155:
	.loc	2 549 11 is_stmt 0              @ ../ThirdParty/STM32F4xx_HAL_Driver/Src/stm32f4xx_ll_usb.c:549:11
	cmp	r0, r1
	blo	.LBB12_4
	b	.LBB12_3
.LBB12_3:
	.loc	2 0 11                          @ ../ThirdParty/STM32F4xx_HAL_Driver/Src/stm32f4xx_ll_usb.c:0:11
	movs	r0, #3
.Ltmp156:
	.loc	2 551 9 is_stmt 1               @ ../ThirdParty/STM32F4xx_HAL_Driver/Src/stm32f4xx_ll_usb.c:551:9
	strb.w	r0, [sp, #15]
	b	.LBB12_14
.Ltmp157:
.LBB12_4:                               @   in Loop: Header=BB12_2 Depth=1
	.loc	2 553 5                         @ ../ThirdParty/STM32F4xx_HAL_Driver/Src/stm32f4xx_ll_usb.c:553:5
	b	.LBB12_5
.Ltmp158:
.LBB12_5:                               @   in Loop: Header=BB12_2 Depth=1
	.loc	2 556 13                        @ ../ThirdParty/STM32F4xx_HAL_Driver/Src/stm32f4xx_ll_usb.c:556:13
	ldr	r0, [sp, #8]
	ldr	r1, [sp, #4]
	ldrb	r1, [r1]
	add.w	r0, r0, r1, lsl #5
	.loc	2 556 33 is_stmt 0              @ ../ThirdParty/STM32F4xx_HAL_Driver/Src/stm32f4xx_ll_usb.c:556:33
	ldr.w	r0, [r0, #2312]
	.loc	2 556 41                        @ ../ThirdParty/STM32F4xx_HAL_Driver/Src/stm32f4xx_ll_usb.c:556:41
	and	r0, r0, #1073741824
.Ltmp159:
	.loc	2 553 5 is_stmt 1               @ ../ThirdParty/STM32F4xx_HAL_Driver/Src/stm32f4xx_ll_usb.c:553:5
	cmp.w	r0, #1073741824
	beq	.LBB12_2
	b	.LBB12_6
.Ltmp160:
.LBB12_6:
	.loc	2 560 21                        @ ../ThirdParty/STM32F4xx_HAL_Driver/Src/stm32f4xx_ll_usb.c:560:21
	ldr	r0, [sp, #8]
	movs	r1, #16
	.loc	2 560 5 is_stmt 0               @ ../ThirdParty/STM32F4xx_HAL_Driver/Src/stm32f4xx_ll_usb.c:560:5
	bl	USB_FlushTxFifo
	.loc	2 563 65 is_stmt 1              @ ../ThirdParty/STM32F4xx_HAL_Driver/Src/stm32f4xx_ll_usb.c:563:65
	ldr	r0, [sp, #4]
	.loc	2 563 69 is_stmt 0              @ ../ThirdParty/STM32F4xx_HAL_Driver/Src/stm32f4xx_ll_usb.c:563:69
	ldrb	r1, [r0]
	movs	r0, #1
	.loc	2 563 61                        @ ../ThirdParty/STM32F4xx_HAL_Driver/Src/stm32f4xx_ll_usb.c:563:61
	lsl.w	r1, r0, r1
	movs	r0, #0
	movt	r0, #65535
	.loc	2 563 30                        @ ../ThirdParty/STM32F4xx_HAL_Driver/Src/stm32f4xx_ll_usb.c:563:30
	orn	r2, r0, r1
	.loc	2 563 5                         @ ../ThirdParty/STM32F4xx_HAL_Driver/Src/stm32f4xx_ll_usb.c:563:5
	ldr	r1, [sp, #8]
	.loc	2 563 27                        @ ../ThirdParty/STM32F4xx_HAL_Driver/Src/stm32f4xx_ll_usb.c:563:27
	ldr.w	r0, [r1, #2076]
	ands	r0, r2
	str.w	r0, [r1, #2076]
	.loc	2 565 3 is_stmt 1               @ ../ThirdParty/STM32F4xx_HAL_Driver/Src/stm32f4xx_ll_usb.c:565:3
	b	.LBB12_13
.Ltmp161:
.LBB12_7:
	.loc	2 569 5                         @ ../ThirdParty/STM32F4xx_HAL_Driver/Src/stm32f4xx_ll_usb.c:569:5
	ldr	r0, [sp, #8]
	ldr	r1, [sp, #4]
	ldrb	r1, [r1]
	add.w	r1, r0, r1, lsl #5
	.loc	2 569 34 is_stmt 0              @ ../ThirdParty/STM32F4xx_HAL_Driver/Src/stm32f4xx_ll_usb.c:569:34
	ldr.w	r0, [r1, #2816]
	bic	r0, r0, #32768
	str.w	r0, [r1, #2816]
	.loc	2 572 5 is_stmt 1               @ ../ThirdParty/STM32F4xx_HAL_Driver/Src/stm32f4xx_ll_usb.c:572:5
	ldr	r0, [sp, #8]
	ldr	r1, [sp, #4]
	ldrb	r1, [r1]
	add.w	r1, r0, r1, lsl #5
	mov.w	r0, #134217728
	.loc	2 572 34 is_stmt 0              @ ../ThirdParty/STM32F4xx_HAL_Driver/Src/stm32f4xx_ll_usb.c:572:34
	str.w	r0, [r1, #2816]
	.loc	2 575 5 is_stmt 1               @ ../ThirdParty/STM32F4xx_HAL_Driver/Src/stm32f4xx_ll_usb.c:575:5
	ldr	r0, [sp, #8]
	ldr	r1, [sp, #4]
	ldrb	r1, [r1]
	add.w	r1, r0, r1, lsl #5
	mov.w	r0, #1073741824
	.loc	2 575 34 is_stmt 0              @ ../ThirdParty/STM32F4xx_HAL_Driver/Src/stm32f4xx_ll_usb.c:575:34
	str.w	r0, [r1, #2816]
	.loc	2 577 5 is_stmt 1               @ ../ThirdParty/STM32F4xx_HAL_Driver/Src/stm32f4xx_ll_usb.c:577:5
	b	.LBB12_8
.LBB12_8:                               @ =>This Inner Loop Header: Depth=1
.Ltmp162:
	.loc	2 579 11                        @ ../ThirdParty/STM32F4xx_HAL_Driver/Src/stm32f4xx_ll_usb.c:579:11
	ldr	r0, [sp]
	adds	r0, #1
	str	r0, [sp]
	movw	r1, #3393
	movt	r1, #3
.Ltmp163:
	.loc	2 579 11 is_stmt 0              @ ../ThirdParty/STM32F4xx_HAL_Driver/Src/stm32f4xx_ll_usb.c:579:11
	cmp	r0, r1
	blo	.LBB12_10
	b	.LBB12_9
.LBB12_9:
	.loc	2 0 11                          @ ../ThirdParty/STM32F4xx_HAL_Driver/Src/stm32f4xx_ll_usb.c:0:11
	movs	r0, #3
.Ltmp164:
	.loc	2 581 9 is_stmt 1               @ ../ThirdParty/STM32F4xx_HAL_Driver/Src/stm32f4xx_ll_usb.c:581:9
	strb.w	r0, [sp, #15]
	b	.LBB12_14
.Ltmp165:
.LBB12_10:                              @   in Loop: Header=BB12_8 Depth=1
	.loc	2 583 5                         @ ../ThirdParty/STM32F4xx_HAL_Driver/Src/stm32f4xx_ll_usb.c:583:5
	b	.LBB12_11
.Ltmp166:
.LBB12_11:                              @   in Loop: Header=BB12_8 Depth=1
	.loc	2 586 13                        @ ../ThirdParty/STM32F4xx_HAL_Driver/Src/stm32f4xx_ll_usb.c:586:13
	ldr	r0, [sp, #8]
	ldr	r1, [sp, #4]
	ldrb	r1, [r1]
	add.w	r0, r0, r1, lsl #5
	.loc	2 586 34 is_stmt 0              @ ../ThirdParty/STM32F4xx_HAL_Driver/Src/stm32f4xx_ll_usb.c:586:34
	ldr.w	r0, [r0, #2824]
	.loc	2 586 42                        @ ../ThirdParty/STM32F4xx_HAL_Driver/Src/stm32f4xx_ll_usb.c:586:42
	and	r0, r0, #16
.Ltmp167:
	.loc	2 583 5 is_stmt 1               @ ../ThirdParty/STM32F4xx_HAL_Driver/Src/stm32f4xx_ll_usb.c:583:5
	cmp	r0, #16
	beq	.LBB12_8
	b	.LBB12_12
.Ltmp168:
.LBB12_12:
	.loc	2 589 5                         @ ../ThirdParty/STM32F4xx_HAL_Driver/Src/stm32f4xx_ll_usb.c:589:5
	ldr	r1, [sp, #8]
	.loc	2 589 23 is_stmt 0              @ ../ThirdParty/STM32F4xx_HAL_Driver/Src/stm32f4xx_ll_usb.c:589:23
	ldr.w	r0, [r1, #2052]
	orr	r0, r0, #1024
	str.w	r0, [r1, #2052]
	.loc	2 592 65 is_stmt 1              @ ../ThirdParty/STM32F4xx_HAL_Driver/Src/stm32f4xx_ll_usb.c:592:65
	ldr	r0, [sp, #4]
	.loc	2 592 69 is_stmt 0              @ ../ThirdParty/STM32F4xx_HAL_Driver/Src/stm32f4xx_ll_usb.c:592:69
	ldrb	r1, [r0]
	movs	r0, #1
	.loc	2 592 61                        @ ../ThirdParty/STM32F4xx_HAL_Driver/Src/stm32f4xx_ll_usb.c:592:61
	lsl.w	r2, r0, r1
	.loc	2 592 5                         @ ../ThirdParty/STM32F4xx_HAL_Driver/Src/stm32f4xx_ll_usb.c:592:5
	ldr	r1, [sp, #8]
	.loc	2 592 27                        @ ../ThirdParty/STM32F4xx_HAL_Driver/Src/stm32f4xx_ll_usb.c:592:27
	ldr.w	r0, [r1, #2076]
	bic.w	r0, r0, r2, lsl #16
	str.w	r0, [r1, #2076]
	b	.LBB12_13
.Ltmp169:
.LBB12_13:
	.loc	2 0 27                          @ ../ThirdParty/STM32F4xx_HAL_Driver/Src/stm32f4xx_ll_usb.c:0:27
	movs	r0, #0
	.loc	2 594 3 is_stmt 1               @ ../ThirdParty/STM32F4xx_HAL_Driver/Src/stm32f4xx_ll_usb.c:594:3
	strb.w	r0, [sp, #15]
	b	.LBB12_14
.LBB12_14:
	.loc	2 595 1                         @ ../ThirdParty/STM32F4xx_HAL_Driver/Src/stm32f4xx_ll_usb.c:595:1
	ldrb.w	r0, [sp, #15]
	.loc	2 595 1 epilogue_begin is_stmt 0 @ ../ThirdParty/STM32F4xx_HAL_Driver/Src/stm32f4xx_ll_usb.c:595:1
	add	sp, #16
	pop	{r7, pc}
.Ltmp170:
.Lfunc_end12:
	.size	USB_DeactivateEndpoint, .Lfunc_end12-USB_DeactivateEndpoint
	.cfi_endproc
	.cantunwind
	.fnend
                                        @ -- End function
	.section	.text.USB_DeactivateDedicatedEndpoint,"ax",%progbits
	.hidden	USB_DeactivateDedicatedEndpoint @ -- Begin function USB_DeactivateDedicatedEndpoint
	.globl	USB_DeactivateDedicatedEndpoint
	.p2align	2
	.type	USB_DeactivateDedicatedEndpoint,%function
	.code	16                              @ @USB_DeactivateDedicatedEndpoint
	.thumb_func
USB_DeactivateDedicatedEndpoint:
.Lfunc_begin13:
	.loc	2 604 0 is_stmt 1               @ ../ThirdParty/STM32F4xx_HAL_Driver/Src/stm32f4xx_ll_usb.c:604:0
	.fnstart
	.cfi_startproc
@ %bb.0:
	.save	{r7, lr}
	push	{r7, lr}
	.cfi_def_cfa_offset 8
	.cfi_offset lr, -4
	.cfi_offset r7, -8
	.pad	#16
	sub	sp, #16
	.cfi_def_cfa_offset 24
	str	r0, [sp, #8]
	str	r1, [sp, #4]
	movs	r0, #0
.Ltmp171:
	.loc	2 605 12 prologue_end           @ ../ThirdParty/STM32F4xx_HAL_Driver/Src/stm32f4xx_ll_usb.c:605:12
	str	r0, [sp]
.Ltmp172:
	.loc	2 608 7                         @ ../ThirdParty/STM32F4xx_HAL_Driver/Src/stm32f4xx_ll_usb.c:608:7
	ldr	r0, [sp, #4]
	.loc	2 608 11 is_stmt 0              @ ../ThirdParty/STM32F4xx_HAL_Driver/Src/stm32f4xx_ll_usb.c:608:11
	ldrb	r0, [r0, #1]
.Ltmp173:
	.loc	2 608 7                         @ ../ThirdParty/STM32F4xx_HAL_Driver/Src/stm32f4xx_ll_usb.c:608:7
	cmp	r0, #1
	bne	.LBB13_7
	b	.LBB13_1
.LBB13_1:
.Ltmp174:
	.loc	2 610 5 is_stmt 1               @ ../ThirdParty/STM32F4xx_HAL_Driver/Src/stm32f4xx_ll_usb.c:610:5
	ldr	r0, [sp, #8]
	ldr	r1, [sp, #4]
	ldrb	r1, [r1]
	add.w	r1, r0, r1, lsl #5
	.loc	2 610 33 is_stmt 0              @ ../ThirdParty/STM32F4xx_HAL_Driver/Src/stm32f4xx_ll_usb.c:610:33
	ldr.w	r0, [r1, #2304]
	bic	r0, r0, #32768
	str.w	r0, [r1, #2304]
	.loc	2 613 5 is_stmt 1               @ ../ThirdParty/STM32F4xx_HAL_Driver/Src/stm32f4xx_ll_usb.c:613:5
	ldr	r0, [sp, #8]
	ldr	r1, [sp, #4]
	ldrb	r1, [r1]
	add.w	r1, r0, r1, lsl #5
	mov.w	r0, #134217728
	.loc	2 613 33 is_stmt 0              @ ../ThirdParty/STM32F4xx_HAL_Driver/Src/stm32f4xx_ll_usb.c:613:33
	str.w	r0, [r1, #2304]
	.loc	2 616 5 is_stmt 1               @ ../ThirdParty/STM32F4xx_HAL_Driver/Src/stm32f4xx_ll_usb.c:616:5
	ldr	r0, [sp, #8]
	ldr	r1, [sp, #4]
	ldrb	r1, [r1]
	add.w	r1, r0, r1, lsl #5
	mov.w	r0, #1073741824
	.loc	2 616 33 is_stmt 0              @ ../ThirdParty/STM32F4xx_HAL_Driver/Src/stm32f4xx_ll_usb.c:616:33
	str.w	r0, [r1, #2304]
	.loc	2 618 5 is_stmt 1               @ ../ThirdParty/STM32F4xx_HAL_Driver/Src/stm32f4xx_ll_usb.c:618:5
	b	.LBB13_2
.LBB13_2:                               @ =>This Inner Loop Header: Depth=1
.Ltmp175:
	.loc	2 620 11                        @ ../ThirdParty/STM32F4xx_HAL_Driver/Src/stm32f4xx_ll_usb.c:620:11
	ldr	r0, [sp]
	adds	r0, #1
	str	r0, [sp]
	movw	r1, #3393
	movt	r1, #3
.Ltmp176:
	.loc	2 620 11 is_stmt 0              @ ../ThirdParty/STM32F4xx_HAL_Driver/Src/stm32f4xx_ll_usb.c:620:11
	cmp	r0, r1
	blo	.LBB13_4
	b	.LBB13_3
.LBB13_3:
	.loc	2 0 11                          @ ../ThirdParty/STM32F4xx_HAL_Driver/Src/stm32f4xx_ll_usb.c:0:11
	movs	r0, #3
.Ltmp177:
	.loc	2 622 9 is_stmt 1               @ ../ThirdParty/STM32F4xx_HAL_Driver/Src/stm32f4xx_ll_usb.c:622:9
	strb.w	r0, [sp, #15]
	b	.LBB13_14
.Ltmp178:
.LBB13_4:                               @   in Loop: Header=BB13_2 Depth=1
	.loc	2 624 5                         @ ../ThirdParty/STM32F4xx_HAL_Driver/Src/stm32f4xx_ll_usb.c:624:5
	b	.LBB13_5
.Ltmp179:
.LBB13_5:                               @   in Loop: Header=BB13_2 Depth=1
	.loc	2 627 13                        @ ../ThirdParty/STM32F4xx_HAL_Driver/Src/stm32f4xx_ll_usb.c:627:13
	ldr	r0, [sp, #8]
	ldr	r1, [sp, #4]
	ldrb	r1, [r1]
	add.w	r0, r0, r1, lsl #5
	.loc	2 627 33 is_stmt 0              @ ../ThirdParty/STM32F4xx_HAL_Driver/Src/stm32f4xx_ll_usb.c:627:33
	ldr.w	r0, [r0, #2312]
	.loc	2 627 41                        @ ../ThirdParty/STM32F4xx_HAL_Driver/Src/stm32f4xx_ll_usb.c:627:41
	and	r0, r0, #1073741824
.Ltmp180:
	.loc	2 624 5 is_stmt 1               @ ../ThirdParty/STM32F4xx_HAL_Driver/Src/stm32f4xx_ll_usb.c:624:5
	cmp.w	r0, #1073741824
	beq	.LBB13_2
	b	.LBB13_6
.Ltmp181:
.LBB13_6:
	.loc	2 631 21                        @ ../ThirdParty/STM32F4xx_HAL_Driver/Src/stm32f4xx_ll_usb.c:631:21
	ldr	r0, [sp, #8]
	movs	r1, #16
	.loc	2 631 5 is_stmt 0               @ ../ThirdParty/STM32F4xx_HAL_Driver/Src/stm32f4xx_ll_usb.c:631:5
	bl	USB_FlushTxFifo
	.loc	2 634 65 is_stmt 1              @ ../ThirdParty/STM32F4xx_HAL_Driver/Src/stm32f4xx_ll_usb.c:634:65
	ldr	r0, [sp, #4]
	.loc	2 634 69 is_stmt 0              @ ../ThirdParty/STM32F4xx_HAL_Driver/Src/stm32f4xx_ll_usb.c:634:69
	ldrb	r1, [r0]
	movs	r0, #1
	.loc	2 634 61                        @ ../ThirdParty/STM32F4xx_HAL_Driver/Src/stm32f4xx_ll_usb.c:634:61
	lsl.w	r1, r0, r1
	movs	r0, #0
	movt	r0, #65535
	.loc	2 634 30                        @ ../ThirdParty/STM32F4xx_HAL_Driver/Src/stm32f4xx_ll_usb.c:634:30
	orn	r2, r0, r1
	.loc	2 634 5                         @ ../ThirdParty/STM32F4xx_HAL_Driver/Src/stm32f4xx_ll_usb.c:634:5
	ldr	r1, [sp, #8]
	.loc	2 634 27                        @ ../ThirdParty/STM32F4xx_HAL_Driver/Src/stm32f4xx_ll_usb.c:634:27
	ldr.w	r0, [r1, #2076]
	ands	r0, r2
	str.w	r0, [r1, #2076]
	.loc	2 636 3 is_stmt 1               @ ../ThirdParty/STM32F4xx_HAL_Driver/Src/stm32f4xx_ll_usb.c:636:3
	b	.LBB13_13
.Ltmp182:
.LBB13_7:
	.loc	2 640 5                         @ ../ThirdParty/STM32F4xx_HAL_Driver/Src/stm32f4xx_ll_usb.c:640:5
	ldr	r0, [sp, #8]
	ldr	r1, [sp, #4]
	ldrb	r1, [r1]
	add.w	r1, r0, r1, lsl #5
	.loc	2 640 34 is_stmt 0              @ ../ThirdParty/STM32F4xx_HAL_Driver/Src/stm32f4xx_ll_usb.c:640:34
	ldr.w	r0, [r1, #2816]
	bic	r0, r0, #32768
	str.w	r0, [r1, #2816]
	.loc	2 643 5 is_stmt 1               @ ../ThirdParty/STM32F4xx_HAL_Driver/Src/stm32f4xx_ll_usb.c:643:5
	ldr	r0, [sp, #8]
	ldr	r1, [sp, #4]
	ldrb	r1, [r1]
	add.w	r1, r0, r1, lsl #5
	mov.w	r0, #134217728
	.loc	2 643 34 is_stmt 0              @ ../ThirdParty/STM32F4xx_HAL_Driver/Src/stm32f4xx_ll_usb.c:643:34
	str.w	r0, [r1, #2816]
	.loc	2 646 5 is_stmt 1               @ ../ThirdParty/STM32F4xx_HAL_Driver/Src/stm32f4xx_ll_usb.c:646:5
	ldr	r0, [sp, #8]
	ldr	r1, [sp, #4]
	ldrb	r1, [r1]
	add.w	r1, r0, r1, lsl #5
	mov.w	r0, #1073741824
	.loc	2 646 34 is_stmt 0              @ ../ThirdParty/STM32F4xx_HAL_Driver/Src/stm32f4xx_ll_usb.c:646:34
	str.w	r0, [r1, #2816]
	.loc	2 648 5 is_stmt 1               @ ../ThirdParty/STM32F4xx_HAL_Driver/Src/stm32f4xx_ll_usb.c:648:5
	b	.LBB13_8
.LBB13_8:                               @ =>This Inner Loop Header: Depth=1
.Ltmp183:
	.loc	2 650 11                        @ ../ThirdParty/STM32F4xx_HAL_Driver/Src/stm32f4xx_ll_usb.c:650:11
	ldr	r0, [sp]
	adds	r0, #1
	str	r0, [sp]
	movw	r1, #3393
	movt	r1, #3
.Ltmp184:
	.loc	2 650 11 is_stmt 0              @ ../ThirdParty/STM32F4xx_HAL_Driver/Src/stm32f4xx_ll_usb.c:650:11
	cmp	r0, r1
	blo	.LBB13_10
	b	.LBB13_9
.LBB13_9:
	.loc	2 0 11                          @ ../ThirdParty/STM32F4xx_HAL_Driver/Src/stm32f4xx_ll_usb.c:0:11
	movs	r0, #3
.Ltmp185:
	.loc	2 652 9 is_stmt 1               @ ../ThirdParty/STM32F4xx_HAL_Driver/Src/stm32f4xx_ll_usb.c:652:9
	strb.w	r0, [sp, #15]
	b	.LBB13_14
.Ltmp186:
.LBB13_10:                              @   in Loop: Header=BB13_8 Depth=1
	.loc	2 654 5                         @ ../ThirdParty/STM32F4xx_HAL_Driver/Src/stm32f4xx_ll_usb.c:654:5
	b	.LBB13_11
.Ltmp187:
.LBB13_11:                              @   in Loop: Header=BB13_8 Depth=1
	.loc	2 657 13                        @ ../ThirdParty/STM32F4xx_HAL_Driver/Src/stm32f4xx_ll_usb.c:657:13
	ldr	r0, [sp, #8]
	ldr	r1, [sp, #4]
	ldrb	r1, [r1]
	add.w	r0, r0, r1, lsl #5
	.loc	2 657 34 is_stmt 0              @ ../ThirdParty/STM32F4xx_HAL_Driver/Src/stm32f4xx_ll_usb.c:657:34
	ldr.w	r0, [r0, #2824]
	.loc	2 657 42                        @ ../ThirdParty/STM32F4xx_HAL_Driver/Src/stm32f4xx_ll_usb.c:657:42
	and	r0, r0, #16
.Ltmp188:
	.loc	2 654 5 is_stmt 1               @ ../ThirdParty/STM32F4xx_HAL_Driver/Src/stm32f4xx_ll_usb.c:654:5
	cmp	r0, #16
	beq	.LBB13_8
	b	.LBB13_12
.Ltmp189:
.LBB13_12:
	.loc	2 660 5                         @ ../ThirdParty/STM32F4xx_HAL_Driver/Src/stm32f4xx_ll_usb.c:660:5
	ldr	r1, [sp, #8]
	.loc	2 660 23 is_stmt 0              @ ../ThirdParty/STM32F4xx_HAL_Driver/Src/stm32f4xx_ll_usb.c:660:23
	ldr.w	r0, [r1, #2052]
	orr	r0, r0, #1024
	str.w	r0, [r1, #2052]
	.loc	2 663 65 is_stmt 1              @ ../ThirdParty/STM32F4xx_HAL_Driver/Src/stm32f4xx_ll_usb.c:663:65
	ldr	r0, [sp, #4]
	.loc	2 663 69 is_stmt 0              @ ../ThirdParty/STM32F4xx_HAL_Driver/Src/stm32f4xx_ll_usb.c:663:69
	ldrb	r1, [r0]
	movs	r0, #1
	.loc	2 663 61                        @ ../ThirdParty/STM32F4xx_HAL_Driver/Src/stm32f4xx_ll_usb.c:663:61
	lsl.w	r2, r0, r1
	.loc	2 663 5                         @ ../ThirdParty/STM32F4xx_HAL_Driver/Src/stm32f4xx_ll_usb.c:663:5
	ldr	r1, [sp, #8]
	.loc	2 663 27                        @ ../ThirdParty/STM32F4xx_HAL_Driver/Src/stm32f4xx_ll_usb.c:663:27
	ldr.w	r0, [r1, #2076]
	bic.w	r0, r0, r2, lsl #16
	str.w	r0, [r1, #2076]
	b	.LBB13_13
.Ltmp190:
.LBB13_13:
	.loc	2 0 27                          @ ../ThirdParty/STM32F4xx_HAL_Driver/Src/stm32f4xx_ll_usb.c:0:27
	movs	r0, #0
	.loc	2 665 3 is_stmt 1               @ ../ThirdParty/STM32F4xx_HAL_Driver/Src/stm32f4xx_ll_usb.c:665:3
	strb.w	r0, [sp, #15]
	b	.LBB13_14
.LBB13_14:
	.loc	2 667 1                         @ ../ThirdParty/STM32F4xx_HAL_Driver/Src/stm32f4xx_ll_usb.c:667:1
	ldrb.w	r0, [sp, #15]
	.loc	2 667 1 epilogue_begin is_stmt 0 @ ../ThirdParty/STM32F4xx_HAL_Driver/Src/stm32f4xx_ll_usb.c:667:1
	add	sp, #16
	pop	{r7, pc}
.Ltmp191:
.Lfunc_end13:
	.size	USB_DeactivateDedicatedEndpoint, .Lfunc_end13-USB_DeactivateDedicatedEndpoint
	.cfi_endproc
	.cantunwind
	.fnend
                                        @ -- End function
	.section	.text.USB_EPStartXfer,"ax",%progbits
	.hidden	USB_EPStartXfer                 @ -- Begin function USB_EPStartXfer
	.globl	USB_EPStartXfer
	.p2align	2
	.type	USB_EPStartXfer,%function
	.code	16                              @ @USB_EPStartXfer
	.thumb_func
USB_EPStartXfer:
.Lfunc_begin14:
	.loc	2 680 0 is_stmt 1               @ ../ThirdParty/STM32F4xx_HAL_Driver/Src/stm32f4xx_ll_usb.c:680:0
	.fnstart
	.cfi_startproc
@ %bb.0:
	.save	{r7, lr}
	push	{r7, lr}
	.cfi_def_cfa_offset 8
	.cfi_offset lr, -4
	.cfi_offset r7, -8
	.pad	#16
	sub	sp, #16
	.cfi_def_cfa_offset 24
                                        @ kill: def $r3 killed $r2
	str	r0, [sp, #12]
	str	r1, [sp, #8]
	strb.w	r2, [sp, #7]
	movs	r0, #0
.Ltmp192:
	.loc	2 681 12 prologue_end           @ ../ThirdParty/STM32F4xx_HAL_Driver/Src/stm32f4xx_ll_usb.c:681:12
	strh.w	r0, [sp, #4]
.Ltmp193:
	.loc	2 684 7                         @ ../ThirdParty/STM32F4xx_HAL_Driver/Src/stm32f4xx_ll_usb.c:684:7
	ldr	r0, [sp, #8]
	.loc	2 684 11 is_stmt 0              @ ../ThirdParty/STM32F4xx_HAL_Driver/Src/stm32f4xx_ll_usb.c:684:11
	ldrb	r0, [r0, #1]
.Ltmp194:
	.loc	2 684 7                         @ ../ThirdParty/STM32F4xx_HAL_Driver/Src/stm32f4xx_ll_usb.c:684:7
	cmp	r0, #1
	bne.w	.LBB14_21
	b	.LBB14_1
.LBB14_1:
.Ltmp195:
	.loc	2 687 9 is_stmt 1               @ ../ThirdParty/STM32F4xx_HAL_Driver/Src/stm32f4xx_ll_usb.c:687:9
	ldr	r0, [sp, #8]
	.loc	2 687 13 is_stmt 0              @ ../ThirdParty/STM32F4xx_HAL_Driver/Src/stm32f4xx_ll_usb.c:687:13
	ldr	r0, [r0, #20]
.Ltmp196:
	.loc	2 687 9                         @ ../ThirdParty/STM32F4xx_HAL_Driver/Src/stm32f4xx_ll_usb.c:687:9
	cbnz	r0, .LBB14_3
	b	.LBB14_2
.LBB14_2:
.Ltmp197:
	.loc	2 689 7 is_stmt 1               @ ../ThirdParty/STM32F4xx_HAL_Driver/Src/stm32f4xx_ll_usb.c:689:7
	ldr	r0, [sp, #12]
	ldr	r1, [sp, #8]
	ldrb	r1, [r1]
	add.w	r1, r0, r1, lsl #5
	.loc	2 689 36 is_stmt 0              @ ../ThirdParty/STM32F4xx_HAL_Driver/Src/stm32f4xx_ll_usb.c:689:36
	ldr.w	r0, [r1, #2320]
	bfc	r0, #19, #10
	str.w	r0, [r1, #2320]
	.loc	2 690 7 is_stmt 1               @ ../ThirdParty/STM32F4xx_HAL_Driver/Src/stm32f4xx_ll_usb.c:690:7
	ldr	r0, [sp, #12]
	ldr	r1, [sp, #8]
	ldrb	r1, [r1]
	add.w	r1, r0, r1, lsl #5
	.loc	2 690 36 is_stmt 0              @ ../ThirdParty/STM32F4xx_HAL_Driver/Src/stm32f4xx_ll_usb.c:690:36
	ldr.w	r0, [r1, #2320]
	orr	r0, r0, #524288
	str.w	r0, [r1, #2320]
	.loc	2 691 7 is_stmt 1               @ ../ThirdParty/STM32F4xx_HAL_Driver/Src/stm32f4xx_ll_usb.c:691:7
	ldr	r0, [sp, #12]
	ldr	r1, [sp, #8]
	ldrb	r1, [r1]
	add.w	r1, r0, r1, lsl #5
	.loc	2 691 36 is_stmt 0              @ ../ThirdParty/STM32F4xx_HAL_Driver/Src/stm32f4xx_ll_usb.c:691:36
	ldr.w	r0, [r1, #2320]
	bfc	r0, #0, #19
	str.w	r0, [r1, #2320]
	.loc	2 692 5 is_stmt 1               @ ../ThirdParty/STM32F4xx_HAL_Driver/Src/stm32f4xx_ll_usb.c:692:5
	b	.LBB14_6
.Ltmp198:
.LBB14_3:
	.loc	2 700 7                         @ ../ThirdParty/STM32F4xx_HAL_Driver/Src/stm32f4xx_ll_usb.c:700:7
	ldr	r0, [sp, #12]
	ldr	r1, [sp, #8]
	ldrb	r1, [r1]
	add.w	r1, r0, r1, lsl #5
	.loc	2 700 36 is_stmt 0              @ ../ThirdParty/STM32F4xx_HAL_Driver/Src/stm32f4xx_ll_usb.c:700:36
	ldr.w	r0, [r1, #2320]
	bfc	r0, #0, #19
	str.w	r0, [r1, #2320]
	.loc	2 701 7 is_stmt 1               @ ../ThirdParty/STM32F4xx_HAL_Driver/Src/stm32f4xx_ll_usb.c:701:7
	ldr	r0, [sp, #12]
	ldr	r1, [sp, #8]
	ldrb	r1, [r1]
	add.w	r1, r0, r1, lsl #5
	.loc	2 701 36 is_stmt 0              @ ../ThirdParty/STM32F4xx_HAL_Driver/Src/stm32f4xx_ll_usb.c:701:36
	ldr.w	r0, [r1, #2320]
	bfc	r0, #19, #10
	str.w	r0, [r1, #2320]
	.loc	2 702 69 is_stmt 1              @ ../ThirdParty/STM32F4xx_HAL_Driver/Src/stm32f4xx_ll_usb.c:702:69
	ldr	r1, [sp, #8]
	.loc	2 702 73 is_stmt 0              @ ../ThirdParty/STM32F4xx_HAL_Driver/Src/stm32f4xx_ll_usb.c:702:73
	ldr	r0, [r1, #20]
	.loc	2 702 88                        @ ../ThirdParty/STM32F4xx_HAL_Driver/Src/stm32f4xx_ll_usb.c:702:88
	ldr	r2, [r1, #8]
	.loc	2 702 82                        @ ../ThirdParty/STM32F4xx_HAL_Driver/Src/stm32f4xx_ll_usb.c:702:82
	add	r0, r2
	.loc	2 702 98                        @ ../ThirdParty/STM32F4xx_HAL_Driver/Src/stm32f4xx_ll_usb.c:702:98
	subs	r0, #1
	.loc	2 702 102                       @ ../ThirdParty/STM32F4xx_HAL_Driver/Src/stm32f4xx_ll_usb.c:702:102
	udiv	r2, r0, r2
	movs	r0, #0
	movt	r0, #8184
	.loc	2 702 64                        @ ../ThirdParty/STM32F4xx_HAL_Driver/Src/stm32f4xx_ll_usb.c:702:64
	and.w	r2, r0, r2, lsl #19
	.loc	2 702 7                         @ ../ThirdParty/STM32F4xx_HAL_Driver/Src/stm32f4xx_ll_usb.c:702:7
	ldr	r0, [sp, #12]
	ldrb	r1, [r1]
	add.w	r1, r0, r1, lsl #5
	.loc	2 702 36                        @ ../ThirdParty/STM32F4xx_HAL_Driver/Src/stm32f4xx_ll_usb.c:702:36
	ldr.w	r0, [r1, #2320]
	orrs	r0, r2
	str.w	r0, [r1, #2320]
	.loc	2 703 66 is_stmt 1              @ ../ThirdParty/STM32F4xx_HAL_Driver/Src/stm32f4xx_ll_usb.c:703:66
	ldr	r1, [sp, #8]
	.loc	2 703 70 is_stmt 0              @ ../ThirdParty/STM32F4xx_HAL_Driver/Src/stm32f4xx_ll_usb.c:703:70
	ldr	r2, [r1, #20]
	.loc	2 703 64                        @ ../ThirdParty/STM32F4xx_HAL_Driver/Src/stm32f4xx_ll_usb.c:703:64
	bfc	r2, #19, #13
	.loc	2 703 7                         @ ../ThirdParty/STM32F4xx_HAL_Driver/Src/stm32f4xx_ll_usb.c:703:7
	ldr	r0, [sp, #12]
	ldrb	r1, [r1]
	add.w	r1, r0, r1, lsl #5
	.loc	2 703 36                        @ ../ThirdParty/STM32F4xx_HAL_Driver/Src/stm32f4xx_ll_usb.c:703:36
	ldr.w	r0, [r1, #2320]
	orrs	r0, r2
	str.w	r0, [r1, #2320]
.Ltmp199:
	.loc	2 705 11 is_stmt 1              @ ../ThirdParty/STM32F4xx_HAL_Driver/Src/stm32f4xx_ll_usb.c:705:11
	ldr	r0, [sp, #8]
	.loc	2 705 15 is_stmt 0              @ ../ThirdParty/STM32F4xx_HAL_Driver/Src/stm32f4xx_ll_usb.c:705:15
	ldrb	r0, [r0, #3]
.Ltmp200:
	.loc	2 705 11                        @ ../ThirdParty/STM32F4xx_HAL_Driver/Src/stm32f4xx_ll_usb.c:705:11
	cmp	r0, #1
	bne	.LBB14_5
	b	.LBB14_4
.LBB14_4:
.Ltmp201:
	.loc	2 707 9 is_stmt 1               @ ../ThirdParty/STM32F4xx_HAL_Driver/Src/stm32f4xx_ll_usb.c:707:9
	ldr	r0, [sp, #12]
	ldr	r1, [sp, #8]
	ldrb	r1, [r1]
	add.w	r1, r0, r1, lsl #5
	.loc	2 707 38 is_stmt 0              @ ../ThirdParty/STM32F4xx_HAL_Driver/Src/stm32f4xx_ll_usb.c:707:38
	ldr.w	r0, [r1, #2320]
	bic	r0, r0, #1610612736
	str.w	r0, [r1, #2320]
	.loc	2 708 9 is_stmt 1               @ ../ThirdParty/STM32F4xx_HAL_Driver/Src/stm32f4xx_ll_usb.c:708:9
	ldr	r0, [sp, #12]
	ldr	r1, [sp, #8]
	ldrb	r1, [r1]
	add.w	r1, r0, r1, lsl #5
	.loc	2 708 38 is_stmt 0              @ ../ThirdParty/STM32F4xx_HAL_Driver/Src/stm32f4xx_ll_usb.c:708:38
	ldr.w	r0, [r1, #2320]
	orr	r0, r0, #536870912
	str.w	r0, [r1, #2320]
	.loc	2 709 7 is_stmt 1               @ ../ThirdParty/STM32F4xx_HAL_Driver/Src/stm32f4xx_ll_usb.c:709:7
	b	.LBB14_5
.Ltmp202:
.LBB14_5:
	.loc	2 0 7 is_stmt 0                 @ ../ThirdParty/STM32F4xx_HAL_Driver/Src/stm32f4xx_ll_usb.c:0:7
	b	.LBB14_6
.LBB14_6:
.Ltmp203:
	.loc	2 712 9 is_stmt 1               @ ../ThirdParty/STM32F4xx_HAL_Driver/Src/stm32f4xx_ll_usb.c:712:9
	ldrb.w	r0, [sp, #7]
.Ltmp204:
	.loc	2 712 9 is_stmt 0               @ ../ThirdParty/STM32F4xx_HAL_Driver/Src/stm32f4xx_ll_usb.c:712:9
	cmp	r0, #1
	bne	.LBB14_8
	b	.LBB14_7
.LBB14_7:
.Ltmp205:
	.loc	2 714 48 is_stmt 1              @ ../ThirdParty/STM32F4xx_HAL_Driver/Src/stm32f4xx_ll_usb.c:714:48
	ldr	r2, [sp, #8]
	.loc	2 714 52 is_stmt 0              @ ../ThirdParty/STM32F4xx_HAL_Driver/Src/stm32f4xx_ll_usb.c:714:52
	ldr	r0, [r2, #16]
	.loc	2 714 7                         @ ../ThirdParty/STM32F4xx_HAL_Driver/Src/stm32f4xx_ll_usb.c:714:7
	ldr	r1, [sp, #12]
	ldrb	r2, [r2]
	add.w	r1, r1, r2, lsl #5
	.loc	2 714 35                        @ ../ThirdParty/STM32F4xx_HAL_Driver/Src/stm32f4xx_ll_usb.c:714:35
	str.w	r0, [r1, #2324]
	.loc	2 715 5 is_stmt 1               @ ../ThirdParty/STM32F4xx_HAL_Driver/Src/stm32f4xx_ll_usb.c:715:5
	b	.LBB14_13
.Ltmp206:
.LBB14_8:
	.loc	2 718 11                        @ ../ThirdParty/STM32F4xx_HAL_Driver/Src/stm32f4xx_ll_usb.c:718:11
	ldr	r0, [sp, #8]
	.loc	2 718 15 is_stmt 0              @ ../ThirdParty/STM32F4xx_HAL_Driver/Src/stm32f4xx_ll_usb.c:718:15
	ldrb	r0, [r0, #3]
.Ltmp207:
	.loc	2 718 11                        @ ../ThirdParty/STM32F4xx_HAL_Driver/Src/stm32f4xx_ll_usb.c:718:11
	cmp	r0, #1
	beq	.LBB14_12
	b	.LBB14_9
.LBB14_9:
.Ltmp208:
	.loc	2 721 13 is_stmt 1              @ ../ThirdParty/STM32F4xx_HAL_Driver/Src/stm32f4xx_ll_usb.c:721:13
	ldr	r0, [sp, #8]
	.loc	2 721 17 is_stmt 0              @ ../ThirdParty/STM32F4xx_HAL_Driver/Src/stm32f4xx_ll_usb.c:721:17
	ldr	r0, [r0, #20]
.Ltmp209:
	.loc	2 721 13                        @ ../ThirdParty/STM32F4xx_HAL_Driver/Src/stm32f4xx_ll_usb.c:721:13
	cbz	r0, .LBB14_11
	b	.LBB14_10
.LBB14_10:
.Ltmp210:
	.loc	2 723 44 is_stmt 1              @ ../ThirdParty/STM32F4xx_HAL_Driver/Src/stm32f4xx_ll_usb.c:723:44
	ldr	r0, [sp, #8]
	.loc	2 723 48 is_stmt 0              @ ../ThirdParty/STM32F4xx_HAL_Driver/Src/stm32f4xx_ll_usb.c:723:48
	ldrb	r1, [r0]
	movs	r0, #1
	.loc	2 723 41                        @ ../ThirdParty/STM32F4xx_HAL_Driver/Src/stm32f4xx_ll_usb.c:723:41
	lsl.w	r2, r0, r1
	.loc	2 723 11                        @ ../ThirdParty/STM32F4xx_HAL_Driver/Src/stm32f4xx_ll_usb.c:723:11
	ldr	r1, [sp, #12]
	.loc	2 723 35                        @ ../ThirdParty/STM32F4xx_HAL_Driver/Src/stm32f4xx_ll_usb.c:723:35
	ldr.w	r0, [r1, #2100]
	orrs	r0, r2
	str.w	r0, [r1, #2100]
	.loc	2 724 9 is_stmt 1               @ ../ThirdParty/STM32F4xx_HAL_Driver/Src/stm32f4xx_ll_usb.c:724:9
	b	.LBB14_11
.Ltmp211:
.LBB14_11:
	.loc	2 725 7                         @ ../ThirdParty/STM32F4xx_HAL_Driver/Src/stm32f4xx_ll_usb.c:725:7
	b	.LBB14_12
.Ltmp212:
.LBB14_12:
	.loc	2 0 7 is_stmt 0                 @ ../ThirdParty/STM32F4xx_HAL_Driver/Src/stm32f4xx_ll_usb.c:0:7
	b	.LBB14_13
.LBB14_13:
.Ltmp213:
	.loc	2 728 9 is_stmt 1               @ ../ThirdParty/STM32F4xx_HAL_Driver/Src/stm32f4xx_ll_usb.c:728:9
	ldr	r0, [sp, #8]
	.loc	2 728 13 is_stmt 0              @ ../ThirdParty/STM32F4xx_HAL_Driver/Src/stm32f4xx_ll_usb.c:728:13
	ldrb	r0, [r0, #3]
.Ltmp214:
	.loc	2 728 9                         @ ../ThirdParty/STM32F4xx_HAL_Driver/Src/stm32f4xx_ll_usb.c:728:9
	cmp	r0, #1
	bne	.LBB14_18
	b	.LBB14_14
.LBB14_14:
.Ltmp215:
	.loc	2 730 12 is_stmt 1              @ ../ThirdParty/STM32F4xx_HAL_Driver/Src/stm32f4xx_ll_usb.c:730:12
	ldr	r0, [sp, #12]
	.loc	2 730 25 is_stmt 0              @ ../ThirdParty/STM32F4xx_HAL_Driver/Src/stm32f4xx_ll_usb.c:730:25
	ldr.w	r0, [r0, #2056]
.Ltmp216:
	.loc	2 730 11                        @ ../ThirdParty/STM32F4xx_HAL_Driver/Src/stm32f4xx_ll_usb.c:730:11
	lsls	r0, r0, #23
	cmp	r0, #0
	bmi	.LBB14_16
	b	.LBB14_15
.LBB14_15:
.Ltmp217:
	.loc	2 732 9 is_stmt 1               @ ../ThirdParty/STM32F4xx_HAL_Driver/Src/stm32f4xx_ll_usb.c:732:9
	ldr	r0, [sp, #12]
	ldr	r1, [sp, #8]
	ldrb	r1, [r1]
	add.w	r1, r0, r1, lsl #5
	.loc	2 732 37 is_stmt 0              @ ../ThirdParty/STM32F4xx_HAL_Driver/Src/stm32f4xx_ll_usb.c:732:37
	ldr.w	r0, [r1, #2304]
	orr	r0, r0, #536870912
	str.w	r0, [r1, #2304]
	.loc	2 733 7 is_stmt 1               @ ../ThirdParty/STM32F4xx_HAL_Driver/Src/stm32f4xx_ll_usb.c:733:7
	b	.LBB14_17
.Ltmp218:
.LBB14_16:
	.loc	2 736 9                         @ ../ThirdParty/STM32F4xx_HAL_Driver/Src/stm32f4xx_ll_usb.c:736:9
	ldr	r0, [sp, #12]
	ldr	r1, [sp, #8]
	ldrb	r1, [r1]
	add.w	r1, r0, r1, lsl #5
	.loc	2 736 37 is_stmt 0              @ ../ThirdParty/STM32F4xx_HAL_Driver/Src/stm32f4xx_ll_usb.c:736:37
	ldr.w	r0, [r1, #2304]
	orr	r0, r0, #268435456
	str.w	r0, [r1, #2304]
	b	.LBB14_17
.Ltmp219:
.LBB14_17:
	.loc	2 738 5 is_stmt 1               @ ../ThirdParty/STM32F4xx_HAL_Driver/Src/stm32f4xx_ll_usb.c:738:5
	b	.LBB14_18
.Ltmp220:
.LBB14_18:
	.loc	2 741 5                         @ ../ThirdParty/STM32F4xx_HAL_Driver/Src/stm32f4xx_ll_usb.c:741:5
	ldr	r0, [sp, #12]
	ldr	r1, [sp, #8]
	ldrb	r1, [r1]
	add.w	r1, r0, r1, lsl #5
	.loc	2 741 33 is_stmt 0              @ ../ThirdParty/STM32F4xx_HAL_Driver/Src/stm32f4xx_ll_usb.c:741:33
	ldr.w	r0, [r1, #2304]
	orr	r0, r0, #-2080374784
	str.w	r0, [r1, #2304]
.Ltmp221:
	.loc	2 743 9 is_stmt 1               @ ../ThirdParty/STM32F4xx_HAL_Driver/Src/stm32f4xx_ll_usb.c:743:9
	ldr	r0, [sp, #8]
	.loc	2 743 13 is_stmt 0              @ ../ThirdParty/STM32F4xx_HAL_Driver/Src/stm32f4xx_ll_usb.c:743:13
	ldrb	r0, [r0, #3]
.Ltmp222:
	.loc	2 743 9                         @ ../ThirdParty/STM32F4xx_HAL_Driver/Src/stm32f4xx_ll_usb.c:743:9
	cmp	r0, #1
	bne	.LBB14_20
	b	.LBB14_19
.LBB14_19:
.Ltmp223:
	.loc	2 745 23 is_stmt 1              @ ../ThirdParty/STM32F4xx_HAL_Driver/Src/stm32f4xx_ll_usb.c:745:23
	ldr	r0, [sp, #12]
	.loc	2 745 29 is_stmt 0              @ ../ThirdParty/STM32F4xx_HAL_Driver/Src/stm32f4xx_ll_usb.c:745:29
	ldr	r3, [sp, #8]
	.loc	2 745 33                        @ ../ThirdParty/STM32F4xx_HAL_Driver/Src/stm32f4xx_ll_usb.c:745:33
	ldr	r1, [r3, #12]
	.loc	2 745 48                        @ ../ThirdParty/STM32F4xx_HAL_Driver/Src/stm32f4xx_ll_usb.c:745:48
	ldrb	r2, [r3]
	.loc	2 745 57                        @ ../ThirdParty/STM32F4xx_HAL_Driver/Src/stm32f4xx_ll_usb.c:745:57
	ldrh	r3, [r3, #20]
	.loc	2 745 67                        @ ../ThirdParty/STM32F4xx_HAL_Driver/Src/stm32f4xx_ll_usb.c:745:67
	ldrb.w	r12, [sp, #7]
	.loc	2 745 7                         @ ../ThirdParty/STM32F4xx_HAL_Driver/Src/stm32f4xx_ll_usb.c:745:7
	mov	lr, sp
	str.w	r12, [lr]
	bl	USB_WritePacket
	.loc	2 746 5 is_stmt 1               @ ../ThirdParty/STM32F4xx_HAL_Driver/Src/stm32f4xx_ll_usb.c:746:5
	b	.LBB14_20
.Ltmp224:
.LBB14_20:
	.loc	2 747 3                         @ ../ThirdParty/STM32F4xx_HAL_Driver/Src/stm32f4xx_ll_usb.c:747:3
	b	.LBB14_32
.Ltmp225:
.LBB14_21:
	.loc	2 754 5                         @ ../ThirdParty/STM32F4xx_HAL_Driver/Src/stm32f4xx_ll_usb.c:754:5
	ldr	r0, [sp, #12]
	ldr	r1, [sp, #8]
	ldrb	r1, [r1]
	add.w	r1, r0, r1, lsl #5
	.loc	2 754 35 is_stmt 0              @ ../ThirdParty/STM32F4xx_HAL_Driver/Src/stm32f4xx_ll_usb.c:754:35
	ldr.w	r0, [r1, #2832]
	bfc	r0, #0, #19
	str.w	r0, [r1, #2832]
	.loc	2 755 5 is_stmt 1               @ ../ThirdParty/STM32F4xx_HAL_Driver/Src/stm32f4xx_ll_usb.c:755:5
	ldr	r0, [sp, #12]
	ldr	r1, [sp, #8]
	ldrb	r1, [r1]
	add.w	r1, r0, r1, lsl #5
	.loc	2 755 35 is_stmt 0              @ ../ThirdParty/STM32F4xx_HAL_Driver/Src/stm32f4xx_ll_usb.c:755:35
	ldr.w	r0, [r1, #2832]
	bfc	r0, #19, #10
	str.w	r0, [r1, #2832]
.Ltmp226:
	.loc	2 757 9 is_stmt 1               @ ../ThirdParty/STM32F4xx_HAL_Driver/Src/stm32f4xx_ll_usb.c:757:9
	ldr	r0, [sp, #8]
	.loc	2 757 13 is_stmt 0              @ ../ThirdParty/STM32F4xx_HAL_Driver/Src/stm32f4xx_ll_usb.c:757:13
	ldr	r0, [r0, #20]
.Ltmp227:
	.loc	2 757 9                         @ ../ThirdParty/STM32F4xx_HAL_Driver/Src/stm32f4xx_ll_usb.c:757:9
	cbnz	r0, .LBB14_23
	b	.LBB14_22
.LBB14_22:
.Ltmp228:
	.loc	2 759 67 is_stmt 1              @ ../ThirdParty/STM32F4xx_HAL_Driver/Src/stm32f4xx_ll_usb.c:759:67
	ldr	r1, [sp, #8]
	.loc	2 759 71 is_stmt 0              @ ../ThirdParty/STM32F4xx_HAL_Driver/Src/stm32f4xx_ll_usb.c:759:71
	ldr	r2, [r1, #8]
	.loc	2 759 65                        @ ../ThirdParty/STM32F4xx_HAL_Driver/Src/stm32f4xx_ll_usb.c:759:65
	bfc	r2, #19, #13
	.loc	2 759 7                         @ ../ThirdParty/STM32F4xx_HAL_Driver/Src/stm32f4xx_ll_usb.c:759:7
	ldr	r0, [sp, #12]
	ldrb	r1, [r1]
	add.w	r1, r0, r1, lsl #5
	.loc	2 759 37                        @ ../ThirdParty/STM32F4xx_HAL_Driver/Src/stm32f4xx_ll_usb.c:759:37
	ldr.w	r0, [r1, #2832]
	orrs	r0, r2
	str.w	r0, [r1, #2832]
	.loc	2 760 7 is_stmt 1               @ ../ThirdParty/STM32F4xx_HAL_Driver/Src/stm32f4xx_ll_usb.c:760:7
	ldr	r0, [sp, #12]
	ldr	r1, [sp, #8]
	ldrb	r1, [r1]
	add.w	r1, r0, r1, lsl #5
	.loc	2 760 37 is_stmt 0              @ ../ThirdParty/STM32F4xx_HAL_Driver/Src/stm32f4xx_ll_usb.c:760:37
	ldr.w	r0, [r1, #2832]
	orr	r0, r0, #524288
	str.w	r0, [r1, #2832]
	.loc	2 761 5 is_stmt 1               @ ../ThirdParty/STM32F4xx_HAL_Driver/Src/stm32f4xx_ll_usb.c:761:5
	b	.LBB14_24
.Ltmp229:
.LBB14_23:
	.loc	2 764 17                        @ ../ThirdParty/STM32F4xx_HAL_Driver/Src/stm32f4xx_ll_usb.c:764:17
	ldr	r0, [sp, #8]
	.loc	2 764 36 is_stmt 0              @ ../ThirdParty/STM32F4xx_HAL_Driver/Src/stm32f4xx_ll_usb.c:764:36
	ldr	r1, [r0, #8]
	.loc	2 764 21                        @ ../ThirdParty/STM32F4xx_HAL_Driver/Src/stm32f4xx_ll_usb.c:764:21
	ldr	r0, [r0, #20]
	.loc	2 764 30                        @ ../ThirdParty/STM32F4xx_HAL_Driver/Src/stm32f4xx_ll_usb.c:764:30
	add	r0, r1
	.loc	2 764 46                        @ ../ThirdParty/STM32F4xx_HAL_Driver/Src/stm32f4xx_ll_usb.c:764:46
	subs	r0, #1
	.loc	2 764 50                        @ ../ThirdParty/STM32F4xx_HAL_Driver/Src/stm32f4xx_ll_usb.c:764:50
	udiv	r0, r0, r1
	.loc	2 764 14                        @ ../ThirdParty/STM32F4xx_HAL_Driver/Src/stm32f4xx_ll_usb.c:764:14
	strh.w	r0, [sp, #4]
	.loc	2 765 68 is_stmt 1              @ ../ThirdParty/STM32F4xx_HAL_Driver/Src/stm32f4xx_ll_usb.c:765:68
	ldrh.w	r1, [sp, #4]
	movs	r0, #0
	movt	r0, #8184
	.loc	2 765 65 is_stmt 0              @ ../ThirdParty/STM32F4xx_HAL_Driver/Src/stm32f4xx_ll_usb.c:765:65
	and.w	r2, r0, r1, lsl #19
	.loc	2 765 7                         @ ../ThirdParty/STM32F4xx_HAL_Driver/Src/stm32f4xx_ll_usb.c:765:7
	ldr	r0, [sp, #12]
	ldr	r1, [sp, #8]
	ldrb	r1, [r1]
	add.w	r1, r0, r1, lsl #5
	.loc	2 765 37                        @ ../ThirdParty/STM32F4xx_HAL_Driver/Src/stm32f4xx_ll_usb.c:765:37
	ldr.w	r0, [r1, #2832]
	orrs	r0, r2
	str.w	r0, [r1, #2832]
	.loc	2 766 68 is_stmt 1              @ ../ThirdParty/STM32F4xx_HAL_Driver/Src/stm32f4xx_ll_usb.c:766:68
	ldr	r1, [sp, #8]
	.loc	2 766 72 is_stmt 0              @ ../ThirdParty/STM32F4xx_HAL_Driver/Src/stm32f4xx_ll_usb.c:766:72
	ldr	r0, [r1, #8]
	.loc	2 766 84                        @ ../ThirdParty/STM32F4xx_HAL_Driver/Src/stm32f4xx_ll_usb.c:766:84
	ldrh.w	r2, [sp, #4]
	.loc	2 766 82                        @ ../ThirdParty/STM32F4xx_HAL_Driver/Src/stm32f4xx_ll_usb.c:766:82
	muls	r2, r0, r2
	.loc	2 766 65                        @ ../ThirdParty/STM32F4xx_HAL_Driver/Src/stm32f4xx_ll_usb.c:766:65
	bfc	r2, #19, #13
	.loc	2 766 7                         @ ../ThirdParty/STM32F4xx_HAL_Driver/Src/stm32f4xx_ll_usb.c:766:7
	ldr	r0, [sp, #12]
	ldrb	r1, [r1]
	add.w	r1, r0, r1, lsl #5
	.loc	2 766 37                        @ ../ThirdParty/STM32F4xx_HAL_Driver/Src/stm32f4xx_ll_usb.c:766:37
	ldr.w	r0, [r1, #2832]
	orrs	r0, r2
	str.w	r0, [r1, #2832]
	b	.LBB14_24
.Ltmp230:
.LBB14_24:
	.loc	2 769 9 is_stmt 1               @ ../ThirdParty/STM32F4xx_HAL_Driver/Src/stm32f4xx_ll_usb.c:769:9
	ldrb.w	r0, [sp, #7]
.Ltmp231:
	.loc	2 769 9 is_stmt 0               @ ../ThirdParty/STM32F4xx_HAL_Driver/Src/stm32f4xx_ll_usb.c:769:9
	cmp	r0, #1
	bne	.LBB14_26
	b	.LBB14_25
.LBB14_25:
.Ltmp232:
	.loc	2 771 48 is_stmt 1              @ ../ThirdParty/STM32F4xx_HAL_Driver/Src/stm32f4xx_ll_usb.c:771:48
	ldr	r2, [sp, #8]
	.loc	2 771 52 is_stmt 0              @ ../ThirdParty/STM32F4xx_HAL_Driver/Src/stm32f4xx_ll_usb.c:771:52
	ldr	r0, [r2, #12]
	.loc	2 771 7                         @ ../ThirdParty/STM32F4xx_HAL_Driver/Src/stm32f4xx_ll_usb.c:771:7
	ldr	r1, [sp, #12]
	ldrb	r2, [r2]
	add.w	r1, r1, r2, lsl #5
	.loc	2 771 36                        @ ../ThirdParty/STM32F4xx_HAL_Driver/Src/stm32f4xx_ll_usb.c:771:36
	str.w	r0, [r1, #2836]
	.loc	2 772 5 is_stmt 1               @ ../ThirdParty/STM32F4xx_HAL_Driver/Src/stm32f4xx_ll_usb.c:772:5
	b	.LBB14_26
.Ltmp233:
.LBB14_26:
	.loc	2 774 9                         @ ../ThirdParty/STM32F4xx_HAL_Driver/Src/stm32f4xx_ll_usb.c:774:9
	ldr	r0, [sp, #8]
	.loc	2 774 13 is_stmt 0              @ ../ThirdParty/STM32F4xx_HAL_Driver/Src/stm32f4xx_ll_usb.c:774:13
	ldrb	r0, [r0, #3]
.Ltmp234:
	.loc	2 774 9                         @ ../ThirdParty/STM32F4xx_HAL_Driver/Src/stm32f4xx_ll_usb.c:774:9
	cmp	r0, #1
	bne	.LBB14_31
	b	.LBB14_27
.LBB14_27:
.Ltmp235:
	.loc	2 776 12 is_stmt 1              @ ../ThirdParty/STM32F4xx_HAL_Driver/Src/stm32f4xx_ll_usb.c:776:12
	ldr	r0, [sp, #12]
	.loc	2 776 25 is_stmt 0              @ ../ThirdParty/STM32F4xx_HAL_Driver/Src/stm32f4xx_ll_usb.c:776:25
	ldr.w	r0, [r0, #2056]
.Ltmp236:
	.loc	2 776 11                        @ ../ThirdParty/STM32F4xx_HAL_Driver/Src/stm32f4xx_ll_usb.c:776:11
	lsls	r0, r0, #23
	cmp	r0, #0
	bmi	.LBB14_29
	b	.LBB14_28
.LBB14_28:
.Ltmp237:
	.loc	2 778 9 is_stmt 1               @ ../ThirdParty/STM32F4xx_HAL_Driver/Src/stm32f4xx_ll_usb.c:778:9
	ldr	r0, [sp, #12]
	ldr	r1, [sp, #8]
	ldrb	r1, [r1]
	add.w	r1, r0, r1, lsl #5
	.loc	2 778 38 is_stmt 0              @ ../ThirdParty/STM32F4xx_HAL_Driver/Src/stm32f4xx_ll_usb.c:778:38
	ldr.w	r0, [r1, #2816]
	orr	r0, r0, #536870912
	str.w	r0, [r1, #2816]
	.loc	2 779 7 is_stmt 1               @ ../ThirdParty/STM32F4xx_HAL_Driver/Src/stm32f4xx_ll_usb.c:779:7
	b	.LBB14_30
.Ltmp238:
.LBB14_29:
	.loc	2 782 9                         @ ../ThirdParty/STM32F4xx_HAL_Driver/Src/stm32f4xx_ll_usb.c:782:9
	ldr	r0, [sp, #12]
	ldr	r1, [sp, #8]
	ldrb	r1, [r1]
	add.w	r1, r0, r1, lsl #5
	.loc	2 782 38 is_stmt 0              @ ../ThirdParty/STM32F4xx_HAL_Driver/Src/stm32f4xx_ll_usb.c:782:38
	ldr.w	r0, [r1, #2816]
	orr	r0, r0, #268435456
	str.w	r0, [r1, #2816]
	b	.LBB14_30
.Ltmp239:
.LBB14_30:
	.loc	2 784 5 is_stmt 1               @ ../ThirdParty/STM32F4xx_HAL_Driver/Src/stm32f4xx_ll_usb.c:784:5
	b	.LBB14_31
.Ltmp240:
.LBB14_31:
	.loc	2 786 5                         @ ../ThirdParty/STM32F4xx_HAL_Driver/Src/stm32f4xx_ll_usb.c:786:5
	ldr	r0, [sp, #12]
	ldr	r1, [sp, #8]
	ldrb	r1, [r1]
	add.w	r1, r0, r1, lsl #5
	.loc	2 786 34 is_stmt 0              @ ../ThirdParty/STM32F4xx_HAL_Driver/Src/stm32f4xx_ll_usb.c:786:34
	ldr.w	r0, [r1, #2816]
	orr	r0, r0, #-2080374784
	str.w	r0, [r1, #2816]
	b	.LBB14_32
.Ltmp241:
.LBB14_32:
	.loc	2 0 34                          @ ../ThirdParty/STM32F4xx_HAL_Driver/Src/stm32f4xx_ll_usb.c:0:34
	movs	r0, #0
	.loc	2 788 3 epilogue_begin is_stmt 1 @ ../ThirdParty/STM32F4xx_HAL_Driver/Src/stm32f4xx_ll_usb.c:788:3
	add	sp, #16
	pop	{r7, pc}
.Ltmp242:
.Lfunc_end14:
	.size	USB_EPStartXfer, .Lfunc_end14-USB_EPStartXfer
	.cfi_endproc
	.cantunwind
	.fnend
                                        @ -- End function
	.section	.text.USB_WritePacket,"ax",%progbits
	.hidden	USB_WritePacket                 @ -- Begin function USB_WritePacket
	.globl	USB_WritePacket
	.p2align	2
	.type	USB_WritePacket,%function
	.code	16                              @ @USB_WritePacket
	.thumb_func
USB_WritePacket:
.Lfunc_begin15:
	.loc	2 892 0                         @ ../ThirdParty/STM32F4xx_HAL_Driver/Src/stm32f4xx_ll_usb.c:892:0
	.fnstart
	.cfi_startproc
@ %bb.0:
	.save	{r7, lr}
	push	{r7, lr}
	.cfi_def_cfa_offset 8
	.cfi_offset lr, -4
	.cfi_offset r7, -8
	.pad	#24
	sub	sp, #24
	.cfi_def_cfa_offset 32
	mov	r12, r0
	ldr	r0, [sp, #32]
                                        @ kill: def $lr killed $r3
                                        @ kill: def $lr killed $r2
	str.w	r12, [sp, #20]
	str	r1, [sp, #16]
	strb.w	r2, [sp, #15]
	strh.w	r3, [sp, #12]
	strb.w	r0, [sp, #11]
	movs	r0, #0
.Ltmp243:
	.loc	2 893 12 prologue_end           @ ../ThirdParty/STM32F4xx_HAL_Driver/Src/stm32f4xx_ll_usb.c:893:12
	str	r0, [sp, #4]
	.loc	2 893 28 is_stmt 0              @ ../ThirdParty/STM32F4xx_HAL_Driver/Src/stm32f4xx_ll_usb.c:893:28
	str	r0, [sp]
.Ltmp244:
	.loc	2 895 7 is_stmt 1               @ ../ThirdParty/STM32F4xx_HAL_Driver/Src/stm32f4xx_ll_usb.c:895:7
	ldrb.w	r0, [sp, #11]
.Ltmp245:
	.loc	2 895 7 is_stmt 0               @ ../ThirdParty/STM32F4xx_HAL_Driver/Src/stm32f4xx_ll_usb.c:895:7
	cbnz	r0, .LBB15_6
	b	.LBB15_1
.LBB15_1:
.Ltmp246:
	.loc	2 897 18 is_stmt 1              @ ../ThirdParty/STM32F4xx_HAL_Driver/Src/stm32f4xx_ll_usb.c:897:18
	ldrh.w	r0, [sp, #12]
	.loc	2 897 22 is_stmt 0              @ ../ThirdParty/STM32F4xx_HAL_Driver/Src/stm32f4xx_ll_usb.c:897:22
	adds	r0, #3
	.loc	2 897 28                        @ ../ThirdParty/STM32F4xx_HAL_Driver/Src/stm32f4xx_ll_usb.c:897:28
	lsrs	r0, r0, #2
	.loc	2 897 14                        @ ../ThirdParty/STM32F4xx_HAL_Driver/Src/stm32f4xx_ll_usb.c:897:14
	str	r0, [sp, #4]
	movs	r0, #0
.Ltmp247:
	.loc	2 898 12 is_stmt 1              @ ../ThirdParty/STM32F4xx_HAL_Driver/Src/stm32f4xx_ll_usb.c:898:12
	str	r0, [sp]
	.loc	2 898 10 is_stmt 0              @ ../ThirdParty/STM32F4xx_HAL_Driver/Src/stm32f4xx_ll_usb.c:898:10
	b	.LBB15_2
.LBB15_2:                               @ =>This Inner Loop Header: Depth=1
.Ltmp248:
	.loc	2 898 18                        @ ../ThirdParty/STM32F4xx_HAL_Driver/Src/stm32f4xx_ll_usb.c:898:18
	ldr	r0, [sp]
	.loc	2 898 22                        @ ../ThirdParty/STM32F4xx_HAL_Driver/Src/stm32f4xx_ll_usb.c:898:22
	ldr	r1, [sp, #4]
.Ltmp249:
	.loc	2 898 5                         @ ../ThirdParty/STM32F4xx_HAL_Driver/Src/stm32f4xx_ll_usb.c:898:5
	cmp	r0, r1
	bhs	.LBB15_5
	b	.LBB15_3
.LBB15_3:                               @   in Loop: Header=BB15_2 Depth=1
.Ltmp250:
	.loc	2 900 31 is_stmt 1              @ ../ThirdParty/STM32F4xx_HAL_Driver/Src/stm32f4xx_ll_usb.c:900:31
	ldr	r0, [sp, #16]
	ldr	r0, [r0]
	.loc	2 900 7 is_stmt 0               @ ../ThirdParty/STM32F4xx_HAL_Driver/Src/stm32f4xx_ll_usb.c:900:7
	ldr	r1, [sp, #20]
	ldrb.w	r2, [sp, #15]
	add.w	r1, r1, r2, lsl #12
	mov.w	r2, #4096
	.loc	2 900 29                        @ ../ThirdParty/STM32F4xx_HAL_Driver/Src/stm32f4xx_ll_usb.c:900:29
	str	r0, [r1, r2]
	.loc	2 901 5 is_stmt 1               @ ../ThirdParty/STM32F4xx_HAL_Driver/Src/stm32f4xx_ll_usb.c:901:5
	b	.LBB15_4
.Ltmp251:
.LBB15_4:                               @   in Loop: Header=BB15_2 Depth=1
	.loc	2 898 33                        @ ../ThirdParty/STM32F4xx_HAL_Driver/Src/stm32f4xx_ll_usb.c:898:33
	ldr	r0, [sp]
	adds	r0, #1
	str	r0, [sp]
	.loc	2 898 41 is_stmt 0              @ ../ThirdParty/STM32F4xx_HAL_Driver/Src/stm32f4xx_ll_usb.c:898:41
	ldr	r0, [sp, #16]
	adds	r0, #4
	str	r0, [sp, #16]
	.loc	2 898 5                         @ ../ThirdParty/STM32F4xx_HAL_Driver/Src/stm32f4xx_ll_usb.c:898:5
	b	.LBB15_2
.Ltmp252:
.LBB15_5:
	.loc	2 902 3 is_stmt 1               @ ../ThirdParty/STM32F4xx_HAL_Driver/Src/stm32f4xx_ll_usb.c:902:3
	b	.LBB15_6
.Ltmp253:
.LBB15_6:
	.loc	2 0 3 is_stmt 0                 @ ../ThirdParty/STM32F4xx_HAL_Driver/Src/stm32f4xx_ll_usb.c:0:3
	movs	r0, #0
	.loc	2 903 3 epilogue_begin is_stmt 1 @ ../ThirdParty/STM32F4xx_HAL_Driver/Src/stm32f4xx_ll_usb.c:903:3
	add	sp, #24
	pop	{r7, pc}
.Ltmp254:
.Lfunc_end15:
	.size	USB_WritePacket, .Lfunc_end15-USB_WritePacket
	.cfi_endproc
	.cantunwind
	.fnend
                                        @ -- End function
	.section	.text.USB_EP0StartXfer,"ax",%progbits
	.hidden	USB_EP0StartXfer                @ -- Begin function USB_EP0StartXfer
	.globl	USB_EP0StartXfer
	.p2align	2
	.type	USB_EP0StartXfer,%function
	.code	16                              @ @USB_EP0StartXfer
	.thumb_func
USB_EP0StartXfer:
.Lfunc_begin16:
	.loc	2 802 0                         @ ../ThirdParty/STM32F4xx_HAL_Driver/Src/stm32f4xx_ll_usb.c:802:0
	.fnstart
	.cfi_startproc
@ %bb.0:
	.pad	#12
	sub	sp, #12
	.cfi_def_cfa_offset 12
                                        @ kill: def $r3 killed $r2
	str	r0, [sp, #8]
	str	r1, [sp, #4]
	strb.w	r2, [sp, #3]
.Ltmp255:
	.loc	2 804 7 prologue_end            @ ../ThirdParty/STM32F4xx_HAL_Driver/Src/stm32f4xx_ll_usb.c:804:7
	ldr	r0, [sp, #4]
	.loc	2 804 11 is_stmt 0              @ ../ThirdParty/STM32F4xx_HAL_Driver/Src/stm32f4xx_ll_usb.c:804:11
	ldrb	r0, [r0, #1]
.Ltmp256:
	.loc	2 804 7                         @ ../ThirdParty/STM32F4xx_HAL_Driver/Src/stm32f4xx_ll_usb.c:804:7
	cmp	r0, #1
	bne.w	.LBB16_12
	b	.LBB16_1
.LBB16_1:
.Ltmp257:
	.loc	2 807 9 is_stmt 1               @ ../ThirdParty/STM32F4xx_HAL_Driver/Src/stm32f4xx_ll_usb.c:807:9
	ldr	r0, [sp, #4]
	.loc	2 807 13 is_stmt 0              @ ../ThirdParty/STM32F4xx_HAL_Driver/Src/stm32f4xx_ll_usb.c:807:13
	ldr	r0, [r0, #20]
.Ltmp258:
	.loc	2 807 9                         @ ../ThirdParty/STM32F4xx_HAL_Driver/Src/stm32f4xx_ll_usb.c:807:9
	cbnz	r0, .LBB16_3
	b	.LBB16_2
.LBB16_2:
.Ltmp259:
	.loc	2 809 7 is_stmt 1               @ ../ThirdParty/STM32F4xx_HAL_Driver/Src/stm32f4xx_ll_usb.c:809:7
	ldr	r0, [sp, #8]
	ldr	r1, [sp, #4]
	ldrb	r1, [r1]
	add.w	r1, r0, r1, lsl #5
	.loc	2 809 36 is_stmt 0              @ ../ThirdParty/STM32F4xx_HAL_Driver/Src/stm32f4xx_ll_usb.c:809:36
	ldr.w	r0, [r1, #2320]
	bfc	r0, #19, #10
	str.w	r0, [r1, #2320]
	.loc	2 810 7 is_stmt 1               @ ../ThirdParty/STM32F4xx_HAL_Driver/Src/stm32f4xx_ll_usb.c:810:7
	ldr	r0, [sp, #8]
	ldr	r1, [sp, #4]
	ldrb	r1, [r1]
	add.w	r1, r0, r1, lsl #5
	.loc	2 810 36 is_stmt 0              @ ../ThirdParty/STM32F4xx_HAL_Driver/Src/stm32f4xx_ll_usb.c:810:36
	ldr.w	r0, [r1, #2320]
	orr	r0, r0, #524288
	str.w	r0, [r1, #2320]
	.loc	2 811 7 is_stmt 1               @ ../ThirdParty/STM32F4xx_HAL_Driver/Src/stm32f4xx_ll_usb.c:811:7
	ldr	r0, [sp, #8]
	ldr	r1, [sp, #4]
	ldrb	r1, [r1]
	add.w	r1, r0, r1, lsl #5
	.loc	2 811 36 is_stmt 0              @ ../ThirdParty/STM32F4xx_HAL_Driver/Src/stm32f4xx_ll_usb.c:811:36
	ldr.w	r0, [r1, #2320]
	bfc	r0, #0, #19
	str.w	r0, [r1, #2320]
	.loc	2 812 5 is_stmt 1               @ ../ThirdParty/STM32F4xx_HAL_Driver/Src/stm32f4xx_ll_usb.c:812:5
	b	.LBB16_6
.Ltmp260:
.LBB16_3:
	.loc	2 820 7                         @ ../ThirdParty/STM32F4xx_HAL_Driver/Src/stm32f4xx_ll_usb.c:820:7
	ldr	r0, [sp, #8]
	ldr	r1, [sp, #4]
	ldrb	r1, [r1]
	add.w	r1, r0, r1, lsl #5
	.loc	2 820 36 is_stmt 0              @ ../ThirdParty/STM32F4xx_HAL_Driver/Src/stm32f4xx_ll_usb.c:820:36
	ldr.w	r0, [r1, #2320]
	bfc	r0, #0, #19
	str.w	r0, [r1, #2320]
	.loc	2 821 7 is_stmt 1               @ ../ThirdParty/STM32F4xx_HAL_Driver/Src/stm32f4xx_ll_usb.c:821:7
	ldr	r0, [sp, #8]
	ldr	r1, [sp, #4]
	ldrb	r1, [r1]
	add.w	r1, r0, r1, lsl #5
	.loc	2 821 36 is_stmt 0              @ ../ThirdParty/STM32F4xx_HAL_Driver/Src/stm32f4xx_ll_usb.c:821:36
	ldr.w	r0, [r1, #2320]
	bfc	r0, #19, #10
	str.w	r0, [r1, #2320]
.Ltmp261:
	.loc	2 823 10 is_stmt 1              @ ../ThirdParty/STM32F4xx_HAL_Driver/Src/stm32f4xx_ll_usb.c:823:10
	ldr	r0, [sp, #4]
	.loc	2 823 29 is_stmt 0              @ ../ThirdParty/STM32F4xx_HAL_Driver/Src/stm32f4xx_ll_usb.c:823:29
	ldr	r1, [r0, #8]
	.loc	2 823 14                        @ ../ThirdParty/STM32F4xx_HAL_Driver/Src/stm32f4xx_ll_usb.c:823:14
	ldr	r0, [r0, #20]
.Ltmp262:
	.loc	2 823 10                        @ ../ThirdParty/STM32F4xx_HAL_Driver/Src/stm32f4xx_ll_usb.c:823:10
	cmp	r0, r1
	bls	.LBB16_5
	b	.LBB16_4
.LBB16_4:
.Ltmp263:
	.loc	2 825 24 is_stmt 1              @ ../ThirdParty/STM32F4xx_HAL_Driver/Src/stm32f4xx_ll_usb.c:825:24
	ldr	r1, [sp, #4]
	.loc	2 825 28 is_stmt 0              @ ../ThirdParty/STM32F4xx_HAL_Driver/Src/stm32f4xx_ll_usb.c:825:28
	ldr	r0, [r1, #8]
	.loc	2 825 22                        @ ../ThirdParty/STM32F4xx_HAL_Driver/Src/stm32f4xx_ll_usb.c:825:22
	str	r0, [r1, #20]
	.loc	2 826 7 is_stmt 1               @ ../ThirdParty/STM32F4xx_HAL_Driver/Src/stm32f4xx_ll_usb.c:826:7
	b	.LBB16_5
.Ltmp264:
.LBB16_5:
	.loc	2 827 7                         @ ../ThirdParty/STM32F4xx_HAL_Driver/Src/stm32f4xx_ll_usb.c:827:7
	ldr	r0, [sp, #8]
	ldr	r1, [sp, #4]
	ldrb	r1, [r1]
	add.w	r1, r0, r1, lsl #5
	.loc	2 827 36 is_stmt 0              @ ../ThirdParty/STM32F4xx_HAL_Driver/Src/stm32f4xx_ll_usb.c:827:36
	ldr.w	r0, [r1, #2320]
	orr	r0, r0, #524288
	str.w	r0, [r1, #2320]
	.loc	2 828 66 is_stmt 1              @ ../ThirdParty/STM32F4xx_HAL_Driver/Src/stm32f4xx_ll_usb.c:828:66
	ldr	r1, [sp, #4]
	.loc	2 828 70 is_stmt 0              @ ../ThirdParty/STM32F4xx_HAL_Driver/Src/stm32f4xx_ll_usb.c:828:70
	ldr	r2, [r1, #20]
	.loc	2 828 64                        @ ../ThirdParty/STM32F4xx_HAL_Driver/Src/stm32f4xx_ll_usb.c:828:64
	bfc	r2, #19, #13
	.loc	2 828 7                         @ ../ThirdParty/STM32F4xx_HAL_Driver/Src/stm32f4xx_ll_usb.c:828:7
	ldr	r0, [sp, #8]
	ldrb	r1, [r1]
	add.w	r1, r0, r1, lsl #5
	.loc	2 828 36                        @ ../ThirdParty/STM32F4xx_HAL_Driver/Src/stm32f4xx_ll_usb.c:828:36
	ldr.w	r0, [r1, #2320]
	orrs	r0, r2
	str.w	r0, [r1, #2320]
	b	.LBB16_6
.Ltmp265:
.LBB16_6:
	.loc	2 833 5 is_stmt 1               @ ../ThirdParty/STM32F4xx_HAL_Driver/Src/stm32f4xx_ll_usb.c:833:5
	ldr	r0, [sp, #8]
	ldr	r1, [sp, #4]
	ldrb	r1, [r1]
	add.w	r1, r0, r1, lsl #5
	.loc	2 833 33 is_stmt 0              @ ../ThirdParty/STM32F4xx_HAL_Driver/Src/stm32f4xx_ll_usb.c:833:33
	ldr.w	r0, [r1, #2304]
	orr	r0, r0, #-2080374784
	str.w	r0, [r1, #2304]
.Ltmp266:
	.loc	2 835 9 is_stmt 1               @ ../ThirdParty/STM32F4xx_HAL_Driver/Src/stm32f4xx_ll_usb.c:835:9
	ldrb.w	r0, [sp, #3]
.Ltmp267:
	.loc	2 835 9 is_stmt 0               @ ../ThirdParty/STM32F4xx_HAL_Driver/Src/stm32f4xx_ll_usb.c:835:9
	cmp	r0, #1
	bne	.LBB16_8
	b	.LBB16_7
.LBB16_7:
.Ltmp268:
	.loc	2 837 48 is_stmt 1              @ ../ThirdParty/STM32F4xx_HAL_Driver/Src/stm32f4xx_ll_usb.c:837:48
	ldr	r2, [sp, #4]
	.loc	2 837 52 is_stmt 0              @ ../ThirdParty/STM32F4xx_HAL_Driver/Src/stm32f4xx_ll_usb.c:837:52
	ldr	r0, [r2, #16]
	.loc	2 837 7                         @ ../ThirdParty/STM32F4xx_HAL_Driver/Src/stm32f4xx_ll_usb.c:837:7
	ldr	r1, [sp, #8]
	ldrb	r2, [r2]
	add.w	r1, r1, r2, lsl #5
	.loc	2 837 35                        @ ../ThirdParty/STM32F4xx_HAL_Driver/Src/stm32f4xx_ll_usb.c:837:35
	str.w	r0, [r1, #2324]
	.loc	2 838 5 is_stmt 1               @ ../ThirdParty/STM32F4xx_HAL_Driver/Src/stm32f4xx_ll_usb.c:838:5
	b	.LBB16_11
.Ltmp269:
.LBB16_8:
	.loc	2 842 11                        @ ../ThirdParty/STM32F4xx_HAL_Driver/Src/stm32f4xx_ll_usb.c:842:11
	ldr	r0, [sp, #4]
	.loc	2 842 15 is_stmt 0              @ ../ThirdParty/STM32F4xx_HAL_Driver/Src/stm32f4xx_ll_usb.c:842:15
	ldr	r0, [r0, #20]
.Ltmp270:
	.loc	2 842 11                        @ ../ThirdParty/STM32F4xx_HAL_Driver/Src/stm32f4xx_ll_usb.c:842:11
	cbz	r0, .LBB16_10
	b	.LBB16_9
.LBB16_9:
.Ltmp271:
	.loc	2 844 43 is_stmt 1              @ ../ThirdParty/STM32F4xx_HAL_Driver/Src/stm32f4xx_ll_usb.c:844:43
	ldr	r0, [sp, #4]
	.loc	2 844 47 is_stmt 0              @ ../ThirdParty/STM32F4xx_HAL_Driver/Src/stm32f4xx_ll_usb.c:844:47
	ldrb	r1, [r0]
	movs	r0, #1
	.loc	2 844 39                        @ ../ThirdParty/STM32F4xx_HAL_Driver/Src/stm32f4xx_ll_usb.c:844:39
	lsl.w	r2, r0, r1
	.loc	2 844 9                         @ ../ThirdParty/STM32F4xx_HAL_Driver/Src/stm32f4xx_ll_usb.c:844:9
	ldr	r1, [sp, #8]
	.loc	2 844 33                        @ ../ThirdParty/STM32F4xx_HAL_Driver/Src/stm32f4xx_ll_usb.c:844:33
	ldr.w	r0, [r1, #2100]
	orrs	r0, r2
	str.w	r0, [r1, #2100]
	.loc	2 845 7 is_stmt 1               @ ../ThirdParty/STM32F4xx_HAL_Driver/Src/stm32f4xx_ll_usb.c:845:7
	b	.LBB16_10
.Ltmp272:
.LBB16_10:
	.loc	2 0 7 is_stmt 0                 @ ../ThirdParty/STM32F4xx_HAL_Driver/Src/stm32f4xx_ll_usb.c:0:7
	b	.LBB16_11
.LBB16_11:
	.loc	2 847 3 is_stmt 1               @ ../ThirdParty/STM32F4xx_HAL_Driver/Src/stm32f4xx_ll_usb.c:847:3
	b	.LBB16_17
.Ltmp273:
.LBB16_12:
	.loc	2 855 5                         @ ../ThirdParty/STM32F4xx_HAL_Driver/Src/stm32f4xx_ll_usb.c:855:5
	ldr	r0, [sp, #8]
	ldr	r1, [sp, #4]
	ldrb	r1, [r1]
	add.w	r1, r0, r1, lsl #5
	.loc	2 855 35 is_stmt 0              @ ../ThirdParty/STM32F4xx_HAL_Driver/Src/stm32f4xx_ll_usb.c:855:35
	ldr.w	r0, [r1, #2832]
	bfc	r0, #0, #19
	str.w	r0, [r1, #2832]
	.loc	2 856 5 is_stmt 1               @ ../ThirdParty/STM32F4xx_HAL_Driver/Src/stm32f4xx_ll_usb.c:856:5
	ldr	r0, [sp, #8]
	ldr	r1, [sp, #4]
	ldrb	r1, [r1]
	add.w	r1, r0, r1, lsl #5
	.loc	2 856 35 is_stmt 0              @ ../ThirdParty/STM32F4xx_HAL_Driver/Src/stm32f4xx_ll_usb.c:856:35
	ldr.w	r0, [r1, #2832]
	bfc	r0, #19, #10
	str.w	r0, [r1, #2832]
.Ltmp274:
	.loc	2 858 9 is_stmt 1               @ ../ThirdParty/STM32F4xx_HAL_Driver/Src/stm32f4xx_ll_usb.c:858:9
	ldr	r0, [sp, #4]
	.loc	2 858 13 is_stmt 0              @ ../ThirdParty/STM32F4xx_HAL_Driver/Src/stm32f4xx_ll_usb.c:858:13
	ldr	r0, [r0, #20]
.Ltmp275:
	.loc	2 858 9                         @ ../ThirdParty/STM32F4xx_HAL_Driver/Src/stm32f4xx_ll_usb.c:858:9
	cbz	r0, .LBB16_14
	b	.LBB16_13
.LBB16_13:
.Ltmp276:
	.loc	2 860 22 is_stmt 1              @ ../ThirdParty/STM32F4xx_HAL_Driver/Src/stm32f4xx_ll_usb.c:860:22
	ldr	r1, [sp, #4]
	.loc	2 860 26 is_stmt 0              @ ../ThirdParty/STM32F4xx_HAL_Driver/Src/stm32f4xx_ll_usb.c:860:26
	ldr	r0, [r1, #8]
	.loc	2 860 20                        @ ../ThirdParty/STM32F4xx_HAL_Driver/Src/stm32f4xx_ll_usb.c:860:20
	str	r0, [r1, #20]
	.loc	2 861 5 is_stmt 1               @ ../ThirdParty/STM32F4xx_HAL_Driver/Src/stm32f4xx_ll_usb.c:861:5
	b	.LBB16_14
.Ltmp277:
.LBB16_14:
	.loc	2 863 5                         @ ../ThirdParty/STM32F4xx_HAL_Driver/Src/stm32f4xx_ll_usb.c:863:5
	ldr	r0, [sp, #8]
	ldr	r1, [sp, #4]
	ldrb	r1, [r1]
	add.w	r1, r0, r1, lsl #5
	.loc	2 863 35 is_stmt 0              @ ../ThirdParty/STM32F4xx_HAL_Driver/Src/stm32f4xx_ll_usb.c:863:35
	ldr.w	r0, [r1, #2832]
	orr	r0, r0, #524288
	str.w	r0, [r1, #2832]
	.loc	2 864 66 is_stmt 1              @ ../ThirdParty/STM32F4xx_HAL_Driver/Src/stm32f4xx_ll_usb.c:864:66
	ldr	r1, [sp, #4]
	.loc	2 864 70 is_stmt 0              @ ../ThirdParty/STM32F4xx_HAL_Driver/Src/stm32f4xx_ll_usb.c:864:70
	ldr	r2, [r1, #8]
	.loc	2 864 63                        @ ../ThirdParty/STM32F4xx_HAL_Driver/Src/stm32f4xx_ll_usb.c:864:63
	bfc	r2, #19, #13
	.loc	2 864 5                         @ ../ThirdParty/STM32F4xx_HAL_Driver/Src/stm32f4xx_ll_usb.c:864:5
	ldr	r0, [sp, #8]
	ldrb	r1, [r1]
	add.w	r1, r0, r1, lsl #5
	.loc	2 864 35                        @ ../ThirdParty/STM32F4xx_HAL_Driver/Src/stm32f4xx_ll_usb.c:864:35
	ldr.w	r0, [r1, #2832]
	orrs	r0, r2
	str.w	r0, [r1, #2832]
.Ltmp278:
	.loc	2 867 9 is_stmt 1               @ ../ThirdParty/STM32F4xx_HAL_Driver/Src/stm32f4xx_ll_usb.c:867:9
	ldrb.w	r0, [sp, #3]
.Ltmp279:
	.loc	2 867 9 is_stmt 0               @ ../ThirdParty/STM32F4xx_HAL_Driver/Src/stm32f4xx_ll_usb.c:867:9
	cmp	r0, #1
	bne	.LBB16_16
	b	.LBB16_15
.LBB16_15:
.Ltmp280:
	.loc	2 869 49 is_stmt 1              @ ../ThirdParty/STM32F4xx_HAL_Driver/Src/stm32f4xx_ll_usb.c:869:49
	ldr	r2, [sp, #4]
	.loc	2 869 53 is_stmt 0              @ ../ThirdParty/STM32F4xx_HAL_Driver/Src/stm32f4xx_ll_usb.c:869:53
	ldr	r0, [r2, #12]
	.loc	2 869 7                         @ ../ThirdParty/STM32F4xx_HAL_Driver/Src/stm32f4xx_ll_usb.c:869:7
	ldr	r1, [sp, #8]
	ldrb	r2, [r2]
	add.w	r1, r1, r2, lsl #5
	.loc	2 869 36                        @ ../ThirdParty/STM32F4xx_HAL_Driver/Src/stm32f4xx_ll_usb.c:869:36
	str.w	r0, [r1, #2836]
	.loc	2 870 5 is_stmt 1               @ ../ThirdParty/STM32F4xx_HAL_Driver/Src/stm32f4xx_ll_usb.c:870:5
	b	.LBB16_16
.Ltmp281:
.LBB16_16:
	.loc	2 873 5                         @ ../ThirdParty/STM32F4xx_HAL_Driver/Src/stm32f4xx_ll_usb.c:873:5
	ldr	r0, [sp, #8]
	ldr	r1, [sp, #4]
	ldrb	r1, [r1]
	add.w	r1, r0, r1, lsl #5
	.loc	2 873 34 is_stmt 0              @ ../ThirdParty/STM32F4xx_HAL_Driver/Src/stm32f4xx_ll_usb.c:873:34
	ldr.w	r0, [r1, #2816]
	orr	r0, r0, #-2080374784
	str.w	r0, [r1, #2816]
	b	.LBB16_17
.Ltmp282:
.LBB16_17:
	.loc	2 0 34                          @ ../ThirdParty/STM32F4xx_HAL_Driver/Src/stm32f4xx_ll_usb.c:0:34
	movs	r0, #0
	.loc	2 875 3 epilogue_begin is_stmt 1 @ ../ThirdParty/STM32F4xx_HAL_Driver/Src/stm32f4xx_ll_usb.c:875:3
	add	sp, #12
	bx	lr
.Ltmp283:
.Lfunc_end16:
	.size	USB_EP0StartXfer, .Lfunc_end16-USB_EP0StartXfer
	.cfi_endproc
	.cantunwind
	.fnend
                                        @ -- End function
	.section	.text.USB_ReadPacket,"ax",%progbits
	.hidden	USB_ReadPacket                  @ -- Begin function USB_ReadPacket
	.globl	USB_ReadPacket
	.p2align	2
	.type	USB_ReadPacket,%function
	.code	16                              @ @USB_ReadPacket
	.thumb_func
USB_ReadPacket:
.Lfunc_begin17:
	.loc	2 920 0                         @ ../ThirdParty/STM32F4xx_HAL_Driver/Src/stm32f4xx_ll_usb.c:920:0
	.fnstart
	.cfi_startproc
@ %bb.0:
	.pad	#20
	sub	sp, #20
	.cfi_def_cfa_offset 20
                                        @ kill: def $r3 killed $r2
	str	r0, [sp, #16]
	str	r1, [sp, #12]
	strh.w	r2, [sp, #10]
	movs	r0, #0
.Ltmp284:
	.loc	2 921 12 prologue_end           @ ../ThirdParty/STM32F4xx_HAL_Driver/Src/stm32f4xx_ll_usb.c:921:12
	str	r0, [sp, #4]
	.loc	2 922 24                        @ ../ThirdParty/STM32F4xx_HAL_Driver/Src/stm32f4xx_ll_usb.c:922:24
	ldrh.w	r1, [sp, #10]
	.loc	2 922 28 is_stmt 0              @ ../ThirdParty/STM32F4xx_HAL_Driver/Src/stm32f4xx_ll_usb.c:922:28
	adds	r1, #3
	.loc	2 922 34                        @ ../ThirdParty/STM32F4xx_HAL_Driver/Src/stm32f4xx_ll_usb.c:922:34
	lsrs	r1, r1, #2
	.loc	2 922 12                        @ ../ThirdParty/STM32F4xx_HAL_Driver/Src/stm32f4xx_ll_usb.c:922:12
	str	r1, [sp]
.Ltmp285:
	.loc	2 924 11 is_stmt 1              @ ../ThirdParty/STM32F4xx_HAL_Driver/Src/stm32f4xx_ll_usb.c:924:11
	str	r0, [sp, #4]
	.loc	2 924 9 is_stmt 0               @ ../ThirdParty/STM32F4xx_HAL_Driver/Src/stm32f4xx_ll_usb.c:924:9
	b	.LBB17_1
.LBB17_1:                               @ =>This Inner Loop Header: Depth=1
.Ltmp286:
	.loc	2 924 17                        @ ../ThirdParty/STM32F4xx_HAL_Driver/Src/stm32f4xx_ll_usb.c:924:17
	ldr	r0, [sp, #4]
	.loc	2 924 21                        @ ../ThirdParty/STM32F4xx_HAL_Driver/Src/stm32f4xx_ll_usb.c:924:21
	ldr	r1, [sp]
.Ltmp287:
	.loc	2 924 3                         @ ../ThirdParty/STM32F4xx_HAL_Driver/Src/stm32f4xx_ll_usb.c:924:3
	cmp	r0, r1
	bhs	.LBB17_4
	b	.LBB17_2
.LBB17_2:                               @   in Loop: Header=BB17_1 Depth=1
.Ltmp288:
	.loc	2 926 5 is_stmt 1               @ ../ThirdParty/STM32F4xx_HAL_Driver/Src/stm32f4xx_ll_usb.c:926:5
	ldr	r0, [sp, #16]
	mov.w	r1, #4096
	ldr	r0, [r0, r1]
	ldr	r1, [sp, #12]
	str	r0, [r1]
	.loc	2 928 3                         @ ../ThirdParty/STM32F4xx_HAL_Driver/Src/stm32f4xx_ll_usb.c:928:3
	b	.LBB17_3
.Ltmp289:
.LBB17_3:                               @   in Loop: Header=BB17_1 Depth=1
	.loc	2 924 32                        @ ../ThirdParty/STM32F4xx_HAL_Driver/Src/stm32f4xx_ll_usb.c:924:32
	ldr	r0, [sp, #4]
	adds	r0, #1
	str	r0, [sp, #4]
	.loc	2 924 41 is_stmt 0              @ ../ThirdParty/STM32F4xx_HAL_Driver/Src/stm32f4xx_ll_usb.c:924:41
	ldr	r0, [sp, #12]
	adds	r0, #4
	str	r0, [sp, #12]
	.loc	2 924 3                         @ ../ThirdParty/STM32F4xx_HAL_Driver/Src/stm32f4xx_ll_usb.c:924:3
	b	.LBB17_1
.Ltmp290:
.LBB17_4:
	.loc	2 929 19 is_stmt 1              @ ../ThirdParty/STM32F4xx_HAL_Driver/Src/stm32f4xx_ll_usb.c:929:19
	ldr	r0, [sp, #12]
	.loc	2 929 3 epilogue_begin is_stmt 0 @ ../ThirdParty/STM32F4xx_HAL_Driver/Src/stm32f4xx_ll_usb.c:929:3
	add	sp, #20
	bx	lr
.Ltmp291:
.Lfunc_end17:
	.size	USB_ReadPacket, .Lfunc_end17-USB_ReadPacket
	.cfi_endproc
	.cantunwind
	.fnend
                                        @ -- End function
	.section	.text.USB_EPSetStall,"ax",%progbits
	.hidden	USB_EPSetStall                  @ -- Begin function USB_EPSetStall
	.globl	USB_EPSetStall
	.p2align	2
	.type	USB_EPSetStall,%function
	.code	16                              @ @USB_EPSetStall
	.thumb_func
USB_EPSetStall:
.Lfunc_begin18:
	.loc	2 939 0 is_stmt 1               @ ../ThirdParty/STM32F4xx_HAL_Driver/Src/stm32f4xx_ll_usb.c:939:0
	.fnstart
	.cfi_startproc
@ %bb.0:
	.pad	#8
	sub	sp, #8
	.cfi_def_cfa_offset 8
	str	r0, [sp, #4]
	str	r1, [sp]
.Ltmp292:
	.loc	2 940 7 prologue_end            @ ../ThirdParty/STM32F4xx_HAL_Driver/Src/stm32f4xx_ll_usb.c:940:7
	ldr	r0, [sp]
	.loc	2 940 11 is_stmt 0              @ ../ThirdParty/STM32F4xx_HAL_Driver/Src/stm32f4xx_ll_usb.c:940:11
	ldrb	r0, [r0, #1]
.Ltmp293:
	.loc	2 940 7                         @ ../ThirdParty/STM32F4xx_HAL_Driver/Src/stm32f4xx_ll_usb.c:940:7
	cmp	r0, #1
	bne	.LBB18_4
	b	.LBB18_1
.LBB18_1:
.Ltmp294:
	.loc	2 942 11 is_stmt 1              @ ../ThirdParty/STM32F4xx_HAL_Driver/Src/stm32f4xx_ll_usb.c:942:11
	ldr	r0, [sp, #4]
	ldr	r1, [sp]
	ldrb	r1, [r1]
	add.w	r0, r0, r1, lsl #5
	.loc	2 942 31 is_stmt 0              @ ../ThirdParty/STM32F4xx_HAL_Driver/Src/stm32f4xx_ll_usb.c:942:31
	ldr.w	r0, [r0, #2304]
.Ltmp295:
	.loc	2 942 9                         @ ../ThirdParty/STM32F4xx_HAL_Driver/Src/stm32f4xx_ll_usb.c:942:9
	lsrs	r0, r0, #31
	cbnz	r0, .LBB18_3
	b	.LBB18_2
.LBB18_2:
.Ltmp296:
	.loc	2 944 7 is_stmt 1               @ ../ThirdParty/STM32F4xx_HAL_Driver/Src/stm32f4xx_ll_usb.c:944:7
	ldr	r0, [sp, #4]
	ldr	r1, [sp]
	ldrb	r1, [r1]
	add.w	r1, r0, r1, lsl #5
	.loc	2 944 35 is_stmt 0              @ ../ThirdParty/STM32F4xx_HAL_Driver/Src/stm32f4xx_ll_usb.c:944:35
	ldr.w	r0, [r1, #2304]
	bic	r0, r0, #1073741824
	str.w	r0, [r1, #2304]
	.loc	2 945 5 is_stmt 1               @ ../ThirdParty/STM32F4xx_HAL_Driver/Src/stm32f4xx_ll_usb.c:945:5
	b	.LBB18_3
.Ltmp297:
.LBB18_3:
	.loc	2 946 5                         @ ../ThirdParty/STM32F4xx_HAL_Driver/Src/stm32f4xx_ll_usb.c:946:5
	ldr	r0, [sp, #4]
	ldr	r1, [sp]
	ldrb	r1, [r1]
	add.w	r1, r0, r1, lsl #5
	.loc	2 946 33 is_stmt 0              @ ../ThirdParty/STM32F4xx_HAL_Driver/Src/stm32f4xx_ll_usb.c:946:33
	ldr.w	r0, [r1, #2304]
	orr	r0, r0, #2097152
	str.w	r0, [r1, #2304]
	.loc	2 947 3 is_stmt 1               @ ../ThirdParty/STM32F4xx_HAL_Driver/Src/stm32f4xx_ll_usb.c:947:3
	b	.LBB18_7
.Ltmp298:
.LBB18_4:
	.loc	2 950 11                        @ ../ThirdParty/STM32F4xx_HAL_Driver/Src/stm32f4xx_ll_usb.c:950:11
	ldr	r0, [sp, #4]
	ldr	r1, [sp]
	ldrb	r1, [r1]
	add.w	r0, r0, r1, lsl #5
	.loc	2 950 32 is_stmt 0              @ ../ThirdParty/STM32F4xx_HAL_Driver/Src/stm32f4xx_ll_usb.c:950:32
	ldr.w	r0, [r0, #2816]
.Ltmp299:
	.loc	2 950 9                         @ ../ThirdParty/STM32F4xx_HAL_Driver/Src/stm32f4xx_ll_usb.c:950:9
	lsrs	r0, r0, #31
	cbnz	r0, .LBB18_6
	b	.LBB18_5
.LBB18_5:
.Ltmp300:
	.loc	2 952 7 is_stmt 1               @ ../ThirdParty/STM32F4xx_HAL_Driver/Src/stm32f4xx_ll_usb.c:952:7
	ldr	r0, [sp, #4]
	ldr	r1, [sp]
	ldrb	r1, [r1]
	add.w	r1, r0, r1, lsl #5
	.loc	2 952 36 is_stmt 0              @ ../ThirdParty/STM32F4xx_HAL_Driver/Src/stm32f4xx_ll_usb.c:952:36
	ldr.w	r0, [r1, #2816]
	bic	r0, r0, #1073741824
	str.w	r0, [r1, #2816]
	.loc	2 953 5 is_stmt 1               @ ../ThirdParty/STM32F4xx_HAL_Driver/Src/stm32f4xx_ll_usb.c:953:5
	b	.LBB18_6
.Ltmp301:
.LBB18_6:
	.loc	2 954 5                         @ ../ThirdParty/STM32F4xx_HAL_Driver/Src/stm32f4xx_ll_usb.c:954:5
	ldr	r0, [sp, #4]
	ldr	r1, [sp]
	ldrb	r1, [r1]
	add.w	r1, r0, r1, lsl #5
	.loc	2 954 34 is_stmt 0              @ ../ThirdParty/STM32F4xx_HAL_Driver/Src/stm32f4xx_ll_usb.c:954:34
	ldr.w	r0, [r1, #2816]
	orr	r0, r0, #2097152
	str.w	r0, [r1, #2816]
	b	.LBB18_7
.Ltmp302:
.LBB18_7:
	.loc	2 0 34                          @ ../ThirdParty/STM32F4xx_HAL_Driver/Src/stm32f4xx_ll_usb.c:0:34
	movs	r0, #0
	.loc	2 956 3 epilogue_begin is_stmt 1 @ ../ThirdParty/STM32F4xx_HAL_Driver/Src/stm32f4xx_ll_usb.c:956:3
	add	sp, #8
	bx	lr
.Ltmp303:
.Lfunc_end18:
	.size	USB_EPSetStall, .Lfunc_end18-USB_EPSetStall
	.cfi_endproc
	.cantunwind
	.fnend
                                        @ -- End function
	.section	.text.USB_EPClearStall,"ax",%progbits
	.hidden	USB_EPClearStall                @ -- Begin function USB_EPClearStall
	.globl	USB_EPClearStall
	.p2align	2
	.type	USB_EPClearStall,%function
	.code	16                              @ @USB_EPClearStall
	.thumb_func
USB_EPClearStall:
.Lfunc_begin19:
	.loc	2 967 0                         @ ../ThirdParty/STM32F4xx_HAL_Driver/Src/stm32f4xx_ll_usb.c:967:0
	.fnstart
	.cfi_startproc
@ %bb.0:
	.pad	#8
	sub	sp, #8
	.cfi_def_cfa_offset 8
	str	r0, [sp, #4]
	str	r1, [sp]
.Ltmp304:
	.loc	2 968 7 prologue_end            @ ../ThirdParty/STM32F4xx_HAL_Driver/Src/stm32f4xx_ll_usb.c:968:7
	ldr	r0, [sp]
	.loc	2 968 11 is_stmt 0              @ ../ThirdParty/STM32F4xx_HAL_Driver/Src/stm32f4xx_ll_usb.c:968:11
	ldrb	r0, [r0, #1]
.Ltmp305:
	.loc	2 968 7                         @ ../ThirdParty/STM32F4xx_HAL_Driver/Src/stm32f4xx_ll_usb.c:968:7
	cmp	r0, #1
	bne	.LBB19_5
	b	.LBB19_1
.LBB19_1:
.Ltmp306:
	.loc	2 970 5 is_stmt 1               @ ../ThirdParty/STM32F4xx_HAL_Driver/Src/stm32f4xx_ll_usb.c:970:5
	ldr	r0, [sp, #4]
	ldr	r1, [sp]
	ldrb	r1, [r1]
	add.w	r1, r0, r1, lsl #5
	.loc	2 970 33 is_stmt 0              @ ../ThirdParty/STM32F4xx_HAL_Driver/Src/stm32f4xx_ll_usb.c:970:33
	ldr.w	r0, [r1, #2304]
	bic	r0, r0, #2097152
	str.w	r0, [r1, #2304]
.Ltmp307:
	.loc	2 971 9 is_stmt 1               @ ../ThirdParty/STM32F4xx_HAL_Driver/Src/stm32f4xx_ll_usb.c:971:9
	ldr	r0, [sp]
	.loc	2 971 13 is_stmt 0              @ ../ThirdParty/STM32F4xx_HAL_Driver/Src/stm32f4xx_ll_usb.c:971:13
	ldrb	r0, [r0, #3]
	.loc	2 971 34                        @ ../ThirdParty/STM32F4xx_HAL_Driver/Src/stm32f4xx_ll_usb.c:971:34
	cmp	r0, #3
	beq	.LBB19_3
	b	.LBB19_2
.LBB19_2:
	.loc	2 971 37                        @ ../ThirdParty/STM32F4xx_HAL_Driver/Src/stm32f4xx_ll_usb.c:971:37
	ldr	r0, [sp]
	.loc	2 971 41                        @ ../ThirdParty/STM32F4xx_HAL_Driver/Src/stm32f4xx_ll_usb.c:971:41
	ldrb	r0, [r0, #3]
.Ltmp308:
	.loc	2 971 9                         @ ../ThirdParty/STM32F4xx_HAL_Driver/Src/stm32f4xx_ll_usb.c:971:9
	cmp	r0, #2
	bne	.LBB19_4
	b	.LBB19_3
.LBB19_3:
.Ltmp309:
	.loc	2 973 8 is_stmt 1               @ ../ThirdParty/STM32F4xx_HAL_Driver/Src/stm32f4xx_ll_usb.c:973:8
	ldr	r0, [sp, #4]
	ldr	r1, [sp]
	ldrb	r1, [r1]
	add.w	r1, r0, r1, lsl #5
	.loc	2 973 36 is_stmt 0              @ ../ThirdParty/STM32F4xx_HAL_Driver/Src/stm32f4xx_ll_usb.c:973:36
	ldr.w	r0, [r1, #2304]
	orr	r0, r0, #268435456
	str.w	r0, [r1, #2304]
	.loc	2 974 5 is_stmt 1               @ ../ThirdParty/STM32F4xx_HAL_Driver/Src/stm32f4xx_ll_usb.c:974:5
	b	.LBB19_4
.Ltmp310:
.LBB19_4:
	.loc	2 975 3                         @ ../ThirdParty/STM32F4xx_HAL_Driver/Src/stm32f4xx_ll_usb.c:975:3
	b	.LBB19_9
.Ltmp311:
.LBB19_5:
	.loc	2 978 5                         @ ../ThirdParty/STM32F4xx_HAL_Driver/Src/stm32f4xx_ll_usb.c:978:5
	ldr	r0, [sp, #4]
	ldr	r1, [sp]
	ldrb	r1, [r1]
	add.w	r1, r0, r1, lsl #5
	.loc	2 978 34 is_stmt 0              @ ../ThirdParty/STM32F4xx_HAL_Driver/Src/stm32f4xx_ll_usb.c:978:34
	ldr.w	r0, [r1, #2816]
	bic	r0, r0, #2097152
	str.w	r0, [r1, #2816]
.Ltmp312:
	.loc	2 979 9 is_stmt 1               @ ../ThirdParty/STM32F4xx_HAL_Driver/Src/stm32f4xx_ll_usb.c:979:9
	ldr	r0, [sp]
	.loc	2 979 13 is_stmt 0              @ ../ThirdParty/STM32F4xx_HAL_Driver/Src/stm32f4xx_ll_usb.c:979:13
	ldrb	r0, [r0, #3]
	.loc	2 979 34                        @ ../ThirdParty/STM32F4xx_HAL_Driver/Src/stm32f4xx_ll_usb.c:979:34
	cmp	r0, #3
	beq	.LBB19_7
	b	.LBB19_6
.LBB19_6:
	.loc	2 979 37                        @ ../ThirdParty/STM32F4xx_HAL_Driver/Src/stm32f4xx_ll_usb.c:979:37
	ldr	r0, [sp]
	.loc	2 979 41                        @ ../ThirdParty/STM32F4xx_HAL_Driver/Src/stm32f4xx_ll_usb.c:979:41
	ldrb	r0, [r0, #3]
.Ltmp313:
	.loc	2 979 9                         @ ../ThirdParty/STM32F4xx_HAL_Driver/Src/stm32f4xx_ll_usb.c:979:9
	cmp	r0, #2
	bne	.LBB19_8
	b	.LBB19_7
.LBB19_7:
.Ltmp314:
	.loc	2 981 7 is_stmt 1               @ ../ThirdParty/STM32F4xx_HAL_Driver/Src/stm32f4xx_ll_usb.c:981:7
	ldr	r0, [sp, #4]
	ldr	r1, [sp]
	ldrb	r1, [r1]
	add.w	r1, r0, r1, lsl #5
	.loc	2 981 36 is_stmt 0              @ ../ThirdParty/STM32F4xx_HAL_Driver/Src/stm32f4xx_ll_usb.c:981:36
	ldr.w	r0, [r1, #2816]
	orr	r0, r0, #268435456
	str.w	r0, [r1, #2816]
	.loc	2 982 5 is_stmt 1               @ ../ThirdParty/STM32F4xx_HAL_Driver/Src/stm32f4xx_ll_usb.c:982:5
	b	.LBB19_8
.Ltmp315:
.LBB19_8:
	.loc	2 0 5 is_stmt 0                 @ ../ThirdParty/STM32F4xx_HAL_Driver/Src/stm32f4xx_ll_usb.c:0:5
	b	.LBB19_9
.LBB19_9:
	movs	r0, #0
	.loc	2 984 3 epilogue_begin is_stmt 1 @ ../ThirdParty/STM32F4xx_HAL_Driver/Src/stm32f4xx_ll_usb.c:984:3
	add	sp, #8
	bx	lr
.Ltmp316:
.Lfunc_end19:
	.size	USB_EPClearStall, .Lfunc_end19-USB_EPClearStall
	.cfi_endproc
	.cantunwind
	.fnend
                                        @ -- End function
	.section	.text.USB_StopDevice,"ax",%progbits
	.hidden	USB_StopDevice                  @ -- Begin function USB_StopDevice
	.globl	USB_StopDevice
	.p2align	2
	.type	USB_StopDevice,%function
	.code	16                              @ @USB_StopDevice
	.thumb_func
USB_StopDevice:
.Lfunc_begin20:
	.loc	2 993 0                         @ ../ThirdParty/STM32F4xx_HAL_Driver/Src/stm32f4xx_ll_usb.c:993:0
	.fnstart
	.cfi_startproc
@ %bb.0:
	.save	{r7, lr}
	push	{r7, lr}
	.cfi_def_cfa_offset 8
	.cfi_offset lr, -4
	.cfi_offset r7, -8
	.pad	#16
	sub	sp, #16
	.cfi_def_cfa_offset 24
	str	r0, [sp, #12]
	movs	r0, #0
.Ltmp317:
	.loc	2 997 10 prologue_end           @ ../ThirdParty/STM32F4xx_HAL_Driver/Src/stm32f4xx_ll_usb.c:997:10
	str	r0, [sp, #8]
	.loc	2 997 8 is_stmt 0               @ ../ThirdParty/STM32F4xx_HAL_Driver/Src/stm32f4xx_ll_usb.c:997:8
	b	.LBB20_1
.LBB20_1:                               @ =>This Inner Loop Header: Depth=1
.Ltmp318:
	.loc	2 997 16                        @ ../ThirdParty/STM32F4xx_HAL_Driver/Src/stm32f4xx_ll_usb.c:997:16
	ldr	r0, [sp, #8]
.Ltmp319:
	.loc	2 997 3                         @ ../ThirdParty/STM32F4xx_HAL_Driver/Src/stm32f4xx_ll_usb.c:997:3
	cmp	r0, #14
	bhi	.LBB20_4
	b	.LBB20_2
.LBB20_2:                               @   in Loop: Header=BB20_1 Depth=1
.Ltmp320:
	.loc	2 999 5 is_stmt 1               @ ../ThirdParty/STM32F4xx_HAL_Driver/Src/stm32f4xx_ll_usb.c:999:5
	ldr	r0, [sp, #12]
	ldr	r1, [sp, #8]
	add.w	r1, r0, r1, lsl #5
	movs	r0, #255
	.loc	2 999 28 is_stmt 0              @ ../ThirdParty/STM32F4xx_HAL_Driver/Src/stm32f4xx_ll_usb.c:999:28
	str.w	r0, [r1, #2312]
	.loc	2 1000 5 is_stmt 1              @ ../ThirdParty/STM32F4xx_HAL_Driver/Src/stm32f4xx_ll_usb.c:1000:5
	ldr	r1, [sp, #12]
	ldr	r2, [sp, #8]
	add.w	r1, r1, r2, lsl #5
	.loc	2 1000 29 is_stmt 0             @ ../ThirdParty/STM32F4xx_HAL_Driver/Src/stm32f4xx_ll_usb.c:1000:29
	str.w	r0, [r1, #2824]
	.loc	2 1001 3 is_stmt 1              @ ../ThirdParty/STM32F4xx_HAL_Driver/Src/stm32f4xx_ll_usb.c:1001:3
	b	.LBB20_3
.Ltmp321:
.LBB20_3:                               @   in Loop: Header=BB20_1 Depth=1
	.loc	2 997 27                        @ ../ThirdParty/STM32F4xx_HAL_Driver/Src/stm32f4xx_ll_usb.c:997:27
	ldr	r0, [sp, #8]
	adds	r0, #1
	str	r0, [sp, #8]
	.loc	2 997 3 is_stmt 0               @ ../ThirdParty/STM32F4xx_HAL_Driver/Src/stm32f4xx_ll_usb.c:997:3
	b	.LBB20_1
.Ltmp322:
.LBB20_4:
	.loc	2 1002 3 is_stmt 1              @ ../ThirdParty/STM32F4xx_HAL_Driver/Src/stm32f4xx_ll_usb.c:1002:3
	ldr	r1, [sp, #12]
	mov.w	r0, #-1
	.loc	2 1002 22 is_stmt 0             @ ../ThirdParty/STM32F4xx_HAL_Driver/Src/stm32f4xx_ll_usb.c:1002:22
	str.w	r0, [r1, #2072]
	.loc	2 1005 3 is_stmt 1              @ ../ThirdParty/STM32F4xx_HAL_Driver/Src/stm32f4xx_ll_usb.c:1005:3
	ldr	r1, [sp, #12]
	movs	r0, #0
	.loc	2 1005 25 is_stmt 0             @ ../ThirdParty/STM32F4xx_HAL_Driver/Src/stm32f4xx_ll_usb.c:1005:25
	str	r0, [sp, #4]                    @ 4-byte Spill
	str.w	r0, [r1, #2064]
	.loc	2 1006 3 is_stmt 1              @ ../ThirdParty/STM32F4xx_HAL_Driver/Src/stm32f4xx_ll_usb.c:1006:3
	ldr	r1, [sp, #12]
	.loc	2 1006 25 is_stmt 0             @ ../ThirdParty/STM32F4xx_HAL_Driver/Src/stm32f4xx_ll_usb.c:1006:25
	str.w	r0, [r1, #2068]
	.loc	2 1007 3 is_stmt 1              @ ../ThirdParty/STM32F4xx_HAL_Driver/Src/stm32f4xx_ll_usb.c:1007:3
	ldr	r1, [sp, #12]
	.loc	2 1007 25 is_stmt 0             @ ../ThirdParty/STM32F4xx_HAL_Driver/Src/stm32f4xx_ll_usb.c:1007:25
	str.w	r0, [r1, #2076]
	.loc	2 1010 19 is_stmt 1             @ ../ThirdParty/STM32F4xx_HAL_Driver/Src/stm32f4xx_ll_usb.c:1010:19
	ldr	r0, [sp, #12]
	.loc	2 1010 3 is_stmt 0              @ ../ThirdParty/STM32F4xx_HAL_Driver/Src/stm32f4xx_ll_usb.c:1010:3
	bl	USB_FlushRxFifo
	.loc	2 1011 19 is_stmt 1             @ ../ThirdParty/STM32F4xx_HAL_Driver/Src/stm32f4xx_ll_usb.c:1011:19
	ldr	r0, [sp, #12]
	movs	r1, #16
	.loc	2 1011 3 is_stmt 0              @ ../ThirdParty/STM32F4xx_HAL_Driver/Src/stm32f4xx_ll_usb.c:1011:3
	bl	USB_FlushTxFifo
                                        @ kill: def $r1 killed $r0
	.loc	2 1013 3 is_stmt 1              @ ../ThirdParty/STM32F4xx_HAL_Driver/Src/stm32f4xx_ll_usb.c:1013:3
	ldr	r0, [sp, #4]                    @ 4-byte Reload
	.loc	2 1013 3 epilogue_begin is_stmt 0 @ ../ThirdParty/STM32F4xx_HAL_Driver/Src/stm32f4xx_ll_usb.c:1013:3
	add	sp, #16
	pop	{r7, pc}
.Ltmp323:
.Lfunc_end20:
	.size	USB_StopDevice, .Lfunc_end20-USB_StopDevice
	.cfi_endproc
	.cantunwind
	.fnend
                                        @ -- End function
	.section	.text.USB_SetDevAddress,"ax",%progbits
	.hidden	USB_SetDevAddress               @ -- Begin function USB_SetDevAddress
	.globl	USB_SetDevAddress
	.p2align	2
	.type	USB_SetDevAddress,%function
	.code	16                              @ @USB_SetDevAddress
	.thumb_func
USB_SetDevAddress:
.Lfunc_begin21:
	.loc	2 1024 0 is_stmt 1              @ ../ThirdParty/STM32F4xx_HAL_Driver/Src/stm32f4xx_ll_usb.c:1024:0
	.fnstart
	.cfi_startproc
@ %bb.0:
	.pad	#8
	sub	sp, #8
	.cfi_def_cfa_offset 8
                                        @ kill: def $r2 killed $r1
	str	r0, [sp, #4]
	strb.w	r1, [sp, #3]
.Ltmp324:
	.loc	2 1025 3 prologue_end           @ ../ThirdParty/STM32F4xx_HAL_Driver/Src/stm32f4xx_ll_usb.c:1025:3
	ldr	r1, [sp, #4]
	.loc	2 1025 21 is_stmt 0             @ ../ThirdParty/STM32F4xx_HAL_Driver/Src/stm32f4xx_ll_usb.c:1025:21
	ldr.w	r0, [r1, #2048]
	bic	r0, r0, #2032
	str.w	r0, [r1, #2048]
	.loc	2 1026 25 is_stmt 1             @ ../ThirdParty/STM32F4xx_HAL_Driver/Src/stm32f4xx_ll_usb.c:1026:25
	ldrb.w	r0, [sp, #3]
	.loc	2 1026 40 is_stmt 0             @ ../ThirdParty/STM32F4xx_HAL_Driver/Src/stm32f4xx_ll_usb.c:1026:40
	and	r2, r0, #127
	.loc	2 1026 3                        @ ../ThirdParty/STM32F4xx_HAL_Driver/Src/stm32f4xx_ll_usb.c:1026:3
	ldr	r1, [sp, #4]
	.loc	2 1026 21                       @ ../ThirdParty/STM32F4xx_HAL_Driver/Src/stm32f4xx_ll_usb.c:1026:21
	ldr.w	r0, [r1, #2048]
	orr.w	r0, r0, r2, lsl #4
	str.w	r0, [r1, #2048]
	movs	r0, #0
	.loc	2 1028 3 epilogue_begin is_stmt 1 @ ../ThirdParty/STM32F4xx_HAL_Driver/Src/stm32f4xx_ll_usb.c:1028:3
	add	sp, #8
	bx	lr
.Ltmp325:
.Lfunc_end21:
	.size	USB_SetDevAddress, .Lfunc_end21-USB_SetDevAddress
	.cfi_endproc
	.cantunwind
	.fnend
                                        @ -- End function
	.section	.text.USB_DevConnect,"ax",%progbits
	.hidden	USB_DevConnect                  @ -- Begin function USB_DevConnect
	.globl	USB_DevConnect
	.p2align	2
	.type	USB_DevConnect,%function
	.code	16                              @ @USB_DevConnect
	.thumb_func
USB_DevConnect:
.Lfunc_begin22:
	.loc	2 1037 0                        @ ../ThirdParty/STM32F4xx_HAL_Driver/Src/stm32f4xx_ll_usb.c:1037:0
	.fnstart
	.cfi_startproc
@ %bb.0:
	.save	{r7, lr}
	push	{r7, lr}
	.cfi_def_cfa_offset 8
	.cfi_offset lr, -4
	.cfi_offset r7, -8
	.pad	#8
	sub	sp, #8
	.cfi_def_cfa_offset 16
	str	r0, [sp, #4]
.Ltmp326:
	.loc	2 1038 3 prologue_end           @ ../ThirdParty/STM32F4xx_HAL_Driver/Src/stm32f4xx_ll_usb.c:1038:3
	ldr	r1, [sp, #4]
	.loc	2 1038 21 is_stmt 0             @ ../ThirdParty/STM32F4xx_HAL_Driver/Src/stm32f4xx_ll_usb.c:1038:21
	ldr.w	r0, [r1, #2052]
	bic	r0, r0, #2
	str.w	r0, [r1, #2052]
	movs	r0, #3
	.loc	2 1039 3 is_stmt 1              @ ../ThirdParty/STM32F4xx_HAL_Driver/Src/stm32f4xx_ll_usb.c:1039:3
	bl	HAL_Delay
	movs	r0, #0
	.loc	2 1041 3 epilogue_begin         @ ../ThirdParty/STM32F4xx_HAL_Driver/Src/stm32f4xx_ll_usb.c:1041:3
	add	sp, #8
	pop	{r7, pc}
.Ltmp327:
.Lfunc_end22:
	.size	USB_DevConnect, .Lfunc_end22-USB_DevConnect
	.cfi_endproc
	.cantunwind
	.fnend
                                        @ -- End function
	.section	.text.USB_DevDisconnect,"ax",%progbits
	.hidden	USB_DevDisconnect               @ -- Begin function USB_DevDisconnect
	.globl	USB_DevDisconnect
	.p2align	2
	.type	USB_DevDisconnect,%function
	.code	16                              @ @USB_DevDisconnect
	.thumb_func
USB_DevDisconnect:
.Lfunc_begin23:
	.loc	2 1050 0                        @ ../ThirdParty/STM32F4xx_HAL_Driver/Src/stm32f4xx_ll_usb.c:1050:0
	.fnstart
	.cfi_startproc
@ %bb.0:
	.save	{r7, lr}
	push	{r7, lr}
	.cfi_def_cfa_offset 8
	.cfi_offset lr, -4
	.cfi_offset r7, -8
	.pad	#8
	sub	sp, #8
	.cfi_def_cfa_offset 16
	str	r0, [sp, #4]
.Ltmp328:
	.loc	2 1051 3 prologue_end           @ ../ThirdParty/STM32F4xx_HAL_Driver/Src/stm32f4xx_ll_usb.c:1051:3
	ldr	r1, [sp, #4]
	.loc	2 1051 21 is_stmt 0             @ ../ThirdParty/STM32F4xx_HAL_Driver/Src/stm32f4xx_ll_usb.c:1051:21
	ldr.w	r0, [r1, #2052]
	orr	r0, r0, #2
	str.w	r0, [r1, #2052]
	movs	r0, #3
	.loc	2 1052 3 is_stmt 1              @ ../ThirdParty/STM32F4xx_HAL_Driver/Src/stm32f4xx_ll_usb.c:1052:3
	bl	HAL_Delay
	movs	r0, #0
	.loc	2 1054 3 epilogue_begin         @ ../ThirdParty/STM32F4xx_HAL_Driver/Src/stm32f4xx_ll_usb.c:1054:3
	add	sp, #8
	pop	{r7, pc}
.Ltmp329:
.Lfunc_end23:
	.size	USB_DevDisconnect, .Lfunc_end23-USB_DevDisconnect
	.cfi_endproc
	.cantunwind
	.fnend
                                        @ -- End function
	.section	.text.USB_ReadInterrupts,"ax",%progbits
	.hidden	USB_ReadInterrupts              @ -- Begin function USB_ReadInterrupts
	.globl	USB_ReadInterrupts
	.p2align	2
	.type	USB_ReadInterrupts,%function
	.code	16                              @ @USB_ReadInterrupts
	.thumb_func
USB_ReadInterrupts:
.Lfunc_begin24:
	.loc	2 1063 0                        @ ../ThirdParty/STM32F4xx_HAL_Driver/Src/stm32f4xx_ll_usb.c:1063:0
	.fnstart
	.cfi_startproc
@ %bb.0:
	.pad	#8
	sub	sp, #8
	.cfi_def_cfa_offset 8
	str	r0, [sp, #4]
	movs	r0, #0
.Ltmp330:
	.loc	2 1064 12 prologue_end          @ ../ThirdParty/STM32F4xx_HAL_Driver/Src/stm32f4xx_ll_usb.c:1064:12
	str	r0, [sp]
	.loc	2 1066 7                        @ ../ThirdParty/STM32F4xx_HAL_Driver/Src/stm32f4xx_ll_usb.c:1066:7
	ldr	r0, [sp, #4]
	.loc	2 1066 13 is_stmt 0             @ ../ThirdParty/STM32F4xx_HAL_Driver/Src/stm32f4xx_ll_usb.c:1066:13
	ldr	r0, [r0, #20]
	.loc	2 1066 5                        @ ../ThirdParty/STM32F4xx_HAL_Driver/Src/stm32f4xx_ll_usb.c:1066:5
	str	r0, [sp]
	.loc	2 1067 8 is_stmt 1              @ ../ThirdParty/STM32F4xx_HAL_Driver/Src/stm32f4xx_ll_usb.c:1067:8
	ldr	r0, [sp, #4]
	.loc	2 1067 14 is_stmt 0             @ ../ThirdParty/STM32F4xx_HAL_Driver/Src/stm32f4xx_ll_usb.c:1067:14
	ldr	r1, [r0, #24]
	.loc	2 1067 5                        @ ../ThirdParty/STM32F4xx_HAL_Driver/Src/stm32f4xx_ll_usb.c:1067:5
	ldr	r0, [sp]
	ands	r0, r1
	str	r0, [sp]
	.loc	2 1068 10 is_stmt 1             @ ../ThirdParty/STM32F4xx_HAL_Driver/Src/stm32f4xx_ll_usb.c:1068:10
	ldr	r0, [sp]
	.loc	2 1068 3 epilogue_begin is_stmt 0 @ ../ThirdParty/STM32F4xx_HAL_Driver/Src/stm32f4xx_ll_usb.c:1068:3
	add	sp, #8
	bx	lr
.Ltmp331:
.Lfunc_end24:
	.size	USB_ReadInterrupts, .Lfunc_end24-USB_ReadInterrupts
	.cfi_endproc
	.cantunwind
	.fnend
                                        @ -- End function
	.section	.text.USB_ReadDevAllOutEpInterrupt,"ax",%progbits
	.hidden	USB_ReadDevAllOutEpInterrupt    @ -- Begin function USB_ReadDevAllOutEpInterrupt
	.globl	USB_ReadDevAllOutEpInterrupt
	.p2align	2
	.type	USB_ReadDevAllOutEpInterrupt,%function
	.code	16                              @ @USB_ReadDevAllOutEpInterrupt
	.thumb_func
USB_ReadDevAllOutEpInterrupt:
.Lfunc_begin25:
	.loc	2 1077 0 is_stmt 1              @ ../ThirdParty/STM32F4xx_HAL_Driver/Src/stm32f4xx_ll_usb.c:1077:0
	.fnstart
	.cfi_startproc
@ %bb.0:
	.pad	#8
	sub	sp, #8
	.cfi_def_cfa_offset 8
	str	r0, [sp, #4]
.Ltmp332:
	.loc	2 1079 8 prologue_end           @ ../ThirdParty/STM32F4xx_HAL_Driver/Src/stm32f4xx_ll_usb.c:1079:8
	ldr	r0, [sp, #4]
	.loc	2 1079 21 is_stmt 0             @ ../ThirdParty/STM32F4xx_HAL_Driver/Src/stm32f4xx_ll_usb.c:1079:21
	ldr.w	r0, [r0, #2072]
	.loc	2 1079 6                        @ ../ThirdParty/STM32F4xx_HAL_Driver/Src/stm32f4xx_ll_usb.c:1079:6
	str	r0, [sp]
	.loc	2 1080 8 is_stmt 1              @ ../ThirdParty/STM32F4xx_HAL_Driver/Src/stm32f4xx_ll_usb.c:1080:8
	ldr	r0, [sp, #4]
	.loc	2 1080 21 is_stmt 0             @ ../ThirdParty/STM32F4xx_HAL_Driver/Src/stm32f4xx_ll_usb.c:1080:21
	ldr.w	r1, [r0, #2076]
	.loc	2 1080 5                        @ ../ThirdParty/STM32F4xx_HAL_Driver/Src/stm32f4xx_ll_usb.c:1080:5
	ldr	r0, [sp]
	ands	r0, r1
	str	r0, [sp]
	.loc	2 1081 12 is_stmt 1             @ ../ThirdParty/STM32F4xx_HAL_Driver/Src/stm32f4xx_ll_usb.c:1081:12
	ldrh.w	r0, [sp, #2]
	.loc	2 1081 3 epilogue_begin is_stmt 0 @ ../ThirdParty/STM32F4xx_HAL_Driver/Src/stm32f4xx_ll_usb.c:1081:3
	add	sp, #8
	bx	lr
.Ltmp333:
.Lfunc_end25:
	.size	USB_ReadDevAllOutEpInterrupt, .Lfunc_end25-USB_ReadDevAllOutEpInterrupt
	.cfi_endproc
	.cantunwind
	.fnend
                                        @ -- End function
	.section	.text.USB_ReadDevAllInEpInterrupt,"ax",%progbits
	.hidden	USB_ReadDevAllInEpInterrupt     @ -- Begin function USB_ReadDevAllInEpInterrupt
	.globl	USB_ReadDevAllInEpInterrupt
	.p2align	2
	.type	USB_ReadDevAllInEpInterrupt,%function
	.code	16                              @ @USB_ReadDevAllInEpInterrupt
	.thumb_func
USB_ReadDevAllInEpInterrupt:
.Lfunc_begin26:
	.loc	2 1090 0 is_stmt 1              @ ../ThirdParty/STM32F4xx_HAL_Driver/Src/stm32f4xx_ll_usb.c:1090:0
	.fnstart
	.cfi_startproc
@ %bb.0:
	.pad	#8
	sub	sp, #8
	.cfi_def_cfa_offset 8
	str	r0, [sp, #4]
.Ltmp334:
	.loc	2 1092 8 prologue_end           @ ../ThirdParty/STM32F4xx_HAL_Driver/Src/stm32f4xx_ll_usb.c:1092:8
	ldr	r0, [sp, #4]
	.loc	2 1092 21 is_stmt 0             @ ../ThirdParty/STM32F4xx_HAL_Driver/Src/stm32f4xx_ll_usb.c:1092:21
	ldr.w	r0, [r0, #2072]
	.loc	2 1092 6                        @ ../ThirdParty/STM32F4xx_HAL_Driver/Src/stm32f4xx_ll_usb.c:1092:6
	str	r0, [sp]
	.loc	2 1093 8 is_stmt 1              @ ../ThirdParty/STM32F4xx_HAL_Driver/Src/stm32f4xx_ll_usb.c:1093:8
	ldr	r0, [sp, #4]
	.loc	2 1093 21 is_stmt 0             @ ../ThirdParty/STM32F4xx_HAL_Driver/Src/stm32f4xx_ll_usb.c:1093:21
	ldr.w	r1, [r0, #2076]
	.loc	2 1093 5                        @ ../ThirdParty/STM32F4xx_HAL_Driver/Src/stm32f4xx_ll_usb.c:1093:5
	ldr	r0, [sp]
	ands	r0, r1
	str	r0, [sp]
	.loc	2 1094 12 is_stmt 1             @ ../ThirdParty/STM32F4xx_HAL_Driver/Src/stm32f4xx_ll_usb.c:1094:12
	ldrh.w	r0, [sp]
	.loc	2 1094 3 epilogue_begin is_stmt 0 @ ../ThirdParty/STM32F4xx_HAL_Driver/Src/stm32f4xx_ll_usb.c:1094:3
	add	sp, #8
	bx	lr
.Ltmp335:
.Lfunc_end26:
	.size	USB_ReadDevAllInEpInterrupt, .Lfunc_end26-USB_ReadDevAllInEpInterrupt
	.cfi_endproc
	.cantunwind
	.fnend
                                        @ -- End function
	.section	.text.USB_ReadDevOutEPInterrupt,"ax",%progbits
	.hidden	USB_ReadDevOutEPInterrupt       @ -- Begin function USB_ReadDevOutEPInterrupt
	.globl	USB_ReadDevOutEPInterrupt
	.p2align	2
	.type	USB_ReadDevOutEPInterrupt,%function
	.code	16                              @ @USB_ReadDevOutEPInterrupt
	.thumb_func
USB_ReadDevOutEPInterrupt:
.Lfunc_begin27:
	.loc	2 1105 0 is_stmt 1              @ ../ThirdParty/STM32F4xx_HAL_Driver/Src/stm32f4xx_ll_usb.c:1105:0
	.fnstart
	.cfi_startproc
@ %bb.0:
	.pad	#12
	sub	sp, #12
	.cfi_def_cfa_offset 12
                                        @ kill: def $r2 killed $r1
	str	r0, [sp, #8]
	strb.w	r1, [sp, #7]
.Ltmp336:
	.loc	2 1107 8 prologue_end           @ ../ThirdParty/STM32F4xx_HAL_Driver/Src/stm32f4xx_ll_usb.c:1107:8
	ldr	r0, [sp, #8]
	ldrb.w	r1, [sp, #7]
	add.w	r0, r0, r1, lsl #5
	.loc	2 1107 27 is_stmt 0             @ ../ThirdParty/STM32F4xx_HAL_Driver/Src/stm32f4xx_ll_usb.c:1107:27
	ldr.w	r0, [r0, #2824]
	.loc	2 1107 6                        @ ../ThirdParty/STM32F4xx_HAL_Driver/Src/stm32f4xx_ll_usb.c:1107:6
	str	r0, [sp]
	.loc	2 1108 8 is_stmt 1              @ ../ThirdParty/STM32F4xx_HAL_Driver/Src/stm32f4xx_ll_usb.c:1108:8
	ldr	r0, [sp, #8]
	.loc	2 1108 21 is_stmt 0             @ ../ThirdParty/STM32F4xx_HAL_Driver/Src/stm32f4xx_ll_usb.c:1108:21
	ldr.w	r1, [r0, #2068]
	.loc	2 1108 5                        @ ../ThirdParty/STM32F4xx_HAL_Driver/Src/stm32f4xx_ll_usb.c:1108:5
	ldr	r0, [sp]
	ands	r0, r1
	str	r0, [sp]
	.loc	2 1109 10 is_stmt 1             @ ../ThirdParty/STM32F4xx_HAL_Driver/Src/stm32f4xx_ll_usb.c:1109:10
	ldr	r0, [sp]
	.loc	2 1109 3 epilogue_begin is_stmt 0 @ ../ThirdParty/STM32F4xx_HAL_Driver/Src/stm32f4xx_ll_usb.c:1109:3
	add	sp, #12
	bx	lr
.Ltmp337:
.Lfunc_end27:
	.size	USB_ReadDevOutEPInterrupt, .Lfunc_end27-USB_ReadDevOutEPInterrupt
	.cfi_endproc
	.cantunwind
	.fnend
                                        @ -- End function
	.section	.text.USB_ReadDevInEPInterrupt,"ax",%progbits
	.hidden	USB_ReadDevInEPInterrupt        @ -- Begin function USB_ReadDevInEPInterrupt
	.globl	USB_ReadDevInEPInterrupt
	.p2align	2
	.type	USB_ReadDevInEPInterrupt,%function
	.code	16                              @ @USB_ReadDevInEPInterrupt
	.thumb_func
USB_ReadDevInEPInterrupt:
.Lfunc_begin28:
	.loc	2 1120 0 is_stmt 1              @ ../ThirdParty/STM32F4xx_HAL_Driver/Src/stm32f4xx_ll_usb.c:1120:0
	.fnstart
	.cfi_startproc
@ %bb.0:
	.pad	#20
	sub	sp, #20
	.cfi_def_cfa_offset 20
                                        @ kill: def $r2 killed $r1
	str	r0, [sp, #16]
	strb.w	r1, [sp, #15]
.Ltmp338:
	.loc	2 1123 9 prologue_end           @ ../ThirdParty/STM32F4xx_HAL_Driver/Src/stm32f4xx_ll_usb.c:1123:9
	ldr	r0, [sp, #16]
	.loc	2 1123 22 is_stmt 0             @ ../ThirdParty/STM32F4xx_HAL_Driver/Src/stm32f4xx_ll_usb.c:1123:22
	ldr.w	r0, [r0, #2064]
	.loc	2 1123 7                        @ ../ThirdParty/STM32F4xx_HAL_Driver/Src/stm32f4xx_ll_usb.c:1123:7
	str	r0, [sp, #4]
	.loc	2 1124 9 is_stmt 1              @ ../ThirdParty/STM32F4xx_HAL_Driver/Src/stm32f4xx_ll_usb.c:1124:9
	ldr	r0, [sp, #16]
	.loc	2 1124 22 is_stmt 0             @ ../ThirdParty/STM32F4xx_HAL_Driver/Src/stm32f4xx_ll_usb.c:1124:22
	ldr.w	r0, [r0, #2100]
	.loc	2 1124 7                        @ ../ThirdParty/STM32F4xx_HAL_Driver/Src/stm32f4xx_ll_usb.c:1124:7
	str	r0, [sp]
	.loc	2 1125 12 is_stmt 1             @ ../ThirdParty/STM32F4xx_HAL_Driver/Src/stm32f4xx_ll_usb.c:1125:12
	ldr	r0, [sp]
	.loc	2 1125 19 is_stmt 0             @ ../ThirdParty/STM32F4xx_HAL_Driver/Src/stm32f4xx_ll_usb.c:1125:19
	ldrb.w	r1, [sp, #15]
	.loc	2 1125 16                       @ ../ThirdParty/STM32F4xx_HAL_Driver/Src/stm32f4xx_ll_usb.c:1125:16
	lsrs	r0, r1
	.loc	2 1125 26                       @ ../ThirdParty/STM32F4xx_HAL_Driver/Src/stm32f4xx_ll_usb.c:1125:26
	and	r1, r0, #1
	.loc	2 1125 7                        @ ../ThirdParty/STM32F4xx_HAL_Driver/Src/stm32f4xx_ll_usb.c:1125:7
	ldr	r0, [sp, #4]
	orr.w	r0, r0, r1, lsl #7
	str	r0, [sp, #4]
	.loc	2 1126 7 is_stmt 1              @ ../ThirdParty/STM32F4xx_HAL_Driver/Src/stm32f4xx_ll_usb.c:1126:7
	ldr	r0, [sp, #16]
	ldrb.w	r1, [sp, #15]
	add.w	r0, r0, r1, lsl #5
	.loc	2 1126 25 is_stmt 0             @ ../ThirdParty/STM32F4xx_HAL_Driver/Src/stm32f4xx_ll_usb.c:1126:25
	ldr.w	r0, [r0, #2312]
	.loc	2 1126 35                       @ ../ThirdParty/STM32F4xx_HAL_Driver/Src/stm32f4xx_ll_usb.c:1126:35
	ldr	r1, [sp, #4]
	.loc	2 1126 33                       @ ../ThirdParty/STM32F4xx_HAL_Driver/Src/stm32f4xx_ll_usb.c:1126:33
	ands	r0, r1
	.loc	2 1126 5                        @ ../ThirdParty/STM32F4xx_HAL_Driver/Src/stm32f4xx_ll_usb.c:1126:5
	str	r0, [sp, #8]
	.loc	2 1127 10 is_stmt 1             @ ../ThirdParty/STM32F4xx_HAL_Driver/Src/stm32f4xx_ll_usb.c:1127:10
	ldr	r0, [sp, #8]
	.loc	2 1127 3 epilogue_begin is_stmt 0 @ ../ThirdParty/STM32F4xx_HAL_Driver/Src/stm32f4xx_ll_usb.c:1127:3
	add	sp, #20
	bx	lr
.Ltmp339:
.Lfunc_end28:
	.size	USB_ReadDevInEPInterrupt, .Lfunc_end28-USB_ReadDevInEPInterrupt
	.cfi_endproc
	.cantunwind
	.fnend
                                        @ -- End function
	.section	.text.USB_ClearInterrupts,"ax",%progbits
	.hidden	USB_ClearInterrupts             @ -- Begin function USB_ClearInterrupts
	.globl	USB_ClearInterrupts
	.p2align	2
	.type	USB_ClearInterrupts,%function
	.code	16                              @ @USB_ClearInterrupts
	.thumb_func
USB_ClearInterrupts:
.Lfunc_begin29:
	.loc	2 1137 0 is_stmt 1              @ ../ThirdParty/STM32F4xx_HAL_Driver/Src/stm32f4xx_ll_usb.c:1137:0
	.fnstart
	.cfi_startproc
@ %bb.0:
	.pad	#8
	sub	sp, #8
	.cfi_def_cfa_offset 8
	str	r0, [sp, #4]
	str	r1, [sp]
.Ltmp340:
	.loc	2 1138 20 prologue_end          @ ../ThirdParty/STM32F4xx_HAL_Driver/Src/stm32f4xx_ll_usb.c:1138:20
	ldr	r2, [sp]
	.loc	2 1138 3 is_stmt 0              @ ../ThirdParty/STM32F4xx_HAL_Driver/Src/stm32f4xx_ll_usb.c:1138:3
	ldr	r1, [sp, #4]
	.loc	2 1138 17                       @ ../ThirdParty/STM32F4xx_HAL_Driver/Src/stm32f4xx_ll_usb.c:1138:17
	ldr	r0, [r1, #20]
	orrs	r0, r2
	str	r0, [r1, #20]
	.loc	2 1139 1 epilogue_begin is_stmt 1 @ ../ThirdParty/STM32F4xx_HAL_Driver/Src/stm32f4xx_ll_usb.c:1139:1
	add	sp, #8
	bx	lr
.Ltmp341:
.Lfunc_end29:
	.size	USB_ClearInterrupts, .Lfunc_end29-USB_ClearInterrupts
	.cfi_endproc
	.cantunwind
	.fnend
                                        @ -- End function
	.section	.text.USB_GetMode,"ax",%progbits
	.hidden	USB_GetMode                     @ -- Begin function USB_GetMode
	.globl	USB_GetMode
	.p2align	2
	.type	USB_GetMode,%function
	.code	16                              @ @USB_GetMode
	.thumb_func
USB_GetMode:
.Lfunc_begin30:
	.loc	2 1150 0                        @ ../ThirdParty/STM32F4xx_HAL_Driver/Src/stm32f4xx_ll_usb.c:1150:0
	.fnstart
	.cfi_startproc
@ %bb.0:
	.pad	#4
	sub	sp, #4
	.cfi_def_cfa_offset 4
	str	r0, [sp]
.Ltmp342:
	.loc	2 1151 12 prologue_end          @ ../ThirdParty/STM32F4xx_HAL_Driver/Src/stm32f4xx_ll_usb.c:1151:12
	ldr	r0, [sp]
	.loc	2 1151 18 is_stmt 0             @ ../ThirdParty/STM32F4xx_HAL_Driver/Src/stm32f4xx_ll_usb.c:1151:18
	ldr	r0, [r0, #20]
	.loc	2 1151 28                       @ ../ThirdParty/STM32F4xx_HAL_Driver/Src/stm32f4xx_ll_usb.c:1151:28
	and	r0, r0, #1
	.loc	2 1151 3 epilogue_begin         @ ../ThirdParty/STM32F4xx_HAL_Driver/Src/stm32f4xx_ll_usb.c:1151:3
	add	sp, #4
	bx	lr
.Ltmp343:
.Lfunc_end30:
	.size	USB_GetMode, .Lfunc_end30-USB_GetMode
	.cfi_endproc
	.cantunwind
	.fnend
                                        @ -- End function
	.section	.text.USB_ActivateSetup,"ax",%progbits
	.hidden	USB_ActivateSetup               @ -- Begin function USB_ActivateSetup
	.globl	USB_ActivateSetup
	.p2align	2
	.type	USB_ActivateSetup,%function
	.code	16                              @ @USB_ActivateSetup
	.thumb_func
USB_ActivateSetup:
.Lfunc_begin31:
	.loc	2 1161 0 is_stmt 1              @ ../ThirdParty/STM32F4xx_HAL_Driver/Src/stm32f4xx_ll_usb.c:1161:0
	.fnstart
	.cfi_startproc
@ %bb.0:
	.pad	#4
	sub	sp, #4
	.cfi_def_cfa_offset 4
	str	r0, [sp]
.Ltmp344:
	.loc	2 1163 3 prologue_end           @ ../ThirdParty/STM32F4xx_HAL_Driver/Src/stm32f4xx_ll_usb.c:1163:3
	ldr	r1, [sp]
	.loc	2 1163 26 is_stmt 0             @ ../ThirdParty/STM32F4xx_HAL_Driver/Src/stm32f4xx_ll_usb.c:1163:26
	ldr.w	r0, [r1, #2304]
	movw	r2, #2047
	bics	r0, r2
	str.w	r0, [r1, #2304]
.Ltmp345:
	.loc	2 1165 7 is_stmt 1              @ ../ThirdParty/STM32F4xx_HAL_Driver/Src/stm32f4xx_ll_usb.c:1165:7
	ldr	r0, [sp]
	.loc	2 1165 20 is_stmt 0             @ ../ThirdParty/STM32F4xx_HAL_Driver/Src/stm32f4xx_ll_usb.c:1165:20
	ldr.w	r0, [r0, #2056]
	.loc	2 1165 25                       @ ../ThirdParty/STM32F4xx_HAL_Driver/Src/stm32f4xx_ll_usb.c:1165:25
	and	r0, r0, #6
.Ltmp346:
	.loc	2 1165 6                        @ ../ThirdParty/STM32F4xx_HAL_Driver/Src/stm32f4xx_ll_usb.c:1165:6
	cmp	r0, #4
	bne	.LBB31_2
	b	.LBB31_1
.LBB31_1:
.Ltmp347:
	.loc	2 1167 5 is_stmt 1              @ ../ThirdParty/STM32F4xx_HAL_Driver/Src/stm32f4xx_ll_usb.c:1167:5
	ldr	r1, [sp]
	.loc	2 1167 28 is_stmt 0             @ ../ThirdParty/STM32F4xx_HAL_Driver/Src/stm32f4xx_ll_usb.c:1167:28
	ldr.w	r0, [r1, #2304]
	orr	r0, r0, #3
	str.w	r0, [r1, #2304]
	.loc	2 1168 3 is_stmt 1              @ ../ThirdParty/STM32F4xx_HAL_Driver/Src/stm32f4xx_ll_usb.c:1168:3
	b	.LBB31_2
.Ltmp348:
.LBB31_2:
	.loc	2 1169 3                        @ ../ThirdParty/STM32F4xx_HAL_Driver/Src/stm32f4xx_ll_usb.c:1169:3
	ldr	r1, [sp]
	.loc	2 1169 21 is_stmt 0             @ ../ThirdParty/STM32F4xx_HAL_Driver/Src/stm32f4xx_ll_usb.c:1169:21
	ldr.w	r0, [r1, #2052]
	orr	r0, r0, #256
	str.w	r0, [r1, #2052]
	movs	r0, #0
	.loc	2 1171 3 epilogue_begin is_stmt 1 @ ../ThirdParty/STM32F4xx_HAL_Driver/Src/stm32f4xx_ll_usb.c:1171:3
	add	sp, #4
	bx	lr
.Ltmp349:
.Lfunc_end31:
	.size	USB_ActivateSetup, .Lfunc_end31-USB_ActivateSetup
	.cfi_endproc
	.cantunwind
	.fnend
                                        @ -- End function
	.section	.text.USB_EP0_OutStart,"ax",%progbits
	.hidden	USB_EP0_OutStart                @ -- Begin function USB_EP0_OutStart
	.globl	USB_EP0_OutStart
	.p2align	2
	.type	USB_EP0_OutStart,%function
	.code	16                              @ @USB_EP0_OutStart
	.thumb_func
USB_EP0_OutStart:
.Lfunc_begin32:
	.loc	2 1186 0                        @ ../ThirdParty/STM32F4xx_HAL_Driver/Src/stm32f4xx_ll_usb.c:1186:0
	.fnstart
	.cfi_startproc
@ %bb.0:
	.pad	#12
	sub	sp, #12
	.cfi_def_cfa_offset 12
                                        @ kill: def $r3 killed $r1
	str	r0, [sp, #8]
	strb.w	r1, [sp, #7]
	str	r2, [sp]
.Ltmp350:
	.loc	2 1187 3 prologue_end           @ ../ThirdParty/STM32F4xx_HAL_Driver/Src/stm32f4xx_ll_usb.c:1187:3
	ldr	r1, [sp, #8]
	movs	r0, #0
	.loc	2 1187 28 is_stmt 0             @ ../ThirdParty/STM32F4xx_HAL_Driver/Src/stm32f4xx_ll_usb.c:1187:28
	str.w	r0, [r1, #2832]
	.loc	2 1188 3 is_stmt 1              @ ../ThirdParty/STM32F4xx_HAL_Driver/Src/stm32f4xx_ll_usb.c:1188:3
	ldr	r1, [sp, #8]
	.loc	2 1188 28 is_stmt 0             @ ../ThirdParty/STM32F4xx_HAL_Driver/Src/stm32f4xx_ll_usb.c:1188:28
	ldr.w	r0, [r1, #2832]
	orr	r0, r0, #524288
	str.w	r0, [r1, #2832]
	.loc	2 1189 3 is_stmt 1              @ ../ThirdParty/STM32F4xx_HAL_Driver/Src/stm32f4xx_ll_usb.c:1189:3
	ldr	r1, [sp, #8]
	.loc	2 1189 28 is_stmt 0             @ ../ThirdParty/STM32F4xx_HAL_Driver/Src/stm32f4xx_ll_usb.c:1189:28
	ldr.w	r0, [r1, #2832]
	orr	r0, r0, #24
	str.w	r0, [r1, #2832]
	.loc	2 1190 3 is_stmt 1              @ ../ThirdParty/STM32F4xx_HAL_Driver/Src/stm32f4xx_ll_usb.c:1190:3
	ldr	r1, [sp, #8]
	.loc	2 1190 28 is_stmt 0             @ ../ThirdParty/STM32F4xx_HAL_Driver/Src/stm32f4xx_ll_usb.c:1190:28
	ldr.w	r0, [r1, #2832]
	orr	r0, r0, #1610612736
	str.w	r0, [r1, #2832]
.Ltmp351:
	.loc	2 1192 7 is_stmt 1              @ ../ThirdParty/STM32F4xx_HAL_Driver/Src/stm32f4xx_ll_usb.c:1192:7
	ldrb.w	r0, [sp, #7]
.Ltmp352:
	.loc	2 1192 7 is_stmt 0              @ ../ThirdParty/STM32F4xx_HAL_Driver/Src/stm32f4xx_ll_usb.c:1192:7
	cmp	r0, #1
	bne	.LBB32_2
	b	.LBB32_1
.LBB32_1:
.Ltmp353:
	.loc	2 1194 41 is_stmt 1             @ ../ThirdParty/STM32F4xx_HAL_Driver/Src/stm32f4xx_ll_usb.c:1194:41
	ldr	r0, [sp]
	.loc	2 1194 5 is_stmt 0              @ ../ThirdParty/STM32F4xx_HAL_Driver/Src/stm32f4xx_ll_usb.c:1194:5
	ldr	r1, [sp, #8]
	.loc	2 1194 29                       @ ../ThirdParty/STM32F4xx_HAL_Driver/Src/stm32f4xx_ll_usb.c:1194:29
	str.w	r0, [r1, #2836]
	.loc	2 1196 5 is_stmt 1              @ ../ThirdParty/STM32F4xx_HAL_Driver/Src/stm32f4xx_ll_usb.c:1196:5
	ldr	r1, [sp, #8]
	mov.w	r0, #-2147450880
	.loc	2 1196 29 is_stmt 0             @ ../ThirdParty/STM32F4xx_HAL_Driver/Src/stm32f4xx_ll_usb.c:1196:29
	str.w	r0, [r1, #2816]
	.loc	2 1197 3 is_stmt 1              @ ../ThirdParty/STM32F4xx_HAL_Driver/Src/stm32f4xx_ll_usb.c:1197:3
	b	.LBB32_2
.Ltmp354:
.LBB32_2:
	.loc	2 0 3 is_stmt 0                 @ ../ThirdParty/STM32F4xx_HAL_Driver/Src/stm32f4xx_ll_usb.c:0:3
	movs	r0, #0
	.loc	2 1199 3 epilogue_begin is_stmt 1 @ ../ThirdParty/STM32F4xx_HAL_Driver/Src/stm32f4xx_ll_usb.c:1199:3
	add	sp, #12
	bx	lr
.Ltmp355:
.Lfunc_end32:
	.size	USB_EP0_OutStart, .Lfunc_end32-USB_EP0_OutStart
	.cfi_endproc
	.cantunwind
	.fnend
                                        @ -- End function
	.section	.text.USB_HostInit,"ax",%progbits
	.hidden	USB_HostInit                    @ -- Begin function USB_HostInit
	.globl	USB_HostInit
	.p2align	2
	.type	USB_HostInit,%function
	.code	16                              @ @USB_HostInit
	.thumb_func
USB_HostInit:
.Lfunc_begin33:
	.loc	2 1248 0                        @ ../ThirdParty/STM32F4xx_HAL_Driver/Src/stm32f4xx_ll_usb.c:1248:0
	.fnstart
	.cfi_startproc
@ %bb.0:
	.save	{r4, r5, r6, r7, r8, r9, r10, r11, lr}
	push.w	{r4, r5, r6, r7, r8, r9, r10, r11, lr}
	.cfi_def_cfa_offset 36
	.cfi_offset lr, -4
	.cfi_offset r11, -8
	.cfi_offset r10, -12
	.cfi_offset r9, -16
	.cfi_offset r8, -20
	.cfi_offset r7, -24
	.cfi_offset r6, -28
	.cfi_offset r5, -32
	.cfi_offset r4, -36
	.pad	#68
	sub	sp, #68
	.cfi_def_cfa_offset 104
	str	r1, [sp, #4]                    @ 4-byte Spill
	ldr.w	r11, [sp, #140]
	ldr.w	r10, [sp, #136]
	ldr.w	r9, [sp, #132]
	ldr.w	r8, [sp, #128]
	ldr	r7, [sp, #124]
	ldr	r6, [sp, #120]
	ldr	r5, [sp, #116]
	ldr	r4, [sp, #112]
	ldr.w	lr, [sp, #108]
	ldr.w	r12, [sp, #104]
                                        @ kill: def $r1 killed $r3
                                        @ kill: def $r1 killed $r2
	ldr	r1, [sp, #4]                    @ 4-byte Reload
	ldr	r1, [sp, #4]                    @ 4-byte Reload
	str.w	r11, [sp, #64]
	str.w	r10, [sp, #60]
	str.w	r9, [sp, #56]
	str.w	r8, [sp, #52]
	str	r7, [sp, #48]
	str	r6, [sp, #44]
	str	r5, [sp, #40]
	str	r4, [sp, #36]
	str.w	lr, [sp, #32]
	str.w	r12, [sp, #28]
	str	r3, [sp, #24]
	str	r2, [sp, #20]
	str	r1, [sp, #16]
	str	r0, [sp, #12]
.Ltmp356:
	.loc	2 1252 3 prologue_end           @ ../ThirdParty/STM32F4xx_HAL_Driver/Src/stm32f4xx_ll_usb.c:1252:3
	ldr	r1, [sp, #12]
	movs	r0, #0
	.loc	2 1252 16 is_stmt 0             @ ../ThirdParty/STM32F4xx_HAL_Driver/Src/stm32f4xx_ll_usb.c:1252:16
	str.w	r0, [r1, #3584]
	.loc	2 1259 3 is_stmt 1              @ ../ThirdParty/STM32F4xx_HAL_Driver/Src/stm32f4xx_ll_usb.c:1259:3
	ldr	r1, [sp, #12]
	.loc	2 1259 15 is_stmt 0             @ ../ThirdParty/STM32F4xx_HAL_Driver/Src/stm32f4xx_ll_usb.c:1259:15
	ldr	r0, [r1, #56]
	bic	r0, r0, #262144
	str	r0, [r1, #56]
	.loc	2 1260 3 is_stmt 1              @ ../ThirdParty/STM32F4xx_HAL_Driver/Src/stm32f4xx_ll_usb.c:1260:3
	ldr	r1, [sp, #12]
	.loc	2 1260 15 is_stmt 0             @ ../ThirdParty/STM32F4xx_HAL_Driver/Src/stm32f4xx_ll_usb.c:1260:15
	ldr	r0, [r1, #56]
	bic	r0, r0, #524288
	str	r0, [r1, #56]
	.loc	2 1261 3 is_stmt 1              @ ../ThirdParty/STM32F4xx_HAL_Driver/Src/stm32f4xx_ll_usb.c:1261:3
	ldr	r1, [sp, #12]
	.loc	2 1261 15 is_stmt 0             @ ../ThirdParty/STM32F4xx_HAL_Driver/Src/stm32f4xx_ll_usb.c:1261:15
	ldr	r0, [r1, #56]
	orr	r0, r0, #2097152
	str	r0, [r1, #56]
.Ltmp357:
	.loc	2 1265 11 is_stmt 1             @ ../ThirdParty/STM32F4xx_HAL_Driver/Src/stm32f4xx_ll_usb.c:1265:11
	ldr	r0, [sp, #24]
	.loc	2 1265 39 is_stmt 0             @ ../ThirdParty/STM32F4xx_HAL_Driver/Src/stm32f4xx_ll_usb.c:1265:39
	cmp	r0, #3
	bne	.LBB33_3
	b	.LBB33_1
.LBB33_1:
	.loc	2 1266 7 is_stmt 1              @ ../ThirdParty/STM32F4xx_HAL_Driver/Src/stm32f4xx_ll_usb.c:1266:7
	ldr	r0, [sp, #12]
.Ltmp358:
	.loc	2 1265 6                        @ ../ThirdParty/STM32F4xx_HAL_Driver/Src/stm32f4xx_ll_usb.c:1265:6
	cmp.w	r0, #1342177280
	beq	.LBB33_3
	b	.LBB33_2
.LBB33_2:
.Ltmp359:
	.loc	2 1268 5                        @ ../ThirdParty/STM32F4xx_HAL_Driver/Src/stm32f4xx_ll_usb.c:1268:5
	ldr	r1, [sp, #12]
	.loc	2 1268 21 is_stmt 0             @ ../ThirdParty/STM32F4xx_HAL_Driver/Src/stm32f4xx_ll_usb.c:1268:21
	ldr.w	r0, [r1, #1024]
	orr	r0, r0, #4
	str.w	r0, [r1, #1024]
	.loc	2 1269 3 is_stmt 1              @ ../ThirdParty/STM32F4xx_HAL_Driver/Src/stm32f4xx_ll_usb.c:1269:3
	b	.LBB33_4
.Ltmp360:
.LBB33_3:
	.loc	2 1272 5                        @ ../ThirdParty/STM32F4xx_HAL_Driver/Src/stm32f4xx_ll_usb.c:1272:5
	ldr	r1, [sp, #12]
	.loc	2 1272 21 is_stmt 0             @ ../ThirdParty/STM32F4xx_HAL_Driver/Src/stm32f4xx_ll_usb.c:1272:21
	ldr.w	r0, [r1, #1024]
	bic	r0, r0, #4
	str.w	r0, [r1, #1024]
	b	.LBB33_4
.Ltmp361:
.LBB33_4:
	.loc	2 1276 19 is_stmt 1             @ ../ThirdParty/STM32F4xx_HAL_Driver/Src/stm32f4xx_ll_usb.c:1276:19
	ldr	r0, [sp, #12]
	movs	r1, #16
	.loc	2 1276 3 is_stmt 0              @ ../ThirdParty/STM32F4xx_HAL_Driver/Src/stm32f4xx_ll_usb.c:1276:3
	bl	USB_FlushTxFifo
	.loc	2 1277 19 is_stmt 1             @ ../ThirdParty/STM32F4xx_HAL_Driver/Src/stm32f4xx_ll_usb.c:1277:19
	ldr	r0, [sp, #12]
	.loc	2 1277 3 is_stmt 0              @ ../ThirdParty/STM32F4xx_HAL_Driver/Src/stm32f4xx_ll_usb.c:1277:3
	bl	USB_FlushRxFifo
	movs	r0, #0
.Ltmp362:
	.loc	2 1280 10 is_stmt 1             @ ../ThirdParty/STM32F4xx_HAL_Driver/Src/stm32f4xx_ll_usb.c:1280:10
	str	r0, [sp, #8]
	.loc	2 1280 8 is_stmt 0              @ ../ThirdParty/STM32F4xx_HAL_Driver/Src/stm32f4xx_ll_usb.c:1280:8
	b	.LBB33_5
.LBB33_5:                               @ =>This Inner Loop Header: Depth=1
.Ltmp363:
	.loc	2 1280 16                       @ ../ThirdParty/STM32F4xx_HAL_Driver/Src/stm32f4xx_ll_usb.c:1280:16
	ldr	r0, [sp, #8]
	.loc	2 1280 24                       @ ../ThirdParty/STM32F4xx_HAL_Driver/Src/stm32f4xx_ll_usb.c:1280:24
	ldr	r1, [sp, #20]
.Ltmp364:
	.loc	2 1280 3                        @ ../ThirdParty/STM32F4xx_HAL_Driver/Src/stm32f4xx_ll_usb.c:1280:3
	cmp	r0, r1
	bhs	.LBB33_8
	b	.LBB33_6
.LBB33_6:                               @   in Loop: Header=BB33_5 Depth=1
.Ltmp365:
	.loc	2 1282 5 is_stmt 1              @ ../ThirdParty/STM32F4xx_HAL_Driver/Src/stm32f4xx_ll_usb.c:1282:5
	ldr	r0, [sp, #12]
	ldr	r1, [sp, #8]
	add.w	r1, r0, r1, lsl #5
	mov.w	r0, #-1
	.loc	2 1282 23 is_stmt 0             @ ../ThirdParty/STM32F4xx_HAL_Driver/Src/stm32f4xx_ll_usb.c:1282:23
	str.w	r0, [r1, #1288]
	.loc	2 1283 5 is_stmt 1              @ ../ThirdParty/STM32F4xx_HAL_Driver/Src/stm32f4xx_ll_usb.c:1283:5
	ldr	r0, [sp, #12]
	ldr	r1, [sp, #8]
	add.w	r1, r0, r1, lsl #5
	movs	r0, #0
	.loc	2 1283 26 is_stmt 0             @ ../ThirdParty/STM32F4xx_HAL_Driver/Src/stm32f4xx_ll_usb.c:1283:26
	str.w	r0, [r1, #1292]
	.loc	2 1284 3 is_stmt 1              @ ../ThirdParty/STM32F4xx_HAL_Driver/Src/stm32f4xx_ll_usb.c:1284:3
	b	.LBB33_7
.Ltmp366:
.LBB33_7:                               @   in Loop: Header=BB33_5 Depth=1
	.loc	2 1280 40                       @ ../ThirdParty/STM32F4xx_HAL_Driver/Src/stm32f4xx_ll_usb.c:1280:40
	ldr	r0, [sp, #8]
	adds	r0, #1
	str	r0, [sp, #8]
	.loc	2 1280 3 is_stmt 0              @ ../ThirdParty/STM32F4xx_HAL_Driver/Src/stm32f4xx_ll_usb.c:1280:3
	b	.LBB33_5
.Ltmp367:
.LBB33_8:
	.loc	2 1287 17 is_stmt 1             @ ../ThirdParty/STM32F4xx_HAL_Driver/Src/stm32f4xx_ll_usb.c:1287:17
	ldr	r0, [sp, #12]
	movs	r1, #1
	.loc	2 1287 3 is_stmt 0              @ ../ThirdParty/STM32F4xx_HAL_Driver/Src/stm32f4xx_ll_usb.c:1287:3
	bl	USB_DriveVbus
	movs	r0, #200
	.loc	2 1289 3 is_stmt 1              @ ../ThirdParty/STM32F4xx_HAL_Driver/Src/stm32f4xx_ll_usb.c:1289:3
	bl	HAL_Delay
	.loc	2 1292 3                        @ ../ThirdParty/STM32F4xx_HAL_Driver/Src/stm32f4xx_ll_usb.c:1292:3
	ldr	r1, [sp, #12]
	movs	r0, #0
	.loc	2 1292 17 is_stmt 0             @ ../ThirdParty/STM32F4xx_HAL_Driver/Src/stm32f4xx_ll_usb.c:1292:17
	str	r0, [r1, #24]
	.loc	2 1295 3 is_stmt 1              @ ../ThirdParty/STM32F4xx_HAL_Driver/Src/stm32f4xx_ll_usb.c:1295:3
	ldr	r1, [sp, #12]
	mov.w	r0, #-1
	.loc	2 1295 17 is_stmt 0             @ ../ThirdParty/STM32F4xx_HAL_Driver/Src/stm32f4xx_ll_usb.c:1295:17
	str	r0, [r1, #20]
.Ltmp368:
	.loc	2 1297 6 is_stmt 1              @ ../ThirdParty/STM32F4xx_HAL_Driver/Src/stm32f4xx_ll_usb.c:1297:6
	ldr	r0, [sp, #12]
.Ltmp369:
	.loc	2 1297 6 is_stmt 0              @ ../ThirdParty/STM32F4xx_HAL_Driver/Src/stm32f4xx_ll_usb.c:1297:6
	cmp.w	r0, #1342177280
	bne	.LBB33_10
	b	.LBB33_9
.LBB33_9:
.Ltmp370:
	.loc	2 1300 5 is_stmt 1              @ ../ThirdParty/STM32F4xx_HAL_Driver/Src/stm32f4xx_ll_usb.c:1300:5
	ldr	r1, [sp, #12]
	movs	r0, #128
	.loc	2 1300 20 is_stmt 0             @ ../ThirdParty/STM32F4xx_HAL_Driver/Src/stm32f4xx_ll_usb.c:1300:20
	str	r0, [r1, #36]
	.loc	2 1301 5 is_stmt 1              @ ../ThirdParty/STM32F4xx_HAL_Driver/Src/stm32f4xx_ll_usb.c:1301:5
	ldr	r1, [sp, #12]
	movs	r0, #128
	movt	r0, #96
	.loc	2 1301 30 is_stmt 0             @ ../ThirdParty/STM32F4xx_HAL_Driver/Src/stm32f4xx_ll_usb.c:1301:30
	str	r0, [r1, #40]
	.loc	2 1302 5 is_stmt 1              @ ../ThirdParty/STM32F4xx_HAL_Driver/Src/stm32f4xx_ll_usb.c:1302:5
	ldr	r1, [sp, #12]
	movs	r0, #224
	movt	r0, #64
	.loc	2 1302 20 is_stmt 0             @ ../ThirdParty/STM32F4xx_HAL_Driver/Src/stm32f4xx_ll_usb.c:1302:20
	str.w	r0, [r1, #256]
	.loc	2 1303 3 is_stmt 1              @ ../ThirdParty/STM32F4xx_HAL_Driver/Src/stm32f4xx_ll_usb.c:1303:3
	b	.LBB33_11
.Ltmp371:
.LBB33_10:
	.loc	2 1307 5                        @ ../ThirdParty/STM32F4xx_HAL_Driver/Src/stm32f4xx_ll_usb.c:1307:5
	ldr	r1, [sp, #12]
	mov.w	r0, #512
	.loc	2 1307 20 is_stmt 0             @ ../ThirdParty/STM32F4xx_HAL_Driver/Src/stm32f4xx_ll_usb.c:1307:20
	str	r0, [r1, #36]
	.loc	2 1308 5 is_stmt 1              @ ../ThirdParty/STM32F4xx_HAL_Driver/Src/stm32f4xx_ll_usb.c:1308:5
	ldr	r1, [sp, #12]
	movw	r0, #512
	movt	r0, #256
	.loc	2 1308 30 is_stmt 0             @ ../ThirdParty/STM32F4xx_HAL_Driver/Src/stm32f4xx_ll_usb.c:1308:30
	str	r0, [r1, #40]
	.loc	2 1309 5 is_stmt 1              @ ../ThirdParty/STM32F4xx_HAL_Driver/Src/stm32f4xx_ll_usb.c:1309:5
	ldr	r1, [sp, #12]
	movw	r0, #768
	movt	r0, #224
	.loc	2 1309 20 is_stmt 0             @ ../ThirdParty/STM32F4xx_HAL_Driver/Src/stm32f4xx_ll_usb.c:1309:20
	str.w	r0, [r1, #256]
	b	.LBB33_11
.Ltmp372:
.LBB33_11:
	.loc	2 1313 11 is_stmt 1             @ ../ThirdParty/STM32F4xx_HAL_Driver/Src/stm32f4xx_ll_usb.c:1313:11
	ldr	r0, [sp, #28]
.Ltmp373:
	.loc	2 1313 7 is_stmt 0              @ ../ThirdParty/STM32F4xx_HAL_Driver/Src/stm32f4xx_ll_usb.c:1313:7
	cbnz	r0, .LBB33_13
	b	.LBB33_12
.LBB33_12:
.Ltmp374:
	.loc	2 1315 5 is_stmt 1              @ ../ThirdParty/STM32F4xx_HAL_Driver/Src/stm32f4xx_ll_usb.c:1315:5
	ldr	r1, [sp, #12]
	.loc	2 1315 19 is_stmt 0             @ ../ThirdParty/STM32F4xx_HAL_Driver/Src/stm32f4xx_ll_usb.c:1315:19
	ldr	r0, [r1, #24]
	orr	r0, r0, #16
	str	r0, [r1, #24]
	.loc	2 1316 3 is_stmt 1              @ ../ThirdParty/STM32F4xx_HAL_Driver/Src/stm32f4xx_ll_usb.c:1316:3
	b	.LBB33_13
.Ltmp375:
.LBB33_13:
	.loc	2 1319 3                        @ ../ThirdParty/STM32F4xx_HAL_Driver/Src/stm32f4xx_ll_usb.c:1319:3
	ldr	r1, [sp, #12]
	.loc	2 1319 17 is_stmt 0             @ ../ThirdParty/STM32F4xx_HAL_Driver/Src/stm32f4xx_ll_usb.c:1319:17
	ldr	r0, [r1, #24]
	movs	r2, #8
	movt	r2, #41760
	orrs	r0, r2
	str	r0, [r1, #24]
	movs	r0, #0
	.loc	2 1323 3 epilogue_begin is_stmt 1 @ ../ThirdParty/STM32F4xx_HAL_Driver/Src/stm32f4xx_ll_usb.c:1323:3
	add	sp, #68
	pop.w	{r4, r5, r6, r7, r8, r9, r10, r11, pc}
.Ltmp376:
.Lfunc_end33:
	.size	USB_HostInit, .Lfunc_end33-USB_HostInit
	.cfi_endproc
	.cantunwind
	.fnend
                                        @ -- End function
	.section	.text.USB_DriveVbus,"ax",%progbits
	.hidden	USB_DriveVbus                   @ -- Begin function USB_DriveVbus
	.globl	USB_DriveVbus
	.p2align	2
	.type	USB_DriveVbus,%function
	.code	16                              @ @USB_DriveVbus
	.thumb_func
USB_DriveVbus:
.Lfunc_begin34:
	.loc	2 1383 0                        @ ../ThirdParty/STM32F4xx_HAL_Driver/Src/stm32f4xx_ll_usb.c:1383:0
	.fnstart
	.cfi_startproc
@ %bb.0:
	.pad	#12
	sub	sp, #12
	.cfi_def_cfa_offset 12
                                        @ kill: def $r2 killed $r1
	str	r0, [sp, #8]
	strb.w	r1, [sp, #7]
.Ltmp377:
	.loc	2 1386 11 prologue_end          @ ../ThirdParty/STM32F4xx_HAL_Driver/Src/stm32f4xx_ll_usb.c:1386:11
	ldr	r0, [sp, #8]
	ldr.w	r0, [r0, #1088]
	.loc	2 1386 9 is_stmt 0              @ ../ThirdParty/STM32F4xx_HAL_Driver/Src/stm32f4xx_ll_usb.c:1386:9
	str	r0, [sp]
	.loc	2 1387 9 is_stmt 1              @ ../ThirdParty/STM32F4xx_HAL_Driver/Src/stm32f4xx_ll_usb.c:1387:9
	ldr	r0, [sp]
	bic	r0, r0, #46
	str	r0, [sp]
.Ltmp378:
	.loc	2 1390 9                        @ ../ThirdParty/STM32F4xx_HAL_Driver/Src/stm32f4xx_ll_usb.c:1390:9
	ldr	r0, [sp]
	.loc	2 1390 43 is_stmt 0             @ ../ThirdParty/STM32F4xx_HAL_Driver/Src/stm32f4xx_ll_usb.c:1390:43
	lsls	r0, r0, #19
	cmp	r0, #0
	bmi	.LBB34_3
	b	.LBB34_1
.LBB34_1:
	.loc	2 1390 47                       @ ../ThirdParty/STM32F4xx_HAL_Driver/Src/stm32f4xx_ll_usb.c:1390:47
	ldrb.w	r0, [sp, #7]
.Ltmp379:
	.loc	2 1390 7                        @ ../ThirdParty/STM32F4xx_HAL_Driver/Src/stm32f4xx_ll_usb.c:1390:7
	cmp	r0, #1
	bne	.LBB34_3
	b	.LBB34_2
.LBB34_2:
.Ltmp380:
	.loc	2 1392 39 is_stmt 1             @ ../ThirdParty/STM32F4xx_HAL_Driver/Src/stm32f4xx_ll_usb.c:1392:39
	ldr	r0, [sp]
	.loc	2 1392 37 is_stmt 0             @ ../ThirdParty/STM32F4xx_HAL_Driver/Src/stm32f4xx_ll_usb.c:1392:37
	orr	r0, r0, #4096
	.loc	2 1392 5                        @ ../ThirdParty/STM32F4xx_HAL_Driver/Src/stm32f4xx_ll_usb.c:1392:5
	ldr	r1, [sp, #8]
	.loc	2 1392 16                       @ ../ThirdParty/STM32F4xx_HAL_Driver/Src/stm32f4xx_ll_usb.c:1392:16
	str.w	r0, [r1, #1088]
	.loc	2 1393 3 is_stmt 1              @ ../ThirdParty/STM32F4xx_HAL_Driver/Src/stm32f4xx_ll_usb.c:1393:3
	b	.LBB34_3
.Ltmp381:
.LBB34_3:
	.loc	2 1394 9                        @ ../ThirdParty/STM32F4xx_HAL_Driver/Src/stm32f4xx_ll_usb.c:1394:9
	ldr	r0, [sp]
	.loc	2 1394 58 is_stmt 0             @ ../ThirdParty/STM32F4xx_HAL_Driver/Src/stm32f4xx_ll_usb.c:1394:58
	lsls	r0, r0, #19
	cmp	r0, #0
	bpl	.LBB34_6
	b	.LBB34_4
.LBB34_4:
	.loc	2 1394 62                       @ ../ThirdParty/STM32F4xx_HAL_Driver/Src/stm32f4xx_ll_usb.c:1394:62
	ldrb.w	r0, [sp, #7]
.Ltmp382:
	.loc	2 1394 7                        @ ../ThirdParty/STM32F4xx_HAL_Driver/Src/stm32f4xx_ll_usb.c:1394:7
	cbnz	r0, .LBB34_6
	b	.LBB34_5
.LBB34_5:
.Ltmp383:
	.loc	2 1396 42 is_stmt 1             @ ../ThirdParty/STM32F4xx_HAL_Driver/Src/stm32f4xx_ll_usb.c:1396:42
	ldr	r0, [sp]
	.loc	2 1396 40 is_stmt 0             @ ../ThirdParty/STM32F4xx_HAL_Driver/Src/stm32f4xx_ll_usb.c:1396:40
	bic	r0, r0, #4096
	.loc	2 1396 5                        @ ../ThirdParty/STM32F4xx_HAL_Driver/Src/stm32f4xx_ll_usb.c:1396:5
	ldr	r1, [sp, #8]
	.loc	2 1396 16                       @ ../ThirdParty/STM32F4xx_HAL_Driver/Src/stm32f4xx_ll_usb.c:1396:16
	str.w	r0, [r1, #1088]
	.loc	2 1397 3 is_stmt 1              @ ../ThirdParty/STM32F4xx_HAL_Driver/Src/stm32f4xx_ll_usb.c:1397:3
	b	.LBB34_6
.Ltmp384:
.LBB34_6:
	.loc	2 0 3 is_stmt 0                 @ ../ThirdParty/STM32F4xx_HAL_Driver/Src/stm32f4xx_ll_usb.c:0:3
	movs	r0, #0
	.loc	2 1398 3 epilogue_begin is_stmt 1 @ ../ThirdParty/STM32F4xx_HAL_Driver/Src/stm32f4xx_ll_usb.c:1398:3
	add	sp, #12
	bx	lr
.Ltmp385:
.Lfunc_end34:
	.size	USB_DriveVbus, .Lfunc_end34-USB_DriveVbus
	.cfi_endproc
	.cantunwind
	.fnend
                                        @ -- End function
	.section	.text.USB_InitFSLSPClkSel,"ax",%progbits
	.hidden	USB_InitFSLSPClkSel             @ -- Begin function USB_InitFSLSPClkSel
	.globl	USB_InitFSLSPClkSel
	.p2align	2
	.type	USB_InitFSLSPClkSel,%function
	.code	16                              @ @USB_InitFSLSPClkSel
	.thumb_func
USB_InitFSLSPClkSel:
.Lfunc_begin35:
	.loc	2 1337 0                        @ ../ThirdParty/STM32F4xx_HAL_Driver/Src/stm32f4xx_ll_usb.c:1337:0
	.fnstart
	.cfi_startproc
@ %bb.0:
	.pad	#8
	sub	sp, #8
	.cfi_def_cfa_offset 8
                                        @ kill: def $r2 killed $r1
	str	r0, [sp, #4]
	strb.w	r1, [sp, #3]
.Ltmp386:
	.loc	2 1338 3 prologue_end           @ ../ThirdParty/STM32F4xx_HAL_Driver/Src/stm32f4xx_ll_usb.c:1338:3
	ldr	r1, [sp, #4]
	.loc	2 1338 19 is_stmt 0             @ ../ThirdParty/STM32F4xx_HAL_Driver/Src/stm32f4xx_ll_usb.c:1338:19
	ldr.w	r0, [r1, #1024]
	bic	r0, r0, #3
	str.w	r0, [r1, #1024]
	.loc	2 1339 23 is_stmt 1             @ ../ThirdParty/STM32F4xx_HAL_Driver/Src/stm32f4xx_ll_usb.c:1339:23
	ldrb.w	r0, [sp, #3]
	.loc	2 1339 28 is_stmt 0             @ ../ThirdParty/STM32F4xx_HAL_Driver/Src/stm32f4xx_ll_usb.c:1339:28
	and	r2, r0, #3
	.loc	2 1339 3                        @ ../ThirdParty/STM32F4xx_HAL_Driver/Src/stm32f4xx_ll_usb.c:1339:3
	ldr	r1, [sp, #4]
	.loc	2 1339 19                       @ ../ThirdParty/STM32F4xx_HAL_Driver/Src/stm32f4xx_ll_usb.c:1339:19
	ldr.w	r0, [r1, #1024]
	orrs	r0, r2
	str.w	r0, [r1, #1024]
.Ltmp387:
	.loc	2 1341 7 is_stmt 1              @ ../ThirdParty/STM32F4xx_HAL_Driver/Src/stm32f4xx_ll_usb.c:1341:7
	ldrb.w	r0, [sp, #3]
.Ltmp388:
	.loc	2 1341 7 is_stmt 0              @ ../ThirdParty/STM32F4xx_HAL_Driver/Src/stm32f4xx_ll_usb.c:1341:7
	cmp	r0, #1
	bne	.LBB35_2
	b	.LBB35_1
.LBB35_1:
.Ltmp389:
	.loc	2 1343 5 is_stmt 1              @ ../ThirdParty/STM32F4xx_HAL_Driver/Src/stm32f4xx_ll_usb.c:1343:5
	ldr	r1, [sp, #4]
	movw	r0, #48000
	.loc	2 1343 21 is_stmt 0             @ ../ThirdParty/STM32F4xx_HAL_Driver/Src/stm32f4xx_ll_usb.c:1343:21
	str.w	r0, [r1, #1028]
	.loc	2 1344 3 is_stmt 1              @ ../ThirdParty/STM32F4xx_HAL_Driver/Src/stm32f4xx_ll_usb.c:1344:3
	b	.LBB35_5
.Ltmp390:
.LBB35_2:
	.loc	2 1345 12                       @ ../ThirdParty/STM32F4xx_HAL_Driver/Src/stm32f4xx_ll_usb.c:1345:12
	ldrb.w	r0, [sp, #3]
.Ltmp391:
	.loc	2 1345 12 is_stmt 0             @ ../ThirdParty/STM32F4xx_HAL_Driver/Src/stm32f4xx_ll_usb.c:1345:12
	cmp	r0, #2
	bne	.LBB35_4
	b	.LBB35_3
.LBB35_3:
.Ltmp392:
	.loc	2 1347 5 is_stmt 1              @ ../ThirdParty/STM32F4xx_HAL_Driver/Src/stm32f4xx_ll_usb.c:1347:5
	ldr	r1, [sp, #4]
	movw	r0, #6000
	.loc	2 1347 21 is_stmt 0             @ ../ThirdParty/STM32F4xx_HAL_Driver/Src/stm32f4xx_ll_usb.c:1347:21
	str.w	r0, [r1, #1028]
	.loc	2 1348 3 is_stmt 1              @ ../ThirdParty/STM32F4xx_HAL_Driver/Src/stm32f4xx_ll_usb.c:1348:3
	b	.LBB35_4
.Ltmp393:
.LBB35_4:
	.loc	2 0 3 is_stmt 0                 @ ../ThirdParty/STM32F4xx_HAL_Driver/Src/stm32f4xx_ll_usb.c:0:3
	b	.LBB35_5
.LBB35_5:
	movs	r0, #0
	.loc	2 1349 3 epilogue_begin is_stmt 1 @ ../ThirdParty/STM32F4xx_HAL_Driver/Src/stm32f4xx_ll_usb.c:1349:3
	add	sp, #8
	bx	lr
.Ltmp394:
.Lfunc_end35:
	.size	USB_InitFSLSPClkSel, .Lfunc_end35-USB_InitFSLSPClkSel
	.cfi_endproc
	.cantunwind
	.fnend
                                        @ -- End function
	.section	.text.USB_ResetPort,"ax",%progbits
	.hidden	USB_ResetPort                   @ -- Begin function USB_ResetPort
	.globl	USB_ResetPort
	.p2align	2
	.type	USB_ResetPort,%function
	.code	16                              @ @USB_ResetPort
	.thumb_func
USB_ResetPort:
.Lfunc_begin36:
	.loc	2 1360 0                        @ ../ThirdParty/STM32F4xx_HAL_Driver/Src/stm32f4xx_ll_usb.c:1360:0
	.fnstart
	.cfi_startproc
@ %bb.0:
	.save	{r7, lr}
	push	{r7, lr}
	.cfi_def_cfa_offset 8
	.cfi_offset lr, -4
	.cfi_offset r7, -8
	.pad	#8
	sub	sp, #8
	.cfi_def_cfa_offset 16
	str	r0, [sp, #4]
.Ltmp395:
	.loc	2 1363 11 prologue_end          @ ../ThirdParty/STM32F4xx_HAL_Driver/Src/stm32f4xx_ll_usb.c:1363:11
	ldr	r0, [sp, #4]
	ldr.w	r0, [r0, #1088]
	.loc	2 1363 9 is_stmt 0              @ ../ThirdParty/STM32F4xx_HAL_Driver/Src/stm32f4xx_ll_usb.c:1363:9
	str	r0, [sp]
	.loc	2 1365 9 is_stmt 1              @ ../ThirdParty/STM32F4xx_HAL_Driver/Src/stm32f4xx_ll_usb.c:1365:9
	ldr	r0, [sp]
	bic	r0, r0, #46
	str	r0, [sp]
	.loc	2 1368 37                       @ ../ThirdParty/STM32F4xx_HAL_Driver/Src/stm32f4xx_ll_usb.c:1368:37
	ldr	r0, [sp]
	.loc	2 1368 35 is_stmt 0             @ ../ThirdParty/STM32F4xx_HAL_Driver/Src/stm32f4xx_ll_usb.c:1368:35
	orr	r0, r0, #256
	.loc	2 1368 3                        @ ../ThirdParty/STM32F4xx_HAL_Driver/Src/stm32f4xx_ll_usb.c:1368:3
	ldr	r1, [sp, #4]
	.loc	2 1368 14                       @ ../ThirdParty/STM32F4xx_HAL_Driver/Src/stm32f4xx_ll_usb.c:1368:14
	str.w	r0, [r1, #1088]
	movs	r0, #10
	.loc	2 1369 3 is_stmt 1              @ ../ThirdParty/STM32F4xx_HAL_Driver/Src/stm32f4xx_ll_usb.c:1369:3
	bl	HAL_Delay
	.loc	2 1370 40                       @ ../ThirdParty/STM32F4xx_HAL_Driver/Src/stm32f4xx_ll_usb.c:1370:40
	ldr	r0, [sp]
	.loc	2 1370 38 is_stmt 0             @ ../ThirdParty/STM32F4xx_HAL_Driver/Src/stm32f4xx_ll_usb.c:1370:38
	bic	r0, r0, #256
	.loc	2 1370 3                        @ ../ThirdParty/STM32F4xx_HAL_Driver/Src/stm32f4xx_ll_usb.c:1370:3
	ldr	r1, [sp, #4]
	.loc	2 1370 14                       @ ../ThirdParty/STM32F4xx_HAL_Driver/Src/stm32f4xx_ll_usb.c:1370:14
	str.w	r0, [r1, #1088]
	movs	r0, #0
	.loc	2 1371 3 epilogue_begin is_stmt 1 @ ../ThirdParty/STM32F4xx_HAL_Driver/Src/stm32f4xx_ll_usb.c:1371:3
	add	sp, #8
	pop	{r7, pc}
.Ltmp396:
.Lfunc_end36:
	.size	USB_ResetPort, .Lfunc_end36-USB_ResetPort
	.cfi_endproc
	.cantunwind
	.fnend
                                        @ -- End function
	.section	.text.USB_GetHostSpeed,"ax",%progbits
	.hidden	USB_GetHostSpeed                @ -- Begin function USB_GetHostSpeed
	.globl	USB_GetHostSpeed
	.p2align	2
	.type	USB_GetHostSpeed,%function
	.code	16                              @ @USB_GetHostSpeed
	.thumb_func
USB_GetHostSpeed:
.Lfunc_begin37:
	.loc	2 1411 0                        @ ../ThirdParty/STM32F4xx_HAL_Driver/Src/stm32f4xx_ll_usb.c:1411:0
	.fnstart
	.cfi_startproc
@ %bb.0:
	.pad	#8
	sub	sp, #8
	.cfi_def_cfa_offset 8
	str	r0, [sp, #4]
.Ltmp397:
	.loc	2 1414 11 prologue_end          @ ../ThirdParty/STM32F4xx_HAL_Driver/Src/stm32f4xx_ll_usb.c:1414:11
	ldr	r0, [sp, #4]
	ldr.w	r0, [r0, #1088]
	.loc	2 1414 9 is_stmt 0              @ ../ThirdParty/STM32F4xx_HAL_Driver/Src/stm32f4xx_ll_usb.c:1414:9
	str	r0, [sp]
	.loc	2 1415 12 is_stmt 1             @ ../ThirdParty/STM32F4xx_HAL_Driver/Src/stm32f4xx_ll_usb.c:1415:12
	ldr	r0, [sp]
	.loc	2 1415 39 is_stmt 0             @ ../ThirdParty/STM32F4xx_HAL_Driver/Src/stm32f4xx_ll_usb.c:1415:39
	ubfx	r0, r0, #17, #2
	.loc	2 1415 3 epilogue_begin         @ ../ThirdParty/STM32F4xx_HAL_Driver/Src/stm32f4xx_ll_usb.c:1415:3
	add	sp, #8
	bx	lr
.Ltmp398:
.Lfunc_end37:
	.size	USB_GetHostSpeed, .Lfunc_end37-USB_GetHostSpeed
	.cfi_endproc
	.cantunwind
	.fnend
                                        @ -- End function
	.section	.text.USB_GetCurrentFrame,"ax",%progbits
	.hidden	USB_GetCurrentFrame             @ -- Begin function USB_GetCurrentFrame
	.globl	USB_GetCurrentFrame
	.p2align	2
	.type	USB_GetCurrentFrame,%function
	.code	16                              @ @USB_GetCurrentFrame
	.thumb_func
USB_GetCurrentFrame:
.Lfunc_begin38:
	.loc	2 1424 0 is_stmt 1              @ ../ThirdParty/STM32F4xx_HAL_Driver/Src/stm32f4xx_ll_usb.c:1424:0
	.fnstart
	.cfi_startproc
@ %bb.0:
	.pad	#4
	sub	sp, #4
	.cfi_def_cfa_offset 4
	str	r0, [sp]
.Ltmp399:
	.loc	2 1425 11 prologue_end          @ ../ThirdParty/STM32F4xx_HAL_Driver/Src/stm32f4xx_ll_usb.c:1425:11
	ldr	r0, [sp]
	.loc	2 1425 22 is_stmt 0             @ ../ThirdParty/STM32F4xx_HAL_Driver/Src/stm32f4xx_ll_usb.c:1425:22
	ldr.w	r0, [r0, #1032]
	.loc	2 1425 28                       @ ../ThirdParty/STM32F4xx_HAL_Driver/Src/stm32f4xx_ll_usb.c:1425:28
	uxth	r0, r0
	.loc	2 1425 3 epilogue_begin         @ ../ThirdParty/STM32F4xx_HAL_Driver/Src/stm32f4xx_ll_usb.c:1425:3
	add	sp, #4
	bx	lr
.Ltmp400:
.Lfunc_end38:
	.size	USB_GetCurrentFrame, .Lfunc_end38-USB_GetCurrentFrame
	.cfi_endproc
	.cantunwind
	.fnend
                                        @ -- End function
	.section	.text.USB_HC_Init,"ax",%progbits
	.hidden	USB_HC_Init                     @ -- Begin function USB_HC_Init
	.globl	USB_HC_Init
	.p2align	2
	.type	USB_HC_Init,%function
	.code	16                              @ @USB_HC_Init
	.thumb_func
USB_HC_Init:
.Lfunc_begin39:
	.loc	2 1459 0 is_stmt 1              @ ../ThirdParty/STM32F4xx_HAL_Driver/Src/stm32f4xx_ll_usb.c:1459:0
	.fnstart
	.cfi_startproc
@ %bb.0:
	.save	{r4, r5, r7, lr}
	push	{r4, r5, r7, lr}
	.cfi_def_cfa_offset 16
	.cfi_offset lr, -4
	.cfi_offset r7, -8
	.cfi_offset r5, -12
	.cfi_offset r4, -16
	.pad	#16
	sub	sp, #16
	.cfi_def_cfa_offset 32
	mov	r12, r2
	mov	lr, r1
	mov	r4, r0
	ldr	r0, [sp, #40]
	ldr	r1, [sp, #36]
	ldr	r2, [sp, #32]
                                        @ kill: def $r5 killed $r3
                                        @ kill: def $r5 killed $r12
                                        @ kill: def $r5 killed $lr
	str	r4, [sp, #12]
	strb.w	lr, [sp, #11]
	strb.w	r12, [sp, #10]
	strb.w	r3, [sp, #9]
	strb.w	r2, [sp, #8]
	strb.w	r1, [sp, #7]
	strh.w	r0, [sp, #4]
.Ltmp401:
	.loc	2 1462 3 prologue_end           @ ../ThirdParty/STM32F4xx_HAL_Driver/Src/stm32f4xx_ll_usb.c:1462:3
	ldr	r0, [sp, #12]
	ldrb.w	r1, [sp, #11]
	add.w	r1, r0, r1, lsl #5
	mov.w	r0, #-1
	.loc	2 1462 26 is_stmt 0             @ ../ThirdParty/STM32F4xx_HAL_Driver/Src/stm32f4xx_ll_usb.c:1462:26
	str.w	r0, [r1, #1288]
	.loc	2 1465 11 is_stmt 1             @ ../ThirdParty/STM32F4xx_HAL_Driver/Src/stm32f4xx_ll_usb.c:1465:11
	ldrb.w	r0, [sp, #7]
	.loc	2 1465 3 is_stmt 0              @ ../ThirdParty/STM32F4xx_HAL_Driver/Src/stm32f4xx_ll_usb.c:1465:3
	mov	r1, r0
	str	r1, [sp]                        @ 4-byte Spill
	cmp	r0, #3
	bhi	.LBB39_15
@ %bb.1:
	.loc	2 0 3                           @ ../ThirdParty/STM32F4xx_HAL_Driver/Src/stm32f4xx_ll_usb.c:0:3
	ldr	r1, [sp]                        @ 4-byte Reload
.LCPI39_0:
	tbb	[pc, r1]
@ %bb.2:
.LJTI39_0:
	.byte	(.LBB39_3-(.LCPI39_0+4))/2
	.byte	(.LBB39_12-(.LCPI39_0+4))/2
	.byte	(.LBB39_3-(.LCPI39_0+4))/2
	.byte	(.LBB39_9-(.LCPI39_0+4))/2
	.p2align	1
.LBB39_3:
.Ltmp402:
	.loc	2 1470 5 is_stmt 1              @ ../ThirdParty/STM32F4xx_HAL_Driver/Src/stm32f4xx_ll_usb.c:1470:5
	ldr	r0, [sp, #12]
	ldrb.w	r1, [sp, #11]
	add.w	r1, r0, r1, lsl #5
	movw	r0, #1181
	.loc	2 1470 31 is_stmt 0             @ ../ThirdParty/STM32F4xx_HAL_Driver/Src/stm32f4xx_ll_usb.c:1470:31
	str.w	r0, [r1, #1292]
.Ltmp403:
	.loc	2 1477 9 is_stmt 1              @ ../ThirdParty/STM32F4xx_HAL_Driver/Src/stm32f4xx_ll_usb.c:1477:9
	ldrb.w	r0, [sp, #10]
.Ltmp404:
	.loc	2 1477 9 is_stmt 0              @ ../ThirdParty/STM32F4xx_HAL_Driver/Src/stm32f4xx_ll_usb.c:1477:9
	lsls	r0, r0, #24
	cmp	r0, #0
	bpl	.LBB39_5
	b	.LBB39_4
.LBB39_4:
.Ltmp405:
	.loc	2 1479 7 is_stmt 1              @ ../ThirdParty/STM32F4xx_HAL_Driver/Src/stm32f4xx_ll_usb.c:1479:7
	ldr	r0, [sp, #12]
	ldrb.w	r1, [sp, #11]
	add.w	r1, r0, r1, lsl #5
	.loc	2 1479 33 is_stmt 0             @ ../ThirdParty/STM32F4xx_HAL_Driver/Src/stm32f4xx_ll_usb.c:1479:33
	ldr.w	r0, [r1, #1292]
	orr	r0, r0, #256
	str.w	r0, [r1, #1292]
	.loc	2 1480 5 is_stmt 1              @ ../ThirdParty/STM32F4xx_HAL_Driver/Src/stm32f4xx_ll_usb.c:1480:5
	b	.LBB39_8
.Ltmp406:
.LBB39_5:
	.loc	2 1483 10                       @ ../ThirdParty/STM32F4xx_HAL_Driver/Src/stm32f4xx_ll_usb.c:1483:10
	ldr	r0, [sp, #12]
.Ltmp407:
	.loc	2 1483 10 is_stmt 0             @ ../ThirdParty/STM32F4xx_HAL_Driver/Src/stm32f4xx_ll_usb.c:1483:10
	cmp.w	r0, #1342177280
	beq	.LBB39_7
	b	.LBB39_6
.LBB39_6:
.Ltmp408:
	.loc	2 1485 9 is_stmt 1              @ ../ThirdParty/STM32F4xx_HAL_Driver/Src/stm32f4xx_ll_usb.c:1485:9
	ldr	r0, [sp, #12]
	ldrb.w	r1, [sp, #11]
	add.w	r1, r0, r1, lsl #5
	.loc	2 1485 35 is_stmt 0             @ ../ThirdParty/STM32F4xx_HAL_Driver/Src/stm32f4xx_ll_usb.c:1485:35
	ldr.w	r0, [r1, #1292]
	orr	r0, r0, #96
	str.w	r0, [r1, #1292]
	.loc	2 1486 7 is_stmt 1              @ ../ThirdParty/STM32F4xx_HAL_Driver/Src/stm32f4xx_ll_usb.c:1486:7
	b	.LBB39_7
.Ltmp409:
.LBB39_7:
	.loc	2 0 7 is_stmt 0                 @ ../ThirdParty/STM32F4xx_HAL_Driver/Src/stm32f4xx_ll_usb.c:0:7
	b	.LBB39_8
.LBB39_8:
	.loc	2 1488 5 is_stmt 1              @ ../ThirdParty/STM32F4xx_HAL_Driver/Src/stm32f4xx_ll_usb.c:1488:5
	b	.LBB39_15
.LBB39_9:
	.loc	2 1492 5                        @ ../ThirdParty/STM32F4xx_HAL_Driver/Src/stm32f4xx_ll_usb.c:1492:5
	ldr	r0, [sp, #12]
	ldrb.w	r1, [sp, #11]
	add.w	r1, r0, r1, lsl #5
	movw	r0, #1693
	.loc	2 1492 31 is_stmt 0             @ ../ThirdParty/STM32F4xx_HAL_Driver/Src/stm32f4xx_ll_usb.c:1492:31
	str.w	r0, [r1, #1292]
.Ltmp410:
	.loc	2 1500 9 is_stmt 1              @ ../ThirdParty/STM32F4xx_HAL_Driver/Src/stm32f4xx_ll_usb.c:1500:9
	ldrb.w	r0, [sp, #10]
.Ltmp411:
	.loc	2 1500 9 is_stmt 0              @ ../ThirdParty/STM32F4xx_HAL_Driver/Src/stm32f4xx_ll_usb.c:1500:9
	lsls	r0, r0, #24
	cmp	r0, #0
	bpl	.LBB39_11
	b	.LBB39_10
.LBB39_10:
.Ltmp412:
	.loc	2 1502 7 is_stmt 1              @ ../ThirdParty/STM32F4xx_HAL_Driver/Src/stm32f4xx_ll_usb.c:1502:7
	ldr	r0, [sp, #12]
	ldrb.w	r1, [sp, #11]
	add.w	r1, r0, r1, lsl #5
	.loc	2 1502 33 is_stmt 0             @ ../ThirdParty/STM32F4xx_HAL_Driver/Src/stm32f4xx_ll_usb.c:1502:33
	ldr.w	r0, [r1, #1292]
	orr	r0, r0, #256
	str.w	r0, [r1, #1292]
	.loc	2 1503 5 is_stmt 1              @ ../ThirdParty/STM32F4xx_HAL_Driver/Src/stm32f4xx_ll_usb.c:1503:5
	b	.LBB39_11
.Ltmp413:
.LBB39_11:
	.loc	2 1505 5                        @ ../ThirdParty/STM32F4xx_HAL_Driver/Src/stm32f4xx_ll_usb.c:1505:5
	b	.LBB39_15
.LBB39_12:
	.loc	2 1508 5                        @ ../ThirdParty/STM32F4xx_HAL_Driver/Src/stm32f4xx_ll_usb.c:1508:5
	ldr	r0, [sp, #12]
	ldrb.w	r1, [sp, #11]
	add.w	r1, r0, r1, lsl #5
	movw	r0, #549
	.loc	2 1508 31 is_stmt 0             @ ../ThirdParty/STM32F4xx_HAL_Driver/Src/stm32f4xx_ll_usb.c:1508:31
	str.w	r0, [r1, #1292]
.Ltmp414:
	.loc	2 1513 9 is_stmt 1              @ ../ThirdParty/STM32F4xx_HAL_Driver/Src/stm32f4xx_ll_usb.c:1513:9
	ldrb.w	r0, [sp, #10]
.Ltmp415:
	.loc	2 1513 9 is_stmt 0              @ ../ThirdParty/STM32F4xx_HAL_Driver/Src/stm32f4xx_ll_usb.c:1513:9
	lsls	r0, r0, #24
	cmp	r0, #0
	bpl	.LBB39_14
	b	.LBB39_13
.LBB39_13:
.Ltmp416:
	.loc	2 1515 7 is_stmt 1              @ ../ThirdParty/STM32F4xx_HAL_Driver/Src/stm32f4xx_ll_usb.c:1515:7
	ldr	r0, [sp, #12]
	ldrb.w	r1, [sp, #11]
	add.w	r1, r0, r1, lsl #5
	.loc	2 1515 33 is_stmt 0             @ ../ThirdParty/STM32F4xx_HAL_Driver/Src/stm32f4xx_ll_usb.c:1515:33
	ldr.w	r0, [r1, #1292]
	orr	r0, r0, #384
	str.w	r0, [r1, #1292]
	.loc	2 1516 5 is_stmt 1              @ ../ThirdParty/STM32F4xx_HAL_Driver/Src/stm32f4xx_ll_usb.c:1516:5
	b	.LBB39_14
.Ltmp417:
.LBB39_14:
	.loc	2 1517 5                        @ ../ThirdParty/STM32F4xx_HAL_Driver/Src/stm32f4xx_ll_usb.c:1517:5
	b	.LBB39_15
.Ltmp418:
.LBB39_15:
	.loc	2 1521 32                       @ ../ThirdParty/STM32F4xx_HAL_Driver/Src/stm32f4xx_ll_usb.c:1521:32
	ldrb.w	r1, [sp, #11]
	movs	r0, #1
	.loc	2 1521 29 is_stmt 0             @ ../ThirdParty/STM32F4xx_HAL_Driver/Src/stm32f4xx_ll_usb.c:1521:29
	lsl.w	r2, r0, r1
	.loc	2 1521 3                        @ ../ThirdParty/STM32F4xx_HAL_Driver/Src/stm32f4xx_ll_usb.c:1521:3
	ldr	r1, [sp, #12]
	.loc	2 1521 23                       @ ../ThirdParty/STM32F4xx_HAL_Driver/Src/stm32f4xx_ll_usb.c:1521:23
	ldr.w	r0, [r1, #1048]
	orrs	r0, r2
	str.w	r0, [r1, #1048]
	.loc	2 1524 3 is_stmt 1              @ ../ThirdParty/STM32F4xx_HAL_Driver/Src/stm32f4xx_ll_usb.c:1524:3
	ldr	r1, [sp, #12]
	.loc	2 1524 17 is_stmt 0             @ ../ThirdParty/STM32F4xx_HAL_Driver/Src/stm32f4xx_ll_usb.c:1524:17
	ldr	r0, [r1, #24]
	orr	r0, r0, #33554432
	str	r0, [r1, #24]
	.loc	2 1527 32 is_stmt 1             @ ../ThirdParty/STM32F4xx_HAL_Driver/Src/stm32f4xx_ll_usb.c:1527:32
	ldrb.w	r0, [sp, #9]
	.loc	2 1527 44 is_stmt 0             @ ../ThirdParty/STM32F4xx_HAL_Driver/Src/stm32f4xx_ll_usb.c:1527:44
	lsls	r0, r0, #22
	.loc	2 1528 33 is_stmt 1             @ ../ThirdParty/STM32F4xx_HAL_Driver/Src/stm32f4xx_ll_usb.c:1528:33
	ldrb.w	r1, [sp, #10]
	.loc	2 1527 52                       @ ../ThirdParty/STM32F4xx_HAL_Driver/Src/stm32f4xx_ll_usb.c:1527:52
	orr.w	r0, r0, r1, lsl #11
	movw	r2, #30720
	movt	r2, #8128
	.loc	2 1527 75 is_stmt 0             @ ../ThirdParty/STM32F4xx_HAL_Driver/Src/stm32f4xx_ll_usb.c:1527:75
	ands	r0, r2
	.loc	2 1529 58 is_stmt 1             @ ../ThirdParty/STM32F4xx_HAL_Driver/Src/stm32f4xx_ll_usb.c:1529:58
	and	r1, r1, #128
	.loc	2 1528 78                       @ ../ThirdParty/STM32F4xx_HAL_Driver/Src/stm32f4xx_ll_usb.c:1528:78
	orr.w	r0, r0, r1, lsl #8
	.loc	2 1530 33                       @ ../ThirdParty/STM32F4xx_HAL_Driver/Src/stm32f4xx_ll_usb.c:1530:33
	ldrb.w	r1, [sp, #8]
	.loc	2 1530 39 is_stmt 0             @ ../ThirdParty/STM32F4xx_HAL_Driver/Src/stm32f4xx_ll_usb.c:1530:39
	subs	r1, #2
	clz	r1, r1
	lsrs	r1, r1, #5
	.loc	2 1529 89 is_stmt 1             @ ../ThirdParty/STM32F4xx_HAL_Driver/Src/stm32f4xx_ll_usb.c:1529:89
	orr.w	r0, r0, r1, lsl #17
	.loc	2 1531 32                       @ ../ThirdParty/STM32F4xx_HAL_Driver/Src/stm32f4xx_ll_usb.c:1531:32
	ldrb.w	r1, [sp, #7]
	.loc	2 1531 48 is_stmt 0             @ ../ThirdParty/STM32F4xx_HAL_Driver/Src/stm32f4xx_ll_usb.c:1531:48
	and	r1, r1, #3
	.loc	2 1530 91 is_stmt 1             @ ../ThirdParty/STM32F4xx_HAL_Driver/Src/stm32f4xx_ll_usb.c:1530:91
	orr.w	r0, r0, r1, lsl #18
	.loc	2 1532 31                       @ ../ThirdParty/STM32F4xx_HAL_Driver/Src/stm32f4xx_ll_usb.c:1532:31
	ldrh.w	r1, [sp, #4]
	.loc	2 1532 35 is_stmt 0             @ ../ThirdParty/STM32F4xx_HAL_Driver/Src/stm32f4xx_ll_usb.c:1532:35
	bfc	r1, #11, #21
	.loc	2 1531 71 is_stmt 1             @ ../ThirdParty/STM32F4xx_HAL_Driver/Src/stm32f4xx_ll_usb.c:1531:71
	add	r0, r1
	.loc	2 1527 3                        @ ../ThirdParty/STM32F4xx_HAL_Driver/Src/stm32f4xx_ll_usb.c:1527:3
	ldr	r1, [sp, #12]
	ldrb.w	r2, [sp, #11]
	add.w	r1, r1, r2, lsl #5
	.loc	2 1527 27 is_stmt 0             @ ../ThirdParty/STM32F4xx_HAL_Driver/Src/stm32f4xx_ll_usb.c:1527:27
	str.w	r0, [r1, #1280]
.Ltmp419:
	.loc	2 1534 7 is_stmt 1              @ ../ThirdParty/STM32F4xx_HAL_Driver/Src/stm32f4xx_ll_usb.c:1534:7
	ldrb.w	r0, [sp, #7]
.Ltmp420:
	.loc	2 1534 7 is_stmt 0              @ ../ThirdParty/STM32F4xx_HAL_Driver/Src/stm32f4xx_ll_usb.c:1534:7
	cmp	r0, #3
	bne	.LBB39_17
	b	.LBB39_16
.LBB39_16:
.Ltmp421:
	.loc	2 1536 5 is_stmt 1              @ ../ThirdParty/STM32F4xx_HAL_Driver/Src/stm32f4xx_ll_usb.c:1536:5
	ldr	r0, [sp, #12]
	ldrb.w	r1, [sp, #11]
	add.w	r1, r0, r1, lsl #5
	.loc	2 1536 29 is_stmt 0             @ ../ThirdParty/STM32F4xx_HAL_Driver/Src/stm32f4xx_ll_usb.c:1536:29
	ldr.w	r0, [r1, #1280]
	orr	r0, r0, #536870912
	str.w	r0, [r1, #1280]
	.loc	2 1537 3 is_stmt 1              @ ../ThirdParty/STM32F4xx_HAL_Driver/Src/stm32f4xx_ll_usb.c:1537:3
	b	.LBB39_17
.Ltmp422:
.LBB39_17:
	.loc	2 0 3 is_stmt 0                 @ ../ThirdParty/STM32F4xx_HAL_Driver/Src/stm32f4xx_ll_usb.c:0:3
	movs	r0, #0
	.loc	2 1539 3 epilogue_begin is_stmt 1 @ ../ThirdParty/STM32F4xx_HAL_Driver/Src/stm32f4xx_ll_usb.c:1539:3
	add	sp, #16
	pop	{r4, r5, r7, pc}
.Ltmp423:
.Lfunc_end39:
	.size	USB_HC_Init, .Lfunc_end39-USB_HC_Init
	.cfi_endproc
	.cantunwind
	.fnend
                                        @ -- End function
	.section	.text.USB_HC_StartXfer,"ax",%progbits
	.hidden	USB_HC_StartXfer                @ -- Begin function USB_HC_StartXfer
	.globl	USB_HC_StartXfer
	.p2align	2
	.type	USB_HC_StartXfer,%function
	.code	16                              @ @USB_HC_StartXfer
	.thumb_func
USB_HC_StartXfer:
.Lfunc_begin40:
	.loc	2 1558 0                        @ ../ThirdParty/STM32F4xx_HAL_Driver/Src/stm32f4xx_ll_usb.c:1558:0
	.fnstart
	.cfi_startproc
@ %bb.0:
	.save	{r7, lr}
	push	{r7, lr}
	.cfi_def_cfa_offset 8
	.cfi_offset lr, -4
	.cfi_offset r7, -8
	.pad	#32
	sub	sp, #32
	.cfi_def_cfa_offset 40
                                        @ kill: def $r3 killed $r2
	str	r0, [sp, #24]
	str	r1, [sp, #20]
	strb.w	r2, [sp, #19]
	movs	r0, #0
.Ltmp424:
	.loc	2 1559 12 prologue_end          @ ../ThirdParty/STM32F4xx_HAL_Driver/Src/stm32f4xx_ll_usb.c:1559:12
	strb.w	r0, [sp, #18]
	.loc	2 1560 12                       @ ../ThirdParty/STM32F4xx_HAL_Driver/Src/stm32f4xx_ll_usb.c:1560:12
	strh.w	r0, [sp, #16]
	.loc	2 1561 12                       @ ../ThirdParty/STM32F4xx_HAL_Driver/Src/stm32f4xx_ll_usb.c:1561:12
	strh.w	r0, [sp, #14]
	mov.w	r1, #256
	.loc	2 1562 12                       @ ../ThirdParty/STM32F4xx_HAL_Driver/Src/stm32f4xx_ll_usb.c:1562:12
	strh.w	r1, [sp, #12]
	.loc	2 1563 12                       @ ../ThirdParty/STM32F4xx_HAL_Driver/Src/stm32f4xx_ll_usb.c:1563:12
	str	r0, [sp, #8]
.Ltmp425:
	.loc	2 1565 7                        @ ../ThirdParty/STM32F4xx_HAL_Driver/Src/stm32f4xx_ll_usb.c:1565:7
	ldr	r0, [sp, #24]
	.loc	2 1565 27 is_stmt 0             @ ../ThirdParty/STM32F4xx_HAL_Driver/Src/stm32f4xx_ll_usb.c:1565:27
	cmp.w	r0, #1342177280
	beq	.LBB40_9
	b	.LBB40_1
.LBB40_1:
	.loc	2 1565 31                       @ ../ThirdParty/STM32F4xx_HAL_Driver/Src/stm32f4xx_ll_usb.c:1565:31
	ldr	r0, [sp, #20]
	.loc	2 1565 35                       @ ../ThirdParty/STM32F4xx_HAL_Driver/Src/stm32f4xx_ll_usb.c:1565:35
	ldrb	r0, [r0, #4]
.Ltmp426:
	.loc	2 1565 6                        @ ../ThirdParty/STM32F4xx_HAL_Driver/Src/stm32f4xx_ll_usb.c:1565:6
	cbnz	r0, .LBB40_9
	b	.LBB40_2
.LBB40_2:
.Ltmp427:
	.loc	2 1567 9 is_stmt 1              @ ../ThirdParty/STM32F4xx_HAL_Driver/Src/stm32f4xx_ll_usb.c:1567:9
	ldrb.w	r0, [sp, #19]
	.loc	2 1567 19 is_stmt 0             @ ../ThirdParty/STM32F4xx_HAL_Driver/Src/stm32f4xx_ll_usb.c:1567:19
	cbnz	r0, .LBB40_5
	b	.LBB40_3
.LBB40_3:
	.loc	2 1567 23                       @ ../ThirdParty/STM32F4xx_HAL_Driver/Src/stm32f4xx_ll_usb.c:1567:23
	ldr	r0, [sp, #20]
	.loc	2 1567 27                       @ ../ThirdParty/STM32F4xx_HAL_Driver/Src/stm32f4xx_ll_usb.c:1567:27
	ldrb	r0, [r0, #5]
.Ltmp428:
	.loc	2 1567 8                        @ ../ThirdParty/STM32F4xx_HAL_Driver/Src/stm32f4xx_ll_usb.c:1567:8
	cmp	r0, #1
	bne	.LBB40_5
	b	.LBB40_4
.LBB40_4:
.Ltmp429:
	.loc	2 1569 18 is_stmt 1             @ ../ThirdParty/STM32F4xx_HAL_Driver/Src/stm32f4xx_ll_usb.c:1569:18
	ldr	r0, [sp, #24]
	.loc	2 1569 24 is_stmt 0             @ ../ThirdParty/STM32F4xx_HAL_Driver/Src/stm32f4xx_ll_usb.c:1569:24
	ldr	r1, [sp, #20]
	.loc	2 1569 28                       @ ../ThirdParty/STM32F4xx_HAL_Driver/Src/stm32f4xx_ll_usb.c:1569:28
	ldrb	r1, [r1, #1]
	.loc	2 1569 7                        @ ../ThirdParty/STM32F4xx_HAL_Driver/Src/stm32f4xx_ll_usb.c:1569:7
	bl	USB_DoPing
	movs	r0, #0
	.loc	2 1570 7 is_stmt 1              @ ../ThirdParty/STM32F4xx_HAL_Driver/Src/stm32f4xx_ll_usb.c:1570:7
	strb.w	r0, [sp, #31]
	b	.LBB40_34
.Ltmp430:
.LBB40_5:
	.loc	2 1572 13                       @ ../ThirdParty/STM32F4xx_HAL_Driver/Src/stm32f4xx_ll_usb.c:1572:13
	ldrb.w	r0, [sp, #19]
.Ltmp431:
	.loc	2 1572 13 is_stmt 0             @ ../ThirdParty/STM32F4xx_HAL_Driver/Src/stm32f4xx_ll_usb.c:1572:13
	cmp	r0, #1
	bne	.LBB40_7
	b	.LBB40_6
.LBB40_6:
.Ltmp432:
	.loc	2 1574 7 is_stmt 1              @ ../ThirdParty/STM32F4xx_HAL_Driver/Src/stm32f4xx_ll_usb.c:1574:7
	ldr	r0, [sp, #24]
	ldr	r1, [sp, #20]
	ldrb	r1, [r1, #1]
	add.w	r1, r0, r1, lsl #5
	.loc	2 1574 37 is_stmt 0             @ ../ThirdParty/STM32F4xx_HAL_Driver/Src/stm32f4xx_ll_usb.c:1574:37
	ldr.w	r0, [r1, #1292]
	bic	r0, r0, #96
	str.w	r0, [r1, #1292]
	.loc	2 1575 7 is_stmt 1              @ ../ThirdParty/STM32F4xx_HAL_Driver/Src/stm32f4xx_ll_usb.c:1575:7
	ldr	r1, [sp, #20]
	movs	r0, #0
	.loc	2 1575 19 is_stmt 0             @ ../ThirdParty/STM32F4xx_HAL_Driver/Src/stm32f4xx_ll_usb.c:1575:19
	strb	r0, [r1, #5]
	.loc	2 1576 5 is_stmt 1              @ ../ThirdParty/STM32F4xx_HAL_Driver/Src/stm32f4xx_ll_usb.c:1576:5
	b	.LBB40_7
.Ltmp433:
.LBB40_7:
	.loc	2 0 5 is_stmt 0                 @ ../ThirdParty/STM32F4xx_HAL_Driver/Src/stm32f4xx_ll_usb.c:0:5
	b	.LBB40_8
.LBB40_8:
	.loc	2 1577 3 is_stmt 1              @ ../ThirdParty/STM32F4xx_HAL_Driver/Src/stm32f4xx_ll_usb.c:1577:3
	b	.LBB40_9
.Ltmp434:
.LBB40_9:
	.loc	2 1580 7                        @ ../ThirdParty/STM32F4xx_HAL_Driver/Src/stm32f4xx_ll_usb.c:1580:7
	ldr	r0, [sp, #20]
	.loc	2 1580 11 is_stmt 0             @ ../ThirdParty/STM32F4xx_HAL_Driver/Src/stm32f4xx_ll_usb.c:1580:11
	ldr	r0, [r0, #16]
.Ltmp435:
	.loc	2 1580 7                        @ ../ThirdParty/STM32F4xx_HAL_Driver/Src/stm32f4xx_ll_usb.c:1580:7
	cbz	r0, .LBB40_13
	b	.LBB40_10
.LBB40_10:
.Ltmp436:
	.loc	2 1582 20 is_stmt 1             @ ../ThirdParty/STM32F4xx_HAL_Driver/Src/stm32f4xx_ll_usb.c:1582:20
	ldr	r1, [sp, #20]
	.loc	2 1582 24 is_stmt 0             @ ../ThirdParty/STM32F4xx_HAL_Driver/Src/stm32f4xx_ll_usb.c:1582:24
	ldr	r0, [r1, #16]
	.loc	2 1582 39                       @ ../ThirdParty/STM32F4xx_HAL_Driver/Src/stm32f4xx_ll_usb.c:1582:39
	ldrh	r1, [r1, #8]
	.loc	2 1582 33                       @ ../ThirdParty/STM32F4xx_HAL_Driver/Src/stm32f4xx_ll_usb.c:1582:33
	add	r0, r1
	.loc	2 1582 50                       @ ../ThirdParty/STM32F4xx_HAL_Driver/Src/stm32f4xx_ll_usb.c:1582:50
	subs	r0, #1
	.loc	2 1582 56                       @ ../ThirdParty/STM32F4xx_HAL_Driver/Src/stm32f4xx_ll_usb.c:1582:56
	udiv	r0, r0, r1
	.loc	2 1582 17                       @ ../ThirdParty/STM32F4xx_HAL_Driver/Src/stm32f4xx_ll_usb.c:1582:17
	strh.w	r0, [sp, #14]
.Ltmp437:
	.loc	2 1584 9 is_stmt 1              @ ../ThirdParty/STM32F4xx_HAL_Driver/Src/stm32f4xx_ll_usb.c:1584:9
	ldrh.w	r0, [sp, #14]
	.loc	2 1584 23 is_stmt 0             @ ../ThirdParty/STM32F4xx_HAL_Driver/Src/stm32f4xx_ll_usb.c:1584:23
	ldrh.w	r1, [sp, #12]
.Ltmp438:
	.loc	2 1584 9                        @ ../ThirdParty/STM32F4xx_HAL_Driver/Src/stm32f4xx_ll_usb.c:1584:9
	cmp	r0, r1
	ble	.LBB40_12
	b	.LBB40_11
.LBB40_11:
.Ltmp439:
	.loc	2 1586 21 is_stmt 1             @ ../ThirdParty/STM32F4xx_HAL_Driver/Src/stm32f4xx_ll_usb.c:1586:21
	ldrh.w	r0, [sp, #12]
	.loc	2 1586 19 is_stmt 0             @ ../ThirdParty/STM32F4xx_HAL_Driver/Src/stm32f4xx_ll_usb.c:1586:19
	strh.w	r0, [sp, #14]
	.loc	2 1587 22 is_stmt 1             @ ../ThirdParty/STM32F4xx_HAL_Driver/Src/stm32f4xx_ll_usb.c:1587:22
	ldrh.w	r0, [sp, #14]
	.loc	2 1587 36 is_stmt 0             @ ../ThirdParty/STM32F4xx_HAL_Driver/Src/stm32f4xx_ll_usb.c:1587:36
	ldr	r1, [sp, #20]
	.loc	2 1587 40                       @ ../ThirdParty/STM32F4xx_HAL_Driver/Src/stm32f4xx_ll_usb.c:1587:40
	ldrh	r2, [r1, #8]
	.loc	2 1587 34                       @ ../ThirdParty/STM32F4xx_HAL_Driver/Src/stm32f4xx_ll_usb.c:1587:34
	muls	r0, r2, r0
	.loc	2 1587 20                       @ ../ThirdParty/STM32F4xx_HAL_Driver/Src/stm32f4xx_ll_usb.c:1587:20
	str	r0, [r1, #16]
	.loc	2 1588 5 is_stmt 1              @ ../ThirdParty/STM32F4xx_HAL_Driver/Src/stm32f4xx_ll_usb.c:1588:5
	b	.LBB40_12
.Ltmp440:
.LBB40_12:
	.loc	2 1589 3                        @ ../ThirdParty/STM32F4xx_HAL_Driver/Src/stm32f4xx_ll_usb.c:1589:3
	b	.LBB40_14
.Ltmp441:
.LBB40_13:
	.loc	2 0 3 is_stmt 0                 @ ../ThirdParty/STM32F4xx_HAL_Driver/Src/stm32f4xx_ll_usb.c:0:3
	movs	r0, #1
.Ltmp442:
	.loc	2 1592 17 is_stmt 1             @ ../ThirdParty/STM32F4xx_HAL_Driver/Src/stm32f4xx_ll_usb.c:1592:17
	strh.w	r0, [sp, #14]
	b	.LBB40_14
.Ltmp443:
.LBB40_14:
	.loc	2 1594 7                        @ ../ThirdParty/STM32F4xx_HAL_Driver/Src/stm32f4xx_ll_usb.c:1594:7
	ldr	r0, [sp, #20]
	.loc	2 1594 11 is_stmt 0             @ ../ThirdParty/STM32F4xx_HAL_Driver/Src/stm32f4xx_ll_usb.c:1594:11
	ldrb	r0, [r0, #3]
.Ltmp444:
	.loc	2 1594 7                        @ ../ThirdParty/STM32F4xx_HAL_Driver/Src/stm32f4xx_ll_usb.c:1594:7
	cbz	r0, .LBB40_16
	b	.LBB40_15
.LBB40_15:
.Ltmp445:
	.loc	2 1596 20 is_stmt 1             @ ../ThirdParty/STM32F4xx_HAL_Driver/Src/stm32f4xx_ll_usb.c:1596:20
	ldrh.w	r0, [sp, #14]
	.loc	2 1596 34 is_stmt 0             @ ../ThirdParty/STM32F4xx_HAL_Driver/Src/stm32f4xx_ll_usb.c:1596:34
	ldr	r1, [sp, #20]
	.loc	2 1596 38                       @ ../ThirdParty/STM32F4xx_HAL_Driver/Src/stm32f4xx_ll_usb.c:1596:38
	ldrh	r2, [r1, #8]
	.loc	2 1596 32                       @ ../ThirdParty/STM32F4xx_HAL_Driver/Src/stm32f4xx_ll_usb.c:1596:32
	muls	r0, r2, r0
	.loc	2 1596 18                       @ ../ThirdParty/STM32F4xx_HAL_Driver/Src/stm32f4xx_ll_usb.c:1596:18
	str	r0, [r1, #16]
	.loc	2 1597 3 is_stmt 1              @ ../ThirdParty/STM32F4xx_HAL_Driver/Src/stm32f4xx_ll_usb.c:1597:3
	b	.LBB40_16
.Ltmp446:
.LBB40_16:
	.loc	2 1600 36                       @ ../ThirdParty/STM32F4xx_HAL_Driver/Src/stm32f4xx_ll_usb.c:1600:36
	ldr	r1, [sp, #20]
	.loc	2 1600 40 is_stmt 0             @ ../ThirdParty/STM32F4xx_HAL_Driver/Src/stm32f4xx_ll_usb.c:1600:40
	ldr	r0, [r1, #16]
	.loc	2 1600 50                       @ ../ThirdParty/STM32F4xx_HAL_Driver/Src/stm32f4xx_ll_usb.c:1600:50
	bfc	r0, #19, #13
	.loc	2 1601 7 is_stmt 1              @ ../ThirdParty/STM32F4xx_HAL_Driver/Src/stm32f4xx_ll_usb.c:1601:7
	ldrh.w	r3, [sp, #14]
	movs	r2, #0
	movt	r2, #8184
	.loc	2 1601 27 is_stmt 0             @ ../ThirdParty/STM32F4xx_HAL_Driver/Src/stm32f4xx_ll_usb.c:1601:27
	and.w	r2, r2, r3, lsl #19
	.loc	2 1600 76 is_stmt 1             @ ../ThirdParty/STM32F4xx_HAL_Driver/Src/stm32f4xx_ll_usb.c:1600:76
	add	r0, r2
	.loc	2 1600 3 is_stmt 0              @ ../ThirdParty/STM32F4xx_HAL_Driver/Src/stm32f4xx_ll_usb.c:1600:3
	ldrb	r2, [r1, #1]
	.loc	2 1602 9 is_stmt 1              @ ../ThirdParty/STM32F4xx_HAL_Driver/Src/stm32f4xx_ll_usb.c:1602:9
	ldrb	r1, [r1, #10]
	.loc	2 1602 32 is_stmt 0             @ ../ThirdParty/STM32F4xx_HAL_Driver/Src/stm32f4xx_ll_usb.c:1602:32
	and	r1, r1, #3
	.loc	2 1601 52 is_stmt 1             @ ../ThirdParty/STM32F4xx_HAL_Driver/Src/stm32f4xx_ll_usb.c:1601:52
	orr.w	r0, r0, r1, lsl #29
	.loc	2 1600 3                        @ ../ThirdParty/STM32F4xx_HAL_Driver/Src/stm32f4xx_ll_usb.c:1600:3
	ldr	r1, [sp, #24]
	add.w	r1, r1, r2, lsl #5
	.loc	2 1600 31 is_stmt 0             @ ../ThirdParty/STM32F4xx_HAL_Driver/Src/stm32f4xx_ll_usb.c:1600:31
	str.w	r0, [r1, #1296]
.Ltmp447:
	.loc	2 1604 7 is_stmt 1              @ ../ThirdParty/STM32F4xx_HAL_Driver/Src/stm32f4xx_ll_usb.c:1604:7
	ldrb.w	r0, [sp, #19]
.Ltmp448:
	.loc	2 1604 7 is_stmt 0              @ ../ThirdParty/STM32F4xx_HAL_Driver/Src/stm32f4xx_ll_usb.c:1604:7
	cbz	r0, .LBB40_18
	b	.LBB40_17
.LBB40_17:
.Ltmp449:
	.loc	2 1607 44 is_stmt 1             @ ../ThirdParty/STM32F4xx_HAL_Driver/Src/stm32f4xx_ll_usb.c:1607:44
	ldr	r2, [sp, #20]
	.loc	2 1607 48 is_stmt 0             @ ../ThirdParty/STM32F4xx_HAL_Driver/Src/stm32f4xx_ll_usb.c:1607:48
	ldr	r0, [r2, #12]
	.loc	2 1607 5                        @ ../ThirdParty/STM32F4xx_HAL_Driver/Src/stm32f4xx_ll_usb.c:1607:5
	ldr	r1, [sp, #24]
	ldrb	r2, [r2, #1]
	add.w	r1, r1, r2, lsl #5
	.loc	2 1607 32                       @ ../ThirdParty/STM32F4xx_HAL_Driver/Src/stm32f4xx_ll_usb.c:1607:32
	str.w	r0, [r1, #1300]
	.loc	2 1608 3 is_stmt 1              @ ../ThirdParty/STM32F4xx_HAL_Driver/Src/stm32f4xx_ll_usb.c:1608:3
	b	.LBB40_18
.Ltmp450:
.LBB40_18:
	.loc	2 1610 18                       @ ../ThirdParty/STM32F4xx_HAL_Driver/Src/stm32f4xx_ll_usb.c:1610:18
	ldr	r0, [sp, #24]
	.loc	2 1610 29 is_stmt 0             @ ../ThirdParty/STM32F4xx_HAL_Driver/Src/stm32f4xx_ll_usb.c:1610:29
	ldr.w	r1, [r0, #1032]
	movs	r0, #1
	.loc	2 1610 17                       @ ../ThirdParty/STM32F4xx_HAL_Driver/Src/stm32f4xx_ll_usb.c:1610:17
	bics	r0, r1
	.loc	2 1610 15                       @ ../ThirdParty/STM32F4xx_HAL_Driver/Src/stm32f4xx_ll_usb.c:1610:15
	strb.w	r0, [sp, #18]
	.loc	2 1611 3 is_stmt 1              @ ../ThirdParty/STM32F4xx_HAL_Driver/Src/stm32f4xx_ll_usb.c:1611:3
	ldr	r0, [sp, #24]
	ldr	r1, [sp, #20]
	ldrb	r1, [r1, #1]
	add.w	r1, r0, r1, lsl #5
	.loc	2 1611 31 is_stmt 0             @ ../ThirdParty/STM32F4xx_HAL_Driver/Src/stm32f4xx_ll_usb.c:1611:31
	ldr.w	r0, [r1, #1280]
	bic	r0, r0, #536870912
	str.w	r0, [r1, #1280]
	.loc	2 1612 35 is_stmt 1             @ ../ThirdParty/STM32F4xx_HAL_Driver/Src/stm32f4xx_ll_usb.c:1612:35
	ldrb.w	r2, [sp, #18]
	.loc	2 1612 3 is_stmt 0              @ ../ThirdParty/STM32F4xx_HAL_Driver/Src/stm32f4xx_ll_usb.c:1612:3
	ldr	r0, [sp, #24]
	ldr	r1, [sp, #20]
	ldrb	r1, [r1, #1]
	add.w	r1, r0, r1, lsl #5
	.loc	2 1612 31                       @ ../ThirdParty/STM32F4xx_HAL_Driver/Src/stm32f4xx_ll_usb.c:1612:31
	ldr.w	r0, [r1, #1280]
	orr.w	r0, r0, r2, lsl #29
	str.w	r0, [r1, #1280]
	.loc	2 1615 12 is_stmt 1             @ ../ThirdParty/STM32F4xx_HAL_Driver/Src/stm32f4xx_ll_usb.c:1615:12
	ldr	r0, [sp, #24]
	ldr	r1, [sp, #20]
	ldrb	r1, [r1, #1]
	add.w	r0, r0, r1, lsl #5
	.loc	2 1615 33 is_stmt 0             @ ../ThirdParty/STM32F4xx_HAL_Driver/Src/stm32f4xx_ll_usb.c:1615:33
	ldr.w	r0, [r0, #1280]
	.loc	2 1615 10                       @ ../ThirdParty/STM32F4xx_HAL_Driver/Src/stm32f4xx_ll_usb.c:1615:10
	str	r0, [sp, #8]
	.loc	2 1616 10 is_stmt 1             @ ../ThirdParty/STM32F4xx_HAL_Driver/Src/stm32f4xx_ll_usb.c:1616:10
	ldr	r0, [sp, #8]
	bic	r0, r0, #1073741824
	str	r0, [sp, #8]
	.loc	2 1617 10                       @ ../ThirdParty/STM32F4xx_HAL_Driver/Src/stm32f4xx_ll_usb.c:1617:10
	ldr	r0, [sp, #8]
	orr	r0, r0, #-2147483648
	str	r0, [sp, #8]
	.loc	2 1618 33                       @ ../ThirdParty/STM32F4xx_HAL_Driver/Src/stm32f4xx_ll_usb.c:1618:33
	ldr	r0, [sp, #8]
	.loc	2 1618 3 is_stmt 0              @ ../ThirdParty/STM32F4xx_HAL_Driver/Src/stm32f4xx_ll_usb.c:1618:3
	ldr	r1, [sp, #24]
	ldr	r2, [sp, #20]
	ldrb	r2, [r2, #1]
	add.w	r1, r1, r2, lsl #5
	.loc	2 1618 31                       @ ../ThirdParty/STM32F4xx_HAL_Driver/Src/stm32f4xx_ll_usb.c:1618:31
	str.w	r0, [r1, #1280]
.Ltmp451:
	.loc	2 1620 7 is_stmt 1              @ ../ThirdParty/STM32F4xx_HAL_Driver/Src/stm32f4xx_ll_usb.c:1620:7
	ldrb.w	r0, [sp, #19]
.Ltmp452:
	.loc	2 1620 7 is_stmt 0              @ ../ThirdParty/STM32F4xx_HAL_Driver/Src/stm32f4xx_ll_usb.c:1620:7
	cmp	r0, #0
	bne	.LBB40_33
	b	.LBB40_19
.LBB40_19:
.Ltmp453:
	.loc	2 1622 9 is_stmt 1              @ ../ThirdParty/STM32F4xx_HAL_Driver/Src/stm32f4xx_ll_usb.c:1622:9
	ldr	r0, [sp, #20]
	.loc	2 1622 13 is_stmt 0             @ ../ThirdParty/STM32F4xx_HAL_Driver/Src/stm32f4xx_ll_usb.c:1622:13
	ldrb	r0, [r0, #3]
	.loc	2 1622 29                       @ ../ThirdParty/STM32F4xx_HAL_Driver/Src/stm32f4xx_ll_usb.c:1622:29
	cmp	r0, #0
	bne	.LBB40_32
	b	.LBB40_20
.LBB40_20:
	.loc	2 1622 33                       @ ../ThirdParty/STM32F4xx_HAL_Driver/Src/stm32f4xx_ll_usb.c:1622:33
	ldr	r0, [sp, #20]
	.loc	2 1622 37                       @ ../ThirdParty/STM32F4xx_HAL_Driver/Src/stm32f4xx_ll_usb.c:1622:37
	ldr	r0, [r0, #16]
.Ltmp454:
	.loc	2 1622 8                        @ ../ThirdParty/STM32F4xx_HAL_Driver/Src/stm32f4xx_ll_usb.c:1622:8
	cmp	r0, #0
	beq	.LBB40_32
	b	.LBB40_21
.LBB40_21:
.Ltmp455:
	.loc	2 1624 14 is_stmt 1             @ ../ThirdParty/STM32F4xx_HAL_Driver/Src/stm32f4xx_ll_usb.c:1624:14
	ldr	r0, [sp, #20]
	.loc	2 1624 18 is_stmt 0             @ ../ThirdParty/STM32F4xx_HAL_Driver/Src/stm32f4xx_ll_usb.c:1624:18
	ldrb	r0, [r0, #7]
	.loc	2 1624 7                        @ ../ThirdParty/STM32F4xx_HAL_Driver/Src/stm32f4xx_ll_usb.c:1624:7
	mov	r1, r0
	str	r1, [sp, #4]                    @ 4-byte Spill
	cmp	r0, #3
	bhi	.LBB40_30
@ %bb.22:
	.loc	2 0 7                           @ ../ThirdParty/STM32F4xx_HAL_Driver/Src/stm32f4xx_ll_usb.c:0:7
	ldr	r1, [sp, #4]                    @ 4-byte Reload
.LCPI40_0:
	tbb	[pc, r1]
@ %bb.23:
.LJTI40_0:
	.byte	(.LBB40_24-(.LCPI40_0+4))/2
	.byte	(.LBB40_27-(.LCPI40_0+4))/2
	.byte	(.LBB40_24-(.LCPI40_0+4))/2
	.byte	(.LBB40_27-(.LCPI40_0+4))/2
	.p2align	1
.LBB40_24:
.Ltmp456:
	.loc	2 1630 22 is_stmt 1             @ ../ThirdParty/STM32F4xx_HAL_Driver/Src/stm32f4xx_ll_usb.c:1630:22
	ldr	r0, [sp, #20]
	.loc	2 1630 26 is_stmt 0             @ ../ThirdParty/STM32F4xx_HAL_Driver/Src/stm32f4xx_ll_usb.c:1630:26
	ldr	r0, [r0, #16]
	.loc	2 1630 35                       @ ../ThirdParty/STM32F4xx_HAL_Driver/Src/stm32f4xx_ll_usb.c:1630:35
	adds	r0, #3
	.loc	2 1630 40                       @ ../ThirdParty/STM32F4xx_HAL_Driver/Src/stm32f4xx_ll_usb.c:1630:40
	lsrs	r0, r0, #2
	.loc	2 1630 19                       @ ../ThirdParty/STM32F4xx_HAL_Driver/Src/stm32f4xx_ll_usb.c:1630:19
	strh.w	r0, [sp, #16]
.Ltmp457:
	.loc	2 1633 12 is_stmt 1             @ ../ThirdParty/STM32F4xx_HAL_Driver/Src/stm32f4xx_ll_usb.c:1633:12
	ldrh.w	r0, [sp, #16]
	.loc	2 1633 25 is_stmt 0             @ ../ThirdParty/STM32F4xx_HAL_Driver/Src/stm32f4xx_ll_usb.c:1633:25
	ldr	r1, [sp, #24]
	.loc	2 1633 31                       @ ../ThirdParty/STM32F4xx_HAL_Driver/Src/stm32f4xx_ll_usb.c:1633:31
	ldr	r1, [r1, #44]
	.loc	2 1633 40                       @ ../ThirdParty/STM32F4xx_HAL_Driver/Src/stm32f4xx_ll_usb.c:1633:40
	uxth	r1, r1
.Ltmp458:
	.loc	2 1633 12                       @ ../ThirdParty/STM32F4xx_HAL_Driver/Src/stm32f4xx_ll_usb.c:1633:12
	cmp	r0, r1
	bls	.LBB40_26
	b	.LBB40_25
.LBB40_25:
.Ltmp459:
	.loc	2 1636 11 is_stmt 1             @ ../ThirdParty/STM32F4xx_HAL_Driver/Src/stm32f4xx_ll_usb.c:1636:11
	ldr	r1, [sp, #24]
	.loc	2 1636 25 is_stmt 0             @ ../ThirdParty/STM32F4xx_HAL_Driver/Src/stm32f4xx_ll_usb.c:1636:25
	ldr	r0, [r1, #24]
	orr	r0, r0, #32
	str	r0, [r1, #24]
	.loc	2 1637 9 is_stmt 1              @ ../ThirdParty/STM32F4xx_HAL_Driver/Src/stm32f4xx_ll_usb.c:1637:9
	b	.LBB40_26
.Ltmp460:
.LBB40_26:
	.loc	2 1638 9                        @ ../ThirdParty/STM32F4xx_HAL_Driver/Src/stm32f4xx_ll_usb.c:1638:9
	b	.LBB40_31
.LBB40_27:
	.loc	2 1642 22                       @ ../ThirdParty/STM32F4xx_HAL_Driver/Src/stm32f4xx_ll_usb.c:1642:22
	ldr	r0, [sp, #20]
	.loc	2 1642 26 is_stmt 0             @ ../ThirdParty/STM32F4xx_HAL_Driver/Src/stm32f4xx_ll_usb.c:1642:26
	ldr	r0, [r0, #16]
	.loc	2 1642 35                       @ ../ThirdParty/STM32F4xx_HAL_Driver/Src/stm32f4xx_ll_usb.c:1642:35
	adds	r0, #3
	.loc	2 1642 40                       @ ../ThirdParty/STM32F4xx_HAL_Driver/Src/stm32f4xx_ll_usb.c:1642:40
	lsrs	r0, r0, #2
	.loc	2 1642 19                       @ ../ThirdParty/STM32F4xx_HAL_Driver/Src/stm32f4xx_ll_usb.c:1642:19
	strh.w	r0, [sp, #16]
.Ltmp461:
	.loc	2 1644 12 is_stmt 1             @ ../ThirdParty/STM32F4xx_HAL_Driver/Src/stm32f4xx_ll_usb.c:1644:12
	ldrh.w	r0, [sp, #16]
	.loc	2 1644 25 is_stmt 0             @ ../ThirdParty/STM32F4xx_HAL_Driver/Src/stm32f4xx_ll_usb.c:1644:25
	ldr	r1, [sp, #24]
	.loc	2 1644 36                       @ ../ThirdParty/STM32F4xx_HAL_Driver/Src/stm32f4xx_ll_usb.c:1644:36
	ldr.w	r1, [r1, #1040]
	.loc	2 1644 44                       @ ../ThirdParty/STM32F4xx_HAL_Driver/Src/stm32f4xx_ll_usb.c:1644:44
	uxth	r1, r1
.Ltmp462:
	.loc	2 1644 12                       @ ../ThirdParty/STM32F4xx_HAL_Driver/Src/stm32f4xx_ll_usb.c:1644:12
	cmp	r0, r1
	bls	.LBB40_29
	b	.LBB40_28
.LBB40_28:
.Ltmp463:
	.loc	2 1647 11 is_stmt 1             @ ../ThirdParty/STM32F4xx_HAL_Driver/Src/stm32f4xx_ll_usb.c:1647:11
	ldr	r1, [sp, #24]
	.loc	2 1647 25 is_stmt 0             @ ../ThirdParty/STM32F4xx_HAL_Driver/Src/stm32f4xx_ll_usb.c:1647:25
	ldr	r0, [r1, #24]
	orr	r0, r0, #67108864
	str	r0, [r1, #24]
	.loc	2 1648 9 is_stmt 1              @ ../ThirdParty/STM32F4xx_HAL_Driver/Src/stm32f4xx_ll_usb.c:1648:9
	b	.LBB40_29
.Ltmp464:
.LBB40_29:
	.loc	2 1649 9                        @ ../ThirdParty/STM32F4xx_HAL_Driver/Src/stm32f4xx_ll_usb.c:1649:9
	b	.LBB40_31
.LBB40_30:
	.loc	2 1652 9                        @ ../ThirdParty/STM32F4xx_HAL_Driver/Src/stm32f4xx_ll_usb.c:1652:9
	b	.LBB40_31
.Ltmp465:
.LBB40_31:
	.loc	2 1656 23                       @ ../ThirdParty/STM32F4xx_HAL_Driver/Src/stm32f4xx_ll_usb.c:1656:23
	ldr	r0, [sp, #24]
	.loc	2 1656 29 is_stmt 0             @ ../ThirdParty/STM32F4xx_HAL_Driver/Src/stm32f4xx_ll_usb.c:1656:29
	ldr	r3, [sp, #20]
	.loc	2 1656 33                       @ ../ThirdParty/STM32F4xx_HAL_Driver/Src/stm32f4xx_ll_usb.c:1656:33
	ldr	r1, [r3, #12]
	.loc	2 1656 48                       @ ../ThirdParty/STM32F4xx_HAL_Driver/Src/stm32f4xx_ll_usb.c:1656:48
	ldrb	r2, [r3, #1]
	.loc	2 1656 60                       @ ../ThirdParty/STM32F4xx_HAL_Driver/Src/stm32f4xx_ll_usb.c:1656:60
	ldrh	r3, [r3, #16]
	.loc	2 1656 7                        @ ../ThirdParty/STM32F4xx_HAL_Driver/Src/stm32f4xx_ll_usb.c:1656:7
	mov	lr, sp
	mov.w	r12, #0
	str.w	r12, [lr]
	bl	USB_WritePacket
	.loc	2 1657 5 is_stmt 1              @ ../ThirdParty/STM32F4xx_HAL_Driver/Src/stm32f4xx_ll_usb.c:1657:5
	b	.LBB40_32
.Ltmp466:
.LBB40_32:
	.loc	2 1658 3                        @ ../ThirdParty/STM32F4xx_HAL_Driver/Src/stm32f4xx_ll_usb.c:1658:3
	b	.LBB40_33
.Ltmp467:
.LBB40_33:
	.loc	2 0 3 is_stmt 0                 @ ../ThirdParty/STM32F4xx_HAL_Driver/Src/stm32f4xx_ll_usb.c:0:3
	movs	r0, #0
	.loc	2 1660 3 is_stmt 1              @ ../ThirdParty/STM32F4xx_HAL_Driver/Src/stm32f4xx_ll_usb.c:1660:3
	strb.w	r0, [sp, #31]
	b	.LBB40_34
.LBB40_34:
	.loc	2 1661 1                        @ ../ThirdParty/STM32F4xx_HAL_Driver/Src/stm32f4xx_ll_usb.c:1661:1
	ldrb.w	r0, [sp, #31]
	.loc	2 1661 1 epilogue_begin is_stmt 0 @ ../ThirdParty/STM32F4xx_HAL_Driver/Src/stm32f4xx_ll_usb.c:1661:1
	add	sp, #32
	pop	{r7, pc}
.Ltmp468:
.Lfunc_end40:
	.size	USB_HC_StartXfer, .Lfunc_end40-USB_HC_StartXfer
	.cfi_endproc
	.cantunwind
	.fnend
                                        @ -- End function
	.section	.text.USB_DoPing,"ax",%progbits
	.hidden	USB_DoPing                      @ -- Begin function USB_DoPing
	.globl	USB_DoPing
	.p2align	2
	.type	USB_DoPing,%function
	.code	16                              @ @USB_DoPing
	.thumb_func
USB_DoPing:
.Lfunc_begin41:
	.loc	2 1742 0 is_stmt 1              @ ../ThirdParty/STM32F4xx_HAL_Driver/Src/stm32f4xx_ll_usb.c:1742:0
	.fnstart
	.cfi_startproc
@ %bb.0:
	.pad	#12
	sub	sp, #12
	.cfi_def_cfa_offset 12
                                        @ kill: def $r2 killed $r1
	str	r0, [sp, #8]
	strb.w	r1, [sp, #7]
	movs	r0, #1
.Ltmp469:
	.loc	2 1743 12 prologue_end          @ ../ThirdParty/STM32F4xx_HAL_Driver/Src/stm32f4xx_ll_usb.c:1743:12
	strb.w	r0, [sp, #6]
	movs	r0, #0
	.loc	2 1744 12                       @ ../ThirdParty/STM32F4xx_HAL_Driver/Src/stm32f4xx_ll_usb.c:1744:12
	str	r0, [sp]
	.loc	2 1746 31                       @ ../ThirdParty/STM32F4xx_HAL_Driver/Src/stm32f4xx_ll_usb.c:1746:31
	ldrb.w	r1, [sp, #6]
	.loc	2 1746 43 is_stmt 0             @ ../ThirdParty/STM32F4xx_HAL_Driver/Src/stm32f4xx_ll_usb.c:1746:43
	lsls	r1, r1, #19
	.loc	2 1746 76                       @ ../ThirdParty/STM32F4xx_HAL_Driver/Src/stm32f4xx_ll_usb.c:1746:76
	add.w	r1, r1, #-2147483648
	.loc	2 1746 3                        @ ../ThirdParty/STM32F4xx_HAL_Driver/Src/stm32f4xx_ll_usb.c:1746:3
	ldr	r2, [sp, #8]
	ldrb.w	r3, [sp, #7]
	add.w	r2, r2, r3, lsl #5
	.loc	2 1746 27                       @ ../ThirdParty/STM32F4xx_HAL_Driver/Src/stm32f4xx_ll_usb.c:1746:27
	str.w	r1, [r2, #1296]
	.loc	2 1750 12 is_stmt 1             @ ../ThirdParty/STM32F4xx_HAL_Driver/Src/stm32f4xx_ll_usb.c:1750:12
	ldr	r1, [sp, #8]
	ldrb.w	r2, [sp, #7]
	add.w	r1, r1, r2, lsl #5
	.loc	2 1750 29 is_stmt 0             @ ../ThirdParty/STM32F4xx_HAL_Driver/Src/stm32f4xx_ll_usb.c:1750:29
	ldr.w	r1, [r1, #1280]
	.loc	2 1750 10                       @ ../ThirdParty/STM32F4xx_HAL_Driver/Src/stm32f4xx_ll_usb.c:1750:10
	str	r1, [sp]
	.loc	2 1751 10 is_stmt 1             @ ../ThirdParty/STM32F4xx_HAL_Driver/Src/stm32f4xx_ll_usb.c:1751:10
	ldr	r1, [sp]
	bic	r1, r1, #1073741824
	str	r1, [sp]
	.loc	2 1752 10                       @ ../ThirdParty/STM32F4xx_HAL_Driver/Src/stm32f4xx_ll_usb.c:1752:10
	ldr	r1, [sp]
	orr	r1, r1, #-2147483648
	str	r1, [sp]
	.loc	2 1753 29                       @ ../ThirdParty/STM32F4xx_HAL_Driver/Src/stm32f4xx_ll_usb.c:1753:29
	ldr	r1, [sp]
	.loc	2 1753 3 is_stmt 0              @ ../ThirdParty/STM32F4xx_HAL_Driver/Src/stm32f4xx_ll_usb.c:1753:3
	ldr	r2, [sp, #8]
	ldrb.w	r3, [sp, #7]
	add.w	r2, r2, r3, lsl #5
	.loc	2 1753 27                       @ ../ThirdParty/STM32F4xx_HAL_Driver/Src/stm32f4xx_ll_usb.c:1753:27
	str.w	r1, [r2, #1280]
	.loc	2 1755 3 epilogue_begin is_stmt 1 @ ../ThirdParty/STM32F4xx_HAL_Driver/Src/stm32f4xx_ll_usb.c:1755:3
	add	sp, #12
	bx	lr
.Ltmp470:
.Lfunc_end41:
	.size	USB_DoPing, .Lfunc_end41-USB_DoPing
	.cfi_endproc
	.cantunwind
	.fnend
                                        @ -- End function
	.section	.text.USB_HC_ReadInterrupt,"ax",%progbits
	.hidden	USB_HC_ReadInterrupt            @ -- Begin function USB_HC_ReadInterrupt
	.globl	USB_HC_ReadInterrupt
	.p2align	2
	.type	USB_HC_ReadInterrupt,%function
	.code	16                              @ @USB_HC_ReadInterrupt
	.thumb_func
USB_HC_ReadInterrupt:
.Lfunc_begin42:
	.loc	2 1669 0                        @ ../ThirdParty/STM32F4xx_HAL_Driver/Src/stm32f4xx_ll_usb.c:1669:0
	.fnstart
	.cfi_startproc
@ %bb.0:
	.pad	#4
	sub	sp, #4
	.cfi_def_cfa_offset 4
	str	r0, [sp]
.Ltmp471:
	.loc	2 1670 12 prologue_end          @ ../ThirdParty/STM32F4xx_HAL_Driver/Src/stm32f4xx_ll_usb.c:1670:12
	ldr	r0, [sp]
	.loc	2 1670 23 is_stmt 0             @ ../ThirdParty/STM32F4xx_HAL_Driver/Src/stm32f4xx_ll_usb.c:1670:23
	ldr.w	r0, [r0, #1044]
	.loc	2 1670 30                       @ ../ThirdParty/STM32F4xx_HAL_Driver/Src/stm32f4xx_ll_usb.c:1670:30
	uxth	r0, r0
	.loc	2 1670 3 epilogue_begin         @ ../ThirdParty/STM32F4xx_HAL_Driver/Src/stm32f4xx_ll_usb.c:1670:3
	add	sp, #4
	bx	lr
.Ltmp472:
.Lfunc_end42:
	.size	USB_HC_ReadInterrupt, .Lfunc_end42-USB_HC_ReadInterrupt
	.cfi_endproc
	.cantunwind
	.fnend
                                        @ -- End function
	.section	.text.USB_HC_Halt,"ax",%progbits
	.hidden	USB_HC_Halt                     @ -- Begin function USB_HC_Halt
	.globl	USB_HC_Halt
	.p2align	2
	.type	USB_HC_Halt,%function
	.code	16                              @ @USB_HC_Halt
	.thumb_func
USB_HC_Halt:
.Lfunc_begin43:
	.loc	2 1681 0 is_stmt 1              @ ../ThirdParty/STM32F4xx_HAL_Driver/Src/stm32f4xx_ll_usb.c:1681:0
	.fnstart
	.cfi_startproc
@ %bb.0:
	.pad	#12
	sub	sp, #12
	.cfi_def_cfa_offset 12
                                        @ kill: def $r2 killed $r1
	str	r0, [sp, #8]
	strb.w	r1, [sp, #7]
	movs	r0, #0
.Ltmp473:
	.loc	2 1682 12 prologue_end          @ ../ThirdParty/STM32F4xx_HAL_Driver/Src/stm32f4xx_ll_usb.c:1682:12
	str	r0, [sp]
.Ltmp474:
	.loc	2 1685 11                       @ ../ThirdParty/STM32F4xx_HAL_Driver/Src/stm32f4xx_ll_usb.c:1685:11
	ldr	r1, [sp, #8]
	ldrb.w	r2, [sp, #7]
	add.w	r1, r1, r2, lsl #5
	.loc	2 1685 28 is_stmt 0             @ ../ThirdParty/STM32F4xx_HAL_Driver/Src/stm32f4xx_ll_usb.c:1685:28
	ldr.w	r1, [r1, #1280]
	.loc	2 1685 36                       @ ../ThirdParty/STM32F4xx_HAL_Driver/Src/stm32f4xx_ll_usb.c:1685:36
	and	r1, r1, #786432
	.loc	2 1685 83                       @ ../ThirdParty/STM32F4xx_HAL_Driver/Src/stm32f4xx_ll_usb.c:1685:83
	cmp.w	r0, r1, lsr #18
	beq	.LBB43_2
	b	.LBB43_1
.LBB43_1:
	.loc	2 1685 91                       @ ../ThirdParty/STM32F4xx_HAL_Driver/Src/stm32f4xx_ll_usb.c:1685:91
	ldr	r0, [sp, #8]
	ldrb.w	r1, [sp, #7]
	add.w	r0, r0, r1, lsl #5
	.loc	2 1685 108                      @ ../ThirdParty/STM32F4xx_HAL_Driver/Src/stm32f4xx_ll_usb.c:1685:108
	ldr.w	r0, [r0, #1280]
	.loc	2 1685 116                      @ ../ThirdParty/STM32F4xx_HAL_Driver/Src/stm32f4xx_ll_usb.c:1685:116
	and	r1, r0, #786432
	movs	r0, #2
.Ltmp475:
	.loc	2 1685 7                        @ ../ThirdParty/STM32F4xx_HAL_Driver/Src/stm32f4xx_ll_usb.c:1685:7
	cmp.w	r0, r1, lsr #18
	bne	.LBB43_11
	b	.LBB43_2
.LBB43_2:
.Ltmp476:
	.loc	2 1688 5 is_stmt 1              @ ../ThirdParty/STM32F4xx_HAL_Driver/Src/stm32f4xx_ll_usb.c:1688:5
	ldr	r0, [sp, #8]
	ldrb.w	r1, [sp, #7]
	add.w	r1, r0, r1, lsl #5
	.loc	2 1688 29 is_stmt 0             @ ../ThirdParty/STM32F4xx_HAL_Driver/Src/stm32f4xx_ll_usb.c:1688:29
	ldr.w	r0, [r1, #1280]
	orr	r0, r0, #1073741824
	str.w	r0, [r1, #1280]
.Ltmp477:
	.loc	2 1690 10 is_stmt 1             @ ../ThirdParty/STM32F4xx_HAL_Driver/Src/stm32f4xx_ll_usb.c:1690:10
	ldr	r0, [sp, #8]
	.loc	2 1690 16 is_stmt 0             @ ../ThirdParty/STM32F4xx_HAL_Driver/Src/stm32f4xx_ll_usb.c:1690:16
	ldr	r0, [r0, #44]
.Ltmp478:
	.loc	2 1690 9                        @ ../ThirdParty/STM32F4xx_HAL_Driver/Src/stm32f4xx_ll_usb.c:1690:9
	tst.w	r0, #16711680
	bne	.LBB43_9
	b	.LBB43_3
.LBB43_3:
.Ltmp479:
	.loc	2 1692 7 is_stmt 1              @ ../ThirdParty/STM32F4xx_HAL_Driver/Src/stm32f4xx_ll_usb.c:1692:7
	ldr	r0, [sp, #8]
	ldrb.w	r1, [sp, #7]
	add.w	r1, r0, r1, lsl #5
	.loc	2 1692 31 is_stmt 0             @ ../ThirdParty/STM32F4xx_HAL_Driver/Src/stm32f4xx_ll_usb.c:1692:31
	ldr.w	r0, [r1, #1280]
	bic	r0, r0, #-2147483648
	str.w	r0, [r1, #1280]
	.loc	2 1693 7 is_stmt 1              @ ../ThirdParty/STM32F4xx_HAL_Driver/Src/stm32f4xx_ll_usb.c:1693:7
	ldr	r0, [sp, #8]
	ldrb.w	r1, [sp, #7]
	add.w	r1, r0, r1, lsl #5
	.loc	2 1693 31 is_stmt 0             @ ../ThirdParty/STM32F4xx_HAL_Driver/Src/stm32f4xx_ll_usb.c:1693:31
	ldr.w	r0, [r1, #1280]
	orr	r0, r0, #-2147483648
	str.w	r0, [r1, #1280]
	.loc	2 1694 7 is_stmt 1              @ ../ThirdParty/STM32F4xx_HAL_Driver/Src/stm32f4xx_ll_usb.c:1694:7
	b	.LBB43_4
.LBB43_4:                               @ =>This Inner Loop Header: Depth=1
.Ltmp480:
	.loc	2 1696 13                       @ ../ThirdParty/STM32F4xx_HAL_Driver/Src/stm32f4xx_ll_usb.c:1696:13
	ldr	r0, [sp]
	adds	r0, #1
	str	r0, [sp]
.Ltmp481:
	.loc	2 1696 13 is_stmt 0             @ ../ThirdParty/STM32F4xx_HAL_Driver/Src/stm32f4xx_ll_usb.c:1696:13
	cmp.w	r0, #1000
	bls	.LBB43_6
	b	.LBB43_5
.LBB43_5:
.Ltmp482:
	.loc	2 1698 11 is_stmt 1             @ ../ThirdParty/STM32F4xx_HAL_Driver/Src/stm32f4xx_ll_usb.c:1698:11
	b	.LBB43_8
.Ltmp483:
.LBB43_6:                               @   in Loop: Header=BB43_4 Depth=1
	.loc	2 1700 7                        @ ../ThirdParty/STM32F4xx_HAL_Driver/Src/stm32f4xx_ll_usb.c:1700:7
	b	.LBB43_7
.Ltmp484:
.LBB43_7:                               @   in Loop: Header=BB43_4 Depth=1
	.loc	2 1701 15                       @ ../ThirdParty/STM32F4xx_HAL_Driver/Src/stm32f4xx_ll_usb.c:1701:15
	ldr	r0, [sp, #8]
	ldrb.w	r1, [sp, #7]
	add.w	r0, r0, r1, lsl #5
	.loc	2 1701 32 is_stmt 0             @ ../ThirdParty/STM32F4xx_HAL_Driver/Src/stm32f4xx_ll_usb.c:1701:32
	ldr.w	r0, [r0, #1280]
	.loc	2 1701 39                       @ ../ThirdParty/STM32F4xx_HAL_Driver/Src/stm32f4xx_ll_usb.c:1701:39
	and	r0, r0, #-2147483648
.Ltmp485:
	.loc	2 1700 7 is_stmt 1              @ ../ThirdParty/STM32F4xx_HAL_Driver/Src/stm32f4xx_ll_usb.c:1700:7
	cmp.w	r0, #-2147483648
	beq	.LBB43_4
	b	.LBB43_8
.Ltmp486:
.LBB43_8:
	.loc	2 1702 5                        @ ../ThirdParty/STM32F4xx_HAL_Driver/Src/stm32f4xx_ll_usb.c:1702:5
	b	.LBB43_10
.Ltmp487:
.LBB43_9:
	.loc	2 1705 7                        @ ../ThirdParty/STM32F4xx_HAL_Driver/Src/stm32f4xx_ll_usb.c:1705:7
	ldr	r0, [sp, #8]
	ldrb.w	r1, [sp, #7]
	add.w	r1, r0, r1, lsl #5
	.loc	2 1705 31 is_stmt 0             @ ../ThirdParty/STM32F4xx_HAL_Driver/Src/stm32f4xx_ll_usb.c:1705:31
	ldr.w	r0, [r1, #1280]
	orr	r0, r0, #-2147483648
	str.w	r0, [r1, #1280]
	b	.LBB43_10
.Ltmp488:
.LBB43_10:
	.loc	2 1707 3 is_stmt 1              @ ../ThirdParty/STM32F4xx_HAL_Driver/Src/stm32f4xx_ll_usb.c:1707:3
	b	.LBB43_20
.Ltmp489:
.LBB43_11:
	.loc	2 1710 5                        @ ../ThirdParty/STM32F4xx_HAL_Driver/Src/stm32f4xx_ll_usb.c:1710:5
	ldr	r0, [sp, #8]
	ldrb.w	r1, [sp, #7]
	add.w	r1, r0, r1, lsl #5
	.loc	2 1710 29 is_stmt 0             @ ../ThirdParty/STM32F4xx_HAL_Driver/Src/stm32f4xx_ll_usb.c:1710:29
	ldr.w	r0, [r1, #1280]
	orr	r0, r0, #1073741824
	str.w	r0, [r1, #1280]
.Ltmp490:
	.loc	2 1712 10 is_stmt 1             @ ../ThirdParty/STM32F4xx_HAL_Driver/Src/stm32f4xx_ll_usb.c:1712:10
	ldr	r0, [sp, #8]
	.loc	2 1712 21 is_stmt 0             @ ../ThirdParty/STM32F4xx_HAL_Driver/Src/stm32f4xx_ll_usb.c:1712:21
	ldr.w	r0, [r0, #1040]
.Ltmp491:
	.loc	2 1712 9                        @ ../ThirdParty/STM32F4xx_HAL_Driver/Src/stm32f4xx_ll_usb.c:1712:9
	lsls	r0, r0, #16
	cbnz	r0, .LBB43_18
	b	.LBB43_12
.LBB43_12:
.Ltmp492:
	.loc	2 1714 7 is_stmt 1              @ ../ThirdParty/STM32F4xx_HAL_Driver/Src/stm32f4xx_ll_usb.c:1714:7
	ldr	r0, [sp, #8]
	ldrb.w	r1, [sp, #7]
	add.w	r1, r0, r1, lsl #5
	.loc	2 1714 31 is_stmt 0             @ ../ThirdParty/STM32F4xx_HAL_Driver/Src/stm32f4xx_ll_usb.c:1714:31
	ldr.w	r0, [r1, #1280]
	bic	r0, r0, #-2147483648
	str.w	r0, [r1, #1280]
	.loc	2 1715 7 is_stmt 1              @ ../ThirdParty/STM32F4xx_HAL_Driver/Src/stm32f4xx_ll_usb.c:1715:7
	ldr	r0, [sp, #8]
	ldrb.w	r1, [sp, #7]
	add.w	r1, r0, r1, lsl #5
	.loc	2 1715 31 is_stmt 0             @ ../ThirdParty/STM32F4xx_HAL_Driver/Src/stm32f4xx_ll_usb.c:1715:31
	ldr.w	r0, [r1, #1280]
	orr	r0, r0, #-2147483648
	str.w	r0, [r1, #1280]
	.loc	2 1716 7 is_stmt 1              @ ../ThirdParty/STM32F4xx_HAL_Driver/Src/stm32f4xx_ll_usb.c:1716:7
	b	.LBB43_13
.LBB43_13:                              @ =>This Inner Loop Header: Depth=1
.Ltmp493:
	.loc	2 1718 13                       @ ../ThirdParty/STM32F4xx_HAL_Driver/Src/stm32f4xx_ll_usb.c:1718:13
	ldr	r0, [sp]
	adds	r0, #1
	str	r0, [sp]
.Ltmp494:
	.loc	2 1718 13 is_stmt 0             @ ../ThirdParty/STM32F4xx_HAL_Driver/Src/stm32f4xx_ll_usb.c:1718:13
	cmp.w	r0, #1000
	bls	.LBB43_15
	b	.LBB43_14
.LBB43_14:
.Ltmp495:
	.loc	2 1720 11 is_stmt 1             @ ../ThirdParty/STM32F4xx_HAL_Driver/Src/stm32f4xx_ll_usb.c:1720:11
	b	.LBB43_17
.Ltmp496:
.LBB43_15:                              @   in Loop: Header=BB43_13 Depth=1
	.loc	2 1722 7                        @ ../ThirdParty/STM32F4xx_HAL_Driver/Src/stm32f4xx_ll_usb.c:1722:7
	b	.LBB43_16
.Ltmp497:
.LBB43_16:                              @   in Loop: Header=BB43_13 Depth=1
	.loc	2 1723 15                       @ ../ThirdParty/STM32F4xx_HAL_Driver/Src/stm32f4xx_ll_usb.c:1723:15
	ldr	r0, [sp, #8]
	ldrb.w	r1, [sp, #7]
	add.w	r0, r0, r1, lsl #5
	.loc	2 1723 32 is_stmt 0             @ ../ThirdParty/STM32F4xx_HAL_Driver/Src/stm32f4xx_ll_usb.c:1723:32
	ldr.w	r0, [r0, #1280]
	.loc	2 1723 39                       @ ../ThirdParty/STM32F4xx_HAL_Driver/Src/stm32f4xx_ll_usb.c:1723:39
	and	r0, r0, #-2147483648
.Ltmp498:
	.loc	2 1722 7 is_stmt 1              @ ../ThirdParty/STM32F4xx_HAL_Driver/Src/stm32f4xx_ll_usb.c:1722:7
	cmp.w	r0, #-2147483648
	beq	.LBB43_13
	b	.LBB43_17
.Ltmp499:
.LBB43_17:
	.loc	2 1724 5                        @ ../ThirdParty/STM32F4xx_HAL_Driver/Src/stm32f4xx_ll_usb.c:1724:5
	b	.LBB43_19
.Ltmp500:
.LBB43_18:
	.loc	2 1727 8                        @ ../ThirdParty/STM32F4xx_HAL_Driver/Src/stm32f4xx_ll_usb.c:1727:8
	ldr	r0, [sp, #8]
	ldrb.w	r1, [sp, #7]
	add.w	r1, r0, r1, lsl #5
	.loc	2 1727 32 is_stmt 0             @ ../ThirdParty/STM32F4xx_HAL_Driver/Src/stm32f4xx_ll_usb.c:1727:32
	ldr.w	r0, [r1, #1280]
	orr	r0, r0, #-2147483648
	str.w	r0, [r1, #1280]
	b	.LBB43_19
.Ltmp501:
.LBB43_19:
	.loc	2 0 32                          @ ../ThirdParty/STM32F4xx_HAL_Driver/Src/stm32f4xx_ll_usb.c:0:32
	b	.LBB43_20
.LBB43_20:
	movs	r0, #0
	.loc	2 1731 3 epilogue_begin is_stmt 1 @ ../ThirdParty/STM32F4xx_HAL_Driver/Src/stm32f4xx_ll_usb.c:1731:3
	add	sp, #12
	bx	lr
.Ltmp502:
.Lfunc_end43:
	.size	USB_HC_Halt, .Lfunc_end43-USB_HC_Halt
	.cfi_endproc
	.cantunwind
	.fnend
                                        @ -- End function
	.section	.text.USB_StopHost,"ax",%progbits
	.hidden	USB_StopHost                    @ -- Begin function USB_StopHost
	.globl	USB_StopHost
	.p2align	2
	.type	USB_StopHost,%function
	.code	16                              @ @USB_StopHost
	.thumb_func
USB_StopHost:
.Lfunc_begin44:
	.loc	2 1764 0                        @ ../ThirdParty/STM32F4xx_HAL_Driver/Src/stm32f4xx_ll_usb.c:1764:0
	.fnstart
	.cfi_startproc
@ %bb.0:
	.save	{r7, lr}
	push	{r7, lr}
	.cfi_def_cfa_offset 8
	.cfi_offset lr, -4
	.cfi_offset r7, -8
	.pad	#24
	sub	sp, #24
	.cfi_def_cfa_offset 32
	str	r0, [sp, #20]
	movs	r0, #0
.Ltmp503:
	.loc	2 1766 12 prologue_end          @ ../ThirdParty/STM32F4xx_HAL_Driver/Src/stm32f4xx_ll_usb.c:1766:12
	str	r0, [sp, #4]                    @ 4-byte Spill
	str	r0, [sp, #12]
	.loc	2 1769 24                       @ ../ThirdParty/STM32F4xx_HAL_Driver/Src/stm32f4xx_ll_usb.c:1769:24
	ldr	r0, [sp, #20]
	.loc	2 1769 3 is_stmt 0              @ ../ThirdParty/STM32F4xx_HAL_Driver/Src/stm32f4xx_ll_usb.c:1769:3
	bl	USB_DisableGlobalInt
	.loc	2 1772 19 is_stmt 1             @ ../ThirdParty/STM32F4xx_HAL_Driver/Src/stm32f4xx_ll_usb.c:1772:19
	ldr	r0, [sp, #20]
	movs	r1, #16
	.loc	2 1772 3 is_stmt 0              @ ../ThirdParty/STM32F4xx_HAL_Driver/Src/stm32f4xx_ll_usb.c:1772:3
	bl	USB_FlushTxFifo
	.loc	2 1773 19 is_stmt 1             @ ../ThirdParty/STM32F4xx_HAL_Driver/Src/stm32f4xx_ll_usb.c:1773:19
	ldr	r0, [sp, #20]
	.loc	2 1773 3 is_stmt 0              @ ../ThirdParty/STM32F4xx_HAL_Driver/Src/stm32f4xx_ll_usb.c:1773:3
	bl	USB_FlushRxFifo
                                        @ kill: def $r1 killed $r0
.Ltmp504:
	.loc	2 1776 10 is_stmt 1             @ ../ThirdParty/STM32F4xx_HAL_Driver/Src/stm32f4xx_ll_usb.c:1776:10
	ldr	r0, [sp, #4]                    @ 4-byte Reload
	strb.w	r0, [sp, #19]
	.loc	2 1776 8 is_stmt 0              @ ../ThirdParty/STM32F4xx_HAL_Driver/Src/stm32f4xx_ll_usb.c:1776:8
	b	.LBB44_1
.LBB44_1:                               @ =>This Inner Loop Header: Depth=1
.Ltmp505:
	.loc	2 1776 15                       @ ../ThirdParty/STM32F4xx_HAL_Driver/Src/stm32f4xx_ll_usb.c:1776:15
	ldrb.w	r0, [sp, #19]
.Ltmp506:
	.loc	2 1776 3                        @ ../ThirdParty/STM32F4xx_HAL_Driver/Src/stm32f4xx_ll_usb.c:1776:3
	cmp	r0, #15
	bgt	.LBB44_4
	b	.LBB44_2
.LBB44_2:                               @   in Loop: Header=BB44_1 Depth=1
.Ltmp507:
	.loc	2 1779 13 is_stmt 1             @ ../ThirdParty/STM32F4xx_HAL_Driver/Src/stm32f4xx_ll_usb.c:1779:13
	ldr	r0, [sp, #20]
	ldrb.w	r1, [sp, #19]
	add.w	r0, r0, r1, lsl #5
	.loc	2 1779 25 is_stmt 0             @ ../ThirdParty/STM32F4xx_HAL_Driver/Src/stm32f4xx_ll_usb.c:1779:25
	ldr.w	r0, [r0, #1280]
	.loc	2 1779 11                       @ ../ThirdParty/STM32F4xx_HAL_Driver/Src/stm32f4xx_ll_usb.c:1779:11
	str	r0, [sp, #8]
	.loc	2 1780 11 is_stmt 1             @ ../ThirdParty/STM32F4xx_HAL_Driver/Src/stm32f4xx_ll_usb.c:1780:11
	ldr	r0, [sp, #8]
	orr	r0, r0, #1073741824
	str	r0, [sp, #8]
	.loc	2 1781 11                       @ ../ThirdParty/STM32F4xx_HAL_Driver/Src/stm32f4xx_ll_usb.c:1781:11
	ldr	r0, [sp, #8]
	bic	r0, r0, #-2147483648
	str	r0, [sp, #8]
	.loc	2 1782 11                       @ ../ThirdParty/STM32F4xx_HAL_Driver/Src/stm32f4xx_ll_usb.c:1782:11
	ldr	r0, [sp, #8]
	bic	r0, r0, #32768
	str	r0, [sp, #8]
	.loc	2 1783 26                       @ ../ThirdParty/STM32F4xx_HAL_Driver/Src/stm32f4xx_ll_usb.c:1783:26
	ldr	r0, [sp, #8]
	.loc	2 1783 5 is_stmt 0              @ ../ThirdParty/STM32F4xx_HAL_Driver/Src/stm32f4xx_ll_usb.c:1783:5
	ldr	r1, [sp, #20]
	ldrb.w	r2, [sp, #19]
	add.w	r1, r1, r2, lsl #5
	.loc	2 1783 24                       @ ../ThirdParty/STM32F4xx_HAL_Driver/Src/stm32f4xx_ll_usb.c:1783:24
	str.w	r0, [r1, #1280]
	.loc	2 1784 3 is_stmt 1              @ ../ThirdParty/STM32F4xx_HAL_Driver/Src/stm32f4xx_ll_usb.c:1784:3
	b	.LBB44_3
.Ltmp508:
.LBB44_3:                               @   in Loop: Header=BB44_1 Depth=1
	.loc	2 1776 25                       @ ../ThirdParty/STM32F4xx_HAL_Driver/Src/stm32f4xx_ll_usb.c:1776:25
	ldrb.w	r0, [sp, #19]
	adds	r0, #1
	strb.w	r0, [sp, #19]
	.loc	2 1776 3 is_stmt 0              @ ../ThirdParty/STM32F4xx_HAL_Driver/Src/stm32f4xx_ll_usb.c:1776:3
	b	.LBB44_1
.Ltmp509:
.LBB44_4:
	.loc	2 0 3                           @ ../ThirdParty/STM32F4xx_HAL_Driver/Src/stm32f4xx_ll_usb.c:0:3
	movs	r0, #0
.Ltmp510:
	.loc	2 1787 10 is_stmt 1             @ ../ThirdParty/STM32F4xx_HAL_Driver/Src/stm32f4xx_ll_usb.c:1787:10
	strb.w	r0, [sp, #19]
	.loc	2 1787 8 is_stmt 0              @ ../ThirdParty/STM32F4xx_HAL_Driver/Src/stm32f4xx_ll_usb.c:1787:8
	b	.LBB44_5
.LBB44_5:                               @ =>This Loop Header: Depth=1
                                        @     Child Loop BB44_7 Depth 2
.Ltmp511:
	.loc	2 1787 15                       @ ../ThirdParty/STM32F4xx_HAL_Driver/Src/stm32f4xx_ll_usb.c:1787:15
	ldrb.w	r0, [sp, #19]
.Ltmp512:
	.loc	2 1787 3                        @ ../ThirdParty/STM32F4xx_HAL_Driver/Src/stm32f4xx_ll_usb.c:1787:3
	cmp	r0, #15
	bgt	.LBB44_13
	b	.LBB44_6
.LBB44_6:                               @   in Loop: Header=BB44_5 Depth=1
.Ltmp513:
	.loc	2 1789 13 is_stmt 1             @ ../ThirdParty/STM32F4xx_HAL_Driver/Src/stm32f4xx_ll_usb.c:1789:13
	ldr	r0, [sp, #20]
	ldrb.w	r1, [sp, #19]
	add.w	r0, r0, r1, lsl #5
	.loc	2 1789 25 is_stmt 0             @ ../ThirdParty/STM32F4xx_HAL_Driver/Src/stm32f4xx_ll_usb.c:1789:25
	ldr.w	r0, [r0, #1280]
	.loc	2 1789 11                       @ ../ThirdParty/STM32F4xx_HAL_Driver/Src/stm32f4xx_ll_usb.c:1789:11
	str	r0, [sp, #8]
	.loc	2 1791 11 is_stmt 1             @ ../ThirdParty/STM32F4xx_HAL_Driver/Src/stm32f4xx_ll_usb.c:1791:11
	ldr	r0, [sp, #8]
	orr	r0, r0, #1073741824
	str	r0, [sp, #8]
	.loc	2 1792 11                       @ ../ThirdParty/STM32F4xx_HAL_Driver/Src/stm32f4xx_ll_usb.c:1792:11
	ldr	r0, [sp, #8]
	orr	r0, r0, #-2147483648
	str	r0, [sp, #8]
	.loc	2 1793 11                       @ ../ThirdParty/STM32F4xx_HAL_Driver/Src/stm32f4xx_ll_usb.c:1793:11
	ldr	r0, [sp, #8]
	bic	r0, r0, #32768
	str	r0, [sp, #8]
	.loc	2 1795 26                       @ ../ThirdParty/STM32F4xx_HAL_Driver/Src/stm32f4xx_ll_usb.c:1795:26
	ldr	r0, [sp, #8]
	.loc	2 1795 5 is_stmt 0              @ ../ThirdParty/STM32F4xx_HAL_Driver/Src/stm32f4xx_ll_usb.c:1795:5
	ldr	r1, [sp, #20]
	ldrb.w	r2, [sp, #19]
	add.w	r1, r1, r2, lsl #5
	.loc	2 1795 24                       @ ../ThirdParty/STM32F4xx_HAL_Driver/Src/stm32f4xx_ll_usb.c:1795:24
	str.w	r0, [r1, #1280]
	.loc	2 1796 5 is_stmt 1              @ ../ThirdParty/STM32F4xx_HAL_Driver/Src/stm32f4xx_ll_usb.c:1796:5
	b	.LBB44_7
.LBB44_7:                               @   Parent Loop BB44_5 Depth=1
                                        @ =>  This Inner Loop Header: Depth=2
.Ltmp514:
	.loc	2 1798 11                       @ ../ThirdParty/STM32F4xx_HAL_Driver/Src/stm32f4xx_ll_usb.c:1798:11
	ldr	r0, [sp, #12]
	adds	r0, #1
	str	r0, [sp, #12]
.Ltmp515:
	.loc	2 1798 11 is_stmt 0             @ ../ThirdParty/STM32F4xx_HAL_Driver/Src/stm32f4xx_ll_usb.c:1798:11
	cmp.w	r0, #1000
	bls	.LBB44_9
	b	.LBB44_8
.LBB44_8:                               @   in Loop: Header=BB44_5 Depth=1
.Ltmp516:
	.loc	2 1800 9 is_stmt 1              @ ../ThirdParty/STM32F4xx_HAL_Driver/Src/stm32f4xx_ll_usb.c:1800:9
	b	.LBB44_11
.Ltmp517:
.LBB44_9:                               @   in Loop: Header=BB44_7 Depth=2
	.loc	2 1802 5                        @ ../ThirdParty/STM32F4xx_HAL_Driver/Src/stm32f4xx_ll_usb.c:1802:5
	b	.LBB44_10
.Ltmp518:
.LBB44_10:                              @   in Loop: Header=BB44_7 Depth=2
	.loc	2 1803 13                       @ ../ThirdParty/STM32F4xx_HAL_Driver/Src/stm32f4xx_ll_usb.c:1803:13
	ldr	r0, [sp, #20]
	ldrb.w	r1, [sp, #19]
	add.w	r0, r0, r1, lsl #5
	.loc	2 1803 25 is_stmt 0             @ ../ThirdParty/STM32F4xx_HAL_Driver/Src/stm32f4xx_ll_usb.c:1803:25
	ldr.w	r0, [r0, #1280]
	.loc	2 1803 32                       @ ../ThirdParty/STM32F4xx_HAL_Driver/Src/stm32f4xx_ll_usb.c:1803:32
	and	r0, r0, #-2147483648
.Ltmp519:
	.loc	2 1802 5 is_stmt 1              @ ../ThirdParty/STM32F4xx_HAL_Driver/Src/stm32f4xx_ll_usb.c:1802:5
	cmp.w	r0, #-2147483648
	beq	.LBB44_7
	b	.LBB44_11
.Ltmp520:
.LBB44_11:                              @   in Loop: Header=BB44_5 Depth=1
	.loc	2 1804 3                        @ ../ThirdParty/STM32F4xx_HAL_Driver/Src/stm32f4xx_ll_usb.c:1804:3
	b	.LBB44_12
.Ltmp521:
.LBB44_12:                              @   in Loop: Header=BB44_5 Depth=1
	.loc	2 1787 25                       @ ../ThirdParty/STM32F4xx_HAL_Driver/Src/stm32f4xx_ll_usb.c:1787:25
	ldrb.w	r0, [sp, #19]
	adds	r0, #1
	strb.w	r0, [sp, #19]
	.loc	2 1787 3 is_stmt 0              @ ../ThirdParty/STM32F4xx_HAL_Driver/Src/stm32f4xx_ll_usb.c:1787:3
	b	.LBB44_5
.Ltmp522:
.LBB44_13:
	.loc	2 1807 3 is_stmt 1              @ ../ThirdParty/STM32F4xx_HAL_Driver/Src/stm32f4xx_ll_usb.c:1807:3
	ldr	r1, [sp, #20]
	mov.w	r0, #-1
	.loc	2 1807 20 is_stmt 0             @ ../ThirdParty/STM32F4xx_HAL_Driver/Src/stm32f4xx_ll_usb.c:1807:20
	str.w	r0, [r1, #1044]
	.loc	2 1808 3 is_stmt 1              @ ../ThirdParty/STM32F4xx_HAL_Driver/Src/stm32f4xx_ll_usb.c:1808:3
	ldr	r1, [sp, #20]
	.loc	2 1808 17 is_stmt 0             @ ../ThirdParty/STM32F4xx_HAL_Driver/Src/stm32f4xx_ll_usb.c:1808:17
	str	r0, [r1, #20]
	.loc	2 1809 23 is_stmt 1             @ ../ThirdParty/STM32F4xx_HAL_Driver/Src/stm32f4xx_ll_usb.c:1809:23
	ldr	r0, [sp, #20]
	.loc	2 1809 3 is_stmt 0              @ ../ThirdParty/STM32F4xx_HAL_Driver/Src/stm32f4xx_ll_usb.c:1809:3
	bl	USB_EnableGlobalInt
	movs	r0, #0
	.loc	2 1810 3 epilogue_begin is_stmt 1 @ ../ThirdParty/STM32F4xx_HAL_Driver/Src/stm32f4xx_ll_usb.c:1810:3
	add	sp, #24
	pop	{r7, pc}
.Ltmp523:
.Lfunc_end44:
	.size	USB_StopHost, .Lfunc_end44-USB_StopHost
	.cfi_endproc
	.cantunwind
	.fnend
                                        @ -- End function
	.type	USB_ActivateDedicatedEndpoint.debug,%object @ @USB_ActivateDedicatedEndpoint.debug
	.section	.bss.USB_ActivateDedicatedEndpoint.debug,"aw",%nobits
	.p2align	2, 0x0
USB_ActivateDedicatedEndpoint.debug:
	.long	0                               @ 0x0
	.size	USB_ActivateDedicatedEndpoint.debug, 4

	.section	".note.GNU-stack","",%progbits
	.eabi_attribute	30, 6	@ Tag_ABI_optimization_goals
	.ARM_attribute	16, 1	@ Tag_AV_eba