	.text
	.syntax unified
	.eabi_attribute	67, "2.09"	@ Tag_conformance
	.cpu	cortex-m4
	.eabi_attribute	6, 13	@ Tag_CPU_arch
	.eabi_attribute	7, 77	@ Tag_CPU_arch_profile
	.eabi_attribute	8, 0	@ Tag_ARM_ISA_use
	.eabi_attribute	9, 2	@ Tag_THUMB_ISA_use
	.fpu	fpv4-sp-d16
	.eabi_attribute	27, 1	@ Tag_ABI_HardFP_use
	.eabi_attribute	36, 1	@ Tag_FP_HP_extension
	.eabi_attribute	34, 1	@ Tag_CPU_unaligned_access
	.eabi_attribute	17, 1	@ Tag_ABI_PCS_GOT_use
	.eabi_attribute	20, 2	@ Tag_ABI_FP_denormal
	.eabi_attribute	21, 0	@ Tag_ABI_FP_exceptions
	.eabi_attribute	23, 1	@ Tag_ABI_FP_number_model
	.eabi_attribute	24, 1	@ Tag_ABI_align_needed
	.eabi_attribute	25, 1	@ Tag_ABI_align_preserved
	.eabi_attribute	28, 1	@ Tag_ABI_VFP_args
	.eabi_attribute	38, 1	@ Tag_ABI_FP_16bit_format
	.eabi_attribute	18, 2	@ Tag_ABI_PCS_wchar_t
	.eabi_attribute	26, 1	@ Tag_ABI_enum_size
	.eabi_attribute	14, 0	@ Tag_ABI_PCS_R9_use
	.file	"stm32f4xx_hal_rcc.c"
	.file	1 "D:\\ikingtec\\Robot\\ODrive\\Firmware\\MDK-ARM" "../ThirdParty/STM32F4xx_HAL_Driver/Inc/stm32f4xx_hal_def.h"
	.file	2 "D:\\ikingtec\\Robot\\ODrive\\Firmware\\MDK-ARM" "../ThirdParty/CMSIS/Device/ST/STM32F4xx/Include\\stm32f4xx.h"
	.file	3 "D:\\Embed\\MDK\\MDK\\ARM\\ARMCompilerV621\\Bin\\..\\include" "stdint.h"
	.file	4 "D:\\ikingtec\\Robot\\ODrive\\Firmware\\MDK-ARM" "../ThirdParty/CMSIS/Device/ST/STM32F4xx/Include/stm32f405xx.h"
	.section	.text.HAL_RCC_DeInit,"ax",%progbits
	.hidden	HAL_RCC_DeInit                  @ -- Begin function HAL_RCC_DeInit
	.weak	HAL_RCC_DeInit
	.p2align	2
	.type	HAL_RCC_DeInit,%function
	.code	16                              @ @HAL_RCC_DeInit
	.thumb_func
HAL_RCC_DeInit:
.Lfunc_begin0:
	.file	5 "D:\\ikingtec\\Robot\\ODrive\\Firmware\\MDK-ARM" "../ThirdParty/STM32F4xx_HAL_Driver/Src/stm32f4xx_hal_rcc.c"
	.loc	5 219 0                         @ ../ThirdParty/STM32F4xx_HAL_Driver/Src/stm32f4xx_hal_rcc.c:219:0
	.fnstart
	.cfi_sections .debug_frame
	.cfi_startproc
@ %bb.0:
	movs	r0, #0
.Ltmp0:
	.loc	5 220 3 prologue_end            @ ../ThirdParty/STM32F4xx_HAL_Driver/Src/stm32f4xx_hal_rcc.c:220:3
	bx	lr
.Ltmp1:
.Lfunc_end0:
	.size	HAL_RCC_DeInit, .Lfunc_end0-HAL_RCC_DeInit
	.cfi_endproc
	.cantunwind
	.fnend
                                        @ -- End function
	.section	.text.HAL_RCC_OscConfig,"ax",%progbits
	.hidden	HAL_RCC_OscConfig               @ -- Begin function HAL_RCC_OscConfig
	.weak	HAL_RCC_OscConfig
	.p2align	2
	.type	HAL_RCC_OscConfig,%function
	.code	16                              @ @HAL_RCC_OscConfig
	.thumb_func
HAL_RCC_OscConfig:
.Lfunc_begin1:
	.loc	5 238 0                         @ ../ThirdParty/STM32F4xx_HAL_Driver/Src/stm32f4xx_hal_rcc.c:238:0
	.fnstart
	.cfi_startproc
@ %bb.0:
	.save	{r7, lr}
	push	{r7, lr}
	.cfi_def_cfa_offset 8
	.cfi_offset lr, -4
	.cfi_offset r7, -8
	.pad	#24
	sub	sp, #24
	.cfi_def_cfa_offset 32
	str	r0, [sp, #16]
.Ltmp2:
	.loc	5 242 6 prologue_end            @ ../ThirdParty/STM32F4xx_HAL_Driver/Src/stm32f4xx_hal_rcc.c:242:6
	ldr	r0, [sp, #16]
.Ltmp3:
	.loc	5 242 6 is_stmt 0               @ ../ThirdParty/STM32F4xx_HAL_Driver/Src/stm32f4xx_hal_rcc.c:242:6
	cbnz	r0, .LBB1_2
	b	.LBB1_1
.LBB1_1:
	.loc	5 0 6                           @ ../ThirdParty/STM32F4xx_HAL_Driver/Src/stm32f4xx_hal_rcc.c:0:6
	movs	r0, #1
.Ltmp4:
	.loc	5 244 5 is_stmt 1               @ ../ThirdParty/STM32F4xx_HAL_Driver/Src/stm32f4xx_hal_rcc.c:244:5
	strb.w	r0, [sp, #23]
	b	.LBB1_132
.Ltmp5:
.LBB1_2:
	.loc	5 250 8                         @ ../ThirdParty/STM32F4xx_HAL_Driver/Src/stm32f4xx_hal_rcc.c:250:8
	ldr	r0, [sp, #16]
.Ltmp6:
	.loc	5 250 6 is_stmt 0               @ ../ThirdParty/STM32F4xx_HAL_Driver/Src/stm32f4xx_hal_rcc.c:250:6
	ldrb	r0, [r0]
	lsls	r0, r0, #31
	cmp	r0, #0
	beq.w	.LBB1_33
	b	.LBB1_3
.LBB1_3:
	.loc	5 0 6                           @ ../ThirdParty/STM32F4xx_HAL_Driver/Src/stm32f4xx_hal_rcc.c:0:6
	movw	r0, #14344
	movt	r0, #16386
.Ltmp7:
	.loc	5 255 9 is_stmt 1               @ ../ThirdParty/STM32F4xx_HAL_Driver/Src/stm32f4xx_hal_rcc.c:255:9
	ldr	r0, [r0]
	and	r0, r0, #12
	.loc	5 255 60 is_stmt 0              @ ../ThirdParty/STM32F4xx_HAL_Driver/Src/stm32f4xx_hal_rcc.c:255:60
	cmp	r0, #4
	beq	.LBB1_6
	b	.LBB1_4
.LBB1_4:
	.loc	5 0 60                          @ ../ThirdParty/STM32F4xx_HAL_Driver/Src/stm32f4xx_hal_rcc.c:0:60
	movw	r0, #14344
	movt	r0, #16386
	.loc	5 256 9 is_stmt 1               @ ../ThirdParty/STM32F4xx_HAL_Driver/Src/stm32f4xx_hal_rcc.c:256:9
	ldr	r0, [r0]
	and	r0, r0, #12
	.loc	5 256 60 is_stmt 0              @ ../ThirdParty/STM32F4xx_HAL_Driver/Src/stm32f4xx_hal_rcc.c:256:60
	cmp	r0, #8
	bne	.LBB1_10
	b	.LBB1_5
.LBB1_5:
	.loc	5 0 60                          @ ../ThirdParty/STM32F4xx_HAL_Driver/Src/stm32f4xx_hal_rcc.c:0:60
	movw	r0, #14340
	movt	r0, #16386
	.loc	5 256 70                        @ ../ThirdParty/STM32F4xx_HAL_Driver/Src/stm32f4xx_hal_rcc.c:256:70
	ldr	r0, [r0]
.Ltmp8:
	.loc	5 255 8 is_stmt 1               @ ../ThirdParty/STM32F4xx_HAL_Driver/Src/stm32f4xx_hal_rcc.c:255:8
	lsls	r0, r0, #9
	cmp	r0, #0
	bpl	.LBB1_10
	b	.LBB1_6
.LBB1_6:
	.loc	5 0 8 is_stmt 0                 @ ../ThirdParty/STM32F4xx_HAL_Driver/Src/stm32f4xx_hal_rcc.c:0:8
	movw	r0, #14336
	movt	r0, #16386
.Ltmp9:
	.loc	5 258 11 is_stmt 1              @ ../ThirdParty/STM32F4xx_HAL_Driver/Src/stm32f4xx_hal_rcc.c:258:11
	ldr	r0, [r0]
	and	r1, r0, #131072
	movs	r0, #0
	.loc	5 258 57 is_stmt 0              @ ../ThirdParty/STM32F4xx_HAL_Driver/Src/stm32f4xx_hal_rcc.c:258:57
	cmp.w	r0, r1, lsr #17
	beq	.LBB1_9
	b	.LBB1_7
.LBB1_7:
	.loc	5 258 61                        @ ../ThirdParty/STM32F4xx_HAL_Driver/Src/stm32f4xx_hal_rcc.c:258:61
	ldr	r0, [sp, #16]
	.loc	5 258 80                        @ ../ThirdParty/STM32F4xx_HAL_Driver/Src/stm32f4xx_hal_rcc.c:258:80
	ldr	r0, [r0, #4]
.Ltmp10:
	.loc	5 258 10                        @ ../ThirdParty/STM32F4xx_HAL_Driver/Src/stm32f4xx_hal_rcc.c:258:10
	cbnz	r0, .LBB1_9
	b	.LBB1_8
.LBB1_8:
	.loc	5 0 10                          @ ../ThirdParty/STM32F4xx_HAL_Driver/Src/stm32f4xx_hal_rcc.c:0:10
	movs	r0, #1
.Ltmp11:
	.loc	5 260 9 is_stmt 1               @ ../ThirdParty/STM32F4xx_HAL_Driver/Src/stm32f4xx_hal_rcc.c:260:9
	strb.w	r0, [sp, #23]
	b	.LBB1_132
.Ltmp12:
.LBB1_9:
	.loc	5 262 5                         @ ../ThirdParty/STM32F4xx_HAL_Driver/Src/stm32f4xx_hal_rcc.c:262:5
	b	.LBB1_32
.Ltmp13:
.LBB1_10:
	.loc	5 266 7                         @ ../ThirdParty/STM32F4xx_HAL_Driver/Src/stm32f4xx_hal_rcc.c:266:7
	b	.LBB1_11
.LBB1_11:
.Ltmp14:
	.loc	5 266 7 is_stmt 0               @ ../ThirdParty/STM32F4xx_HAL_Driver/Src/stm32f4xx_hal_rcc.c:266:7
	ldr	r0, [sp, #16]
	ldr	r0, [r0, #4]
.Ltmp15:
	.loc	5 266 7                         @ ../ThirdParty/STM32F4xx_HAL_Driver/Src/stm32f4xx_hal_rcc.c:266:7
	cmp.w	r0, #65536
	bne	.LBB1_13
	b	.LBB1_12
.LBB1_12:
	.loc	5 0 7                           @ ../ThirdParty/STM32F4xx_HAL_Driver/Src/stm32f4xx_hal_rcc.c:0:7
	movw	r1, #14336
	movt	r1, #16386
.Ltmp16:
	.loc	5 266 7                         @ ../ThirdParty/STM32F4xx_HAL_Driver/Src/stm32f4xx_hal_rcc.c:266:7
	ldr	r0, [r1]
	orr	r0, r0, #65536
	str	r0, [r1]
	b	.LBB1_17
.Ltmp17:
.LBB1_13:
	.loc	5 266 7                         @ ../ThirdParty/STM32F4xx_HAL_Driver/Src/stm32f4xx_hal_rcc.c:266:7
	ldr	r0, [sp, #16]
	ldr	r0, [r0, #4]
.Ltmp18:
	.loc	5 266 7                         @ ../ThirdParty/STM32F4xx_HAL_Driver/Src/stm32f4xx_hal_rcc.c:266:7
	cmp.w	r0, #327680
	bne	.LBB1_15
	b	.LBB1_14
.LBB1_14:
	.loc	5 0 7                           @ ../ThirdParty/STM32F4xx_HAL_Driver/Src/stm32f4xx_hal_rcc.c:0:7
	movw	r1, #14336
	movt	r1, #16386
.Ltmp19:
	.loc	5 266 7                         @ ../ThirdParty/STM32F4xx_HAL_Driver/Src/stm32f4xx_hal_rcc.c:266:7
	ldr	r0, [r1]
	orr	r0, r0, #262144
	str	r0, [r1]
	ldr	r0, [r1]
	orr	r0, r0, #65536
	str	r0, [r1]
	b	.LBB1_16
.Ltmp20:
.LBB1_15:
	.loc	5 0 7                           @ ../ThirdParty/STM32F4xx_HAL_Driver/Src/stm32f4xx_hal_rcc.c:0:7
	movw	r1, #14336
	movt	r1, #16386
.Ltmp21:
	.loc	5 266 7                         @ ../ThirdParty/STM32F4xx_HAL_Driver/Src/stm32f4xx_hal_rcc.c:266:7
	ldr	r0, [r1]
	bic	r0, r0, #65536
	str	r0, [r1]
	ldr	r0, [r1]
	bic	r0, r0, #262144
	str	r0, [r1]
	b	.LBB1_16
.Ltmp22:
.LBB1_16:
	.loc	5 0 7                           @ ../ThirdParty/STM32F4xx_HAL_Driver/Src/stm32f4xx_hal_rcc.c:0:7
	b	.LBB1_17
.LBB1_17:
	.loc	5 266 7                         @ ../ThirdParty/STM32F4xx_HAL_Driver/Src/stm32f4xx_hal_rcc.c:266:7
	b	.LBB1_18
.Ltmp23:
.LBB1_18:
	.loc	5 269 11 is_stmt 1              @ ../ThirdParty/STM32F4xx_HAL_Driver/Src/stm32f4xx_hal_rcc.c:269:11
	ldr	r0, [sp, #16]
	.loc	5 269 30 is_stmt 0              @ ../ThirdParty/STM32F4xx_HAL_Driver/Src/stm32f4xx_hal_rcc.c:269:30
	ldr	r0, [r0, #4]
.Ltmp24:
	.loc	5 269 10                        @ ../ThirdParty/STM32F4xx_HAL_Driver/Src/stm32f4xx_hal_rcc.c:269:10
	cbz	r0, .LBB1_25
	b	.LBB1_19
.LBB1_19:
.Ltmp25:
	.loc	5 272 21 is_stmt 1              @ ../ThirdParty/STM32F4xx_HAL_Driver/Src/stm32f4xx_hal_rcc.c:272:21
	bl	HAL_GetTick
	.loc	5 272 19 is_stmt 0              @ ../ThirdParty/STM32F4xx_HAL_Driver/Src/stm32f4xx_hal_rcc.c:272:19
	str	r0, [sp, #12]
	.loc	5 275 9 is_stmt 1               @ ../ThirdParty/STM32F4xx_HAL_Driver/Src/stm32f4xx_hal_rcc.c:275:9
	b	.LBB1_20
.LBB1_20:                               @ =>This Inner Loop Header: Depth=1
	.loc	5 0 9 is_stmt 0                 @ ../ThirdParty/STM32F4xx_HAL_Driver/Src/stm32f4xx_hal_rcc.c:0:9
	movw	r0, #14336
	movt	r0, #16386
	.loc	5 275 15                        @ ../ThirdParty/STM32F4xx_HAL_Driver/Src/stm32f4xx_hal_rcc.c:275:15
	ldr	r0, [r0]
	and	r1, r0, #131072
	movs	r0, #0
	.loc	5 275 9                         @ ../ThirdParty/STM32F4xx_HAL_Driver/Src/stm32f4xx_hal_rcc.c:275:9
	cmp.w	r0, r1, lsr #17
	bne	.LBB1_24
	b	.LBB1_21
.LBB1_21:                               @   in Loop: Header=BB1_20 Depth=1
.Ltmp26:
	.loc	5 277 15 is_stmt 1              @ ../ThirdParty/STM32F4xx_HAL_Driver/Src/stm32f4xx_hal_rcc.c:277:15
	bl	HAL_GetTick
	.loc	5 277 31 is_stmt 0              @ ../ThirdParty/STM32F4xx_HAL_Driver/Src/stm32f4xx_hal_rcc.c:277:31
	ldr	r1, [sp, #12]
	.loc	5 277 29                        @ ../ThirdParty/STM32F4xx_HAL_Driver/Src/stm32f4xx_hal_rcc.c:277:29
	subs	r0, r0, r1
.Ltmp27:
	.loc	5 277 14                        @ ../ThirdParty/STM32F4xx_HAL_Driver/Src/stm32f4xx_hal_rcc.c:277:14
	cmp	r0, #101
	blo	.LBB1_23
	b	.LBB1_22
.LBB1_22:
	.loc	5 0 14                          @ ../ThirdParty/STM32F4xx_HAL_Driver/Src/stm32f4xx_hal_rcc.c:0:14
	movs	r0, #3
.Ltmp28:
	.loc	5 279 13 is_stmt 1              @ ../ThirdParty/STM32F4xx_HAL_Driver/Src/stm32f4xx_hal_rcc.c:279:13
	strb.w	r0, [sp, #23]
	b	.LBB1_132
.Ltmp29:
.LBB1_23:                               @   in Loop: Header=BB1_20 Depth=1
	.loc	5 275 9                         @ ../ThirdParty/STM32F4xx_HAL_Driver/Src/stm32f4xx_hal_rcc.c:275:9
	b	.LBB1_20
.LBB1_24:
	.loc	5 282 7                         @ ../ThirdParty/STM32F4xx_HAL_Driver/Src/stm32f4xx_hal_rcc.c:282:7
	b	.LBB1_31
.Ltmp30:
.LBB1_25:
	.loc	5 286 21                        @ ../ThirdParty/STM32F4xx_HAL_Driver/Src/stm32f4xx_hal_rcc.c:286:21
	bl	HAL_GetTick
	.loc	5 286 19 is_stmt 0              @ ../ThirdParty/STM32F4xx_HAL_Driver/Src/stm32f4xx_hal_rcc.c:286:19
	str	r0, [sp, #12]
	.loc	5 289 9 is_stmt 1               @ ../ThirdParty/STM32F4xx_HAL_Driver/Src/stm32f4xx_hal_rcc.c:289:9
	b	.LBB1_26
.LBB1_26:                               @ =>This Inner Loop Header: Depth=1
	.loc	5 0 9 is_stmt 0                 @ ../ThirdParty/STM32F4xx_HAL_Driver/Src/stm32f4xx_hal_rcc.c:0:9
	movw	r0, #14336
	movt	r0, #16386
	.loc	5 289 15                        @ ../ThirdParty/STM32F4xx_HAL_Driver/Src/stm32f4xx_hal_rcc.c:289:15
	ldr	r0, [r0]
	and	r1, r0, #131072
	movs	r0, #0
	.loc	5 289 9                         @ ../ThirdParty/STM32F4xx_HAL_Driver/Src/stm32f4xx_hal_rcc.c:289:9
	cmp.w	r0, r1, lsr #17
	beq	.LBB1_30
	b	.LBB1_27
.LBB1_27:                               @   in Loop: Header=BB1_26 Depth=1
.Ltmp31:
	.loc	5 291 15 is_stmt 1              @ ../ThirdParty/STM32F4xx_HAL_Driver/Src/stm32f4xx_hal_rcc.c:291:15
	bl	HAL_GetTick
	.loc	5 291 31 is_stmt 0              @ ../ThirdParty/STM32F4xx_HAL_Driver/Src/stm32f4xx_hal_rcc.c:291:31
	ldr	r1, [sp, #12]
	.loc	5 291 29                        @ ../ThirdParty/STM32F4xx_HAL_Driver/Src/stm32f4xx_hal_rcc.c:291:29
	subs	r0, r0, r1
.Ltmp32:
	.loc	5 291 14                        @ ../ThirdParty/STM32F4xx_HAL_Driver/Src/stm32f4xx_hal_rcc.c:291:14
	cmp	r0, #101
	blo	.LBB1_29
	b	.LBB1_28
.LBB1_28:
	.loc	5 0 14                          @ ../ThirdParty/STM32F4xx_HAL_Driver/Src/stm32f4xx_hal_rcc.c:0:14
	movs	r0, #3
.Ltmp33:
	.loc	5 293 13 is_stmt 1              @ ../ThirdParty/STM32F4xx_HAL_Driver/Src/stm32f4xx_hal_rcc.c:293:13
	strb.w	r0, [sp, #23]
	b	.LBB1_132
.Ltmp34:
.LBB1_29:                               @   in Loop: Header=BB1_26 Depth=1
	.loc	5 289 9                         @ ../ThirdParty/STM32F4xx_HAL_Driver/Src/stm32f4xx_hal_rcc.c:289:9
	b	.LBB1_26
.Ltmp35:
.LBB1_30:
	.loc	5 0 9 is_stmt 0                 @ ../ThirdParty/STM32F4xx_HAL_Driver/Src/stm32f4xx_hal_rcc.c:0:9
	b	.LBB1_31
.LBB1_31:
	b	.LBB1_32
.LBB1_32:
	.loc	5 298 3 is_stmt 1               @ ../ThirdParty/STM32F4xx_HAL_Driver/Src/stm32f4xx_hal_rcc.c:298:3
	b	.LBB1_33
.Ltmp36:
.LBB1_33:
	.loc	5 300 8                         @ ../ThirdParty/STM32F4xx_HAL_Driver/Src/stm32f4xx_hal_rcc.c:300:8
	ldr	r0, [sp, #16]
.Ltmp37:
	.loc	5 300 6 is_stmt 0               @ ../ThirdParty/STM32F4xx_HAL_Driver/Src/stm32f4xx_hal_rcc.c:300:6
	ldrb	r0, [r0]
	lsls	r0, r0, #30
	cmp	r0, #0
	bpl.w	.LBB1_57
	b	.LBB1_34
.LBB1_34:
	.loc	5 0 6                           @ ../ThirdParty/STM32F4xx_HAL_Driver/Src/stm32f4xx_hal_rcc.c:0:6
	movw	r0, #14344
	movt	r0, #16386
.Ltmp38:
	.loc	5 307 9 is_stmt 1               @ ../ThirdParty/STM32F4xx_HAL_Driver/Src/stm32f4xx_hal_rcc.c:307:9
	ldr	r0, [r0]
	.loc	5 307 60 is_stmt 0              @ ../ThirdParty/STM32F4xx_HAL_Driver/Src/stm32f4xx_hal_rcc.c:307:60
	tst.w	r0, #12
	beq	.LBB1_37
	b	.LBB1_35
.LBB1_35:
	.loc	5 0 60                          @ ../ThirdParty/STM32F4xx_HAL_Driver/Src/stm32f4xx_hal_rcc.c:0:60
	movw	r0, #14344
	movt	r0, #16386
	.loc	5 308 9 is_stmt 1               @ ../ThirdParty/STM32F4xx_HAL_Driver/Src/stm32f4xx_hal_rcc.c:308:9
	ldr	r0, [r0]
	and	r0, r0, #12
	.loc	5 308 60 is_stmt 0              @ ../ThirdParty/STM32F4xx_HAL_Driver/Src/stm32f4xx_hal_rcc.c:308:60
	cmp	r0, #8
	bne	.LBB1_42
	b	.LBB1_36
.LBB1_36:
	.loc	5 0 60                          @ ../ThirdParty/STM32F4xx_HAL_Driver/Src/stm32f4xx_hal_rcc.c:0:60
	movw	r0, #14340
	movt	r0, #16386
	.loc	5 308 70                        @ ../ThirdParty/STM32F4xx_HAL_Driver/Src/stm32f4xx_hal_rcc.c:308:70
	ldr	r0, [r0]
.Ltmp39:
	.loc	5 307 8 is_stmt 1               @ ../ThirdParty/STM32F4xx_HAL_Driver/Src/stm32f4xx_hal_rcc.c:307:8
	lsls	r0, r0, #9
	cmp	r0, #0
	bmi	.LBB1_42
	b	.LBB1_37
.LBB1_37:
	.loc	5 0 8 is_stmt 0                 @ ../ThirdParty/STM32F4xx_HAL_Driver/Src/stm32f4xx_hal_rcc.c:0:8
	movw	r0, #14336
	movt	r0, #16386
.Ltmp40:
	.loc	5 311 11 is_stmt 1              @ ../ThirdParty/STM32F4xx_HAL_Driver/Src/stm32f4xx_hal_rcc.c:311:11
	ldr	r0, [r0]
	and	r1, r0, #2
	movs	r0, #0
	.loc	5 311 57 is_stmt 0              @ ../ThirdParty/STM32F4xx_HAL_Driver/Src/stm32f4xx_hal_rcc.c:311:57
	cmp.w	r0, r1, lsr #1
	beq	.LBB1_40
	b	.LBB1_38
.LBB1_38:
	.loc	5 311 61                        @ ../ThirdParty/STM32F4xx_HAL_Driver/Src/stm32f4xx_hal_rcc.c:311:61
	ldr	r0, [sp, #16]
	.loc	5 311 80                        @ ../ThirdParty/STM32F4xx_HAL_Driver/Src/stm32f4xx_hal_rcc.c:311:80
	ldr	r0, [r0, #12]
.Ltmp41:
	.loc	5 311 10                        @ ../ThirdParty/STM32F4xx_HAL_Driver/Src/stm32f4xx_hal_rcc.c:311:10
	cmp	r0, #1
	beq	.LBB1_40
	b	.LBB1_39
.LBB1_39:
	.loc	5 0 10                          @ ../ThirdParty/STM32F4xx_HAL_Driver/Src/stm32f4xx_hal_rcc.c:0:10
	movs	r0, #1
.Ltmp42:
	.loc	5 313 9 is_stmt 1               @ ../ThirdParty/STM32F4xx_HAL_Driver/Src/stm32f4xx_hal_rcc.c:313:9
	strb.w	r0, [sp, #23]
	b	.LBB1_132
.Ltmp43:
.LBB1_40:
	.loc	5 0 9 is_stmt 0                 @ ../ThirdParty/STM32F4xx_HAL_Driver/Src/stm32f4xx_hal_rcc.c:0:9
	movw	r1, #14336
	movt	r1, #16386
.Ltmp44:
	.loc	5 319 9 is_stmt 1               @ ../ThirdParty/STM32F4xx_HAL_Driver/Src/stm32f4xx_hal_rcc.c:319:9
	ldr	r0, [r1]
	bic	r0, r0, #248
	ldr	r2, [sp, #16]
	ldr	r2, [r2, #16]
	orr.w	r0, r0, r2, lsl #3
	str	r0, [r1]
	b	.LBB1_41
.Ltmp45:
.LBB1_41:
	.loc	5 321 5                         @ ../ThirdParty/STM32F4xx_HAL_Driver/Src/stm32f4xx_hal_rcc.c:321:5
	b	.LBB1_56
.Ltmp46:
.LBB1_42:
	.loc	5 325 11                        @ ../ThirdParty/STM32F4xx_HAL_Driver/Src/stm32f4xx_hal_rcc.c:325:11
	ldr	r0, [sp, #16]
	.loc	5 325 30 is_stmt 0              @ ../ThirdParty/STM32F4xx_HAL_Driver/Src/stm32f4xx_hal_rcc.c:325:30
	ldr	r0, [r0, #12]
.Ltmp47:
	.loc	5 325 10                        @ ../ThirdParty/STM32F4xx_HAL_Driver/Src/stm32f4xx_hal_rcc.c:325:10
	cbz	r0, .LBB1_49
	b	.LBB1_43
.LBB1_43:
	.loc	5 0 10                          @ ../ThirdParty/STM32F4xx_HAL_Driver/Src/stm32f4xx_hal_rcc.c:0:10
	movs	r1, #0
	movt	r1, #16967
	movs	r0, #1
.Ltmp48:
	.loc	5 328 9 is_stmt 1               @ ../ThirdParty/STM32F4xx_HAL_Driver/Src/stm32f4xx_hal_rcc.c:328:9
	str	r0, [r1]
	.loc	5 331 21                        @ ../ThirdParty/STM32F4xx_HAL_Driver/Src/stm32f4xx_hal_rcc.c:331:21
	bl	HAL_GetTick
	.loc	5 331 19 is_stmt 0              @ ../ThirdParty/STM32F4xx_HAL_Driver/Src/stm32f4xx_hal_rcc.c:331:19
	str	r0, [sp, #12]
	.loc	5 334 9 is_stmt 1               @ ../ThirdParty/STM32F4xx_HAL_Driver/Src/stm32f4xx_hal_rcc.c:334:9
	b	.LBB1_44
.LBB1_44:                               @ =>This Inner Loop Header: Depth=1
	.loc	5 0 9 is_stmt 0                 @ ../ThirdParty/STM32F4xx_HAL_Driver/Src/stm32f4xx_hal_rcc.c:0:9
	movw	r0, #14336
	movt	r0, #16386
	.loc	5 334 15                        @ ../ThirdParty/STM32F4xx_HAL_Driver/Src/stm32f4xx_hal_rcc.c:334:15
	ldr	r0, [r0]
	and	r1, r0, #2
	movs	r0, #0
	.loc	5 334 9                         @ ../ThirdParty/STM32F4xx_HAL_Driver/Src/stm32f4xx_hal_rcc.c:334:9
	cmp.w	r0, r1, lsr #1
	bne	.LBB1_48
	b	.LBB1_45
.LBB1_45:                               @   in Loop: Header=BB1_44 Depth=1
.Ltmp49:
	.loc	5 336 15 is_stmt 1              @ ../ThirdParty/STM32F4xx_HAL_Driver/Src/stm32f4xx_hal_rcc.c:336:15
	bl	HAL_GetTick
	.loc	5 336 31 is_stmt 0              @ ../ThirdParty/STM32F4xx_HAL_Driver/Src/stm32f4xx_hal_rcc.c:336:31
	ldr	r1, [sp, #12]
	.loc	5 336 29                        @ ../ThirdParty/STM32F4xx_HAL_Driver/Src/stm32f4xx_hal_rcc.c:336:29
	subs	r0, r0, r1
.Ltmp50:
	.loc	5 336 14                        @ ../ThirdParty/STM32F4xx_HAL_Driver/Src/stm32f4xx_hal_rcc.c:336:14
	cmp	r0, #3
	blo	.LBB1_47
	b	.LBB1_46
.LBB1_46:
	.loc	5 0 14                          @ ../ThirdParty/STM32F4xx_HAL_Driver/Src/stm32f4xx_hal_rcc.c:0:14
	movs	r0, #3
.Ltmp51:
	.loc	5 338 13 is_stmt 1              @ ../ThirdParty/STM32F4xx_HAL_Driver/Src/stm32f4xx_hal_rcc.c:338:13
	strb.w	r0, [sp, #23]
	b	.LBB1_132
.Ltmp52:
.LBB1_47:                               @   in Loop: Header=BB1_44 Depth=1
	.loc	5 334 9                         @ ../ThirdParty/STM32F4xx_HAL_Driver/Src/stm32f4xx_hal_rcc.c:334:9
	b	.LBB1_44
.LBB1_48:
	.loc	5 0 9 is_stmt 0                 @ ../ThirdParty/STM32F4xx_HAL_Driver/Src/stm32f4xx_hal_rcc.c:0:9
	movw	r1, #14336
	movt	r1, #16386
	.loc	5 343 9 is_stmt 1               @ ../ThirdParty/STM32F4xx_HAL_Driver/Src/stm32f4xx_hal_rcc.c:343:9
	ldr	r0, [r1]
	bic	r0, r0, #248
	ldr	r2, [sp, #16]
	ldr	r2, [r2, #16]
	orr.w	r0, r0, r2, lsl #3
	str	r0, [r1]
	.loc	5 344 7                         @ ../ThirdParty/STM32F4xx_HAL_Driver/Src/stm32f4xx_hal_rcc.c:344:7
	b	.LBB1_55
.Ltmp53:
.LBB1_49:
	.loc	5 0 7 is_stmt 0                 @ ../ThirdParty/STM32F4xx_HAL_Driver/Src/stm32f4xx_hal_rcc.c:0:7
	movs	r1, #0
	movt	r1, #16967
	movs	r0, #0
.Ltmp54:
	.loc	5 348 9 is_stmt 1               @ ../ThirdParty/STM32F4xx_HAL_Driver/Src/stm32f4xx_hal_rcc.c:348:9
	str	r0, [r1]
	.loc	5 351 21                        @ ../ThirdParty/STM32F4xx_HAL_Driver/Src/stm32f4xx_hal_rcc.c:351:21
	bl	HAL_GetTick
	.loc	5 351 19 is_stmt 0              @ ../ThirdParty/STM32F4xx_HAL_Driver/Src/stm32f4xx_hal_rcc.c:351:19
	str	r0, [sp, #12]
	.loc	5 354 9 is_stmt 1               @ ../ThirdParty/STM32F4xx_HAL_Driver/Src/stm32f4xx_hal_rcc.c:354:9
	b	.LBB1_50
.LBB1_50:                               @ =>This Inner Loop Header: Depth=1
	.loc	5 0 9 is_stmt 0                 @ ../ThirdParty/STM32F4xx_HAL_Driver/Src/stm32f4xx_hal_rcc.c:0:9
	movw	r0, #14336
	movt	r0, #16386
	.loc	5 354 15                        @ ../ThirdParty/STM32F4xx_HAL_Driver/Src/stm32f4xx_hal_rcc.c:354:15
	ldr	r0, [r0]
	and	r1, r0, #2
	movs	r0, #0
	.loc	5 354 9                         @ ../ThirdParty/STM32F4xx_HAL_Driver/Src/stm32f4xx_hal_rcc.c:354:9
	cmp.w	r0, r1, lsr #1
	beq	.LBB1_54
	b	.LBB1_51
.LBB1_51:                               @   in Loop: Header=BB1_50 Depth=1
.Ltmp55:
	.loc	5 356 15 is_stmt 1              @ ../ThirdParty/STM32F4xx_HAL_Driver/Src/stm32f4xx_hal_rcc.c:356:15
	bl	HAL_GetTick
	.loc	5 356 31 is_stmt 0              @ ../ThirdParty/STM32F4xx_HAL_Driver/Src/stm32f4xx_hal_rcc.c:356:31
	ldr	r1, [sp, #12]
	.loc	5 356 29                        @ ../ThirdParty/STM32F4xx_HAL_Driver/Src/stm32f4xx_hal_rcc.c:356:29
	subs	r0, r0, r1
.Ltmp56:
	.loc	5 356 14                        @ ../ThirdParty/STM32F4xx_HAL_Driver/Src/stm32f4xx_hal_rcc.c:356:14
	cmp	r0, #3
	blo	.LBB1_53
	b	.LBB1_52
.LBB1_52:
	.loc	5 0 14                          @ ../ThirdParty/STM32F4xx_HAL_Driver/Src/stm32f4xx_hal_rcc.c:0:14
	movs	r0, #3
.Ltmp57:
	.loc	5 358 13 is_stmt 1              @ ../ThirdParty/STM32F4xx_HAL_Driver/Src/stm32f4xx_hal_rcc.c:358:13
	strb.w	r0, [sp, #23]
	b	.LBB1_132
.Ltmp58:
.LBB1_53:                               @   in Loop: Header=BB1_50 Depth=1
	.loc	5 354 9                         @ ../ThirdParty/STM32F4xx_HAL_Driver/Src/stm32f4xx_hal_rcc.c:354:9
	b	.LBB1_50
.Ltmp59:
.LBB1_54:
	.loc	5 0 9 is_stmt 0                 @ ../ThirdParty/STM32F4xx_HAL_Driver/Src/stm32f4xx_hal_rcc.c:0:9
	b	.LBB1_55
.LBB1_55:
	b	.LBB1_56
.LBB1_56:
	.loc	5 363 3 is_stmt 1               @ ../ThirdParty/STM32F4xx_HAL_Driver/Src/stm32f4xx_hal_rcc.c:363:3
	b	.LBB1_57
.Ltmp60:
.LBB1_57:
	.loc	5 365 8                         @ ../ThirdParty/STM32F4xx_HAL_Driver/Src/stm32f4xx_hal_rcc.c:365:8
	ldr	r0, [sp, #16]
.Ltmp61:
	.loc	5 365 6 is_stmt 0               @ ../ThirdParty/STM32F4xx_HAL_Driver/Src/stm32f4xx_hal_rcc.c:365:6
	ldrb	r0, [r0]
	lsls	r0, r0, #28
	cmp	r0, #0
	bpl	.LBB1_72
	b	.LBB1_58
.LBB1_58:
.Ltmp62:
	.loc	5 371 9 is_stmt 1               @ ../ThirdParty/STM32F4xx_HAL_Driver/Src/stm32f4xx_hal_rcc.c:371:9
	ldr	r0, [sp, #16]
	.loc	5 371 28 is_stmt 0              @ ../ThirdParty/STM32F4xx_HAL_Driver/Src/stm32f4xx_hal_rcc.c:371:28
	ldr	r0, [r0, #20]
.Ltmp63:
	.loc	5 371 8                         @ ../ThirdParty/STM32F4xx_HAL_Driver/Src/stm32f4xx_hal_rcc.c:371:8
	cbz	r0, .LBB1_65
	b	.LBB1_59
.LBB1_59:
	.loc	5 0 8                           @ ../ThirdParty/STM32F4xx_HAL_Driver/Src/stm32f4xx_hal_rcc.c:0:8
	movw	r1, #3712
	movt	r1, #16967
	movs	r0, #1
.Ltmp64:
	.loc	5 374 7 is_stmt 1               @ ../ThirdParty/STM32F4xx_HAL_Driver/Src/stm32f4xx_hal_rcc.c:374:7
	str	r0, [r1]
	.loc	5 377 19                        @ ../ThirdParty/STM32F4xx_HAL_Driver/Src/stm32f4xx_hal_rcc.c:377:19
	bl	HAL_GetTick
	.loc	5 377 17 is_stmt 0              @ ../ThirdParty/STM32F4xx_HAL_Driver/Src/stm32f4xx_hal_rcc.c:377:17
	str	r0, [sp, #12]
	.loc	5 380 7 is_stmt 1               @ ../ThirdParty/STM32F4xx_HAL_Driver/Src/stm32f4xx_hal_rcc.c:380:7
	b	.LBB1_60
.LBB1_60:                               @ =>This Inner Loop Header: Depth=1
	.loc	5 0 7 is_stmt 0                 @ ../ThirdParty/STM32F4xx_HAL_Driver/Src/stm32f4xx_hal_rcc.c:0:7
	movw	r0, #14452
	movt	r0, #16386
	.loc	5 380 13                        @ ../ThirdParty/STM32F4xx_HAL_Driver/Src/stm32f4xx_hal_rcc.c:380:13
	ldr	r0, [r0]
	and	r1, r0, #2
	movs	r0, #0
	.loc	5 380 7                         @ ../ThirdParty/STM32F4xx_HAL_Driver/Src/stm32f4xx_hal_rcc.c:380:7
	cmp.w	r0, r1, lsr #1
	bne	.LBB1_64
	b	.LBB1_61
.LBB1_61:                               @   in Loop: Header=BB1_60 Depth=1
.Ltmp65:
	.loc	5 382 13 is_stmt 1              @ ../ThirdParty/STM32F4xx_HAL_Driver/Src/stm32f4xx_hal_rcc.c:382:13
	bl	HAL_GetTick
	.loc	5 382 29 is_stmt 0              @ ../ThirdParty/STM32F4xx_HAL_Driver/Src/stm32f4xx_hal_rcc.c:382:29
	ldr	r1, [sp, #12]
	.loc	5 382 27                        @ ../ThirdParty/STM32F4xx_HAL_Driver/Src/stm32f4xx_hal_rcc.c:382:27
	subs	r0, r0, r1
.Ltmp66:
	.loc	5 382 12                        @ ../ThirdParty/STM32F4xx_HAL_Driver/Src/stm32f4xx_hal_rcc.c:382:12
	cmp	r0, #3
	blo	.LBB1_63
	b	.LBB1_62
.LBB1_62:
	.loc	5 0 12                          @ ../ThirdParty/STM32F4xx_HAL_Driver/Src/stm32f4xx_hal_rcc.c:0:12
	movs	r0, #3
.Ltmp67:
	.loc	5 384 11 is_stmt 1              @ ../ThirdParty/STM32F4xx_HAL_Driver/Src/stm32f4xx_hal_rcc.c:384:11
	strb.w	r0, [sp, #23]
	b	.LBB1_132
.Ltmp68:
.LBB1_63:                               @   in Loop: Header=BB1_60 Depth=1
	.loc	5 380 7                         @ ../ThirdParty/STM32F4xx_HAL_Driver/Src/stm32f4xx_hal_rcc.c:380:7
	b	.LBB1_60
.LBB1_64:
	.loc	5 387 5                         @ ../ThirdParty/STM32F4xx_HAL_Driver/Src/stm32f4xx_hal_rcc.c:387:5
	b	.LBB1_71
.Ltmp69:
.LBB1_65:
	.loc	5 0 5 is_stmt 0                 @ ../ThirdParty/STM32F4xx_HAL_Driver/Src/stm32f4xx_hal_rcc.c:0:5
	movw	r1, #3712
	movt	r1, #16967
	movs	r0, #0
.Ltmp70:
	.loc	5 391 7 is_stmt 1               @ ../ThirdParty/STM32F4xx_HAL_Driver/Src/stm32f4xx_hal_rcc.c:391:7
	str	r0, [r1]
	.loc	5 394 19                        @ ../ThirdParty/STM32F4xx_HAL_Driver/Src/stm32f4xx_hal_rcc.c:394:19
	bl	HAL_GetTick
	.loc	5 394 17 is_stmt 0              @ ../ThirdParty/STM32F4xx_HAL_Driver/Src/stm32f4xx_hal_rcc.c:394:17
	str	r0, [sp, #12]
	.loc	5 397 7 is_stmt 1               @ ../ThirdParty/STM32F4xx_HAL_Driver/Src/stm32f4xx_hal_rcc.c:397:7
	b	.LBB1_66
.LBB1_66:                               @ =>This Inner Loop Header: Depth=1
	.loc	5 0 7 is_stmt 0                 @ ../ThirdParty/STM32F4xx_HAL_Driver/Src/stm32f4xx_hal_rcc.c:0:7
	movw	r0, #14452
	movt	r0, #16386
	.loc	5 397 13                        @ ../ThirdParty/STM32F4xx_HAL_Driver/Src/stm32f4xx_hal_rcc.c:397:13
	ldr	r0, [r0]
	and	r1, r0, #2
	movs	r0, #0
	.loc	5 397 7                         @ ../ThirdParty/STM32F4xx_HAL_Driver/Src/stm32f4xx_hal_rcc.c:397:7
	cmp.w	r0, r1, lsr #1
	beq	.LBB1_70
	b	.LBB1_67
.LBB1_67:                               @   in Loop: Header=BB1_66 Depth=1
.Ltmp71:
	.loc	5 399 13 is_stmt 1              @ ../ThirdParty/STM32F4xx_HAL_Driver/Src/stm32f4xx_hal_rcc.c:399:13
	bl	HAL_GetTick
	.loc	5 399 29 is_stmt 0              @ ../ThirdParty/STM32F4xx_HAL_Driver/Src/stm32f4xx_hal_rcc.c:399:29
	ldr	r1, [sp, #12]
	.loc	5 399 27                        @ ../ThirdParty/STM32F4xx_HAL_Driver/Src/stm32f4xx_hal_rcc.c:399:27
	subs	r0, r0, r1
.Ltmp72:
	.loc	5 399 12                        @ ../ThirdParty/STM32F4xx_HAL_Driver/Src/stm32f4xx_hal_rcc.c:399:12
	cmp	r0, #3
	blo	.LBB1_69
	b	.LBB1_68
.LBB1_68:
	.loc	5 0 12                          @ ../ThirdParty/STM32F4xx_HAL_Driver/Src/stm32f4xx_hal_rcc.c:0:12
	movs	r0, #3
.Ltmp73:
	.loc	5 401 11 is_stmt 1              @ ../ThirdParty/STM32F4xx_HAL_Driver/Src/stm32f4xx_hal_rcc.c:401:11
	strb.w	r0, [sp, #23]
	b	.LBB1_132
.Ltmp74:
.LBB1_69:                               @   in Loop: Header=BB1_66 Depth=1
	.loc	5 397 7                         @ ../ThirdParty/STM32F4xx_HAL_Driver/Src/stm32f4xx_hal_rcc.c:397:7
	b	.LBB1_66
.Ltmp75:
.LBB1_70:
	.loc	5 0 7 is_stmt 0                 @ ../ThirdParty/STM32F4xx_HAL_Driver/Src/stm32f4xx_hal_rcc.c:0:7
	b	.LBB1_71
.LBB1_71:
	.loc	5 405 3 is_stmt 1               @ ../ThirdParty/STM32F4xx_HAL_Driver/Src/stm32f4xx_hal_rcc.c:405:3
	b	.LBB1_72
.Ltmp76:
.LBB1_72:
	.loc	5 407 8                         @ ../ThirdParty/STM32F4xx_HAL_Driver/Src/stm32f4xx_hal_rcc.c:407:8
	ldr	r0, [sp, #16]
.Ltmp77:
	.loc	5 407 6 is_stmt 0               @ ../ThirdParty/STM32F4xx_HAL_Driver/Src/stm32f4xx_hal_rcc.c:407:6
	ldrb	r0, [r0]
	lsls	r0, r0, #29
	cmp	r0, #0
	bpl.w	.LBB1_108
	b	.LBB1_73
.LBB1_73:
	.loc	5 0 6                           @ ../ThirdParty/STM32F4xx_HAL_Driver/Src/stm32f4xx_hal_rcc.c:0:6
	movs	r0, #0
.Ltmp78:
	.loc	5 409 22 is_stmt 1              @ ../ThirdParty/STM32F4xx_HAL_Driver/Src/stm32f4xx_hal_rcc.c:409:22
	strb.w	r0, [sp, #11]
	movw	r0, #14400
	movt	r0, #16386
.Ltmp79:
	.loc	5 416 8                         @ ../ThirdParty/STM32F4xx_HAL_Driver/Src/stm32f4xx_hal_rcc.c:416:8
	ldr	r0, [r0]
.Ltmp80:
	.loc	5 416 8 is_stmt 0               @ ../ThirdParty/STM32F4xx_HAL_Driver/Src/stm32f4xx_hal_rcc.c:416:8
	lsls	r0, r0, #3
	cmp	r0, #0
	bmi	.LBB1_77
	b	.LBB1_74
.LBB1_74:
.Ltmp81:
	.loc	5 418 7 is_stmt 1               @ ../ThirdParty/STM32F4xx_HAL_Driver/Src/stm32f4xx_hal_rcc.c:418:7
	b	.LBB1_75
.LBB1_75:
	.loc	5 0 7 is_stmt 0                 @ ../ThirdParty/STM32F4xx_HAL_Driver/Src/stm32f4xx_hal_rcc.c:0:7
	movs	r0, #0
.Ltmp82:
	.loc	5 418 7                         @ ../ThirdParty/STM32F4xx_HAL_Driver/Src/stm32f4xx_hal_rcc.c:418:7
	str	r0, [sp, #4]
	movw	r0, #14400
	movt	r0, #16386
	ldr	r1, [r0]
	orr	r1, r1, #268435456
	str	r1, [r0]
	ldr	r0, [r0]
	and	r0, r0, #268435456
	str	r0, [sp, #4]
	ldr	r0, [sp, #4]
	b	.LBB1_76
.Ltmp83:
.LBB1_76:
	.loc	5 0 7                           @ ../ThirdParty/STM32F4xx_HAL_Driver/Src/stm32f4xx_hal_rcc.c:0:7
	movs	r0, #1
	.loc	5 419 21 is_stmt 1              @ ../ThirdParty/STM32F4xx_HAL_Driver/Src/stm32f4xx_hal_rcc.c:419:21
	strb.w	r0, [sp, #11]
	.loc	5 420 5                         @ ../ThirdParty/STM32F4xx_HAL_Driver/Src/stm32f4xx_hal_rcc.c:420:5
	b	.LBB1_77
.Ltmp84:
.LBB1_77:
	.loc	5 0 5 is_stmt 0                 @ ../ThirdParty/STM32F4xx_HAL_Driver/Src/stm32f4xx_hal_rcc.c:0:5
	movw	r0, #28672
	movt	r0, #16384
.Ltmp85:
	.loc	5 422 8 is_stmt 1               @ ../ThirdParty/STM32F4xx_HAL_Driver/Src/stm32f4xx_hal_rcc.c:422:8
	ldr	r0, [r0]
.Ltmp86:
	.loc	5 422 8 is_stmt 0               @ ../ThirdParty/STM32F4xx_HAL_Driver/Src/stm32f4xx_hal_rcc.c:422:8
	lsls	r0, r0, #23
	cmp	r0, #0
	bmi	.LBB1_84
	b	.LBB1_78
.LBB1_78:
	.loc	5 0 8                           @ ../ThirdParty/STM32F4xx_HAL_Driver/Src/stm32f4xx_hal_rcc.c:0:8
	movw	r1, #28672
	movt	r1, #16384
.Ltmp87:
	.loc	5 425 7 is_stmt 1               @ ../ThirdParty/STM32F4xx_HAL_Driver/Src/stm32f4xx_hal_rcc.c:425:7
	ldr	r0, [r1]
	orr	r0, r0, #256
	str	r0, [r1]
	.loc	5 428 19                        @ ../ThirdParty/STM32F4xx_HAL_Driver/Src/stm32f4xx_hal_rcc.c:428:19
	bl	HAL_GetTick
	.loc	5 428 17 is_stmt 0              @ ../ThirdParty/STM32F4xx_HAL_Driver/Src/stm32f4xx_hal_rcc.c:428:17
	str	r0, [sp, #12]
	.loc	5 430 7 is_stmt 1               @ ../ThirdParty/STM32F4xx_HAL_Driver/Src/stm32f4xx_hal_rcc.c:430:7
	b	.LBB1_79
.LBB1_79:                               @ =>This Inner Loop Header: Depth=1
	.loc	5 0 7 is_stmt 0                 @ ../ThirdParty/STM32F4xx_HAL_Driver/Src/stm32f4xx_hal_rcc.c:0:7
	movw	r0, #28672
	movt	r0, #16384
	.loc	5 430 13                        @ ../ThirdParty/STM32F4xx_HAL_Driver/Src/stm32f4xx_hal_rcc.c:430:13
	ldr	r0, [r0]
	.loc	5 430 7                         @ ../ThirdParty/STM32F4xx_HAL_Driver/Src/stm32f4xx_hal_rcc.c:430:7
	lsls	r0, r0, #23
	cmp	r0, #0
	bmi	.LBB1_83
	b	.LBB1_80
.LBB1_80:                               @   in Loop: Header=BB1_79 Depth=1
.Ltmp88:
	.loc	5 432 13 is_stmt 1              @ ../ThirdParty/STM32F4xx_HAL_Driver/Src/stm32f4xx_hal_rcc.c:432:13
	bl	HAL_GetTick
	.loc	5 432 29 is_stmt 0              @ ../ThirdParty/STM32F4xx_HAL_Driver/Src/stm32f4xx_hal_rcc.c:432:29
	ldr	r1, [sp, #12]
	.loc	5 432 27                        @ ../ThirdParty/STM32F4xx_HAL_Driver/Src/stm32f4xx_hal_rcc.c:432:27
	subs	r0, r0, r1
.Ltmp89:
	.loc	5 432 12                        @ ../ThirdParty/STM32F4xx_HAL_Driver/Src/stm32f4xx_hal_rcc.c:432:12
	cmp	r0, #3
	blo	.LBB1_82
	b	.LBB1_81
.LBB1_81:
	.loc	5 0 12                          @ ../ThirdParty/STM32F4xx_HAL_Driver/Src/stm32f4xx_hal_rcc.c:0:12
	movs	r0, #3
.Ltmp90:
	.loc	5 434 11 is_stmt 1              @ ../ThirdParty/STM32F4xx_HAL_Driver/Src/stm32f4xx_hal_rcc.c:434:11
	strb.w	r0, [sp, #23]
	b	.LBB1_132
.Ltmp91:
.LBB1_82:                               @   in Loop: Header=BB1_79 Depth=1
	.loc	5 430 7                         @ ../ThirdParty/STM32F4xx_HAL_Driver/Src/stm32f4xx_hal_rcc.c:430:7
	b	.LBB1_79
.LBB1_83:
	.loc	5 437 5                         @ ../ThirdParty/STM32F4xx_HAL_Driver/Src/stm32f4xx_hal_rcc.c:437:5
	b	.LBB1_84
.Ltmp92:
.LBB1_84:
	.loc	5 440 5                         @ ../ThirdParty/STM32F4xx_HAL_Driver/Src/stm32f4xx_hal_rcc.c:440:5
	b	.LBB1_85
.LBB1_85:
.Ltmp93:
	.loc	5 440 5 is_stmt 0               @ ../ThirdParty/STM32F4xx_HAL_Driver/Src/stm32f4xx_hal_rcc.c:440:5
	ldr	r0, [sp, #16]
	ldr	r0, [r0, #8]
.Ltmp94:
	.loc	5 440 5                         @ ../ThirdParty/STM32F4xx_HAL_Driver/Src/stm32f4xx_hal_rcc.c:440:5
	cmp	r0, #1
	bne	.LBB1_87
	b	.LBB1_86
.LBB1_86:
	.loc	5 0 5                           @ ../ThirdParty/STM32F4xx_HAL_Driver/Src/stm32f4xx_hal_rcc.c:0:5
	movw	r1, #14448
	movt	r1, #16386
.Ltmp95:
	.loc	5 440 5                         @ ../ThirdParty/STM32F4xx_HAL_Driver/Src/stm32f4xx_hal_rcc.c:440:5
	ldr	r0, [r1]
	orr	r0, r0, #1
	str	r0, [r1]
	b	.LBB1_91
.Ltmp96:
.LBB1_87:
	.loc	5 440 5                         @ ../ThirdParty/STM32F4xx_HAL_Driver/Src/stm32f4xx_hal_rcc.c:440:5
	ldr	r0, [sp, #16]
	ldr	r0, [r0, #8]
.Ltmp97:
	.loc	5 440 5                         @ ../ThirdParty/STM32F4xx_HAL_Driver/Src/stm32f4xx_hal_rcc.c:440:5
	cmp	r0, #5
	bne	.LBB1_89
	b	.LBB1_88
.LBB1_88:
	.loc	5 0 5                           @ ../ThirdParty/STM32F4xx_HAL_Driver/Src/stm32f4xx_hal_rcc.c:0:5
	movw	r1, #14448
	movt	r1, #16386
.Ltmp98:
	.loc	5 440 5                         @ ../ThirdParty/STM32F4xx_HAL_Driver/Src/stm32f4xx_hal_rcc.c:440:5
	ldr	r0, [r1]
	orr	r0, r0, #4
	str	r0, [r1]
	ldr	r0, [r1]
	orr	r0, r0, #1
	str	r0, [r1]
	b	.LBB1_90
.Ltmp99:
.LBB1_89:
	.loc	5 0 5                           @ ../ThirdParty/STM32F4xx_HAL_Driver/Src/stm32f4xx_hal_rcc.c:0:5
	movw	r1, #14448
	movt	r1, #16386
.Ltmp100:
	.loc	5 440 5                         @ ../ThirdParty/STM32F4xx_HAL_Driver/Src/stm32f4xx_hal_rcc.c:440:5
	ldr	r0, [r1]
	bic	r0, r0, #1
	str	r0, [r1]
	ldr	r0, [r1]
	bic	r0, r0, #4
	str	r0, [r1]
	b	.LBB1_90
.Ltmp101:
.LBB1_90:
	.loc	5 0 5                           @ ../ThirdParty/STM32F4xx_HAL_Driver/Src/stm32f4xx_hal_rcc.c:0:5
	b	.LBB1_91
.LBB1_91:
	.loc	5 440 5                         @ ../ThirdParty/STM32F4xx_HAL_Driver/Src/stm32f4xx_hal_rcc.c:440:5
	b	.LBB1_92
.Ltmp102:
.LBB1_92:
	.loc	5 442 9 is_stmt 1               @ ../ThirdParty/STM32F4xx_HAL_Driver/Src/stm32f4xx_hal_rcc.c:442:9
	ldr	r0, [sp, #16]
	.loc	5 442 28 is_stmt 0              @ ../ThirdParty/STM32F4xx_HAL_Driver/Src/stm32f4xx_hal_rcc.c:442:28
	ldr	r0, [r0, #8]
.Ltmp103:
	.loc	5 442 8                         @ ../ThirdParty/STM32F4xx_HAL_Driver/Src/stm32f4xx_hal_rcc.c:442:8
	cbz	r0, .LBB1_99
	b	.LBB1_93
.LBB1_93:
.Ltmp104:
	.loc	5 445 19 is_stmt 1              @ ../ThirdParty/STM32F4xx_HAL_Driver/Src/stm32f4xx_hal_rcc.c:445:19
	bl	HAL_GetTick
	.loc	5 445 17 is_stmt 0              @ ../ThirdParty/STM32F4xx_HAL_Driver/Src/stm32f4xx_hal_rcc.c:445:17
	str	r0, [sp, #12]
	.loc	5 448 7 is_stmt 1               @ ../ThirdParty/STM32F4xx_HAL_Driver/Src/stm32f4xx_hal_rcc.c:448:7
	b	.LBB1_94
.LBB1_94:                               @ =>This Inner Loop Header: Depth=1
	.loc	5 0 7 is_stmt 0                 @ ../ThirdParty/STM32F4xx_HAL_Driver/Src/stm32f4xx_hal_rcc.c:0:7
	movw	r0, #14448
	movt	r0, #16386
	.loc	5 448 13                        @ ../ThirdParty/STM32F4xx_HAL_Driver/Src/stm32f4xx_hal_rcc.c:448:13
	ldr	r0, [r0]
	and	r1, r0, #2
	movs	r0, #0
	.loc	5 448 7                         @ ../ThirdParty/STM32F4xx_HAL_Driver/Src/stm32f4xx_hal_rcc.c:448:7
	cmp.w	r0, r1, lsr #1
	bne	.LBB1_98
	b	.LBB1_95
.LBB1_95:                               @   in Loop: Header=BB1_94 Depth=1
.Ltmp105:
	.loc	5 450 13 is_stmt 1              @ ../ThirdParty/STM32F4xx_HAL_Driver/Src/stm32f4xx_hal_rcc.c:450:13
	bl	HAL_GetTick
	.loc	5 450 29 is_stmt 0              @ ../ThirdParty/STM32F4xx_HAL_Driver/Src/stm32f4xx_hal_rcc.c:450:29
	ldr	r1, [sp, #12]
	.loc	5 450 27                        @ ../ThirdParty/STM32F4xx_HAL_Driver/Src/stm32f4xx_hal_rcc.c:450:27
	subs	r0, r0, r1
	movw	r1, #5001
.Ltmp106:
	.loc	5 450 12                        @ ../ThirdParty/STM32F4xx_HAL_Driver/Src/stm32f4xx_hal_rcc.c:450:12
	cmp	r0, r1
	blo	.LBB1_97
	b	.LBB1_96
.LBB1_96:
	.loc	5 0 12                          @ ../ThirdParty/STM32F4xx_HAL_Driver/Src/stm32f4xx_hal_rcc.c:0:12
	movs	r0, #3
.Ltmp107:
	.loc	5 452 11 is_stmt 1              @ ../ThirdParty/STM32F4xx_HAL_Driver/Src/stm32f4xx_hal_rcc.c:452:11
	strb.w	r0, [sp, #23]
	b	.LBB1_132
.Ltmp108:
.LBB1_97:                               @   in Loop: Header=BB1_94 Depth=1
	.loc	5 448 7                         @ ../ThirdParty/STM32F4xx_HAL_Driver/Src/stm32f4xx_hal_rcc.c:448:7
	b	.LBB1_94
.LBB1_98:
	.loc	5 455 5                         @ ../ThirdParty/STM32F4xx_HAL_Driver/Src/stm32f4xx_hal_rcc.c:455:5
	b	.LBB1_105
.Ltmp109:
.LBB1_99:
	.loc	5 459 19                        @ ../ThirdParty/STM32F4xx_HAL_Driver/Src/stm32f4xx_hal_rcc.c:459:19
	bl	HAL_GetTick
	.loc	5 459 17 is_stmt 0              @ ../ThirdParty/STM32F4xx_HAL_Driver/Src/stm32f4xx_hal_rcc.c:459:17
	str	r0, [sp, #12]
	.loc	5 462 7 is_stmt 1               @ ../ThirdParty/STM32F4xx_HAL_Driver/Src/stm32f4xx_hal_rcc.c:462:7
	b	.LBB1_100
.LBB1_100:                              @ =>This Inner Loop Header: Depth=1
	.loc	5 0 7 is_stmt 0                 @ ../ThirdParty/STM32F4xx_HAL_Driver/Src/stm32f4xx_hal_rcc.c:0:7
	movw	r0, #14448
	movt	r0, #16386
	.loc	5 462 13                        @ ../ThirdParty/STM32F4xx_HAL_Driver/Src/stm32f4xx_hal_rcc.c:462:13
	ldr	r0, [r0]
	and	r1, r0, #2
	movs	r0, #0
	.loc	5 462 7                         @ ../ThirdParty/STM32F4xx_HAL_Driver/Src/stm32f4xx_hal_rcc.c:462:7
	cmp.w	r0, r1, lsr #1
	beq	.LBB1_104
	b	.LBB1_101
.LBB1_101:                              @   in Loop: Header=BB1_100 Depth=1
.Ltmp110:
	.loc	5 464 13 is_stmt 1              @ ../ThirdParty/STM32F4xx_HAL_Driver/Src/stm32f4xx_hal_rcc.c:464:13
	bl	HAL_GetTick
	.loc	5 464 29 is_stmt 0              @ ../ThirdParty/STM32F4xx_HAL_Driver/Src/stm32f4xx_hal_rcc.c:464:29
	ldr	r1, [sp, #12]
	.loc	5 464 27                        @ ../ThirdParty/STM32F4xx_HAL_Driver/Src/stm32f4xx_hal_rcc.c:464:27
	subs	r0, r0, r1
	movw	r1, #5001
.Ltmp111:
	.loc	5 464 12                        @ ../ThirdParty/STM32F4xx_HAL_Driver/Src/stm32f4xx_hal_rcc.c:464:12
	cmp	r0, r1
	blo	.LBB1_103
	b	.LBB1_102
.LBB1_102:
	.loc	5 0 12                          @ ../ThirdParty/STM32F4xx_HAL_Driver/Src/stm32f4xx_hal_rcc.c:0:12
	movs	r0, #3
.Ltmp112:
	.loc	5 466 11 is_stmt 1              @ ../ThirdParty/STM32F4xx_HAL_Driver/Src/stm32f4xx_hal_rcc.c:466:11
	strb.w	r0, [sp, #23]
	b	.LBB1_132
.Ltmp113:
.LBB1_103:                              @   in Loop: Header=BB1_100 Depth=1
	.loc	5 462 7                         @ ../ThirdParty/STM32F4xx_HAL_Driver/Src/stm32f4xx_hal_rcc.c:462:7
	b	.LBB1_100
.Ltmp114:
.LBB1_104:
	.loc	5 0 7 is_stmt 0                 @ ../ThirdParty/STM32F4xx_HAL_Driver/Src/stm32f4xx_hal_rcc.c:0:7
	b	.LBB1_105
.LBB1_105:
.Ltmp115:
	.loc	5 472 8 is_stmt 1               @ ../ThirdParty/STM32F4xx_HAL_Driver/Src/stm32f4xx_hal_rcc.c:472:8
	ldrb.w	r0, [sp, #11]
.Ltmp116:
	.loc	5 472 8 is_stmt 0               @ ../ThirdParty/STM32F4xx_HAL_Driver/Src/stm32f4xx_hal_rcc.c:472:8
	cmp	r0, #1
	bne	.LBB1_107
	b	.LBB1_106
.LBB1_106:
	.loc	5 0 8                           @ ../ThirdParty/STM32F4xx_HAL_Driver/Src/stm32f4xx_hal_rcc.c:0:8
	movw	r1, #14400
	movt	r1, #16386
.Ltmp117:
	.loc	5 474 7 is_stmt 1               @ ../ThirdParty/STM32F4xx_HAL_Driver/Src/stm32f4xx_hal_rcc.c:474:7
	ldr	r0, [r1]
	bic	r0, r0, #268435456
	str	r0, [r1]
	.loc	5 475 5                         @ ../ThirdParty/STM32F4xx_HAL_Driver/Src/stm32f4xx_hal_rcc.c:475:5
	b	.LBB1_107
.Ltmp118:
.LBB1_107:
	.loc	5 476 3                         @ ../ThirdParty/STM32F4xx_HAL_Driver/Src/stm32f4xx_hal_rcc.c:476:3
	b	.LBB1_108
.Ltmp119:
.LBB1_108:
	.loc	5 480 8                         @ ../ThirdParty/STM32F4xx_HAL_Driver/Src/stm32f4xx_hal_rcc.c:480:8
	ldr	r0, [sp, #16]
	.loc	5 480 31 is_stmt 0              @ ../ThirdParty/STM32F4xx_HAL_Driver/Src/stm32f4xx_hal_rcc.c:480:31
	ldr	r0, [r0, #24]
.Ltmp120:
	.loc	5 480 7                         @ ../ThirdParty/STM32F4xx_HAL_Driver/Src/stm32f4xx_hal_rcc.c:480:7
	cmp	r0, #0
	beq.w	.LBB1_131
	b	.LBB1_109
.LBB1_109:
	.loc	5 0 7                           @ ../ThirdParty/STM32F4xx_HAL_Driver/Src/stm32f4xx_hal_rcc.c:0:7
	movw	r0, #14344
	movt	r0, #16386
.Ltmp121:
	.loc	5 483 8 is_stmt 1               @ ../ThirdParty/STM32F4xx_HAL_Driver/Src/stm32f4xx_hal_rcc.c:483:8
	ldr	r0, [r0]
	and	r0, r0, #12
.Ltmp122:
	.loc	5 483 8 is_stmt 0               @ ../ThirdParty/STM32F4xx_HAL_Driver/Src/stm32f4xx_hal_rcc.c:483:8
	cmp	r0, #8
	beq.w	.LBB1_129
	b	.LBB1_110
.LBB1_110:
.Ltmp123:
	.loc	5 485 11 is_stmt 1              @ ../ThirdParty/STM32F4xx_HAL_Driver/Src/stm32f4xx_hal_rcc.c:485:11
	ldr	r0, [sp, #16]
	.loc	5 485 34 is_stmt 0              @ ../ThirdParty/STM32F4xx_HAL_Driver/Src/stm32f4xx_hal_rcc.c:485:34
	ldr	r0, [r0, #24]
.Ltmp124:
	.loc	5 485 10                        @ ../ThirdParty/STM32F4xx_HAL_Driver/Src/stm32f4xx_hal_rcc.c:485:10
	cmp	r0, #2
	bne	.LBB1_122
	b	.LBB1_111
.LBB1_111:
	.loc	5 0 10                          @ ../ThirdParty/STM32F4xx_HAL_Driver/Src/stm32f4xx_hal_rcc.c:0:10
	movs	r1, #96
	movt	r1, #16967
	movs	r0, #0
.Ltmp125:
	.loc	5 495 9 is_stmt 1               @ ../ThirdParty/STM32F4xx_HAL_Driver/Src/stm32f4xx_hal_rcc.c:495:9
	str	r0, [r1]
	.loc	5 498 21                        @ ../ThirdParty/STM32F4xx_HAL_Driver/Src/stm32f4xx_hal_rcc.c:498:21
	bl	HAL_GetTick
	.loc	5 498 19 is_stmt 0              @ ../ThirdParty/STM32F4xx_HAL_Driver/Src/stm32f4xx_hal_rcc.c:498:19
	str	r0, [sp, #12]
	.loc	5 501 9 is_stmt 1               @ ../ThirdParty/STM32F4xx_HAL_Driver/Src/stm32f4xx_hal_rcc.c:501:9
	b	.LBB1_112
.LBB1_112:                              @ =>This Inner Loop Header: Depth=1
	.loc	5 0 9 is_stmt 0                 @ ../ThirdParty/STM32F4xx_HAL_Driver/Src/stm32f4xx_hal_rcc.c:0:9
	movw	r0, #14336
	movt	r0, #16386
	.loc	5 501 15                        @ ../ThirdParty/STM32F4xx_HAL_Driver/Src/stm32f4xx_hal_rcc.c:501:15
	ldr	r0, [r0]
	and	r1, r0, #33554432
	movs	r0, #0
	.loc	5 501 9                         @ ../ThirdParty/STM32F4xx_HAL_Driver/Src/stm32f4xx_hal_rcc.c:501:9
	cmp.w	r0, r1, lsr #25
	beq	.LBB1_116
	b	.LBB1_113
.LBB1_113:                              @   in Loop: Header=BB1_112 Depth=1
.Ltmp126:
	.loc	5 503 15 is_stmt 1              @ ../ThirdParty/STM32F4xx_HAL_Driver/Src/stm32f4xx_hal_rcc.c:503:15
	bl	HAL_GetTick
	.loc	5 503 31 is_stmt 0              @ ../ThirdParty/STM32F4xx_HAL_Driver/Src/stm32f4xx_hal_rcc.c:503:31
	ldr	r1, [sp, #12]
	.loc	5 503 29                        @ ../ThirdParty/STM32F4xx_HAL_Driver/Src/stm32f4xx_hal_rcc.c:503:29
	subs	r0, r0, r1
.Ltmp127:
	.loc	5 503 14                        @ ../ThirdParty/STM32F4xx_HAL_Driver/Src/stm32f4xx_hal_rcc.c:503:14
	cmp	r0, #3
	blo	.LBB1_115
	b	.LBB1_114
.LBB1_114:
	.loc	5 0 14                          @ ../ThirdParty/STM32F4xx_HAL_Driver/Src/stm32f4xx_hal_rcc.c:0:14
	movs	r0, #3
.Ltmp128:
	.loc	5 505 13 is_stmt 1              @ ../ThirdParty/STM32F4xx_HAL_Driver/Src/stm32f4xx_hal_rcc.c:505:13
	strb.w	r0, [sp, #23]
	b	.LBB1_132
.Ltmp129:
.LBB1_115:                              @   in Loop: Header=BB1_112 Depth=1
	.loc	5 501 9                         @ ../ThirdParty/STM32F4xx_HAL_Driver/Src/stm32f4xx_hal_rcc.c:501:9
	b	.LBB1_112
.LBB1_116:
	.loc	5 510 9                         @ ../ThirdParty/STM32F4xx_HAL_Driver/Src/stm32f4xx_hal_rcc.c:510:9
	ldr	r1, [sp, #16]
	ldr	r0, [r1, #28]
	ldr.w	r12, [r1, #32]
	ldr	r3, [r1, #36]
	ldr	r2, [r1, #40]
	orr.w	r0, r0, r12
	orr.w	r0, r0, r3, lsl #6
	lsls	r2, r2, #15
	movw	r3, #65535
	bics	r2, r3
	sub.w	r2, r2, #65536
	orrs	r0, r2
	ldr	r1, [r1, #44]
	orr.w	r0, r0, r1, lsl #24
	movw	r1, #14340
	movt	r1, #16386
	str	r0, [r1]
	movs	r1, #96
	movt	r1, #16967
	movs	r0, #1
	.loc	5 516 9                         @ ../ThirdParty/STM32F4xx_HAL_Driver/Src/stm32f4xx_hal_rcc.c:516:9
	str	r0, [r1]
	.loc	5 519 21                        @ ../ThirdParty/STM32F4xx_HAL_Driver/Src/stm32f4xx_hal_rcc.c:519:21
	bl	HAL_GetTick
	.loc	5 519 19 is_stmt 0              @ ../ThirdParty/STM32F4xx_HAL_Driver/Src/stm32f4xx_hal_rcc.c:519:19
	str	r0, [sp, #12]
	.loc	5 522 9 is_stmt 1               @ ../ThirdParty/STM32F4xx_HAL_Driver/Src/stm32f4xx_hal_rcc.c:522:9
	b	.LBB1_117
.LBB1_117:                              @ =>This Inner Loop Header: Depth=1
	.loc	5 0 9 is_stmt 0                 @ ../ThirdParty/STM32F4xx_HAL_Driver/Src/stm32f4xx_hal_rcc.c:0:9
	movw	r0, #14336
	movt	r0, #16386
	.loc	5 522 15                        @ ../ThirdParty/STM32F4xx_HAL_Driver/Src/stm32f4xx_hal_rcc.c:522:15
	ldr	r0, [r0]
	and	r1, r0, #33554432
	movs	r0, #0
	.loc	5 522 9                         @ ../ThirdParty/STM32F4xx_HAL_Driver/Src/stm32f4xx_hal_rcc.c:522:9
	cmp.w	r0, r1, lsr #25
	bne	.LBB1_121
	b	.LBB1_118
.LBB1_118:                              @   in Loop: Header=BB1_117 Depth=1
.Ltmp130:
	.loc	5 524 15 is_stmt 1              @ ../ThirdParty/STM32F4xx_HAL_Driver/Src/stm32f4xx_hal_rcc.c:524:15
	bl	HAL_GetTick
	.loc	5 524 31 is_stmt 0              @ ../ThirdParty/STM32F4xx_HAL_Driver/Src/stm32f4xx_hal_rcc.c:524:31
	ldr	r1, [sp, #12]
	.loc	5 524 29                        @ ../ThirdParty/STM32F4xx_HAL_Driver/Src/stm32f4xx_hal_rcc.c:524:29
	subs	r0, r0, r1
.Ltmp131:
	.loc	5 524 14                        @ ../ThirdParty/STM32F4xx_HAL_Driver/Src/stm32f4xx_hal_rcc.c:524:14
	cmp	r0, #3
	blo	.LBB1_120
	b	.LBB1_119
.LBB1_119:
	.loc	5 0 14                          @ ../ThirdParty/STM32F4xx_HAL_Driver/Src/stm32f4xx_hal_rcc.c:0:14
	movs	r0, #3
.Ltmp132:
	.loc	5 526 13 is_stmt 1              @ ../ThirdParty/STM32F4xx_HAL_Driver/Src/stm32f4xx_hal_rcc.c:526:13
	strb.w	r0, [sp, #23]
	b	.LBB1_132
.Ltmp133:
.LBB1_120:                              @   in Loop: Header=BB1_117 Depth=1
	.loc	5 522 9                         @ ../ThirdParty/STM32F4xx_HAL_Driver/Src/stm32f4xx_hal_rcc.c:522:9
	b	.LBB1_117
.LBB1_121:
	.loc	5 529 7                         @ ../ThirdParty/STM32F4xx_HAL_Driver/Src/stm32f4xx_hal_rcc.c:529:7
	b	.LBB1_128
.Ltmp134:
.LBB1_122:
	.loc	5 0 7 is_stmt 0                 @ ../ThirdParty/STM32F4xx_HAL_Driver/Src/stm32f4xx_hal_rcc.c:0:7
	movs	r1, #96
	movt	r1, #16967
	movs	r0, #0
.Ltmp135:
	.loc	5 533 9 is_stmt 1               @ ../ThirdParty/STM32F4xx_HAL_Driver/Src/stm32f4xx_hal_rcc.c:533:9
	str	r0, [r1]
	.loc	5 536 21                        @ ../ThirdParty/STM32F4xx_HAL_Driver/Src/stm32f4xx_hal_rcc.c:536:21
	bl	HAL_GetTick
	.loc	5 536 19 is_stmt 0              @ ../ThirdParty/STM32F4xx_HAL_Driver/Src/stm32f4xx_hal_rcc.c:536:19
	str	r0, [sp, #12]
	.loc	5 539 9 is_stmt 1               @ ../ThirdParty/STM32F4xx_HAL_Driver/Src/stm32f4xx_hal_rcc.c:539:9
	b	.LBB1_123
.LBB1_123:                              @ =>This Inner Loop Header: Depth=1
	.loc	5 0 9 is_stmt 0                 @ ../ThirdParty/STM32F4xx_HAL_Driver/Src/stm32f4xx_hal_rcc.c:0:9
	movw	r0, #14336
	movt	r0, #16386
	.loc	5 539 15                        @ ../ThirdParty/STM32F4xx_HAL_Driver/Src/stm32f4xx_hal_rcc.c:539:15
	ldr	r0, [r0]
	and	r1, r0, #33554432
	movs	r0, #0
	.loc	5 539 9                         @ ../ThirdParty/STM32F4xx_HAL_Driver/Src/stm32f4xx_hal_rcc.c:539:9
	cmp.w	r0, r1, lsr #25
	beq	.LBB1_127
	b	.LBB1_124
.LBB1_124:                              @   in Loop: Header=BB1_123 Depth=1
.Ltmp136:
	.loc	5 541 15 is_stmt 1              @ ../ThirdParty/STM32F4xx_HAL_Driver/Src/stm32f4xx_hal_rcc.c:541:15
	bl	HAL_GetTick
	.loc	5 541 31 is_stmt 0              @ ../ThirdParty/STM32F4xx_HAL_Driver/Src/stm32f4xx_hal_rcc.c:541:31
	ldr	r1, [sp, #12]
	.loc	5 541 29                        @ ../ThirdParty/STM32F4xx_HAL_Driver/Src/stm32f4xx_hal_rcc.c:541:29
	subs	r0, r0, r1
.Ltmp137:
	.loc	5 541 14                        @ ../ThirdParty/STM32F4xx_HAL_Driver/Src/stm32f4xx_hal_rcc.c:541:14
	cmp	r0, #3
	blo	.LBB1_126
	b	.LBB1_125
.LBB1_125:
	.loc	5 0 14                          @ ../ThirdParty/STM32F4xx_HAL_Driver/Src/stm32f4xx_hal_rcc.c:0:14
	movs	r0, #3
.Ltmp138:
	.loc	5 543 13 is_stmt 1              @ ../ThirdParty/STM32F4xx_HAL_Driver/Src/stm32f4xx_hal_rcc.c:543:13
	strb.w	r0, [sp, #23]
	b	.LBB1_132
.Ltmp139:
.LBB1_126:                              @   in Loop: Header=BB1_123 Depth=1
	.loc	5 539 9                         @ ../ThirdParty/STM32F4xx_HAL_Driver/Src/stm32f4xx_hal_rcc.c:539:9
	b	.LBB1_123
.Ltmp140:
.LBB1_127:
	.loc	5 0 9 is_stmt 0                 @ ../ThirdParty/STM32F4xx_HAL_Driver/Src/stm32f4xx_hal_rcc.c:0:9
	b	.LBB1_128
.LBB1_128:
	.loc	5 547 5 is_stmt 1               @ ../ThirdParty/STM32F4xx_HAL_Driver/Src/stm32f4xx_hal_rcc.c:547:5
	b	.LBB1_130
.Ltmp141:
.LBB1_129:
	.loc	5 0 5 is_stmt 0                 @ ../ThirdParty/STM32F4xx_HAL_Driver/Src/stm32f4xx_hal_rcc.c:0:5
	movs	r0, #1
.Ltmp142:
	.loc	5 550 7 is_stmt 1               @ ../ThirdParty/STM32F4xx_HAL_Driver/Src/stm32f4xx_hal_rcc.c:550:7
	strb.w	r0, [sp, #23]
	b	.LBB1_132
.Ltmp143:
.LBB1_130:
	.loc	5 552 3                         @ ../ThirdParty/STM32F4xx_HAL_Driver/Src/stm32f4xx_hal_rcc.c:552:3
	b	.LBB1_131
.Ltmp144:
.LBB1_131:
	.loc	5 0 3 is_stmt 0                 @ ../ThirdParty/STM32F4xx_HAL_Driver/Src/stm32f4xx_hal_rcc.c:0:3
	movs	r0, #0
	.loc	5 553 3 is_stmt 1               @ ../ThirdParty/STM32F4xx_HAL_Driver/Src/stm32f4xx_hal_rcc.c:553:3
	strb.w	r0, [sp, #23]
	b	.LBB1_132
.LBB1_132:
	.loc	5 554 1                         @ ../ThirdParty/STM32F4xx_HAL_Driver/Src/stm32f4xx_hal_rcc.c:554:1
	ldrb.w	r0, [sp, #23]
	.loc	5 554 1 epilogue_begin is_stmt 0 @ ../ThirdParty/STM32F4xx_HAL_Driver/Src/stm32f4xx_hal_rcc.c:554:1
	add	sp, #24
	pop	{r7, pc}
.Ltmp145:
.Lfunc_end1:
	.size	HAL_RCC_OscConfig, .Lfunc_end1-HAL_RCC_OscConfig
	.cfi_endproc
	.cantunwind
	.fnend
                                        @ -- End function
	.section	.text.HAL_RCC_ClockConfig,"ax",%progbits
	.hidden	HAL_RCC_ClockConfig             @ -- Begin function HAL_RCC_ClockConfig
	.globl	HAL_RCC_ClockConfig
	.p2align	2
	.type	HAL_RCC_ClockConfig,%function
	.code	16                              @ @HAL_RCC_ClockConfig
	.thumb_func
HAL_RCC_ClockConfig:
.Lfunc_begin2:
	.loc	5 582 0 is_stmt 1               @ ../ThirdParty/STM32F4xx_HAL_Driver/Src/stm32f4xx_hal_rcc.c:582:0
	.fnstart
	.cfi_startproc
@ %bb.0:
	.save	{r7, lr}
	push	{r7, lr}
	.cfi_def_cfa_offset 8
	.cfi_offset lr, -4
	.cfi_offset r7, -8
	.pad	#16
	sub	sp, #16
	.cfi_def_cfa_offset 24
	str	r0, [sp, #8]
	str	r1, [sp, #4]
.Ltmp146:
	.loc	5 586 6 prologue_end            @ ../ThirdParty/STM32F4xx_HAL_Driver/Src/stm32f4xx_hal_rcc.c:586:6
	ldr	r0, [sp, #8]
.Ltmp147:
	.loc	5 586 6 is_stmt 0               @ ../ThirdParty/STM32F4xx_HAL_Driver/Src/stm32f4xx_hal_rcc.c:586:6
	cbnz	r0, .LBB2_2
	b	.LBB2_1
.LBB2_1:
	.loc	5 0 6                           @ ../ThirdParty/STM32F4xx_HAL_Driver/Src/stm32f4xx_hal_rcc.c:0:6
	movs	r0, #1
.Ltmp148:
	.loc	5 588 5 is_stmt 1               @ ../ThirdParty/STM32F4xx_HAL_Driver/Src/stm32f4xx_hal_rcc.c:588:5
	strb.w	r0, [sp, #15]
	b	.LBB2_41
.Ltmp149:
.LBB2_2:
	.loc	5 600 6                         @ ../ThirdParty/STM32F4xx_HAL_Driver/Src/stm32f4xx_hal_rcc.c:600:6
	ldr	r0, [sp, #4]
	movw	r1, #15360
	movt	r1, #16386
	.loc	5 600 17 is_stmt 0              @ ../ThirdParty/STM32F4xx_HAL_Driver/Src/stm32f4xx_hal_rcc.c:600:17
	ldr	r1, [r1]
	and	r1, r1, #15
.Ltmp150:
	.loc	5 600 6                         @ ../ThirdParty/STM32F4xx_HAL_Driver/Src/stm32f4xx_hal_rcc.c:600:6
	cmp	r0, r1
	bls	.LBB2_6
	b	.LBB2_3
.LBB2_3:
.Ltmp151:
	.loc	5 603 5 is_stmt 1               @ ../ThirdParty/STM32F4xx_HAL_Driver/Src/stm32f4xx_hal_rcc.c:603:5
	ldr	r1, [sp, #4]
	movw	r0, #15360
	movt	r0, #16386
	strb	r1, [r0]
.Ltmp152:
	.loc	5 607 8                         @ ../ThirdParty/STM32F4xx_HAL_Driver/Src/stm32f4xx_hal_rcc.c:607:8
	ldr	r0, [r0]
	and	r0, r0, #15
	.loc	5 607 37 is_stmt 0              @ ../ThirdParty/STM32F4xx_HAL_Driver/Src/stm32f4xx_hal_rcc.c:607:37
	ldr	r1, [sp, #4]
.Ltmp153:
	.loc	5 607 8                         @ ../ThirdParty/STM32F4xx_HAL_Driver/Src/stm32f4xx_hal_rcc.c:607:8
	cmp	r0, r1
	beq	.LBB2_5
	b	.LBB2_4
.LBB2_4:
	.loc	5 0 8                           @ ../ThirdParty/STM32F4xx_HAL_Driver/Src/stm32f4xx_hal_rcc.c:0:8
	movs	r0, #1
.Ltmp154:
	.loc	5 609 7 is_stmt 1               @ ../ThirdParty/STM32F4xx_HAL_Driver/Src/stm32f4xx_hal_rcc.c:609:7
	strb.w	r0, [sp, #15]
	b	.LBB2_41
.Ltmp155:
.LBB2_5:
	.loc	5 611 3                         @ ../ThirdParty/STM32F4xx_HAL_Driver/Src/stm32f4xx_hal_rcc.c:611:3
	b	.LBB2_6
.Ltmp156:
.LBB2_6:
	.loc	5 614 8                         @ ../ThirdParty/STM32F4xx_HAL_Driver/Src/stm32f4xx_hal_rcc.c:614:8
	ldr	r0, [sp, #8]
.Ltmp157:
	.loc	5 614 6 is_stmt 0               @ ../ThirdParty/STM32F4xx_HAL_Driver/Src/stm32f4xx_hal_rcc.c:614:6
	ldrb	r0, [r0]
	lsls	r0, r0, #30
	cmp	r0, #0
	bpl	.LBB2_12
	b	.LBB2_7
.LBB2_7:
.Ltmp158:
	.loc	5 618 10 is_stmt 1              @ ../ThirdParty/STM32F4xx_HAL_Driver/Src/stm32f4xx_hal_rcc.c:618:10
	ldr	r0, [sp, #8]
.Ltmp159:
	.loc	5 618 8 is_stmt 0               @ ../ThirdParty/STM32F4xx_HAL_Driver/Src/stm32f4xx_hal_rcc.c:618:8
	ldrb	r0, [r0]
	lsls	r0, r0, #29
	cmp	r0, #0
	bpl	.LBB2_9
	b	.LBB2_8
.LBB2_8:
	.loc	5 0 8                           @ ../ThirdParty/STM32F4xx_HAL_Driver/Src/stm32f4xx_hal_rcc.c:0:8
	movw	r1, #14344
	movt	r1, #16386
.Ltmp160:
	.loc	5 620 7 is_stmt 1               @ ../ThirdParty/STM32F4xx_HAL_Driver/Src/stm32f4xx_hal_rcc.c:620:7
	ldr	r0, [r1]
	orr	r0, r0, #7168
	str	r0, [r1]
	.loc	5 621 5                         @ ../ThirdParty/STM32F4xx_HAL_Driver/Src/stm32f4xx_hal_rcc.c:621:5
	b	.LBB2_9
.Ltmp161:
.LBB2_9:
	.loc	5 623 10                        @ ../ThirdParty/STM32F4xx_HAL_Driver/Src/stm32f4xx_hal_rcc.c:623:10
	ldr	r0, [sp, #8]
.Ltmp162:
	.loc	5 623 8 is_stmt 0               @ ../ThirdParty/STM32F4xx_HAL_Driver/Src/stm32f4xx_hal_rcc.c:623:8
	ldrb	r0, [r0]
	lsls	r0, r0, #28
	cmp	r0, #0
	bpl	.LBB2_11
	b	.LBB2_10
.LBB2_10:
	.loc	5 0 8                           @ ../ThirdParty/STM32F4xx_HAL_Driver/Src/stm32f4xx_hal_rcc.c:0:8
	movw	r1, #14344
	movt	r1, #16386
.Ltmp163:
	.loc	5 625 7 is_stmt 1               @ ../ThirdParty/STM32F4xx_HAL_Driver/Src/stm32f4xx_hal_rcc.c:625:7
	ldr	r0, [r1]
	orr	r0, r0, #57344
	str	r0, [r1]
	.loc	5 626 5                         @ ../ThirdParty/STM32F4xx_HAL_Driver/Src/stm32f4xx_hal_rcc.c:626:5
	b	.LBB2_11
.Ltmp164:
.LBB2_11:
	.loc	5 0 5 is_stmt 0                 @ ../ThirdParty/STM32F4xx_HAL_Driver/Src/stm32f4xx_hal_rcc.c:0:5
	movw	r1, #14344
	movt	r1, #16386
	.loc	5 629 5 is_stmt 1               @ ../ThirdParty/STM32F4xx_HAL_Driver/Src/stm32f4xx_hal_rcc.c:629:5
	ldr	r0, [r1]
	bic	r0, r0, #240
	ldr	r2, [sp, #8]
	ldr	r2, [r2, #8]
	orrs	r0, r2
	str	r0, [r1]
	.loc	5 630 3                         @ ../ThirdParty/STM32F4xx_HAL_Driver/Src/stm32f4xx_hal_rcc.c:630:3
	b	.LBB2_12
.Ltmp165:
.LBB2_12:
	.loc	5 633 8                         @ ../ThirdParty/STM32F4xx_HAL_Driver/Src/stm32f4xx_hal_rcc.c:633:8
	ldr	r0, [sp, #8]
.Ltmp166:
	.loc	5 633 6 is_stmt 0               @ ../ThirdParty/STM32F4xx_HAL_Driver/Src/stm32f4xx_hal_rcc.c:633:6
	ldrb	r0, [r0]
	lsls	r0, r0, #31
	cmp	r0, #0
	beq	.LBB2_32
	b	.LBB2_13
.LBB2_13:
.Ltmp167:
	.loc	5 638 8 is_stmt 1               @ ../ThirdParty/STM32F4xx_HAL_Driver/Src/stm32f4xx_hal_rcc.c:638:8
	ldr	r0, [sp, #8]
	.loc	5 638 27 is_stmt 0              @ ../ThirdParty/STM32F4xx_HAL_Driver/Src/stm32f4xx_hal_rcc.c:638:27
	ldr	r0, [r0, #4]
.Ltmp168:
	.loc	5 638 8                         @ ../ThirdParty/STM32F4xx_HAL_Driver/Src/stm32f4xx_hal_rcc.c:638:8
	cmp	r0, #1
	bne	.LBB2_17
	b	.LBB2_14
.LBB2_14:
	.loc	5 0 8                           @ ../ThirdParty/STM32F4xx_HAL_Driver/Src/stm32f4xx_hal_rcc.c:0:8
	movw	r0, #14336
	movt	r0, #16386
.Ltmp169:
	.loc	5 641 10 is_stmt 1              @ ../ThirdParty/STM32F4xx_HAL_Driver/Src/stm32f4xx_hal_rcc.c:641:10
	ldr	r0, [r0]
	and	r1, r0, #131072
	movs	r0, #0
.Ltmp170:
	.loc	5 641 10 is_stmt 0              @ ../ThirdParty/STM32F4xx_HAL_Driver/Src/stm32f4xx_hal_rcc.c:641:10
	cmp.w	r0, r1, lsr #17
	bne	.LBB2_16
	b	.LBB2_15
.LBB2_15:
	.loc	5 0 10                          @ ../ThirdParty/STM32F4xx_HAL_Driver/Src/stm32f4xx_hal_rcc.c:0:10
	movs	r0, #1
.Ltmp171:
	.loc	5 643 9 is_stmt 1               @ ../ThirdParty/STM32F4xx_HAL_Driver/Src/stm32f4xx_hal_rcc.c:643:9
	strb.w	r0, [sp, #15]
	b	.LBB2_41
.Ltmp172:
.LBB2_16:
	.loc	5 645 5                         @ ../ThirdParty/STM32F4xx_HAL_Driver/Src/stm32f4xx_hal_rcc.c:645:5
	b	.LBB2_26
.Ltmp173:
.LBB2_17:
	.loc	5 647 14                        @ ../ThirdParty/STM32F4xx_HAL_Driver/Src/stm32f4xx_hal_rcc.c:647:14
	ldr	r0, [sp, #8]
	.loc	5 647 33 is_stmt 0              @ ../ThirdParty/STM32F4xx_HAL_Driver/Src/stm32f4xx_hal_rcc.c:647:33
	ldr	r0, [r0, #4]
	.loc	5 647 76                        @ ../ThirdParty/STM32F4xx_HAL_Driver/Src/stm32f4xx_hal_rcc.c:647:76
	cmp	r0, #2
	beq	.LBB2_19
	b	.LBB2_18
.LBB2_18:
	.loc	5 648 14 is_stmt 1              @ ../ThirdParty/STM32F4xx_HAL_Driver/Src/stm32f4xx_hal_rcc.c:648:14
	ldr	r0, [sp, #8]
	.loc	5 648 33 is_stmt 0              @ ../ThirdParty/STM32F4xx_HAL_Driver/Src/stm32f4xx_hal_rcc.c:648:33
	ldr	r0, [r0, #4]
.Ltmp174:
	.loc	5 647 13 is_stmt 1              @ ../ThirdParty/STM32F4xx_HAL_Driver/Src/stm32f4xx_hal_rcc.c:647:13
	cmp	r0, #3
	bne	.LBB2_22
	b	.LBB2_19
.LBB2_19:
	.loc	5 0 13 is_stmt 0                @ ../ThirdParty/STM32F4xx_HAL_Driver/Src/stm32f4xx_hal_rcc.c:0:13
	movw	r0, #14336
	movt	r0, #16386
.Ltmp175:
	.loc	5 651 10 is_stmt 1              @ ../ThirdParty/STM32F4xx_HAL_Driver/Src/stm32f4xx_hal_rcc.c:651:10
	ldr	r0, [r0]
	and	r1, r0, #33554432
	movs	r0, #0
.Ltmp176:
	.loc	5 651 10 is_stmt 0              @ ../ThirdParty/STM32F4xx_HAL_Driver/Src/stm32f4xx_hal_rcc.c:651:10
	cmp.w	r0, r1, lsr #25
	bne	.LBB2_21
	b	.LBB2_20
.LBB2_20:
	.loc	5 0 10                          @ ../ThirdParty/STM32F4xx_HAL_Driver/Src/stm32f4xx_hal_rcc.c:0:10
	movs	r0, #1
.Ltmp177:
	.loc	5 653 9 is_stmt 1               @ ../ThirdParty/STM32F4xx_HAL_Driver/Src/stm32f4xx_hal_rcc.c:653:9
	strb.w	r0, [sp, #15]
	b	.LBB2_41
.Ltmp178:
.LBB2_21:
	.loc	5 655 5                         @ ../ThirdParty/STM32F4xx_HAL_Driver/Src/stm32f4xx_hal_rcc.c:655:5
	b	.LBB2_25
.Ltmp179:
.LBB2_22:
	.loc	5 0 5 is_stmt 0                 @ ../ThirdParty/STM32F4xx_HAL_Driver/Src/stm32f4xx_hal_rcc.c:0:5
	movw	r0, #14336
	movt	r0, #16386
.Ltmp180:
	.loc	5 660 10 is_stmt 1              @ ../ThirdParty/STM32F4xx_HAL_Driver/Src/stm32f4xx_hal_rcc.c:660:10
	ldr	r0, [r0]
	and	r1, r0, #2
	movs	r0, #0
.Ltmp181:
	.loc	5 660 10 is_stmt 0              @ ../ThirdParty/STM32F4xx_HAL_Driver/Src/stm32f4xx_hal_rcc.c:660:10
	cmp.w	r0, r1, lsr #1
	bne	.LBB2_24
	b	.LBB2_23
.LBB2_23:
	.loc	5 0 10                          @ ../ThirdParty/STM32F4xx_HAL_Driver/Src/stm32f4xx_hal_rcc.c:0:10
	movs	r0, #1
.Ltmp182:
	.loc	5 662 9 is_stmt 1               @ ../ThirdParty/STM32F4xx_HAL_Driver/Src/stm32f4xx_hal_rcc.c:662:9
	strb.w	r0, [sp, #15]
	b	.LBB2_41
.Ltmp183:
.LBB2_24:
	.loc	5 0 9 is_stmt 0                 @ ../ThirdParty/STM32F4xx_HAL_Driver/Src/stm32f4xx_hal_rcc.c:0:9
	b	.LBB2_25
.LBB2_25:
	b	.LBB2_26
.LBB2_26:
	movw	r1, #14344
	movt	r1, #16386
	.loc	5 666 5 is_stmt 1               @ ../ThirdParty/STM32F4xx_HAL_Driver/Src/stm32f4xx_hal_rcc.c:666:5
	ldr	r0, [r1]
	bic	r0, r0, #3
	ldr	r2, [sp, #8]
	ldr	r2, [r2, #4]
	orrs	r0, r2
	str	r0, [r1]
	.loc	5 669 17                        @ ../ThirdParty/STM32F4xx_HAL_Driver/Src/stm32f4xx_hal_rcc.c:669:17
	bl	HAL_GetTick
	.loc	5 669 15 is_stmt 0              @ ../ThirdParty/STM32F4xx_HAL_Driver/Src/stm32f4xx_hal_rcc.c:669:15
	str	r0, [sp]
	.loc	5 671 5 is_stmt 1               @ ../ThirdParty/STM32F4xx_HAL_Driver/Src/stm32f4xx_hal_rcc.c:671:5
	b	.LBB2_27
.LBB2_27:                               @ =>This Inner Loop Header: Depth=1
	.loc	5 0 5 is_stmt 0                 @ ../ThirdParty/STM32F4xx_HAL_Driver/Src/stm32f4xx_hal_rcc.c:0:5
	movw	r0, #14344
	movt	r0, #16386
	.loc	5 671 12                        @ ../ThirdParty/STM32F4xx_HAL_Driver/Src/stm32f4xx_hal_rcc.c:671:12
	ldr	r0, [r0]
	and	r0, r0, #12
	.loc	5 671 46                        @ ../ThirdParty/STM32F4xx_HAL_Driver/Src/stm32f4xx_hal_rcc.c:671:46
	ldr	r1, [sp, #8]
	.loc	5 671 65                        @ ../ThirdParty/STM32F4xx_HAL_Driver/Src/stm32f4xx_hal_rcc.c:671:65
	ldr	r1, [r1, #4]
	.loc	5 671 5                         @ ../ThirdParty/STM32F4xx_HAL_Driver/Src/stm32f4xx_hal_rcc.c:671:5
	cmp.w	r0, r1, lsl #2
	beq	.LBB2_31
	b	.LBB2_28
.LBB2_28:                               @   in Loop: Header=BB2_27 Depth=1
.Ltmp184:
	.loc	5 673 12 is_stmt 1              @ ../ThirdParty/STM32F4xx_HAL_Driver/Src/stm32f4xx_hal_rcc.c:673:12
	bl	HAL_GetTick
	.loc	5 673 28 is_stmt 0              @ ../ThirdParty/STM32F4xx_HAL_Driver/Src/stm32f4xx_hal_rcc.c:673:28
	ldr	r1, [sp]
	.loc	5 673 26                        @ ../ThirdParty/STM32F4xx_HAL_Driver/Src/stm32f4xx_hal_rcc.c:673:26
	subs	r0, r0, r1
	movw	r1, #5001
.Ltmp185:
	.loc	5 673 11                        @ ../ThirdParty/STM32F4xx_HAL_Driver/Src/stm32f4xx_hal_rcc.c:673:11
	cmp	r0, r1
	blo	.LBB2_30
	b	.LBB2_29
.LBB2_29:
	.loc	5 0 11                          @ ../ThirdParty/STM32F4xx_HAL_Driver/Src/stm32f4xx_hal_rcc.c:0:11
	movs	r0, #3
.Ltmp186:
	.loc	5 675 9 is_stmt 1               @ ../ThirdParty/STM32F4xx_HAL_Driver/Src/stm32f4xx_hal_rcc.c:675:9
	strb.w	r0, [sp, #15]
	b	.LBB2_41
.Ltmp187:
.LBB2_30:                               @   in Loop: Header=BB2_27 Depth=1
	.loc	5 671 5                         @ ../ThirdParty/STM32F4xx_HAL_Driver/Src/stm32f4xx_hal_rcc.c:671:5
	b	.LBB2_27
.LBB2_31:
	.loc	5 678 3                         @ ../ThirdParty/STM32F4xx_HAL_Driver/Src/stm32f4xx_hal_rcc.c:678:3
	b	.LBB2_32
.Ltmp188:
.LBB2_32:
	.loc	5 681 6                         @ ../ThirdParty/STM32F4xx_HAL_Driver/Src/stm32f4xx_hal_rcc.c:681:6
	ldr	r0, [sp, #4]
	movw	r1, #15360
	movt	r1, #16386
	.loc	5 681 17 is_stmt 0              @ ../ThirdParty/STM32F4xx_HAL_Driver/Src/stm32f4xx_hal_rcc.c:681:17
	ldr	r1, [r1]
	and	r1, r1, #15
.Ltmp189:
	.loc	5 681 6                         @ ../ThirdParty/STM32F4xx_HAL_Driver/Src/stm32f4xx_hal_rcc.c:681:6
	cmp	r0, r1
	bhs	.LBB2_36
	b	.LBB2_33
.LBB2_33:
.Ltmp190:
	.loc	5 684 5 is_stmt 1               @ ../ThirdParty/STM32F4xx_HAL_Driver/Src/stm32f4xx_hal_rcc.c:684:5
	ldr	r1, [sp, #4]
	movw	r0, #15360
	movt	r0, #16386
	strb	r1, [r0]
.Ltmp191:
	.loc	5 688 8                         @ ../ThirdParty/STM32F4xx_HAL_Driver/Src/stm32f4xx_hal_rcc.c:688:8
	ldr	r0, [r0]
	and	r0, r0, #15
	.loc	5 688 37 is_stmt 0              @ ../ThirdParty/STM32F4xx_HAL_Driver/Src/stm32f4xx_hal_rcc.c:688:37
	ldr	r1, [sp, #4]
.Ltmp192:
	.loc	5 688 8                         @ ../ThirdParty/STM32F4xx_HAL_Driver/Src/stm32f4xx_hal_rcc.c:688:8
	cmp	r0, r1
	beq	.LBB2_35
	b	.LBB2_34
.LBB2_34:
	.loc	5 0 8                           @ ../ThirdParty/STM32F4xx_HAL_Driver/Src/stm32f4xx_hal_rcc.c:0:8
	movs	r0, #1
.Ltmp193:
	.loc	5 690 7 is_stmt 1               @ ../ThirdParty/STM32F4xx_HAL_Driver/Src/stm32f4xx_hal_rcc.c:690:7
	strb.w	r0, [sp, #15]
	b	.LBB2_41
.Ltmp194:
.LBB2_35:
	.loc	5 692 3                         @ ../ThirdParty/STM32F4xx_HAL_Driver/Src/stm32f4xx_hal_rcc.c:692:3
	b	.LBB2_36
.Ltmp195:
.LBB2_36:
	.loc	5 695 8                         @ ../ThirdParty/STM32F4xx_HAL_Driver/Src/stm32f4xx_hal_rcc.c:695:8
	ldr	r0, [sp, #8]
.Ltmp196:
	.loc	5 695 6 is_stmt 0               @ ../ThirdParty/STM32F4xx_HAL_Driver/Src/stm32f4xx_hal_rcc.c:695:6
	ldrb	r0, [r0]
	lsls	r0, r0, #29
	cmp	r0, #0
	bpl	.LBB2_38
	b	.LBB2_37
.LBB2_37:
	.loc	5 0 6                           @ ../ThirdParty/STM32F4xx_HAL_Driver/Src/stm32f4xx_hal_rcc.c:0:6
	movw	r1, #14344
	movt	r1, #16386
.Ltmp197:
	.loc	5 698 5 is_stmt 1               @ ../ThirdParty/STM32F4xx_HAL_Driver/Src/stm32f4xx_hal_rcc.c:698:5
	ldr	r0, [r1]
	bic	r0, r0, #7168
	ldr	r2, [sp, #8]
	ldr	r2, [r2, #12]
	orrs	r0, r2
	str	r0, [r1]
	.loc	5 699 3                         @ ../ThirdParty/STM32F4xx_HAL_Driver/Src/stm32f4xx_hal_rcc.c:699:3
	b	.LBB2_38
.Ltmp198:
.LBB2_38:
	.loc	5 702 8                         @ ../ThirdParty/STM32F4xx_HAL_Driver/Src/stm32f4xx_hal_rcc.c:702:8
	ldr	r0, [sp, #8]
.Ltmp199:
	.loc	5 702 6 is_stmt 0               @ ../ThirdParty/STM32F4xx_HAL_Driver/Src/stm32f4xx_hal_rcc.c:702:6
	ldrb	r0, [r0]
	lsls	r0, r0, #28
	cmp	r0, #0
	bpl	.LBB2_40
	b	.LBB2_39
.LBB2_39:
	.loc	5 0 6                           @ ../ThirdParty/STM32F4xx_HAL_Driver/Src/stm32f4xx_hal_rcc.c:0:6
	movw	r1, #14344
	movt	r1, #16386
.Ltmp200:
	.loc	5 705 5 is_stmt 1               @ ../ThirdParty/STM32F4xx_HAL_Driver/Src/stm32f4xx_hal_rcc.c:705:5
	ldr	r0, [r1]
	bic	r0, r0, #57344
	ldr	r2, [sp, #8]
	ldr	r2, [r2, #16]
	orr.w	r0, r0, r2, lsl #3
	str	r0, [r1]
	.loc	5 706 3                         @ ../ThirdParty/STM32F4xx_HAL_Driver/Src/stm32f4xx_hal_rcc.c:706:3
	b	.LBB2_40
.Ltmp201:
.LBB2_40:
	.loc	5 709 21                        @ ../ThirdParty/STM32F4xx_HAL_Driver/Src/stm32f4xx_hal_rcc.c:709:21
	bl	HAL_RCC_GetSysClockFreq
	movw	r1, #14344
	movt	r1, #16386
	.loc	5 709 70 is_stmt 0              @ ../ThirdParty/STM32F4xx_HAL_Driver/Src/stm32f4xx_hal_rcc.c:709:70
	ldr	r1, [r1]
	.loc	5 709 75                        @ ../ThirdParty/STM32F4xx_HAL_Driver/Src/stm32f4xx_hal_rcc.c:709:75
	uxtb	r1, r1
	.loc	5 709 91                        @ ../ThirdParty/STM32F4xx_HAL_Driver/Src/stm32f4xx_hal_rcc.c:709:91
	lsrs	r2, r1, #4
	.loc	5 709 50                        @ ../ThirdParty/STM32F4xx_HAL_Driver/Src/stm32f4xx_hal_rcc.c:709:50
	movw	r1, :lower16:AHBPrescTable
	movt	r1, :upper16:AHBPrescTable
	ldrb	r1, [r1, r2]
	.loc	5 709 47                        @ ../ThirdParty/STM32F4xx_HAL_Driver/Src/stm32f4xx_hal_rcc.c:709:47
	lsrs	r0, r1
	.loc	5 709 19                        @ ../ThirdParty/STM32F4xx_HAL_Driver/Src/stm32f4xx_hal_rcc.c:709:19
	movw	r1, :lower16:SystemCoreClock
	movt	r1, :upper16:SystemCoreClock
	str	r0, [r1]
	movs	r0, #6
	.loc	5 712 3 is_stmt 1               @ ../ThirdParty/STM32F4xx_HAL_Driver/Src/stm32f4xx_hal_rcc.c:712:3
	bl	HAL_InitTick
	movs	r0, #0
	.loc	5 714 3                         @ ../ThirdParty/STM32F4xx_HAL_Driver/Src/stm32f4xx_hal_rcc.c:714:3
	strb.w	r0, [sp, #15]
	b	.LBB2_41
.LBB2_41:
	.loc	5 715 1                         @ ../ThirdParty/STM32F4xx_HAL_Driver/Src/stm32f4xx_hal_rcc.c:715:1
	ldrb.w	r0, [sp, #15]
	.loc	5 715 1 epilogue_begin is_stmt 0 @ ../ThirdParty/STM32F4xx_HAL_Driver/Src/stm32f4xx_hal_rcc.c:715:1
	add	sp, #16
	pop	{r7, pc}
.Ltmp202:
.Lfunc_end2:
	.size	HAL_RCC_ClockConfig, .Lfunc_end2-HAL_RCC_ClockConfig
	.cfi_endproc
	.cantunwind
	.fnend
                                        @ -- End function
	.section	.text.HAL_RCC_GetSysClockFreq,"ax",%progbits
	.hidden	HAL_RCC_GetSysClockFreq         @ -- Begin function HAL_RCC_GetSysClockFreq
	.weak	HAL_RCC_GetSysClockFreq
	.p2align	2
	.type	HAL_RCC_GetSysClockFreq,%function
	.code	16                              @ @HAL_RCC_GetSysClockFreq
	.thumb_func
HAL_RCC_GetSysClockFreq:
.Lfunc_begin3:
	.loc	5 876 0 is_stmt 1               @ ../ThirdParty/STM32F4xx_HAL_Driver/Src/stm32f4xx_hal_rcc.c:876:0
	.fnstart
	.cfi_startproc
@ %bb.0:
	.save	{r7, lr}
	push	{r7, lr}
	.cfi_def_cfa_offset 8
	.cfi_offset lr, -4
	.cfi_offset r7, -8
	.pad	#24
	sub	sp, #24
	.cfi_def_cfa_offset 32
	movs	r0, #0
.Ltmp203:
	.loc	5 877 12 prologue_end           @ ../ThirdParty/STM32F4xx_HAL_Driver/Src/stm32f4xx_hal_rcc.c:877:12
	str	r0, [sp, #20]
	.loc	5 877 23 is_stmt 0              @ ../ThirdParty/STM32F4xx_HAL_Driver/Src/stm32f4xx_hal_rcc.c:877:23
	str	r0, [sp, #16]
	.loc	5 877 36                        @ ../ThirdParty/STM32F4xx_HAL_Driver/Src/stm32f4xx_hal_rcc.c:877:36
	str	r0, [sp, #12]
	.loc	5 878 12 is_stmt 1              @ ../ThirdParty/STM32F4xx_HAL_Driver/Src/stm32f4xx_hal_rcc.c:878:12
	str	r0, [sp, #8]
	movw	r0, #14344
	movt	r0, #16386
	.loc	5 881 16                        @ ../ThirdParty/STM32F4xx_HAL_Driver/Src/stm32f4xx_hal_rcc.c:881:16
	ldr	r0, [r0]
	.loc	5 881 21 is_stmt 0              @ ../ThirdParty/STM32F4xx_HAL_Driver/Src/stm32f4xx_hal_rcc.c:881:21
	and	r0, r0, #12
	.loc	5 881 3                         @ ../ThirdParty/STM32F4xx_HAL_Driver/Src/stm32f4xx_hal_rcc.c:881:3
	mov	r1, r0
	str	r1, [sp, #4]                    @ 4-byte Spill
	cbz	r0, .LBB3_3
	b	.LBB3_1
.LBB3_1:
	ldr	r0, [sp, #4]                    @ 4-byte Reload
	cmp	r0, #4
	beq	.LBB3_4
	b	.LBB3_2
.LBB3_2:
	ldr	r0, [sp, #4]                    @ 4-byte Reload
	cmp	r0, #8
	beq	.LBB3_5
	b	.LBB3_9
.LBB3_3:
	.loc	5 0 3                           @ ../ThirdParty/STM32F4xx_HAL_Driver/Src/stm32f4xx_hal_rcc.c:0:3
	movw	r0, #9216
	movt	r0, #244
.Ltmp204:
	.loc	5 885 20 is_stmt 1              @ ../ThirdParty/STM32F4xx_HAL_Driver/Src/stm32f4xx_hal_rcc.c:885:20
	str	r0, [sp, #8]
	.loc	5 886 8                         @ ../ThirdParty/STM32F4xx_HAL_Driver/Src/stm32f4xx_hal_rcc.c:886:8
	b	.LBB3_10
.Ltmp205:
.LBB3_4:
	.loc	5 0 8 is_stmt 0                 @ ../ThirdParty/STM32F4xx_HAL_Driver/Src/stm32f4xx_hal_rcc.c:0:8
	movw	r0, #4608
	movt	r0, #122
.Ltmp206:
	.loc	5 890 20 is_stmt 1              @ ../ThirdParty/STM32F4xx_HAL_Driver/Src/stm32f4xx_hal_rcc.c:890:20
	str	r0, [sp, #8]
	.loc	5 891 7                         @ ../ThirdParty/STM32F4xx_HAL_Driver/Src/stm32f4xx_hal_rcc.c:891:7
	b	.LBB3_10
.Ltmp207:
.LBB3_5:
	.loc	5 0 7 is_stmt 0                 @ ../ThirdParty/STM32F4xx_HAL_Driver/Src/stm32f4xx_hal_rcc.c:0:7
	movw	r0, #14340
	movt	r0, #16386
.Ltmp208:
	.loc	5 897 19 is_stmt 1              @ ../ThirdParty/STM32F4xx_HAL_Driver/Src/stm32f4xx_hal_rcc.c:897:19
	ldr	r1, [r0]
	.loc	5 897 27 is_stmt 0              @ ../ThirdParty/STM32F4xx_HAL_Driver/Src/stm32f4xx_hal_rcc.c:897:27
	and	r1, r1, #63
	.loc	5 897 12                        @ ../ThirdParty/STM32F4xx_HAL_Driver/Src/stm32f4xx_hal_rcc.c:897:12
	str	r1, [sp, #20]
.Ltmp209:
	.loc	5 898 10 is_stmt 1              @ ../ThirdParty/STM32F4xx_HAL_Driver/Src/stm32f4xx_hal_rcc.c:898:10
	ldr	r0, [r0]
.Ltmp210:
	.loc	5 898 10 is_stmt 0              @ ../ThirdParty/STM32F4xx_HAL_Driver/Src/stm32f4xx_hal_rcc.c:898:10
	lsls	r0, r0, #9
	cmp	r0, #0
	bpl	.LBB3_7
	b	.LBB3_6
.LBB3_6:
	.loc	5 0 10                          @ ../ThirdParty/STM32F4xx_HAL_Driver/Src/stm32f4xx_hal_rcc.c:0:10
	movw	r0, #14340
	movt	r0, #16386
.Ltmp211:
	.loc	5 901 74 is_stmt 1              @ ../ThirdParty/STM32F4xx_HAL_Driver/Src/stm32f4xx_hal_rcc.c:901:74
	ldr	r0, [r0]
	.loc	5 901 102 is_stmt 0             @ ../ThirdParty/STM32F4xx_HAL_Driver/Src/stm32f4xx_hal_rcc.c:901:102
	ubfx	r0, r0, #6, #9
	movw	r1, #4608
	movt	r1, #122
	.loc	5 901 53                        @ ../ThirdParty/STM32F4xx_HAL_Driver/Src/stm32f4xx_hal_rcc.c:901:53
	umull	r0, r1, r0, r1
	.loc	5 901 142                       @ ../ThirdParty/STM32F4xx_HAL_Driver/Src/stm32f4xx_hal_rcc.c:901:142
	ldr	r2, [sp, #20]
	movs	r3, #0
	.loc	5 901 130                       @ ../ThirdParty/STM32F4xx_HAL_Driver/Src/stm32f4xx_hal_rcc.c:901:130
	bl	__aeabi_uldivmod
	.loc	5 901 16                        @ ../ThirdParty/STM32F4xx_HAL_Driver/Src/stm32f4xx_hal_rcc.c:901:16
	str	r0, [sp, #16]
	.loc	5 902 7 is_stmt 1               @ ../ThirdParty/STM32F4xx_HAL_Driver/Src/stm32f4xx_hal_rcc.c:902:7
	b	.LBB3_8
.Ltmp212:
.LBB3_7:
	.loc	5 0 7 is_stmt 0                 @ ../ThirdParty/STM32F4xx_HAL_Driver/Src/stm32f4xx_hal_rcc.c:0:7
	movw	r0, #14340
	movt	r0, #16386
.Ltmp213:
	.loc	5 906 74 is_stmt 1              @ ../ThirdParty/STM32F4xx_HAL_Driver/Src/stm32f4xx_hal_rcc.c:906:74
	ldr	r0, [r0]
	.loc	5 906 102 is_stmt 0             @ ../ThirdParty/STM32F4xx_HAL_Driver/Src/stm32f4xx_hal_rcc.c:906:102
	ubfx	r0, r0, #6, #9
	movw	r1, #9216
	movt	r1, #244
	.loc	5 906 53                        @ ../ThirdParty/STM32F4xx_HAL_Driver/Src/stm32f4xx_hal_rcc.c:906:53
	umull	r0, r1, r0, r1
	.loc	5 906 142                       @ ../ThirdParty/STM32F4xx_HAL_Driver/Src/stm32f4xx_hal_rcc.c:906:142
	ldr	r2, [sp, #20]
	movs	r3, #0
	.loc	5 906 130                       @ ../ThirdParty/STM32F4xx_HAL_Driver/Src/stm32f4xx_hal_rcc.c:906:130
	bl	__aeabi_uldivmod
	.loc	5 906 16                        @ ../ThirdParty/STM32F4xx_HAL_Driver/Src/stm32f4xx_hal_rcc.c:906:16
	str	r0, [sp, #16]
	b	.LBB3_8
.Ltmp214:
.LBB3_8:
	.loc	5 0 16                          @ ../ThirdParty/STM32F4xx_HAL_Driver/Src/stm32f4xx_hal_rcc.c:0:16
	movw	r0, #14340
	movt	r0, #16386
	.loc	5 908 23 is_stmt 1              @ ../ThirdParty/STM32F4xx_HAL_Driver/Src/stm32f4xx_hal_rcc.c:908:23
	ldr	r0, [r0]
	.loc	5 908 31 is_stmt 0              @ ../ThirdParty/STM32F4xx_HAL_Driver/Src/stm32f4xx_hal_rcc.c:908:31
	and	r1, r0, #196608
	movs	r0, #2
	.loc	5 908 82                        @ ../ThirdParty/STM32F4xx_HAL_Driver/Src/stm32f4xx_hal_rcc.c:908:82
	add.w	r0, r0, r1, lsr #15
	.loc	5 908 12                        @ ../ThirdParty/STM32F4xx_HAL_Driver/Src/stm32f4xx_hal_rcc.c:908:12
	str	r0, [sp, #12]
	.loc	5 910 22 is_stmt 1              @ ../ThirdParty/STM32F4xx_HAL_Driver/Src/stm32f4xx_hal_rcc.c:910:22
	ldr	r0, [sp, #16]
	.loc	5 910 29 is_stmt 0              @ ../ThirdParty/STM32F4xx_HAL_Driver/Src/stm32f4xx_hal_rcc.c:910:29
	ldr	r1, [sp, #12]
	.loc	5 910 28                        @ ../ThirdParty/STM32F4xx_HAL_Driver/Src/stm32f4xx_hal_rcc.c:910:28
	udiv	r0, r0, r1
	.loc	5 910 20                        @ ../ThirdParty/STM32F4xx_HAL_Driver/Src/stm32f4xx_hal_rcc.c:910:20
	str	r0, [sp, #8]
	.loc	5 911 7 is_stmt 1               @ ../ThirdParty/STM32F4xx_HAL_Driver/Src/stm32f4xx_hal_rcc.c:911:7
	b	.LBB3_10
.Ltmp215:
.LBB3_9:
	.loc	5 0 7 is_stmt 0                 @ ../ThirdParty/STM32F4xx_HAL_Driver/Src/stm32f4xx_hal_rcc.c:0:7
	movw	r0, #9216
	movt	r0, #244
.Ltmp216:
	.loc	5 915 20 is_stmt 1              @ ../ThirdParty/STM32F4xx_HAL_Driver/Src/stm32f4xx_hal_rcc.c:915:20
	str	r0, [sp, #8]
	.loc	5 916 7                         @ ../ThirdParty/STM32F4xx_HAL_Driver/Src/stm32f4xx_hal_rcc.c:916:7
	b	.LBB3_10
.Ltmp217:
.LBB3_10:
	.loc	5 919 10                        @ ../ThirdParty/STM32F4xx_HAL_Driver/Src/stm32f4xx_hal_rcc.c:919:10
	ldr	r0, [sp, #8]
	.loc	5 919 3 epilogue_begin is_stmt 0 @ ../ThirdParty/STM32F4xx_HAL_Driver/Src/stm32f4xx_hal_rcc.c:919:3
	add	sp, #24
	pop	{r7, pc}
.Ltmp218:
.Lfunc_end3:
	.size	HAL_RCC_GetSysClockFreq, .Lfunc_end3-HAL_RCC_GetSysClockFreq
	.cfi_endproc
	.cantunwind
	.fnend
                                        @ -- End function
	.section	.text.HAL_RCC_MCOConfig,"ax",%progbits
	.hidden	HAL_RCC_MCOConfig               @ -- Begin function HAL_RCC_MCOConfig
	.globl	HAL_RCC_MCOConfig
	.p2align	2
	.type	HAL_RCC_MCOConfig,%function
	.code	16                              @ @HAL_RCC_MCOConfig
	.thumb_func
HAL_RCC_MCOConfig:
.Lfunc_begin4:
	.loc	5 766 0 is_stmt 1               @ ../ThirdParty/STM32F4xx_HAL_Driver/Src/stm32f4xx_hal_rcc.c:766:0
	.fnstart
	.cfi_startproc
@ %bb.0:
	.save	{r7, lr}
	push	{r7, lr}
	.cfi_def_cfa_offset 8
	.cfi_offset lr, -4
	.cfi_offset r7, -8
	.pad	#40
	sub	sp, #40
	.cfi_def_cfa_offset 48
	str	r0, [sp, #36]
	str	r1, [sp, #32]
	str	r2, [sp, #28]
.Ltmp219:
	.loc	5 772 6 prologue_end            @ ../ThirdParty/STM32F4xx_HAL_Driver/Src/stm32f4xx_hal_rcc.c:772:6
	ldr	r0, [sp, #36]
.Ltmp220:
	.loc	5 772 6 is_stmt 0               @ ../ThirdParty/STM32F4xx_HAL_Driver/Src/stm32f4xx_hal_rcc.c:772:6
	cbnz	r0, .LBB4_4
	b	.LBB4_1
.LBB4_1:
.Ltmp221:
	.loc	5 777 5 is_stmt 1               @ ../ThirdParty/STM32F4xx_HAL_Driver/Src/stm32f4xx_hal_rcc.c:777:5
	b	.LBB4_2
.LBB4_2:
	.loc	5 0 5 is_stmt 0                 @ ../ThirdParty/STM32F4xx_HAL_Driver/Src/stm32f4xx_hal_rcc.c:0:5
	movs	r0, #0
.Ltmp222:
	.loc	5 777 5                         @ ../ThirdParty/STM32F4xx_HAL_Driver/Src/stm32f4xx_hal_rcc.c:777:5
	str	r0, [sp, #4]
	movw	r0, #14384
	movt	r0, #16386
	ldr	r1, [r0]
	orr	r1, r1, #1
	str	r1, [r0]
	ldr	r0, [r0]
	and	r0, r0, #1
	str	r0, [sp, #4]
	ldr	r0, [sp, #4]
	b	.LBB4_3
.Ltmp223:
.LBB4_3:
	.loc	5 0 5                           @ ../ThirdParty/STM32F4xx_HAL_Driver/Src/stm32f4xx_hal_rcc.c:0:5
	mov.w	r0, #256
	.loc	5 780 25 is_stmt 1              @ ../ThirdParty/STM32F4xx_HAL_Driver/Src/stm32f4xx_hal_rcc.c:780:25
	str	r0, [sp, #8]
	movs	r0, #2
	.loc	5 781 26                        @ ../ThirdParty/STM32F4xx_HAL_Driver/Src/stm32f4xx_hal_rcc.c:781:26
	str	r0, [sp, #12]
	movs	r0, #3
	.loc	5 782 27                        @ ../ThirdParty/STM32F4xx_HAL_Driver/Src/stm32f4xx_hal_rcc.c:782:27
	str	r0, [sp, #20]
	movs	r0, #0
	.loc	5 783 26                        @ ../ThirdParty/STM32F4xx_HAL_Driver/Src/stm32f4xx_hal_rcc.c:783:26
	str	r0, [sp, #16]
	.loc	5 784 31                        @ ../ThirdParty/STM32F4xx_HAL_Driver/Src/stm32f4xx_hal_rcc.c:784:31
	str	r0, [sp, #24]
	movs	r0, #0
	movt	r0, #16386
	add	r1, sp, #8
	.loc	5 785 5                         @ ../ThirdParty/STM32F4xx_HAL_Driver/Src/stm32f4xx_hal_rcc.c:785:5
	bl	HAL_GPIO_Init
	movw	r1, #14344
	movt	r1, #16386
	.loc	5 788 5                         @ ../ThirdParty/STM32F4xx_HAL_Driver/Src/stm32f4xx_hal_rcc.c:788:5
	ldr	r0, [r1]
	bic	r0, r0, #123731968
	ldr	r2, [sp, #32]
	ldr	r3, [sp, #28]
	orrs	r2, r3
	orrs	r0, r2
	str	r0, [r1]
	.loc	5 794 3                         @ ../ThirdParty/STM32F4xx_HAL_Driver/Src/stm32f4xx_hal_rcc.c:794:3
	b	.LBB4_7
.Ltmp224:
.LBB4_4:
	.loc	5 801 5                         @ ../ThirdParty/STM32F4xx_HAL_Driver/Src/stm32f4xx_hal_rcc.c:801:5
	b	.LBB4_5
.LBB4_5:
	.loc	5 0 5 is_stmt 0                 @ ../ThirdParty/STM32F4xx_HAL_Driver/Src/stm32f4xx_hal_rcc.c:0:5
	movs	r0, #0
.Ltmp225:
	.loc	5 801 5                         @ ../ThirdParty/STM32F4xx_HAL_Driver/Src/stm32f4xx_hal_rcc.c:801:5
	str	r0, [sp]
	movw	r0, #14384
	movt	r0, #16386
	ldr	r1, [r0]
	orr	r1, r1, #4
	str	r1, [r0]
	ldr	r0, [r0]
	and	r0, r0, #4
	str	r0, [sp]
	ldr	r0, [sp]
	b	.LBB4_6
.Ltmp226:
.LBB4_6:
	.loc	5 0 5                           @ ../ThirdParty/STM32F4xx_HAL_Driver/Src/stm32f4xx_hal_rcc.c:0:5
	mov.w	r0, #512
	.loc	5 804 25 is_stmt 1              @ ../ThirdParty/STM32F4xx_HAL_Driver/Src/stm32f4xx_hal_rcc.c:804:25
	str	r0, [sp, #8]
	movs	r0, #2
	.loc	5 805 26                        @ ../ThirdParty/STM32F4xx_HAL_Driver/Src/stm32f4xx_hal_rcc.c:805:26
	str	r0, [sp, #12]
	movs	r0, #3
	.loc	5 806 27                        @ ../ThirdParty/STM32F4xx_HAL_Driver/Src/stm32f4xx_hal_rcc.c:806:27
	str	r0, [sp, #20]
	movs	r0, #0
	.loc	5 807 26                        @ ../ThirdParty/STM32F4xx_HAL_Driver/Src/stm32f4xx_hal_rcc.c:807:26
	str	r0, [sp, #16]
	.loc	5 808 31                        @ ../ThirdParty/STM32F4xx_HAL_Driver/Src/stm32f4xx_hal_rcc.c:808:31
	str	r0, [sp, #24]
	movw	r0, #2048
	movt	r0, #16386
	add	r1, sp, #8
	.loc	5 809 5                         @ ../ThirdParty/STM32F4xx_HAL_Driver/Src/stm32f4xx_hal_rcc.c:809:5
	bl	HAL_GPIO_Init
	movw	r1, #14344
	movt	r1, #16386
	.loc	5 812 5                         @ ../ThirdParty/STM32F4xx_HAL_Driver/Src/stm32f4xx_hal_rcc.c:812:5
	ldr	r0, [r1]
	bic	r0, r0, #-134217728
	ldr	r2, [sp, #32]
	ldr	r3, [sp, #28]
	orr.w	r2, r2, r3, lsl #3
	orrs	r0, r2
	str	r0, [r1]
	b	.LBB4_7
.Ltmp227:
.LBB4_7:
	.loc	5 820 1 epilogue_begin          @ ../ThirdParty/STM32F4xx_HAL_Driver/Src/stm32f4xx_hal_rcc.c:820:1
	add	sp, #40
	pop	{r7, pc}
.Ltmp228:
.Lfunc_end4:
	.size	HAL_RCC_MCOConfig, .Lfunc_end4-HAL_RCC_MCOConfig
	.cfi_endproc
	.cantunwind
	.fnend
                                        @ -- End function
	.section	.text.HAL_RCC_EnableCSS,"ax",%progbits
	.hidden	HAL_RCC_EnableCSS               @ -- Begin function HAL_RCC_EnableCSS
	.globl	HAL_RCC_EnableCSS
	.p2align	2
	.type	HAL_RCC_EnableCSS,%function
	.code	16                              @ @HAL_RCC_EnableCSS
	.thumb_func
HAL_RCC_EnableCSS:
.Lfunc_begin5:
	.loc	5 832 0                         @ ../ThirdParty/STM32F4xx_HAL_Driver/Src/stm32f4xx_hal_rcc.c:832:0
	.fnstart
	.cfi_startproc
@ %bb.0:
	movs	r1, #76
	movt	r1, #16967
	movs	r0, #1
.Ltmp229:
	.loc	5 833 38 prologue_end           @ ../ThirdParty/STM32F4xx_HAL_Driver/Src/stm32f4xx_hal_rcc.c:833:38
	str	r0, [r1]
	.loc	5 834 1                         @ ../ThirdParty/STM32F4xx_HAL_Driver/Src/stm32f4xx_hal_rcc.c:834:1
	bx	lr
.Ltmp230:
.Lfunc_end5:
	.size	HAL_RCC_EnableCSS, .Lfunc_end5-HAL_RCC_EnableCSS
	.cfi_endproc
	.cantunwind
	.fnend
                                        @ -- End function
	.section	.text.HAL_RCC_DisableCSS,"ax",%progbits
	.hidden	HAL_RCC_DisableCSS              @ -- Begin function HAL_RCC_DisableCSS
	.globl	HAL_RCC_DisableCSS
	.p2align	2
	.type	HAL_RCC_DisableCSS,%function
	.code	16                              @ @HAL_RCC_DisableCSS
	.thumb_func
HAL_RCC_DisableCSS:
.Lfunc_begin6:
	.loc	5 841 0                         @ ../ThirdParty/STM32F4xx_HAL_Driver/Src/stm32f4xx_hal_rcc.c:841:0
	.fnstart
	.cfi_startproc
@ %bb.0:
	movs	r1, #76
	movt	r1, #16967
	movs	r0, #0
.Ltmp231:
	.loc	5 842 38 prologue_end           @ ../ThirdParty/STM32F4xx_HAL_Driver/Src/stm32f4xx_hal_rcc.c:842:38
	str	r0, [r1]
	.loc	5 843 1                         @ ../ThirdParty/STM32F4xx_HAL_Driver/Src/stm32f4xx_hal_rcc.c:843:1
	bx	lr
.Ltmp232:
.Lfunc_end6:
	.size	HAL_RCC_DisableCSS, .Lfunc_end6-HAL_RCC_DisableCSS
	.cfi_endproc
	.cantunwind
	.fnend
                                        @ -- End function
	.section	.text.HAL_RCC_GetHCLKFreq,"ax",%progbits
	.hidden	HAL_RCC_GetHCLKFreq             @ -- Begin function HAL_RCC_GetHCLKFreq
	.globl	HAL_RCC_GetHCLKFreq
	.p2align	2
	.type	HAL_RCC_GetHCLKFreq,%function
	.code	16                              @ @HAL_RCC_GetHCLKFreq
	.thumb_func
HAL_RCC_GetHCLKFreq:
.Lfunc_begin7:
	.fnstart
	.cfi_startproc
@ %bb.0:
	.loc	5 933 10 prologue_end           @ ../ThirdParty/STM32F4xx_HAL_Driver/Src/stm32f4xx_hal_rcc.c:933:10
	movw	r0, :lower16:SystemCoreClock
	movt	r0, :upper16:SystemCoreClock
	ldr	r0, [r0]
	.loc	5 933 3 is_stmt 0               @ ../ThirdParty/STM32F4xx_HAL_Driver/Src/stm32f4xx_hal_rcc.c:933:3
	bx	lr
.Ltmp233:
.Lfunc_end7:
	.size	HAL_RCC_GetHCLKFreq, .Lfunc_end7-HAL_RCC_GetHCLKFreq
	.cfi_endproc
	.cantunwind
	.fnend
                                        @ -- End function
	.section	.text.HAL_RCC_GetPCLK1Freq,"ax",%progbits
	.hidden	HAL_RCC_GetPCLK1Freq            @ -- Begin function HAL_RCC_GetPCLK1Freq
	.globl	HAL_RCC_GetPCLK1Freq
	.p2align	2
	.type	HAL_RCC_GetPCLK1Freq,%function
	.code	16                              @ @HAL_RCC_GetPCLK1Freq
	.thumb_func
HAL_RCC_GetPCLK1Freq:
.Lfunc_begin8:
	.loc	5 943 0 is_stmt 1               @ ../ThirdParty/STM32F4xx_HAL_Driver/Src/stm32f4xx_hal_rcc.c:943:0
	.fnstart
	.cfi_startproc
@ %bb.0:
	.save	{r7, lr}
	push	{r7, lr}
	.cfi_def_cfa_offset 8
	.cfi_offset lr, -4
	.cfi_offset r7, -8
.Ltmp234:
	.loc	5 945 11 prologue_end           @ ../ThirdParty/STM32F4xx_HAL_Driver/Src/stm32f4xx_hal_rcc.c:945:11
	bl	HAL_RCC_GetHCLKFreq
	movw	r1, #14344
	movt	r1, #16386
	.loc	5 945 56 is_stmt 0              @ ../ThirdParty/STM32F4xx_HAL_Driver/Src/stm32f4xx_hal_rcc.c:945:56
	ldr	r1, [r1]
	.loc	5 945 78                        @ ../ThirdParty/STM32F4xx_HAL_Driver/Src/stm32f4xx_hal_rcc.c:945:78
	ubfx	r2, r1, #10, #3
	.loc	5 945 36                        @ ../ThirdParty/STM32F4xx_HAL_Driver/Src/stm32f4xx_hal_rcc.c:945:36
	movw	r1, :lower16:APBPrescTable
	movt	r1, :upper16:APBPrescTable
	ldrb	r1, [r1, r2]
	.loc	5 945 33                        @ ../ThirdParty/STM32F4xx_HAL_Driver/Src/stm32f4xx_hal_rcc.c:945:33
	lsrs	r0, r1
	.loc	5 945 3 epilogue_begin          @ ../ThirdParty/STM32F4xx_HAL_Driver/Src/stm32f4xx_hal_rcc.c:945:3
	pop	{r7, pc}
.Ltmp235:
.Lfunc_end8:
	.size	HAL_RCC_GetPCLK1Freq, .Lfunc_end8-HAL_RCC_GetPCLK1Freq
	.cfi_endproc
	.cantunwind
	.fnend
                                        @ -- End function
	.section	.text.HAL_RCC_GetPCLK2Freq,"ax",%progbits
	.hidden	HAL_RCC_GetPCLK2Freq            @ -- Begin function HAL_RCC_GetPCLK2Freq
	.globl	HAL_RCC_GetPCLK2Freq
	.p2align	2
	.type	HAL_RCC_GetPCLK2Freq,%function
	.code	16                              @ @HAL_RCC_GetPCLK2Freq
	.thumb_func
HAL_RCC_GetPCLK2Freq:
.Lfunc_begin9:
	.loc	5 955 0 is_stmt 1               @ ../ThirdParty/STM32F4xx_HAL_Driver/Src/stm32f4xx_hal_rcc.c:955:0
	.fnstart
	.cfi_startproc
@ %bb.0:
	.save	{r7, lr}
	push	{r7, lr}
	.cfi_def_cfa_offset 8
	.cfi_offset lr, -4
	.cfi_offset r7, -8
.Ltmp236:
	.loc	5 957 11 prologue_end           @ ../ThirdParty/STM32F4xx_HAL_Driver/Src/stm32f4xx_hal_rcc.c:957:11
	bl	HAL_RCC_GetHCLKFreq
	movw	r1, #14344
	movt	r1, #16386
	.loc	5 957 55 is_stmt 0              @ ../ThirdParty/STM32F4xx_HAL_Driver/Src/stm32f4xx_hal_rcc.c:957:55
	ldr	r1, [r1]
	.loc	5 957 60                        @ ../ThirdParty/STM32F4xx_HAL_Driver/Src/stm32f4xx_hal_rcc.c:957:60
	uxth	r1, r1
	.loc	5 957 77                        @ ../ThirdParty/STM32F4xx_HAL_Driver/Src/stm32f4xx_hal_rcc.c:957:77
	lsrs	r2, r1, #13
	.loc	5 957 35                        @ ../ThirdParty/STM32F4xx_HAL_Driver/Src/stm32f4xx_hal_rcc.c:957:35
	movw	r1, :lower16:APBPrescTable
	movt	r1, :upper16:APBPrescTable
	ldrb	r1, [r1, r2]
	.loc	5 957 32                        @ ../ThirdParty/STM32F4xx_HAL_Driver/Src/stm32f4xx_hal_rcc.c:957:32
	lsrs	r0, r1
	.loc	5 957 3 epilogue_begin          @ ../ThirdParty/STM32F4xx_HAL_Driver/Src/stm32f4xx_hal_rcc.c:957:3
	pop	{r7, pc}
.Ltmp237:
.Lfunc_end9:
	.size	HAL_RCC_GetPCLK2Freq, .Lfunc_end9-HAL_RCC_GetPCLK2Freq
	.cfi_endproc
	.cantunwind
	.fnend
                                        @ -- End function
	.section	.text.HAL_RCC_GetOscConfig,"ax",%progbits
	.hidden	HAL_RCC_GetOscConfig            @ -- Begin function HAL_RCC_GetOscConfig
	.weak	HAL_RCC_GetOscConfig
	.p2align	2
	.type	HAL_RCC_GetOscConfig,%function
	.code	16                              @ @HAL_RCC_GetOscConfig
	.thumb_func
HAL_RCC_GetOscConfig:
.Lfunc_begin10:
	.loc	5 968 0 is_stmt 1               @ ../ThirdParty/STM32F4xx_HAL_Driver/Src/stm32f4xx_hal_rcc.c:968:0
	.fnstart
	.cfi_startproc
@ %bb.0:
	.pad	#4
	sub	sp, #4
	.cfi_def_cfa_offset 4
	str	r0, [sp]
.Ltmp238:
	.loc	5 970 3 prologue_end            @ ../ThirdParty/STM32F4xx_HAL_Driver/Src/stm32f4xx_hal_rcc.c:970:3
	ldr	r1, [sp]
	movs	r0, #15
	.loc	5 970 37 is_stmt 0              @ ../ThirdParty/STM32F4xx_HAL_Driver/Src/stm32f4xx_hal_rcc.c:970:37
	str	r0, [r1]
	movw	r0, #14336
	movt	r0, #16386
.Ltmp239:
	.loc	5 973 12 is_stmt 1              @ ../ThirdParty/STM32F4xx_HAL_Driver/Src/stm32f4xx_hal_rcc.c:973:12
	ldr	r0, [r0]
.Ltmp240:
	.loc	5 973 6 is_stmt 0               @ ../ThirdParty/STM32F4xx_HAL_Driver/Src/stm32f4xx_hal_rcc.c:973:6
	lsls	r0, r0, #13
	cmp	r0, #0
	bpl	.LBB10_2
	b	.LBB10_1
.LBB10_1:
.Ltmp241:
	.loc	5 975 5 is_stmt 1               @ ../ThirdParty/STM32F4xx_HAL_Driver/Src/stm32f4xx_hal_rcc.c:975:5
	ldr	r1, [sp]
	mov.w	r0, #327680
	.loc	5 975 33 is_stmt 0              @ ../ThirdParty/STM32F4xx_HAL_Driver/Src/stm32f4xx_hal_rcc.c:975:33
	str	r0, [r1, #4]
	.loc	5 976 3 is_stmt 1               @ ../ThirdParty/STM32F4xx_HAL_Driver/Src/stm32f4xx_hal_rcc.c:976:3
	b	.LBB10_6
.Ltmp242:
.LBB10_2:
	.loc	5 0 3 is_stmt 0                 @ ../ThirdParty/STM32F4xx_HAL_Driver/Src/stm32f4xx_hal_rcc.c:0:3
	movw	r0, #14336
	movt	r0, #16386
.Ltmp243:
	.loc	5 977 17 is_stmt 1              @ ../ThirdParty/STM32F4xx_HAL_Driver/Src/stm32f4xx_hal_rcc.c:977:17
	ldr	r0, [r0]
.Ltmp244:
	.loc	5 977 11 is_stmt 0              @ ../ThirdParty/STM32F4xx_HAL_Driver/Src/stm32f4xx_hal_rcc.c:977:11
	lsls	r0, r0, #15
	cmp	r0, #0
	bpl	.LBB10_4
	b	.LBB10_3
.LBB10_3:
.Ltmp245:
	.loc	5 979 5 is_stmt 1               @ ../ThirdParty/STM32F4xx_HAL_Driver/Src/stm32f4xx_hal_rcc.c:979:5
	ldr	r1, [sp]
	mov.w	r0, #65536
	.loc	5 979 33 is_stmt 0              @ ../ThirdParty/STM32F4xx_HAL_Driver/Src/stm32f4xx_hal_rcc.c:979:33
	str	r0, [r1, #4]
	.loc	5 980 3 is_stmt 1               @ ../ThirdParty/STM32F4xx_HAL_Driver/Src/stm32f4xx_hal_rcc.c:980:3
	b	.LBB10_5
.Ltmp246:
.LBB10_4:
	.loc	5 983 5                         @ ../ThirdParty/STM32F4xx_HAL_Driver/Src/stm32f4xx_hal_rcc.c:983:5
	ldr	r1, [sp]
	movs	r0, #0
	.loc	5 983 33 is_stmt 0              @ ../ThirdParty/STM32F4xx_HAL_Driver/Src/stm32f4xx_hal_rcc.c:983:33
	str	r0, [r1, #4]
	b	.LBB10_5
.Ltmp247:
.LBB10_5:
	.loc	5 0 33                          @ ../ThirdParty/STM32F4xx_HAL_Driver/Src/stm32f4xx_hal_rcc.c:0:33
	b	.LBB10_6
.LBB10_6:
	movw	r0, #14336
	movt	r0, #16386
.Ltmp248:
	.loc	5 987 12 is_stmt 1              @ ../ThirdParty/STM32F4xx_HAL_Driver/Src/stm32f4xx_hal_rcc.c:987:12
	ldr	r0, [r0]
.Ltmp249:
	.loc	5 987 6 is_stmt 0               @ ../ThirdParty/STM32F4xx_HAL_Driver/Src/stm32f4xx_hal_rcc.c:987:6
	lsls	r0, r0, #31
	cbz	r0, .LBB10_8
	b	.LBB10_7
.LBB10_7:
.Ltmp250:
	.loc	5 989 5 is_stmt 1               @ ../ThirdParty/STM32F4xx_HAL_Driver/Src/stm32f4xx_hal_rcc.c:989:5
	ldr	r1, [sp]
	movs	r0, #1
	.loc	5 989 33 is_stmt 0              @ ../ThirdParty/STM32F4xx_HAL_Driver/Src/stm32f4xx_hal_rcc.c:989:33
	str	r0, [r1, #12]
	.loc	5 990 3 is_stmt 1               @ ../ThirdParty/STM32F4xx_HAL_Driver/Src/stm32f4xx_hal_rcc.c:990:3
	b	.LBB10_9
.Ltmp251:
.LBB10_8:
	.loc	5 993 5                         @ ../ThirdParty/STM32F4xx_HAL_Driver/Src/stm32f4xx_hal_rcc.c:993:5
	ldr	r1, [sp]
	movs	r0, #0
	.loc	5 993 33 is_stmt 0              @ ../ThirdParty/STM32F4xx_HAL_Driver/Src/stm32f4xx_hal_rcc.c:993:33
	str	r0, [r1, #12]
	b	.LBB10_9
.Ltmp252:
.LBB10_9:
	.loc	5 0 33                          @ ../ThirdParty/STM32F4xx_HAL_Driver/Src/stm32f4xx_hal_rcc.c:0:33
	movw	r0, #14336
	movt	r0, #16386
	.loc	5 996 61 is_stmt 1              @ ../ThirdParty/STM32F4xx_HAL_Driver/Src/stm32f4xx_hal_rcc.c:996:61
	ldr	r0, [r0]
	.loc	5 996 64 is_stmt 0              @ ../ThirdParty/STM32F4xx_HAL_Driver/Src/stm32f4xx_hal_rcc.c:996:64
	uxtb	r0, r0
	.loc	5 996 81                        @ ../ThirdParty/STM32F4xx_HAL_Driver/Src/stm32f4xx_hal_rcc.c:996:81
	lsrs	r0, r0, #3
	.loc	5 996 3                         @ ../ThirdParty/STM32F4xx_HAL_Driver/Src/stm32f4xx_hal_rcc.c:996:3
	ldr	r1, [sp]
	.loc	5 996 42                        @ ../ThirdParty/STM32F4xx_HAL_Driver/Src/stm32f4xx_hal_rcc.c:996:42
	str	r0, [r1, #16]
	movw	r0, #14448
	movt	r0, #16386
.Ltmp253:
	.loc	5 999 12 is_stmt 1              @ ../ThirdParty/STM32F4xx_HAL_Driver/Src/stm32f4xx_hal_rcc.c:999:12
	ldr	r0, [r0]
.Ltmp254:
	.loc	5 999 6 is_stmt 0               @ ../ThirdParty/STM32F4xx_HAL_Driver/Src/stm32f4xx_hal_rcc.c:999:6
	lsls	r0, r0, #29
	cmp	r0, #0
	bpl	.LBB10_11
	b	.LBB10_10
.LBB10_10:
.Ltmp255:
	.loc	5 1001 5 is_stmt 1              @ ../ThirdParty/STM32F4xx_HAL_Driver/Src/stm32f4xx_hal_rcc.c:1001:5
	ldr	r1, [sp]
	movs	r0, #5
	.loc	5 1001 33 is_stmt 0             @ ../ThirdParty/STM32F4xx_HAL_Driver/Src/stm32f4xx_hal_rcc.c:1001:33
	str	r0, [r1, #8]
	.loc	5 1002 3 is_stmt 1              @ ../ThirdParty/STM32F4xx_HAL_Driver/Src/stm32f4xx_hal_rcc.c:1002:3
	b	.LBB10_15
.Ltmp256:
.LBB10_11:
	.loc	5 0 3 is_stmt 0                 @ ../ThirdParty/STM32F4xx_HAL_Driver/Src/stm32f4xx_hal_rcc.c:0:3
	movw	r0, #14448
	movt	r0, #16386
.Ltmp257:
	.loc	5 1003 17 is_stmt 1             @ ../ThirdParty/STM32F4xx_HAL_Driver/Src/stm32f4xx_hal_rcc.c:1003:17
	ldr	r0, [r0]
.Ltmp258:
	.loc	5 1003 11 is_stmt 0             @ ../ThirdParty/STM32F4xx_HAL_Driver/Src/stm32f4xx_hal_rcc.c:1003:11
	lsls	r0, r0, #31
	cbz	r0, .LBB10_13
	b	.LBB10_12
.LBB10_12:
.Ltmp259:
	.loc	5 1005 5 is_stmt 1              @ ../ThirdParty/STM32F4xx_HAL_Driver/Src/stm32f4xx_hal_rcc.c:1005:5
	ldr	r1, [sp]
	movs	r0, #1
	.loc	5 1005 33 is_stmt 0             @ ../ThirdParty/STM32F4xx_HAL_Driver/Src/stm32f4xx_hal_rcc.c:1005:33
	str	r0, [r1, #8]
	.loc	5 1006 3 is_stmt 1              @ ../ThirdParty/STM32F4xx_HAL_Driver/Src/stm32f4xx_hal_rcc.c:1006:3
	b	.LBB10_14
.Ltmp260:
.LBB10_13:
	.loc	5 1009 5                        @ ../ThirdParty/STM32F4xx_HAL_Driver/Src/stm32f4xx_hal_rcc.c:1009:5
	ldr	r1, [sp]
	movs	r0, #0
	.loc	5 1009 33 is_stmt 0             @ ../ThirdParty/STM32F4xx_HAL_Driver/Src/stm32f4xx_hal_rcc.c:1009:33
	str	r0, [r1, #8]
	b	.LBB10_14
.Ltmp261:
.LBB10_14:
	.loc	5 0 33                          @ ../ThirdParty/STM32F4xx_HAL_Driver/Src/stm32f4xx_hal_rcc.c:0:33
	b	.LBB10_15
.LBB10_15:
	movw	r0, #14452
	movt	r0, #16386
.Ltmp262:
	.loc	5 1013 12 is_stmt 1             @ ../ThirdParty/STM32F4xx_HAL_Driver/Src/stm32f4xx_hal_rcc.c:1013:12
	ldr	r0, [r0]
.Ltmp263:
	.loc	5 1013 6 is_stmt 0              @ ../ThirdParty/STM32F4xx_HAL_Driver/Src/stm32f4xx_hal_rcc.c:1013:6
	lsls	r0, r0, #31
	cbz	r0, .LBB10_17
	b	.LBB10_16
.LBB10_16:
.Ltmp264:
	.loc	5 1015 5 is_stmt 1              @ ../ThirdParty/STM32F4xx_HAL_Driver/Src/stm32f4xx_hal_rcc.c:1015:5
	ldr	r1, [sp]
	movs	r0, #1
	.loc	5 1015 33 is_stmt 0             @ ../ThirdParty/STM32F4xx_HAL_Driver/Src/stm32f4xx_hal_rcc.c:1015:33
	str	r0, [r1, #20]
	.loc	5 1016 3 is_stmt 1              @ ../ThirdParty/STM32F4xx_HAL_Driver/Src/stm32f4xx_hal_rcc.c:1016:3
	b	.LBB10_18
.Ltmp265:
.LBB10_17:
	.loc	5 1019 5                        @ ../ThirdParty/STM32F4xx_HAL_Driver/Src/stm32f4xx_hal_rcc.c:1019:5
	ldr	r1, [sp]
	movs	r0, #0
	.loc	5 1019 33 is_stmt 0             @ ../ThirdParty/STM32F4xx_HAL_Driver/Src/stm32f4xx_hal_rcc.c:1019:33
	str	r0, [r1, #20]
	b	.LBB10_18
.Ltmp266:
.LBB10_18:
	.loc	5 0 33                          @ ../ThirdParty/STM32F4xx_HAL_Driver/Src/stm32f4xx_hal_rcc.c:0:33
	movw	r0, #14336
	movt	r0, #16386
.Ltmp267:
	.loc	5 1023 12 is_stmt 1             @ ../ThirdParty/STM32F4xx_HAL_Driver/Src/stm32f4xx_hal_rcc.c:1023:12
	ldr	r0, [r0]
.Ltmp268:
	.loc	5 1023 6 is_stmt 0              @ ../ThirdParty/STM32F4xx_HAL_Driver/Src/stm32f4xx_hal_rcc.c:1023:6
	lsls	r0, r0, #7
	cmp	r0, #0
	bpl	.LBB10_20
	b	.LBB10_19
.LBB10_19:
.Ltmp269:
	.loc	5 1025 5 is_stmt 1              @ ../ThirdParty/STM32F4xx_HAL_Driver/Src/stm32f4xx_hal_rcc.c:1025:5
	ldr	r1, [sp]
	movs	r0, #2
	.loc	5 1025 37 is_stmt 0             @ ../ThirdParty/STM32F4xx_HAL_Driver/Src/stm32f4xx_hal_rcc.c:1025:37
	str	r0, [r1, #24]
	.loc	5 1026 3 is_stmt 1              @ ../ThirdParty/STM32F4xx_HAL_Driver/Src/stm32f4xx_hal_rcc.c:1026:3
	b	.LBB10_21
.Ltmp270:
.LBB10_20:
	.loc	5 1029 5                        @ ../ThirdParty/STM32F4xx_HAL_Driver/Src/stm32f4xx_hal_rcc.c:1029:5
	ldr	r1, [sp]
	movs	r0, #1
	.loc	5 1029 37 is_stmt 0             @ ../ThirdParty/STM32F4xx_HAL_Driver/Src/stm32f4xx_hal_rcc.c:1029:37
	str	r0, [r1, #24]
	b	.LBB10_21
.Ltmp271:
.LBB10_21:
	.loc	5 0 37                          @ ../ThirdParty/STM32F4xx_HAL_Driver/Src/stm32f4xx_hal_rcc.c:0:37
	movw	r0, #14340
	movt	r0, #16386
	.loc	5 1031 54 is_stmt 1             @ ../ThirdParty/STM32F4xx_HAL_Driver/Src/stm32f4xx_hal_rcc.c:1031:54
	ldr	r1, [r0]
	.loc	5 1031 62 is_stmt 0             @ ../ThirdParty/STM32F4xx_HAL_Driver/Src/stm32f4xx_hal_rcc.c:1031:62
	and	r1, r1, #4194304
	.loc	5 1031 3                        @ ../ThirdParty/STM32F4xx_HAL_Driver/Src/stm32f4xx_hal_rcc.c:1031:3
	ldr	r2, [sp]
	.loc	5 1031 36                       @ ../ThirdParty/STM32F4xx_HAL_Driver/Src/stm32f4xx_hal_rcc.c:1031:36
	str	r1, [r2, #28]
	.loc	5 1032 49 is_stmt 1             @ ../ThirdParty/STM32F4xx_HAL_Driver/Src/stm32f4xx_hal_rcc.c:1032:49
	ldr	r1, [r0]
	.loc	5 1032 57 is_stmt 0             @ ../ThirdParty/STM32F4xx_HAL_Driver/Src/stm32f4xx_hal_rcc.c:1032:57
	and	r1, r1, #63
	.loc	5 1032 3                        @ ../ThirdParty/STM32F4xx_HAL_Driver/Src/stm32f4xx_hal_rcc.c:1032:3
	ldr	r2, [sp]
	.loc	5 1032 31                       @ ../ThirdParty/STM32F4xx_HAL_Driver/Src/stm32f4xx_hal_rcc.c:1032:31
	str	r1, [r2, #32]
	.loc	5 1033 50 is_stmt 1             @ ../ThirdParty/STM32F4xx_HAL_Driver/Src/stm32f4xx_hal_rcc.c:1033:50
	ldr	r1, [r0]
	.loc	5 1033 78 is_stmt 0             @ ../ThirdParty/STM32F4xx_HAL_Driver/Src/stm32f4xx_hal_rcc.c:1033:78
	ubfx	r1, r1, #6, #9
	.loc	5 1033 3                        @ ../ThirdParty/STM32F4xx_HAL_Driver/Src/stm32f4xx_hal_rcc.c:1033:3
	ldr	r2, [sp]
	.loc	5 1033 31                       @ ../ThirdParty/STM32F4xx_HAL_Driver/Src/stm32f4xx_hal_rcc.c:1033:31
	str	r1, [r2, #36]
	.loc	5 1034 52 is_stmt 1             @ ../ThirdParty/STM32F4xx_HAL_Driver/Src/stm32f4xx_hal_rcc.c:1034:52
	ldr	r1, [r0]
	.loc	5 1034 60 is_stmt 0             @ ../ThirdParty/STM32F4xx_HAL_Driver/Src/stm32f4xx_hal_rcc.c:1034:60
	and	r1, r1, #196608
	.loc	5 1034 80                       @ ../ThirdParty/STM32F4xx_HAL_Driver/Src/stm32f4xx_hal_rcc.c:1034:80
	add.w	r1, r1, #65536
	.loc	5 1034 109                      @ ../ThirdParty/STM32F4xx_HAL_Driver/Src/stm32f4xx_hal_rcc.c:1034:109
	lsrs	r1, r1, #15
	.loc	5 1034 3                        @ ../ThirdParty/STM32F4xx_HAL_Driver/Src/stm32f4xx_hal_rcc.c:1034:3
	ldr	r2, [sp]
	.loc	5 1034 31                       @ ../ThirdParty/STM32F4xx_HAL_Driver/Src/stm32f4xx_hal_rcc.c:1034:31
	str	r1, [r2, #40]
	.loc	5 1035 50 is_stmt 1             @ ../ThirdParty/STM32F4xx_HAL_Driver/Src/stm32f4xx_hal_rcc.c:1035:50
	ldr	r0, [r0]
	.loc	5 1035 78 is_stmt 0             @ ../ThirdParty/STM32F4xx_HAL_Driver/Src/stm32f4xx_hal_rcc.c:1035:78
	ubfx	r0, r0, #24, #4
	.loc	5 1035 3                        @ ../ThirdParty/STM32F4xx_HAL_Driver/Src/stm32f4xx_hal_rcc.c:1035:3
	ldr	r1, [sp]
	.loc	5 1035 31                       @ ../ThirdParty/STM32F4xx_HAL_Driver/Src/stm32f4xx_hal_rcc.c:1035:31
	str	r0, [r1, #44]
	.loc	5 1036 1 epilogue_begin is_stmt 1 @ ../ThirdParty/STM32F4xx_HAL_Driver/Src/stm32f4xx_hal_rcc.c:1036:1
	add	sp, #4
	bx	lr
.Ltmp272:
.Lfunc_end10:
	.size	HAL_RCC_GetOscConfig, .Lfunc_end10-HAL_RCC_GetOscConfig
	.cfi_endproc
	.cantunwind
	.fnend
                                        @ -- End function
	.section	.text.HAL_RCC_GetClockConfig,"ax",%progbits
	.hidden	HAL_RCC_GetClockConfig          @ -- Begin function HAL_RCC_GetClockConfig
	.globl	HAL_RCC_GetClockConfig
	.p2align	2
	.type	HAL_RCC_GetClockConfig,%function
	.code	16                              @ @HAL_RCC_GetClockConfig
	.thumb_func
HAL_RCC_GetClockConfig:
.Lfunc_begin11:
	.loc	5 1047 0                        @ ../ThirdParty/STM32F4xx_HAL_Driver/Src/stm32f4xx_hal_rcc.c:1047:0
	.fnstart
	.cfi_startproc
@ %bb.0:
	.pad	#8
	sub	sp, #8
	.cfi_def_cfa_offset 8
	str	r0, [sp, #4]
	str	r1, [sp]
.Ltmp273:
	.loc	5 1049 3 prologue_end           @ ../ThirdParty/STM32F4xx_HAL_Driver/Src/stm32f4xx_hal_rcc.c:1049:3
	ldr	r1, [sp, #4]
	movs	r0, #15
	.loc	5 1049 32 is_stmt 0             @ ../ThirdParty/STM32F4xx_HAL_Driver/Src/stm32f4xx_hal_rcc.c:1049:32
	str	r0, [r1]
	movw	r0, #14344
	movt	r0, #16386
	.loc	5 1052 53 is_stmt 1             @ ../ThirdParty/STM32F4xx_HAL_Driver/Src/stm32f4xx_hal_rcc.c:1052:53
	ldr	r1, [r0]
	.loc	5 1052 58 is_stmt 0             @ ../ThirdParty/STM32F4xx_HAL_Driver/Src/stm32f4xx_hal_rcc.c:1052:58
	and	r1, r1, #3
	.loc	5 1052 3                        @ ../ThirdParty/STM32F4xx_HAL_Driver/Src/stm32f4xx_hal_rcc.c:1052:3
	ldr	r2, [sp, #4]
	.loc	5 1052 35                       @ ../ThirdParty/STM32F4xx_HAL_Driver/Src/stm32f4xx_hal_rcc.c:1052:35
	str	r1, [r2, #4]
	.loc	5 1055 54 is_stmt 1             @ ../ThirdParty/STM32F4xx_HAL_Driver/Src/stm32f4xx_hal_rcc.c:1055:54
	ldr	r1, [r0]
	.loc	5 1055 59 is_stmt 0             @ ../ThirdParty/STM32F4xx_HAL_Driver/Src/stm32f4xx_hal_rcc.c:1055:59
	and	r1, r1, #240
	.loc	5 1055 3                        @ ../ThirdParty/STM32F4xx_HAL_Driver/Src/stm32f4xx_hal_rcc.c:1055:3
	ldr	r2, [sp, #4]
	.loc	5 1055 36                       @ ../ThirdParty/STM32F4xx_HAL_Driver/Src/stm32f4xx_hal_rcc.c:1055:36
	str	r1, [r2, #8]
	.loc	5 1058 55 is_stmt 1             @ ../ThirdParty/STM32F4xx_HAL_Driver/Src/stm32f4xx_hal_rcc.c:1058:55
	ldr	r1, [r0]
	.loc	5 1058 60 is_stmt 0             @ ../ThirdParty/STM32F4xx_HAL_Driver/Src/stm32f4xx_hal_rcc.c:1058:60
	and	r1, r1, #7168
	.loc	5 1058 3                        @ ../ThirdParty/STM32F4xx_HAL_Driver/Src/stm32f4xx_hal_rcc.c:1058:3
	ldr	r2, [sp, #4]
	.loc	5 1058 37                       @ ../ThirdParty/STM32F4xx_HAL_Driver/Src/stm32f4xx_hal_rcc.c:1058:37
	str	r1, [r2, #12]
	.loc	5 1061 56 is_stmt 1             @ ../ThirdParty/STM32F4xx_HAL_Driver/Src/stm32f4xx_hal_rcc.c:1061:56
	ldr	r0, [r0]
	.loc	5 1061 61 is_stmt 0             @ ../ThirdParty/STM32F4xx_HAL_Driver/Src/stm32f4xx_hal_rcc.c:1061:61
	and	r0, r0, #57344
	.loc	5 1061 79                       @ ../ThirdParty/STM32F4xx_HAL_Driver/Src/stm32f4xx_hal_rcc.c:1061:79
	lsrs	r0, r0, #3
	.loc	5 1061 3                        @ ../ThirdParty/STM32F4xx_HAL_Driver/Src/stm32f4xx_hal_rcc.c:1061:3
	ldr	r1, [sp, #4]
	.loc	5 1061 37                       @ ../ThirdParty/STM32F4xx_HAL_Driver/Src/stm32f4xx_hal_rcc.c:1061:37
	str	r0, [r1, #16]
	movw	r0, #15360
	movt	r0, #16386
	.loc	5 1064 34 is_stmt 1             @ ../ThirdParty/STM32F4xx_HAL_Driver/Src/stm32f4xx_hal_rcc.c:1064:34
	ldr	r0, [r0]
	.loc	5 1064 38 is_stmt 0             @ ../ThirdParty/STM32F4xx_HAL_Driver/Src/stm32f4xx_hal_rcc.c:1064:38
	and	r0, r0, #15
	.loc	5 1064 4                        @ ../ThirdParty/STM32F4xx_HAL_Driver/Src/stm32f4xx_hal_rcc.c:1064:4
	ldr	r1, [sp]
	.loc	5 1064 14                       @ ../ThirdParty/STM32F4xx_HAL_Driver/Src/stm32f4xx_hal_rcc.c:1064:14
	str	r0, [r1]
	.loc	5 1065 1 epilogue_begin is_stmt 1 @ ../ThirdParty/STM32F4xx_HAL_Driver/Src/stm32f4xx_hal_rcc.c:1065:1
	add	sp, #8
	bx	lr
.Ltmp274:
.Lfunc_end11:
	.size	HAL_RCC_GetClockConfig, .Lfunc_end11-HAL_RCC_GetClockConfig
	.cfi_endproc
	.cantunwind
	.fnend
                                        @ -- End function
	.section	.text.HAL_RCC_NMI_IRQHandler,"ax",%progbits
	.hidden	HAL_RCC_NMI_IRQHandler          @ -- Begin function HAL_RCC_NMI_IRQHandler
	.globl	HAL_RCC_NMI_IRQHandler
	.p2align	2
	.type	HAL_RCC_NMI_IRQHandler,%function
	.code	16                              @ @HAL_RCC_NMI_IRQHandler
	.thumb_func
HAL_RCC_NMI_IRQHandler:
.Lfunc_begin12:
	.loc	5 1073 0                        @ ../ThirdParty/STM32F4xx_HAL_Driver/Src/stm32f4xx_hal_rcc.c:1073:0
	.fnstart
	.cfi_startproc
@ %bb.0:
	.save	{r7, lr}
	push	{r7, lr}
	.cfi_def_cfa_offset 8
	.cfi_offset lr, -4
	.cfi_offset r7, -8
	movw	r0, #14348
	movt	r0, #16386
.Ltmp275:
	.loc	5 1075 6 prologue_end           @ ../ThirdParty/STM32F4xx_HAL_Driver/Src/stm32f4xx_hal_rcc.c:1075:6
	ldr	r0, [r0]
.Ltmp276:
	.loc	5 1075 6 is_stmt 0              @ ../ThirdParty/STM32F4xx_HAL_Driver/Src/stm32f4xx_hal_rcc.c:1075:6
	lsls	r0, r0, #24
	cmp	r0, #0
	bpl	.LBB12_2
	b	.LBB12_1
.LBB12_1:
.Ltmp277:
	.loc	5 1078 5 is_stmt 1              @ ../ThirdParty/STM32F4xx_HAL_Driver/Src/stm32f4xx_hal_rcc.c:1078:5
	bl	HAL_RCC_CSSCallback
	movw	r1, #14350
	movt	r1, #16386
	movs	r0, #128
	.loc	5 1081 5                        @ ../ThirdParty/STM32F4xx_HAL_Driver/Src/stm32f4xx_hal_rcc.c:1081:5
	strb	r0, [r1]
	.loc	5 1082 3                        @ ../ThirdParty/STM32F4xx_HAL_Driver/Src/stm32f4xx_hal_rcc.c:1082:3
	b	.LBB12_2
.Ltmp278:
.LBB12_2:
	.loc	5 1083 1 epilogue_begin         @ ../ThirdParty/STM32F4xx_HAL_Driver/Src/stm32f4xx_hal_rcc.c:1083:1
	pop	{r7, pc}
.Ltmp279:
.Lfunc_end12:
	.size	HAL_RCC_NMI_IRQHandler, .Lfunc_end12-HAL_RCC_NMI_IRQHandler
	.cfi_endproc
	.cantunwind
	.fnend
                                        @ -- End function
	.section	.text.HAL_RCC_CSSCallback,"ax",%progbits
	.hidden	HAL_RCC_CSSCallback             @ -- Begin function HAL_RCC_CSSCallback
	.weak	HAL_RCC_CSSCallback
	.p2align	2
	.type	HAL_RCC_CSSCallback,%function
	.code	16                              @ @HAL_RCC_CSSCallback
	.thumb_func
HAL_RCC_CSSCallback:
.Lfunc_begin13:
	.fnstart
	.cfi_startproc
@ %bb.0:
	.loc	5 1094 1 prologue_end           @ ../ThirdParty/STM32F4xx_HAL_Driver/Src/stm32f4xx_hal_rcc.c:1094:1
	bx	lr
.Ltmp280:
.Lfunc_end13:
	.size	HAL_RCC_CSSCallback, .Lfunc_end13-HAL_RCC_CSSCallback
	.cfi_endproc
	.cantunwind
	.fnend
                                        @ -- End function
	.file	6 "D:\\ikingtec\\Robot\\ODrive\\Firmware\\MDK-ARM" "../ThirdParty/STM32F4xx_HAL_Driver/Inc\\stm32f4xx_hal_rcc.h"
	.file	7 "D:\\ikingtec\\Robot\\ODrive\\Firmware\\MDK-ARM" "../ThirdParty/STM32F4xx_HAL_Driver/Inc/stm32f4xx_hal_rcc_ex.h"
	.file	8 "D:\\ikingtec\\Robot\\ODrive\\Firmware\\MDK-ARM" "../ThirdParty/STM32F4xx_HAL_Driver/Inc\\stm32f4xx_hal_gpio.h"
	.section	".note.GNU-stack","",%progbits
	.eabi_attribute	30, 6	@ Tag_ABI_optimization_goals
	.ARM_attribute	16, 1	@ Tag_AV_eba