	.text
	.syntax unified
	.eabi_attribute	67, "2.09"	@ Tag_conformance
	.cpu	cortex-m4
	.eabi_attribute	6, 13	@ Tag_CPU_arch
	.eabi_attribute	7, 77	@ Tag_CPU_arch_profile
	.eabi_attribute	8, 0	@ Tag_ARM_ISA_use
	.eabi_attribute	9, 2	@ Tag_THUMB_ISA_use
	.fpu	fpv4-sp-d16
	.eabi_attribute	27, 1	@ Tag_ABI_HardFP_use
	.eabi_attribute	36, 1	@ Tag_FP_HP_extension
	.eabi_attribute	34, 1	@ Tag_CPU_unaligned_access
	.eabi_attribute	17, 1	@ Tag_ABI_PCS_GOT_use
	.eabi_attribute	20, 2	@ Tag_ABI_FP_denormal
	.eabi_attribute	21, 0	@ Tag_ABI_FP_exceptions
	.eabi_attribute	23, 1	@ Tag_ABI_FP_number_model
	.eabi_attribute	24, 1	@ Tag_ABI_align_needed
	.eabi_attribute	25, 1	@ Tag_ABI_align_preserved
	.eabi_attribute	28, 1	@ Tag_ABI_VFP_args
	.eabi_attribute	38, 1	@ Tag_ABI_FP_16bit_format
	.eabi_attribute	18, 2	@ Tag_ABI_PCS_wchar_t
	.eabi_attribute	26, 1	@ Tag_ABI_enum_size
	.eabi_attribute	14, 0	@ Tag_ABI_PCS_R9_use
	.file	"stream_buffer.c"
	.file	1 "D:\\ikingtec\\Robot\\ODrive\\Firmware\\MDK-ARM" "../ThirdParty/FreeRTOS/Source/include\\task.h"
	.file	2 "D:\\Embed\\MDK\\MDK\\ARM\\ARMCompilerV621\\Bin\\..\\include" "stdint.h"
	.file	3 "D:\\ikingtec\\Robot\\ODrive\\Firmware\\MDK-ARM" "../ThirdParty/FreeRTOS/Source/portable/GCC/ARM_CM4F\\portmacro.h"
	.file	4 "D:\\Embed\\MDK\\MDK\\ARM\\ARMCompilerV621\\Bin\\..\\include" "string.h"
	.section	.text.vStreamBufferDelete,"ax",%progbits
	.hidden	vStreamBufferDelete             @ -- Begin function vStreamBufferDelete
	.globl	vStreamBufferDelete
	.p2align	2
	.type	vStreamBufferDelete,%function
	.code	16                              @ @vStreamBufferDelete
	.thumb_func
vStreamBufferDelete:
.Lfunc_begin0:
	.file	5 "D:\\ikingtec\\Robot\\ODrive\\Firmware\\MDK-ARM" "../ThirdParty/FreeRTOS/Source/stream_buffer.c"
	.loc	5 225 0                         @ ../ThirdParty/FreeRTOS/Source/stream_buffer.c:225:0
	.fnstart
	.cfi_sections .debug_frame
	.cfi_startproc
@ %bb.0:
	.save	{r7, lr}
	push	{r7, lr}
	.cfi_def_cfa_offset 8
	.cfi_offset lr, -4
	.cfi_offset r7, -8
	.pad	#24
	sub	sp, #24
	.cfi_def_cfa_offset 32
	str	r0, [sp, #16]
.Ltmp0:
	.loc	5 226 35 prologue_end           @ ../ThirdParty/FreeRTOS/Source/stream_buffer.c:226:35
	ldr	r0, [sp, #16]
	.loc	5 226 18 is_stmt 0              @ ../ThirdParty/FreeRTOS/Source/stream_buffer.c:226:18
	str	r0, [sp, #12]
.Ltmp1:
	.loc	5 228 2 is_stmt 1               @ ../ThirdParty/FreeRTOS/Source/stream_buffer.c:228:2
	ldr	r0, [sp, #12]
.Ltmp2:
	.loc	5 228 2 is_stmt 0               @ ../ThirdParty/FreeRTOS/Source/stream_buffer.c:228:2
	cbnz	r0, .LBB0_3
	b	.LBB0_1
.LBB0_1:
.Ltmp3:
	.loc	3 199 2 is_stmt 1               @ ../ThirdParty/FreeRTOS/Source/portable/GCC/ARM_CM4F\portmacro.h:199:2
	@APP
	mov.w	r0, #80
	msr	basepri, r0
	isb	sy
	dsb	sy

	@NO_APP
	str	r0, [sp, #20]
.Ltmp4:
	.loc	5 228 2                         @ ../ThirdParty/FreeRTOS/Source/stream_buffer.c:228:2
	b	.LBB0_2
.LBB0_2:                                @ =>This Inner Loop Header: Depth=1
.Ltmp5:
	.loc	5 228 2 is_stmt 0               @ ../ThirdParty/FreeRTOS/Source/stream_buffer.c:228:2
	b	.LBB0_2
.Ltmp6:
.LBB0_3:
	.loc	5 232 8 is_stmt 1               @ ../ThirdParty/FreeRTOS/Source/stream_buffer.c:232:8
	ldr	r0, [sp, #12]
	ldrb	r0, [r0, #28]
.Ltmp7:
	.loc	5 232 6 is_stmt 0               @ ../ThirdParty/FreeRTOS/Source/stream_buffer.c:232:6
	lsls	r0, r0, #30
	cmp	r0, #0
	bmi	.LBB0_5
	b	.LBB0_4
.LBB0_4:
.Ltmp8:
	.loc	5 238 26 is_stmt 1              @ ../ThirdParty/FreeRTOS/Source/stream_buffer.c:238:26
	ldr	r0, [sp, #12]
	.loc	5 238 4 is_stmt 0               @ ../ThirdParty/FreeRTOS/Source/stream_buffer.c:238:4
	bl	vPortFree
.Ltmp9:
	.loc	5 247 2 is_stmt 1               @ ../ThirdParty/FreeRTOS/Source/stream_buffer.c:247:2
	b	.LBB0_6
.Ltmp10:
.LBB0_5:
	.loc	5 252 20                        @ ../ThirdParty/FreeRTOS/Source/stream_buffer.c:252:20
	ldr	r1, [sp, #12]
	str	r1, [sp, #4]                    @ 4-byte Spill
	movs	r0, #0
	.loc	5 252 12 is_stmt 0              @ ../ThirdParty/FreeRTOS/Source/stream_buffer.c:252:12
	str	r0, [sp, #8]                    @ 4-byte Spill
	str	r0, [r1, #28]
	str	r0, [r1, #24]
	str	r0, [r1, #20]
	str	r0, [r1, #16]
	str	r0, [r1, #12]
	str	r0, [r1, #8]
	str	r0, [r1, #4]
	str	r0, [r1]
	b	.LBB0_6
.Ltmp11:
.LBB0_6:
	.loc	5 254 1 epilogue_begin is_stmt 1 @ ../ThirdParty/FreeRTOS/Source/stream_buffer.c:254:1
	add	sp, #24
	pop	{r7, pc}
.Ltmp12:
.Lfunc_end0:
	.size	vStreamBufferDelete, .Lfunc_end0-vStreamBufferDelete
	.cfi_endproc
	.cantunwind
	.fnend
                                        @ -- End function
	.section	.text.xStreamBufferReset,"ax",%progbits
	.hidden	xStreamBufferReset              @ -- Begin function xStreamBufferReset
	.globl	xStreamBufferReset
	.p2align	2
	.type	xStreamBufferReset,%function
	.code	16                              @ @xStreamBufferReset
	.thumb_func
xStreamBufferReset:
.Lfunc_begin1:
	.loc	5 258 0                         @ ../ThirdParty/FreeRTOS/Source/stream_buffer.c:258:0
	.fnstart
	.cfi_startproc
@ %bb.0:
	.save	{r7, lr}
	push	{r7, lr}
	.cfi_def_cfa_offset 8
	.cfi_offset lr, -4
	.cfi_offset r7, -8
	.pad	#24
	sub	sp, #24
	.cfi_def_cfa_offset 32
	str	r0, [sp, #16]
.Ltmp13:
	.loc	5 259 41 prologue_end           @ ../ThirdParty/FreeRTOS/Source/stream_buffer.c:259:41
	ldr	r0, [sp, #16]
	.loc	5 259 24 is_stmt 0              @ ../ThirdParty/FreeRTOS/Source/stream_buffer.c:259:24
	str	r0, [sp, #12]
	movs	r0, #0
	.loc	5 260 12 is_stmt 1              @ ../ThirdParty/FreeRTOS/Source/stream_buffer.c:260:12
	str	r0, [sp, #8]
.Ltmp14:
	.loc	5 266 2                         @ ../ThirdParty/FreeRTOS/Source/stream_buffer.c:266:2
	ldr	r0, [sp, #12]
.Ltmp15:
	.loc	5 266 2 is_stmt 0               @ ../ThirdParty/FreeRTOS/Source/stream_buffer.c:266:2
	cbnz	r0, .LBB1_3
	b	.LBB1_1
.LBB1_1:
.Ltmp16:
	.loc	3 199 2 is_stmt 1               @ ../ThirdParty/FreeRTOS/Source/portable/GCC/ARM_CM4F\portmacro.h:199:2
	@APP
	mov.w	r0, #80
	msr	basepri, r0
	isb	sy
	dsb	sy

	@NO_APP
	str	r0, [sp, #20]
.Ltmp17:
	.loc	5 266 2                         @ ../ThirdParty/FreeRTOS/Source/stream_buffer.c:266:2
	b	.LBB1_2
.LBB1_2:                                @ =>This Inner Loop Header: Depth=1
.Ltmp18:
	.loc	5 266 2 is_stmt 0               @ ../ThirdParty/FreeRTOS/Source/stream_buffer.c:266:2
	b	.LBB1_2
.Ltmp19:
.LBB1_3:
	.loc	5 277 2 is_stmt 1               @ ../ThirdParty/FreeRTOS/Source/stream_buffer.c:277:2
	bl	vPortEnterCritical
.Ltmp20:
	.loc	5 279 7                         @ ../ThirdParty/FreeRTOS/Source/stream_buffer.c:279:7
	ldr	r0, [sp, #12]
	.loc	5 279 23 is_stmt 0              @ ../ThirdParty/FreeRTOS/Source/stream_buffer.c:279:23
	ldr	r0, [r0, #16]
.Ltmp21:
	.loc	5 279 7                         @ ../ThirdParty/FreeRTOS/Source/stream_buffer.c:279:7
	cbnz	r0, .LBB1_7
	b	.LBB1_4
.LBB1_4:
.Ltmp22:
	.loc	5 281 8 is_stmt 1               @ ../ThirdParty/FreeRTOS/Source/stream_buffer.c:281:8
	ldr	r0, [sp, #12]
	.loc	5 281 24 is_stmt 0              @ ../ThirdParty/FreeRTOS/Source/stream_buffer.c:281:24
	ldr	r0, [r0, #20]
.Ltmp23:
	.loc	5 281 8                         @ ../ThirdParty/FreeRTOS/Source/stream_buffer.c:281:8
	cbnz	r0, .LBB1_6
	b	.LBB1_5
.LBB1_5:
.Ltmp24:
	.loc	5 283 35 is_stmt 1              @ ../ThirdParty/FreeRTOS/Source/stream_buffer.c:283:35
	ldr	r0, [sp, #12]
	.loc	5 285 30                        @ ../ThirdParty/FreeRTOS/Source/stream_buffer.c:285:30
	ldr	r2, [r0, #8]
	.loc	5 286 30                        @ ../ThirdParty/FreeRTOS/Source/stream_buffer.c:286:30
	ldr	r3, [r0, #12]
	.loc	5 284 30                        @ ../ThirdParty/FreeRTOS/Source/stream_buffer.c:284:30
	ldr	r1, [r0, #24]
	.loc	5 287 30                        @ ../ThirdParty/FreeRTOS/Source/stream_buffer.c:287:30
	ldrb.w	r12, [r0, #28]
	.loc	5 283 5                         @ ../ThirdParty/FreeRTOS/Source/stream_buffer.c:283:5
	mov	lr, sp
	str.w	r12, [lr]
	bl	prvInitialiseNewStreamBuffer
	movs	r0, #1
	.loc	5 288 13                        @ ../ThirdParty/FreeRTOS/Source/stream_buffer.c:288:13
	str	r0, [sp, #8]
	.loc	5 297 4                         @ ../ThirdParty/FreeRTOS/Source/stream_buffer.c:297:4
	b	.LBB1_6
.Ltmp25:
.LBB1_6:
	.loc	5 298 3                         @ ../ThirdParty/FreeRTOS/Source/stream_buffer.c:298:3
	b	.LBB1_7
.Ltmp26:
.LBB1_7:
	.loc	5 300 2                         @ ../ThirdParty/FreeRTOS/Source/stream_buffer.c:300:2
	bl	vPortExitCritical
	.loc	5 302 9                         @ ../ThirdParty/FreeRTOS/Source/stream_buffer.c:302:9
	ldr	r0, [sp, #8]
	.loc	5 302 2 epilogue_begin is_stmt 0 @ ../ThirdParty/FreeRTOS/Source/stream_buffer.c:302:2
	add	sp, #24
	pop	{r7, pc}
.Ltmp27:
.Lfunc_end1:
	.size	xStreamBufferReset, .Lfunc_end1-xStreamBufferReset
	.cfi_endproc
	.cantunwind
	.fnend
                                        @ -- End function
	.section	.text.prvInitialiseNewStreamBuffer,"ax",%progbits
	.p2align	2                               @ -- Begin function prvInitialiseNewStreamBuffer
	.type	prvInitialiseNewStreamBuffer,%function
	.code	16                              @ @prvInitialiseNewStreamBuffer
	.thumb_func
prvInitialiseNewStreamBuffer:
.Lfunc_begin2:
	.loc	5 1079 0 is_stmt 1              @ ../ThirdParty/FreeRTOS/Source/stream_buffer.c:1079:0
	.fnstart
	.cfi_startproc
@ %bb.0:
	.save	{r7, lr}
	push	{r7, lr}
	.cfi_def_cfa_offset 8
	.cfi_offset lr, -4
	.cfi_offset r7, -8
	.pad	#32
	sub	sp, #32
	.cfi_def_cfa_offset 40
	mov	r12, r0
	ldr	r0, [sp, #40]
	str.w	r12, [sp, #24]
	str	r1, [sp, #20]
	str	r2, [sp, #16]
	str	r3, [sp, #12]
	strb.w	r0, [sp, #11]
	movs	r2, #85
.Ltmp28:
	.loc	5 1088 20 prologue_end          @ ../ThirdParty/FreeRTOS/Source/stream_buffer.c:1088:20
	str	r2, [sp, #4]
.Ltmp29:
	.loc	5 1089 3                        @ ../ThirdParty/FreeRTOS/Source/stream_buffer.c:1089:3
	ldr	r0, [sp, #20]
	str	r0, [sp]                        @ 4-byte Spill
	ldr	r1, [sp, #16]
	bl	__aeabi_memset
	ldr	r0, [sp]                        @ 4-byte Reload
	ldr	r1, [sp, #20]
.Ltmp30:
	.loc	5 1089 3 is_stmt 0              @ ../ThirdParty/FreeRTOS/Source/stream_buffer.c:1089:3
	cmp	r0, r1
	beq	.LBB2_3
	b	.LBB2_1
.LBB2_1:
.Ltmp31:
	.loc	3 199 2 is_stmt 1               @ ../ThirdParty/FreeRTOS/Source/portable/GCC/ARM_CM4F\portmacro.h:199:2
	@APP
	mov.w	r0, #80
	msr	basepri, r0
	isb	sy
	dsb	sy

	@NO_APP
	str	r0, [sp, #28]
.Ltmp32:
	.loc	5 1089 3                        @ ../ThirdParty/FreeRTOS/Source/stream_buffer.c:1089:3
	b	.LBB2_2
.LBB2_2:                                @ =>This Inner Loop Header: Depth=1
.Ltmp33:
	.loc	5 1089 3 is_stmt 0              @ ../ThirdParty/FreeRTOS/Source/stream_buffer.c:1089:3
	b	.LBB2_2
.Ltmp34:
.LBB2_3:
	.loc	5 1093 30 is_stmt 1             @ ../ThirdParty/FreeRTOS/Source/stream_buffer.c:1093:30
	ldr	r1, [sp, #24]
	movs	r0, #0
	.loc	5 1093 11 is_stmt 0             @ ../ThirdParty/FreeRTOS/Source/stream_buffer.c:1093:11
	str	r0, [r1, #28]
	str	r0, [r1, #24]
	str	r0, [r1, #20]
	str	r0, [r1, #16]
	str	r0, [r1, #12]
	str	r0, [r1, #8]
	str	r0, [r1, #4]
	str	r0, [r1]
	.loc	5 1094 30 is_stmt 1             @ ../ThirdParty/FreeRTOS/Source/stream_buffer.c:1094:30
	ldr	r0, [sp, #20]
	.loc	5 1094 2 is_stmt 0              @ ../ThirdParty/FreeRTOS/Source/stream_buffer.c:1094:2
	ldr	r1, [sp, #24]
	.loc	5 1094 28                       @ ../ThirdParty/FreeRTOS/Source/stream_buffer.c:1094:28
	str	r0, [r1, #24]
	.loc	5 1095 28 is_stmt 1             @ ../ThirdParty/FreeRTOS/Source/stream_buffer.c:1095:28
	ldr	r0, [sp, #16]
	.loc	5 1095 2 is_stmt 0              @ ../ThirdParty/FreeRTOS/Source/stream_buffer.c:1095:2
	ldr	r1, [sp, #24]
	.loc	5 1095 26                       @ ../ThirdParty/FreeRTOS/Source/stream_buffer.c:1095:26
	str	r0, [r1, #8]
	.loc	5 1096 39 is_stmt 1             @ ../ThirdParty/FreeRTOS/Source/stream_buffer.c:1096:39
	ldr	r0, [sp, #12]
	.loc	5 1096 2 is_stmt 0              @ ../ThirdParty/FreeRTOS/Source/stream_buffer.c:1096:2
	ldr	r1, [sp, #24]
	.loc	5 1096 37                       @ ../ThirdParty/FreeRTOS/Source/stream_buffer.c:1096:37
	str	r0, [r1, #12]
	.loc	5 1097 28 is_stmt 1             @ ../ThirdParty/FreeRTOS/Source/stream_buffer.c:1097:28
	ldrb.w	r0, [sp, #11]
	.loc	5 1097 2 is_stmt 0              @ ../ThirdParty/FreeRTOS/Source/stream_buffer.c:1097:2
	ldr	r1, [sp, #24]
	.loc	5 1097 26                       @ ../ThirdParty/FreeRTOS/Source/stream_buffer.c:1097:26
	strb	r0, [r1, #28]
	.loc	5 1098 1 epilogue_begin is_stmt 1 @ ../ThirdParty/FreeRTOS/Source/stream_buffer.c:1098:1
	add	sp, #32
	pop	{r7, pc}
.Ltmp35:
.Lfunc_end2:
	.size	prvInitialiseNewStreamBuffer, .Lfunc_end2-prvInitialiseNewStreamBuffer
	.cfi_endproc
	.cantunwind
	.fnend
                                        @ -- End function
	.section	.text.xStreamBufferSetTriggerLevel,"ax",%progbits
	.hidden	xStreamBufferSetTriggerLevel    @ -- Begin function xStreamBufferSetTriggerLevel
	.globl	xStreamBufferSetTriggerLevel
	.p2align	2
	.type	xStreamBufferSetTriggerLevel,%function
	.code	16                              @ @xStreamBufferSetTriggerLevel
	.thumb_func
xStreamBufferSetTriggerLevel:
.Lfunc_begin3:
	.loc	5 307 0                         @ ../ThirdParty/FreeRTOS/Source/stream_buffer.c:307:0
	.fnstart
	.cfi_startproc
@ %bb.0:
	.pad	#20
	sub	sp, #20
	.cfi_def_cfa_offset 20
	str	r0, [sp, #12]
	str	r1, [sp, #8]
.Ltmp36:
	.loc	5 308 41 prologue_end           @ ../ThirdParty/FreeRTOS/Source/stream_buffer.c:308:41
	ldr	r0, [sp, #12]
	.loc	5 308 24 is_stmt 0              @ ../ThirdParty/FreeRTOS/Source/stream_buffer.c:308:24
	str	r0, [sp, #4]
.Ltmp37:
	.loc	5 311 2 is_stmt 1               @ ../ThirdParty/FreeRTOS/Source/stream_buffer.c:311:2
	ldr	r0, [sp, #4]
.Ltmp38:
	.loc	5 311 2 is_stmt 0               @ ../ThirdParty/FreeRTOS/Source/stream_buffer.c:311:2
	cbnz	r0, .LBB3_3
	b	.LBB3_1
.LBB3_1:
.Ltmp39:
	.loc	3 199 2 is_stmt 1               @ ../ThirdParty/FreeRTOS/Source/portable/GCC/ARM_CM4F\portmacro.h:199:2
	@APP
	mov.w	r0, #80
	msr	basepri, r0
	isb	sy
	dsb	sy

	@NO_APP
	str	r0, [sp, #16]
.Ltmp40:
	.loc	5 311 2                         @ ../ThirdParty/FreeRTOS/Source/stream_buffer.c:311:2
	b	.LBB3_2
.LBB3_2:                                @ =>This Inner Loop Header: Depth=1
.Ltmp41:
	.loc	5 311 2 is_stmt 0               @ ../ThirdParty/FreeRTOS/Source/stream_buffer.c:311:2
	b	.LBB3_2
.Ltmp42:
.LBB3_3:
	.loc	5 314 6 is_stmt 1               @ ../ThirdParty/FreeRTOS/Source/stream_buffer.c:314:6
	ldr	r0, [sp, #8]
.Ltmp43:
	.loc	5 314 6 is_stmt 0               @ ../ThirdParty/FreeRTOS/Source/stream_buffer.c:314:6
	cbnz	r0, .LBB3_5
	b	.LBB3_4
.LBB3_4:
	.loc	5 0 6                           @ ../ThirdParty/FreeRTOS/Source/stream_buffer.c:0:6
	movs	r0, #1
.Ltmp44:
	.loc	5 316 17 is_stmt 1              @ ../ThirdParty/FreeRTOS/Source/stream_buffer.c:316:17
	str	r0, [sp, #8]
	.loc	5 317 2                         @ ../ThirdParty/FreeRTOS/Source/stream_buffer.c:317:2
	b	.LBB3_5
.Ltmp45:
.LBB3_5:
	.loc	5 321 6                         @ ../ThirdParty/FreeRTOS/Source/stream_buffer.c:321:6
	ldr	r0, [sp, #8]
	.loc	5 321 23 is_stmt 0              @ ../ThirdParty/FreeRTOS/Source/stream_buffer.c:321:23
	ldr	r1, [sp, #4]
	.loc	5 321 39                        @ ../ThirdParty/FreeRTOS/Source/stream_buffer.c:321:39
	ldr	r1, [r1, #8]
.Ltmp46:
	.loc	5 321 6                         @ ../ThirdParty/FreeRTOS/Source/stream_buffer.c:321:6
	cmp	r0, r1
	bhi	.LBB3_7
	b	.LBB3_6
.LBB3_6:
.Ltmp47:
	.loc	5 323 40 is_stmt 1              @ ../ThirdParty/FreeRTOS/Source/stream_buffer.c:323:40
	ldr	r0, [sp, #8]
	.loc	5 323 3 is_stmt 0               @ ../ThirdParty/FreeRTOS/Source/stream_buffer.c:323:3
	ldr	r1, [sp, #4]
	.loc	5 323 38                        @ ../ThirdParty/FreeRTOS/Source/stream_buffer.c:323:38
	str	r0, [r1, #12]
	movs	r0, #1
	.loc	5 324 11 is_stmt 1              @ ../ThirdParty/FreeRTOS/Source/stream_buffer.c:324:11
	str	r0, [sp]
	.loc	5 325 2                         @ ../ThirdParty/FreeRTOS/Source/stream_buffer.c:325:2
	b	.LBB3_8
.Ltmp48:
.LBB3_7:
	.loc	5 0 2 is_stmt 0                 @ ../ThirdParty/FreeRTOS/Source/stream_buffer.c:0:2
	movs	r0, #0
.Ltmp49:
	.loc	5 328 11 is_stmt 1              @ ../ThirdParty/FreeRTOS/Source/stream_buffer.c:328:11
	str	r0, [sp]
	b	.LBB3_8
.Ltmp50:
.LBB3_8:
	.loc	5 331 9                         @ ../ThirdParty/FreeRTOS/Source/stream_buffer.c:331:9
	ldr	r0, [sp]
	.loc	5 331 2 epilogue_begin is_stmt 0 @ ../ThirdParty/FreeRTOS/Source/stream_buffer.c:331:2
	add	sp, #20
	bx	lr
.Ltmp51:
.Lfunc_end3:
	.size	xStreamBufferSetTriggerLevel, .Lfunc_end3-xStreamBufferSetTriggerLevel
	.cfi_endproc
	.cantunwind
	.fnend
                                        @ -- End function
	.section	.text.xStreamBufferSpacesAvailable,"ax",%progbits
	.hidden	xStreamBufferSpacesAvailable    @ -- Begin function xStreamBufferSpacesAvailable
	.globl	xStreamBufferSpacesAvailable
	.p2align	2
	.type	xStreamBufferSpacesAvailable,%function
	.code	16                              @ @xStreamBufferSpacesAvailable
	.thumb_func
xStreamBufferSpacesAvailable:
.Lfunc_begin4:
	.loc	5 336 0 is_stmt 1               @ ../ThirdParty/FreeRTOS/Source/stream_buffer.c:336:0
	.fnstart
	.cfi_startproc
@ %bb.0:
	.pad	#16
	sub	sp, #16
	.cfi_def_cfa_offset 16
	str	r0, [sp, #8]
.Ltmp52:
	.loc	5 337 47 prologue_end           @ ../ThirdParty/FreeRTOS/Source/stream_buffer.c:337:47
	ldr	r0, [sp, #8]
	.loc	5 337 30 is_stmt 0              @ ../ThirdParty/FreeRTOS/Source/stream_buffer.c:337:30
	str	r0, [sp, #4]
.Ltmp53:
	.loc	5 340 2 is_stmt 1               @ ../ThirdParty/FreeRTOS/Source/stream_buffer.c:340:2
	ldr	r0, [sp, #4]
.Ltmp54:
	.loc	5 340 2 is_stmt 0               @ ../ThirdParty/FreeRTOS/Source/stream_buffer.c:340:2
	cbnz	r0, .LBB4_3
	b	.LBB4_1
.LBB4_1:
.Ltmp55:
	.loc	3 199 2 is_stmt 1               @ ../ThirdParty/FreeRTOS/Source/portable/GCC/ARM_CM4F\portmacro.h:199:2
	@APP
	mov.w	r0, #80
	msr	basepri, r0
	isb	sy
	dsb	sy

	@NO_APP
	str	r0, [sp, #12]
.Ltmp56:
	.loc	5 340 2                         @ ../ThirdParty/FreeRTOS/Source/stream_buffer.c:340:2
	b	.LBB4_2
.LBB4_2:                                @ =>This Inner Loop Header: Depth=1
.Ltmp57:
	.loc	5 340 2 is_stmt 0               @ ../ThirdParty/FreeRTOS/Source/stream_buffer.c:340:2
	b	.LBB4_2
.Ltmp58:
.LBB4_3:
	.loc	5 342 11 is_stmt 1              @ ../ThirdParty/FreeRTOS/Source/stream_buffer.c:342:11
	ldr	r1, [sp, #4]
	.loc	5 342 27 is_stmt 0              @ ../ThirdParty/FreeRTOS/Source/stream_buffer.c:342:27
	ldr	r0, [r1, #8]
	.loc	5 342 53                        @ ../ThirdParty/FreeRTOS/Source/stream_buffer.c:342:53
	ldr	r1, [r1]
	.loc	5 342 35                        @ ../ThirdParty/FreeRTOS/Source/stream_buffer.c:342:35
	add	r0, r1
	.loc	5 342 9                         @ ../ThirdParty/FreeRTOS/Source/stream_buffer.c:342:9
	str	r0, [sp]
	.loc	5 343 12 is_stmt 1              @ ../ThirdParty/FreeRTOS/Source/stream_buffer.c:343:12
	ldr	r0, [sp, #4]
	.loc	5 343 28 is_stmt 0              @ ../ThirdParty/FreeRTOS/Source/stream_buffer.c:343:28
	ldr	r1, [r0, #4]
	.loc	5 343 9                         @ ../ThirdParty/FreeRTOS/Source/stream_buffer.c:343:9
	ldr	r0, [sp]
	subs	r0, r0, r1
	str	r0, [sp]
	.loc	5 344 9 is_stmt 1               @ ../ThirdParty/FreeRTOS/Source/stream_buffer.c:344:9
	ldr	r0, [sp]
	subs	r0, #1
	str	r0, [sp]
.Ltmp59:
	.loc	5 346 6                         @ ../ThirdParty/FreeRTOS/Source/stream_buffer.c:346:6
	ldr	r0, [sp]
	.loc	5 346 16 is_stmt 0              @ ../ThirdParty/FreeRTOS/Source/stream_buffer.c:346:16
	ldr	r1, [sp, #4]
	.loc	5 346 32                        @ ../ThirdParty/FreeRTOS/Source/stream_buffer.c:346:32
	ldr	r1, [r1, #8]
.Ltmp60:
	.loc	5 346 6                         @ ../ThirdParty/FreeRTOS/Source/stream_buffer.c:346:6
	cmp	r0, r1
	blo	.LBB4_5
	b	.LBB4_4
.LBB4_4:
.Ltmp61:
	.loc	5 348 13 is_stmt 1              @ ../ThirdParty/FreeRTOS/Source/stream_buffer.c:348:13
	ldr	r0, [sp, #4]
	.loc	5 348 29 is_stmt 0              @ ../ThirdParty/FreeRTOS/Source/stream_buffer.c:348:29
	ldr	r1, [r0, #8]
	.loc	5 348 10                        @ ../ThirdParty/FreeRTOS/Source/stream_buffer.c:348:10
	ldr	r0, [sp]
	subs	r0, r0, r1
	str	r0, [sp]
	.loc	5 349 2 is_stmt 1               @ ../ThirdParty/FreeRTOS/Source/stream_buffer.c:349:2
	b	.LBB4_6
.Ltmp62:
.LBB4_5:
	.loc	5 0 2 is_stmt 0                 @ ../ThirdParty/FreeRTOS/Source/stream_buffer.c:0:2
	b	.LBB4_6
.LBB4_6:
	.loc	5 355 9 is_stmt 1               @ ../ThirdParty/FreeRTOS/Source/stream_buffer.c:355:9
	ldr	r0, [sp]
	.loc	5 355 2 epilogue_begin is_stmt 0 @ ../ThirdParty/FreeRTOS/Source/stream_buffer.c:355:2
	add	sp, #16
	bx	lr
.Ltmp63:
.Lfunc_end4:
	.size	xStreamBufferSpacesAvailable, .Lfunc_end4-xStreamBufferSpacesAvailable
	.cfi_endproc
	.cantunwind
	.fnend
                                        @ -- End function
	.section	.text.xStreamBufferBytesAvailable,"ax",%progbits
	.hidden	xStreamBufferBytesAvailable     @ -- Begin function xStreamBufferBytesAvailable
	.globl	xStreamBufferBytesAvailable
	.p2align	2
	.type	xStreamBufferBytesAvailable,%function
	.code	16                              @ @xStreamBufferBytesAvailable
	.thumb_func
xStreamBufferBytesAvailable:
.Lfunc_begin5:
	.loc	5 360 0 is_stmt 1               @ ../ThirdParty/FreeRTOS/Source/stream_buffer.c:360:0
	.fnstart
	.cfi_startproc
@ %bb.0:
	.save	{r7, lr}
	push	{r7, lr}
	.cfi_def_cfa_offset 8
	.cfi_offset lr, -4
	.cfi_offset r7, -8
	.pad	#16
	sub	sp, #16
	.cfi_def_cfa_offset 24
	str	r0, [sp, #8]
.Ltmp64:
	.loc	5 361 47 prologue_end           @ ../ThirdParty/FreeRTOS/Source/stream_buffer.c:361:47
	ldr	r0, [sp, #8]
	.loc	5 361 30 is_stmt 0              @ ../ThirdParty/FreeRTOS/Source/stream_buffer.c:361:30
	str	r0, [sp, #4]
.Ltmp65:
	.loc	5 364 2 is_stmt 1               @ ../ThirdParty/FreeRTOS/Source/stream_buffer.c:364:2
	ldr	r0, [sp, #4]
.Ltmp66:
	.loc	5 364 2 is_stmt 0               @ ../ThirdParty/FreeRTOS/Source/stream_buffer.c:364:2
	cbnz	r0, .LBB5_3
	b	.LBB5_1
.LBB5_1:
.Ltmp67:
	.loc	3 199 2 is_stmt 1               @ ../ThirdParty/FreeRTOS/Source/portable/GCC/ARM_CM4F\portmacro.h:199:2
	@APP
	mov.w	r0, #80
	msr	basepri, r0
	isb	sy
	dsb	sy

	@NO_APP
	str	r0, [sp, #12]
.Ltmp68:
	.loc	5 364 2                         @ ../ThirdParty/FreeRTOS/Source/stream_buffer.c:364:2
	b	.LBB5_2
.LBB5_2:                                @ =>This Inner Loop Header: Depth=1
.Ltmp69:
	.loc	5 364 2 is_stmt 0               @ ../ThirdParty/FreeRTOS/Source/stream_buffer.c:364:2
	b	.LBB5_2
.Ltmp70:
.LBB5_3:
	.loc	5 366 30 is_stmt 1              @ ../ThirdParty/FreeRTOS/Source/stream_buffer.c:366:30
	ldr	r0, [sp, #4]
	.loc	5 366 12 is_stmt 0              @ ../ThirdParty/FreeRTOS/Source/stream_buffer.c:366:12
	bl	prvBytesInBuffer
	.loc	5 366 10                        @ ../ThirdParty/FreeRTOS/Source/stream_buffer.c:366:10
	str	r0, [sp]
	.loc	5 367 9 is_stmt 1               @ ../ThirdParty/FreeRTOS/Source/stream_buffer.c:367:9
	ldr	r0, [sp]
	.loc	5 367 2 epilogue_begin is_stmt 0 @ ../ThirdParty/FreeRTOS/Source/stream_buffer.c:367:2
	add	sp, #16
	pop	{r7, pc}
.Ltmp71:
.Lfunc_end5:
	.size	xStreamBufferBytesAvailable, .Lfunc_end5-xStreamBufferBytesAvailable
	.cfi_endproc
	.cantunwind
	.fnend
                                        @ -- End function
	.section	.text.prvBytesInBuffer,"ax",%progbits
	.p2align	2                               @ -- Begin function prvBytesInBuffer
	.type	prvBytesInBuffer,%function
	.code	16                              @ @prvBytesInBuffer
	.thumb_func
prvBytesInBuffer:
.Lfunc_begin6:
	.loc	5 1055 0 is_stmt 1              @ ../ThirdParty/FreeRTOS/Source/stream_buffer.c:1055:0
	.fnstart
	.cfi_startproc
@ %bb.0:
	.pad	#8
	sub	sp, #8
	.cfi_def_cfa_offset 8
	str	r0, [sp, #4]
.Ltmp72:
	.loc	5 1059 11 prologue_end          @ ../ThirdParty/FreeRTOS/Source/stream_buffer.c:1059:11
	ldr	r1, [sp, #4]
	.loc	5 1059 27 is_stmt 0             @ ../ThirdParty/FreeRTOS/Source/stream_buffer.c:1059:27
	ldr	r0, [r1, #8]
	.loc	5 1059 53                       @ ../ThirdParty/FreeRTOS/Source/stream_buffer.c:1059:53
	ldr	r1, [r1, #4]
	.loc	5 1059 35                       @ ../ThirdParty/FreeRTOS/Source/stream_buffer.c:1059:35
	add	r0, r1
	.loc	5 1059 9                        @ ../ThirdParty/FreeRTOS/Source/stream_buffer.c:1059:9
	str	r0, [sp]
	.loc	5 1060 12 is_stmt 1             @ ../ThirdParty/FreeRTOS/Source/stream_buffer.c:1060:12
	ldr	r0, [sp, #4]
	.loc	5 1060 28 is_stmt 0             @ ../ThirdParty/FreeRTOS/Source/stream_buffer.c:1060:28
	ldr	r1, [r0]
	.loc	5 1060 9                        @ ../ThirdParty/FreeRTOS/Source/stream_buffer.c:1060:9
	ldr	r0, [sp]
	subs	r0, r0, r1
	str	r0, [sp]
.Ltmp73:
	.loc	5 1061 7 is_stmt 1              @ ../ThirdParty/FreeRTOS/Source/stream_buffer.c:1061:7
	ldr	r0, [sp]
	.loc	5 1061 17 is_stmt 0             @ ../ThirdParty/FreeRTOS/Source/stream_buffer.c:1061:17
	ldr	r1, [sp, #4]
	.loc	5 1061 33                       @ ../ThirdParty/FreeRTOS/Source/stream_buffer.c:1061:33
	ldr	r1, [r1, #8]
.Ltmp74:
	.loc	5 1061 7                        @ ../ThirdParty/FreeRTOS/Source/stream_buffer.c:1061:7
	cmp	r0, r1
	blo	.LBB6_2
	b	.LBB6_1
.LBB6_1:
.Ltmp75:
	.loc	5 1063 13 is_stmt 1             @ ../ThirdParty/FreeRTOS/Source/stream_buffer.c:1063:13
	ldr	r0, [sp, #4]
	.loc	5 1063 29 is_stmt 0             @ ../ThirdParty/FreeRTOS/Source/stream_buffer.c:1063:29
	ldr	r1, [r0, #8]
	.loc	5 1063 10                       @ ../ThirdParty/FreeRTOS/Source/stream_buffer.c:1063:10
	ldr	r0, [sp]
	subs	r0, r0, r1
	str	r0, [sp]
	.loc	5 1064 2 is_stmt 1              @ ../ThirdParty/FreeRTOS/Source/stream_buffer.c:1064:2
	b	.LBB6_3
.Ltmp76:
.LBB6_2:
	.loc	5 0 2 is_stmt 0                 @ ../ThirdParty/FreeRTOS/Source/stream_buffer.c:0:2
	b	.LBB6_3
.LBB6_3:
	.loc	5 1070 9 is_stmt 1              @ ../ThirdParty/FreeRTOS/Source/stream_buffer.c:1070:9
	ldr	r0, [sp]
	.loc	5 1070 2 epilogue_begin is_stmt 0 @ ../ThirdParty/FreeRTOS/Source/stream_buffer.c:1070:2
	add	sp, #8
	bx	lr
.Ltmp77:
.Lfunc_end6:
	.size	prvBytesInBuffer, .Lfunc_end6-prvBytesInBuffer
	.cfi_endproc
	.cantunwind
	.fnend
                                        @ -- End function
	.section	.text.xStreamBufferSend,"ax",%progbits
	.hidden	xStreamBufferSend               @ -- Begin function xStreamBufferSend
	.globl	xStreamBufferSend
	.p2align	2
	.type	xStreamBufferSend,%function
	.code	16                              @ @xStreamBufferSend
	.thumb_func
xStreamBufferSend:
.Lfunc_begin7:
	.loc	5 375 0 is_stmt 1               @ ../ThirdParty/FreeRTOS/Source/stream_buffer.c:375:0
	.fnstart
	.cfi_startproc
@ %bb.0:
	.save	{r7, lr}
	push	{r7, lr}
	.cfi_def_cfa_offset 8
	.cfi_offset lr, -4
	.cfi_offset r7, -8
	.pad	#72
	sub	sp, #72
	.cfi_def_cfa_offset 80
	str	r0, [sp, #52]
	str	r1, [sp, #48]
	str	r2, [sp, #44]
	str	r3, [sp, #40]
.Ltmp78:
	.loc	5 376 41 prologue_end           @ ../ThirdParty/FreeRTOS/Source/stream_buffer.c:376:41
	ldr	r0, [sp, #52]
	.loc	5 376 24 is_stmt 0              @ ../ThirdParty/FreeRTOS/Source/stream_buffer.c:376:24
	str	r0, [sp, #36]
	movs	r0, #0
	.loc	5 377 17 is_stmt 1              @ ../ThirdParty/FreeRTOS/Source/stream_buffer.c:377:17
	str	r0, [sp, #28]
	.loc	5 378 25                        @ ../ThirdParty/FreeRTOS/Source/stream_buffer.c:378:25
	ldr	r0, [sp, #44]
	.loc	5 378 8 is_stmt 0               @ ../ThirdParty/FreeRTOS/Source/stream_buffer.c:378:8
	str	r0, [sp, #24]
.Ltmp79:
	.loc	5 381 2 is_stmt 1               @ ../ThirdParty/FreeRTOS/Source/stream_buffer.c:381:2
	ldr	r0, [sp, #48]
.Ltmp80:
	.loc	5 381 2 is_stmt 0               @ ../ThirdParty/FreeRTOS/Source/stream_buffer.c:381:2
	cbnz	r0, .LBB7_3
	b	.LBB7_1
.LBB7_1:
.Ltmp81:
	.loc	3 199 2 is_stmt 1               @ ../ThirdParty/FreeRTOS/Source/portable/GCC/ARM_CM4F\portmacro.h:199:2
	@APP
	mov.w	r0, #80
	msr	basepri, r0
	isb	sy
	dsb	sy

	@NO_APP
	str	r0, [sp, #68]
.Ltmp82:
	.loc	5 381 2                         @ ../ThirdParty/FreeRTOS/Source/stream_buffer.c:381:2
	b	.LBB7_2
.LBB7_2:                                @ =>This Inner Loop Header: Depth=1
.Ltmp83:
	.loc	5 381 2 is_stmt 0               @ ../ThirdParty/FreeRTOS/Source/stream_buffer.c:381:2
	b	.LBB7_2
.Ltmp84:
.LBB7_3:
	.loc	5 382 2 is_stmt 1               @ ../ThirdParty/FreeRTOS/Source/stream_buffer.c:382:2
	ldr	r0, [sp, #36]
.Ltmp85:
	.loc	5 382 2 is_stmt 0               @ ../ThirdParty/FreeRTOS/Source/stream_buffer.c:382:2
	cbnz	r0, .LBB7_6
	b	.LBB7_4
.LBB7_4:
.Ltmp86:
	.loc	3 199 2 is_stmt 1               @ ../ThirdParty/FreeRTOS/Source/portable/GCC/ARM_CM4F\portmacro.h:199:2
	@APP
	mov.w	r0, #80
	msr	basepri, r0
	isb	sy
	dsb	sy

	@NO_APP
	str	r0, [sp, #64]
.Ltmp87:
	.loc	5 382 2                         @ ../ThirdParty/FreeRTOS/Source/stream_buffer.c:382:2
	b	.LBB7_5
.LBB7_5:                                @ =>This Inner Loop Header: Depth=1
.Ltmp88:
	.loc	5 382 2 is_stmt 0               @ ../ThirdParty/FreeRTOS/Source/stream_buffer.c:382:2
	b	.LBB7_5
.Ltmp89:
.LBB7_6:
	.loc	5 388 8 is_stmt 1               @ ../ThirdParty/FreeRTOS/Source/stream_buffer.c:388:8
	ldr	r0, [sp, #36]
	ldrb	r0, [r0, #28]
.Ltmp90:
	.loc	5 388 6 is_stmt 0               @ ../ThirdParty/FreeRTOS/Source/stream_buffer.c:388:6
	lsls	r0, r0, #31
	cbz	r0, .LBB7_11
	b	.LBB7_7
.LBB7_7:
.Ltmp91:
	.loc	5 390 18 is_stmt 1              @ ../ThirdParty/FreeRTOS/Source/stream_buffer.c:390:18
	ldr	r0, [sp, #24]
	adds	r0, #4
	str	r0, [sp, #24]
.Ltmp92:
	.loc	5 393 3                         @ ../ThirdParty/FreeRTOS/Source/stream_buffer.c:393:3
	ldr	r0, [sp, #24]
	ldr	r1, [sp, #44]
.Ltmp93:
	.loc	5 393 3 is_stmt 0               @ ../ThirdParty/FreeRTOS/Source/stream_buffer.c:393:3
	cmp	r0, r1
	bhi	.LBB7_10
	b	.LBB7_8
.LBB7_8:
.Ltmp94:
	.loc	3 199 2 is_stmt 1               @ ../ThirdParty/FreeRTOS/Source/portable/GCC/ARM_CM4F\portmacro.h:199:2
	@APP
	mov.w	r0, #80
	msr	basepri, r0
	isb	sy
	dsb	sy

	@NO_APP
	str	r0, [sp, #60]
.Ltmp95:
	.loc	5 393 3                         @ ../ThirdParty/FreeRTOS/Source/stream_buffer.c:393:3
	b	.LBB7_9
.LBB7_9:                                @ =>This Inner Loop Header: Depth=1
.Ltmp96:
	.loc	5 393 3 is_stmt 0               @ ../ThirdParty/FreeRTOS/Source/stream_buffer.c:393:3
	b	.LBB7_9
.Ltmp97:
.LBB7_10:
	.loc	5 394 2 is_stmt 1               @ ../ThirdParty/FreeRTOS/Source/stream_buffer.c:394:2
	b	.LBB7_12
.Ltmp98:
.LBB7_11:
	.loc	5 0 2 is_stmt 0                 @ ../ThirdParty/FreeRTOS/Source/stream_buffer.c:0:2
	b	.LBB7_12
.LBB7_12:
.Ltmp99:
	.loc	5 400 6 is_stmt 1               @ ../ThirdParty/FreeRTOS/Source/stream_buffer.c:400:6
	ldr	r0, [sp, #40]
.Ltmp100:
	.loc	5 400 6 is_stmt 0               @ ../ThirdParty/FreeRTOS/Source/stream_buffer.c:400:6
	cmp	r0, #0
	beq	.LBB7_23
	b	.LBB7_13
.LBB7_13:
	.loc	5 0 6                           @ ../ThirdParty/FreeRTOS/Source/stream_buffer.c:0:6
	add	r0, sp, #16
.Ltmp101:
	.loc	5 402 3 is_stmt 1               @ ../ThirdParty/FreeRTOS/Source/stream_buffer.c:402:3
	bl	vTaskSetTimeOutState
	.loc	5 404 3                         @ ../ThirdParty/FreeRTOS/Source/stream_buffer.c:404:3
	b	.LBB7_14
.LBB7_14:                               @ =>This Inner Loop Header: Depth=1
.Ltmp102:
	.loc	5 408 4                         @ ../ThirdParty/FreeRTOS/Source/stream_buffer.c:408:4
	bl	vPortEnterCritical
.Ltmp103:
	.loc	5 410 44                        @ ../ThirdParty/FreeRTOS/Source/stream_buffer.c:410:44
	ldr	r0, [sp, #36]
	.loc	5 410 14 is_stmt 0              @ ../ThirdParty/FreeRTOS/Source/stream_buffer.c:410:14
	bl	xStreamBufferSpacesAvailable
	.loc	5 410 12                        @ ../ThirdParty/FreeRTOS/Source/stream_buffer.c:410:12
	str	r0, [sp, #28]
.Ltmp104:
	.loc	5 412 9 is_stmt 1               @ ../ThirdParty/FreeRTOS/Source/stream_buffer.c:412:9
	ldr	r0, [sp, #28]
	.loc	5 412 18 is_stmt 0              @ ../ThirdParty/FreeRTOS/Source/stream_buffer.c:412:18
	ldr	r1, [sp, #24]
.Ltmp105:
	.loc	5 412 9                         @ ../ThirdParty/FreeRTOS/Source/stream_buffer.c:412:9
	cmp	r0, r1
	bhs	.LBB7_19
	b	.LBB7_15
.LBB7_15:                               @   in Loop: Header=BB7_14 Depth=1
	.loc	5 0 9                           @ ../ThirdParty/FreeRTOS/Source/stream_buffer.c:0:9
	movs	r0, #0
.Ltmp106:
	.loc	5 415 15 is_stmt 1              @ ../ThirdParty/FreeRTOS/Source/stream_buffer.c:415:15
	bl	xTaskNotifyStateClear
.Ltmp107:
	.loc	5 418 6                         @ ../ThirdParty/FreeRTOS/Source/stream_buffer.c:418:6
	ldr	r0, [sp, #36]
	ldr	r0, [r0, #20]
.Ltmp108:
	.loc	5 418 6 is_stmt 0               @ ../ThirdParty/FreeRTOS/Source/stream_buffer.c:418:6
	cbz	r0, .LBB7_18
	b	.LBB7_16
.LBB7_16:
.Ltmp109:
	.loc	3 199 2 is_stmt 1               @ ../ThirdParty/FreeRTOS/Source/portable/GCC/ARM_CM4F\portmacro.h:199:2
	@APP
	mov.w	r0, #80
	msr	basepri, r0
	isb	sy
	dsb	sy

	@NO_APP
	str	r0, [sp, #56]
.Ltmp110:
	.loc	5 418 6                         @ ../ThirdParty/FreeRTOS/Source/stream_buffer.c:418:6
	b	.LBB7_17
.LBB7_17:                               @ =>This Inner Loop Header: Depth=1
.Ltmp111:
	.loc	5 418 6 is_stmt 0               @ ../ThirdParty/FreeRTOS/Source/stream_buffer.c:418:6
	b	.LBB7_17
.Ltmp112:
.LBB7_18:                               @   in Loop: Header=BB7_14 Depth=1
	.loc	5 419 43 is_stmt 1              @ ../ThirdParty/FreeRTOS/Source/stream_buffer.c:419:43
	bl	xTaskGetCurrentTaskHandle
	.loc	5 419 6 is_stmt 0               @ ../ThirdParty/FreeRTOS/Source/stream_buffer.c:419:6
	ldr	r1, [sp, #36]
	.loc	5 419 41                        @ ../ThirdParty/FreeRTOS/Source/stream_buffer.c:419:41
	str	r0, [r1, #20]
	.loc	5 420 5 is_stmt 1               @ ../ThirdParty/FreeRTOS/Source/stream_buffer.c:420:5
	b	.LBB7_20
.Ltmp113:
.LBB7_19:
	.loc	5 423 6                         @ ../ThirdParty/FreeRTOS/Source/stream_buffer.c:423:6
	bl	vPortExitCritical
	.loc	5 424 6                         @ ../ThirdParty/FreeRTOS/Source/stream_buffer.c:424:6
	b	.LBB7_22
.Ltmp114:
.LBB7_20:                               @   in Loop: Header=BB7_14 Depth=1
	.loc	5 427 4                         @ ../ThirdParty/FreeRTOS/Source/stream_buffer.c:427:4
	bl	vPortExitCritical
	.loc	5 430 68                        @ ../ThirdParty/FreeRTOS/Source/stream_buffer.c:430:68
	ldr	r3, [sp, #40]
	movs	r2, #0
	.loc	5 430 13 is_stmt 0              @ ../ThirdParty/FreeRTOS/Source/stream_buffer.c:430:13
	str	r2, [sp, #12]                   @ 4-byte Spill
	mov	r0, r2
	mov	r1, r2
	bl	xTaskNotifyWait
                                        @ kill: def $r1 killed $r0
	.loc	5 431 4 is_stmt 1               @ ../ThirdParty/FreeRTOS/Source/stream_buffer.c:431:4
	ldr	r0, [sp, #12]                   @ 4-byte Reload
	ldr	r1, [sp, #36]
	.loc	5 431 39 is_stmt 0              @ ../ThirdParty/FreeRTOS/Source/stream_buffer.c:431:39
	str	r0, [r1, #20]
	.loc	5 433 3 is_stmt 1               @ ../ThirdParty/FreeRTOS/Source/stream_buffer.c:433:3
	b	.LBB7_21
.Ltmp115:
.LBB7_21:                               @   in Loop: Header=BB7_14 Depth=1
	.loc	5 0 3 is_stmt 0                 @ ../ThirdParty/FreeRTOS/Source/stream_buffer.c:0:3
	add	r0, sp, #16
	add	r1, sp, #40
	.loc	5 433 12                        @ ../ThirdParty/FreeRTOS/Source/stream_buffer.c:433:12
	bl	xTaskCheckForTimeOut
.Ltmp116:
	.loc	5 433 3                         @ ../ThirdParty/FreeRTOS/Source/stream_buffer.c:433:3
	cmp	r0, #0
	beq	.LBB7_14
	b	.LBB7_22
.Ltmp117:
.LBB7_22:
	.loc	5 434 2 is_stmt 1               @ ../ThirdParty/FreeRTOS/Source/stream_buffer.c:434:2
	b	.LBB7_24
.Ltmp118:
.LBB7_23:
	.loc	5 0 2 is_stmt 0                 @ ../ThirdParty/FreeRTOS/Source/stream_buffer.c:0:2
	b	.LBB7_24
.LBB7_24:
.Ltmp119:
	.loc	5 440 6 is_stmt 1               @ ../ThirdParty/FreeRTOS/Source/stream_buffer.c:440:6
	ldr	r0, [sp, #28]
.Ltmp120:
	.loc	5 440 6 is_stmt 0               @ ../ThirdParty/FreeRTOS/Source/stream_buffer.c:440:6
	cbnz	r0, .LBB7_26
	b	.LBB7_25
.LBB7_25:
.Ltmp121:
	.loc	5 442 42 is_stmt 1              @ ../ThirdParty/FreeRTOS/Source/stream_buffer.c:442:42
	ldr	r0, [sp, #36]
	.loc	5 442 12 is_stmt 0              @ ../ThirdParty/FreeRTOS/Source/stream_buffer.c:442:12
	bl	xStreamBufferSpacesAvailable
	.loc	5 442 10                        @ ../ThirdParty/FreeRTOS/Source/stream_buffer.c:442:10
	str	r0, [sp, #28]
	.loc	5 443 2 is_stmt 1               @ ../ThirdParty/FreeRTOS/Source/stream_buffer.c:443:2
	b	.LBB7_27
.Ltmp122:
.LBB7_26:
	.loc	5 0 2 is_stmt 0                 @ ../ThirdParty/FreeRTOS/Source/stream_buffer.c:0:2
	b	.LBB7_27
.LBB7_27:
	.loc	5 449 37 is_stmt 1              @ ../ThirdParty/FreeRTOS/Source/stream_buffer.c:449:37
	ldr	r0, [sp, #36]
	.loc	5 449 53 is_stmt 0              @ ../ThirdParty/FreeRTOS/Source/stream_buffer.c:449:53
	ldr	r1, [sp, #48]
	.loc	5 449 63                        @ ../ThirdParty/FreeRTOS/Source/stream_buffer.c:449:63
	ldr	r2, [sp, #44]
	.loc	5 449 81                        @ ../ThirdParty/FreeRTOS/Source/stream_buffer.c:449:81
	ldr	r3, [sp, #28]
	.loc	5 449 89                        @ ../ThirdParty/FreeRTOS/Source/stream_buffer.c:449:89
	ldr.w	r12, [sp, #24]
	.loc	5 449 12                        @ ../ThirdParty/FreeRTOS/Source/stream_buffer.c:449:12
	mov	lr, sp
	str.w	r12, [lr]
	bl	prvWriteMessageToBuffer
	.loc	5 449 10                        @ ../ThirdParty/FreeRTOS/Source/stream_buffer.c:449:10
	str	r0, [sp, #32]
.Ltmp123:
	.loc	5 451 6 is_stmt 1               @ ../ThirdParty/FreeRTOS/Source/stream_buffer.c:451:6
	ldr	r0, [sp, #32]
.Ltmp124:
	.loc	5 451 6 is_stmt 0               @ ../ThirdParty/FreeRTOS/Source/stream_buffer.c:451:6
	cbz	r0, .LBB7_34
	b	.LBB7_28
.LBB7_28:
.Ltmp125:
	.loc	5 456 25 is_stmt 1              @ ../ThirdParty/FreeRTOS/Source/stream_buffer.c:456:25
	ldr	r0, [sp, #36]
	.loc	5 456 7 is_stmt 0               @ ../ThirdParty/FreeRTOS/Source/stream_buffer.c:456:7
	bl	prvBytesInBuffer
	.loc	5 456 45                        @ ../ThirdParty/FreeRTOS/Source/stream_buffer.c:456:45
	ldr	r1, [sp, #36]
	.loc	5 456 61                        @ ../ThirdParty/FreeRTOS/Source/stream_buffer.c:456:61
	ldr	r1, [r1, #12]
.Ltmp126:
	.loc	5 456 7                         @ ../ThirdParty/FreeRTOS/Source/stream_buffer.c:456:7
	cmp	r0, r1
	blo	.LBB7_32
	b	.LBB7_29
.LBB7_29:
.Ltmp127:
	.loc	5 458 4 is_stmt 1               @ ../ThirdParty/FreeRTOS/Source/stream_buffer.c:458:4
	bl	vTaskSuspendAll
.Ltmp128:
	.loc	5 458 4 is_stmt 0               @ ../ThirdParty/FreeRTOS/Source/stream_buffer.c:458:4
	ldr	r0, [sp, #36]
	ldr	r0, [r0, #16]
.Ltmp129:
	.loc	5 458 4                         @ ../ThirdParty/FreeRTOS/Source/stream_buffer.c:458:4
	cbz	r0, .LBB7_31
	b	.LBB7_30
.LBB7_30:
.Ltmp130:
	.loc	5 458 4                         @ ../ThirdParty/FreeRTOS/Source/stream_buffer.c:458:4
	ldr	r0, [sp, #36]
	ldr	r0, [r0, #16]
	movs	r3, #0
	str	r3, [sp, #8]                    @ 4-byte Spill
	mov	r1, r3
	mov	r2, r3
	bl	xTaskGenericNotify
                                        @ kill: def $r1 killed $r0
	ldr	r0, [sp, #8]                    @ 4-byte Reload
	ldr	r1, [sp, #36]
	str	r0, [r1, #16]
	b	.LBB7_31
.Ltmp131:
.LBB7_31:
	.loc	5 458 4                         @ ../ThirdParty/FreeRTOS/Source/stream_buffer.c:458:4
	bl	xTaskResumeAll
	.loc	5 459 3 is_stmt 1               @ ../ThirdParty/FreeRTOS/Source/stream_buffer.c:459:3
	b	.LBB7_33
.Ltmp132:
.LBB7_32:
	.loc	5 0 3 is_stmt 0                 @ ../ThirdParty/FreeRTOS/Source/stream_buffer.c:0:3
	b	.LBB7_33
.LBB7_33:
	.loc	5 464 2 is_stmt 1               @ ../ThirdParty/FreeRTOS/Source/stream_buffer.c:464:2
	b	.LBB7_35
.Ltmp133:
.LBB7_34:
	.loc	5 0 2 is_stmt 0                 @ ../ThirdParty/FreeRTOS/Source/stream_buffer.c:0:2
	b	.LBB7_35
.LBB7_35:
	.loc	5 471 9 is_stmt 1               @ ../ThirdParty/FreeRTOS/Source/stream_buffer.c:471:9
	ldr	r0, [sp, #32]
	.loc	5 471 2 epilogue_begin is_stmt 0 @ ../ThirdParty/FreeRTOS/Source/stream_buffer.c:471:2
	add	sp, #72
	pop	{r7, pc}
.Ltmp134:
.Lfunc_end7:
	.size	xStreamBufferSend, .Lfunc_end7-xStreamBufferSend
	.cfi_endproc
	.cantunwind
	.fnend
                                        @ -- End function
	.section	.text.prvWriteMessageToBuffer,"ax",%progbits
	.p2align	2                               @ -- Begin function prvWriteMessageToBuffer
	.type	prvWriteMessageToBuffer,%function
	.code	16                              @ @prvWriteMessageToBuffer
	.thumb_func
prvWriteMessageToBuffer:
.Lfunc_begin8:
	.loc	5 531 0 is_stmt 1               @ ../ThirdParty/FreeRTOS/Source/stream_buffer.c:531:0
	.fnstart
	.cfi_startproc
@ %bb.0:
	.save	{r7, lr}
	push	{r7, lr}
	.cfi_def_cfa_offset 8
	.cfi_offset lr, -4
	.cfi_offset r7, -8
	.pad	#32
	sub	sp, #32
	.cfi_def_cfa_offset 40
	ldr.w	r12, [sp, #40]
	str	r0, [sp, #28]
	str	r1, [sp, #24]
	str	r2, [sp, #20]
	str	r3, [sp, #16]
.Ltmp135:
	.loc	5 535 6 prologue_end            @ ../ThirdParty/FreeRTOS/Source/stream_buffer.c:535:6
	ldr	r0, [sp, #16]
.Ltmp136:
	.loc	5 535 6 is_stmt 0               @ ../ThirdParty/FreeRTOS/Source/stream_buffer.c:535:6
	cbnz	r0, .LBB8_2
	b	.LBB8_1
.LBB8_1:
	.loc	5 0 6                           @ ../ThirdParty/FreeRTOS/Source/stream_buffer.c:0:6
	movs	r0, #0
.Ltmp137:
	.loc	5 539 16 is_stmt 1              @ ../ThirdParty/FreeRTOS/Source/stream_buffer.c:539:16
	str	r0, [sp, #12]
	.loc	5 540 2                         @ ../ThirdParty/FreeRTOS/Source/stream_buffer.c:540:2
	b	.LBB8_12
.Ltmp138:
.LBB8_2:
	.loc	5 541 13                        @ ../ThirdParty/FreeRTOS/Source/stream_buffer.c:541:13
	ldr	r0, [sp, #28]
	ldrb	r0, [r0, #28]
.Ltmp139:
	.loc	5 541 11 is_stmt 0              @ ../ThirdParty/FreeRTOS/Source/stream_buffer.c:541:11
	lsls	r0, r0, #31
	cbnz	r0, .LBB8_7
	b	.LBB8_3
.LBB8_3:
	.loc	5 0 11                          @ ../ThirdParty/FreeRTOS/Source/stream_buffer.c:0:11
	movs	r0, #1
.Ltmp140:
	.loc	5 546 16 is_stmt 1              @ ../ThirdParty/FreeRTOS/Source/stream_buffer.c:546:16
	str	r0, [sp, #12]
	.loc	5 547 22                        @ ../ThirdParty/FreeRTOS/Source/stream_buffer.c:547:22
	ldr	r0, [sp, #20]
	ldr	r1, [sp, #16]
	cmp	r0, r1
	bhs	.LBB8_5
	b	.LBB8_4
.LBB8_4:
	ldr	r0, [sp, #20]
	str	r0, [sp, #4]                    @ 4-byte Spill
	b	.LBB8_6
.LBB8_5:
	ldr	r0, [sp, #16]
	str	r0, [sp, #4]                    @ 4-byte Spill
	b	.LBB8_6
.LBB8_6:
	ldr	r0, [sp, #4]                    @ 4-byte Reload
	.loc	5 547 20 is_stmt 0              @ ../ThirdParty/FreeRTOS/Source/stream_buffer.c:547:20
	str	r0, [sp, #20]
	.loc	5 548 2 is_stmt 1               @ ../ThirdParty/FreeRTOS/Source/stream_buffer.c:548:2
	b	.LBB8_11
.Ltmp141:
.LBB8_7:
	.loc	5 549 11                        @ ../ThirdParty/FreeRTOS/Source/stream_buffer.c:549:11
	ldr	r0, [sp, #16]
	.loc	5 549 21 is_stmt 0              @ ../ThirdParty/FreeRTOS/Source/stream_buffer.c:549:21
	ldr	r1, [sp, #40]
.Ltmp142:
	.loc	5 549 11                        @ ../ThirdParty/FreeRTOS/Source/stream_buffer.c:549:11
	cmp	r0, r1
	blo	.LBB8_9
	b	.LBB8_8
.LBB8_8:
	.loc	5 0 11                          @ ../ThirdParty/FreeRTOS/Source/stream_buffer.c:0:11
	movs	r0, #1
.Ltmp143:
	.loc	5 555 16 is_stmt 1              @ ../ThirdParty/FreeRTOS/Source/stream_buffer.c:555:16
	str	r0, [sp, #12]
	.loc	5 556 35                        @ ../ThirdParty/FreeRTOS/Source/stream_buffer.c:556:35
	ldr	r0, [sp, #28]
	add	r1, sp, #20
	movs	r2, #4
	.loc	5 556 12 is_stmt 0              @ ../ThirdParty/FreeRTOS/Source/stream_buffer.c:556:12
	bl	prvWriteBytesToBuffer
	.loc	5 557 2 is_stmt 1               @ ../ThirdParty/FreeRTOS/Source/stream_buffer.c:557:2
	b	.LBB8_10
.Ltmp144:
.LBB8_9:
	.loc	5 0 2 is_stmt 0                 @ ../ThirdParty/FreeRTOS/Source/stream_buffer.c:0:2
	movs	r0, #0
.Ltmp145:
	.loc	5 561 16 is_stmt 1              @ ../ThirdParty/FreeRTOS/Source/stream_buffer.c:561:16
	str	r0, [sp, #12]
	b	.LBB8_10
.Ltmp146:
.LBB8_10:
	.loc	5 0 16 is_stmt 0                @ ../ThirdParty/FreeRTOS/Source/stream_buffer.c:0:16
	b	.LBB8_11
.LBB8_11:
	b	.LBB8_12
.LBB8_12:
.Ltmp147:
	.loc	5 564 6 is_stmt 1               @ ../ThirdParty/FreeRTOS/Source/stream_buffer.c:564:6
	ldr	r0, [sp, #12]
.Ltmp148:
	.loc	5 564 6 is_stmt 0               @ ../ThirdParty/FreeRTOS/Source/stream_buffer.c:564:6
	cbz	r0, .LBB8_14
	b	.LBB8_13
.LBB8_13:
.Ltmp149:
	.loc	5 567 36 is_stmt 1              @ ../ThirdParty/FreeRTOS/Source/stream_buffer.c:567:36
	ldr	r0, [sp, #28]
	.loc	5 567 72 is_stmt 0              @ ../ThirdParty/FreeRTOS/Source/stream_buffer.c:567:72
	ldr	r1, [sp, #24]
	.loc	5 567 82                        @ ../ThirdParty/FreeRTOS/Source/stream_buffer.c:567:82
	ldr	r2, [sp, #20]
	.loc	5 567 13                        @ ../ThirdParty/FreeRTOS/Source/stream_buffer.c:567:13
	bl	prvWriteBytesToBuffer
	.loc	5 567 11                        @ ../ThirdParty/FreeRTOS/Source/stream_buffer.c:567:11
	str	r0, [sp, #8]
	.loc	5 568 2 is_stmt 1               @ ../ThirdParty/FreeRTOS/Source/stream_buffer.c:568:2
	b	.LBB8_15
.Ltmp150:
.LBB8_14:
	.loc	5 0 2 is_stmt 0                 @ ../ThirdParty/FreeRTOS/Source/stream_buffer.c:0:2
	movs	r0, #0
.Ltmp151:
	.loc	5 571 11 is_stmt 1              @ ../ThirdParty/FreeRTOS/Source/stream_buffer.c:571:11
	str	r0, [sp, #8]
	b	.LBB8_15
.Ltmp152:
.LBB8_15:
	.loc	5 574 9                         @ ../ThirdParty/FreeRTOS/Source/stream_buffer.c:574:9
	ldr	r0, [sp, #8]
	.loc	5 574 2 epilogue_begin is_stmt 0 @ ../ThirdParty/FreeRTOS/Source/stream_buffer.c:574:2
	add	sp, #32
	pop	{r7, pc}
.Ltmp153:
.Lfunc_end8:
	.size	prvWriteMessageToBuffer, .Lfunc_end8-prvWriteMessageToBuffer
	.cfi_endproc
	.cantunwind
	.fnend
                                        @ -- End function
	.section	.text.xStreamBufferSendFromISR,"ax",%progbits
	.hidden	xStreamBufferSendFromISR        @ -- Begin function xStreamBufferSendFromISR
	.globl	xStreamBufferSendFromISR
	.p2align	2
	.type	xStreamBufferSendFromISR,%function
	.code	16                              @ @xStreamBufferSendFromISR
	.thumb_func
xStreamBufferSendFromISR:
.Lfunc_begin9:
	.loc	5 479 0 is_stmt 1               @ ../ThirdParty/FreeRTOS/Source/stream_buffer.c:479:0
	.fnstart
	.cfi_startproc
@ %bb.0:
	.save	{r7, lr}
	push	{r7, lr}
	.cfi_def_cfa_offset 8
	.cfi_offset lr, -4
	.cfi_offset r7, -8
	.pad	#64
	sub	sp, #64
	.cfi_def_cfa_offset 72
	str	r0, [sp, #40]
	str	r1, [sp, #36]
	str	r2, [sp, #32]
	str	r3, [sp, #28]
.Ltmp154:
	.loc	5 480 41 prologue_end           @ ../ThirdParty/FreeRTOS/Source/stream_buffer.c:480:41
	ldr	r0, [sp, #40]
	.loc	5 480 24 is_stmt 0              @ ../ThirdParty/FreeRTOS/Source/stream_buffer.c:480:24
	str	r0, [sp, #24]
	.loc	5 482 25 is_stmt 1              @ ../ThirdParty/FreeRTOS/Source/stream_buffer.c:482:25
	ldr	r0, [sp, #32]
	.loc	5 482 8 is_stmt 0               @ ../ThirdParty/FreeRTOS/Source/stream_buffer.c:482:8
	str	r0, [sp, #12]
.Ltmp155:
	.loc	5 484 2 is_stmt 1               @ ../ThirdParty/FreeRTOS/Source/stream_buffer.c:484:2
	ldr	r0, [sp, #36]
.Ltmp156:
	.loc	5 484 2 is_stmt 0               @ ../ThirdParty/FreeRTOS/Source/stream_buffer.c:484:2
	cbnz	r0, .LBB9_3
	b	.LBB9_1
.LBB9_1:
.Ltmp157:
	.loc	3 199 2 is_stmt 1               @ ../ThirdParty/FreeRTOS/Source/portable/GCC/ARM_CM4F\portmacro.h:199:2
	@APP
	mov.w	r0, #80
	msr	basepri, r0
	isb	sy
	dsb	sy

	@NO_APP
	str	r0, [sp, #48]
.Ltmp158:
	.loc	5 484 2                         @ ../ThirdParty/FreeRTOS/Source/stream_buffer.c:484:2
	b	.LBB9_2
.LBB9_2:                                @ =>This Inner Loop Header: Depth=1
.Ltmp159:
	.loc	5 484 2 is_stmt 0               @ ../ThirdParty/FreeRTOS/Source/stream_buffer.c:484:2
	b	.LBB9_2
.Ltmp160:
.LBB9_3:
	.loc	5 485 2 is_stmt 1               @ ../ThirdParty/FreeRTOS/Source/stream_buffer.c:485:2
	ldr	r0, [sp, #24]
.Ltmp161:
	.loc	5 485 2 is_stmt 0               @ ../ThirdParty/FreeRTOS/Source/stream_buffer.c:485:2
	cbnz	r0, .LBB9_6
	b	.LBB9_4
.LBB9_4:
.Ltmp162:
	.loc	3 199 2 is_stmt 1               @ ../ThirdParty/FreeRTOS/Source/portable/GCC/ARM_CM4F\portmacro.h:199:2
	@APP
	mov.w	r0, #80
	msr	basepri, r0
	isb	sy
	dsb	sy

	@NO_APP
	str	r0, [sp, #44]
.Ltmp163:
	.loc	5 485 2                         @ ../ThirdParty/FreeRTOS/Source/stream_buffer.c:485:2
	b	.LBB9_5
.LBB9_5:                                @ =>This Inner Loop Header: Depth=1
.Ltmp164:
	.loc	5 485 2 is_stmt 0               @ ../ThirdParty/FreeRTOS/Source/stream_buffer.c:485:2
	b	.LBB9_5
.Ltmp165:
.LBB9_6:
	.loc	5 491 8 is_stmt 1               @ ../ThirdParty/FreeRTOS/Source/stream_buffer.c:491:8
	ldr	r0, [sp, #24]
	ldrb	r0, [r0, #28]
.Ltmp166:
	.loc	5 491 6 is_stmt 0               @ ../ThirdParty/FreeRTOS/Source/stream_buffer.c:491:6
	lsls	r0, r0, #31
	cbz	r0, .LBB9_8
	b	.LBB9_7
.LBB9_7:
.Ltmp167:
	.loc	5 493 18 is_stmt 1              @ ../ThirdParty/FreeRTOS/Source/stream_buffer.c:493:18
	ldr	r0, [sp, #12]
	adds	r0, #4
	str	r0, [sp, #12]
	.loc	5 494 2                         @ ../ThirdParty/FreeRTOS/Source/stream_buffer.c:494:2
	b	.LBB9_9
.Ltmp168:
.LBB9_8:
	.loc	5 0 2 is_stmt 0                 @ ../ThirdParty/FreeRTOS/Source/stream_buffer.c:0:2
	b	.LBB9_9
.LBB9_9:
	.loc	5 500 41 is_stmt 1              @ ../ThirdParty/FreeRTOS/Source/stream_buffer.c:500:41
	ldr	r0, [sp, #24]
	.loc	5 500 11 is_stmt 0              @ ../ThirdParty/FreeRTOS/Source/stream_buffer.c:500:11
	bl	xStreamBufferSpacesAvailable
	.loc	5 500 9                         @ ../ThirdParty/FreeRTOS/Source/stream_buffer.c:500:9
	str	r0, [sp, #16]
	.loc	5 501 37 is_stmt 1              @ ../ThirdParty/FreeRTOS/Source/stream_buffer.c:501:37
	ldr	r0, [sp, #24]
	.loc	5 501 53 is_stmt 0              @ ../ThirdParty/FreeRTOS/Source/stream_buffer.c:501:53
	ldr	r1, [sp, #36]
	.loc	5 501 63                        @ ../ThirdParty/FreeRTOS/Source/stream_buffer.c:501:63
	ldr	r2, [sp, #32]
	.loc	5 501 81                        @ ../ThirdParty/FreeRTOS/Source/stream_buffer.c:501:81
	ldr	r3, [sp, #16]
	.loc	5 501 89                        @ ../ThirdParty/FreeRTOS/Source/stream_buffer.c:501:89
	ldr.w	r12, [sp, #12]
	.loc	5 501 12                        @ ../ThirdParty/FreeRTOS/Source/stream_buffer.c:501:12
	mov	lr, sp
	str.w	r12, [lr]
	bl	prvWriteMessageToBuffer
	.loc	5 501 10                        @ ../ThirdParty/FreeRTOS/Source/stream_buffer.c:501:10
	str	r0, [sp, #20]
.Ltmp169:
	.loc	5 503 6 is_stmt 1               @ ../ThirdParty/FreeRTOS/Source/stream_buffer.c:503:6
	ldr	r0, [sp, #20]
.Ltmp170:
	.loc	5 503 6 is_stmt 0               @ ../ThirdParty/FreeRTOS/Source/stream_buffer.c:503:6
	cbz	r0, .LBB9_16
	b	.LBB9_10
.LBB9_10:
.Ltmp171:
	.loc	5 506 25 is_stmt 1              @ ../ThirdParty/FreeRTOS/Source/stream_buffer.c:506:25
	ldr	r0, [sp, #24]
	.loc	5 506 7 is_stmt 0               @ ../ThirdParty/FreeRTOS/Source/stream_buffer.c:506:7
	bl	prvBytesInBuffer
	.loc	5 506 45                        @ ../ThirdParty/FreeRTOS/Source/stream_buffer.c:506:45
	ldr	r1, [sp, #24]
	.loc	5 506 61                        @ ../ThirdParty/FreeRTOS/Source/stream_buffer.c:506:61
	ldr	r1, [r1, #12]
.Ltmp172:
	.loc	5 506 7                         @ ../ThirdParty/FreeRTOS/Source/stream_buffer.c:506:7
	cmp	r0, r1
	blo	.LBB9_14
	b	.LBB9_11
.LBB9_11:
.Ltmp173:
	.loc	3 215 2 is_stmt 1               @ ../ThirdParty/FreeRTOS/Source/portable/GCC/ARM_CM4F\portmacro.h:215:2
	@APP
	mrs	r1, basepri
	mov.w	r0, #80
	msr	basepri, r0
	isb	sy
	dsb	sy

	@NO_APP
	str	r1, [sp, #56]
	str	r0, [sp, #52]
	.loc	3 227 9                         @ ../ThirdParty/FreeRTOS/Source/portable/GCC/ARM_CM4F\portmacro.h:227:9
	ldr	r0, [sp, #56]
.Ltmp174:
	.loc	5 508 4                         @ ../ThirdParty/FreeRTOS/Source/stream_buffer.c:508:4
	str	r0, [sp, #8]
.Ltmp175:
	.loc	5 508 4 is_stmt 0               @ ../ThirdParty/FreeRTOS/Source/stream_buffer.c:508:4
	ldr	r0, [sp, #24]
	ldr	r0, [r0, #16]
.Ltmp176:
	.loc	5 508 4                         @ ../ThirdParty/FreeRTOS/Source/stream_buffer.c:508:4
	cbz	r0, .LBB9_13
	b	.LBB9_12
.LBB9_12:
.Ltmp177:
	.loc	5 508 4                         @ ../ThirdParty/FreeRTOS/Source/stream_buffer.c:508:4
	ldr	r0, [sp, #24]
	ldr	r0, [r0, #16]
	ldr	r1, [sp, #28]
	mov	r2, sp
	str	r1, [r2]
	movs	r3, #0
	str	r3, [sp, #4]                    @ 4-byte Spill
	mov	r1, r3
	mov	r2, r3
	bl	xTaskGenericNotifyFromISR
                                        @ kill: def $r1 killed $r0
	ldr	r0, [sp, #4]                    @ 4-byte Reload
	ldr	r1, [sp, #24]
	str	r0, [r1, #16]
	b	.LBB9_13
.Ltmp178:
.LBB9_13:
	.loc	5 508 4                         @ ../ThirdParty/FreeRTOS/Source/stream_buffer.c:508:4
	ldr	r0, [sp, #8]
	str	r0, [sp, #60]
.Ltmp179:
	.loc	3 235 32 is_stmt 1              @ ../ThirdParty/FreeRTOS/Source/portable/GCC/ARM_CM4F\portmacro.h:235:32
	ldr	r0, [sp, #60]
	.loc	3 233 2                         @ ../ThirdParty/FreeRTOS/Source/portable/GCC/ARM_CM4F\portmacro.h:233:2
	@APP
	msr	basepri, r0
	@NO_APP
.Ltmp180:
	.loc	5 509 3                         @ ../ThirdParty/FreeRTOS/Source/stream_buffer.c:509:3
	b	.LBB9_15
.Ltmp181:
.LBB9_14:
	.loc	5 0 3 is_stmt 0                 @ ../ThirdParty/FreeRTOS/Source/stream_buffer.c:0:3
	b	.LBB9_15
.LBB9_15:
	.loc	5 514 2 is_stmt 1               @ ../ThirdParty/FreeRTOS/Source/stream_buffer.c:514:2
	b	.LBB9_17
.Ltmp182:
.LBB9_16:
	.loc	5 0 2 is_stmt 0                 @ ../ThirdParty/FreeRTOS/Source/stream_buffer.c:0:2
	b	.LBB9_17
.LBB9_17:
	.loc	5 522 9 is_stmt 1               @ ../ThirdParty/FreeRTOS/Source/stream_buffer.c:522:9
	ldr	r0, [sp, #20]
	.loc	5 522 2 epilogue_begin is_stmt 0 @ ../ThirdParty/FreeRTOS/Source/stream_buffer.c:522:2
	add	sp, #64
	pop	{r7, pc}
.Ltmp183:
.Lfunc_end9:
	.size	xStreamBufferSendFromISR, .Lfunc_end9-xStreamBufferSendFromISR
	.cfi_endproc
	.cantunwind
	.fnend
                                        @ -- End function
	.section	.text.xStreamBufferReceive,"ax",%progbits
	.hidden	xStreamBufferReceive            @ -- Begin function xStreamBufferReceive
	.globl	xStreamBufferReceive
	.p2align	2
	.type	xStreamBufferReceive,%function
	.code	16                              @ @xStreamBufferReceive
	.thumb_func
xStreamBufferReceive:
.Lfunc_begin10:
	.loc	5 582 0 is_stmt 1               @ ../ThirdParty/FreeRTOS/Source/stream_buffer.c:582:0
	.fnstart
	.cfi_startproc
@ %bb.0:
	.save	{r7, lr}
	push	{r7, lr}
	.cfi_def_cfa_offset 8
	.cfi_offset lr, -4
	.cfi_offset r7, -8
	.pad	#56
	sub	sp, #56
	.cfi_def_cfa_offset 64
	str	r0, [sp, #40]
	str	r1, [sp, #36]
	str	r2, [sp, #32]
	str	r3, [sp, #28]
.Ltmp184:
	.loc	5 583 41 prologue_end           @ ../ThirdParty/FreeRTOS/Source/stream_buffer.c:583:41
	ldr	r0, [sp, #40]
	.loc	5 583 24 is_stmt 0              @ ../ThirdParty/FreeRTOS/Source/stream_buffer.c:583:24
	str	r0, [sp, #24]
	movs	r0, #0
	.loc	5 584 8 is_stmt 1               @ ../ThirdParty/FreeRTOS/Source/stream_buffer.c:584:8
	str	r0, [sp, #20]
.Ltmp185:
	.loc	5 586 2                         @ ../ThirdParty/FreeRTOS/Source/stream_buffer.c:586:2
	ldr	r0, [sp, #36]
.Ltmp186:
	.loc	5 586 2 is_stmt 0               @ ../ThirdParty/FreeRTOS/Source/stream_buffer.c:586:2
	cbnz	r0, .LBB10_3
	b	.LBB10_1
.LBB10_1:
.Ltmp187:
	.loc	3 199 2 is_stmt 1               @ ../ThirdParty/FreeRTOS/Source/portable/GCC/ARM_CM4F\portmacro.h:199:2
	@APP
	mov.w	r0, #80
	msr	basepri, r0
	isb	sy
	dsb	sy

	@NO_APP
	str	r0, [sp, #52]
.Ltmp188:
	.loc	5 586 2                         @ ../ThirdParty/FreeRTOS/Source/stream_buffer.c:586:2
	b	.LBB10_2
.LBB10_2:                               @ =>This Inner Loop Header: Depth=1
.Ltmp189:
	.loc	5 586 2 is_stmt 0               @ ../ThirdParty/FreeRTOS/Source/stream_buffer.c:586:2
	b	.LBB10_2
.Ltmp190:
.LBB10_3:
	.loc	5 587 2 is_stmt 1               @ ../ThirdParty/FreeRTOS/Source/stream_buffer.c:587:2
	ldr	r0, [sp, #24]
.Ltmp191:
	.loc	5 587 2 is_stmt 0               @ ../ThirdParty/FreeRTOS/Source/stream_buffer.c:587:2
	cbnz	r0, .LBB10_6
	b	.LBB10_4
.LBB10_4:
.Ltmp192:
	.loc	3 199 2 is_stmt 1               @ ../ThirdParty/FreeRTOS/Source/portable/GCC/ARM_CM4F\portmacro.h:199:2
	@APP
	mov.w	r0, #80
	msr	basepri, r0
	isb	sy
	dsb	sy

	@NO_APP
	str	r0, [sp, #48]
.Ltmp193:
	.loc	5 587 2                         @ ../ThirdParty/FreeRTOS/Source/stream_buffer.c:587:2
	b	.LBB10_5
.LBB10_5:                               @ =>This Inner Loop Header: Depth=1
.Ltmp194:
	.loc	5 587 2 is_stmt 0               @ ../ThirdParty/FreeRTOS/Source/stream_buffer.c:587:2
	b	.LBB10_5
.Ltmp195:
.LBB10_6:
	.loc	5 594 8 is_stmt 1               @ ../ThirdParty/FreeRTOS/Source/stream_buffer.c:594:8
	ldr	r0, [sp, #24]
	ldrb	r0, [r0, #28]
.Ltmp196:
	.loc	5 594 6 is_stmt 0               @ ../ThirdParty/FreeRTOS/Source/stream_buffer.c:594:6
	lsls	r0, r0, #31
	cbz	r0, .LBB10_8
	b	.LBB10_7
.LBB10_7:
	.loc	5 0 6                           @ ../ThirdParty/FreeRTOS/Source/stream_buffer.c:0:6
	movs	r0, #4
.Ltmp197:
	.loc	5 596 30 is_stmt 1              @ ../ThirdParty/FreeRTOS/Source/stream_buffer.c:596:30
	str	r0, [sp, #12]
	.loc	5 597 2                         @ ../ThirdParty/FreeRTOS/Source/stream_buffer.c:597:2
	b	.LBB10_9
.Ltmp198:
.LBB10_8:
	.loc	5 0 2 is_stmt 0                 @ ../ThirdParty/FreeRTOS/Source/stream_buffer.c:0:2
	movs	r0, #0
.Ltmp199:
	.loc	5 600 30 is_stmt 1              @ ../ThirdParty/FreeRTOS/Source/stream_buffer.c:600:30
	str	r0, [sp, #12]
	b	.LBB10_9
.Ltmp200:
.LBB10_9:
	.loc	5 603 6                         @ ../ThirdParty/FreeRTOS/Source/stream_buffer.c:603:6
	ldr	r0, [sp, #28]
.Ltmp201:
	.loc	5 603 6 is_stmt 0               @ ../ThirdParty/FreeRTOS/Source/stream_buffer.c:603:6
	cmp	r0, #0
	beq	.LBB10_20
	b	.LBB10_10
.LBB10_10:
.Ltmp202:
	.loc	5 607 3 is_stmt 1               @ ../ThirdParty/FreeRTOS/Source/stream_buffer.c:607:3
	bl	vPortEnterCritical
.Ltmp203:
	.loc	5 609 40                        @ ../ThirdParty/FreeRTOS/Source/stream_buffer.c:609:40
	ldr	r0, [sp, #24]
	.loc	5 609 22 is_stmt 0              @ ../ThirdParty/FreeRTOS/Source/stream_buffer.c:609:22
	bl	prvBytesInBuffer
	.loc	5 609 20                        @ ../ThirdParty/FreeRTOS/Source/stream_buffer.c:609:20
	str	r0, [sp, #16]
.Ltmp204:
	.loc	5 616 8 is_stmt 1               @ ../ThirdParty/FreeRTOS/Source/stream_buffer.c:616:8
	ldr	r0, [sp, #16]
	.loc	5 616 27 is_stmt 0              @ ../ThirdParty/FreeRTOS/Source/stream_buffer.c:616:27
	ldr	r1, [sp, #12]
.Ltmp205:
	.loc	5 616 8                         @ ../ThirdParty/FreeRTOS/Source/stream_buffer.c:616:8
	cmp	r0, r1
	bhi	.LBB10_15
	b	.LBB10_11
.LBB10_11:
	.loc	5 0 8                           @ ../ThirdParty/FreeRTOS/Source/stream_buffer.c:0:8
	movs	r0, #0
.Ltmp206:
	.loc	5 619 14 is_stmt 1              @ ../ThirdParty/FreeRTOS/Source/stream_buffer.c:619:14
	bl	xTaskNotifyStateClear
.Ltmp207:
	.loc	5 622 5                         @ ../ThirdParty/FreeRTOS/Source/stream_buffer.c:622:5
	ldr	r0, [sp, #24]
	ldr	r0, [r0, #16]
.Ltmp208:
	.loc	5 622 5 is_stmt 0               @ ../ThirdParty/FreeRTOS/Source/stream_buffer.c:622:5
	cbz	r0, .LBB10_14
	b	.LBB10_12
.LBB10_12:
.Ltmp209:
	.loc	3 199 2 is_stmt 1               @ ../ThirdParty/FreeRTOS/Source/portable/GCC/ARM_CM4F\portmacro.h:199:2
	@APP
	mov.w	r0, #80
	msr	basepri, r0
	isb	sy
	dsb	sy

	@NO_APP
	str	r0, [sp, #44]
.Ltmp210:
	.loc	5 622 5                         @ ../ThirdParty/FreeRTOS/Source/stream_buffer.c:622:5
	b	.LBB10_13
.LBB10_13:                              @ =>This Inner Loop Header: Depth=1
.Ltmp211:
	.loc	5 622 5 is_stmt 0               @ ../ThirdParty/FreeRTOS/Source/stream_buffer.c:622:5
	b	.LBB10_13
.Ltmp212:
.LBB10_14:
	.loc	5 623 45 is_stmt 1              @ ../ThirdParty/FreeRTOS/Source/stream_buffer.c:623:45
	bl	xTaskGetCurrentTaskHandle
	.loc	5 623 5 is_stmt 0               @ ../ThirdParty/FreeRTOS/Source/stream_buffer.c:623:5
	ldr	r1, [sp, #24]
	.loc	5 623 43                        @ ../ThirdParty/FreeRTOS/Source/stream_buffer.c:623:43
	str	r0, [r1, #16]
	.loc	5 624 4 is_stmt 1               @ ../ThirdParty/FreeRTOS/Source/stream_buffer.c:624:4
	b	.LBB10_16
.Ltmp213:
.LBB10_15:
	.loc	5 0 4 is_stmt 0                 @ ../ThirdParty/FreeRTOS/Source/stream_buffer.c:0:4
	b	.LBB10_16
.LBB10_16:
	.loc	5 630 3 is_stmt 1               @ ../ThirdParty/FreeRTOS/Source/stream_buffer.c:630:3
	bl	vPortExitCritical
.Ltmp214:
	.loc	5 632 7                         @ ../ThirdParty/FreeRTOS/Source/stream_buffer.c:632:7
	ldr	r0, [sp, #16]
	.loc	5 632 26 is_stmt 0              @ ../ThirdParty/FreeRTOS/Source/stream_buffer.c:632:26
	ldr	r1, [sp, #12]
.Ltmp215:
	.loc	5 632 7                         @ ../ThirdParty/FreeRTOS/Source/stream_buffer.c:632:7
	cmp	r0, r1
	bhi	.LBB10_18
	b	.LBB10_17
.LBB10_17:
.Ltmp216:
	.loc	5 636 68 is_stmt 1              @ ../ThirdParty/FreeRTOS/Source/stream_buffer.c:636:68
	ldr	r3, [sp, #28]
	movs	r2, #0
	.loc	5 636 13 is_stmt 0              @ ../ThirdParty/FreeRTOS/Source/stream_buffer.c:636:13
	str	r2, [sp, #8]                    @ 4-byte Spill
	mov	r0, r2
	mov	r1, r2
	bl	xTaskNotifyWait
                                        @ kill: def $r1 killed $r0
	.loc	5 637 4 is_stmt 1               @ ../ThirdParty/FreeRTOS/Source/stream_buffer.c:637:4
	ldr	r0, [sp, #8]                    @ 4-byte Reload
	ldr	r1, [sp, #24]
	.loc	5 637 42 is_stmt 0              @ ../ThirdParty/FreeRTOS/Source/stream_buffer.c:637:42
	str	r0, [r1, #16]
	.loc	5 640 40 is_stmt 1              @ ../ThirdParty/FreeRTOS/Source/stream_buffer.c:640:40
	ldr	r0, [sp, #24]
	.loc	5 640 22 is_stmt 0              @ ../ThirdParty/FreeRTOS/Source/stream_buffer.c:640:22
	bl	prvBytesInBuffer
	.loc	5 640 20                        @ ../ThirdParty/FreeRTOS/Source/stream_buffer.c:640:20
	str	r0, [sp, #16]
	.loc	5 641 3 is_stmt 1               @ ../ThirdParty/FreeRTOS/Source/stream_buffer.c:641:3
	b	.LBB10_19
.Ltmp217:
.LBB10_18:
	.loc	5 0 3 is_stmt 0                 @ ../ThirdParty/FreeRTOS/Source/stream_buffer.c:0:3
	b	.LBB10_19
.LBB10_19:
	.loc	5 646 2 is_stmt 1               @ ../ThirdParty/FreeRTOS/Source/stream_buffer.c:646:2
	b	.LBB10_21
.Ltmp218:
.LBB10_20:
	.loc	5 649 39                        @ ../ThirdParty/FreeRTOS/Source/stream_buffer.c:649:39
	ldr	r0, [sp, #24]
	.loc	5 649 21 is_stmt 0              @ ../ThirdParty/FreeRTOS/Source/stream_buffer.c:649:21
	bl	prvBytesInBuffer
	.loc	5 649 19                        @ ../ThirdParty/FreeRTOS/Source/stream_buffer.c:649:19
	str	r0, [sp, #16]
	b	.LBB10_21
.Ltmp219:
.LBB10_21:
	.loc	5 657 6 is_stmt 1               @ ../ThirdParty/FreeRTOS/Source/stream_buffer.c:657:6
	ldr	r0, [sp, #16]
	.loc	5 657 24 is_stmt 0              @ ../ThirdParty/FreeRTOS/Source/stream_buffer.c:657:24
	ldr	r1, [sp, #12]
.Ltmp220:
	.loc	5 657 6                         @ ../ThirdParty/FreeRTOS/Source/stream_buffer.c:657:6
	cmp	r0, r1
	bls	.LBB10_28
	b	.LBB10_22
.LBB10_22:
.Ltmp221:
	.loc	5 659 47 is_stmt 1              @ ../ThirdParty/FreeRTOS/Source/stream_buffer.c:659:47
	ldr	r0, [sp, #24]
	.loc	5 659 63 is_stmt 0              @ ../ThirdParty/FreeRTOS/Source/stream_buffer.c:659:63
	ldr	r1, [sp, #36]
	.loc	5 659 73                        @ ../ThirdParty/FreeRTOS/Source/stream_buffer.c:659:73
	ldr	r2, [sp, #32]
	.loc	5 659 93                        @ ../ThirdParty/FreeRTOS/Source/stream_buffer.c:659:93
	ldr	r3, [sp, #16]
	.loc	5 659 110                       @ ../ThirdParty/FreeRTOS/Source/stream_buffer.c:659:110
	ldr.w	r12, [sp, #12]
	.loc	5 659 21                        @ ../ThirdParty/FreeRTOS/Source/stream_buffer.c:659:21
	mov	lr, sp
	str.w	r12, [lr]
	bl	prvReadMessageFromBuffer
	.loc	5 659 19                        @ ../ThirdParty/FreeRTOS/Source/stream_buffer.c:659:19
	str	r0, [sp, #20]
.Ltmp222:
	.loc	5 662 7 is_stmt 1               @ ../ThirdParty/FreeRTOS/Source/stream_buffer.c:662:7
	ldr	r0, [sp, #20]
.Ltmp223:
	.loc	5 662 7 is_stmt 0               @ ../ThirdParty/FreeRTOS/Source/stream_buffer.c:662:7
	cbz	r0, .LBB10_26
	b	.LBB10_23
.LBB10_23:
.Ltmp224:
	.loc	5 665 4 is_stmt 1               @ ../ThirdParty/FreeRTOS/Source/stream_buffer.c:665:4
	bl	vTaskSuspendAll
.Ltmp225:
	.loc	5 665 4 is_stmt 0               @ ../ThirdParty/FreeRTOS/Source/stream_buffer.c:665:4
	ldr	r0, [sp, #24]
	ldr	r0, [r0, #20]
.Ltmp226:
	.loc	5 665 4                         @ ../ThirdParty/FreeRTOS/Source/stream_buffer.c:665:4
	cbz	r0, .LBB10_25
	b	.LBB10_24
.LBB10_24:
.Ltmp227:
	.loc	5 665 4                         @ ../ThirdParty/FreeRTOS/Source/stream_buffer.c:665:4
	ldr	r0, [sp, #24]
	ldr	r0, [r0, #20]
	movs	r3, #0
	str	r3, [sp, #4]                    @ 4-byte Spill
	mov	r1, r3
	mov	r2, r3
	bl	xTaskGenericNotify
                                        @ kill: def $r1 killed $r0
	ldr	r0, [sp, #4]                    @ 4-byte Reload
	ldr	r1, [sp, #24]
	str	r0, [r1, #20]
	b	.LBB10_25
.Ltmp228:
.LBB10_25:
	.loc	5 665 4                         @ ../ThirdParty/FreeRTOS/Source/stream_buffer.c:665:4
	bl	xTaskResumeAll
	.loc	5 666 3 is_stmt 1               @ ../ThirdParty/FreeRTOS/Source/stream_buffer.c:666:3
	b	.LBB10_27
.Ltmp229:
.LBB10_26:
	.loc	5 0 3 is_stmt 0                 @ ../ThirdParty/FreeRTOS/Source/stream_buffer.c:0:3
	b	.LBB10_27
.LBB10_27:
	.loc	5 671 2 is_stmt 1               @ ../ThirdParty/FreeRTOS/Source/stream_buffer.c:671:2
	b	.LBB10_29
.Ltmp230:
.LBB10_28:
	.loc	5 0 2 is_stmt 0                 @ ../ThirdParty/FreeRTOS/Source/stream_buffer.c:0:2
	b	.LBB10_29
.LBB10_29:
	.loc	5 678 9 is_stmt 1               @ ../ThirdParty/FreeRTOS/Source/stream_buffer.c:678:9
	ldr	r0, [sp, #20]
	.loc	5 678 2 epilogue_begin is_stmt 0 @ ../ThirdParty/FreeRTOS/Source/stream_buffer.c:678:2
	add	sp, #56
	pop	{r7, pc}
.Ltmp231:
.Lfunc_end10:
	.size	xStreamBufferReceive, .Lfunc_end10-xStreamBufferReceive
	.cfi_endproc
	.cantunwind
	.fnend
                                        @ -- End function
	.section	.text.prvReadMessageFromBuffer,"ax",%progbits
	.p2align	2                               @ -- Begin function prvReadMessageFromBuffer
	.type	prvReadMessageFromBuffer,%function
	.code	16                              @ @prvReadMessageFromBuffer
	.thumb_func
prvReadMessageFromBuffer:
.Lfunc_begin11:
	.loc	5 788 0 is_stmt 1               @ ../ThirdParty/FreeRTOS/Source/stream_buffer.c:788:0
	.fnstart
	.cfi_startproc
@ %bb.0:
	.save	{r7, lr}
	push	{r7, lr}
	.cfi_def_cfa_offset 8
	.cfi_offset lr, -4
	.cfi_offset r7, -8
	.pad	#32
	sub	sp, #32
	.cfi_def_cfa_offset 40
	ldr.w	r12, [sp, #40]
	str	r0, [sp, #28]
	str	r1, [sp, #24]
	str	r2, [sp, #20]
	str	r3, [sp, #16]
.Ltmp232:
	.loc	5 792 6 prologue_end            @ ../ThirdParty/FreeRTOS/Source/stream_buffer.c:792:6
	ldr	r0, [sp, #40]
.Ltmp233:
	.loc	5 792 6 is_stmt 0               @ ../ThirdParty/FreeRTOS/Source/stream_buffer.c:792:6
	cbz	r0, .LBB11_5
	b	.LBB11_1
.LBB11_1:
.Ltmp234:
	.loc	5 798 19 is_stmt 1              @ ../ThirdParty/FreeRTOS/Source/stream_buffer.c:798:19
	ldr	r0, [sp, #28]
	.loc	5 798 35 is_stmt 0              @ ../ThirdParty/FreeRTOS/Source/stream_buffer.c:798:35
	ldr	r0, [r0]
	.loc	5 798 17                        @ ../ThirdParty/FreeRTOS/Source/stream_buffer.c:798:17
	str	r0, [sp, #12]
	.loc	5 799 36 is_stmt 1              @ ../ThirdParty/FreeRTOS/Source/stream_buffer.c:799:36
	ldr	r0, [sp, #28]
	.loc	5 799 91 is_stmt 0              @ ../ThirdParty/FreeRTOS/Source/stream_buffer.c:799:91
	ldr	r2, [sp, #40]
	.loc	5 799 119                       @ ../ThirdParty/FreeRTOS/Source/stream_buffer.c:799:119
	ldr	r3, [sp, #16]
	mov	r1, sp
	.loc	5 799 12                        @ ../ThirdParty/FreeRTOS/Source/stream_buffer.c:799:12
	bl	prvReadBytesFromBuffer
	.loc	5 800 35 is_stmt 1              @ ../ThirdParty/FreeRTOS/Source/stream_buffer.c:800:35
	ldr	r0, [sp]
	.loc	5 800 22 is_stmt 0              @ ../ThirdParty/FreeRTOS/Source/stream_buffer.c:800:22
	str	r0, [sp, #4]
	.loc	5 804 22 is_stmt 1              @ ../ThirdParty/FreeRTOS/Source/stream_buffer.c:804:22
	ldr	r1, [sp, #40]
	.loc	5 804 19 is_stmt 0              @ ../ThirdParty/FreeRTOS/Source/stream_buffer.c:804:19
	ldr	r0, [sp, #16]
	subs	r0, r0, r1
	str	r0, [sp, #16]
.Ltmp235:
	.loc	5 808 7 is_stmt 1               @ ../ThirdParty/FreeRTOS/Source/stream_buffer.c:808:7
	ldr	r0, [sp, #4]
	.loc	5 808 28 is_stmt 0              @ ../ThirdParty/FreeRTOS/Source/stream_buffer.c:808:28
	ldr	r1, [sp, #20]
.Ltmp236:
	.loc	5 808 7                         @ ../ThirdParty/FreeRTOS/Source/stream_buffer.c:808:7
	cmp	r0, r1
	bls	.LBB11_3
	b	.LBB11_2
.LBB11_2:
.Ltmp237:
	.loc	5 813 28 is_stmt 1              @ ../ThirdParty/FreeRTOS/Source/stream_buffer.c:813:28
	ldr	r0, [sp, #12]
	.loc	5 813 4 is_stmt 0               @ ../ThirdParty/FreeRTOS/Source/stream_buffer.c:813:4
	ldr	r1, [sp, #28]
	.loc	5 813 26                        @ ../ThirdParty/FreeRTOS/Source/stream_buffer.c:813:26
	str	r0, [r1]
	movs	r0, #0
	.loc	5 814 23 is_stmt 1              @ ../ThirdParty/FreeRTOS/Source/stream_buffer.c:814:23
	str	r0, [sp, #4]
	.loc	5 815 3                         @ ../ThirdParty/FreeRTOS/Source/stream_buffer.c:815:3
	b	.LBB11_4
.Ltmp238:
.LBB11_3:
	.loc	5 0 3 is_stmt 0                 @ ../ThirdParty/FreeRTOS/Source/stream_buffer.c:0:3
	b	.LBB11_4
.LBB11_4:
	.loc	5 820 2 is_stmt 1               @ ../ThirdParty/FreeRTOS/Source/stream_buffer.c:820:2
	b	.LBB11_6
.Ltmp239:
.LBB11_5:
	.loc	5 825 24                        @ ../ThirdParty/FreeRTOS/Source/stream_buffer.c:825:24
	ldr	r0, [sp, #20]
	.loc	5 825 22 is_stmt 0              @ ../ThirdParty/FreeRTOS/Source/stream_buffer.c:825:22
	str	r0, [sp, #4]
	b	.LBB11_6
.Ltmp240:
.LBB11_6:
	.loc	5 829 44 is_stmt 1              @ ../ThirdParty/FreeRTOS/Source/stream_buffer.c:829:44
	ldr	r0, [sp, #28]
	.loc	5 829 74 is_stmt 0              @ ../ThirdParty/FreeRTOS/Source/stream_buffer.c:829:74
	ldr	r1, [sp, #24]
	.loc	5 829 84                        @ ../ThirdParty/FreeRTOS/Source/stream_buffer.c:829:84
	ldr	r2, [sp, #4]
	.loc	5 829 104                       @ ../ThirdParty/FreeRTOS/Source/stream_buffer.c:829:104
	ldr	r3, [sp, #16]
	.loc	5 829 20                        @ ../ThirdParty/FreeRTOS/Source/stream_buffer.c:829:20
	bl	prvReadBytesFromBuffer
	.loc	5 829 18                        @ ../ThirdParty/FreeRTOS/Source/stream_buffer.c:829:18
	str	r0, [sp, #8]
	.loc	5 831 9 is_stmt 1               @ ../ThirdParty/FreeRTOS/Source/stream_buffer.c:831:9
	ldr	r0, [sp, #8]
	.loc	5 831 2 epilogue_begin is_stmt 0 @ ../ThirdParty/FreeRTOS/Source/stream_buffer.c:831:2
	add	sp, #32
	pop	{r7, pc}
.Ltmp241:
.Lfunc_end11:
	.size	prvReadMessageFromBuffer, .Lfunc_end11-prvReadMessageFromBuffer
	.cfi_endproc
	.cantunwind
	.fnend
                                        @ -- End function
	.section	.text.xStreamBufferNextMessageLengthBytes,"ax",%progbits
	.hidden	xStreamBufferNextMessageLengthBytes @ -- Begin function xStreamBufferNextMessageLengthBytes
	.globl	xStreamBufferNextMessageLengthBytes
	.p2align	2
	.type	xStreamBufferNextMessageLengthBytes,%function
	.code	16                              @ @xStreamBufferNextMessageLengthBytes
	.thumb_func
xStreamBufferNextMessageLengthBytes:
.Lfunc_begin12:
	.loc	5 683 0 is_stmt 1               @ ../ThirdParty/FreeRTOS/Source/stream_buffer.c:683:0
	.fnstart
	.cfi_startproc
@ %bb.0:
	.save	{r7, lr}
	push	{r7, lr}
	.cfi_def_cfa_offset 8
	.cfi_offset lr, -4
	.cfi_offset r7, -8
	.pad	#32
	sub	sp, #32
	.cfi_def_cfa_offset 40
	str	r0, [sp, #20]
.Ltmp242:
	.loc	5 684 41 prologue_end           @ ../ThirdParty/FreeRTOS/Source/stream_buffer.c:684:41
	ldr	r0, [sp, #20]
	.loc	5 684 24 is_stmt 0              @ ../ThirdParty/FreeRTOS/Source/stream_buffer.c:684:24
	str	r0, [sp, #16]
.Ltmp243:
	.loc	5 688 2 is_stmt 1               @ ../ThirdParty/FreeRTOS/Source/stream_buffer.c:688:2
	ldr	r0, [sp, #16]
.Ltmp244:
	.loc	5 688 2 is_stmt 0               @ ../ThirdParty/FreeRTOS/Source/stream_buffer.c:688:2
	cbnz	r0, .LBB12_3
	b	.LBB12_1
.LBB12_1:
.Ltmp245:
	.loc	3 199 2 is_stmt 1               @ ../ThirdParty/FreeRTOS/Source/portable/GCC/ARM_CM4F\portmacro.h:199:2
	@APP
	mov.w	r0, #80
	msr	basepri, r0
	isb	sy
	dsb	sy

	@NO_APP
	str	r0, [sp, #28]
.Ltmp246:
	.loc	5 688 2                         @ ../ThirdParty/FreeRTOS/Source/stream_buffer.c:688:2
	b	.LBB12_2
.LBB12_2:                               @ =>This Inner Loop Header: Depth=1
.Ltmp247:
	.loc	5 688 2 is_stmt 0               @ ../ThirdParty/FreeRTOS/Source/stream_buffer.c:688:2
	b	.LBB12_2
.Ltmp248:
.LBB12_3:
	.loc	5 691 8 is_stmt 1               @ ../ThirdParty/FreeRTOS/Source/stream_buffer.c:691:8
	ldr	r0, [sp, #16]
	ldrb	r0, [r0, #28]
.Ltmp249:
	.loc	5 691 6 is_stmt 0               @ ../ThirdParty/FreeRTOS/Source/stream_buffer.c:691:6
	lsls	r0, r0, #31
	cbz	r0, .LBB12_11
	b	.LBB12_4
.LBB12_4:
.Ltmp250:
	.loc	5 693 39 is_stmt 1              @ ../ThirdParty/FreeRTOS/Source/stream_buffer.c:693:39
	ldr	r0, [sp, #16]
	.loc	5 693 21 is_stmt 0              @ ../ThirdParty/FreeRTOS/Source/stream_buffer.c:693:21
	bl	prvBytesInBuffer
	.loc	5 693 19                        @ ../ThirdParty/FreeRTOS/Source/stream_buffer.c:693:19
	str	r0, [sp, #8]
.Ltmp251:
	.loc	5 694 7 is_stmt 1               @ ../ThirdParty/FreeRTOS/Source/stream_buffer.c:694:7
	ldr	r0, [sp, #8]
.Ltmp252:
	.loc	5 694 7 is_stmt 0               @ ../ThirdParty/FreeRTOS/Source/stream_buffer.c:694:7
	cmp	r0, #5
	blo	.LBB12_6
	b	.LBB12_5
.LBB12_5:
.Ltmp253:
	.loc	5 702 20 is_stmt 1              @ ../ThirdParty/FreeRTOS/Source/stream_buffer.c:702:20
	ldr	r0, [sp, #16]
	.loc	5 702 36 is_stmt 0              @ ../ThirdParty/FreeRTOS/Source/stream_buffer.c:702:36
	ldr	r0, [r0]
	.loc	5 702 18                        @ ../ThirdParty/FreeRTOS/Source/stream_buffer.c:702:18
	str	r0, [sp, #4]
	.loc	5 703 37 is_stmt 1              @ ../ThirdParty/FreeRTOS/Source/stream_buffer.c:703:37
	ldr	r0, [sp, #16]
	.loc	5 703 114 is_stmt 0             @ ../ThirdParty/FreeRTOS/Source/stream_buffer.c:703:114
	ldr	r3, [sp, #8]
	mov	r1, sp
	movs	r2, #4
	.loc	5 703 13                        @ ../ThirdParty/FreeRTOS/Source/stream_buffer.c:703:13
	bl	prvReadBytesFromBuffer
	.loc	5 704 25 is_stmt 1              @ ../ThirdParty/FreeRTOS/Source/stream_buffer.c:704:25
	ldr	r0, [sp]
	.loc	5 704 12 is_stmt 0              @ ../ThirdParty/FreeRTOS/Source/stream_buffer.c:704:12
	str	r0, [sp, #12]
	.loc	5 705 28 is_stmt 1              @ ../ThirdParty/FreeRTOS/Source/stream_buffer.c:705:28
	ldr	r0, [sp, #4]
	.loc	5 705 4 is_stmt 0               @ ../ThirdParty/FreeRTOS/Source/stream_buffer.c:705:4
	ldr	r1, [sp, #16]
	.loc	5 705 26                        @ ../ThirdParty/FreeRTOS/Source/stream_buffer.c:705:26
	str	r0, [r1]
	.loc	5 706 3 is_stmt 1               @ ../ThirdParty/FreeRTOS/Source/stream_buffer.c:706:3
	b	.LBB12_10
.Ltmp254:
.LBB12_6:
	.loc	5 713 4                         @ ../ThirdParty/FreeRTOS/Source/stream_buffer.c:713:4
	ldr	r0, [sp, #8]
.Ltmp255:
	.loc	5 713 4 is_stmt 0               @ ../ThirdParty/FreeRTOS/Source/stream_buffer.c:713:4
	cbz	r0, .LBB12_9
	b	.LBB12_7
.LBB12_7:
.Ltmp256:
	.loc	3 199 2 is_stmt 1               @ ../ThirdParty/FreeRTOS/Source/portable/GCC/ARM_CM4F\portmacro.h:199:2
	@APP
	mov.w	r0, #80
	msr	basepri, r0
	isb	sy
	dsb	sy

	@NO_APP
	str	r0, [sp, #24]
.Ltmp257:
	.loc	5 713 4                         @ ../ThirdParty/FreeRTOS/Source/stream_buffer.c:713:4
	b	.LBB12_8
.LBB12_8:                               @ =>This Inner Loop Header: Depth=1
.Ltmp258:
	.loc	5 713 4 is_stmt 0               @ ../ThirdParty/FreeRTOS/Source/stream_buffer.c:713:4
	b	.LBB12_8
.Ltmp259:
.LBB12_9:
	.loc	5 0 4                           @ ../ThirdParty/FreeRTOS/Source/stream_buffer.c:0:4
	movs	r0, #0
	.loc	5 714 12 is_stmt 1              @ ../ThirdParty/FreeRTOS/Source/stream_buffer.c:714:12
	str	r0, [sp, #12]
	b	.LBB12_10
.Ltmp260:
.LBB12_10:
	.loc	5 716 2                         @ ../ThirdParty/FreeRTOS/Source/stream_buffer.c:716:2
	b	.LBB12_12
.Ltmp261:
.LBB12_11:
	.loc	5 0 2 is_stmt 0                 @ ../ThirdParty/FreeRTOS/Source/stream_buffer.c:0:2
	movs	r0, #0
.Ltmp262:
	.loc	5 719 11 is_stmt 1              @ ../ThirdParty/FreeRTOS/Source/stream_buffer.c:719:11
	str	r0, [sp, #12]
	b	.LBB12_12
.Ltmp263:
.LBB12_12:
	.loc	5 722 9                         @ ../ThirdParty/FreeRTOS/Source/stream_buffer.c:722:9
	ldr	r0, [sp, #12]
	.loc	5 722 2 epilogue_begin is_stmt 0 @ ../ThirdParty/FreeRTOS/Source/stream_buffer.c:722:2
	add	sp, #32
	pop	{r7, pc}
.Ltmp264:
.Lfunc_end12:
	.size	xStreamBufferNextMessageLengthBytes, .Lfunc_end12-xStreamBufferNextMessageLengthBytes
	.cfi_endproc
	.cantunwind
	.fnend
                                        @ -- End function
	.section	.text.prvReadBytesFromBuffer,"ax",%progbits
	.p2align	2                               @ -- Begin function prvReadBytesFromBuffer
	.type	prvReadBytesFromBuffer,%function
	.code	16                              @ @prvReadBytesFromBuffer
	.thumb_func
prvReadBytesFromBuffer:
.Lfunc_begin13:
	.loc	5 1000 0 is_stmt 1              @ ../ThirdParty/FreeRTOS/Source/stream_buffer.c:1000:0
	.fnstart
	.cfi_startproc
@ %bb.0:
	.save	{r7, lr}
	push	{r7, lr}
	.cfi_def_cfa_offset 8
	.cfi_offset lr, -4
	.cfi_offset r7, -8
	.pad	#48
	sub	sp, #48
	.cfi_def_cfa_offset 56
	str	r0, [sp, #32]
	str	r1, [sp, #28]
	str	r2, [sp, #24]
	str	r3, [sp, #20]
.Ltmp265:
	.loc	5 1004 11 prologue_end          @ ../ThirdParty/FreeRTOS/Source/stream_buffer.c:1004:11
	ldr	r0, [sp, #20]
	ldr	r1, [sp, #24]
	cmp	r0, r1
	bhs	.LBB13_2
	b	.LBB13_1
.LBB13_1:
	ldr	r0, [sp, #20]
	str	r0, [sp, #4]                    @ 4-byte Spill
	b	.LBB13_3
.LBB13_2:
	ldr	r0, [sp, #24]
	str	r0, [sp, #4]                    @ 4-byte Spill
	b	.LBB13_3
.LBB13_3:
	ldr	r0, [sp, #4]                    @ 4-byte Reload
	.loc	5 1004 9 is_stmt 0              @ ../ThirdParty/FreeRTOS/Source/stream_buffer.c:1004:9
	str	r0, [sp, #16]
.Ltmp266:
	.loc	5 1006 6 is_stmt 1              @ ../ThirdParty/FreeRTOS/Source/stream_buffer.c:1006:6
	ldr	r0, [sp, #16]
.Ltmp267:
	.loc	5 1006 6 is_stmt 0              @ ../ThirdParty/FreeRTOS/Source/stream_buffer.c:1006:6
	cmp	r0, #0
	beq.w	.LBB13_22
	b	.LBB13_4
.LBB13_4:
.Ltmp268:
	.loc	5 1008 15 is_stmt 1             @ ../ThirdParty/FreeRTOS/Source/stream_buffer.c:1008:15
	ldr	r0, [sp, #32]
	.loc	5 1008 31 is_stmt 0             @ ../ThirdParty/FreeRTOS/Source/stream_buffer.c:1008:31
	ldr	r0, [r0]
	.loc	5 1008 13                       @ ../ThirdParty/FreeRTOS/Source/stream_buffer.c:1008:13
	str	r0, [sp, #8]
	.loc	5 1013 18 is_stmt 1             @ ../ThirdParty/FreeRTOS/Source/stream_buffer.c:1013:18
	ldr	r0, [sp, #32]
	ldr	r0, [r0, #8]
	ldr	r1, [sp, #8]
	subs	r0, r0, r1
	ldr	r1, [sp, #16]
	cmp	r0, r1
	bhs	.LBB13_6
	b	.LBB13_5
.LBB13_5:
	ldr	r0, [sp, #32]
	ldr	r0, [r0, #8]
	ldr	r1, [sp, #8]
	subs	r0, r0, r1
	str	r0, [sp]                        @ 4-byte Spill
	b	.LBB13_7
.LBB13_6:
	ldr	r0, [sp, #16]
	str	r0, [sp]                        @ 4-byte Spill
	b	.LBB13_7
.LBB13_7:
	ldr	r0, [sp]                        @ 4-byte Reload
	.loc	5 1013 16 is_stmt 0             @ ../ThirdParty/FreeRTOS/Source/stream_buffer.c:1013:16
	str	r0, [sp, #12]
.Ltmp269:
	.loc	5 1017 3 is_stmt 1              @ ../ThirdParty/FreeRTOS/Source/stream_buffer.c:1017:3
	ldr	r0, [sp, #12]
	ldr	r1, [sp, #24]
.Ltmp270:
	.loc	5 1017 3 is_stmt 0              @ ../ThirdParty/FreeRTOS/Source/stream_buffer.c:1017:3
	cmp	r0, r1
	bls	.LBB13_10
	b	.LBB13_8
.LBB13_8:
.Ltmp271:
	.loc	3 199 2 is_stmt 1               @ ../ThirdParty/FreeRTOS/Source/portable/GCC/ARM_CM4F\portmacro.h:199:2
	@APP
	mov.w	r0, #80
	msr	basepri, r0
	isb	sy
	dsb	sy

	@NO_APP
	str	r0, [sp, #44]
.Ltmp272:
	.loc	5 1017 3                        @ ../ThirdParty/FreeRTOS/Source/stream_buffer.c:1017:3
	b	.LBB13_9
.LBB13_9:                               @ =>This Inner Loop Header: Depth=1
.Ltmp273:
	.loc	5 1017 3 is_stmt 0              @ ../ThirdParty/FreeRTOS/Source/stream_buffer.c:1017:3
	b	.LBB13_9
.Ltmp274:
.LBB13_10:
	.loc	5 1018 3 is_stmt 1              @ ../ThirdParty/FreeRTOS/Source/stream_buffer.c:1018:3
	ldr	r0, [sp, #8]
	ldr	r1, [sp, #12]
	add	r0, r1
	ldr	r1, [sp, #32]
	ldr	r1, [r1, #8]
.Ltmp275:
	.loc	5 1018 3 is_stmt 0              @ ../ThirdParty/FreeRTOS/Source/stream_buffer.c:1018:3
	cmp	r0, r1
	bls	.LBB13_13
	b	.LBB13_11
.LBB13_11:
.Ltmp276:
	.loc	3 199 2 is_stmt 1               @ ../ThirdParty/FreeRTOS/Source/portable/GCC/ARM_CM4F\portmacro.h:199:2
	@APP
	mov.w	r0, #80
	msr	basepri, r0
	isb	sy
	dsb	sy

	@NO_APP
	str	r0, [sp, #40]
.Ltmp277:
	.loc	5 1018 3                        @ ../ThirdParty/FreeRTOS/Source/stream_buffer.c:1018:3
	b	.LBB13_12
.LBB13_12:                              @ =>This Inner Loop Header: Depth=1
.Ltmp278:
	.loc	5 1018 3 is_stmt 0              @ ../ThirdParty/FreeRTOS/Source/stream_buffer.c:1018:3
	b	.LBB13_12
.Ltmp279:
.LBB13_13:
	.loc	5 1019 31 is_stmt 1             @ ../ThirdParty/FreeRTOS/Source/stream_buffer.c:1019:31
	ldr	r0, [sp, #28]
	.loc	5 1019 60 is_stmt 0             @ ../ThirdParty/FreeRTOS/Source/stream_buffer.c:1019:60
	ldr	r1, [sp, #32]
	.loc	5 1019 76                       @ ../ThirdParty/FreeRTOS/Source/stream_buffer.c:1019:76
	ldr	r1, [r1, #24]
	.loc	5 1019 87                       @ ../ThirdParty/FreeRTOS/Source/stream_buffer.c:1019:87
	ldr	r2, [sp, #8]
	.loc	5 1019 60                       @ ../ThirdParty/FreeRTOS/Source/stream_buffer.c:1019:60
	add	r1, r2
	.loc	5 1019 102                      @ ../ThirdParty/FreeRTOS/Source/stream_buffer.c:1019:102
	ldr	r2, [sp, #12]
	.loc	5 1019 12                       @ ../ThirdParty/FreeRTOS/Source/stream_buffer.c:1019:12
	bl	__aeabi_memcpy
.Ltmp280:
	.loc	5 1023 7 is_stmt 1              @ ../ThirdParty/FreeRTOS/Source/stream_buffer.c:1023:7
	ldr	r0, [sp, #16]
	.loc	5 1023 16 is_stmt 0             @ ../ThirdParty/FreeRTOS/Source/stream_buffer.c:1023:16
	ldr	r1, [sp, #12]
.Ltmp281:
	.loc	5 1023 7                        @ ../ThirdParty/FreeRTOS/Source/stream_buffer.c:1023:7
	cmp	r0, r1
	bls	.LBB13_18
	b	.LBB13_14
.LBB13_14:
.Ltmp282:
	.loc	5 1026 4 is_stmt 1              @ ../ThirdParty/FreeRTOS/Source/stream_buffer.c:1026:4
	ldr	r0, [sp, #16]
	ldr	r1, [sp, #24]
.Ltmp283:
	.loc	5 1026 4 is_stmt 0              @ ../ThirdParty/FreeRTOS/Source/stream_buffer.c:1026:4
	cmp	r0, r1
	bls	.LBB13_17
	b	.LBB13_15
.LBB13_15:
.Ltmp284:
	.loc	3 199 2 is_stmt 1               @ ../ThirdParty/FreeRTOS/Source/portable/GCC/ARM_CM4F\portmacro.h:199:2
	@APP
	mov.w	r0, #80
	msr	basepri, r0
	isb	sy
	dsb	sy

	@NO_APP
	str	r0, [sp, #36]
.Ltmp285:
	.loc	5 1026 4                        @ ../ThirdParty/FreeRTOS/Source/stream_buffer.c:1026:4
	b	.LBB13_16
.LBB13_16:                              @ =>This Inner Loop Header: Depth=1
.Ltmp286:
	.loc	5 1026 4 is_stmt 0              @ ../ThirdParty/FreeRTOS/Source/stream_buffer.c:1026:4
	b	.LBB13_16
.Ltmp287:
.LBB13_17:
	.loc	5 1027 35 is_stmt 1             @ ../ThirdParty/FreeRTOS/Source/stream_buffer.c:1027:35
	ldr	r0, [sp, #28]
	.loc	5 1027 44 is_stmt 0             @ ../ThirdParty/FreeRTOS/Source/stream_buffer.c:1027:44
	ldr	r3, [sp, #12]
	.loc	5 1027 35                       @ ../ThirdParty/FreeRTOS/Source/stream_buffer.c:1027:35
	add	r0, r3
	.loc	5 1027 75                       @ ../ThirdParty/FreeRTOS/Source/stream_buffer.c:1027:75
	ldr	r1, [sp, #32]
	.loc	5 1027 91                       @ ../ThirdParty/FreeRTOS/Source/stream_buffer.c:1027:91
	ldr	r1, [r1, #24]
	.loc	5 1027 104                      @ ../ThirdParty/FreeRTOS/Source/stream_buffer.c:1027:104
	ldr	r2, [sp, #16]
	.loc	5 1027 111                      @ ../ThirdParty/FreeRTOS/Source/stream_buffer.c:1027:111
	subs	r2, r2, r3
	.loc	5 1027 13                       @ ../ThirdParty/FreeRTOS/Source/stream_buffer.c:1027:13
	bl	__aeabi_memcpy
	.loc	5 1028 3 is_stmt 1              @ ../ThirdParty/FreeRTOS/Source/stream_buffer.c:1028:3
	b	.LBB13_19
.Ltmp288:
.LBB13_18:
	.loc	5 0 3 is_stmt 0                 @ ../ThirdParty/FreeRTOS/Source/stream_buffer.c:0:3
	b	.LBB13_19
.LBB13_19:
	.loc	5 1036 16 is_stmt 1             @ ../ThirdParty/FreeRTOS/Source/stream_buffer.c:1036:16
	ldr	r1, [sp, #16]
	.loc	5 1036 13 is_stmt 0             @ ../ThirdParty/FreeRTOS/Source/stream_buffer.c:1036:13
	ldr	r0, [sp, #8]
	add	r0, r1
	str	r0, [sp, #8]
.Ltmp289:
	.loc	5 1038 7 is_stmt 1              @ ../ThirdParty/FreeRTOS/Source/stream_buffer.c:1038:7
	ldr	r0, [sp, #8]
	.loc	5 1038 20 is_stmt 0             @ ../ThirdParty/FreeRTOS/Source/stream_buffer.c:1038:20
	ldr	r1, [sp, #32]
	.loc	5 1038 36                       @ ../ThirdParty/FreeRTOS/Source/stream_buffer.c:1038:36
	ldr	r1, [r1, #8]
.Ltmp290:
	.loc	5 1038 7                        @ ../ThirdParty/FreeRTOS/Source/stream_buffer.c:1038:7
	cmp	r0, r1
	blo	.LBB13_21
	b	.LBB13_20
.LBB13_20:
.Ltmp291:
	.loc	5 1040 17 is_stmt 1             @ ../ThirdParty/FreeRTOS/Source/stream_buffer.c:1040:17
	ldr	r0, [sp, #32]
	.loc	5 1040 33 is_stmt 0             @ ../ThirdParty/FreeRTOS/Source/stream_buffer.c:1040:33
	ldr	r1, [r0, #8]
	.loc	5 1040 14                       @ ../ThirdParty/FreeRTOS/Source/stream_buffer.c:1040:14
	ldr	r0, [sp, #8]
	subs	r0, r0, r1
	str	r0, [sp, #8]
	.loc	5 1041 3 is_stmt 1              @ ../ThirdParty/FreeRTOS/Source/stream_buffer.c:1041:3
	b	.LBB13_21
.Ltmp292:
.LBB13_21:
	.loc	5 1043 27                       @ ../ThirdParty/FreeRTOS/Source/stream_buffer.c:1043:27
	ldr	r0, [sp, #8]
	.loc	5 1043 3 is_stmt 0              @ ../ThirdParty/FreeRTOS/Source/stream_buffer.c:1043:3
	ldr	r1, [sp, #32]
	.loc	5 1043 25                       @ ../ThirdParty/FreeRTOS/Source/stream_buffer.c:1043:25
	str	r0, [r1]
	.loc	5 1044 2 is_stmt 1              @ ../ThirdParty/FreeRTOS/Source/stream_buffer.c:1044:2
	b	.LBB13_23
.Ltmp293:
.LBB13_22:
	.loc	5 0 2 is_stmt 0                 @ ../ThirdParty/FreeRTOS/Source/stream_buffer.c:0:2
	b	.LBB13_23
.LBB13_23:
	.loc	5 1050 9 is_stmt 1              @ ../ThirdParty/FreeRTOS/Source/stream_buffer.c:1050:9
	ldr	r0, [sp, #16]
	.loc	5 1050 2 epilogue_begin is_stmt 0 @ ../ThirdParty/FreeRTOS/Source/stream_buffer.c:1050:2
	add	sp, #48
	pop	{r7, pc}
.Ltmp294:
.Lfunc_end13:
	.size	prvReadBytesFromBuffer, .Lfunc_end13-prvReadBytesFromBuffer
	.cfi_endproc
	.cantunwind
	.fnend
                                        @ -- End function
	.section	.text.xStreamBufferReceiveFromISR,"ax",%progbits
	.hidden	xStreamBufferReceiveFromISR     @ -- Begin function xStreamBufferReceiveFromISR
	.globl	xStreamBufferReceiveFromISR
	.p2align	2
	.type	xStreamBufferReceiveFromISR,%function
	.code	16                              @ @xStreamBufferReceiveFromISR
	.thumb_func
xStreamBufferReceiveFromISR:
.Lfunc_begin14:
	.loc	5 730 0 is_stmt 1               @ ../ThirdParty/FreeRTOS/Source/stream_buffer.c:730:0
	.fnstart
	.cfi_startproc
@ %bb.0:
	.save	{r7, lr}
	push	{r7, lr}
	.cfi_def_cfa_offset 8
	.cfi_offset lr, -4
	.cfi_offset r7, -8
	.pad	#64
	sub	sp, #64
	.cfi_def_cfa_offset 72
	str	r0, [sp, #40]
	str	r1, [sp, #36]
	str	r2, [sp, #32]
	str	r3, [sp, #28]
.Ltmp295:
	.loc	5 731 41 prologue_end           @ ../ThirdParty/FreeRTOS/Source/stream_buffer.c:731:41
	ldr	r0, [sp, #40]
	.loc	5 731 24 is_stmt 0              @ ../ThirdParty/FreeRTOS/Source/stream_buffer.c:731:24
	str	r0, [sp, #24]
	movs	r0, #0
	.loc	5 732 8 is_stmt 1               @ ../ThirdParty/FreeRTOS/Source/stream_buffer.c:732:8
	str	r0, [sp, #20]
.Ltmp296:
	.loc	5 734 2                         @ ../ThirdParty/FreeRTOS/Source/stream_buffer.c:734:2
	ldr	r0, [sp, #36]
.Ltmp297:
	.loc	5 734 2 is_stmt 0               @ ../ThirdParty/FreeRTOS/Source/stream_buffer.c:734:2
	cbnz	r0, .LBB14_3
	b	.LBB14_1
.LBB14_1:
.Ltmp298:
	.loc	3 199 2 is_stmt 1               @ ../ThirdParty/FreeRTOS/Source/portable/GCC/ARM_CM4F\portmacro.h:199:2
	@APP
	mov.w	r0, #80
	msr	basepri, r0
	isb	sy
	dsb	sy

	@NO_APP
	str	r0, [sp, #48]
.Ltmp299:
	.loc	5 734 2                         @ ../ThirdParty/FreeRTOS/Source/stream_buffer.c:734:2
	b	.LBB14_2
.LBB14_2:                               @ =>This Inner Loop Header: Depth=1
.Ltmp300:
	.loc	5 734 2 is_stmt 0               @ ../ThirdParty/FreeRTOS/Source/stream_buffer.c:734:2
	b	.LBB14_2
.Ltmp301:
.LBB14_3:
	.loc	5 735 2 is_stmt 1               @ ../ThirdParty/FreeRTOS/Source/stream_buffer.c:735:2
	ldr	r0, [sp, #24]
.Ltmp302:
	.loc	5 735 2 is_stmt 0               @ ../ThirdParty/FreeRTOS/Source/stream_buffer.c:735:2
	cbnz	r0, .LBB14_6
	b	.LBB14_4
.LBB14_4:
.Ltmp303:
	.loc	3 199 2 is_stmt 1               @ ../ThirdParty/FreeRTOS/Source/portable/GCC/ARM_CM4F\portmacro.h:199:2
	@APP
	mov.w	r0, #80
	msr	basepri, r0
	isb	sy
	dsb	sy

	@NO_APP
	str	r0, [sp, #44]
.Ltmp304:
	.loc	5 735 2                         @ ../ThirdParty/FreeRTOS/Source/stream_buffer.c:735:2
	b	.LBB14_5
.LBB14_5:                               @ =>This Inner Loop Header: Depth=1
.Ltmp305:
	.loc	5 735 2 is_stmt 0               @ ../ThirdParty/FreeRTOS/Source/stream_buffer.c:735:2
	b	.LBB14_5
.Ltmp306:
.LBB14_6:
	.loc	5 742 8 is_stmt 1               @ ../ThirdParty/FreeRTOS/Source/stream_buffer.c:742:8
	ldr	r0, [sp, #24]
	ldrb	r0, [r0, #28]
.Ltmp307:
	.loc	5 742 6 is_stmt 0               @ ../ThirdParty/FreeRTOS/Source/stream_buffer.c:742:6
	lsls	r0, r0, #31
	cbz	r0, .LBB14_8
	b	.LBB14_7
.LBB14_7:
	.loc	5 0 6                           @ ../ThirdParty/FreeRTOS/Source/stream_buffer.c:0:6
	movs	r0, #4
.Ltmp308:
	.loc	5 744 30 is_stmt 1              @ ../ThirdParty/FreeRTOS/Source/stream_buffer.c:744:30
	str	r0, [sp, #12]
	.loc	5 745 2                         @ ../ThirdParty/FreeRTOS/Source/stream_buffer.c:745:2
	b	.LBB14_9
.Ltmp309:
.LBB14_8:
	.loc	5 0 2 is_stmt 0                 @ ../ThirdParty/FreeRTOS/Source/stream_buffer.c:0:2
	movs	r0, #0
.Ltmp310:
	.loc	5 748 30 is_stmt 1              @ ../ThirdParty/FreeRTOS/Source/stream_buffer.c:748:30
	str	r0, [sp, #12]
	b	.LBB14_9
.Ltmp311:
.LBB14_9:
	.loc	5 751 38                        @ ../ThirdParty/FreeRTOS/Source/stream_buffer.c:751:38
	ldr	r0, [sp, #24]
	.loc	5 751 20 is_stmt 0              @ ../ThirdParty/FreeRTOS/Source/stream_buffer.c:751:20
	bl	prvBytesInBuffer
	.loc	5 751 18                        @ ../ThirdParty/FreeRTOS/Source/stream_buffer.c:751:18
	str	r0, [sp, #16]
.Ltmp312:
	.loc	5 758 6 is_stmt 1               @ ../ThirdParty/FreeRTOS/Source/stream_buffer.c:758:6
	ldr	r0, [sp, #16]
	.loc	5 758 24 is_stmt 0              @ ../ThirdParty/FreeRTOS/Source/stream_buffer.c:758:24
	ldr	r1, [sp, #12]
.Ltmp313:
	.loc	5 758 6                         @ ../ThirdParty/FreeRTOS/Source/stream_buffer.c:758:6
	cmp	r0, r1
	bls	.LBB14_16
	b	.LBB14_10
.LBB14_10:
.Ltmp314:
	.loc	5 760 47 is_stmt 1              @ ../ThirdParty/FreeRTOS/Source/stream_buffer.c:760:47
	ldr	r0, [sp, #24]
	.loc	5 760 63 is_stmt 0              @ ../ThirdParty/FreeRTOS/Source/stream_buffer.c:760:63
	ldr	r1, [sp, #36]
	.loc	5 760 73                        @ ../ThirdParty/FreeRTOS/Source/stream_buffer.c:760:73
	ldr	r2, [sp, #32]
	.loc	5 760 93                        @ ../ThirdParty/FreeRTOS/Source/stream_buffer.c:760:93
	ldr	r3, [sp, #16]
	.loc	5 760 110                       @ ../ThirdParty/FreeRTOS/Source/stream_buffer.c:760:110
	ldr.w	r12, [sp, #12]
	.loc	5 760 21                        @ ../ThirdParty/FreeRTOS/Source/stream_buffer.c:760:21
	mov	lr, sp
	str.w	r12, [lr]
	bl	prvReadMessageFromBuffer
	.loc	5 760 19                        @ ../ThirdParty/FreeRTOS/Source/stream_buffer.c:760:19
	str	r0, [sp, #20]
.Ltmp315:
	.loc	5 763 7 is_stmt 1               @ ../ThirdParty/FreeRTOS/Source/stream_buffer.c:763:7
	ldr	r0, [sp, #20]
.Ltmp316:
	.loc	5 763 7 is_stmt 0               @ ../ThirdParty/FreeRTOS/Source/stream_buffer.c:763:7
	cbz	r0, .LBB14_14
	b	.LBB14_11
.LBB14_11:
.Ltmp317:
	.loc	3 215 2 is_stmt 1               @ ../ThirdParty/FreeRTOS/Source/portable/GCC/ARM_CM4F\portmacro.h:215:2
	@APP
	mrs	r1, basepri
	mov.w	r0, #80
	msr	basepri, r0
	isb	sy
	dsb	sy

	@NO_APP
	str	r1, [sp, #56]
	str	r0, [sp, #52]
	.loc	3 227 9                         @ ../ThirdParty/FreeRTOS/Source/portable/GCC/ARM_CM4F\portmacro.h:227:9
	ldr	r0, [sp, #56]
.Ltmp318:
	.loc	5 765 4                         @ ../ThirdParty/FreeRTOS/Source/stream_buffer.c:765:4
	str	r0, [sp, #8]
.Ltmp319:
	.loc	5 765 4 is_stmt 0               @ ../ThirdParty/FreeRTOS/Source/stream_buffer.c:765:4
	ldr	r0, [sp, #24]
	ldr	r0, [r0, #20]
.Ltmp320:
	.loc	5 765 4                         @ ../ThirdParty/FreeRTOS/Source/stream_buffer.c:765:4
	cbz	r0, .LBB14_13
	b	.LBB14_12
.LBB14_12:
.Ltmp321:
	.loc	5 765 4                         @ ../ThirdParty/FreeRTOS/Source/stream_buffer.c:765:4
	ldr	r0, [sp, #24]
	ldr	r0, [r0, #20]
	ldr	r1, [sp, #28]
	mov	r2, sp
	str	r1, [r2]
	movs	r3, #0
	str	r3, [sp, #4]                    @ 4-byte Spill
	mov	r1, r3
	mov	r2, r3
	bl	xTaskGenericNotifyFromISR
                                        @ kill: def $r1 killed $r0
	ldr	r0, [sp, #4]                    @ 4-byte Reload
	ldr	r1, [sp, #24]
	str	r0, [r1, #20]
	b	.LBB14_13
.Ltmp322:
.LBB14_13:
	.loc	5 765 4                         @ ../ThirdParty/FreeRTOS/Source/stream_buffer.c:765:4
	ldr	r0, [sp, #8]
	str	r0, [sp, #60]
.Ltmp323:
	.loc	3 235 32 is_stmt 1              @ ../ThirdParty/FreeRTOS/Source/portable/GCC/ARM_CM4F\portmacro.h:235:32
	ldr	r0, [sp, #60]
	.loc	3 233 2                         @ ../ThirdParty/FreeRTOS/Source/portable/GCC/ARM_CM4F\portmacro.h:233:2
	@APP
	msr	basepri, r0
	@NO_APP
.Ltmp324:
	.loc	5 766 3                         @ ../ThirdParty/FreeRTOS/Source/stream_buffer.c:766:3
	b	.LBB14_15
.Ltmp325:
.LBB14_14:
	.loc	5 0 3 is_stmt 0                 @ ../ThirdParty/FreeRTOS/Source/stream_buffer.c:0:3
	b	.LBB14_15
.LBB14_15:
	.loc	5 771 2 is_stmt 1               @ ../ThirdParty/FreeRTOS/Source/stream_buffer.c:771:2
	b	.LBB14_17
.Ltmp326:
.LBB14_16:
	.loc	5 0 2 is_stmt 0                 @ ../ThirdParty/FreeRTOS/Source/stream_buffer.c:0:2
	b	.LBB14_17
.LBB14_17:
	.loc	5 779 9 is_stmt 1               @ ../ThirdParty/FreeRTOS/Source/stream_buffer.c:779:9
	ldr	r0, [sp, #20]
	.loc	5 779 2 epilogue_begin is_stmt 0 @ ../ThirdParty/FreeRTOS/Source/stream_buffer.c:779:2
	add	sp, #64
	pop	{r7, pc}
.Ltmp327:
.Lfunc_end14:
	.size	xStreamBufferReceiveFromISR, .Lfunc_end14-xStreamBufferReceiveFromISR
	.cfi_endproc
	.cantunwind
	.fnend
                                        @ -- End function
	.section	.text.xStreamBufferIsEmpty,"ax",%progbits
	.hidden	xStreamBufferIsEmpty            @ -- Begin function xStreamBufferIsEmpty
	.globl	xStreamBufferIsEmpty
	.p2align	2
	.type	xStreamBufferIsEmpty,%function
	.code	16                              @ @xStreamBufferIsEmpty
	.thumb_func
xStreamBufferIsEmpty:
.Lfunc_begin15:
	.loc	5 836 0 is_stmt 1               @ ../ThirdParty/FreeRTOS/Source/stream_buffer.c:836:0
	.fnstart
	.cfi_startproc
@ %bb.0:
	.pad	#20
	sub	sp, #20
	.cfi_def_cfa_offset 20
	str	r0, [sp, #12]
.Ltmp328:
	.loc	5 837 47 prologue_end           @ ../ThirdParty/FreeRTOS/Source/stream_buffer.c:837:47
	ldr	r0, [sp, #12]
	.loc	5 837 30 is_stmt 0              @ ../ThirdParty/FreeRTOS/Source/stream_buffer.c:837:30
	str	r0, [sp, #8]
.Ltmp329:
	.loc	5 841 2 is_stmt 1               @ ../ThirdParty/FreeRTOS/Source/stream_buffer.c:841:2
	ldr	r0, [sp, #8]
.Ltmp330:
	.loc	5 841 2 is_stmt 0               @ ../ThirdParty/FreeRTOS/Source/stream_buffer.c:841:2
	cbnz	r0, .LBB15_3
	b	.LBB15_1
.LBB15_1:
.Ltmp331:
	.loc	3 199 2 is_stmt 1               @ ../ThirdParty/FreeRTOS/Source/portable/GCC/ARM_CM4F\portmacro.h:199:2
	@APP
	mov.w	r0, #80
	msr	basepri, r0
	isb	sy
	dsb	sy

	@NO_APP
	str	r0, [sp, #16]
.Ltmp332:
	.loc	5 841 2                         @ ../ThirdParty/FreeRTOS/Source/stream_buffer.c:841:2
	b	.LBB15_2
.LBB15_2:                               @ =>This Inner Loop Header: Depth=1
.Ltmp333:
	.loc	5 841 2 is_stmt 0               @ ../ThirdParty/FreeRTOS/Source/stream_buffer.c:841:2
	b	.LBB15_2
.Ltmp334:
.LBB15_3:
	.loc	5 844 10 is_stmt 1              @ ../ThirdParty/FreeRTOS/Source/stream_buffer.c:844:10
	ldr	r0, [sp, #8]
	.loc	5 844 26 is_stmt 0              @ ../ThirdParty/FreeRTOS/Source/stream_buffer.c:844:26
	ldr	r0, [r0]
	.loc	5 844 8                         @ ../ThirdParty/FreeRTOS/Source/stream_buffer.c:844:8
	str	r0, [sp]
.Ltmp335:
	.loc	5 845 6 is_stmt 1               @ ../ThirdParty/FreeRTOS/Source/stream_buffer.c:845:6
	ldr	r0, [sp, #8]
	.loc	5 845 22 is_stmt 0              @ ../ThirdParty/FreeRTOS/Source/stream_buffer.c:845:22
	ldr	r0, [r0, #4]
	.loc	5 845 31                        @ ../ThirdParty/FreeRTOS/Source/stream_buffer.c:845:31
	ldr	r1, [sp]
.Ltmp336:
	.loc	5 845 6                         @ ../ThirdParty/FreeRTOS/Source/stream_buffer.c:845:6
	cmp	r0, r1
	bne	.LBB15_5
	b	.LBB15_4
.LBB15_4:
	.loc	5 0 6                           @ ../ThirdParty/FreeRTOS/Source/stream_buffer.c:0:6
	movs	r0, #1
.Ltmp337:
	.loc	5 847 11 is_stmt 1              @ ../ThirdParty/FreeRTOS/Source/stream_buffer.c:847:11
	str	r0, [sp, #4]
	.loc	5 848 2                         @ ../ThirdParty/FreeRTOS/Source/stream_buffer.c:848:2
	b	.LBB15_6
.Ltmp338:
.LBB15_5:
	.loc	5 0 2 is_stmt 0                 @ ../ThirdParty/FreeRTOS/Source/stream_buffer.c:0:2
	movs	r0, #0
.Ltmp339:
	.loc	5 851 11 is_stmt 1              @ ../ThirdParty/FreeRTOS/Source/stream_buffer.c:851:11
	str	r0, [sp, #4]
	b	.LBB15_6
.Ltmp340:
.LBB15_6:
	.loc	5 854 9                         @ ../ThirdParty/FreeRTOS/Source/stream_buffer.c:854:9
	ldr	r0, [sp, #4]
	.loc	5 854 2 epilogue_begin is_stmt 0 @ ../ThirdParty/FreeRTOS/Source/stream_buffer.c:854:2
	add	sp, #20
	bx	lr
.Ltmp341:
.Lfunc_end15:
	.size	xStreamBufferIsEmpty, .Lfunc_end15-xStreamBufferIsEmpty
	.cfi_endproc
	.cantunwind
	.fnend
                                        @ -- End function
	.section	.text.xStreamBufferIsFull,"ax",%progbits
	.hidden	xStreamBufferIsFull             @ -- Begin function xStreamBufferIsFull
	.globl	xStreamBufferIsFull
	.p2align	2
	.type	xStreamBufferIsFull,%function
	.code	16                              @ @xStreamBufferIsFull
	.thumb_func
xStreamBufferIsFull:
.Lfunc_begin16:
	.loc	5 859 0 is_stmt 1               @ ../ThirdParty/FreeRTOS/Source/stream_buffer.c:859:0
	.fnstart
	.cfi_startproc
@ %bb.0:
	.save	{r7, lr}
	push	{r7, lr}
	.cfi_def_cfa_offset 8
	.cfi_offset lr, -4
	.cfi_offset r7, -8
	.pad	#24
	sub	sp, #24
	.cfi_def_cfa_offset 32
	str	r0, [sp, #16]
.Ltmp342:
	.loc	5 862 47 prologue_end           @ ../ThirdParty/FreeRTOS/Source/stream_buffer.c:862:47
	ldr	r0, [sp, #16]
	.loc	5 862 30 is_stmt 0              @ ../ThirdParty/FreeRTOS/Source/stream_buffer.c:862:30
	str	r0, [sp, #4]
.Ltmp343:
	.loc	5 864 2 is_stmt 1               @ ../ThirdParty/FreeRTOS/Source/stream_buffer.c:864:2
	ldr	r0, [sp, #4]
.Ltmp344:
	.loc	5 864 2 is_stmt 0               @ ../ThirdParty/FreeRTOS/Source/stream_buffer.c:864:2
	cbnz	r0, .LBB16_3
	b	.LBB16_1
.LBB16_1:
.Ltmp345:
	.loc	3 199 2 is_stmt 1               @ ../ThirdParty/FreeRTOS/Source/portable/GCC/ARM_CM4F\portmacro.h:199:2
	@APP
	mov.w	r0, #80
	msr	basepri, r0
	isb	sy
	dsb	sy

	@NO_APP
	str	r0, [sp, #20]
.Ltmp346:
	.loc	5 864 2                         @ ../ThirdParty/FreeRTOS/Source/stream_buffer.c:864:2
	b	.LBB16_2
.LBB16_2:                               @ =>This Inner Loop Header: Depth=1
.Ltmp347:
	.loc	5 864 2 is_stmt 0               @ ../ThirdParty/FreeRTOS/Source/stream_buffer.c:864:2
	b	.LBB16_2
.Ltmp348:
.LBB16_3:
	.loc	5 870 8 is_stmt 1               @ ../ThirdParty/FreeRTOS/Source/stream_buffer.c:870:8
	ldr	r0, [sp, #4]
	ldrb	r0, [r0, #28]
.Ltmp349:
	.loc	5 870 6 is_stmt 0               @ ../ThirdParty/FreeRTOS/Source/stream_buffer.c:870:6
	lsls	r0, r0, #31
	cbz	r0, .LBB16_5
	b	.LBB16_4
.LBB16_4:
	.loc	5 0 6                           @ ../ThirdParty/FreeRTOS/Source/stream_buffer.c:0:6
	movs	r0, #4
.Ltmp350:
	.loc	5 872 30 is_stmt 1              @ ../ThirdParty/FreeRTOS/Source/stream_buffer.c:872:30
	str	r0, [sp, #8]
	.loc	5 873 2                         @ ../ThirdParty/FreeRTOS/Source/stream_buffer.c:873:2
	b	.LBB16_6
.Ltmp351:
.LBB16_5:
	.loc	5 0 2 is_stmt 0                 @ ../ThirdParty/FreeRTOS/Source/stream_buffer.c:0:2
	movs	r0, #0
.Ltmp352:
	.loc	5 876 30 is_stmt 1              @ ../ThirdParty/FreeRTOS/Source/stream_buffer.c:876:30
	str	r0, [sp, #8]
	b	.LBB16_6
.Ltmp353:
.LBB16_6:
	.loc	5 880 36                        @ ../ThirdParty/FreeRTOS/Source/stream_buffer.c:880:36
	ldr	r0, [sp, #16]
	.loc	5 880 6 is_stmt 0               @ ../ThirdParty/FreeRTOS/Source/stream_buffer.c:880:6
	bl	xStreamBufferSpacesAvailable
	.loc	5 880 55                        @ ../ThirdParty/FreeRTOS/Source/stream_buffer.c:880:55
	ldr	r1, [sp, #8]
.Ltmp354:
	.loc	5 880 6                         @ ../ThirdParty/FreeRTOS/Source/stream_buffer.c:880:6
	cmp	r0, r1
	bhi	.LBB16_8
	b	.LBB16_7
.LBB16_7:
	.loc	5 0 6                           @ ../ThirdParty/FreeRTOS/Source/stream_buffer.c:0:6
	movs	r0, #1
.Ltmp355:
	.loc	5 882 11 is_stmt 1              @ ../ThirdParty/FreeRTOS/Source/stream_buffer.c:882:11
	str	r0, [sp, #12]
	.loc	5 883 2                         @ ../ThirdParty/FreeRTOS/Source/stream_buffer.c:883:2
	b	.LBB16_9
.Ltmp356:
.LBB16_8:
	.loc	5 0 2 is_stmt 0                 @ ../ThirdParty/FreeRTOS/Source/stream_buffer.c:0:2
	movs	r0, #0
.Ltmp357:
	.loc	5 886 11 is_stmt 1              @ ../ThirdParty/FreeRTOS/Source/stream_buffer.c:886:11
	str	r0, [sp, #12]
	b	.LBB16_9
.Ltmp358:
.LBB16_9:
	.loc	5 889 9                         @ ../ThirdParty/FreeRTOS/Source/stream_buffer.c:889:9
	ldr	r0, [sp, #12]
	.loc	5 889 2 epilogue_begin is_stmt 0 @ ../ThirdParty/FreeRTOS/Source/stream_buffer.c:889:2
	add	sp, #24
	pop	{r7, pc}
.Ltmp359:
.Lfunc_end16:
	.size	xStreamBufferIsFull, .Lfunc_end16-xStreamBufferIsFull
	.cfi_endproc
	.cantunwind
	.fnend
                                        @ -- End function
	.section	.text.xStreamBufferSendCompletedFromISR,"ax",%progbits
	.hidden	xStreamBufferSendCompletedFromISR @ -- Begin function xStreamBufferSendCompletedFromISR
	.globl	xStreamBufferSendCompletedFromISR
	.p2align	2
	.type	xStreamBufferSendCompletedFromISR,%function
	.code	16                              @ @xStreamBufferSendCompletedFromISR
	.thumb_func
xStreamBufferSendCompletedFromISR:
.Lfunc_begin17:
	.loc	5 894 0 is_stmt 1               @ ../ThirdParty/FreeRTOS/Source/stream_buffer.c:894:0
	.fnstart
	.cfi_startproc
@ %bb.0:
	.save	{r7, lr}
	push	{r7, lr}
	.cfi_def_cfa_offset 8
	.cfi_offset lr, -4
	.cfi_offset r7, -8
	.pad	#48
	sub	sp, #48
	.cfi_def_cfa_offset 56
	str	r0, [sp, #28]
	str	r1, [sp, #24]
.Ltmp360:
	.loc	5 895 41 prologue_end           @ ../ThirdParty/FreeRTOS/Source/stream_buffer.c:895:41
	ldr	r0, [sp, #28]
	.loc	5 895 24 is_stmt 0              @ ../ThirdParty/FreeRTOS/Source/stream_buffer.c:895:24
	str	r0, [sp, #20]
.Ltmp361:
	.loc	5 899 2 is_stmt 1               @ ../ThirdParty/FreeRTOS/Source/stream_buffer.c:899:2
	ldr	r0, [sp, #20]
.Ltmp362:
	.loc	5 899 2 is_stmt 0               @ ../ThirdParty/FreeRTOS/Source/stream_buffer.c:899:2
	cbnz	r0, .LBB17_3
	b	.LBB17_1
.LBB17_1:
.Ltmp363:
	.loc	3 199 2 is_stmt 1               @ ../ThirdParty/FreeRTOS/Source/portable/GCC/ARM_CM4F\portmacro.h:199:2
	@APP
	mov.w	r0, #80
	msr	basepri, r0
	isb	sy
	dsb	sy

	@NO_APP
	str	r0, [sp, #32]
.Ltmp364:
	.loc	5 899 2                         @ ../ThirdParty/FreeRTOS/Source/stream_buffer.c:899:2
	b	.LBB17_2
.LBB17_2:                               @ =>This Inner Loop Header: Depth=1
.Ltmp365:
	.loc	5 899 2 is_stmt 0               @ ../ThirdParty/FreeRTOS/Source/stream_buffer.c:899:2
	b	.LBB17_2
.Ltmp366:
.LBB17_3:
	.loc	3 215 2 is_stmt 1               @ ../ThirdParty/FreeRTOS/Source/portable/GCC/ARM_CM4F\portmacro.h:215:2
	@APP
	mrs	r1, basepri
	mov.w	r0, #80
	msr	basepri, r0
	isb	sy
	dsb	sy

	@NO_APP
	str	r1, [sp, #40]
	str	r0, [sp, #36]
	.loc	3 227 9                         @ ../ThirdParty/FreeRTOS/Source/portable/GCC/ARM_CM4F\portmacro.h:227:9
	ldr	r0, [sp, #40]
.Ltmp367:
	.loc	5 901 25                        @ ../ThirdParty/FreeRTOS/Source/stream_buffer.c:901:25
	str	r0, [sp, #12]
.Ltmp368:
	.loc	5 903 9                         @ ../ThirdParty/FreeRTOS/Source/stream_buffer.c:903:9
	ldr	r0, [sp, #20]
	.loc	5 903 27 is_stmt 0              @ ../ThirdParty/FreeRTOS/Source/stream_buffer.c:903:27
	ldr	r0, [r0, #16]
.Ltmp369:
	.loc	5 903 7                         @ ../ThirdParty/FreeRTOS/Source/stream_buffer.c:903:7
	cbz	r0, .LBB17_5
	b	.LBB17_4
.LBB17_4:
.Ltmp370:
	.loc	5 905 13 is_stmt 1              @ ../ThirdParty/FreeRTOS/Source/stream_buffer.c:905:13
	ldr	r0, [sp, #20]
	ldr	r0, [r0, #16]
	ldr	r1, [sp, #24]
	mov	r2, sp
	str	r1, [r2]
	movs	r3, #0
	str	r3, [sp, #8]                    @ 4-byte Spill
	mov	r1, r3
	mov	r2, r3
	bl	xTaskGenericNotifyFromISR
                                        @ kill: def $r1 killed $r0
	.loc	5 909 6                         @ ../ThirdParty/FreeRTOS/Source/stream_buffer.c:909:6
	ldr	r0, [sp, #8]                    @ 4-byte Reload
	ldr	r1, [sp, #20]
	.loc	5 909 46 is_stmt 0              @ ../ThirdParty/FreeRTOS/Source/stream_buffer.c:909:46
	str	r0, [r1, #16]
	movs	r0, #1
	.loc	5 910 12 is_stmt 1              @ ../ThirdParty/FreeRTOS/Source/stream_buffer.c:910:12
	str	r0, [sp, #16]
	.loc	5 911 3                         @ ../ThirdParty/FreeRTOS/Source/stream_buffer.c:911:3
	b	.LBB17_6
.Ltmp371:
.LBB17_5:
	.loc	5 0 3 is_stmt 0                 @ ../ThirdParty/FreeRTOS/Source/stream_buffer.c:0:3
	movs	r0, #0
.Ltmp372:
	.loc	5 914 12 is_stmt 1              @ ../ThirdParty/FreeRTOS/Source/stream_buffer.c:914:12
	str	r0, [sp, #16]
	b	.LBB17_6
.Ltmp373:
.LBB17_6:
	.loc	5 917 2                         @ ../ThirdParty/FreeRTOS/Source/stream_buffer.c:917:2
	ldr	r0, [sp, #12]
	str	r0, [sp, #44]
.Ltmp374:
	.loc	3 235 32                        @ ../ThirdParty/FreeRTOS/Source/portable/GCC/ARM_CM4F\portmacro.h:235:32
	ldr	r0, [sp, #44]
	.loc	3 233 2                         @ ../ThirdParty/FreeRTOS/Source/portable/GCC/ARM_CM4F\portmacro.h:233:2
	@APP
	msr	basepri, r0
	@NO_APP
.Ltmp375:
	.loc	5 919 9                         @ ../ThirdParty/FreeRTOS/Source/stream_buffer.c:919:9
	ldr	r0, [sp, #16]
	.loc	5 919 2 epilogue_begin is_stmt 0 @ ../ThirdParty/FreeRTOS/Source/stream_buffer.c:919:2
	add	sp, #48
	pop	{r7, pc}
.Ltmp376:
.Lfunc_end17:
	.size	xStreamBufferSendCompletedFromISR, .Lfunc_end17-xStreamBufferSendCompletedFromISR
	.cfi_endproc
	.cantunwind
	.fnend
                                        @ -- End function
	.section	.text.xStreamBufferReceiveCompletedFromISR,"ax",%progbits
	.hidden	xStreamBufferReceiveCompletedFromISR @ -- Begin function xStreamBufferReceiveCompletedFromISR
	.globl	xStreamBufferReceiveCompletedFromISR
	.p2align	2
	.type	xStreamBufferReceiveCompletedFromISR,%function
	.code	16                              @ @xStreamBufferReceiveCompletedFromISR
	.thumb_func
xStreamBufferReceiveCompletedFromISR:
.Lfunc_begin18:
	.loc	5 924 0 is_stmt 1               @ ../ThirdParty/FreeRTOS/Source/stream_buffer.c:924:0
	.fnstart
	.cfi_startproc
@ %bb.0:
	.save	{r7, lr}
	push	{r7, lr}
	.cfi_def_cfa_offset 8
	.cfi_offset lr, -4
	.cfi_offset r7, -8
	.pad	#48
	sub	sp, #48
	.cfi_def_cfa_offset 56
	str	r0, [sp, #28]
	str	r1, [sp, #24]
.Ltmp377:
	.loc	5 925 41 prologue_end           @ ../ThirdParty/FreeRTOS/Source/stream_buffer.c:925:41
	ldr	r0, [sp, #28]
	.loc	5 925 24 is_stmt 0              @ ../ThirdParty/FreeRTOS/Source/stream_buffer.c:925:24
	str	r0, [sp, #20]
.Ltmp378:
	.loc	5 929 2 is_stmt 1               @ ../ThirdParty/FreeRTOS/Source/stream_buffer.c:929:2
	ldr	r0, [sp, #20]
.Ltmp379:
	.loc	5 929 2 is_stmt 0               @ ../ThirdParty/FreeRTOS/Source/stream_buffer.c:929:2
	cbnz	r0, .LBB18_3
	b	.LBB18_1
.LBB18_1:
.Ltmp380:
	.loc	3 199 2 is_stmt 1               @ ../ThirdParty/FreeRTOS/Source/portable/GCC/ARM_CM4F\portmacro.h:199:2
	@APP
	mov.w	r0, #80
	msr	basepri, r0
	isb	sy
	dsb	sy

	@NO_APP
	str	r0, [sp, #32]
.Ltmp381:
	.loc	5 929 2                         @ ../ThirdParty/FreeRTOS/Source/stream_buffer.c:929:2
	b	.LBB18_2
.LBB18_2:                               @ =>This Inner Loop Header: Depth=1
.Ltmp382:
	.loc	5 929 2 is_stmt 0               @ ../ThirdParty/FreeRTOS/Source/stream_buffer.c:929:2
	b	.LBB18_2
.Ltmp383:
.LBB18_3:
	.loc	3 215 2 is_stmt 1               @ ../ThirdParty/FreeRTOS/Source/portable/GCC/ARM_CM4F\portmacro.h:215:2
	@APP
	mrs	r1, basepri
	mov.w	r0, #80
	msr	basepri, r0
	isb	sy
	dsb	sy

	@NO_APP
	str	r1, [sp, #40]
	str	r0, [sp, #36]
	.loc	3 227 9                         @ ../ThirdParty/FreeRTOS/Source/portable/GCC/ARM_CM4F\portmacro.h:227:9
	ldr	r0, [sp, #40]
.Ltmp384:
	.loc	5 931 25                        @ ../ThirdParty/FreeRTOS/Source/stream_buffer.c:931:25
	str	r0, [sp, #12]
.Ltmp385:
	.loc	5 933 9                         @ ../ThirdParty/FreeRTOS/Source/stream_buffer.c:933:9
	ldr	r0, [sp, #20]
	.loc	5 933 27 is_stmt 0              @ ../ThirdParty/FreeRTOS/Source/stream_buffer.c:933:27
	ldr	r0, [r0, #20]
.Ltmp386:
	.loc	5 933 7                         @ ../ThirdParty/FreeRTOS/Source/stream_buffer.c:933:7
	cbz	r0, .LBB18_5
	b	.LBB18_4
.LBB18_4:
.Ltmp387:
	.loc	5 935 13 is_stmt 1              @ ../ThirdParty/FreeRTOS/Source/stream_buffer.c:935:13
	ldr	r0, [sp, #20]
	ldr	r0, [r0, #20]
	ldr	r1, [sp, #24]
	mov	r2, sp
	str	r1, [r2]
	movs	r3, #0
	str	r3, [sp, #8]                    @ 4-byte Spill
	mov	r1, r3
	mov	r2, r3
	bl	xTaskGenericNotifyFromISR
                                        @ kill: def $r1 killed $r0
	.loc	5 939 6                         @ ../ThirdParty/FreeRTOS/Source/stream_buffer.c:939:6
	ldr	r0, [sp, #8]                    @ 4-byte Reload
	ldr	r1, [sp, #20]
	.loc	5 939 43 is_stmt 0              @ ../ThirdParty/FreeRTOS/Source/stream_buffer.c:939:43
	str	r0, [r1, #20]
	movs	r0, #1
	.loc	5 940 12 is_stmt 1              @ ../ThirdParty/FreeRTOS/Source/stream_buffer.c:940:12
	str	r0, [sp, #16]
	.loc	5 941 3                         @ ../ThirdParty/FreeRTOS/Source/stream_buffer.c:941:3
	b	.LBB18_6
.Ltmp388:
.LBB18_5:
	.loc	5 0 3 is_stmt 0                 @ ../ThirdParty/FreeRTOS/Source/stream_buffer.c:0:3
	movs	r0, #0
.Ltmp389:
	.loc	5 944 12 is_stmt 1              @ ../ThirdParty/FreeRTOS/Source/stream_buffer.c:944:12
	str	r0, [sp, #16]
	b	.LBB18_6
.Ltmp390:
.LBB18_6:
	.loc	5 947 2                         @ ../ThirdParty/FreeRTOS/Source/stream_buffer.c:947:2
	ldr	r0, [sp, #12]
	str	r0, [sp, #44]
.Ltmp391:
	.loc	3 235 32                        @ ../ThirdParty/FreeRTOS/Source/portable/GCC/ARM_CM4F\portmacro.h:235:32
	ldr	r0, [sp, #44]
	.loc	3 233 2                         @ ../ThirdParty/FreeRTOS/Source/portable/GCC/ARM_CM4F\portmacro.h:233:2
	@APP
	msr	basepri, r0
	@NO_APP
.Ltmp392:
	.loc	5 949 9                         @ ../ThirdParty/FreeRTOS/Source/stream_buffer.c:949:9
	ldr	r0, [sp, #16]
	.loc	5 949 2 epilogue_begin is_stmt 0 @ ../ThirdParty/FreeRTOS/Source/stream_buffer.c:949:2
	add	sp, #48
	pop	{r7, pc}
.Ltmp393:
.Lfunc_end18:
	.size	xStreamBufferReceiveCompletedFromISR, .Lfunc_end18-xStreamBufferReceiveCompletedFromISR
	.cfi_endproc
	.cantunwind
	.fnend
                                        @ -- End function
	.section	.text.prvWriteBytesToBuffer,"ax",%progbits
	.p2align	2                               @ -- Begin function prvWriteBytesToBuffer
	.type	prvWriteBytesToBuffer,%function
	.code	16                              @ @prvWriteBytesToBuffer
	.thumb_func
prvWriteBytesToBuffer:
.Lfunc_begin19:
	.loc	5 954 0 is_stmt 1               @ ../ThirdParty/FreeRTOS/Source/stream_buffer.c:954:0
	.fnstart
	.cfi_startproc
@ %bb.0:
	.save	{r7, lr}
	push	{r7, lr}
	.cfi_def_cfa_offset 8
	.cfi_offset lr, -4
	.cfi_offset r7, -8
	.pad	#40
	sub	sp, #40
	.cfi_def_cfa_offset 48
	str	r0, [sp, #24]
	str	r1, [sp, #20]
	str	r2, [sp, #16]
.Ltmp394:
	.loc	5 957 2 prologue_end            @ ../ThirdParty/FreeRTOS/Source/stream_buffer.c:957:2
	ldr	r0, [sp, #16]
.Ltmp395:
	.loc	5 957 2 is_stmt 0               @ ../ThirdParty/FreeRTOS/Source/stream_buffer.c:957:2
	cbnz	r0, .LBB19_3
	b	.LBB19_1
.LBB19_1:
.Ltmp396:
	.loc	3 199 2 is_stmt 1               @ ../ThirdParty/FreeRTOS/Source/portable/GCC/ARM_CM4F\portmacro.h:199:2
	@APP
	mov.w	r0, #80
	msr	basepri, r0
	isb	sy
	dsb	sy

	@NO_APP
	str	r0, [sp, #36]
.Ltmp397:
	.loc	5 957 2                         @ ../ThirdParty/FreeRTOS/Source/stream_buffer.c:957:2
	b	.LBB19_2
.LBB19_2:                               @ =>This Inner Loop Header: Depth=1
.Ltmp398:
	.loc	5 957 2 is_stmt 0               @ ../ThirdParty/FreeRTOS/Source/stream_buffer.c:957:2
	b	.LBB19_2
.Ltmp399:
.LBB19_3:
	.loc	5 959 14 is_stmt 1              @ ../ThirdParty/FreeRTOS/Source/stream_buffer.c:959:14
	ldr	r0, [sp, #24]
	.loc	5 959 30 is_stmt 0              @ ../ThirdParty/FreeRTOS/Source/stream_buffer.c:959:30
	ldr	r0, [r0, #4]
	.loc	5 959 12                        @ ../ThirdParty/FreeRTOS/Source/stream_buffer.c:959:12
	str	r0, [sp, #12]
	.loc	5 964 17 is_stmt 1              @ ../ThirdParty/FreeRTOS/Source/stream_buffer.c:964:17
	ldr	r0, [sp, #24]
	ldr	r0, [r0, #8]
	ldr	r1, [sp, #12]
	subs	r0, r0, r1
	ldr	r1, [sp, #16]
	cmp	r0, r1
	bhs	.LBB19_5
	b	.LBB19_4
.LBB19_4:
	ldr	r0, [sp, #24]
	ldr	r0, [r0, #8]
	ldr	r1, [sp, #12]
	subs	r0, r0, r1
	str	r0, [sp, #4]                    @ 4-byte Spill
	b	.LBB19_6
.LBB19_5:
	ldr	r0, [sp, #16]
	str	r0, [sp, #4]                    @ 4-byte Spill
	b	.LBB19_6
.LBB19_6:
	ldr	r0, [sp, #4]                    @ 4-byte Reload
	.loc	5 964 15 is_stmt 0              @ ../ThirdParty/FreeRTOS/Source/stream_buffer.c:964:15
	str	r0, [sp, #8]
.Ltmp400:
	.loc	5 967 2 is_stmt 1               @ ../ThirdParty/FreeRTOS/Source/stream_buffer.c:967:2
	ldr	r0, [sp, #12]
	ldr	r1, [sp, #8]
	add	r0, r1
	ldr	r1, [sp, #24]
	ldr	r1, [r1, #8]
.Ltmp401:
	.loc	5 967 2 is_stmt 0               @ ../ThirdParty/FreeRTOS/Source/stream_buffer.c:967:2
	cmp	r0, r1
	bls	.LBB19_9
	b	.LBB19_7
.LBB19_7:
.Ltmp402:
	.loc	3 199 2 is_stmt 1               @ ../ThirdParty/FreeRTOS/Source/portable/GCC/ARM_CM4F\portmacro.h:199:2
	@APP
	mov.w	r0, #80
	msr	basepri, r0
	isb	sy
	dsb	sy

	@NO_APP
	str	r0, [sp, #32]
.Ltmp403:
	.loc	5 967 2                         @ ../ThirdParty/FreeRTOS/Source/stream_buffer.c:967:2
	b	.LBB19_8
.LBB19_8:                               @ =>This Inner Loop Header: Depth=1
.Ltmp404:
	.loc	5 967 2 is_stmt 0               @ ../ThirdParty/FreeRTOS/Source/stream_buffer.c:967:2
	b	.LBB19_8
.Ltmp405:
.LBB19_9:
	.loc	5 968 34 is_stmt 1              @ ../ThirdParty/FreeRTOS/Source/stream_buffer.c:968:34
	ldr	r0, [sp, #24]
	.loc	5 968 50 is_stmt 0              @ ../ThirdParty/FreeRTOS/Source/stream_buffer.c:968:50
	ldr	r0, [r0, #24]
	.loc	5 968 61                        @ ../ThirdParty/FreeRTOS/Source/stream_buffer.c:968:61
	ldr	r1, [sp, #12]
	.loc	5 968 34                        @ ../ThirdParty/FreeRTOS/Source/stream_buffer.c:968:34
	add	r0, r1
	.loc	5 968 95                        @ ../ThirdParty/FreeRTOS/Source/stream_buffer.c:968:95
	ldr	r1, [sp, #20]
	.loc	5 968 104                       @ ../ThirdParty/FreeRTOS/Source/stream_buffer.c:968:104
	ldr	r2, [sp, #8]
	.loc	5 968 11                        @ ../ThirdParty/FreeRTOS/Source/stream_buffer.c:968:11
	bl	__aeabi_memcpy
.Ltmp406:
	.loc	5 972 6 is_stmt 1               @ ../ThirdParty/FreeRTOS/Source/stream_buffer.c:972:6
	ldr	r0, [sp, #16]
	.loc	5 972 15 is_stmt 0              @ ../ThirdParty/FreeRTOS/Source/stream_buffer.c:972:15
	ldr	r1, [sp, #8]
.Ltmp407:
	.loc	5 972 6                         @ ../ThirdParty/FreeRTOS/Source/stream_buffer.c:972:6
	cmp	r0, r1
	bls	.LBB19_14
	b	.LBB19_10
.LBB19_10:
.Ltmp408:
	.loc	5 975 3 is_stmt 1               @ ../ThirdParty/FreeRTOS/Source/stream_buffer.c:975:3
	ldr	r0, [sp, #16]
	ldr	r1, [sp, #8]
	subs	r0, r0, r1
	ldr	r1, [sp, #24]
	ldr	r1, [r1, #8]
.Ltmp409:
	.loc	5 975 3 is_stmt 0               @ ../ThirdParty/FreeRTOS/Source/stream_buffer.c:975:3
	cmp	r0, r1
	bls	.LBB19_13
	b	.LBB19_11
.LBB19_11:
.Ltmp410:
	.loc	3 199 2 is_stmt 1               @ ../ThirdParty/FreeRTOS/Source/portable/GCC/ARM_CM4F\portmacro.h:199:2
	@APP
	mov.w	r0, #80
	msr	basepri, r0
	isb	sy
	dsb	sy

	@NO_APP
	str	r0, [sp, #28]
.Ltmp411:
	.loc	5 975 3                         @ ../ThirdParty/FreeRTOS/Source/stream_buffer.c:975:3
	b	.LBB19_12
.LBB19_12:                              @ =>This Inner Loop Header: Depth=1
.Ltmp412:
	.loc	5 975 3 is_stmt 0               @ ../ThirdParty/FreeRTOS/Source/stream_buffer.c:975:3
	b	.LBB19_12
.Ltmp413:
.LBB19_13:
	.loc	5 976 31 is_stmt 1              @ ../ThirdParty/FreeRTOS/Source/stream_buffer.c:976:31
	ldr	r0, [sp, #24]
	.loc	5 976 47 is_stmt 0              @ ../ThirdParty/FreeRTOS/Source/stream_buffer.c:976:47
	ldr	r0, [r0, #24]
	.loc	5 976 78                        @ ../ThirdParty/FreeRTOS/Source/stream_buffer.c:976:78
	ldr	r1, [sp, #20]
	.loc	5 976 87                        @ ../ThirdParty/FreeRTOS/Source/stream_buffer.c:976:87
	ldr	r3, [sp, #8]
	.loc	5 976 78                        @ ../ThirdParty/FreeRTOS/Source/stream_buffer.c:976:78
	add	r1, r3
	.loc	5 976 105                       @ ../ThirdParty/FreeRTOS/Source/stream_buffer.c:976:105
	ldr	r2, [sp, #16]
	.loc	5 976 112                       @ ../ThirdParty/FreeRTOS/Source/stream_buffer.c:976:112
	subs	r2, r2, r3
	.loc	5 976 12                        @ ../ThirdParty/FreeRTOS/Source/stream_buffer.c:976:12
	bl	__aeabi_memcpy
	.loc	5 977 2 is_stmt 1               @ ../ThirdParty/FreeRTOS/Source/stream_buffer.c:977:2
	b	.LBB19_15
.Ltmp414:
.LBB19_14:
	.loc	5 0 2 is_stmt 0                 @ ../ThirdParty/FreeRTOS/Source/stream_buffer.c:0:2
	b	.LBB19_15
.LBB19_15:
	.loc	5 983 15 is_stmt 1              @ ../ThirdParty/FreeRTOS/Source/stream_buffer.c:983:15
	ldr	r1, [sp, #16]
	.loc	5 983 12 is_stmt 0              @ ../ThirdParty/FreeRTOS/Source/stream_buffer.c:983:12
	ldr	r0, [sp, #12]
	add	r0, r1
	str	r0, [sp, #12]
.Ltmp415:
	.loc	5 984 6 is_stmt 1               @ ../ThirdParty/FreeRTOS/Source/stream_buffer.c:984:6
	ldr	r0, [sp, #12]
	.loc	5 984 19 is_stmt 0              @ ../ThirdParty/FreeRTOS/Source/stream_buffer.c:984:19
	ldr	r1, [sp, #24]
	.loc	5 984 35                        @ ../ThirdParty/FreeRTOS/Source/stream_buffer.c:984:35
	ldr	r1, [r1, #8]
.Ltmp416:
	.loc	5 984 6                         @ ../ThirdParty/FreeRTOS/Source/stream_buffer.c:984:6
	cmp	r0, r1
	blo	.LBB19_17
	b	.LBB19_16
.LBB19_16:
.Ltmp417:
	.loc	5 986 16 is_stmt 1              @ ../ThirdParty/FreeRTOS/Source/stream_buffer.c:986:16
	ldr	r0, [sp, #24]
	.loc	5 986 32 is_stmt 0              @ ../ThirdParty/FreeRTOS/Source/stream_buffer.c:986:32
	ldr	r1, [r0, #8]
	.loc	5 986 13                        @ ../ThirdParty/FreeRTOS/Source/stream_buffer.c:986:13
	ldr	r0, [sp, #12]
	subs	r0, r0, r1
	str	r0, [sp, #12]
	.loc	5 987 2 is_stmt 1               @ ../ThirdParty/FreeRTOS/Source/stream_buffer.c:987:2
	b	.LBB19_18
.Ltmp418:
.LBB19_17:
	.loc	5 0 2 is_stmt 0                 @ ../ThirdParty/FreeRTOS/Source/stream_buffer.c:0:2
	b	.LBB19_18
.LBB19_18:
	.loc	5 993 26 is_stmt 1              @ ../ThirdParty/FreeRTOS/Source/stream_buffer.c:993:26
	ldr	r0, [sp, #12]
	.loc	5 993 2 is_stmt 0               @ ../ThirdParty/FreeRTOS/Source/stream_buffer.c:993:2
	ldr	r1, [sp, #24]
	.loc	5 993 24                        @ ../ThirdParty/FreeRTOS/Source/stream_buffer.c:993:24
	str	r0, [r1, #4]
	.loc	5 995 9 is_stmt 1               @ ../ThirdParty/FreeRTOS/Source/stream_buffer.c:995:9
	ldr	r0, [sp, #16]
	.loc	5 995 2 epilogue_begin is_stmt 0 @ ../ThirdParty/FreeRTOS/Source/stream_buffer.c:995:2
	add	sp, #40
	pop	{r7, pc}
.Ltmp419:
.Lfunc_end19:
	.size	prvWriteBytesToBuffer, .Lfunc_end19-prvWriteBytesToBuffer
	.cfi_endproc
	.cantunwind
	.fnend
                                        @ -- End function
	.file	6 "D:\\ikingtec\\Robot\\ODrive\\Firmware\\MDK-ARM" "../ThirdParty/FreeRTOS/Source/include\\stream_buffer.h"
	.section	".note.GNU-stack","",%progbits
	.eabi_attribute	30, 6	@ Tag_ABI_optimization_goals
	.ARM_attribute	16, 1	@ Tag_AV_eba