	.text
	.syntax unified
	.eabi_attribute	67, "2.09"	@ Tag_conformance
	.cpu	cortex-m4
	.eabi_attribute	6, 13	@ Tag_CPU_arch
	.eabi_attribute	7, 77	@ Tag_CPU_arch_profile
	.eabi_attribute	8, 0	@ Tag_ARM_ISA_use
	.eabi_attribute	9, 2	@ Tag_THUMB_ISA_use
	.fpu	fpv4-sp-d16
	.eabi_attribute	27, 1	@ Tag_ABI_HardFP_use
	.eabi_attribute	36, 1	@ Tag_FP_HP_extension
	.eabi_attribute	34, 1	@ Tag_CPU_unaligned_access
	.eabi_attribute	17, 1	@ Tag_ABI_PCS_GOT_use
	.eabi_attribute	20, 2	@ Tag_ABI_FP_denormal
	.eabi_attribute	21, 0	@ Tag_ABI_FP_exceptions
	.eabi_attribute	23, 1	@ Tag_ABI_FP_number_model
	.eabi_attribute	24, 1	@ Tag_ABI_align_needed
	.eabi_attribute	25, 1	@ Tag_ABI_align_preserved
	.eabi_attribute	28, 1	@ Tag_ABI_VFP_args
	.eabi_attribute	38, 1	@ Tag_ABI_FP_16bit_format
	.eabi_attribute	18, 2	@ Tag_ABI_PCS_wchar_t
	.eabi_attribute	26, 1	@ Tag_ABI_enum_size
	.eabi_attribute	14, 0	@ Tag_ABI_PCS_R9_use
	.file	"tasks.c"
	.file	1 "D:\\Embed\\MDK\\MDK\\ARM\\ARMCompilerV621\\Bin\\..\\include" "stdint.h"
	.file	2 "D:\\ikingtec\\Robot\\ODrive\\Firmware\\MDK-ARM" "../ThirdParty/FreeRTOS/Source/portable/GCC/ARM_CM4F\\portmacro.h"
	.file	3 "D:\\ikingtec\\Robot\\ODrive\\Firmware\\MDK-ARM" "../ThirdParty/FreeRTOS/Source/tasks.c"
	.file	4 "D:\\ikingtec\\Robot\\ODrive\\Firmware\\MDK-ARM" "../ThirdParty/FreeRTOS/Source/include/list.h"
	.file	5 "D:\\ikingtec\\Robot\\ODrive\\Firmware\\MDK-ARM" "../ThirdParty/FreeRTOS/Source/include\\task.h"
	.file	6 "D:\\Embed\\MDK\\MDK\\ARM\\ARMCompilerV621\\Bin\\..\\include" "stdlib.h"
	.section	.text.xTaskCreate,"ax",%progbits
	.hidden	xTaskCreate                     @ -- Begin function xTaskCreate
	.globl	xTaskCreate
	.p2align	2
	.type	xTaskCreate,%function
	.code	16                              @ @xTaskCreate
	.thumb_func
xTaskCreate:
.Lfunc_begin0:
	.loc	3 736 0                         @ ../ThirdParty/FreeRTOS/Source/tasks.c:736:0
	.fnstart
	.cfi_sections .debug_frame
	.cfi_startproc
@ %bb.0:
	.save	{r4, r5, r6, lr}
	push	{r4, r5, r6, lr}
	.cfi_def_cfa_offset 16
	.cfi_offset lr, -4
	.cfi_offset r6, -8
	.cfi_offset r5, -12
	.cfi_offset r4, -16
	.pad	#48
	sub	sp, #48
	.cfi_def_cfa_offset 64
	ldr.w	r12, [sp, #68]
	ldr.w	r12, [sp, #64]
                                        @ kill: def $r12 killed $r2
	str	r0, [sp, #44]
	str	r1, [sp, #40]
	strh.w	r2, [sp, #38]
	str	r3, [sp, #32]
.Ltmp0:
	.loc	3 770 43 prologue_end           @ ../ThirdParty/FreeRTOS/Source/tasks.c:770:43
	ldrh.w	r0, [sp, #38]
	.loc	3 770 58 is_stmt 0              @ ../ThirdParty/FreeRTOS/Source/tasks.c:770:58
	lsls	r0, r0, #2
	.loc	3 770 14                        @ ../ThirdParty/FreeRTOS/Source/tasks.c:770:14
	bl	pvPortMalloc
	.loc	3 770 12                        @ ../ThirdParty/FreeRTOS/Source/tasks.c:770:12
	str	r0, [sp, #20]
.Ltmp1:
	.loc	3 772 8 is_stmt 1               @ ../ThirdParty/FreeRTOS/Source/tasks.c:772:8
	ldr	r0, [sp, #20]
.Ltmp2:
	.loc	3 772 8 is_stmt 0               @ ../ThirdParty/FreeRTOS/Source/tasks.c:772:8
	cbz	r0, .LBB0_5
	b	.LBB0_1
.LBB0_1:
	.loc	3 0 8                           @ ../ThirdParty/FreeRTOS/Source/tasks.c:0:8
	movs	r0, #84
.Ltmp3:
	.loc	3 775 28 is_stmt 1              @ ../ThirdParty/FreeRTOS/Source/tasks.c:775:28
	bl	pvPortMalloc
	.loc	3 775 14 is_stmt 0              @ ../ThirdParty/FreeRTOS/Source/tasks.c:775:14
	str	r0, [sp, #28]
.Ltmp4:
	.loc	3 777 9 is_stmt 1               @ ../ThirdParty/FreeRTOS/Source/tasks.c:777:9
	ldr	r0, [sp, #28]
.Ltmp5:
	.loc	3 777 9 is_stmt 0               @ ../ThirdParty/FreeRTOS/Source/tasks.c:777:9
	cbz	r0, .LBB0_3
	b	.LBB0_2
.LBB0_2:
.Ltmp6:
	.loc	3 780 26 is_stmt 1              @ ../ThirdParty/FreeRTOS/Source/tasks.c:780:26
	ldr	r0, [sp, #20]
	.loc	3 780 6 is_stmt 0               @ ../ThirdParty/FreeRTOS/Source/tasks.c:780:6
	ldr	r1, [sp, #28]
	.loc	3 780 24                        @ ../ThirdParty/FreeRTOS/Source/tasks.c:780:24
	str	r0, [r1, #48]
	.loc	3 781 5 is_stmt 1               @ ../ThirdParty/FreeRTOS/Source/tasks.c:781:5
	b	.LBB0_4
.Ltmp7:
.LBB0_3:
	.loc	3 786 17                        @ ../ThirdParty/FreeRTOS/Source/tasks.c:786:17
	ldr	r0, [sp, #20]
	.loc	3 786 6 is_stmt 0               @ ../ThirdParty/FreeRTOS/Source/tasks.c:786:6
	bl	vPortFree
	b	.LBB0_4
.Ltmp8:
.LBB0_4:
	.loc	3 788 4 is_stmt 1               @ ../ThirdParty/FreeRTOS/Source/tasks.c:788:4
	b	.LBB0_6
.Ltmp9:
.LBB0_5:
	.loc	3 0 4 is_stmt 0                 @ ../ThirdParty/FreeRTOS/Source/tasks.c:0:4
	movs	r0, #0
.Ltmp10:
	.loc	3 791 14 is_stmt 1              @ ../ThirdParty/FreeRTOS/Source/tasks.c:791:14
	str	r0, [sp, #28]
	b	.LBB0_6
.Ltmp11:
.LBB0_6:
	.loc	3 796 7                         @ ../ThirdParty/FreeRTOS/Source/tasks.c:796:7
	ldr	r0, [sp, #28]
.Ltmp12:
	.loc	3 796 7 is_stmt 0               @ ../ThirdParty/FreeRTOS/Source/tasks.c:796:7
	cbz	r0, .LBB0_8
	b	.LBB0_7
.LBB0_7:
.Ltmp13:
	.loc	3 806 26 is_stmt 1              @ ../ThirdParty/FreeRTOS/Source/tasks.c:806:26
	ldr	r0, [sp, #44]
	.loc	3 806 38 is_stmt 0              @ ../ThirdParty/FreeRTOS/Source/tasks.c:806:38
	ldr	r1, [sp, #40]
	.loc	3 806 59                        @ ../ThirdParty/FreeRTOS/Source/tasks.c:806:59
	ldrh.w	r2, [sp, #38]
	.loc	3 806 73                        @ ../ThirdParty/FreeRTOS/Source/tasks.c:806:73
	ldr	r3, [sp, #32]
	.loc	3 806 87                        @ ../ThirdParty/FreeRTOS/Source/tasks.c:806:87
	ldr.w	r12, [sp, #64]
	.loc	3 806 99                        @ ../ThirdParty/FreeRTOS/Source/tasks.c:806:99
	ldr	r4, [sp, #68]
	.loc	3 806 114                       @ ../ThirdParty/FreeRTOS/Source/tasks.c:806:114
	ldr	r5, [sp, #28]
	.loc	3 806 4                         @ ../ThirdParty/FreeRTOS/Source/tasks.c:806:4
	mov	lr, sp
	movs	r6, #0
	str.w	r6, [lr, #12]
	str.w	r5, [lr, #8]
	str.w	r4, [lr, #4]
	str.w	r12, [lr]
	bl	prvInitialiseNewTask
	.loc	3 807 30 is_stmt 1              @ ../ThirdParty/FreeRTOS/Source/tasks.c:807:30
	ldr	r0, [sp, #28]
	.loc	3 807 4 is_stmt 0               @ ../ThirdParty/FreeRTOS/Source/tasks.c:807:4
	bl	prvAddNewTaskToReadyList
	movs	r0, #1
	.loc	3 808 12 is_stmt 1              @ ../ThirdParty/FreeRTOS/Source/tasks.c:808:12
	str	r0, [sp, #24]
	.loc	3 809 3                         @ ../ThirdParty/FreeRTOS/Source/tasks.c:809:3
	b	.LBB0_9
.Ltmp14:
.LBB0_8:
	.loc	3 0 3 is_stmt 0                 @ ../ThirdParty/FreeRTOS/Source/tasks.c:0:3
	mov.w	r0, #-1
.Ltmp15:
	.loc	3 812 12 is_stmt 1              @ ../ThirdParty/FreeRTOS/Source/tasks.c:812:12
	str	r0, [sp, #24]
	b	.LBB0_9
.Ltmp16:
.LBB0_9:
	.loc	3 815 10                        @ ../ThirdParty/FreeRTOS/Source/tasks.c:815:10
	ldr	r0, [sp, #24]
	.loc	3 815 3 epilogue_begin is_stmt 0 @ ../ThirdParty/FreeRTOS/Source/tasks.c:815:3
	add	sp, #48
	pop	{r4, r5, r6, pc}
.Ltmp17:
.Lfunc_end0:
	.size	xTaskCreate, .Lfunc_end0-xTaskCreate
	.cfi_endproc
	.cantunwind
	.fnend
                                        @ -- End function
	.section	.text.prvInitialiseNewTask,"ax",%progbits
	.p2align	2                               @ -- Begin function prvInitialiseNewTask
	.type	prvInitialiseNewTask,%function
	.code	16                              @ @prvInitialiseNewTask
	.thumb_func
prvInitialiseNewTask:
.Lfunc_begin1:
	.loc	3 829 0 is_stmt 1               @ ../ThirdParty/FreeRTOS/Source/tasks.c:829:0
	.fnstart
	.cfi_startproc
@ %bb.0:
	.save	{r7, lr}
	push	{r7, lr}
	.cfi_def_cfa_offset 8
	.cfi_offset lr, -4
	.cfi_offset r7, -8
	.pad	#32
	sub	sp, #32
	.cfi_def_cfa_offset 40
	ldr.w	r12, [sp, #52]
	ldr.w	r12, [sp, #48]
	ldr.w	r12, [sp, #44]
	ldr.w	r12, [sp, #40]
	str	r0, [sp, #24]
	str	r1, [sp, #20]
	str	r2, [sp, #16]
	str	r3, [sp, #12]
.Ltmp18:
	.loc	3 851 20 prologue_end           @ ../ThirdParty/FreeRTOS/Source/tasks.c:851:20
	ldr	r0, [sp, #48]
	.loc	3 851 30 is_stmt 0              @ ../ThirdParty/FreeRTOS/Source/tasks.c:851:30
	ldr	r0, [r0, #48]
	.loc	3 851 78                        @ ../ThirdParty/FreeRTOS/Source/tasks.c:851:78
	ldr	r1, [sp, #16]
	.loc	3 851 91                        @ ../ThirdParty/FreeRTOS/Source/tasks.c:851:91
	lsls	r1, r1, #2
	movs	r2, #165
	.loc	3 851 12                        @ ../ThirdParty/FreeRTOS/Source/tasks.c:851:12
	bl	__aeabi_memset4
.Ltmp19:
	.loc	3 861 21 is_stmt 1              @ ../ThirdParty/FreeRTOS/Source/tasks.c:861:21
	ldr	r0, [sp, #48]
	.loc	3 861 31 is_stmt 0              @ ../ThirdParty/FreeRTOS/Source/tasks.c:861:31
	ldr	r0, [r0, #48]
	.loc	3 861 40                        @ ../ThirdParty/FreeRTOS/Source/tasks.c:861:40
	ldr	r1, [sp, #16]
	.loc	3 861 21                        @ ../ThirdParty/FreeRTOS/Source/tasks.c:861:21
	add.w	r0, r0, r1, lsl #2
	subs	r0, #4
	.loc	3 861 16                        @ ../ThirdParty/FreeRTOS/Source/tasks.c:861:16
	str	r0, [sp, #8]
	.loc	3 862 66 is_stmt 1              @ ../ThirdParty/FreeRTOS/Source/tasks.c:862:66
	ldr	r0, [sp, #8]
	.loc	3 862 81 is_stmt 0              @ ../ThirdParty/FreeRTOS/Source/tasks.c:862:81
	bic	r0, r0, #7
	.loc	3 862 16                        @ ../ThirdParty/FreeRTOS/Source/tasks.c:862:16
	str	r0, [sp, #8]
.Ltmp20:
	.loc	3 865 3 is_stmt 1               @ ../ThirdParty/FreeRTOS/Source/tasks.c:865:3
	ldrb.w	r0, [sp, #8]
.Ltmp21:
	.loc	3 865 3 is_stmt 0               @ ../ThirdParty/FreeRTOS/Source/tasks.c:865:3
	lsls	r0, r0, #29
	cbz	r0, .LBB1_3
	b	.LBB1_1
.LBB1_1:
.Ltmp22:
	.loc	2 199 2 is_stmt 1               @ ../ThirdParty/FreeRTOS/Source/portable/GCC/ARM_CM4F\portmacro.h:199:2
	@APP
	mov.w	r0, #80
	msr	basepri, r0
	isb	sy
	dsb	sy

	@NO_APP
	str	r0, [sp, #28]
.Ltmp23:
	.loc	3 865 3                         @ ../ThirdParty/FreeRTOS/Source/tasks.c:865:3
	b	.LBB1_2
.LBB1_2:                                @ =>This Inner Loop Header: Depth=1
.Ltmp24:
	.loc	3 865 3 is_stmt 0               @ ../ThirdParty/FreeRTOS/Source/tasks.c:865:3
	b	.LBB1_2
.Ltmp25:
.LBB1_3:
	.loc	3 889 6 is_stmt 1               @ ../ThirdParty/FreeRTOS/Source/tasks.c:889:6
	ldr	r0, [sp, #20]
.Ltmp26:
	.loc	3 889 6 is_stmt 0               @ ../ThirdParty/FreeRTOS/Source/tasks.c:889:6
	cbz	r0, .LBB1_12
	b	.LBB1_4
.LBB1_4:
	.loc	3 0 6                           @ ../ThirdParty/FreeRTOS/Source/tasks.c:0:6
	movs	r0, #0
.Ltmp27:
	.loc	3 891 10 is_stmt 1              @ ../ThirdParty/FreeRTOS/Source/tasks.c:891:10
	str	r0, [sp, #4]
	.loc	3 891 8 is_stmt 0               @ ../ThirdParty/FreeRTOS/Source/tasks.c:891:8
	b	.LBB1_5
.LBB1_5:                                @ =>This Inner Loop Header: Depth=1
.Ltmp28:
	.loc	3 891 31                        @ ../ThirdParty/FreeRTOS/Source/tasks.c:891:31
	ldr	r0, [sp, #4]
.Ltmp29:
	.loc	3 891 3                         @ ../ThirdParty/FreeRTOS/Source/tasks.c:891:3
	cmp	r0, #15
	bhi	.LBB1_11
	b	.LBB1_6
.LBB1_6:                                @   in Loop: Header=BB1_5 Depth=1
.Ltmp30:
	.loc	3 893 32 is_stmt 1              @ ../ThirdParty/FreeRTOS/Source/tasks.c:893:32
	ldr	r0, [sp, #20]
	.loc	3 893 40 is_stmt 0              @ ../ThirdParty/FreeRTOS/Source/tasks.c:893:40
	ldr	r2, [sp, #4]
	.loc	3 893 32                        @ ../ThirdParty/FreeRTOS/Source/tasks.c:893:32
	ldrb	r0, [r0, r2]
	.loc	3 893 4                         @ ../ThirdParty/FreeRTOS/Source/tasks.c:893:4
	ldr	r1, [sp, #48]
	.loc	3 893 14                        @ ../ThirdParty/FreeRTOS/Source/tasks.c:893:14
	add	r1, r2
	.loc	3 893 30                        @ ../ThirdParty/FreeRTOS/Source/tasks.c:893:30
	strb.w	r0, [r1, #52]
.Ltmp31:
	.loc	3 898 8 is_stmt 1               @ ../ThirdParty/FreeRTOS/Source/tasks.c:898:8
	ldr	r0, [sp, #20]
	.loc	3 898 16 is_stmt 0              @ ../ThirdParty/FreeRTOS/Source/tasks.c:898:16
	ldr	r1, [sp, #4]
	.loc	3 898 8                         @ ../ThirdParty/FreeRTOS/Source/tasks.c:898:8
	ldrb	r0, [r0, r1]
.Ltmp32:
	.loc	3 898 8                         @ ../ThirdParty/FreeRTOS/Source/tasks.c:898:8
	cbnz	r0, .LBB1_8
	b	.LBB1_7
.LBB1_7:
.Ltmp33:
	.loc	3 900 5 is_stmt 1               @ ../ThirdParty/FreeRTOS/Source/tasks.c:900:5
	b	.LBB1_11
.Ltmp34:
.LBB1_8:                                @   in Loop: Header=BB1_5 Depth=1
	.loc	3 0 5 is_stmt 0                 @ ../ThirdParty/FreeRTOS/Source/tasks.c:0:5
	b	.LBB1_9
.LBB1_9:                                @   in Loop: Header=BB1_5 Depth=1
	.loc	3 906 3 is_stmt 1               @ ../ThirdParty/FreeRTOS/Source/tasks.c:906:3
	b	.LBB1_10
.Ltmp35:
.LBB1_10:                               @   in Loop: Header=BB1_5 Depth=1
	.loc	3 891 77                        @ ../ThirdParty/FreeRTOS/Source/tasks.c:891:77
	ldr	r0, [sp, #4]
	adds	r0, #1
	str	r0, [sp, #4]
	.loc	3 891 3 is_stmt 0               @ ../ThirdParty/FreeRTOS/Source/tasks.c:891:3
	b	.LBB1_5
.Ltmp36:
.LBB1_11:
	.loc	3 910 3 is_stmt 1               @ ../ThirdParty/FreeRTOS/Source/tasks.c:910:3
	ldr	r1, [sp, #48]
	movs	r0, #0
	.loc	3 910 55 is_stmt 0              @ ../ThirdParty/FreeRTOS/Source/tasks.c:910:55
	strb.w	r0, [r1, #67]
	.loc	3 911 2 is_stmt 1               @ ../ThirdParty/FreeRTOS/Source/tasks.c:911:2
	b	.LBB1_13
.Ltmp37:
.LBB1_12:
	.loc	3 916 3                         @ ../ThirdParty/FreeRTOS/Source/tasks.c:916:3
	ldr	r1, [sp, #48]
	movs	r0, #0
	.loc	3 916 29 is_stmt 0              @ ../ThirdParty/FreeRTOS/Source/tasks.c:916:29
	strb.w	r0, [r1, #52]
	b	.LBB1_13
.Ltmp38:
.LBB1_13:
	.loc	3 921 6 is_stmt 1               @ ../ThirdParty/FreeRTOS/Source/tasks.c:921:6
	ldr	r0, [sp, #40]
.Ltmp39:
	.loc	3 921 6 is_stmt 0               @ ../ThirdParty/FreeRTOS/Source/tasks.c:921:6
	cmp	r0, #7
	blo	.LBB1_15
	b	.LBB1_14
.LBB1_14:
	.loc	3 0 6                           @ ../ThirdParty/FreeRTOS/Source/tasks.c:0:6
	movs	r0, #6
.Ltmp40:
	.loc	3 923 14 is_stmt 1              @ ../ThirdParty/FreeRTOS/Source/tasks.c:923:14
	str	r0, [sp, #40]
	.loc	3 924 2                         @ ../ThirdParty/FreeRTOS/Source/tasks.c:924:2
	b	.LBB1_16
.Ltmp41:
.LBB1_15:
	.loc	3 0 2 is_stmt 0                 @ ../ThirdParty/FreeRTOS/Source/tasks.c:0:2
	b	.LBB1_16
.LBB1_16:
	.loc	3 930 25 is_stmt 1              @ ../ThirdParty/FreeRTOS/Source/tasks.c:930:25
	ldr	r0, [sp, #40]
	.loc	3 930 2 is_stmt 0               @ ../ThirdParty/FreeRTOS/Source/tasks.c:930:2
	ldr	r1, [sp, #48]
	.loc	3 930 23                        @ ../ThirdParty/FreeRTOS/Source/tasks.c:930:23
	str	r0, [r1, #44]
.Ltmp42:
	.loc	3 933 30 is_stmt 1              @ ../ThirdParty/FreeRTOS/Source/tasks.c:933:30
	ldr	r0, [sp, #40]
	.loc	3 933 3 is_stmt 0               @ ../ThirdParty/FreeRTOS/Source/tasks.c:933:3
	ldr	r1, [sp, #48]
	.loc	3 933 28                        @ ../ThirdParty/FreeRTOS/Source/tasks.c:933:28
	str	r0, [r1, #68]
	.loc	3 934 3 is_stmt 1               @ ../ThirdParty/FreeRTOS/Source/tasks.c:934:3
	ldr	r1, [sp, #48]
	movs	r0, #0
	.loc	3 934 27 is_stmt 0              @ ../ThirdParty/FreeRTOS/Source/tasks.c:934:27
	str	r0, [sp]                        @ 4-byte Spill
	str	r0, [r1, #72]
.Ltmp43:
	.loc	3 938 26 is_stmt 1              @ ../ThirdParty/FreeRTOS/Source/tasks.c:938:26
	ldr	r0, [sp, #48]
	.loc	3 938 36 is_stmt 0              @ ../ThirdParty/FreeRTOS/Source/tasks.c:938:36
	adds	r0, #4
	.loc	3 938 2                         @ ../ThirdParty/FreeRTOS/Source/tasks.c:938:2
	bl	vListInitialiseItem
	.loc	3 939 26 is_stmt 1              @ ../ThirdParty/FreeRTOS/Source/tasks.c:939:26
	ldr	r0, [sp, #48]
	.loc	3 939 36 is_stmt 0              @ ../ThirdParty/FreeRTOS/Source/tasks.c:939:36
	adds	r0, #24
	.loc	3 939 2                         @ ../ThirdParty/FreeRTOS/Source/tasks.c:939:2
	bl	vListInitialiseItem
	ldr	r0, [sp]                        @ 4-byte Reload
	.loc	3 943 2 is_stmt 1               @ ../ThirdParty/FreeRTOS/Source/tasks.c:943:2
	ldr	r1, [sp, #48]
	str	r1, [r1, #16]
	.loc	3 946 2                         @ ../ThirdParty/FreeRTOS/Source/tasks.c:946:2
	ldr	r1, [sp, #40]
	rsb.w	r1, r1, #7
	ldr	r2, [sp, #48]
	str	r1, [r2, #24]
	.loc	3 947 2                         @ ../ThirdParty/FreeRTOS/Source/tasks.c:947:2
	ldr	r1, [sp, #48]
	str	r1, [r1, #36]
.Ltmp44:
	.loc	3 989 3                         @ ../ThirdParty/FreeRTOS/Source/tasks.c:989:3
	ldr	r1, [sp, #48]
	.loc	3 989 29 is_stmt 0              @ ../ThirdParty/FreeRTOS/Source/tasks.c:989:29
	str	r0, [r1, #76]
	.loc	3 990 3 is_stmt 1               @ ../ThirdParty/FreeRTOS/Source/tasks.c:990:3
	ldr	r1, [sp, #48]
	.loc	3 990 27 is_stmt 0              @ ../ThirdParty/FreeRTOS/Source/tasks.c:990:27
	strb.w	r0, [r1, #80]
.Ltmp45:
	.loc	3 1053 52 is_stmt 1             @ ../ThirdParty/FreeRTOS/Source/tasks.c:1053:52
	ldr	r0, [sp, #8]
	.loc	3 1053 66 is_stmt 0             @ ../ThirdParty/FreeRTOS/Source/tasks.c:1053:66
	ldr	r1, [sp, #24]
	.loc	3 1053 78                       @ ../ThirdParty/FreeRTOS/Source/tasks.c:1053:78
	ldr	r2, [sp, #12]
	.loc	3 1053 29                       @ ../ThirdParty/FreeRTOS/Source/tasks.c:1053:29
	bl	pxPortInitialiseStack
	.loc	3 1053 4                        @ ../ThirdParty/FreeRTOS/Source/tasks.c:1053:4
	ldr	r1, [sp, #48]
	.loc	3 1053 27                       @ ../ThirdParty/FreeRTOS/Source/tasks.c:1053:27
	str	r0, [r1]
.Ltmp46:
	.loc	3 1059 6 is_stmt 1              @ ../ThirdParty/FreeRTOS/Source/tasks.c:1059:6
	ldr	r0, [sp, #44]
.Ltmp47:
	.loc	3 1059 6 is_stmt 0              @ ../ThirdParty/FreeRTOS/Source/tasks.c:1059:6
	cbz	r0, .LBB1_18
	b	.LBB1_17
.LBB1_17:
.Ltmp48:
	.loc	3 1063 37 is_stmt 1             @ ../ThirdParty/FreeRTOS/Source/tasks.c:1063:37
	ldr	r0, [sp, #48]
	.loc	3 1063 4 is_stmt 0              @ ../ThirdParty/FreeRTOS/Source/tasks.c:1063:4
	ldr	r1, [sp, #44]
	.loc	3 1063 18                       @ ../ThirdParty/FreeRTOS/Source/tasks.c:1063:18
	str	r0, [r1]
	.loc	3 1064 2 is_stmt 1              @ ../ThirdParty/FreeRTOS/Source/tasks.c:1064:2
	b	.LBB1_19
.Ltmp49:
.LBB1_18:
	.loc	3 0 2 is_stmt 0                 @ ../ThirdParty/FreeRTOS/Source/tasks.c:0:2
	b	.LBB1_19
.LBB1_19:
	.loc	3 1069 1 epilogue_begin is_stmt 1 @ ../ThirdParty/FreeRTOS/Source/tasks.c:1069:1
	add	sp, #32
	pop	{r7, pc}
.Ltmp50:
.Lfunc_end1:
	.size	prvInitialiseNewTask, .Lfunc_end1-prvInitialiseNewTask
	.cfi_endproc
	.cantunwind
	.fnend
                                        @ -- End function
	.section	.text.prvAddNewTaskToReadyList,"ax",%progbits
	.p2align	2                               @ -- Begin function prvAddNewTaskToReadyList
	.type	prvAddNewTaskToReadyList,%function
	.code	16                              @ @prvAddNewTaskToReadyList
	.thumb_func
prvAddNewTaskToReadyList:
.Lfunc_begin2:
	.loc	3 1073 0                        @ ../ThirdParty/FreeRTOS/Source/tasks.c:1073:0
	.fnstart
	.cfi_startproc
@ %bb.0:
	.save	{r7, lr}
	push	{r7, lr}
	.cfi_def_cfa_offset 8
	.cfi_offset lr, -4
	.cfi_offset r7, -8
	.pad	#8
	sub	sp, #8
	.cfi_def_cfa_offset 16
	str	r0, [sp, #4]
.Ltmp51:
	.loc	3 1076 2 prologue_end           @ ../ThirdParty/FreeRTOS/Source/tasks.c:1076:2
	bl	vPortEnterCritical
.Ltmp52:
	.loc	3 1078 25                       @ ../ThirdParty/FreeRTOS/Source/tasks.c:1078:25
	movw	r1, :lower16:uxCurrentNumberOfTasks
	movt	r1, :upper16:uxCurrentNumberOfTasks
	ldr	r0, [r1]
	adds	r0, #1
	str	r0, [r1]
.Ltmp53:
	.loc	3 1079 7                        @ ../ThirdParty/FreeRTOS/Source/tasks.c:1079:7
	movw	r0, :lower16:pxCurrentTCB
	movt	r0, :upper16:pxCurrentTCB
	ldr	r0, [r0]
.Ltmp54:
	.loc	3 1079 7 is_stmt 0              @ ../ThirdParty/FreeRTOS/Source/tasks.c:1079:7
	cbnz	r0, .LBB2_5
	b	.LBB2_1
.LBB2_1:
.Ltmp55:
	.loc	3 1083 19 is_stmt 1             @ ../ThirdParty/FreeRTOS/Source/tasks.c:1083:19
	ldr	r0, [sp, #4]
	.loc	3 1083 17 is_stmt 0             @ ../ThirdParty/FreeRTOS/Source/tasks.c:1083:17
	movw	r1, :lower16:pxCurrentTCB
	movt	r1, :upper16:pxCurrentTCB
	str	r0, [r1]
.Ltmp56:
	.loc	3 1085 8 is_stmt 1              @ ../ThirdParty/FreeRTOS/Source/tasks.c:1085:8
	movw	r0, :lower16:uxCurrentNumberOfTasks
	movt	r0, :upper16:uxCurrentNumberOfTasks
	ldr	r0, [r0]
.Ltmp57:
	.loc	3 1085 8 is_stmt 0              @ ../ThirdParty/FreeRTOS/Source/tasks.c:1085:8
	cmp	r0, #1
	bne	.LBB2_3
	b	.LBB2_2
.LBB2_2:
.Ltmp58:
	.loc	3 1090 5 is_stmt 1              @ ../ThirdParty/FreeRTOS/Source/tasks.c:1090:5
	bl	prvInitialiseTaskLists
	.loc	3 1091 4                        @ ../ThirdParty/FreeRTOS/Source/tasks.c:1091:4
	b	.LBB2_4
.Ltmp59:
.LBB2_3:
	.loc	3 0 4 is_stmt 0                 @ ../ThirdParty/FreeRTOS/Source/tasks.c:0:4
	b	.LBB2_4
.LBB2_4:
	.loc	3 1096 3 is_stmt 1              @ ../ThirdParty/FreeRTOS/Source/tasks.c:1096:3
	b	.LBB2_12
.Ltmp60:
.LBB2_5:
	.loc	3 1102 8                        @ ../ThirdParty/FreeRTOS/Source/tasks.c:1102:8
	movw	r0, :lower16:xSchedulerRunning
	movt	r0, :upper16:xSchedulerRunning
	ldr	r0, [r0]
.Ltmp61:
	.loc	3 1102 8 is_stmt 0              @ ../ThirdParty/FreeRTOS/Source/tasks.c:1102:8
	cbnz	r0, .LBB2_10
	b	.LBB2_6
.LBB2_6:
.Ltmp62:
	.loc	3 1104 9 is_stmt 1              @ ../ThirdParty/FreeRTOS/Source/tasks.c:1104:9
	movw	r0, :lower16:pxCurrentTCB
	movt	r0, :upper16:pxCurrentTCB
	ldr	r0, [r0]
	.loc	3 1104 23 is_stmt 0             @ ../ThirdParty/FreeRTOS/Source/tasks.c:1104:23
	ldr	r0, [r0, #44]
	.loc	3 1104 37                       @ ../ThirdParty/FreeRTOS/Source/tasks.c:1104:37
	ldr	r1, [sp, #4]
	.loc	3 1104 47                       @ ../ThirdParty/FreeRTOS/Source/tasks.c:1104:47
	ldr	r1, [r1, #44]
.Ltmp63:
	.loc	3 1104 9                        @ ../ThirdParty/FreeRTOS/Source/tasks.c:1104:9
	cmp	r0, r1
	bhi	.LBB2_8
	b	.LBB2_7
.LBB2_7:
.Ltmp64:
	.loc	3 1106 21 is_stmt 1             @ ../ThirdParty/FreeRTOS/Source/tasks.c:1106:21
	ldr	r0, [sp, #4]
	.loc	3 1106 19 is_stmt 0             @ ../ThirdParty/FreeRTOS/Source/tasks.c:1106:19
	movw	r1, :lower16:pxCurrentTCB
	movt	r1, :upper16:pxCurrentTCB
	str	r0, [r1]
	.loc	3 1107 5 is_stmt 1              @ ../ThirdParty/FreeRTOS/Source/tasks.c:1107:5
	b	.LBB2_9
.Ltmp65:
.LBB2_8:
	.loc	3 0 5 is_stmt 0                 @ ../ThirdParty/FreeRTOS/Source/tasks.c:0:5
	b	.LBB2_9
.LBB2_9:
	.loc	3 1112 4 is_stmt 1              @ ../ThirdParty/FreeRTOS/Source/tasks.c:1112:4
	b	.LBB2_11
.Ltmp66:
.LBB2_10:
	.loc	3 0 4 is_stmt 0                 @ ../ThirdParty/FreeRTOS/Source/tasks.c:0:4
	b	.LBB2_11
.LBB2_11:
	b	.LBB2_12
.LBB2_12:
	.loc	3 1119 15 is_stmt 1             @ ../ThirdParty/FreeRTOS/Source/tasks.c:1119:15
	movw	r1, :lower16:uxTaskNumber
	movt	r1, :upper16:uxTaskNumber
	ldr	r0, [r1]
	adds	r0, #1
	str	r0, [r1]
	.loc	3 1129 3                        @ ../ThirdParty/FreeRTOS/Source/tasks.c:1129:3
	ldr	r0, [sp, #4]
	ldr	r1, [r0, #44]
	movs	r0, #1
	lsl.w	r2, r0, r1
	movw	r1, :lower16:uxTopReadyPriority
	movt	r1, :upper16:uxTopReadyPriority
	ldr	r0, [r1]
	orrs	r0, r2
	str	r0, [r1]
	ldr	r1, [sp, #4]
	ldr	r0, [r1, #44]
	add.w	r2, r0, r0, lsl #2
	movw	r0, :lower16:pxReadyTasksLists
	movt	r0, :upper16:pxReadyTasksLists
	add.w	r0, r0, r2, lsl #2
	adds	r1, #4
	bl	vListInsertEnd
.Ltmp67:
	.loc	3 1133 2                        @ ../ThirdParty/FreeRTOS/Source/tasks.c:1133:2
	bl	vPortExitCritical
.Ltmp68:
	.loc	3 1135 6                        @ ../ThirdParty/FreeRTOS/Source/tasks.c:1135:6
	movw	r0, :lower16:xSchedulerRunning
	movt	r0, :upper16:xSchedulerRunning
	ldr	r0, [r0]
.Ltmp69:
	.loc	3 1135 6 is_stmt 0              @ ../ThirdParty/FreeRTOS/Source/tasks.c:1135:6
	cbz	r0, .LBB2_17
	b	.LBB2_13
.LBB2_13:
.Ltmp70:
	.loc	3 1139 7 is_stmt 1              @ ../ThirdParty/FreeRTOS/Source/tasks.c:1139:7
	movw	r0, :lower16:pxCurrentTCB
	movt	r0, :upper16:pxCurrentTCB
	ldr	r0, [r0]
	.loc	3 1139 21 is_stmt 0             @ ../ThirdParty/FreeRTOS/Source/tasks.c:1139:21
	ldr	r0, [r0, #44]
	.loc	3 1139 34                       @ ../ThirdParty/FreeRTOS/Source/tasks.c:1139:34
	ldr	r1, [sp, #4]
	.loc	3 1139 44                       @ ../ThirdParty/FreeRTOS/Source/tasks.c:1139:44
	ldr	r1, [r1, #44]
.Ltmp71:
	.loc	3 1139 7                        @ ../ThirdParty/FreeRTOS/Source/tasks.c:1139:7
	cmp	r0, r1
	bhs	.LBB2_15
	b	.LBB2_14
.LBB2_14:
	.loc	3 0 7                           @ ../ThirdParty/FreeRTOS/Source/tasks.c:0:7
	movw	r1, #60676
	movt	r1, #57344
	mov.w	r0, #268435456
.Ltmp72:
	.loc	3 1141 4 is_stmt 1              @ ../ThirdParty/FreeRTOS/Source/tasks.c:1141:4
	str	r0, [r1]
	@APP
	dsb	sy
	@NO_APP
	@APP
	isb	sy
	@NO_APP
.Ltmp73:
	.loc	3 1142 3                        @ ../ThirdParty/FreeRTOS/Source/tasks.c:1142:3
	b	.LBB2_16
.Ltmp74:
.LBB2_15:
	.loc	3 0 3 is_stmt 0                 @ ../ThirdParty/FreeRTOS/Source/tasks.c:0:3
	b	.LBB2_16
.LBB2_16:
	.loc	3 1147 2 is_stmt 1              @ ../ThirdParty/FreeRTOS/Source/tasks.c:1147:2
	b	.LBB2_18
.Ltmp75:
.LBB2_17:
	.loc	3 0 2 is_stmt 0                 @ ../ThirdParty/FreeRTOS/Source/tasks.c:0:2
	b	.LBB2_18
.LBB2_18:
	.loc	3 1152 1 epilogue_begin is_stmt 1 @ ../ThirdParty/FreeRTOS/Source/tasks.c:1152:1
	add	sp, #8
	pop	{r7, pc}
.Ltmp76:
.Lfunc_end2:
	.size	prvAddNewTaskToReadyList, .Lfunc_end2-prvAddNewTaskToReadyList
	.cfi_endproc
	.cantunwind
	.fnend
                                        @ -- End function
	.section	.text.vTaskDelete,"ax",%progbits
	.hidden	vTaskDelete                     @ -- Begin function vTaskDelete
	.globl	vTaskDelete
	.p2align	2
	.type	vTaskDelete,%function
	.code	16                              @ @vTaskDelete
	.thumb_func
vTaskDelete:
.Lfunc_begin3:
	.loc	3 1158 0                        @ ../ThirdParty/FreeRTOS/Source/tasks.c:1158:0
	.fnstart
	.cfi_startproc
@ %bb.0:
	.save	{r7, lr}
	push	{r7, lr}
	.cfi_def_cfa_offset 8
	.cfi_offset lr, -4
	.cfi_offset r7, -8
	.pad	#16
	sub	sp, #16
	.cfi_def_cfa_offset 24
	str	r0, [sp, #8]
.Ltmp77:
	.loc	3 1161 3 prologue_end           @ ../ThirdParty/FreeRTOS/Source/tasks.c:1161:3
	bl	vPortEnterCritical
.Ltmp78:
	.loc	3 1165 12                       @ ../ThirdParty/FreeRTOS/Source/tasks.c:1165:12
	ldr	r0, [sp, #8]
	cbnz	r0, .LBB3_2
	b	.LBB3_1
.LBB3_1:
	movw	r0, :lower16:pxCurrentTCB
	movt	r0, :upper16:pxCurrentTCB
	ldr	r0, [r0]
	str	r0, [sp]                        @ 4-byte Spill
	b	.LBB3_3
.LBB3_2:
	ldr	r0, [sp, #8]
	str	r0, [sp]                        @ 4-byte Spill
	b	.LBB3_3
.LBB3_3:
	ldr	r0, [sp]                        @ 4-byte Reload
	.loc	3 1165 10 is_stmt 0             @ ../ThirdParty/FreeRTOS/Source/tasks.c:1165:10
	str	r0, [sp, #4]
.Ltmp79:
	.loc	3 1168 25 is_stmt 1             @ ../ThirdParty/FreeRTOS/Source/tasks.c:1168:25
	ldr	r0, [sp, #4]
	.loc	3 1168 32 is_stmt 0             @ ../ThirdParty/FreeRTOS/Source/tasks.c:1168:32
	adds	r0, #4
	.loc	3 1168 8                        @ ../ThirdParty/FreeRTOS/Source/tasks.c:1168:8
	bl	uxListRemove
.Ltmp80:
	.loc	3 1168 8                        @ ../ThirdParty/FreeRTOS/Source/tasks.c:1168:8
	cbnz	r0, .LBB3_7
	b	.LBB3_4
.LBB3_4:
.Ltmp81:
	.loc	3 1170 5 is_stmt 1              @ ../ThirdParty/FreeRTOS/Source/tasks.c:1170:5
	ldr	r0, [sp, #4]
	ldr	r0, [r0, #44]
	add.w	r1, r0, r0, lsl #2
	movw	r0, :lower16:pxReadyTasksLists
	movt	r0, :upper16:pxReadyTasksLists
	ldr.w	r0, [r0, r1, lsl #2]
.Ltmp82:
	.loc	3 1170 5 is_stmt 0              @ ../ThirdParty/FreeRTOS/Source/tasks.c:1170:5
	cbnz	r0, .LBB3_6
	b	.LBB3_5
.LBB3_5:
.Ltmp83:
	.loc	3 1170 5                        @ ../ThirdParty/FreeRTOS/Source/tasks.c:1170:5
	ldr	r0, [sp, #4]
	ldr	r1, [r0, #44]
	movs	r0, #1
	lsl.w	r2, r0, r1
	movw	r1, :lower16:uxTopReadyPriority
	movt	r1, :upper16:uxTopReadyPriority
	ldr	r0, [r1]
	bics	r0, r2
	str	r0, [r1]
	b	.LBB3_6
.Ltmp84:
.LBB3_6:
	.loc	3 1171 4 is_stmt 1              @ ../ThirdParty/FreeRTOS/Source/tasks.c:1171:4
	b	.LBB3_8
.Ltmp85:
.LBB3_7:
	.loc	3 0 4 is_stmt 0                 @ ../ThirdParty/FreeRTOS/Source/tasks.c:0:4
	b	.LBB3_8
.LBB3_8:
.Ltmp86:
	.loc	3 1178 8 is_stmt 1              @ ../ThirdParty/FreeRTOS/Source/tasks.c:1178:8
	ldr	r0, [sp, #4]
	ldr	r0, [r0, #40]
.Ltmp87:
	.loc	3 1178 8 is_stmt 0              @ ../ThirdParty/FreeRTOS/Source/tasks.c:1178:8
	cbz	r0, .LBB3_10
	b	.LBB3_9
.LBB3_9:
.Ltmp88:
	.loc	3 1180 31 is_stmt 1             @ ../ThirdParty/FreeRTOS/Source/tasks.c:1180:31
	ldr	r0, [sp, #4]
	.loc	3 1180 38 is_stmt 0             @ ../ThirdParty/FreeRTOS/Source/tasks.c:1180:38
	adds	r0, #24
	.loc	3 1180 14                       @ ../ThirdParty/FreeRTOS/Source/tasks.c:1180:14
	bl	uxListRemove
	.loc	3 1181 4 is_stmt 1              @ ../ThirdParty/FreeRTOS/Source/tasks.c:1181:4
	b	.LBB3_11
.Ltmp89:
.LBB3_10:
	.loc	3 0 4 is_stmt 0                 @ ../ThirdParty/FreeRTOS/Source/tasks.c:0:4
	b	.LBB3_11
.LBB3_11:
	.loc	3 1191 16 is_stmt 1             @ ../ThirdParty/FreeRTOS/Source/tasks.c:1191:16
	movw	r1, :lower16:uxTaskNumber
	movt	r1, :upper16:uxTaskNumber
	ldr	r0, [r1]
	adds	r0, #1
	str	r0, [r1]
.Ltmp90:
	.loc	3 1193 8                        @ ../ThirdParty/FreeRTOS/Source/tasks.c:1193:8
	ldr	r0, [sp, #4]
	.loc	3 1193 17 is_stmt 0             @ ../ThirdParty/FreeRTOS/Source/tasks.c:1193:17
	movw	r1, :lower16:pxCurrentTCB
	movt	r1, :upper16:pxCurrentTCB
	ldr	r1, [r1]
.Ltmp91:
	.loc	3 1193 8                        @ ../ThirdParty/FreeRTOS/Source/tasks.c:1193:8
	cmp	r0, r1
	bne	.LBB3_13
	b	.LBB3_12
.LBB3_12:
.Ltmp92:
	.loc	3 1200 51 is_stmt 1             @ ../ThirdParty/FreeRTOS/Source/tasks.c:1200:51
	ldr	r0, [sp, #4]
	.loc	3 1200 58 is_stmt 0             @ ../ThirdParty/FreeRTOS/Source/tasks.c:1200:58
	adds	r1, r0, #4
	.loc	3 1200 5                        @ ../ThirdParty/FreeRTOS/Source/tasks.c:1200:5
	movw	r0, :lower16:xTasksWaitingTermination
	movt	r0, :upper16:xTasksWaitingTermination
	bl	vListInsertEnd
	.loc	3 1205 5 is_stmt 1              @ ../ThirdParty/FreeRTOS/Source/tasks.c:1205:5
	movw	r1, :lower16:uxDeletedTasksWaitingCleanUp
	movt	r1, :upper16:uxDeletedTasksWaitingCleanUp
	ldr	r0, [r1]
	adds	r0, #1
	str	r0, [r1]
	.loc	3 1213 4                        @ ../ThirdParty/FreeRTOS/Source/tasks.c:1213:4
	b	.LBB3_14
.Ltmp93:
.LBB3_13:
	.loc	3 1216 5                        @ ../ThirdParty/FreeRTOS/Source/tasks.c:1216:5
	movw	r1, :lower16:uxCurrentNumberOfTasks
	movt	r1, :upper16:uxCurrentNumberOfTasks
	ldr	r0, [r1]
	subs	r0, #1
	str	r0, [r1]
	.loc	3 1217 19                       @ ../ThirdParty/FreeRTOS/Source/tasks.c:1217:19
	ldr	r0, [sp, #4]
	.loc	3 1217 5 is_stmt 0              @ ../ThirdParty/FreeRTOS/Source/tasks.c:1217:5
	bl	prvDeleteTCB
	.loc	3 1221 5 is_stmt 1              @ ../ThirdParty/FreeRTOS/Source/tasks.c:1221:5
	bl	prvResetNextTaskUnblockTime
	b	.LBB3_14
.Ltmp94:
.LBB3_14:
	.loc	3 1226 3                        @ ../ThirdParty/FreeRTOS/Source/tasks.c:1226:3
	bl	vPortExitCritical
.Ltmp95:
	.loc	3 1230 7                        @ ../ThirdParty/FreeRTOS/Source/tasks.c:1230:7
	movw	r0, :lower16:xSchedulerRunning
	movt	r0, :upper16:xSchedulerRunning
	ldr	r0, [r0]
.Ltmp96:
	.loc	3 1230 7 is_stmt 0              @ ../ThirdParty/FreeRTOS/Source/tasks.c:1230:7
	cbz	r0, .LBB3_22
	b	.LBB3_15
.LBB3_15:
.Ltmp97:
	.loc	3 1232 8 is_stmt 1              @ ../ThirdParty/FreeRTOS/Source/tasks.c:1232:8
	ldr	r0, [sp, #4]
	.loc	3 1232 17 is_stmt 0             @ ../ThirdParty/FreeRTOS/Source/tasks.c:1232:17
	movw	r1, :lower16:pxCurrentTCB
	movt	r1, :upper16:pxCurrentTCB
	ldr	r1, [r1]
.Ltmp98:
	.loc	3 1232 8                        @ ../ThirdParty/FreeRTOS/Source/tasks.c:1232:8
	cmp	r0, r1
	bne	.LBB3_20
	b	.LBB3_16
.LBB3_16:
.Ltmp99:
	.loc	3 1234 5 is_stmt 1              @ ../ThirdParty/FreeRTOS/Source/tasks.c:1234:5
	movw	r0, :lower16:uxSchedulerSuspended
	movt	r0, :upper16:uxSchedulerSuspended
	ldr	r0, [r0]
.Ltmp100:
	.loc	3 1234 5 is_stmt 0              @ ../ThirdParty/FreeRTOS/Source/tasks.c:1234:5
	cbz	r0, .LBB3_19
	b	.LBB3_17
.LBB3_17:
.Ltmp101:
	.loc	2 199 2 is_stmt 1               @ ../ThirdParty/FreeRTOS/Source/portable/GCC/ARM_CM4F\portmacro.h:199:2
	@APP
	mov.w	r0, #80
	msr	basepri, r0
	isb	sy
	dsb	sy

	@NO_APP
	str	r0, [sp, #12]
.Ltmp102:
	.loc	3 1234 5                        @ ../ThirdParty/FreeRTOS/Source/tasks.c:1234:5
	b	.LBB3_18
.LBB3_18:                               @ =>This Inner Loop Header: Depth=1
.Ltmp103:
	.loc	3 1234 5 is_stmt 0              @ ../ThirdParty/FreeRTOS/Source/tasks.c:1234:5
	b	.LBB3_18
.Ltmp104:
.LBB3_19:
	.loc	3 0 5                           @ ../ThirdParty/FreeRTOS/Source/tasks.c:0:5
	movw	r1, #60676
	movt	r1, #57344
	mov.w	r0, #268435456
.Ltmp105:
	.loc	3 1235 5 is_stmt 1              @ ../ThirdParty/FreeRTOS/Source/tasks.c:1235:5
	str	r0, [r1]
	@APP
	dsb	sy
	@NO_APP
	@APP
	isb	sy
	@NO_APP
.Ltmp106:
	.loc	3 1236 4                        @ ../ThirdParty/FreeRTOS/Source/tasks.c:1236:4
	b	.LBB3_21
.Ltmp107:
.LBB3_20:
	.loc	3 0 4 is_stmt 0                 @ ../ThirdParty/FreeRTOS/Source/tasks.c:0:4
	b	.LBB3_21
.LBB3_21:
	.loc	3 1241 3 is_stmt 1              @ ../ThirdParty/FreeRTOS/Source/tasks.c:1241:3
	b	.LBB3_22
.Ltmp108:
.LBB3_22:
	.loc	3 1242 2 epilogue_begin         @ ../ThirdParty/FreeRTOS/Source/tasks.c:1242:2
	add	sp, #16
	pop	{r7, pc}
.Ltmp109:
.Lfunc_end3:
	.size	vTaskDelete, .Lfunc_end3-vTaskDelete
	.cfi_endproc
	.cantunwind
	.fnend
                                        @ -- End function
	.section	.text.prvDeleteTCB,"ax",%progbits
	.p2align	2                               @ -- Begin function prvDeleteTCB
	.type	prvDeleteTCB,%function
	.code	16                              @ @prvDeleteTCB
	.thumb_func
prvDeleteTCB:
.Lfunc_begin4:
	.loc	3 3827 0                        @ ../ThirdParty/FreeRTOS/Source/tasks.c:3827:0
	.fnstart
	.cfi_startproc
@ %bb.0:
	.save	{r7, lr}
	push	{r7, lr}
	.cfi_def_cfa_offset 8
	.cfi_offset lr, -4
	.cfi_offset r7, -8
	.pad	#8
	sub	sp, #8
	.cfi_def_cfa_offset 16
	str	r0, [sp, #4]
.Ltmp110:
	.loc	3 3831 3 prologue_end           @ ../ThirdParty/FreeRTOS/Source/tasks.c:3831:3
	ldr	r0, [sp, #4]
.Ltmp111:
	.loc	3 3845 22                       @ ../ThirdParty/FreeRTOS/Source/tasks.c:3845:22
	ldr	r0, [r0, #48]
	.loc	3 3845 4 is_stmt 0              @ ../ThirdParty/FreeRTOS/Source/tasks.c:3845:4
	bl	vPortFree
	.loc	3 3846 15 is_stmt 1             @ ../ThirdParty/FreeRTOS/Source/tasks.c:3846:15
	ldr	r0, [sp, #4]
	.loc	3 3846 4 is_stmt 0              @ ../ThirdParty/FreeRTOS/Source/tasks.c:3846:4
	bl	vPortFree
.Ltmp112:
	.loc	3 3875 2 epilogue_begin is_stmt 1 @ ../ThirdParty/FreeRTOS/Source/tasks.c:3875:2
	add	sp, #8
	pop	{r7, pc}
.Ltmp113:
.Lfunc_end4:
	.size	prvDeleteTCB, .Lfunc_end4-prvDeleteTCB
	.cfi_endproc
	.cantunwind
	.fnend
                                        @ -- End function
	.section	.text.prvResetNextTaskUnblockTime,"ax",%progbits
	.p2align	2                               @ -- Begin function prvResetNextTaskUnblockTime
	.type	prvResetNextTaskUnblockTime,%function
	.code	16                              @ @prvResetNextTaskUnblockTime
	.thumb_func
prvResetNextTaskUnblockTime:
.Lfunc_begin5:
	.loc	3 3881 0                        @ ../ThirdParty/FreeRTOS/Source/tasks.c:3881:0
	.fnstart
	.cfi_startproc
@ %bb.0:
	.pad	#4
	sub	sp, #4
	.cfi_def_cfa_offset 4
.Ltmp114:
	.loc	3 3884 6 prologue_end           @ ../ThirdParty/FreeRTOS/Source/tasks.c:3884:6
	movw	r0, :lower16:pxDelayedTaskList
	movt	r0, :upper16:pxDelayedTaskList
	ldr	r0, [r0]
	ldr	r0, [r0]
.Ltmp115:
	.loc	3 3884 6 is_stmt 0              @ ../ThirdParty/FreeRTOS/Source/tasks.c:3884:6
	cbnz	r0, .LBB5_2
	b	.LBB5_1
.LBB5_1:
.Ltmp116:
	.loc	3 3890 24 is_stmt 1             @ ../ThirdParty/FreeRTOS/Source/tasks.c:3890:24
	movw	r1, :lower16:xNextTaskUnblockTime
	movt	r1, :upper16:xNextTaskUnblockTime
	mov.w	r0, #-1
	str	r0, [r1]
	.loc	3 3891 2                        @ ../ThirdParty/FreeRTOS/Source/tasks.c:3891:2
	b	.LBB5_3
.Ltmp117:
.LBB5_2:
	.loc	3 3898 15                       @ ../ThirdParty/FreeRTOS/Source/tasks.c:3898:15
	movw	r0, :lower16:pxDelayedTaskList
	movt	r0, :upper16:pxDelayedTaskList
	ldr	r0, [r0]
	ldr	r0, [r0, #12]
	ldr	r0, [r0, #12]
	.loc	3 3898 13 is_stmt 0             @ ../ThirdParty/FreeRTOS/Source/tasks.c:3898:13
	str	r0, [sp]
	.loc	3 3899 26 is_stmt 1             @ ../ThirdParty/FreeRTOS/Source/tasks.c:3899:26
	ldr	r0, [sp]
	ldr	r0, [r0, #4]
	.loc	3 3899 24 is_stmt 0             @ ../ThirdParty/FreeRTOS/Source/tasks.c:3899:24
	movw	r1, :lower16:xNextTaskUnblockTime
	movt	r1, :upper16:xNextTaskUnblockTime
	str	r0, [r1]
	b	.LBB5_3
.Ltmp118:
.LBB5_3:
	.loc	3 3901 1 epilogue_begin is_stmt 1 @ ../ThirdParty/FreeRTOS/Source/tasks.c:3901:1
	add	sp, #4
	bx	lr
.Ltmp119:
.Lfunc_end5:
	.size	prvResetNextTaskUnblockTime, .Lfunc_end5-prvResetNextTaskUnblockTime
	.cfi_endproc
	.cantunwind
	.fnend
                                        @ -- End function
	.section	.text.vTaskDelayUntil,"ax",%progbits
	.hidden	vTaskDelayUntil                 @ -- Begin function vTaskDelayUntil
	.globl	vTaskDelayUntil
	.p2align	2
	.type	vTaskDelayUntil,%function
	.code	16                              @ @vTaskDelayUntil
	.thumb_func
vTaskDelayUntil:
.Lfunc_begin6:
	.loc	3 1250 0                        @ ../ThirdParty/FreeRTOS/Source/tasks.c:1250:0
	.fnstart
	.cfi_startproc
@ %bb.0:
	.save	{r7, lr}
	push	{r7, lr}
	.cfi_def_cfa_offset 8
	.cfi_offset lr, -4
	.cfi_offset r7, -8
	.pad	#40
	sub	sp, #40
	.cfi_def_cfa_offset 48
	str	r0, [sp, #24]
	str	r1, [sp, #20]
	movs	r0, #0
.Ltmp120:
	.loc	3 1252 30 prologue_end          @ ../ThirdParty/FreeRTOS/Source/tasks.c:1252:30
	str	r0, [sp, #8]
.Ltmp121:
	.loc	3 1254 3                        @ ../ThirdParty/FreeRTOS/Source/tasks.c:1254:3
	ldr	r0, [sp, #24]
.Ltmp122:
	.loc	3 1254 3 is_stmt 0              @ ../ThirdParty/FreeRTOS/Source/tasks.c:1254:3
	cbnz	r0, .LBB6_3
	b	.LBB6_1
.LBB6_1:
.Ltmp123:
	.loc	2 199 2 is_stmt 1               @ ../ThirdParty/FreeRTOS/Source/portable/GCC/ARM_CM4F\portmacro.h:199:2
	@APP
	mov.w	r0, #80
	msr	basepri, r0
	isb	sy
	dsb	sy

	@NO_APP
	str	r0, [sp, #36]
.Ltmp124:
	.loc	3 1254 3                        @ ../ThirdParty/FreeRTOS/Source/tasks.c:1254:3
	b	.LBB6_2
.LBB6_2:                                @ =>This Inner Loop Header: Depth=1
.Ltmp125:
	.loc	3 1254 3 is_stmt 0              @ ../ThirdParty/FreeRTOS/Source/tasks.c:1254:3
	b	.LBB6_2
.Ltmp126:
.LBB6_3:
	.loc	3 1255 3 is_stmt 1              @ ../ThirdParty/FreeRTOS/Source/tasks.c:1255:3
	ldr	r0, [sp, #20]
.Ltmp127:
	.loc	3 1255 3 is_stmt 0              @ ../ThirdParty/FreeRTOS/Source/tasks.c:1255:3
	cbnz	r0, .LBB6_6
	b	.LBB6_4
.LBB6_4:
.Ltmp128:
	.loc	2 199 2 is_stmt 1               @ ../ThirdParty/FreeRTOS/Source/portable/GCC/ARM_CM4F\portmacro.h:199:2
	@APP
	mov.w	r0, #80
	msr	basepri, r0
	isb	sy
	dsb	sy

	@NO_APP
	str	r0, [sp, #32]
.Ltmp129:
	.loc	3 1255 3                        @ ../ThirdParty/FreeRTOS/Source/tasks.c:1255:3
	b	.LBB6_5
.LBB6_5:                                @ =>This Inner Loop Header: Depth=1
.Ltmp130:
	.loc	3 1255 3 is_stmt 0              @ ../ThirdParty/FreeRTOS/Source/tasks.c:1255:3
	b	.LBB6_5
.Ltmp131:
.LBB6_6:
	.loc	3 1256 3 is_stmt 1              @ ../ThirdParty/FreeRTOS/Source/tasks.c:1256:3
	movw	r0, :lower16:uxSchedulerSuspended
	movt	r0, :upper16:uxSchedulerSuspended
	ldr	r0, [r0]
.Ltmp132:
	.loc	3 1256 3 is_stmt 0              @ ../ThirdParty/FreeRTOS/Source/tasks.c:1256:3
	cbz	r0, .LBB6_9
	b	.LBB6_7
.LBB6_7:
.Ltmp133:
	.loc	2 199 2 is_stmt 1               @ ../ThirdParty/FreeRTOS/Source/portable/GCC/ARM_CM4F\portmacro.h:199:2
	@APP
	mov.w	r0, #80
	msr	basepri, r0
	isb	sy
	dsb	sy

	@NO_APP
	str	r0, [sp, #28]
.Ltmp134:
	.loc	3 1256 3                        @ ../ThirdParty/FreeRTOS/Source/tasks.c:1256:3
	b	.LBB6_8
.LBB6_8:                                @ =>This Inner Loop Header: Depth=1
.Ltmp135:
	.loc	3 1256 3 is_stmt 0              @ ../ThirdParty/FreeRTOS/Source/tasks.c:1256:3
	b	.LBB6_8
.Ltmp136:
.LBB6_9:
	.loc	3 1258 3 is_stmt 1              @ ../ThirdParty/FreeRTOS/Source/tasks.c:1258:3
	bl	vTaskSuspendAll
.Ltmp137:
	.loc	3 1262 39                       @ ../ThirdParty/FreeRTOS/Source/tasks.c:1262:39
	movw	r0, :lower16:xTickCount
	movt	r0, :upper16:xTickCount
	ldr	r0, [r0]
	.loc	3 1262 21 is_stmt 0             @ ../ThirdParty/FreeRTOS/Source/tasks.c:1262:21
	str	r0, [sp, #4]
	.loc	3 1265 19 is_stmt 1             @ ../ThirdParty/FreeRTOS/Source/tasks.c:1265:19
	ldr	r0, [sp, #24]
	.loc	3 1265 18 is_stmt 0             @ ../ThirdParty/FreeRTOS/Source/tasks.c:1265:18
	ldr	r0, [r0]
	.loc	3 1265 40                       @ ../ThirdParty/FreeRTOS/Source/tasks.c:1265:40
	ldr	r1, [sp, #20]
	.loc	3 1265 38                       @ ../ThirdParty/FreeRTOS/Source/tasks.c:1265:38
	add	r0, r1
	.loc	3 1265 16                       @ ../ThirdParty/FreeRTOS/Source/tasks.c:1265:16
	str	r0, [sp, #16]
.Ltmp138:
	.loc	3 1267 8 is_stmt 1              @ ../ThirdParty/FreeRTOS/Source/tasks.c:1267:8
	ldr	r0, [sp, #4]
	.loc	3 1267 27 is_stmt 0             @ ../ThirdParty/FreeRTOS/Source/tasks.c:1267:27
	ldr	r1, [sp, #24]
	.loc	3 1267 26                       @ ../ThirdParty/FreeRTOS/Source/tasks.c:1267:26
	ldr	r1, [r1]
.Ltmp139:
	.loc	3 1267 8                        @ ../ThirdParty/FreeRTOS/Source/tasks.c:1267:8
	cmp	r0, r1
	bhs	.LBB6_15
	b	.LBB6_10
.LBB6_10:
.Ltmp140:
	.loc	3 1274 11 is_stmt 1             @ ../ThirdParty/FreeRTOS/Source/tasks.c:1274:11
	ldr	r0, [sp, #16]
	.loc	3 1274 26 is_stmt 0             @ ../ThirdParty/FreeRTOS/Source/tasks.c:1274:26
	ldr	r1, [sp, #24]
	.loc	3 1274 25                       @ ../ThirdParty/FreeRTOS/Source/tasks.c:1274:25
	ldr	r1, [r1]
	.loc	3 1274 47                       @ ../ThirdParty/FreeRTOS/Source/tasks.c:1274:47
	cmp	r0, r1
	bhs	.LBB6_13
	b	.LBB6_11
.LBB6_11:
	.loc	3 1274 52                       @ ../ThirdParty/FreeRTOS/Source/tasks.c:1274:52
	ldr	r0, [sp, #16]
	.loc	3 1274 66                       @ ../ThirdParty/FreeRTOS/Source/tasks.c:1274:66
	ldr	r1, [sp, #4]
.Ltmp141:
	.loc	3 1274 9                        @ ../ThirdParty/FreeRTOS/Source/tasks.c:1274:9
	cmp	r0, r1
	bls	.LBB6_13
	b	.LBB6_12
.LBB6_12:
	.loc	3 0 9                           @ ../ThirdParty/FreeRTOS/Source/tasks.c:0:9
	movs	r0, #1
.Ltmp142:
	.loc	3 1276 19 is_stmt 1             @ ../ThirdParty/FreeRTOS/Source/tasks.c:1276:19
	str	r0, [sp, #8]
	.loc	3 1277 5                        @ ../ThirdParty/FreeRTOS/Source/tasks.c:1277:5
	b	.LBB6_14
.Ltmp143:
.LBB6_13:
	.loc	3 0 5 is_stmt 0                 @ ../ThirdParty/FreeRTOS/Source/tasks.c:0:5
	b	.LBB6_14
.LBB6_14:
	.loc	3 1282 4 is_stmt 1              @ ../ThirdParty/FreeRTOS/Source/tasks.c:1282:4
	b	.LBB6_20
.Ltmp144:
.LBB6_15:
	.loc	3 1288 11                       @ ../ThirdParty/FreeRTOS/Source/tasks.c:1288:11
	ldr	r0, [sp, #16]
	.loc	3 1288 26 is_stmt 0             @ ../ThirdParty/FreeRTOS/Source/tasks.c:1288:26
	ldr	r1, [sp, #24]
	.loc	3 1288 25                       @ ../ThirdParty/FreeRTOS/Source/tasks.c:1288:25
	ldr	r1, [r1]
	.loc	3 1288 47                       @ ../ThirdParty/FreeRTOS/Source/tasks.c:1288:47
	cmp	r0, r1
	blo	.LBB6_17
	b	.LBB6_16
.LBB6_16:
	.loc	3 1288 52                       @ ../ThirdParty/FreeRTOS/Source/tasks.c:1288:52
	ldr	r0, [sp, #16]
	.loc	3 1288 66                       @ ../ThirdParty/FreeRTOS/Source/tasks.c:1288:66
	ldr	r1, [sp, #4]
.Ltmp145:
	.loc	3 1288 9                        @ ../ThirdParty/FreeRTOS/Source/tasks.c:1288:9
	cmp	r0, r1
	bls	.LBB6_18
	b	.LBB6_17
.LBB6_17:
	.loc	3 0 9                           @ ../ThirdParty/FreeRTOS/Source/tasks.c:0:9
	movs	r0, #1
.Ltmp146:
	.loc	3 1290 19 is_stmt 1             @ ../ThirdParty/FreeRTOS/Source/tasks.c:1290:19
	str	r0, [sp, #8]
	.loc	3 1291 5                        @ ../ThirdParty/FreeRTOS/Source/tasks.c:1291:5
	b	.LBB6_19
.Ltmp147:
.LBB6_18:
	.loc	3 0 5 is_stmt 0                 @ ../ThirdParty/FreeRTOS/Source/tasks.c:0:5
	b	.LBB6_19
.LBB6_19:
	b	.LBB6_20
.LBB6_20:
	.loc	3 1299 26 is_stmt 1             @ ../ThirdParty/FreeRTOS/Source/tasks.c:1299:26
	ldr	r0, [sp, #16]
	.loc	3 1299 5 is_stmt 0              @ ../ThirdParty/FreeRTOS/Source/tasks.c:1299:5
	ldr	r1, [sp, #24]
	.loc	3 1299 24                       @ ../ThirdParty/FreeRTOS/Source/tasks.c:1299:24
	str	r0, [r1]
.Ltmp148:
	.loc	3 1301 8 is_stmt 1              @ ../ThirdParty/FreeRTOS/Source/tasks.c:1301:8
	ldr	r0, [sp, #8]
.Ltmp149:
	.loc	3 1301 8 is_stmt 0              @ ../ThirdParty/FreeRTOS/Source/tasks.c:1301:8
	cbz	r0, .LBB6_22
	b	.LBB6_21
.LBB6_21:
.Ltmp150:
	.loc	3 1307 37 is_stmt 1             @ ../ThirdParty/FreeRTOS/Source/tasks.c:1307:37
	ldr	r0, [sp, #16]
	.loc	3 1307 51 is_stmt 0             @ ../ThirdParty/FreeRTOS/Source/tasks.c:1307:51
	ldr	r1, [sp, #4]
	.loc	3 1307 49                       @ ../ThirdParty/FreeRTOS/Source/tasks.c:1307:49
	subs	r0, r0, r1
	movs	r1, #0
	.loc	3 1307 5                        @ ../ThirdParty/FreeRTOS/Source/tasks.c:1307:5
	bl	prvAddCurrentTaskToDelayedList
	.loc	3 1308 4 is_stmt 1              @ ../ThirdParty/FreeRTOS/Source/tasks.c:1308:4
	b	.LBB6_23
.Ltmp151:
.LBB6_22:
	.loc	3 0 4 is_stmt 0                 @ ../ThirdParty/FreeRTOS/Source/tasks.c:0:4
	b	.LBB6_23
.LBB6_23:
	.loc	3 1314 21 is_stmt 1             @ ../ThirdParty/FreeRTOS/Source/tasks.c:1314:21
	bl	xTaskResumeAll
	.loc	3 1314 19 is_stmt 0             @ ../ThirdParty/FreeRTOS/Source/tasks.c:1314:19
	str	r0, [sp, #12]
.Ltmp152:
	.loc	3 1318 7 is_stmt 1              @ ../ThirdParty/FreeRTOS/Source/tasks.c:1318:7
	ldr	r0, [sp, #12]
.Ltmp153:
	.loc	3 1318 7 is_stmt 0              @ ../ThirdParty/FreeRTOS/Source/tasks.c:1318:7
	cbnz	r0, .LBB6_25
	b	.LBB6_24
.LBB6_24:
	.loc	3 0 7                           @ ../ThirdParty/FreeRTOS/Source/tasks.c:0:7
	movw	r1, #60676
	movt	r1, #57344
	mov.w	r0, #268435456
.Ltmp154:
	.loc	3 1320 4 is_stmt 1              @ ../ThirdParty/FreeRTOS/Source/tasks.c:1320:4
	str	r0, [r1]
	@APP
	dsb	sy
	@NO_APP
	@APP
	isb	sy
	@NO_APP
.Ltmp155:
	.loc	3 1321 3                        @ ../ThirdParty/FreeRTOS/Source/tasks.c:1321:3
	b	.LBB6_26
.Ltmp156:
.LBB6_25:
	.loc	3 0 3 is_stmt 0                 @ ../ThirdParty/FreeRTOS/Source/tasks.c:0:3
	b	.LBB6_26
.LBB6_26:
	.loc	3 1326 2 epilogue_begin is_stmt 1 @ ../ThirdParty/FreeRTOS/Source/tasks.c:1326:2
	add	sp, #40
	pop	{r7, pc}
.Ltmp157:
.Lfunc_end6:
	.size	vTaskDelayUntil, .Lfunc_end6-vTaskDelayUntil
	.cfi_endproc
	.cantunwind
	.fnend
                                        @ -- End function
	.section	.text.vTaskSuspendAll,"ax",%progbits
	.hidden	vTaskSuspendAll                 @ -- Begin function vTaskSuspendAll
	.globl	vTaskSuspendAll
	.p2align	2
	.type	vTaskSuspendAll,%function
	.code	16                              @ @vTaskSuspendAll
	.thumb_func
vTaskSuspendAll:
.Lfunc_begin7:
	.fnstart
	.cfi_startproc
@ %bb.0:
	.loc	3 2106 2 prologue_end           @ ../ThirdParty/FreeRTOS/Source/tasks.c:2106:2
	movw	r1, :lower16:uxSchedulerSuspended
	movt	r1, :upper16:uxSchedulerSuspended
	ldr	r0, [r1]
	adds	r0, #1
	str	r0, [r1]
	.loc	3 2107 2                        @ ../ThirdParty/FreeRTOS/Source/tasks.c:2107:2
	@APP
	@NO_APP
	.loc	3 2108 1                        @ ../ThirdParty/FreeRTOS/Source/tasks.c:2108:1
	bx	lr
.Ltmp158:
.Lfunc_end7:
	.size	vTaskSuspendAll, .Lfunc_end7-vTaskSuspendAll
	.cfi_endproc
	.cantunwind
	.fnend
                                        @ -- End function
	.section	.text.prvAddCurrentTaskToDelayedList,"ax",%progbits
	.p2align	2                               @ -- Begin function prvAddCurrentTaskToDelayedList
	.type	prvAddCurrentTaskToDelayedList,%function
	.code	16                              @ @prvAddCurrentTaskToDelayedList
	.thumb_func
prvAddCurrentTaskToDelayedList:
.Lfunc_begin8:
	.loc	3 5082 0                        @ ../ThirdParty/FreeRTOS/Source/tasks.c:5082:0
	.fnstart
	.cfi_startproc
@ %bb.0:
	.save	{r7, lr}
	push	{r7, lr}
	.cfi_def_cfa_offset 8
	.cfi_offset lr, -4
	.cfi_offset r7, -8
	.pad	#16
	sub	sp, #16
	.cfi_def_cfa_offset 24
	str	r0, [sp, #12]
	str	r1, [sp, #8]
.Ltmp159:
	.loc	3 5084 36 prologue_end          @ ../ThirdParty/FreeRTOS/Source/tasks.c:5084:36
	movw	r0, :lower16:xTickCount
	movt	r0, :upper16:xTickCount
	ldr	r0, [r0]
	.loc	3 5084 18 is_stmt 0             @ ../ThirdParty/FreeRTOS/Source/tasks.c:5084:18
	str	r0, [sp]
.Ltmp160:
	.loc	3 5097 23 is_stmt 1             @ ../ThirdParty/FreeRTOS/Source/tasks.c:5097:23
	movw	r0, :lower16:pxCurrentTCB
	movt	r0, :upper16:pxCurrentTCB
	ldr	r0, [r0]
	.loc	3 5097 37 is_stmt 0             @ ../ThirdParty/FreeRTOS/Source/tasks.c:5097:37
	adds	r0, #4
	.loc	3 5097 6                        @ ../ThirdParty/FreeRTOS/Source/tasks.c:5097:6
	bl	uxListRemove
.Ltmp161:
	.loc	3 5097 6                        @ ../ThirdParty/FreeRTOS/Source/tasks.c:5097:6
	cbnz	r0, .LBB8_2
	b	.LBB8_1
.LBB8_1:
.Ltmp162:
	.loc	3 5101 3 is_stmt 1              @ ../ThirdParty/FreeRTOS/Source/tasks.c:5101:3
	movw	r0, :lower16:pxCurrentTCB
	movt	r0, :upper16:pxCurrentTCB
	ldr	r0, [r0]
	ldr	r1, [r0, #44]
	movs	r0, #1
	lsl.w	r2, r0, r1
	movw	r1, :lower16:uxTopReadyPriority
	movt	r1, :upper16:uxTopReadyPriority
	ldr	r0, [r1]
	bics	r0, r2
	str	r0, [r1]
	.loc	3 5102 2                        @ ../ThirdParty/FreeRTOS/Source/tasks.c:5102:2
	b	.LBB8_3
.Ltmp163:
.LBB8_2:
	.loc	3 0 2 is_stmt 0                 @ ../ThirdParty/FreeRTOS/Source/tasks.c:0:2
	b	.LBB8_3
.LBB8_3:
.Ltmp164:
	.loc	3 5110 9 is_stmt 1              @ ../ThirdParty/FreeRTOS/Source/tasks.c:5110:9
	ldr	r0, [sp, #12]
	.loc	3 5110 41 is_stmt 0             @ ../ThirdParty/FreeRTOS/Source/tasks.c:5110:41
	adds	r0, #1
	cbnz	r0, .LBB8_6
	b	.LBB8_4
.LBB8_4:
	.loc	3 5110 46                       @ ../ThirdParty/FreeRTOS/Source/tasks.c:5110:46
	ldr	r0, [sp, #8]
.Ltmp165:
	.loc	3 5110 7                        @ ../ThirdParty/FreeRTOS/Source/tasks.c:5110:7
	cbz	r0, .LBB8_6
	b	.LBB8_5
.LBB8_5:
.Ltmp166:
	.loc	3 5115 44 is_stmt 1             @ ../ThirdParty/FreeRTOS/Source/tasks.c:5115:44
	movw	r0, :lower16:pxCurrentTCB
	movt	r0, :upper16:pxCurrentTCB
	ldr	r0, [r0]
	.loc	3 5115 58 is_stmt 0             @ ../ThirdParty/FreeRTOS/Source/tasks.c:5115:58
	adds	r1, r0, #4
	.loc	3 5115 4                        @ ../ThirdParty/FreeRTOS/Source/tasks.c:5115:4
	movw	r0, :lower16:xSuspendedTaskList
	movt	r0, :upper16:xSuspendedTaskList
	bl	vListInsertEnd
	.loc	3 5116 3 is_stmt 1              @ ../ThirdParty/FreeRTOS/Source/tasks.c:5116:3
	b	.LBB8_13
.Ltmp167:
.LBB8_6:
	.loc	3 5122 18                       @ ../ThirdParty/FreeRTOS/Source/tasks.c:5122:18
	ldr	r0, [sp]
	.loc	3 5122 36 is_stmt 0             @ ../ThirdParty/FreeRTOS/Source/tasks.c:5122:36
	ldr	r1, [sp, #12]
	.loc	3 5122 34                       @ ../ThirdParty/FreeRTOS/Source/tasks.c:5122:34
	add	r0, r1
	.loc	3 5122 16                       @ ../ThirdParty/FreeRTOS/Source/tasks.c:5122:16
	str	r0, [sp, #4]
	.loc	3 5125 4 is_stmt 1              @ ../ThirdParty/FreeRTOS/Source/tasks.c:5125:4
	ldr	r0, [sp, #4]
	movw	r1, :lower16:pxCurrentTCB
	movt	r1, :upper16:pxCurrentTCB
	ldr	r1, [r1]
	str	r0, [r1, #4]
.Ltmp168:
	.loc	3 5127 8                        @ ../ThirdParty/FreeRTOS/Source/tasks.c:5127:8
	ldr	r0, [sp, #4]
	.loc	3 5127 22 is_stmt 0             @ ../ThirdParty/FreeRTOS/Source/tasks.c:5127:22
	ldr	r1, [sp]
.Ltmp169:
	.loc	3 5127 8                        @ ../ThirdParty/FreeRTOS/Source/tasks.c:5127:8
	cmp	r0, r1
	bhs	.LBB8_8
	b	.LBB8_7
.LBB8_7:
.Ltmp170:
	.loc	3 5131 18 is_stmt 1             @ ../ThirdParty/FreeRTOS/Source/tasks.c:5131:18
	movw	r0, :lower16:pxOverflowDelayedTaskList
	movt	r0, :upper16:pxOverflowDelayedTaskList
	ldr	r0, [r0]
	.loc	3 5131 48 is_stmt 0             @ ../ThirdParty/FreeRTOS/Source/tasks.c:5131:48
	movw	r1, :lower16:pxCurrentTCB
	movt	r1, :upper16:pxCurrentTCB
	ldr	r1, [r1]
	.loc	3 5131 62                       @ ../ThirdParty/FreeRTOS/Source/tasks.c:5131:62
	adds	r1, #4
	.loc	3 5131 5                        @ ../ThirdParty/FreeRTOS/Source/tasks.c:5131:5
	bl	vListInsert
	.loc	3 5132 4 is_stmt 1              @ ../ThirdParty/FreeRTOS/Source/tasks.c:5132:4
	b	.LBB8_12
.Ltmp171:
.LBB8_8:
	.loc	3 5137 18                       @ ../ThirdParty/FreeRTOS/Source/tasks.c:5137:18
	movw	r0, :lower16:pxDelayedTaskList
	movt	r0, :upper16:pxDelayedTaskList
	ldr	r0, [r0]
	.loc	3 5137 40 is_stmt 0             @ ../ThirdParty/FreeRTOS/Source/tasks.c:5137:40
	movw	r1, :lower16:pxCurrentTCB
	movt	r1, :upper16:pxCurrentTCB
	ldr	r1, [r1]
	.loc	3 5137 54                       @ ../ThirdParty/FreeRTOS/Source/tasks.c:5137:54
	adds	r1, #4
	.loc	3 5137 5                        @ ../ThirdParty/FreeRTOS/Source/tasks.c:5137:5
	bl	vListInsert
.Ltmp172:
	.loc	3 5142 9 is_stmt 1              @ ../ThirdParty/FreeRTOS/Source/tasks.c:5142:9
	ldr	r0, [sp, #4]
	.loc	3 5142 23 is_stmt 0             @ ../ThirdParty/FreeRTOS/Source/tasks.c:5142:23
	movw	r1, :lower16:xNextTaskUnblockTime
	movt	r1, :upper16:xNextTaskUnblockTime
	ldr	r1, [r1]
.Ltmp173:
	.loc	3 5142 9                        @ ../ThirdParty/FreeRTOS/Source/tasks.c:5142:9
	cmp	r0, r1
	bhs	.LBB8_10
	b	.LBB8_9
.LBB8_9:
.Ltmp174:
	.loc	3 5144 29 is_stmt 1             @ ../ThirdParty/FreeRTOS/Source/tasks.c:5144:29
	ldr	r0, [sp, #4]
	.loc	3 5144 27 is_stmt 0             @ ../ThirdParty/FreeRTOS/Source/tasks.c:5144:27
	movw	r1, :lower16:xNextTaskUnblockTime
	movt	r1, :upper16:xNextTaskUnblockTime
	str	r0, [r1]
	.loc	3 5145 5 is_stmt 1              @ ../ThirdParty/FreeRTOS/Source/tasks.c:5145:5
	b	.LBB8_11
.Ltmp175:
.LBB8_10:
	.loc	3 0 5 is_stmt 0                 @ ../ThirdParty/FreeRTOS/Source/tasks.c:0:5
	b	.LBB8_11
.LBB8_11:
	b	.LBB8_12
.LBB8_12:
	b	.LBB8_13
.LBB8_13:
	.loc	3 5190 1 epilogue_begin is_stmt 1 @ ../ThirdParty/FreeRTOS/Source/tasks.c:5190:1
	add	sp, #16
	pop	{r7, pc}
.Ltmp176:
.Lfunc_end8:
	.size	prvAddCurrentTaskToDelayedList, .Lfunc_end8-prvAddCurrentTaskToDelayedList
	.cfi_endproc
	.cantunwind
	.fnend
                                        @ -- End function
	.section	.text.xTaskResumeAll,"ax",%progbits
	.hidden	xTaskResumeAll                  @ -- Begin function xTaskResumeAll
	.globl	xTaskResumeAll
	.p2align	2
	.type	xTaskResumeAll,%function
	.code	16                              @ @xTaskResumeAll
	.thumb_func
xTaskResumeAll:
.Lfunc_begin9:
	.loc	3 2175 0                        @ ../ThirdParty/FreeRTOS/Source/tasks.c:2175:0
	.fnstart
	.cfi_startproc
@ %bb.0:
	.save	{r7, lr}
	push	{r7, lr}
	.cfi_def_cfa_offset 8
	.cfi_offset lr, -4
	.cfi_offset r7, -8
	.pad	#16
	sub	sp, #16
	.cfi_def_cfa_offset 24
	movs	r0, #0
.Ltmp177:
	.loc	3 2176 8 prologue_end           @ ../ThirdParty/FreeRTOS/Source/tasks.c:2176:8
	str	r0, [sp, #8]
	.loc	3 2177 12                       @ ../ThirdParty/FreeRTOS/Source/tasks.c:2177:12
	str	r0, [sp, #4]
.Ltmp178:
	.loc	3 2181 2                        @ ../ThirdParty/FreeRTOS/Source/tasks.c:2181:2
	movw	r0, :lower16:uxSchedulerSuspended
	movt	r0, :upper16:uxSchedulerSuspended
	ldr	r0, [r0]
.Ltmp179:
	.loc	3 2181 2 is_stmt 0              @ ../ThirdParty/FreeRTOS/Source/tasks.c:2181:2
	cbnz	r0, .LBB9_3
	b	.LBB9_1
.LBB9_1:
.Ltmp180:
	.loc	2 199 2 is_stmt 1               @ ../ThirdParty/FreeRTOS/Source/portable/GCC/ARM_CM4F\portmacro.h:199:2
	@APP
	mov.w	r0, #80
	msr	basepri, r0
	isb	sy
	dsb	sy

	@NO_APP
	str	r0, [sp, #12]
.Ltmp181:
	.loc	3 2181 2                        @ ../ThirdParty/FreeRTOS/Source/tasks.c:2181:2
	b	.LBB9_2
.LBB9_2:                                @ =>This Inner Loop Header: Depth=1
.Ltmp182:
	.loc	3 2181 2 is_stmt 0              @ ../ThirdParty/FreeRTOS/Source/tasks.c:2181:2
	b	.LBB9_2
.Ltmp183:
.LBB9_3:
	.loc	3 2188 2 is_stmt 1              @ ../ThirdParty/FreeRTOS/Source/tasks.c:2188:2
	bl	vPortEnterCritical
.Ltmp184:
	.loc	3 2190 3                        @ ../ThirdParty/FreeRTOS/Source/tasks.c:2190:3
	movw	r0, :lower16:uxSchedulerSuspended
	movt	r0, :upper16:uxSchedulerSuspended
	ldr	r1, [r0]
	subs	r1, #1
	str	r1, [r0]
.Ltmp185:
	.loc	3 2192 7                        @ ../ThirdParty/FreeRTOS/Source/tasks.c:2192:7
	ldr	r0, [r0]
.Ltmp186:
	.loc	3 2192 7 is_stmt 0              @ ../ThirdParty/FreeRTOS/Source/tasks.c:2192:7
	cmp	r0, #0
	bne.w	.LBB9_27
	b	.LBB9_4
.LBB9_4:
.Ltmp187:
	.loc	3 2194 8 is_stmt 1              @ ../ThirdParty/FreeRTOS/Source/tasks.c:2194:8
	movw	r0, :lower16:uxCurrentNumberOfTasks
	movt	r0, :upper16:uxCurrentNumberOfTasks
	ldr	r0, [r0]
.Ltmp188:
	.loc	3 2194 8 is_stmt 0              @ ../ThirdParty/FreeRTOS/Source/tasks.c:2194:8
	cmp	r0, #0
	beq.w	.LBB9_26
	b	.LBB9_5
.LBB9_5:
.Ltmp189:
	.loc	3 2198 5 is_stmt 1              @ ../ThirdParty/FreeRTOS/Source/tasks.c:2198:5
	b	.LBB9_6
.LBB9_6:                                @ =>This Inner Loop Header: Depth=1
	.loc	3 2198 12 is_stmt 0             @ ../ThirdParty/FreeRTOS/Source/tasks.c:2198:12
	movw	r0, :lower16:xPendingReadyList
	movt	r0, :upper16:xPendingReadyList
	ldr	r0, [r0]
	.loc	3 2198 5                        @ ../ThirdParty/FreeRTOS/Source/tasks.c:2198:5
	cbz	r0, .LBB9_11
	b	.LBB9_7
.LBB9_7:                                @   in Loop: Header=BB9_6 Depth=1
.Ltmp190:
	.loc	3 2200 14 is_stmt 1             @ ../ThirdParty/FreeRTOS/Source/tasks.c:2200:14
	movw	r0, :lower16:xPendingReadyList
	movt	r0, :upper16:xPendingReadyList
	ldr	r0, [r0, #12]
	ldr	r0, [r0, #12]
	.loc	3 2200 12 is_stmt 0             @ ../ThirdParty/FreeRTOS/Source/tasks.c:2200:12
	str	r0, [sp, #8]
	.loc	3 2201 32 is_stmt 1             @ ../ThirdParty/FreeRTOS/Source/tasks.c:2201:32
	ldr	r0, [sp, #8]
	.loc	3 2201 39 is_stmt 0             @ ../ThirdParty/FreeRTOS/Source/tasks.c:2201:39
	adds	r0, #24
	.loc	3 2201 15                       @ ../ThirdParty/FreeRTOS/Source/tasks.c:2201:15
	bl	uxListRemove
	.loc	3 2202 32 is_stmt 1             @ ../ThirdParty/FreeRTOS/Source/tasks.c:2202:32
	ldr	r0, [sp, #8]
	.loc	3 2202 39 is_stmt 0             @ ../ThirdParty/FreeRTOS/Source/tasks.c:2202:39
	adds	r0, #4
	.loc	3 2202 15                       @ ../ThirdParty/FreeRTOS/Source/tasks.c:2202:15
	bl	uxListRemove
	.loc	3 2203 6 is_stmt 1              @ ../ThirdParty/FreeRTOS/Source/tasks.c:2203:6
	ldr	r0, [sp, #8]
	ldr	r1, [r0, #44]
	movs	r0, #1
	lsl.w	r2, r0, r1
	movw	r1, :lower16:uxTopReadyPriority
	movt	r1, :upper16:uxTopReadyPriority
	ldr	r0, [r1]
	orrs	r0, r2
	str	r0, [r1]
	ldr	r1, [sp, #8]
	ldr	r0, [r1, #44]
	add.w	r2, r0, r0, lsl #2
	movw	r0, :lower16:pxReadyTasksLists
	movt	r0, :upper16:pxReadyTasksLists
	add.w	r0, r0, r2, lsl #2
	adds	r1, #4
	bl	vListInsertEnd
.Ltmp191:
	.loc	3 2207 10                       @ ../ThirdParty/FreeRTOS/Source/tasks.c:2207:10
	ldr	r0, [sp, #8]
	.loc	3 2207 17 is_stmt 0             @ ../ThirdParty/FreeRTOS/Source/tasks.c:2207:17
	ldr	r0, [r0, #44]
	.loc	3 2207 31                       @ ../ThirdParty/FreeRTOS/Source/tasks.c:2207:31
	movw	r1, :lower16:pxCurrentTCB
	movt	r1, :upper16:pxCurrentTCB
	ldr	r1, [r1]
	.loc	3 2207 45                       @ ../ThirdParty/FreeRTOS/Source/tasks.c:2207:45
	ldr	r1, [r1, #44]
.Ltmp192:
	.loc	3 2207 10                       @ ../ThirdParty/FreeRTOS/Source/tasks.c:2207:10
	cmp	r0, r1
	blo	.LBB9_9
	b	.LBB9_8
.LBB9_8:                                @   in Loop: Header=BB9_6 Depth=1
.Ltmp193:
	.loc	3 2209 21 is_stmt 1             @ ../ThirdParty/FreeRTOS/Source/tasks.c:2209:21
	movw	r1, :lower16:xYieldPending
	movt	r1, :upper16:xYieldPending
	movs	r0, #1
	str	r0, [r1]
	.loc	3 2210 6                        @ ../ThirdParty/FreeRTOS/Source/tasks.c:2210:6
	b	.LBB9_10
.Ltmp194:
.LBB9_9:                                @   in Loop: Header=BB9_6 Depth=1
	.loc	3 0 6 is_stmt 0                 @ ../ThirdParty/FreeRTOS/Source/tasks.c:0:6
	b	.LBB9_10
.LBB9_10:                               @   in Loop: Header=BB9_6 Depth=1
	.loc	3 2198 5 is_stmt 1              @ ../ThirdParty/FreeRTOS/Source/tasks.c:2198:5
	b	.LBB9_6
.LBB9_11:
.Ltmp195:
	.loc	3 2217 9                        @ ../ThirdParty/FreeRTOS/Source/tasks.c:2217:9
	ldr	r0, [sp, #8]
.Ltmp196:
	.loc	3 2217 9 is_stmt 0              @ ../ThirdParty/FreeRTOS/Source/tasks.c:2217:9
	cbz	r0, .LBB9_13
	b	.LBB9_12
.LBB9_12:
.Ltmp197:
	.loc	3 2225 6 is_stmt 1              @ ../ThirdParty/FreeRTOS/Source/tasks.c:2225:6
	bl	prvResetNextTaskUnblockTime
	.loc	3 2226 5                        @ ../ThirdParty/FreeRTOS/Source/tasks.c:2226:5
	b	.LBB9_13
.Ltmp198:
.LBB9_13:
	.loc	3 2233 35                       @ ../ThirdParty/FreeRTOS/Source/tasks.c:2233:35
	movw	r0, :lower16:uxPendedTicks
	movt	r0, :upper16:uxPendedTicks
	ldr	r0, [r0]
	.loc	3 2233 18 is_stmt 0             @ ../ThirdParty/FreeRTOS/Source/tasks.c:2233:18
	str	r0, [sp]
.Ltmp199:
	.loc	3 2235 10 is_stmt 1             @ ../ThirdParty/FreeRTOS/Source/tasks.c:2235:10
	ldr	r0, [sp]
.Ltmp200:
	.loc	3 2235 10 is_stmt 0             @ ../ThirdParty/FreeRTOS/Source/tasks.c:2235:10
	cbz	r0, .LBB9_21
	b	.LBB9_14
.LBB9_14:
.Ltmp201:
	.loc	3 2237 7 is_stmt 1              @ ../ThirdParty/FreeRTOS/Source/tasks.c:2237:7
	b	.LBB9_15
.LBB9_15:                               @ =>This Inner Loop Header: Depth=1
.Ltmp202:
	.loc	3 2239 12                       @ ../ThirdParty/FreeRTOS/Source/tasks.c:2239:12
	bl	xTaskIncrementTick
.Ltmp203:
	.loc	3 2239 12 is_stmt 0             @ ../ThirdParty/FreeRTOS/Source/tasks.c:2239:12
	cbz	r0, .LBB9_17
	b	.LBB9_16
.LBB9_16:                               @   in Loop: Header=BB9_15 Depth=1
.Ltmp204:
	.loc	3 2241 23 is_stmt 1             @ ../ThirdParty/FreeRTOS/Source/tasks.c:2241:23
	movw	r1, :lower16:xYieldPending
	movt	r1, :upper16:xYieldPending
	movs	r0, #1
	str	r0, [r1]
	.loc	3 2242 8                        @ ../ThirdParty/FreeRTOS/Source/tasks.c:2242:8
	b	.LBB9_18
.Ltmp205:
.LBB9_17:                               @   in Loop: Header=BB9_15 Depth=1
	.loc	3 0 8 is_stmt 0                 @ ../ThirdParty/FreeRTOS/Source/tasks.c:0:8
	b	.LBB9_18
.LBB9_18:                               @   in Loop: Header=BB9_15 Depth=1
	.loc	3 2247 8 is_stmt 1              @ ../ThirdParty/FreeRTOS/Source/tasks.c:2247:8
	ldr	r0, [sp]
	subs	r0, #1
	str	r0, [sp]
	.loc	3 2248 7                        @ ../ThirdParty/FreeRTOS/Source/tasks.c:2248:7
	b	.LBB9_19
.Ltmp206:
.LBB9_19:                               @   in Loop: Header=BB9_15 Depth=1
	.loc	3 2248 16 is_stmt 0             @ ../ThirdParty/FreeRTOS/Source/tasks.c:2248:16
	ldr	r0, [sp]
.Ltmp207:
	.loc	3 2248 7                        @ ../ThirdParty/FreeRTOS/Source/tasks.c:2248:7
	cmp	r0, #0
	bne	.LBB9_15
	b	.LBB9_20
.Ltmp208:
.LBB9_20:
	.loc	3 2250 21 is_stmt 1             @ ../ThirdParty/FreeRTOS/Source/tasks.c:2250:21
	movw	r1, :lower16:uxPendedTicks
	movt	r1, :upper16:uxPendedTicks
	movs	r0, #0
	str	r0, [r1]
	.loc	3 2251 6                        @ ../ThirdParty/FreeRTOS/Source/tasks.c:2251:6
	b	.LBB9_22
.Ltmp209:
.LBB9_21:
	.loc	3 0 6 is_stmt 0                 @ ../ThirdParty/FreeRTOS/Source/tasks.c:0:6
	b	.LBB9_22
.LBB9_22:
.Ltmp210:
	.loc	3 2258 9 is_stmt 1              @ ../ThirdParty/FreeRTOS/Source/tasks.c:2258:9
	movw	r0, :lower16:xYieldPending
	movt	r0, :upper16:xYieldPending
	ldr	r0, [r0]
.Ltmp211:
	.loc	3 2258 9 is_stmt 0              @ ../ThirdParty/FreeRTOS/Source/tasks.c:2258:9
	cbz	r0, .LBB9_24
	b	.LBB9_23
.LBB9_23:
	.loc	3 0 9                           @ ../ThirdParty/FreeRTOS/Source/tasks.c:0:9
	movs	r0, #1
.Ltmp212:
	.loc	3 2262 23 is_stmt 1             @ ../ThirdParty/FreeRTOS/Source/tasks.c:2262:23
	str	r0, [sp, #4]
	movw	r1, #60676
	movt	r1, #57344
	mov.w	r0, #268435456
.Ltmp213:
	.loc	3 2265 6                        @ ../ThirdParty/FreeRTOS/Source/tasks.c:2265:6
	str	r0, [r1]
	@APP
	dsb	sy
	@NO_APP
	@APP
	isb	sy
	@NO_APP
.Ltmp214:
	.loc	3 2266 5                        @ ../ThirdParty/FreeRTOS/Source/tasks.c:2266:5
	b	.LBB9_25
.Ltmp215:
.LBB9_24:
	.loc	3 0 5 is_stmt 0                 @ ../ThirdParty/FreeRTOS/Source/tasks.c:0:5
	b	.LBB9_25
.LBB9_25:
	.loc	3 2271 4 is_stmt 1              @ ../ThirdParty/FreeRTOS/Source/tasks.c:2271:4
	b	.LBB9_26
.Ltmp216:
.LBB9_26:
	.loc	3 2272 3                        @ ../ThirdParty/FreeRTOS/Source/tasks.c:2272:3
	b	.LBB9_28
.Ltmp217:
.LBB9_27:
	.loc	3 0 3 is_stmt 0                 @ ../ThirdParty/FreeRTOS/Source/tasks.c:0:3
	b	.LBB9_28
.LBB9_28:
	.loc	3 2278 2 is_stmt 1              @ ../ThirdParty/FreeRTOS/Source/tasks.c:2278:2
	bl	vPortExitCritical
	.loc	3 2280 9                        @ ../ThirdParty/FreeRTOS/Source/tasks.c:2280:9
	ldr	r0, [sp, #4]
	.loc	3 2280 2 epilogue_begin is_stmt 0 @ ../ThirdParty/FreeRTOS/Source/tasks.c:2280:2
	add	sp, #16
	pop	{r7, pc}
.Ltmp218:
.Lfunc_end9:
	.size	xTaskResumeAll, .Lfunc_end9-xTaskResumeAll
	.cfi_endproc
	.cantunwind
	.fnend
                                        @ -- End function
	.section	.text.vTaskDelay,"ax",%progbits
	.hidden	vTaskDelay                      @ -- Begin function vTaskDelay
	.globl	vTaskDelay
	.p2align	2
	.type	vTaskDelay,%function
	.code	16                              @ @vTaskDelay
	.thumb_func
vTaskDelay:
.Lfunc_begin10:
	.loc	3 1334 0 is_stmt 1              @ ../ThirdParty/FreeRTOS/Source/tasks.c:1334:0
	.fnstart
	.cfi_startproc
@ %bb.0:
	.save	{r7, lr}
	push	{r7, lr}
	.cfi_def_cfa_offset 8
	.cfi_offset lr, -4
	.cfi_offset r7, -8
	.pad	#16
	sub	sp, #16
	.cfi_def_cfa_offset 24
	str	r0, [sp, #8]
	movs	r0, #0
.Ltmp219:
	.loc	3 1335 13 prologue_end          @ ../ThirdParty/FreeRTOS/Source/tasks.c:1335:13
	str	r0, [sp, #4]
.Ltmp220:
	.loc	3 1338 7                        @ ../ThirdParty/FreeRTOS/Source/tasks.c:1338:7
	ldr	r0, [sp, #8]
.Ltmp221:
	.loc	3 1338 7 is_stmt 0              @ ../ThirdParty/FreeRTOS/Source/tasks.c:1338:7
	cbz	r0, .LBB10_5
	b	.LBB10_1
.LBB10_1:
.Ltmp222:
	.loc	3 1340 4 is_stmt 1              @ ../ThirdParty/FreeRTOS/Source/tasks.c:1340:4
	movw	r0, :lower16:uxSchedulerSuspended
	movt	r0, :upper16:uxSchedulerSuspended
	ldr	r0, [r0]
.Ltmp223:
	.loc	3 1340 4 is_stmt 0              @ ../ThirdParty/FreeRTOS/Source/tasks.c:1340:4
	cbz	r0, .LBB10_4
	b	.LBB10_2
.LBB10_2:
.Ltmp224:
	.loc	2 199 2 is_stmt 1               @ ../ThirdParty/FreeRTOS/Source/portable/GCC/ARM_CM4F\portmacro.h:199:2
	@APP
	mov.w	r0, #80
	msr	basepri, r0
	isb	sy
	dsb	sy

	@NO_APP
	str	r0, [sp, #12]
.Ltmp225:
	.loc	3 1340 4                        @ ../ThirdParty/FreeRTOS/Source/tasks.c:1340:4
	b	.LBB10_3
.LBB10_3:                               @ =>This Inner Loop Header: Depth=1
.Ltmp226:
	.loc	3 1340 4 is_stmt 0              @ ../ThirdParty/FreeRTOS/Source/tasks.c:1340:4
	b	.LBB10_3
.Ltmp227:
.LBB10_4:
	.loc	3 1341 4 is_stmt 1              @ ../ThirdParty/FreeRTOS/Source/tasks.c:1341:4
	bl	vTaskSuspendAll
.Ltmp228:
	.loc	3 1352 37                       @ ../ThirdParty/FreeRTOS/Source/tasks.c:1352:37
	ldr	r0, [sp, #8]
	movs	r1, #0
	.loc	3 1352 5 is_stmt 0              @ ../ThirdParty/FreeRTOS/Source/tasks.c:1352:5
	bl	prvAddCurrentTaskToDelayedList
.Ltmp229:
	.loc	3 1354 22 is_stmt 1             @ ../ThirdParty/FreeRTOS/Source/tasks.c:1354:22
	bl	xTaskResumeAll
	.loc	3 1354 20 is_stmt 0             @ ../ThirdParty/FreeRTOS/Source/tasks.c:1354:20
	str	r0, [sp, #4]
	.loc	3 1355 3 is_stmt 1              @ ../ThirdParty/FreeRTOS/Source/tasks.c:1355:3
	b	.LBB10_6
.Ltmp230:
.LBB10_5:
	.loc	3 0 3 is_stmt 0                 @ ../ThirdParty/FreeRTOS/Source/tasks.c:0:3
	b	.LBB10_6
.LBB10_6:
.Ltmp231:
	.loc	3 1363 7 is_stmt 1              @ ../ThirdParty/FreeRTOS/Source/tasks.c:1363:7
	ldr	r0, [sp, #4]
.Ltmp232:
	.loc	3 1363 7 is_stmt 0              @ ../ThirdParty/FreeRTOS/Source/tasks.c:1363:7
	cbnz	r0, .LBB10_8
	b	.LBB10_7
.LBB10_7:
	.loc	3 0 7                           @ ../ThirdParty/FreeRTOS/Source/tasks.c:0:7
	movw	r1, #60676
	movt	r1, #57344
	mov.w	r0, #268435456
.Ltmp233:
	.loc	3 1365 4 is_stmt 1              @ ../ThirdParty/FreeRTOS/Source/tasks.c:1365:4
	str	r0, [r1]
	@APP
	dsb	sy
	@NO_APP
	@APP
	isb	sy
	@NO_APP
.Ltmp234:
	.loc	3 1366 3                        @ ../ThirdParty/FreeRTOS/Source/tasks.c:1366:3
	b	.LBB10_9
.Ltmp235:
.LBB10_8:
	.loc	3 0 3 is_stmt 0                 @ ../ThirdParty/FreeRTOS/Source/tasks.c:0:3
	b	.LBB10_9
.LBB10_9:
	.loc	3 1371 2 epilogue_begin is_stmt 1 @ ../ThirdParty/FreeRTOS/Source/tasks.c:1371:2
	add	sp, #16
	pop	{r7, pc}
.Ltmp236:
.Lfunc_end10:
	.size	vTaskDelay, .Lfunc_end10-vTaskDelay
	.cfi_endproc
	.cantunwind
	.fnend
                                        @ -- End function
	.section	.text.uxTaskPriorityGet,"ax",%progbits
	.hidden	uxTaskPriorityGet               @ -- Begin function uxTaskPriorityGet
	.globl	uxTaskPriorityGet
	.p2align	2
	.type	uxTaskPriorityGet,%function
	.code	16                              @ @uxTaskPriorityGet
	.thumb_func
uxTaskPriorityGet:
.Lfunc_begin11:
	.loc	3 1471 0                        @ ../ThirdParty/FreeRTOS/Source/tasks.c:1471:0
	.fnstart
	.cfi_startproc
@ %bb.0:
	.save	{r7, lr}
	push	{r7, lr}
	.cfi_def_cfa_offset 8
	.cfi_offset lr, -4
	.cfi_offset r7, -8
	.pad	#16
	sub	sp, #16
	.cfi_def_cfa_offset 24
	str	r0, [sp, #12]
.Ltmp237:
	.loc	3 1475 3 prologue_end           @ ../ThirdParty/FreeRTOS/Source/tasks.c:1475:3
	bl	vPortEnterCritical
.Ltmp238:
	.loc	3 1479 12                       @ ../ThirdParty/FreeRTOS/Source/tasks.c:1479:12
	ldr	r0, [sp, #12]
	cbnz	r0, .LBB11_2
	b	.LBB11_1
.LBB11_1:
	movw	r0, :lower16:pxCurrentTCB
	movt	r0, :upper16:pxCurrentTCB
	ldr	r0, [r0]
	str	r0, [sp]                        @ 4-byte Spill
	b	.LBB11_3
.LBB11_2:
	ldr	r0, [sp, #12]
	str	r0, [sp]                        @ 4-byte Spill
	b	.LBB11_3
.LBB11_3:
	ldr	r0, [sp]                        @ 4-byte Reload
	.loc	3 1479 10 is_stmt 0             @ ../ThirdParty/FreeRTOS/Source/tasks.c:1479:10
	str	r0, [sp, #8]
	.loc	3 1480 15 is_stmt 1             @ ../ThirdParty/FreeRTOS/Source/tasks.c:1480:15
	ldr	r0, [sp, #8]
	.loc	3 1480 22 is_stmt 0             @ ../ThirdParty/FreeRTOS/Source/tasks.c:1480:22
	ldr	r0, [r0, #44]
	.loc	3 1480 13                       @ ../ThirdParty/FreeRTOS/Source/tasks.c:1480:13
	str	r0, [sp, #4]
.Ltmp239:
	.loc	3 1482 3 is_stmt 1              @ ../ThirdParty/FreeRTOS/Source/tasks.c:1482:3
	bl	vPortExitCritical
	.loc	3 1484 10                       @ ../ThirdParty/FreeRTOS/Source/tasks.c:1484:10
	ldr	r0, [sp, #4]
	.loc	3 1484 3 epilogue_begin is_stmt 0 @ ../ThirdParty/FreeRTOS/Source/tasks.c:1484:3
	add	sp, #16
	pop	{r7, pc}
.Ltmp240:
.Lfunc_end11:
	.size	uxTaskPriorityGet, .Lfunc_end11-uxTaskPriorityGet
	.cfi_endproc
	.cantunwind
	.fnend
                                        @ -- End function
	.section	.text.uxTaskPriorityGetFromISR,"ax",%progbits
	.hidden	uxTaskPriorityGetFromISR        @ -- Begin function uxTaskPriorityGetFromISR
	.globl	uxTaskPriorityGetFromISR
	.p2align	2
	.type	uxTaskPriorityGetFromISR,%function
	.code	16                              @ @uxTaskPriorityGetFromISR
	.thumb_func
uxTaskPriorityGetFromISR:
.Lfunc_begin12:
	.loc	3 1493 0 is_stmt 1              @ ../ThirdParty/FreeRTOS/Source/tasks.c:1493:0
	.fnstart
	.cfi_startproc
@ %bb.0:
	.save	{r7, lr}
	push	{r7, lr}
	.cfi_def_cfa_offset 8
	.cfi_offset lr, -4
	.cfi_offset r7, -8
	.pad	#32
	sub	sp, #32
	.cfi_def_cfa_offset 40
	str	r0, [sp, #16]
.Ltmp241:
	.loc	3 1513 3 prologue_end           @ ../ThirdParty/FreeRTOS/Source/tasks.c:1513:3
	bl	vPortValidateInterruptPriority
.Ltmp242:
	.loc	2 215 2                         @ ../ThirdParty/FreeRTOS/Source/portable/GCC/ARM_CM4F\portmacro.h:215:2
	@APP
	mrs	r1, basepri
	mov.w	r0, #80
	msr	basepri, r0
	isb	sy
	dsb	sy

	@NO_APP
	str	r1, [sp, #24]
	str	r0, [sp, #20]
	.loc	2 227 9                         @ ../ThirdParty/FreeRTOS/Source/portable/GCC/ARM_CM4F\portmacro.h:227:9
	ldr	r0, [sp, #24]
.Ltmp243:
	.loc	3 1515 25                       @ ../ThirdParty/FreeRTOS/Source/tasks.c:1515:25
	str	r0, [sp, #4]
.Ltmp244:
	.loc	3 1519 12                       @ ../ThirdParty/FreeRTOS/Source/tasks.c:1519:12
	ldr	r0, [sp, #16]
	cbnz	r0, .LBB12_2
	b	.LBB12_1
.LBB12_1:
	movw	r0, :lower16:pxCurrentTCB
	movt	r0, :upper16:pxCurrentTCB
	ldr	r0, [r0]
	str	r0, [sp]                        @ 4-byte Spill
	b	.LBB12_3
.LBB12_2:
	ldr	r0, [sp, #16]
	str	r0, [sp]                        @ 4-byte Spill
	b	.LBB12_3
.LBB12_3:
	ldr	r0, [sp]                        @ 4-byte Reload
	.loc	3 1519 10 is_stmt 0             @ ../ThirdParty/FreeRTOS/Source/tasks.c:1519:10
	str	r0, [sp, #12]
	.loc	3 1520 15 is_stmt 1             @ ../ThirdParty/FreeRTOS/Source/tasks.c:1520:15
	ldr	r0, [sp, #12]
	.loc	3 1520 22 is_stmt 0             @ ../ThirdParty/FreeRTOS/Source/tasks.c:1520:22
	ldr	r0, [r0, #44]
	.loc	3 1520 13                       @ ../ThirdParty/FreeRTOS/Source/tasks.c:1520:13
	str	r0, [sp, #8]
.Ltmp245:
	.loc	3 1522 3 is_stmt 1              @ ../ThirdParty/FreeRTOS/Source/tasks.c:1522:3
	ldr	r0, [sp, #4]
	str	r0, [sp, #28]
.Ltmp246:
	.loc	2 235 32                        @ ../ThirdParty/FreeRTOS/Source/portable/GCC/ARM_CM4F\portmacro.h:235:32
	ldr	r0, [sp, #28]
	.loc	2 233 2                         @ ../ThirdParty/FreeRTOS/Source/portable/GCC/ARM_CM4F\portmacro.h:233:2
	@APP
	msr	basepri, r0
	@NO_APP
.Ltmp247:
	.loc	3 1524 10                       @ ../ThirdParty/FreeRTOS/Source/tasks.c:1524:10
	ldr	r0, [sp, #8]
	.loc	3 1524 3 epilogue_begin is_stmt 0 @ ../ThirdParty/FreeRTOS/Source/tasks.c:1524:3
	add	sp, #32
	pop	{r7, pc}
.Ltmp248:
.Lfunc_end12:
	.size	uxTaskPriorityGetFromISR, .Lfunc_end12-uxTaskPriorityGetFromISR
	.cfi_endproc
	.cantunwind
	.fnend
                                        @ -- End function
	.section	.text.vTaskPrioritySet,"ax",%progbits
	.hidden	vTaskPrioritySet                @ -- Begin function vTaskPrioritySet
	.globl	vTaskPrioritySet
	.p2align	2
	.type	vTaskPrioritySet,%function
	.code	16                              @ @vTaskPrioritySet
	.thumb_func
vTaskPrioritySet:
.Lfunc_begin13:
	.loc	3 1533 0 is_stmt 1              @ ../ThirdParty/FreeRTOS/Source/tasks.c:1533:0
	.fnstart
	.cfi_startproc
@ %bb.0:
	.save	{r7, lr}
	push	{r7, lr}
	.cfi_def_cfa_offset 8
	.cfi_offset lr, -4
	.cfi_offset r7, -8
	.pad	#32
	sub	sp, #32
	.cfi_def_cfa_offset 40
	str	r0, [sp, #24]
	str	r1, [sp, #20]
	movs	r0, #0
.Ltmp249:
	.loc	3 1536 13 prologue_end          @ ../ThirdParty/FreeRTOS/Source/tasks.c:1536:13
	str	r0, [sp, #4]
.Ltmp250:
	.loc	3 1538 3                        @ ../ThirdParty/FreeRTOS/Source/tasks.c:1538:3
	ldr	r0, [sp, #20]
.Ltmp251:
	.loc	3 1538 3 is_stmt 0              @ ../ThirdParty/FreeRTOS/Source/tasks.c:1538:3
	cmp	r0, #7
	blo	.LBB13_3
	b	.LBB13_1
.LBB13_1:
.Ltmp252:
	.loc	2 199 2 is_stmt 1               @ ../ThirdParty/FreeRTOS/Source/portable/GCC/ARM_CM4F\portmacro.h:199:2
	@APP
	mov.w	r0, #80
	msr	basepri, r0
	isb	sy
	dsb	sy

	@NO_APP
	str	r0, [sp, #28]
.Ltmp253:
	.loc	3 1538 3                        @ ../ThirdParty/FreeRTOS/Source/tasks.c:1538:3
	b	.LBB13_2
.LBB13_2:                               @ =>This Inner Loop Header: Depth=1
.Ltmp254:
	.loc	3 1538 3 is_stmt 0              @ ../ThirdParty/FreeRTOS/Source/tasks.c:1538:3
	b	.LBB13_2
.Ltmp255:
.LBB13_3:
	.loc	3 1541 7 is_stmt 1              @ ../ThirdParty/FreeRTOS/Source/tasks.c:1541:7
	ldr	r0, [sp, #20]
.Ltmp256:
	.loc	3 1541 7 is_stmt 0              @ ../ThirdParty/FreeRTOS/Source/tasks.c:1541:7
	cmp	r0, #7
	blo	.LBB13_5
	b	.LBB13_4
.LBB13_4:
	.loc	3 0 7                           @ ../ThirdParty/FreeRTOS/Source/tasks.c:0:7
	movs	r0, #6
.Ltmp257:
	.loc	3 1543 18 is_stmt 1             @ ../ThirdParty/FreeRTOS/Source/tasks.c:1543:18
	str	r0, [sp, #20]
	.loc	3 1544 3                        @ ../ThirdParty/FreeRTOS/Source/tasks.c:1544:3
	b	.LBB13_6
.Ltmp258:
.LBB13_5:
	.loc	3 0 3 is_stmt 0                 @ ../ThirdParty/FreeRTOS/Source/tasks.c:0:3
	b	.LBB13_6
.LBB13_6:
	.loc	3 1550 3 is_stmt 1              @ ../ThirdParty/FreeRTOS/Source/tasks.c:1550:3
	bl	vPortEnterCritical
.Ltmp259:
	.loc	3 1554 12                       @ ../ThirdParty/FreeRTOS/Source/tasks.c:1554:12
	ldr	r0, [sp, #24]
	cbnz	r0, .LBB13_8
	b	.LBB13_7
.LBB13_7:
	movw	r0, :lower16:pxCurrentTCB
	movt	r0, :upper16:pxCurrentTCB
	ldr	r0, [r0]
	str	r0, [sp]                        @ 4-byte Spill
	b	.LBB13_9
.LBB13_8:
	ldr	r0, [sp, #24]
	str	r0, [sp]                        @ 4-byte Spill
	b	.LBB13_9
.LBB13_9:
	ldr	r0, [sp]                        @ 4-byte Reload
	.loc	3 1554 10 is_stmt 0             @ ../ThirdParty/FreeRTOS/Source/tasks.c:1554:10
	str	r0, [sp, #16]
.Ltmp260:
	.loc	3 1560 29 is_stmt 1             @ ../ThirdParty/FreeRTOS/Source/tasks.c:1560:29
	ldr	r0, [sp, #16]
	.loc	3 1560 36 is_stmt 0             @ ../ThirdParty/FreeRTOS/Source/tasks.c:1560:36
	ldr	r0, [r0, #68]
	.loc	3 1560 27                       @ ../ThirdParty/FreeRTOS/Source/tasks.c:1560:27
	str	r0, [sp, #12]
.Ltmp261:
	.loc	3 1568 8 is_stmt 1              @ ../ThirdParty/FreeRTOS/Source/tasks.c:1568:8
	ldr	r0, [sp, #12]
	.loc	3 1568 33 is_stmt 0             @ ../ThirdParty/FreeRTOS/Source/tasks.c:1568:33
	ldr	r1, [sp, #20]
.Ltmp262:
	.loc	3 1568 8                        @ ../ThirdParty/FreeRTOS/Source/tasks.c:1568:8
	cmp	r0, r1
	beq.w	.LBB13_38
	b	.LBB13_10
.LBB13_10:
.Ltmp263:
	.loc	3 1572 9 is_stmt 1              @ ../ThirdParty/FreeRTOS/Source/tasks.c:1572:9
	ldr	r0, [sp, #20]
	.loc	3 1572 25 is_stmt 0             @ ../ThirdParty/FreeRTOS/Source/tasks.c:1572:25
	ldr	r1, [sp, #12]
.Ltmp264:
	.loc	3 1572 9                        @ ../ThirdParty/FreeRTOS/Source/tasks.c:1572:9
	cmp	r0, r1
	bls	.LBB13_18
	b	.LBB13_11
.LBB13_11:
.Ltmp265:
	.loc	3 1574 10 is_stmt 1             @ ../ThirdParty/FreeRTOS/Source/tasks.c:1574:10
	ldr	r0, [sp, #16]
	.loc	3 1574 19 is_stmt 0             @ ../ThirdParty/FreeRTOS/Source/tasks.c:1574:19
	movw	r1, :lower16:pxCurrentTCB
	movt	r1, :upper16:pxCurrentTCB
	ldr	r1, [r1]
.Ltmp266:
	.loc	3 1574 10                       @ ../ThirdParty/FreeRTOS/Source/tasks.c:1574:10
	cmp	r0, r1
	beq	.LBB13_16
	b	.LBB13_12
.LBB13_12:
.Ltmp267:
	.loc	3 1579 11 is_stmt 1             @ ../ThirdParty/FreeRTOS/Source/tasks.c:1579:11
	ldr	r0, [sp, #20]
	.loc	3 1579 28 is_stmt 0             @ ../ThirdParty/FreeRTOS/Source/tasks.c:1579:28
	movw	r1, :lower16:pxCurrentTCB
	movt	r1, :upper16:pxCurrentTCB
	ldr	r1, [r1]
	.loc	3 1579 42                       @ ../ThirdParty/FreeRTOS/Source/tasks.c:1579:42
	ldr	r1, [r1, #44]
.Ltmp268:
	.loc	3 1579 11                       @ ../ThirdParty/FreeRTOS/Source/tasks.c:1579:11
	cmp	r0, r1
	blo	.LBB13_14
	b	.LBB13_13
.LBB13_13:
	.loc	3 0 11                          @ ../ThirdParty/FreeRTOS/Source/tasks.c:0:11
	movs	r0, #1
.Ltmp269:
	.loc	3 1581 23 is_stmt 1             @ ../ThirdParty/FreeRTOS/Source/tasks.c:1581:23
	str	r0, [sp, #4]
	.loc	3 1582 7                        @ ../ThirdParty/FreeRTOS/Source/tasks.c:1582:7
	b	.LBB13_15
.Ltmp270:
.LBB13_14:
	.loc	3 0 7 is_stmt 0                 @ ../ThirdParty/FreeRTOS/Source/tasks.c:0:7
	b	.LBB13_15
.LBB13_15:
	.loc	3 1587 6 is_stmt 1              @ ../ThirdParty/FreeRTOS/Source/tasks.c:1587:6
	b	.LBB13_17
.Ltmp271:
.LBB13_16:
	.loc	3 0 6 is_stmt 0                 @ ../ThirdParty/FreeRTOS/Source/tasks.c:0:6
	b	.LBB13_17
.LBB13_17:
	.loc	3 1594 5 is_stmt 1              @ ../ThirdParty/FreeRTOS/Source/tasks.c:1594:5
	b	.LBB13_22
.Ltmp272:
.LBB13_18:
	.loc	3 1595 14                       @ ../ThirdParty/FreeRTOS/Source/tasks.c:1595:14
	ldr	r0, [sp, #16]
	.loc	3 1595 23 is_stmt 0             @ ../ThirdParty/FreeRTOS/Source/tasks.c:1595:23
	movw	r1, :lower16:pxCurrentTCB
	movt	r1, :upper16:pxCurrentTCB
	ldr	r1, [r1]
.Ltmp273:
	.loc	3 1595 14                       @ ../ThirdParty/FreeRTOS/Source/tasks.c:1595:14
	cmp	r0, r1
	bne	.LBB13_20
	b	.LBB13_19
.LBB13_19:
	.loc	3 0 14                          @ ../ThirdParty/FreeRTOS/Source/tasks.c:0:14
	movs	r0, #1
.Ltmp274:
	.loc	3 1600 21 is_stmt 1             @ ../ThirdParty/FreeRTOS/Source/tasks.c:1600:21
	str	r0, [sp, #4]
	.loc	3 1601 5                        @ ../ThirdParty/FreeRTOS/Source/tasks.c:1601:5
	b	.LBB13_21
.Ltmp275:
.LBB13_20:
	.loc	3 0 5 is_stmt 0                 @ ../ThirdParty/FreeRTOS/Source/tasks.c:0:5
	b	.LBB13_21
.LBB13_21:
	b	.LBB13_22
.LBB13_22:
	.loc	3 1612 29 is_stmt 1             @ ../ThirdParty/FreeRTOS/Source/tasks.c:1612:29
	ldr	r0, [sp, #16]
	.loc	3 1612 36 is_stmt 0             @ ../ThirdParty/FreeRTOS/Source/tasks.c:1612:36
	ldr	r0, [r0, #44]
	.loc	3 1612 27                       @ ../ThirdParty/FreeRTOS/Source/tasks.c:1612:27
	str	r0, [sp, #8]
.Ltmp276:
	.loc	3 1618 10 is_stmt 1             @ ../ThirdParty/FreeRTOS/Source/tasks.c:1618:10
	ldr	r0, [sp, #16]
	.loc	3 1618 42 is_stmt 0             @ ../ThirdParty/FreeRTOS/Source/tasks.c:1618:42
	ldr	r1, [r0, #44]
	.loc	3 1618 17                       @ ../ThirdParty/FreeRTOS/Source/tasks.c:1618:17
	ldr	r0, [r0, #68]
.Ltmp277:
	.loc	3 1618 10                       @ ../ThirdParty/FreeRTOS/Source/tasks.c:1618:10
	cmp	r0, r1
	bne	.LBB13_24
	b	.LBB13_23
.LBB13_23:
.Ltmp278:
	.loc	3 1620 27 is_stmt 1             @ ../ThirdParty/FreeRTOS/Source/tasks.c:1620:27
	ldr	r0, [sp, #20]
	.loc	3 1620 7 is_stmt 0              @ ../ThirdParty/FreeRTOS/Source/tasks.c:1620:7
	ldr	r1, [sp, #16]
	.loc	3 1620 25                       @ ../ThirdParty/FreeRTOS/Source/tasks.c:1620:25
	str	r0, [r1, #44]
	.loc	3 1621 6 is_stmt 1              @ ../ThirdParty/FreeRTOS/Source/tasks.c:1621:6
	b	.LBB13_25
.Ltmp279:
.LBB13_24:
	.loc	3 0 6 is_stmt 0                 @ ../ThirdParty/FreeRTOS/Source/tasks.c:0:6
	b	.LBB13_25
.LBB13_25:
	.loc	3 1628 30 is_stmt 1             @ ../ThirdParty/FreeRTOS/Source/tasks.c:1628:30
	ldr	r0, [sp, #20]
	.loc	3 1628 6 is_stmt 0              @ ../ThirdParty/FreeRTOS/Source/tasks.c:1628:6
	ldr	r1, [sp, #16]
	.loc	3 1628 28                       @ ../ThirdParty/FreeRTOS/Source/tasks.c:1628:28
	str	r0, [r1, #68]
.Ltmp280:
	.loc	3 1638 11 is_stmt 1             @ ../ThirdParty/FreeRTOS/Source/tasks.c:1638:11
	ldr	r0, [sp, #16]
.Ltmp281:
	.loc	3 1638 9 is_stmt 0              @ ../ThirdParty/FreeRTOS/Source/tasks.c:1638:9
	ldrb	r0, [r0, #27]
	lsls	r0, r0, #24
	cmp	r0, #0
	bmi	.LBB13_27
	b	.LBB13_26
.LBB13_26:
.Ltmp282:
	.loc	3 1640 6 is_stmt 1              @ ../ThirdParty/FreeRTOS/Source/tasks.c:1640:6
	ldr	r0, [sp, #20]
	rsb.w	r0, r0, #7
	ldr	r1, [sp, #16]
	str	r0, [r1, #24]
	.loc	3 1641 5                        @ ../ThirdParty/FreeRTOS/Source/tasks.c:1641:5
	b	.LBB13_28
.Ltmp283:
.LBB13_27:
	.loc	3 0 5 is_stmt 0                 @ ../ThirdParty/FreeRTOS/Source/tasks.c:0:5
	b	.LBB13_28
.LBB13_28:
.Ltmp284:
	.loc	3 1651 9 is_stmt 1              @ ../ThirdParty/FreeRTOS/Source/tasks.c:1651:9
	ldr	r0, [sp, #16]
	ldr	r0, [r0, #20]
	ldr	r1, [sp, #8]
	add.w	r2, r1, r1, lsl #2
	movw	r1, :lower16:pxReadyTasksLists
	movt	r1, :upper16:pxReadyTasksLists
	add.w	r1, r1, r2, lsl #2
.Ltmp285:
	.loc	3 1651 9 is_stmt 0              @ ../ThirdParty/FreeRTOS/Source/tasks.c:1651:9
	cmp	r0, r1
	bne	.LBB13_33
	b	.LBB13_29
.LBB13_29:
.Ltmp286:
	.loc	3 1656 27 is_stmt 1             @ ../ThirdParty/FreeRTOS/Source/tasks.c:1656:27
	ldr	r0, [sp, #16]
	.loc	3 1656 34 is_stmt 0             @ ../ThirdParty/FreeRTOS/Source/tasks.c:1656:34
	adds	r0, #4
	.loc	3 1656 10                       @ ../ThirdParty/FreeRTOS/Source/tasks.c:1656:10
	bl	uxListRemove
.Ltmp287:
	.loc	3 1656 10                       @ ../ThirdParty/FreeRTOS/Source/tasks.c:1656:10
	cbnz	r0, .LBB13_31
	b	.LBB13_30
.LBB13_30:
.Ltmp288:
	.loc	3 1661 7 is_stmt 1              @ ../ThirdParty/FreeRTOS/Source/tasks.c:1661:7
	ldr	r1, [sp, #8]
	movs	r0, #1
	lsl.w	r2, r0, r1
	movw	r1, :lower16:uxTopReadyPriority
	movt	r1, :upper16:uxTopReadyPriority
	ldr	r0, [r1]
	bics	r0, r2
	str	r0, [r1]
	.loc	3 1662 6                        @ ../ThirdParty/FreeRTOS/Source/tasks.c:1662:6
	b	.LBB13_32
.Ltmp289:
.LBB13_31:
	.loc	3 0 6 is_stmt 0                 @ ../ThirdParty/FreeRTOS/Source/tasks.c:0:6
	b	.LBB13_32
.LBB13_32:
	.loc	3 1667 6 is_stmt 1              @ ../ThirdParty/FreeRTOS/Source/tasks.c:1667:6
	ldr	r0, [sp, #16]
	ldr	r1, [r0, #44]
	movs	r0, #1
	lsl.w	r2, r0, r1
	movw	r1, :lower16:uxTopReadyPriority
	movt	r1, :upper16:uxTopReadyPriority
	ldr	r0, [r1]
	orrs	r0, r2
	str	r0, [r1]
	ldr	r1, [sp, #16]
	ldr	r0, [r1, #44]
	add.w	r2, r0, r0, lsl #2
	movw	r0, :lower16:pxReadyTasksLists
	movt	r0, :upper16:pxReadyTasksLists
	add.w	r0, r0, r2, lsl #2
	adds	r1, #4
	bl	vListInsertEnd
	.loc	3 1668 5                        @ ../ThirdParty/FreeRTOS/Source/tasks.c:1668:5
	b	.LBB13_34
.Ltmp290:
.LBB13_33:
	.loc	3 0 5 is_stmt 0                 @ ../ThirdParty/FreeRTOS/Source/tasks.c:0:5
	b	.LBB13_34
.LBB13_34:
.Ltmp291:
	.loc	3 1674 9 is_stmt 1              @ ../ThirdParty/FreeRTOS/Source/tasks.c:1674:9
	ldr	r0, [sp, #4]
.Ltmp292:
	.loc	3 1674 9 is_stmt 0              @ ../ThirdParty/FreeRTOS/Source/tasks.c:1674:9
	cbz	r0, .LBB13_36
	b	.LBB13_35
.LBB13_35:
	.loc	3 0 9                           @ ../ThirdParty/FreeRTOS/Source/tasks.c:0:9
	movw	r1, #60676
	movt	r1, #57344
	mov.w	r0, #268435456
.Ltmp293:
	.loc	3 1676 6 is_stmt 1              @ ../ThirdParty/FreeRTOS/Source/tasks.c:1676:6
	str	r0, [r1]
	@APP
	dsb	sy
	@NO_APP
	@APP
	isb	sy
	@NO_APP
.Ltmp294:
	.loc	3 1677 5                        @ ../ThirdParty/FreeRTOS/Source/tasks.c:1677:5
	b	.LBB13_37
.Ltmp295:
.LBB13_36:
	.loc	3 0 5 is_stmt 0                 @ ../ThirdParty/FreeRTOS/Source/tasks.c:0:5
	b	.LBB13_37
.LBB13_37:
	.loc	3 1686 4 is_stmt 1              @ ../ThirdParty/FreeRTOS/Source/tasks.c:1686:4
	b	.LBB13_38
.Ltmp296:
.LBB13_38:
	.loc	3 1688 3                        @ ../ThirdParty/FreeRTOS/Source/tasks.c:1688:3
	bl	vPortExitCritical
	.loc	3 1689 2 epilogue_begin         @ ../ThirdParty/FreeRTOS/Source/tasks.c:1689:2
	add	sp, #32
	pop	{r7, pc}
.Ltmp297:
.Lfunc_end13:
	.size	vTaskPrioritySet, .Lfunc_end13-vTaskPrioritySet
	.cfi_endproc
	.cantunwind
	.fnend
                                        @ -- End function
	.section	.text.vTaskSuspend,"ax",%progbits
	.hidden	vTaskSuspend                    @ -- Begin function vTaskSuspend
	.globl	vTaskSuspend
	.p2align	2
	.type	vTaskSuspend,%function
	.code	16                              @ @vTaskSuspend
	.thumb_func
vTaskSuspend:
.Lfunc_begin14:
	.loc	3 1697 0                        @ ../ThirdParty/FreeRTOS/Source/tasks.c:1697:0
	.fnstart
	.cfi_startproc
@ %bb.0:
	.save	{r7, lr}
	push	{r7, lr}
	.cfi_def_cfa_offset 8
	.cfi_offset lr, -4
	.cfi_offset r7, -8
	.pad	#16
	sub	sp, #16
	.cfi_def_cfa_offset 24
	str	r0, [sp, #8]
.Ltmp298:
	.loc	3 1700 3 prologue_end           @ ../ThirdParty/FreeRTOS/Source/tasks.c:1700:3
	bl	vPortEnterCritical
.Ltmp299:
	.loc	3 1704 12                       @ ../ThirdParty/FreeRTOS/Source/tasks.c:1704:12
	ldr	r0, [sp, #8]
	cbnz	r0, .LBB14_2
	b	.LBB14_1
.LBB14_1:
	movw	r0, :lower16:pxCurrentTCB
	movt	r0, :upper16:pxCurrentTCB
	ldr	r0, [r0]
	str	r0, [sp]                        @ 4-byte Spill
	b	.LBB14_3
.LBB14_2:
	ldr	r0, [sp, #8]
	str	r0, [sp]                        @ 4-byte Spill
	b	.LBB14_3
.LBB14_3:
	ldr	r0, [sp]                        @ 4-byte Reload
	.loc	3 1704 10 is_stmt 0             @ ../ThirdParty/FreeRTOS/Source/tasks.c:1704:10
	str	r0, [sp, #4]
.Ltmp300:
	.loc	3 1710 25 is_stmt 1             @ ../ThirdParty/FreeRTOS/Source/tasks.c:1710:25
	ldr	r0, [sp, #4]
	.loc	3 1710 32 is_stmt 0             @ ../ThirdParty/FreeRTOS/Source/tasks.c:1710:32
	adds	r0, #4
	.loc	3 1710 8                        @ ../ThirdParty/FreeRTOS/Source/tasks.c:1710:8
	bl	uxListRemove
.Ltmp301:
	.loc	3 1710 8                        @ ../ThirdParty/FreeRTOS/Source/tasks.c:1710:8
	cbnz	r0, .LBB14_7
	b	.LBB14_4
.LBB14_4:
.Ltmp302:
	.loc	3 1712 5 is_stmt 1              @ ../ThirdParty/FreeRTOS/Source/tasks.c:1712:5
	ldr	r0, [sp, #4]
	ldr	r0, [r0, #44]
	add.w	r1, r0, r0, lsl #2
	movw	r0, :lower16:pxReadyTasksLists
	movt	r0, :upper16:pxReadyTasksLists
	ldr.w	r0, [r0, r1, lsl #2]
.Ltmp303:
	.loc	3 1712 5 is_stmt 0              @ ../ThirdParty/FreeRTOS/Source/tasks.c:1712:5
	cbnz	r0, .LBB14_6
	b	.LBB14_5
.LBB14_5:
.Ltmp304:
	.loc	3 1712 5                        @ ../ThirdParty/FreeRTOS/Source/tasks.c:1712:5
	ldr	r0, [sp, #4]
	ldr	r1, [r0, #44]
	movs	r0, #1
	lsl.w	r2, r0, r1
	movw	r1, :lower16:uxTopReadyPriority
	movt	r1, :upper16:uxTopReadyPriority
	ldr	r0, [r1]
	bics	r0, r2
	str	r0, [r1]
	b	.LBB14_6
.Ltmp305:
.LBB14_6:
	.loc	3 1713 4 is_stmt 1              @ ../ThirdParty/FreeRTOS/Source/tasks.c:1713:4
	b	.LBB14_8
.Ltmp306:
.LBB14_7:
	.loc	3 0 4 is_stmt 0                 @ ../ThirdParty/FreeRTOS/Source/tasks.c:0:4
	b	.LBB14_8
.LBB14_8:
.Ltmp307:
	.loc	3 1720 8 is_stmt 1              @ ../ThirdParty/FreeRTOS/Source/tasks.c:1720:8
	ldr	r0, [sp, #4]
	ldr	r0, [r0, #40]
.Ltmp308:
	.loc	3 1720 8 is_stmt 0              @ ../ThirdParty/FreeRTOS/Source/tasks.c:1720:8
	cbz	r0, .LBB14_10
	b	.LBB14_9
.LBB14_9:
.Ltmp309:
	.loc	3 1722 31 is_stmt 1             @ ../ThirdParty/FreeRTOS/Source/tasks.c:1722:31
	ldr	r0, [sp, #4]
	.loc	3 1722 38 is_stmt 0             @ ../ThirdParty/FreeRTOS/Source/tasks.c:1722:38
	adds	r0, #24
	.loc	3 1722 14                       @ ../ThirdParty/FreeRTOS/Source/tasks.c:1722:14
	bl	uxListRemove
	.loc	3 1723 4 is_stmt 1              @ ../ThirdParty/FreeRTOS/Source/tasks.c:1723:4
	b	.LBB14_11
.Ltmp310:
.LBB14_10:
	.loc	3 0 4 is_stmt 0                 @ ../ThirdParty/FreeRTOS/Source/tasks.c:0:4
	b	.LBB14_11
.LBB14_11:
	.loc	3 1729 44 is_stmt 1             @ ../ThirdParty/FreeRTOS/Source/tasks.c:1729:44
	ldr	r0, [sp, #4]
	.loc	3 1729 51 is_stmt 0             @ ../ThirdParty/FreeRTOS/Source/tasks.c:1729:51
	adds	r1, r0, #4
	.loc	3 1729 4                        @ ../ThirdParty/FreeRTOS/Source/tasks.c:1729:4
	movw	r0, :lower16:xSuspendedTaskList
	movt	r0, :upper16:xSuspendedTaskList
	bl	vListInsertEnd
.Ltmp311:
	.loc	3 1733 9 is_stmt 1              @ ../ThirdParty/FreeRTOS/Source/tasks.c:1733:9
	ldr	r0, [sp, #4]
	.loc	3 1733 16 is_stmt 0             @ ../ThirdParty/FreeRTOS/Source/tasks.c:1733:16
	ldrb.w	r0, [r0, #80]
.Ltmp312:
	.loc	3 1733 9                        @ ../ThirdParty/FreeRTOS/Source/tasks.c:1733:9
	cmp	r0, #1
	bne	.LBB14_13
	b	.LBB14_12
.LBB14_12:
.Ltmp313:
	.loc	3 1737 6 is_stmt 1              @ ../ThirdParty/FreeRTOS/Source/tasks.c:1737:6
	ldr	r1, [sp, #4]
	movs	r0, #0
	.loc	3 1737 27 is_stmt 0             @ ../ThirdParty/FreeRTOS/Source/tasks.c:1737:27
	strb.w	r0, [r1, #80]
	.loc	3 1738 5 is_stmt 1              @ ../ThirdParty/FreeRTOS/Source/tasks.c:1738:5
	b	.LBB14_13
.Ltmp314:
.LBB14_13:
	.loc	3 1742 3                        @ ../ThirdParty/FreeRTOS/Source/tasks.c:1742:3
	bl	vPortExitCritical
.Ltmp315:
	.loc	3 1744 7                        @ ../ThirdParty/FreeRTOS/Source/tasks.c:1744:7
	movw	r0, :lower16:xSchedulerRunning
	movt	r0, :upper16:xSchedulerRunning
	ldr	r0, [r0]
.Ltmp316:
	.loc	3 1744 7 is_stmt 0              @ ../ThirdParty/FreeRTOS/Source/tasks.c:1744:7
	cbz	r0, .LBB14_15
	b	.LBB14_14
.LBB14_14:
.Ltmp317:
	.loc	3 1748 4 is_stmt 1              @ ../ThirdParty/FreeRTOS/Source/tasks.c:1748:4
	bl	vPortEnterCritical
.Ltmp318:
	.loc	3 1750 5                        @ ../ThirdParty/FreeRTOS/Source/tasks.c:1750:5
	bl	prvResetNextTaskUnblockTime
.Ltmp319:
	.loc	3 1752 4                        @ ../ThirdParty/FreeRTOS/Source/tasks.c:1752:4
	bl	vPortExitCritical
	.loc	3 1753 3                        @ ../ThirdParty/FreeRTOS/Source/tasks.c:1753:3
	b	.LBB14_16
.Ltmp320:
.LBB14_15:
	.loc	3 0 3 is_stmt 0                 @ ../ThirdParty/FreeRTOS/Source/tasks.c:0:3
	b	.LBB14_16
.LBB14_16:
.Ltmp321:
	.loc	3 1759 7 is_stmt 1              @ ../ThirdParty/FreeRTOS/Source/tasks.c:1759:7
	ldr	r0, [sp, #4]
	.loc	3 1759 16 is_stmt 0             @ ../ThirdParty/FreeRTOS/Source/tasks.c:1759:16
	movw	r1, :lower16:pxCurrentTCB
	movt	r1, :upper16:pxCurrentTCB
	ldr	r1, [r1]
.Ltmp322:
	.loc	3 1759 7                        @ ../ThirdParty/FreeRTOS/Source/tasks.c:1759:7
	cmp	r0, r1
	bne	.LBB14_27
	b	.LBB14_17
.LBB14_17:
.Ltmp323:
	.loc	3 1761 8 is_stmt 1              @ ../ThirdParty/FreeRTOS/Source/tasks.c:1761:8
	movw	r0, :lower16:xSchedulerRunning
	movt	r0, :upper16:xSchedulerRunning
	ldr	r0, [r0]
.Ltmp324:
	.loc	3 1761 8 is_stmt 0              @ ../ThirdParty/FreeRTOS/Source/tasks.c:1761:8
	cbz	r0, .LBB14_22
	b	.LBB14_18
.LBB14_18:
.Ltmp325:
	.loc	3 1764 5 is_stmt 1              @ ../ThirdParty/FreeRTOS/Source/tasks.c:1764:5
	movw	r0, :lower16:uxSchedulerSuspended
	movt	r0, :upper16:uxSchedulerSuspended
	ldr	r0, [r0]
.Ltmp326:
	.loc	3 1764 5 is_stmt 0              @ ../ThirdParty/FreeRTOS/Source/tasks.c:1764:5
	cbz	r0, .LBB14_21
	b	.LBB14_19
.LBB14_19:
.Ltmp327:
	.loc	2 199 2 is_stmt 1               @ ../ThirdParty/FreeRTOS/Source/portable/GCC/ARM_CM4F\portmacro.h:199:2
	@APP
	mov.w	r0, #80
	msr	basepri, r0
	isb	sy
	dsb	sy

	@NO_APP
	str	r0, [sp, #12]
.Ltmp328:
	.loc	3 1764 5                        @ ../ThirdParty/FreeRTOS/Source/tasks.c:1764:5
	b	.LBB14_20
.LBB14_20:                              @ =>This Inner Loop Header: Depth=1
.Ltmp329:
	.loc	3 1764 5 is_stmt 0              @ ../ThirdParty/FreeRTOS/Source/tasks.c:1764:5
	b	.LBB14_20
.Ltmp330:
.LBB14_21:
	.loc	3 0 5                           @ ../ThirdParty/FreeRTOS/Source/tasks.c:0:5
	movw	r1, #60676
	movt	r1, #57344
	mov.w	r0, #268435456
.Ltmp331:
	.loc	3 1765 5 is_stmt 1              @ ../ThirdParty/FreeRTOS/Source/tasks.c:1765:5
	str	r0, [r1]
	@APP
	dsb	sy
	@NO_APP
	@APP
	isb	sy
	@NO_APP
.Ltmp332:
	.loc	3 1766 4                        @ ../ThirdParty/FreeRTOS/Source/tasks.c:1766:4
	b	.LBB14_26
.Ltmp333:
.LBB14_22:
	.loc	3 1772 9                        @ ../ThirdParty/FreeRTOS/Source/tasks.c:1772:9
	movw	r0, :lower16:xSuspendedTaskList
	movt	r0, :upper16:xSuspendedTaskList
	ldr	r0, [r0]
	.loc	3 1772 59 is_stmt 0             @ ../ThirdParty/FreeRTOS/Source/tasks.c:1772:59
	movw	r1, :lower16:uxCurrentNumberOfTasks
	movt	r1, :upper16:uxCurrentNumberOfTasks
	ldr	r1, [r1]
.Ltmp334:
	.loc	3 1772 9                        @ ../ThirdParty/FreeRTOS/Source/tasks.c:1772:9
	cmp	r0, r1
	bne	.LBB14_24
	b	.LBB14_23
.LBB14_23:
.Ltmp335:
	.loc	3 1778 19 is_stmt 1             @ ../ThirdParty/FreeRTOS/Source/tasks.c:1778:19
	movw	r1, :lower16:pxCurrentTCB
	movt	r1, :upper16:pxCurrentTCB
	movs	r0, #0
	str	r0, [r1]
	.loc	3 1779 5                        @ ../ThirdParty/FreeRTOS/Source/tasks.c:1779:5
	b	.LBB14_25
.Ltmp336:
.LBB14_24:
	.loc	3 1782 6                        @ ../ThirdParty/FreeRTOS/Source/tasks.c:1782:6
	bl	vTaskSwitchContext
	b	.LBB14_25
.Ltmp337:
.LBB14_25:
	.loc	3 0 6 is_stmt 0                 @ ../ThirdParty/FreeRTOS/Source/tasks.c:0:6
	b	.LBB14_26
.LBB14_26:
	.loc	3 1785 3 is_stmt 1              @ ../ThirdParty/FreeRTOS/Source/tasks.c:1785:3
	b	.LBB14_28
.Ltmp338:
.LBB14_27:
	.loc	3 0 3 is_stmt 0                 @ ../ThirdParty/FreeRTOS/Source/tasks.c:0:3
	b	.LBB14_28
.LBB14_28:
	.loc	3 1790 2 epilogue_begin is_stmt 1 @ ../ThirdParty/FreeRTOS/Source/tasks.c:1790:2
	add	sp, #16
	pop	{r7, pc}
.Ltmp339:
.Lfunc_end14:
	.size	vTaskSuspend, .Lfunc_end14-vTaskSuspend
	.cfi_endproc
	.cantunwind
	.fnend
                                        @ -- End function
	.section	.text.vTaskSwitchContext,"axR",%progbits
	.hidden	vTaskSwitchContext              @ -- Begin function vTaskSwitchContext
	.globl	vTaskSwitchContext
	.p2align	2
	.type	vTaskSwitchContext,%function
	.code	16                              @ @vTaskSwitchContext
	.thumb_func
vTaskSwitchContext:
__tagsym$$used.0:
.Lfunc_begin15:
	.loc	3 2948 0                        @ ../ThirdParty/FreeRTOS/Source/tasks.c:2948:0
	.fnstart
	.cfi_startproc
@ %bb.0:
	.save	{r7, lr}
	push	{r7, lr}
	.cfi_def_cfa_offset 8
	.cfi_offset lr, -4
	.cfi_offset r7, -8
	.pad	#24
	sub	sp, #24
	.cfi_def_cfa_offset 32
.Ltmp340:
	.loc	3 2949 6 prologue_end           @ ../ThirdParty/FreeRTOS/Source/tasks.c:2949:6
	movw	r0, :lower16:uxSchedulerSuspended
	movt	r0, :upper16:uxSchedulerSuspended
	ldr	r0, [r0]
.Ltmp341:
	.loc	3 2949 6 is_stmt 0              @ ../ThirdParty/FreeRTOS/Source/tasks.c:2949:6
	cbz	r0, .LBB15_2
	b	.LBB15_1
.LBB15_1:
.Ltmp342:
	.loc	3 2953 17 is_stmt 1             @ ../ThirdParty/FreeRTOS/Source/tasks.c:2953:17
	movw	r1, :lower16:xYieldPending
	movt	r1, :upper16:xYieldPending
	movs	r0, #1
	str	r0, [r1]
	.loc	3 2954 2                        @ ../ThirdParty/FreeRTOS/Source/tasks.c:2954:2
	b	.LBB15_10
.Ltmp343:
.LBB15_2:
	.loc	3 2957 17                       @ ../ThirdParty/FreeRTOS/Source/tasks.c:2957:17
	movw	r1, :lower16:xYieldPending
	movt	r1, :upper16:xYieldPending
	movs	r0, #0
	str	r0, [r1]
.Ltmp344:
	.loc	3 2988 3                        @ ../ThirdParty/FreeRTOS/Source/tasks.c:2988:3
	movw	r1, :lower16:pxCurrentTCB
	movt	r1, :upper16:pxCurrentTCB
	ldr	r0, [r1]
	ldr	r0, [r0]
	ldr	r1, [r1]
	ldr	r1, [r1, #48]
.Ltmp345:
	.loc	3 2988 3 is_stmt 0              @ ../ThirdParty/FreeRTOS/Source/tasks.c:2988:3
	cmp	r0, r1
	bhi	.LBB15_4
	b	.LBB15_3
.LBB15_3:
.Ltmp346:
	.loc	3 2988 3                        @ ../ThirdParty/FreeRTOS/Source/tasks.c:2988:3
	movw	r1, :lower16:pxCurrentTCB
	movt	r1, :upper16:pxCurrentTCB
	ldr	r0, [r1]
	ldr	r1, [r1]
	adds	r1, #52
	bl	vApplicationStackOverflowHook
	b	.LBB15_4
.Ltmp347:
.LBB15_4:
	.loc	3 2999 3 is_stmt 1              @ ../ThirdParty/FreeRTOS/Source/tasks.c:2999:3
	movw	r0, :lower16:uxTopReadyPriority
	movt	r0, :upper16:uxTopReadyPriority
	ldr	r0, [r0]
	str	r0, [sp, #20]
.Ltmp348:
	.loc	2 134 61                        @ ../ThirdParty/FreeRTOS/Source/portable/GCC/ARM_CM4F\portmacro.h:134:61
	ldr	r0, [sp, #20]
	.loc	2 134 3 is_stmt 0               @ ../ThirdParty/FreeRTOS/Source/portable/GCC/ARM_CM4F\portmacro.h:134:3
	@APP
	clz	r0, r0
	@NO_APP
	strb.w	r0, [sp, #19]
	.loc	2 135 10 is_stmt 1              @ ../ThirdParty/FreeRTOS/Source/portable/GCC/ARM_CM4F\portmacro.h:135:10
	ldrb.w	r0, [sp, #19]
.Ltmp349:
	.loc	3 2999 3                        @ ../ThirdParty/FreeRTOS/Source/tasks.c:2999:3
	rsb.w	r0, r0, #31
	str	r0, [sp, #8]
.Ltmp350:
	.loc	3 2999 3 is_stmt 0              @ ../ThirdParty/FreeRTOS/Source/tasks.c:2999:3
	ldr	r0, [sp, #8]
	add.w	r1, r0, r0, lsl #2
	movw	r0, :lower16:pxReadyTasksLists
	movt	r0, :upper16:pxReadyTasksLists
	ldr.w	r0, [r0, r1, lsl #2]
.Ltmp351:
	.loc	3 2999 3                        @ ../ThirdParty/FreeRTOS/Source/tasks.c:2999:3
	cbnz	r0, .LBB15_7
	b	.LBB15_5
.LBB15_5:
.Ltmp352:
	.loc	2 199 2 is_stmt 1               @ ../ThirdParty/FreeRTOS/Source/portable/GCC/ARM_CM4F\portmacro.h:199:2
	@APP
	mov.w	r0, #80
	msr	basepri, r0
	isb	sy
	dsb	sy

	@NO_APP
	str	r0, [sp, #12]
.Ltmp353:
	.loc	3 2999 3                        @ ../ThirdParty/FreeRTOS/Source/tasks.c:2999:3
	b	.LBB15_6
.LBB15_6:                               @ =>This Inner Loop Header: Depth=1
.Ltmp354:
	.loc	3 2999 3 is_stmt 0              @ ../ThirdParty/FreeRTOS/Source/tasks.c:2999:3
	b	.LBB15_6
.Ltmp355:
.LBB15_7:
	.loc	3 2999 3                        @ ../ThirdParty/FreeRTOS/Source/tasks.c:2999:3
	ldr	r0, [sp, #8]
	add.w	r1, r0, r0, lsl #2
	movw	r0, :lower16:pxReadyTasksLists
	movt	r0, :upper16:pxReadyTasksLists
	add.w	r0, r0, r1, lsl #2
	str	r0, [sp, #4]
	ldr	r1, [sp, #4]
	ldr	r0, [r1, #4]
	ldr	r0, [r0, #4]
	str	r0, [r1, #4]
.Ltmp356:
	.loc	3 2999 3                        @ ../ThirdParty/FreeRTOS/Source/tasks.c:2999:3
	ldr	r1, [sp, #4]
	ldr	r0, [r1, #4]
	adds	r1, #8
.Ltmp357:
	.loc	3 2999 3                        @ ../ThirdParty/FreeRTOS/Source/tasks.c:2999:3
	cmp	r0, r1
	bne	.LBB15_9
	b	.LBB15_8
.LBB15_8:
.Ltmp358:
	.loc	3 2999 3                        @ ../ThirdParty/FreeRTOS/Source/tasks.c:2999:3
	ldr	r1, [sp, #4]
	ldr	r0, [r1, #4]
	ldr	r0, [r0, #4]
	str	r0, [r1, #4]
	b	.LBB15_9
.Ltmp359:
.LBB15_9:
	.loc	3 2999 3                        @ ../ThirdParty/FreeRTOS/Source/tasks.c:2999:3
	ldr	r0, [sp, #4]
	ldr	r0, [r0, #4]
	ldr	r0, [r0, #12]
	movw	r1, :lower16:pxCurrentTCB
	movt	r1, :upper16:pxCurrentTCB
	str	r0, [r1]
	b	.LBB15_10
.Ltmp360:
.LBB15_10:
	.loc	3 3017 1 epilogue_begin is_stmt 1 @ ../ThirdParty/FreeRTOS/Source/tasks.c:3017:1
	add	sp, #24
	pop	{r7, pc}
.Ltmp361:
.Lfunc_end15:
	.size	vTaskSwitchContext, .Lfunc_end15-vTaskSwitchContext
	.cfi_endproc
	.cantunwind
	.fnend
                                        @ -- End function
	.section	.text.vTaskResume,"ax",%progbits
	.hidden	vTaskResume                     @ -- Begin function vTaskResume
	.globl	vTaskResume
	.p2align	2
	.type	vTaskResume,%function
	.code	16                              @ @vTaskResume
	.thumb_func
vTaskResume:
.Lfunc_begin16:
	.loc	3 1844 0                        @ ../ThirdParty/FreeRTOS/Source/tasks.c:1844:0
	.fnstart
	.cfi_startproc
@ %bb.0:
	.save	{r7, lr}
	push	{r7, lr}
	.cfi_def_cfa_offset 8
	.cfi_offset lr, -4
	.cfi_offset r7, -8
	.pad	#16
	sub	sp, #16
	.cfi_def_cfa_offset 24
	str	r0, [sp, #8]
.Ltmp362:
	.loc	3 1845 24 prologue_end          @ ../ThirdParty/FreeRTOS/Source/tasks.c:1845:24
	ldr	r0, [sp, #8]
	.loc	3 1845 16 is_stmt 0             @ ../ThirdParty/FreeRTOS/Source/tasks.c:1845:16
	str	r0, [sp, #4]
.Ltmp363:
	.loc	3 1848 3 is_stmt 1              @ ../ThirdParty/FreeRTOS/Source/tasks.c:1848:3
	ldr	r0, [sp, #8]
.Ltmp364:
	.loc	3 1848 3 is_stmt 0              @ ../ThirdParty/FreeRTOS/Source/tasks.c:1848:3
	cbnz	r0, .LBB16_3
	b	.LBB16_1
.LBB16_1:
.Ltmp365:
	.loc	2 199 2 is_stmt 1               @ ../ThirdParty/FreeRTOS/Source/portable/GCC/ARM_CM4F\portmacro.h:199:2
	@APP
	mov.w	r0, #80
	msr	basepri, r0
	isb	sy
	dsb	sy

	@NO_APP
	str	r0, [sp, #12]
.Ltmp366:
	.loc	3 1848 3                        @ ../ThirdParty/FreeRTOS/Source/tasks.c:1848:3
	b	.LBB16_2
.LBB16_2:                               @ =>This Inner Loop Header: Depth=1
.Ltmp367:
	.loc	3 1848 3 is_stmt 0              @ ../ThirdParty/FreeRTOS/Source/tasks.c:1848:3
	b	.LBB16_2
.Ltmp368:
.LBB16_3:
	.loc	3 1852 9 is_stmt 1              @ ../ThirdParty/FreeRTOS/Source/tasks.c:1852:9
	ldr	r0, [sp, #4]
	.loc	3 1852 18 is_stmt 0             @ ../ThirdParty/FreeRTOS/Source/tasks.c:1852:18
	movw	r1, :lower16:pxCurrentTCB
	movt	r1, :upper16:pxCurrentTCB
	ldr	r1, [r1]
	.loc	3 1852 33                       @ ../ThirdParty/FreeRTOS/Source/tasks.c:1852:33
	cmp	r0, r1
	beq	.LBB16_12
	b	.LBB16_4
.LBB16_4:
	.loc	3 1852 38                       @ ../ThirdParty/FreeRTOS/Source/tasks.c:1852:38
	ldr	r0, [sp, #4]
.Ltmp369:
	.loc	3 1852 7                        @ ../ThirdParty/FreeRTOS/Source/tasks.c:1852:7
	cmp	r0, #0
	beq	.LBB16_12
	b	.LBB16_5
.LBB16_5:
.Ltmp370:
	.loc	3 1854 4 is_stmt 1              @ ../ThirdParty/FreeRTOS/Source/tasks.c:1854:4
	bl	vPortEnterCritical
.Ltmp371:
	.loc	3 1856 33                       @ ../ThirdParty/FreeRTOS/Source/tasks.c:1856:33
	ldr	r0, [sp, #4]
	.loc	3 1856 9 is_stmt 0              @ ../ThirdParty/FreeRTOS/Source/tasks.c:1856:9
	bl	prvTaskIsTaskSuspended
.Ltmp372:
	.loc	3 1856 9                        @ ../ThirdParty/FreeRTOS/Source/tasks.c:1856:9
	cbz	r0, .LBB16_10
	b	.LBB16_6
.LBB16_6:
.Ltmp373:
	.loc	3 1862 33 is_stmt 1             @ ../ThirdParty/FreeRTOS/Source/tasks.c:1862:33
	ldr	r0, [sp, #4]
	.loc	3 1862 40 is_stmt 0             @ ../ThirdParty/FreeRTOS/Source/tasks.c:1862:40
	adds	r0, #4
	.loc	3 1862 15                       @ ../ThirdParty/FreeRTOS/Source/tasks.c:1862:15
	bl	uxListRemove
	.loc	3 1863 6 is_stmt 1              @ ../ThirdParty/FreeRTOS/Source/tasks.c:1863:6
	ldr	r0, [sp, #4]
	ldr	r1, [r0, #44]
	movs	r0, #1
	lsl.w	r2, r0, r1
	movw	r1, :lower16:uxTopReadyPriority
	movt	r1, :upper16:uxTopReadyPriority
	ldr	r0, [r1]
	orrs	r0, r2
	str	r0, [r1]
	ldr	r1, [sp, #4]
	ldr	r0, [r1, #44]
	add.w	r2, r0, r0, lsl #2
	movw	r0, :lower16:pxReadyTasksLists
	movt	r0, :upper16:pxReadyTasksLists
	add.w	r0, r0, r2, lsl #2
	adds	r1, #4
	bl	vListInsertEnd
.Ltmp374:
	.loc	3 1866 10                       @ ../ThirdParty/FreeRTOS/Source/tasks.c:1866:10
	ldr	r0, [sp, #4]
	.loc	3 1866 17 is_stmt 0             @ ../ThirdParty/FreeRTOS/Source/tasks.c:1866:17
	ldr	r0, [r0, #44]
	.loc	3 1866 31                       @ ../ThirdParty/FreeRTOS/Source/tasks.c:1866:31
	movw	r1, :lower16:pxCurrentTCB
	movt	r1, :upper16:pxCurrentTCB
	ldr	r1, [r1]
	.loc	3 1866 45                       @ ../ThirdParty/FreeRTOS/Source/tasks.c:1866:45
	ldr	r1, [r1, #44]
.Ltmp375:
	.loc	3 1866 10                       @ ../ThirdParty/FreeRTOS/Source/tasks.c:1866:10
	cmp	r0, r1
	blo	.LBB16_8
	b	.LBB16_7
.LBB16_7:
	.loc	3 0 10                          @ ../ThirdParty/FreeRTOS/Source/tasks.c:0:10
	movw	r1, #60676
	movt	r1, #57344
	mov.w	r0, #268435456
.Ltmp376:
	.loc	3 1871 7 is_stmt 1              @ ../ThirdParty/FreeRTOS/Source/tasks.c:1871:7
	str	r0, [r1]
	@APP
	dsb	sy
	@NO_APP
	@APP
	isb	sy
	@NO_APP
.Ltmp377:
	.loc	3 1872 6                        @ ../ThirdParty/FreeRTOS/Source/tasks.c:1872:6
	b	.LBB16_9
.Ltmp378:
.LBB16_8:
	.loc	3 0 6 is_stmt 0                 @ ../ThirdParty/FreeRTOS/Source/tasks.c:0:6
	b	.LBB16_9
.LBB16_9:
	.loc	3 1877 5 is_stmt 1              @ ../ThirdParty/FreeRTOS/Source/tasks.c:1877:5
	b	.LBB16_11
.Ltmp379:
.LBB16_10:
	.loc	3 0 5 is_stmt 0                 @ ../ThirdParty/FreeRTOS/Source/tasks.c:0:5
	b	.LBB16_11
.LBB16_11:
	.loc	3 1883 4 is_stmt 1              @ ../ThirdParty/FreeRTOS/Source/tasks.c:1883:4
	bl	vPortExitCritical
	.loc	3 1884 3                        @ ../ThirdParty/FreeRTOS/Source/tasks.c:1884:3
	b	.LBB16_13
.Ltmp380:
.LBB16_12:
	.loc	3 0 3 is_stmt 0                 @ ../ThirdParty/FreeRTOS/Source/tasks.c:0:3
	b	.LBB16_13
.LBB16_13:
	.loc	3 1889 2 epilogue_begin is_stmt 1 @ ../ThirdParty/FreeRTOS/Source/tasks.c:1889:2
	add	sp, #16
	pop	{r7, pc}
.Ltmp381:
.Lfunc_end16:
	.size	vTaskResume, .Lfunc_end16-vTaskResume
	.cfi_endproc
	.cantunwind
	.fnend
                                        @ -- End function
	.section	.text.prvTaskIsTaskSuspended,"ax",%progbits
	.p2align	2                               @ -- Begin function prvTaskIsTaskSuspended
	.type	prvTaskIsTaskSuspended,%function
	.code	16                              @ @prvTaskIsTaskSuspended
	.thumb_func
prvTaskIsTaskSuspended:
.Lfunc_begin17:
	.loc	3 1798 0                        @ ../ThirdParty/FreeRTOS/Source/tasks.c:1798:0
	.fnstart
	.cfi_startproc
@ %bb.0:
	.pad	#16
	sub	sp, #16
	.cfi_def_cfa_offset 16
	str	r0, [sp, #8]
	movs	r0, #0
.Ltmp382:
	.loc	3 1799 13 prologue_end          @ ../ThirdParty/FreeRTOS/Source/tasks.c:1799:13
	str	r0, [sp, #4]
	.loc	3 1800 30                       @ ../ThirdParty/FreeRTOS/Source/tasks.c:1800:30
	ldr	r0, [sp, #8]
	.loc	3 1800 22 is_stmt 0             @ ../ThirdParty/FreeRTOS/Source/tasks.c:1800:22
	str	r0, [sp]
.Ltmp383:
	.loc	3 1806 3 is_stmt 1              @ ../ThirdParty/FreeRTOS/Source/tasks.c:1806:3
	ldr	r0, [sp, #8]
.Ltmp384:
	.loc	3 1806 3 is_stmt 0              @ ../ThirdParty/FreeRTOS/Source/tasks.c:1806:3
	cbnz	r0, .LBB17_3
	b	.LBB17_1
.LBB17_1:
.Ltmp385:
	.loc	2 199 2 is_stmt 1               @ ../ThirdParty/FreeRTOS/Source/portable/GCC/ARM_CM4F\portmacro.h:199:2
	@APP
	mov.w	r0, #80
	msr	basepri, r0
	isb	sy
	dsb	sy

	@NO_APP
	str	r0, [sp, #12]
.Ltmp386:
	.loc	3 1806 3                        @ ../ThirdParty/FreeRTOS/Source/tasks.c:1806:3
	b	.LBB17_2
.LBB17_2:                               @ =>This Inner Loop Header: Depth=1
.Ltmp387:
	.loc	3 1806 3 is_stmt 0              @ ../ThirdParty/FreeRTOS/Source/tasks.c:1806:3
	b	.LBB17_2
.Ltmp388:
.LBB17_3:
	.loc	3 1809 7 is_stmt 1              @ ../ThirdParty/FreeRTOS/Source/tasks.c:1809:7
	ldr	r0, [sp]
	ldr	r0, [r0, #20]
	movw	r1, :lower16:xSuspendedTaskList
	movt	r1, :upper16:xSuspendedTaskList
.Ltmp389:
	.loc	3 1809 7 is_stmt 0              @ ../ThirdParty/FreeRTOS/Source/tasks.c:1809:7
	cmp	r0, r1
	bne	.LBB17_11
	b	.LBB17_4
.LBB17_4:
.Ltmp390:
	.loc	3 1812 8 is_stmt 1              @ ../ThirdParty/FreeRTOS/Source/tasks.c:1812:8
	ldr	r0, [sp]
	ldr	r0, [r0, #40]
	movw	r1, :lower16:xPendingReadyList
	movt	r1, :upper16:xPendingReadyList
.Ltmp391:
	.loc	3 1812 8 is_stmt 0              @ ../ThirdParty/FreeRTOS/Source/tasks.c:1812:8
	cmp	r0, r1
	beq	.LBB17_9
	b	.LBB17_5
.LBB17_5:
.Ltmp392:
	.loc	3 1816 9 is_stmt 1              @ ../ThirdParty/FreeRTOS/Source/tasks.c:1816:9
	ldr	r0, [sp]
	ldr	r0, [r0, #40]
.Ltmp393:
	.loc	3 1816 9 is_stmt 0              @ ../ThirdParty/FreeRTOS/Source/tasks.c:1816:9
	cbnz	r0, .LBB17_7
	b	.LBB17_6
.LBB17_6:
	.loc	3 0 9                           @ ../ThirdParty/FreeRTOS/Source/tasks.c:0:9
	movs	r0, #1
.Ltmp394:
	.loc	3 1818 14 is_stmt 1             @ ../ThirdParty/FreeRTOS/Source/tasks.c:1818:14
	str	r0, [sp, #4]
	.loc	3 1819 5                        @ ../ThirdParty/FreeRTOS/Source/tasks.c:1819:5
	b	.LBB17_8
.Ltmp395:
.LBB17_7:
	.loc	3 0 5 is_stmt 0                 @ ../ThirdParty/FreeRTOS/Source/tasks.c:0:5
	b	.LBB17_8
.LBB17_8:
	.loc	3 1824 4 is_stmt 1              @ ../ThirdParty/FreeRTOS/Source/tasks.c:1824:4
	b	.LBB17_10
.Ltmp396:
.LBB17_9:
	.loc	3 0 4 is_stmt 0                 @ ../ThirdParty/FreeRTOS/Source/tasks.c:0:4
	b	.LBB17_10
.LBB17_10:
	.loc	3 1829 3 is_stmt 1              @ ../ThirdParty/FreeRTOS/Source/tasks.c:1829:3
	b	.LBB17_12
.Ltmp397:
.LBB17_11:
	.loc	3 0 3 is_stmt 0                 @ ../ThirdParty/FreeRTOS/Source/tasks.c:0:3
	b	.LBB17_12
.LBB17_12:
	.loc	3 1835 10 is_stmt 1             @ ../ThirdParty/FreeRTOS/Source/tasks.c:1835:10
	ldr	r0, [sp, #4]
	.loc	3 1835 3 epilogue_begin is_stmt 0 @ ../ThirdParty/FreeRTOS/Source/tasks.c:1835:3
	add	sp, #16
	bx	lr
.Ltmp398:
.Lfunc_end17:
	.size	prvTaskIsTaskSuspended, .Lfunc_end17-prvTaskIsTaskSuspended
	.cfi_endproc
	.cantunwind
	.fnend
                                        @ -- End function
	.section	.text.xTaskResumeFromISR,"ax",%progbits
	.hidden	xTaskResumeFromISR              @ -- Begin function xTaskResumeFromISR
	.globl	xTaskResumeFromISR
	.p2align	2
	.type	xTaskResumeFromISR,%function
	.code	16                              @ @xTaskResumeFromISR
	.thumb_func
xTaskResumeFromISR:
.Lfunc_begin18:
	.loc	3 1898 0 is_stmt 1              @ ../ThirdParty/FreeRTOS/Source/tasks.c:1898:0
	.fnstart
	.cfi_startproc
@ %bb.0:
	.save	{r7, lr}
	push	{r7, lr}
	.cfi_def_cfa_offset 8
	.cfi_offset lr, -4
	.cfi_offset r7, -8
	.pad	#32
	sub	sp, #32
	.cfi_def_cfa_offset 40
	str	r0, [sp, #12]
	movs	r0, #0
.Ltmp399:
	.loc	3 1899 13 prologue_end          @ ../ThirdParty/FreeRTOS/Source/tasks.c:1899:13
	str	r0, [sp, #8]
	.loc	3 1900 24                       @ ../ThirdParty/FreeRTOS/Source/tasks.c:1900:24
	ldr	r0, [sp, #12]
	.loc	3 1900 16 is_stmt 0             @ ../ThirdParty/FreeRTOS/Source/tasks.c:1900:16
	str	r0, [sp, #4]
.Ltmp400:
	.loc	3 1903 3 is_stmt 1              @ ../ThirdParty/FreeRTOS/Source/tasks.c:1903:3
	ldr	r0, [sp, #12]
.Ltmp401:
	.loc	3 1903 3 is_stmt 0              @ ../ThirdParty/FreeRTOS/Source/tasks.c:1903:3
	cbnz	r0, .LBB18_3
	b	.LBB18_1
.LBB18_1:
.Ltmp402:
	.loc	2 199 2 is_stmt 1               @ ../ThirdParty/FreeRTOS/Source/portable/GCC/ARM_CM4F\portmacro.h:199:2
	@APP
	mov.w	r0, #80
	msr	basepri, r0
	isb	sy
	dsb	sy

	@NO_APP
	str	r0, [sp, #16]
.Ltmp403:
	.loc	3 1903 3                        @ ../ThirdParty/FreeRTOS/Source/tasks.c:1903:3
	b	.LBB18_2
.LBB18_2:                               @ =>This Inner Loop Header: Depth=1
.Ltmp404:
	.loc	3 1903 3 is_stmt 0              @ ../ThirdParty/FreeRTOS/Source/tasks.c:1903:3
	b	.LBB18_2
.Ltmp405:
.LBB18_3:
	.loc	3 1921 3 is_stmt 1              @ ../ThirdParty/FreeRTOS/Source/tasks.c:1921:3
	bl	vPortValidateInterruptPriority
.Ltmp406:
	.loc	2 215 2                         @ ../ThirdParty/FreeRTOS/Source/portable/GCC/ARM_CM4F\portmacro.h:215:2
	@APP
	mrs	r1, basepri
	mov.w	r0, #80
	msr	basepri, r0
	isb	sy
	dsb	sy

	@NO_APP
	str	r1, [sp, #24]
	str	r0, [sp, #20]
	.loc	2 227 9                         @ ../ThirdParty/FreeRTOS/Source/portable/GCC/ARM_CM4F\portmacro.h:227:9
	ldr	r0, [sp, #24]
.Ltmp407:
	.loc	3 1923 26                       @ ../ThirdParty/FreeRTOS/Source/tasks.c:1923:26
	str	r0, [sp]
.Ltmp408:
	.loc	3 1925 32                       @ ../ThirdParty/FreeRTOS/Source/tasks.c:1925:32
	ldr	r0, [sp, #4]
	.loc	3 1925 8 is_stmt 0              @ ../ThirdParty/FreeRTOS/Source/tasks.c:1925:8
	bl	prvTaskIsTaskSuspended
.Ltmp409:
	.loc	3 1925 8                        @ ../ThirdParty/FreeRTOS/Source/tasks.c:1925:8
	cmp	r0, #0
	beq	.LBB18_11
	b	.LBB18_4
.LBB18_4:
.Ltmp410:
	.loc	3 1930 9 is_stmt 1              @ ../ThirdParty/FreeRTOS/Source/tasks.c:1930:9
	movw	r0, :lower16:uxSchedulerSuspended
	movt	r0, :upper16:uxSchedulerSuspended
	ldr	r0, [r0]
.Ltmp411:
	.loc	3 1930 9 is_stmt 0              @ ../ThirdParty/FreeRTOS/Source/tasks.c:1930:9
	cbnz	r0, .LBB18_9
	b	.LBB18_5
.LBB18_5:
.Ltmp412:
	.loc	3 1934 10 is_stmt 1             @ ../ThirdParty/FreeRTOS/Source/tasks.c:1934:10
	ldr	r0, [sp, #4]
	.loc	3 1934 17 is_stmt 0             @ ../ThirdParty/FreeRTOS/Source/tasks.c:1934:17
	ldr	r0, [r0, #44]
	.loc	3 1934 31                       @ ../ThirdParty/FreeRTOS/Source/tasks.c:1934:31
	movw	r1, :lower16:pxCurrentTCB
	movt	r1, :upper16:pxCurrentTCB
	ldr	r1, [r1]
	.loc	3 1934 45                       @ ../ThirdParty/FreeRTOS/Source/tasks.c:1934:45
	ldr	r1, [r1, #44]
.Ltmp413:
	.loc	3 1934 10                       @ ../ThirdParty/FreeRTOS/Source/tasks.c:1934:10
	cmp	r0, r1
	blo	.LBB18_7
	b	.LBB18_6
.LBB18_6:
	.loc	3 0 10                          @ ../ThirdParty/FreeRTOS/Source/tasks.c:0:10
	movs	r0, #1
.Ltmp414:
	.loc	3 1936 22 is_stmt 1             @ ../ThirdParty/FreeRTOS/Source/tasks.c:1936:22
	str	r0, [sp, #8]
	.loc	3 1937 6                        @ ../ThirdParty/FreeRTOS/Source/tasks.c:1937:6
	b	.LBB18_8
.Ltmp415:
.LBB18_7:
	.loc	3 0 6 is_stmt 0                 @ ../ThirdParty/FreeRTOS/Source/tasks.c:0:6
	b	.LBB18_8
.LBB18_8:
	.loc	3 1943 32 is_stmt 1             @ ../ThirdParty/FreeRTOS/Source/tasks.c:1943:32
	ldr	r0, [sp, #4]
	.loc	3 1943 39 is_stmt 0             @ ../ThirdParty/FreeRTOS/Source/tasks.c:1943:39
	adds	r0, #4
	.loc	3 1943 15                       @ ../ThirdParty/FreeRTOS/Source/tasks.c:1943:15
	bl	uxListRemove
	.loc	3 1944 6 is_stmt 1              @ ../ThirdParty/FreeRTOS/Source/tasks.c:1944:6
	ldr	r0, [sp, #4]
	ldr	r1, [r0, #44]
	movs	r0, #1
	lsl.w	r2, r0, r1
	movw	r1, :lower16:uxTopReadyPriority
	movt	r1, :upper16:uxTopReadyPriority
	ldr	r0, [r1]
	orrs	r0, r2
	str	r0, [r1]
	ldr	r1, [sp, #4]
	ldr	r0, [r1, #44]
	add.w	r2, r0, r0, lsl #2
	movw	r0, :lower16:pxReadyTasksLists
	movt	r0, :upper16:pxReadyTasksLists
	add.w	r0, r0, r2, lsl #2
	adds	r1, #4
	bl	vListInsertEnd
	.loc	3 1945 5                        @ ../ThirdParty/FreeRTOS/Source/tasks.c:1945:5
	b	.LBB18_10
.Ltmp416:
.LBB18_9:
	.loc	3 1951 49                       @ ../ThirdParty/FreeRTOS/Source/tasks.c:1951:49
	ldr	r0, [sp, #4]
	.loc	3 1951 56 is_stmt 0             @ ../ThirdParty/FreeRTOS/Source/tasks.c:1951:56
	add.w	r1, r0, #24
	.loc	3 1951 6                        @ ../ThirdParty/FreeRTOS/Source/tasks.c:1951:6
	movw	r0, :lower16:xPendingReadyList
	movt	r0, :upper16:xPendingReadyList
	bl	vListInsertEnd
	b	.LBB18_10
.Ltmp417:
.LBB18_10:
	.loc	3 1953 4 is_stmt 1              @ ../ThirdParty/FreeRTOS/Source/tasks.c:1953:4
	b	.LBB18_12
.Ltmp418:
.LBB18_11:
	.loc	3 0 4 is_stmt 0                 @ ../ThirdParty/FreeRTOS/Source/tasks.c:0:4
	b	.LBB18_12
.LBB18_12:
	.loc	3 1959 3 is_stmt 1              @ ../ThirdParty/FreeRTOS/Source/tasks.c:1959:3
	ldr	r0, [sp]
	str	r0, [sp, #28]
.Ltmp419:
	.loc	2 235 32                        @ ../ThirdParty/FreeRTOS/Source/portable/GCC/ARM_CM4F\portmacro.h:235:32
	ldr	r0, [sp, #28]
	.loc	2 233 2                         @ ../ThirdParty/FreeRTOS/Source/portable/GCC/ARM_CM4F\portmacro.h:233:2
	@APP
	msr	basepri, r0
	@NO_APP
.Ltmp420:
	.loc	3 1961 10                       @ ../ThirdParty/FreeRTOS/Source/tasks.c:1961:10
	ldr	r0, [sp, #8]
	.loc	3 1961 3 epilogue_begin is_stmt 0 @ ../ThirdParty/FreeRTOS/Source/tasks.c:1961:3
	add	sp, #32
	pop	{r7, pc}
.Ltmp421:
.Lfunc_end18:
	.size	xTaskResumeFromISR, .Lfunc_end18-xTaskResumeFromISR
	.cfi_endproc
	.cantunwind
	.fnend
                                        @ -- End function
	.section	.text.vTaskStartScheduler,"ax",%progbits
	.hidden	vTaskStartScheduler             @ -- Begin function vTaskStartScheduler
	.globl	vTaskStartScheduler
	.p2align	2
	.type	vTaskStartScheduler,%function
	.code	16                              @ @vTaskStartScheduler
	.thumb_func
vTaskStartScheduler:
.Lfunc_begin19:
	.loc	3 1968 0 is_stmt 1              @ ../ThirdParty/FreeRTOS/Source/tasks.c:1968:0
	.fnstart
	.cfi_startproc
@ %bb.0:
	.save	{r7, lr}
	push	{r7, lr}
	.cfi_def_cfa_offset 8
	.cfi_offset lr, -4
	.cfi_offset r7, -8
	.pad	#24
	sub	sp, #24
	.cfi_def_cfa_offset 32
.Ltmp422:
	.loc	3 2001 13 prologue_end          @ ../ThirdParty/FreeRTOS/Source/tasks.c:2001:13
	movw	r1, :lower16:xIdleTaskHandle
	movt	r1, :upper16:xIdleTaskHandle
	mov	r0, sp
	str	r1, [r0, #4]
	movs	r3, #0
	str	r3, [r0]
	movw	r0, :lower16:prvIdleTask
	movt	r0, :upper16:prvIdleTask
	movw	r1, :lower16:.L.str
	movt	r1, :upper16:.L.str
	movs	r2, #128
	bl	xTaskCreate
	.loc	3 2001 11 is_stmt 0             @ ../ThirdParty/FreeRTOS/Source/tasks.c:2001:11
	str	r0, [sp, #12]
.Ltmp423:
	.loc	3 2023 6 is_stmt 1              @ ../ThirdParty/FreeRTOS/Source/tasks.c:2023:6
	ldr	r0, [sp, #12]
.Ltmp424:
	.loc	3 2023 6 is_stmt 0              @ ../ThirdParty/FreeRTOS/Source/tasks.c:2023:6
	cmp	r0, #1
	bne	.LBB19_5
	b	.LBB19_1
.LBB19_1:
.Ltmp425:
	.loc	2 199 2 is_stmt 1               @ ../ThirdParty/FreeRTOS/Source/portable/GCC/ARM_CM4F\portmacro.h:199:2
	@APP
	mov.w	r0, #80
	msr	basepri, r0
	isb	sy
	dsb	sy

	@NO_APP
	str	r0, [sp, #20]
.Ltmp426:
	.loc	3 2049 24                       @ ../ThirdParty/FreeRTOS/Source/tasks.c:2049:24
	movw	r1, :lower16:xNextTaskUnblockTime
	movt	r1, :upper16:xNextTaskUnblockTime
	mov.w	r0, #-1
	str	r0, [r1]
	.loc	3 2050 21                       @ ../ThirdParty/FreeRTOS/Source/tasks.c:2050:21
	movw	r1, :lower16:xSchedulerRunning
	movt	r1, :upper16:xSchedulerRunning
	movs	r0, #1
	str	r0, [r1]
	.loc	3 2051 14                       @ ../ThirdParty/FreeRTOS/Source/tasks.c:2051:14
	movw	r1, :lower16:xTickCount
	movt	r1, :upper16:xTickCount
	movs	r0, #0
	str	r0, [r1]
.Ltmp427:
	.loc	3 2065 7                        @ ../ThirdParty/FreeRTOS/Source/tasks.c:2065:7
	bl	xPortStartScheduler
.Ltmp428:
	.loc	3 2065 7 is_stmt 0              @ ../ThirdParty/FreeRTOS/Source/tasks.c:2065:7
	cbz	r0, .LBB19_3
	b	.LBB19_2
.LBB19_2:
.Ltmp429:
	.loc	3 2069 3 is_stmt 1              @ ../ThirdParty/FreeRTOS/Source/tasks.c:2069:3
	b	.LBB19_4
.Ltmp430:
.LBB19_3:
	.loc	3 0 3 is_stmt 0                 @ ../ThirdParty/FreeRTOS/Source/tasks.c:0:3
	b	.LBB19_4
.LBB19_4:
	.loc	3 2074 2 is_stmt 1              @ ../ThirdParty/FreeRTOS/Source/tasks.c:2074:2
	b	.LBB19_9
.Ltmp431:
.LBB19_5:
	.loc	3 2080 3                        @ ../ThirdParty/FreeRTOS/Source/tasks.c:2080:3
	ldr	r0, [sp, #12]
.Ltmp432:
	.loc	3 2080 3 is_stmt 0              @ ../ThirdParty/FreeRTOS/Source/tasks.c:2080:3
	adds	r0, #1
	cbnz	r0, .LBB19_8
	b	.LBB19_6
.LBB19_6:
.Ltmp433:
	.loc	2 199 2 is_stmt 1               @ ../ThirdParty/FreeRTOS/Source/portable/GCC/ARM_CM4F\portmacro.h:199:2
	@APP
	mov.w	r0, #80
	msr	basepri, r0
	isb	sy
	dsb	sy

	@NO_APP
	str	r0, [sp, #16]
.Ltmp434:
	.loc	3 2080 3                        @ ../ThirdParty/FreeRTOS/Source/tasks.c:2080:3
	b	.LBB19_7
.LBB19_7:                               @ =>This Inner Loop Header: Depth=1
.Ltmp435:
	.loc	3 2080 3 is_stmt 0              @ ../ThirdParty/FreeRTOS/Source/tasks.c:2080:3
	b	.LBB19_7
.Ltmp436:
.LBB19_8:
	.loc	3 0 3                           @ ../ThirdParty/FreeRTOS/Source/tasks.c:0:3
	b	.LBB19_9
.LBB19_9:
	.loc	3 2086 1 epilogue_begin is_stmt 1 @ ../ThirdParty/FreeRTOS/Source/tasks.c:2086:1
	add	sp, #24
	pop	{r7, pc}
.Ltmp437:
.Lfunc_end19:
	.size	vTaskStartScheduler, .Lfunc_end19-vTaskStartScheduler
	.cfi_endproc
	.cantunwind
	.fnend
                                        @ -- End function
	.section	.text.prvIdleTask,"ax",%progbits
	.p2align	2                               @ -- Begin function prvIdleTask
	.type	prvIdleTask,%function
	.code	16                              @ @prvIdleTask
	.thumb_func
prvIdleTask:
.Lfunc_begin20:
	.loc	3 3335 0                        @ ../ThirdParty/FreeRTOS/Source/tasks.c:3335:0
	.fnstart
	.cfi_startproc
@ %bb.0:
	.save	{r7, lr}
	push	{r7, lr}
	.cfi_def_cfa_offset 8
	.cfi_offset lr, -4
	.cfi_offset r7, -8
	.pad	#8
	sub	sp, #8
	.cfi_def_cfa_offset 16
	str	r0, [sp, #4]
.Ltmp438:
	.loc	3 3347 2 prologue_end           @ ../ThirdParty/FreeRTOS/Source/tasks.c:3347:2
	b	.LBB20_1
.LBB20_1:                               @ =>This Inner Loop Header: Depth=1
.Ltmp439:
	.loc	3 3351 3                        @ ../ThirdParty/FreeRTOS/Source/tasks.c:3351:3
	bl	prvCheckTasksWaitingTermination
.Ltmp440:
	.loc	3 3374 8                        @ ../ThirdParty/FreeRTOS/Source/tasks.c:3374:8
	movw	r0, :lower16:pxReadyTasksLists
	movt	r0, :upper16:pxReadyTasksLists
	ldr	r0, [r0]
.Ltmp441:
	.loc	3 3374 8 is_stmt 0              @ ../ThirdParty/FreeRTOS/Source/tasks.c:3374:8
	cmp	r0, #2
	blo	.LBB20_3
	b	.LBB20_2
.LBB20_2:                               @   in Loop: Header=BB20_1 Depth=1
	.loc	3 0 8                           @ ../ThirdParty/FreeRTOS/Source/tasks.c:0:8
	movw	r1, #60676
	movt	r1, #57344
	mov.w	r0, #268435456
.Ltmp442:
	.loc	3 3376 5 is_stmt 1              @ ../ThirdParty/FreeRTOS/Source/tasks.c:3376:5
	str	r0, [r1]
	@APP
	dsb	sy
	@NO_APP
	@APP
	isb	sy
	@NO_APP
.Ltmp443:
	.loc	3 3377 4                        @ ../ThirdParty/FreeRTOS/Source/tasks.c:3377:4
	b	.LBB20_4
.Ltmp444:
.LBB20_3:                               @   in Loop: Header=BB20_1 Depth=1
	.loc	3 0 4 is_stmt 0                 @ ../ThirdParty/FreeRTOS/Source/tasks.c:0:4
	b	.LBB20_4
.LBB20_4:                               @   in Loop: Header=BB20_1 Depth=1
.Ltmp445:
	.loc	3 3394 4 is_stmt 1              @ ../ThirdParty/FreeRTOS/Source/tasks.c:3394:4
	bl	vApplicationIdleHook
.Ltmp446:
	.loc	3 3347 2                        @ ../ThirdParty/FreeRTOS/Source/tasks.c:3347:2
	b	.LBB20_1
.Ltmp447:
.Lfunc_end20:
	.size	prvIdleTask, .Lfunc_end20-prvIdleTask
	.cfi_endproc
	.cantunwind
	.fnend
                                        @ -- End function
	.section	.text.vTaskEndScheduler,"ax",%progbits
	.hidden	vTaskEndScheduler               @ -- Begin function vTaskEndScheduler
	.globl	vTaskEndScheduler
	.p2align	2
	.type	vTaskEndScheduler,%function
	.code	16                              @ @vTaskEndScheduler
	.thumb_func
vTaskEndScheduler:
.Lfunc_begin21:
	.loc	3 2090 0                        @ ../ThirdParty/FreeRTOS/Source/tasks.c:2090:0
	.fnstart
	.cfi_startproc
@ %bb.0:
	.save	{r7, lr}
	push	{r7, lr}
	.cfi_def_cfa_offset 8
	.cfi_offset lr, -4
	.cfi_offset r7, -8
	.pad	#8
	sub	sp, #8
	.cfi_def_cfa_offset 16
.Ltmp448:
	.loc	2 199 2 prologue_end            @ ../ThirdParty/FreeRTOS/Source/portable/GCC/ARM_CM4F\portmacro.h:199:2
	@APP
	mov.w	r0, #80
	msr	basepri, r0
	isb	sy
	dsb	sy

	@NO_APP
	str	r0, [sp, #4]
.Ltmp449:
	.loc	3 2095 20                       @ ../ThirdParty/FreeRTOS/Source/tasks.c:2095:20
	movw	r1, :lower16:xSchedulerRunning
	movt	r1, :upper16:xSchedulerRunning
	movs	r0, #0
	str	r0, [r1]
	.loc	3 2096 2                        @ ../ThirdParty/FreeRTOS/Source/tasks.c:2096:2
	bl	vPortEndScheduler
	.loc	3 2097 1 epilogue_begin         @ ../ThirdParty/FreeRTOS/Source/tasks.c:2097:1
	add	sp, #8
	pop	{r7, pc}
.Ltmp450:
.Lfunc_end21:
	.size	vTaskEndScheduler, .Lfunc_end21-vTaskEndScheduler
	.cfi_endproc
	.cantunwind
	.fnend
                                        @ -- End function
	.section	.text.xTaskIncrementTick,"ax",%progbits
	.hidden	xTaskIncrementTick              @ -- Begin function xTaskIncrementTick
	.globl	xTaskIncrementTick
	.p2align	2
	.type	xTaskIncrementTick,%function
	.code	16                              @ @xTaskIncrementTick
	.thumb_func
xTaskIncrementTick:
.Lfunc_begin22:
	.loc	3 2666 0                        @ ../ThirdParty/FreeRTOS/Source/tasks.c:2666:0
	.fnstart
	.cfi_startproc
@ %bb.0:
	.save	{r7, lr}
	push	{r7, lr}
	.cfi_def_cfa_offset 8
	.cfi_offset lr, -4
	.cfi_offset r7, -8
	.pad	#24
	sub	sp, #24
	.cfi_def_cfa_offset 32
	movs	r0, #0
.Ltmp451:
	.loc	3 2669 12 prologue_end          @ ../ThirdParty/FreeRTOS/Source/tasks.c:2669:12
	str	r0, [sp, #8]
.Ltmp452:
	.loc	3 2675 6                        @ ../ThirdParty/FreeRTOS/Source/tasks.c:2675:6
	movw	r0, :lower16:uxSchedulerSuspended
	movt	r0, :upper16:uxSchedulerSuspended
	ldr	r0, [r0]
.Ltmp453:
	.loc	3 2675 6 is_stmt 0              @ ../ThirdParty/FreeRTOS/Source/tasks.c:2675:6
	cmp	r0, #0
	bne.w	.LBB22_27
	b	.LBB22_1
.LBB22_1:
.Ltmp454:
	.loc	3 2679 38 is_stmt 1             @ ../ThirdParty/FreeRTOS/Source/tasks.c:2679:38
	movw	r1, :lower16:xTickCount
	movt	r1, :upper16:xTickCount
	ldr	r0, [r1]
	.loc	3 2679 49 is_stmt 0             @ ../ThirdParty/FreeRTOS/Source/tasks.c:2679:49
	adds	r0, #1
	.loc	3 2679 20                       @ ../ThirdParty/FreeRTOS/Source/tasks.c:2679:20
	str	r0, [sp, #4]
	.loc	3 2683 16 is_stmt 1             @ ../ThirdParty/FreeRTOS/Source/tasks.c:2683:16
	ldr	r0, [sp, #4]
	.loc	3 2683 14 is_stmt 0             @ ../ThirdParty/FreeRTOS/Source/tasks.c:2683:14
	str	r0, [r1]
.Ltmp455:
	.loc	3 2685 7 is_stmt 1              @ ../ThirdParty/FreeRTOS/Source/tasks.c:2685:7
	ldr	r0, [sp, #4]
.Ltmp456:
	.loc	3 2685 7 is_stmt 0              @ ../ThirdParty/FreeRTOS/Source/tasks.c:2685:7
	cbnz	r0, .LBB22_6
	b	.LBB22_2
.LBB22_2:
.Ltmp457:
	.loc	3 2687 4 is_stmt 1              @ ../ThirdParty/FreeRTOS/Source/tasks.c:2687:4
	movw	r0, :lower16:pxDelayedTaskList
	movt	r0, :upper16:pxDelayedTaskList
	ldr	r0, [r0]
	ldr	r0, [r0]
.Ltmp458:
	.loc	3 2687 4 is_stmt 0              @ ../ThirdParty/FreeRTOS/Source/tasks.c:2687:4
	cbz	r0, .LBB22_5
	b	.LBB22_3
.LBB22_3:
.Ltmp459:
	.loc	2 199 2 is_stmt 1               @ ../ThirdParty/FreeRTOS/Source/portable/GCC/ARM_CM4F\portmacro.h:199:2
	@APP
	mov.w	r0, #80
	msr	basepri, r0
	isb	sy
	dsb	sy

	@NO_APP
	str	r0, [sp, #20]
.Ltmp460:
	.loc	3 2687 4                        @ ../ThirdParty/FreeRTOS/Source/tasks.c:2687:4
	b	.LBB22_4
.LBB22_4:                               @ =>This Inner Loop Header: Depth=1
.Ltmp461:
	.loc	3 2687 4 is_stmt 0              @ ../ThirdParty/FreeRTOS/Source/tasks.c:2687:4
	b	.LBB22_4
.Ltmp462:
.LBB22_5:
	.loc	3 2687 4                        @ ../ThirdParty/FreeRTOS/Source/tasks.c:2687:4
	movw	r2, :lower16:pxDelayedTaskList
	movt	r2, :upper16:pxDelayedTaskList
	ldr	r0, [r2]
	str	r0, [sp]
	movw	r1, :lower16:pxOverflowDelayedTaskList
	movt	r1, :upper16:pxOverflowDelayedTaskList
	ldr	r0, [r1]
	str	r0, [r2]
	ldr	r0, [sp]
	str	r0, [r1]
	movw	r1, :lower16:xNumOfOverflows
	movt	r1, :upper16:xNumOfOverflows
	ldr	r0, [r1]
	adds	r0, #1
	str	r0, [r1]
	bl	prvResetNextTaskUnblockTime
.Ltmp463:
	.loc	3 2688 3 is_stmt 1              @ ../ThirdParty/FreeRTOS/Source/tasks.c:2688:3
	b	.LBB22_7
.Ltmp464:
.LBB22_6:
	.loc	3 0 3 is_stmt 0                 @ ../ThirdParty/FreeRTOS/Source/tasks.c:0:3
	b	.LBB22_7
.LBB22_7:
.Ltmp465:
	.loc	3 2698 7 is_stmt 1              @ ../ThirdParty/FreeRTOS/Source/tasks.c:2698:7
	ldr	r0, [sp, #4]
	.loc	3 2698 26 is_stmt 0             @ ../ThirdParty/FreeRTOS/Source/tasks.c:2698:26
	movw	r1, :lower16:xNextTaskUnblockTime
	movt	r1, :upper16:xNextTaskUnblockTime
	ldr	r1, [r1]
.Ltmp466:
	.loc	3 2698 7                        @ ../ThirdParty/FreeRTOS/Source/tasks.c:2698:7
	cmp	r0, r1
	blo	.LBB22_23
	b	.LBB22_8
.LBB22_8:
.Ltmp467:
	.loc	3 2700 4 is_stmt 1              @ ../ThirdParty/FreeRTOS/Source/tasks.c:2700:4
	b	.LBB22_9
.LBB22_9:                               @ =>This Inner Loop Header: Depth=1
.Ltmp468:
	.loc	3 2702 9                        @ ../ThirdParty/FreeRTOS/Source/tasks.c:2702:9
	movw	r0, :lower16:pxDelayedTaskList
	movt	r0, :upper16:pxDelayedTaskList
	ldr	r0, [r0]
	ldr	r0, [r0]
.Ltmp469:
	.loc	3 2702 9 is_stmt 0              @ ../ThirdParty/FreeRTOS/Source/tasks.c:2702:9
	cbnz	r0, .LBB22_11
	b	.LBB22_10
.LBB22_10:
.Ltmp470:
	.loc	3 2709 27 is_stmt 1             @ ../ThirdParty/FreeRTOS/Source/tasks.c:2709:27
	movw	r1, :lower16:xNextTaskUnblockTime
	movt	r1, :upper16:xNextTaskUnblockTime
	mov.w	r0, #-1
	str	r0, [r1]
	.loc	3 2710 6                        @ ../ThirdParty/FreeRTOS/Source/tasks.c:2710:6
	b	.LBB22_22
.Ltmp471:
.LBB22_11:                              @   in Loop: Header=BB22_9 Depth=1
	.loc	3 2718 14                       @ ../ThirdParty/FreeRTOS/Source/tasks.c:2718:14
	movw	r0, :lower16:pxDelayedTaskList
	movt	r0, :upper16:pxDelayedTaskList
	ldr	r0, [r0]
	ldr	r0, [r0, #12]
	ldr	r0, [r0, #12]
	.loc	3 2718 12 is_stmt 0             @ ../ThirdParty/FreeRTOS/Source/tasks.c:2718:12
	str	r0, [sp, #16]
	.loc	3 2719 19 is_stmt 1             @ ../ThirdParty/FreeRTOS/Source/tasks.c:2719:19
	ldr	r0, [sp, #16]
	ldr	r0, [r0, #4]
	.loc	3 2719 17 is_stmt 0             @ ../ThirdParty/FreeRTOS/Source/tasks.c:2719:17
	str	r0, [sp, #12]
.Ltmp472:
	.loc	3 2721 10 is_stmt 1             @ ../ThirdParty/FreeRTOS/Source/tasks.c:2721:10
	ldr	r0, [sp, #4]
	.loc	3 2721 28 is_stmt 0             @ ../ThirdParty/FreeRTOS/Source/tasks.c:2721:28
	ldr	r1, [sp, #12]
.Ltmp473:
	.loc	3 2721 10                       @ ../ThirdParty/FreeRTOS/Source/tasks.c:2721:10
	cmp	r0, r1
	bhs	.LBB22_13
	b	.LBB22_12
.LBB22_12:
.Ltmp474:
	.loc	3 2728 30 is_stmt 1             @ ../ThirdParty/FreeRTOS/Source/tasks.c:2728:30
	ldr	r0, [sp, #12]
	.loc	3 2728 28 is_stmt 0             @ ../ThirdParty/FreeRTOS/Source/tasks.c:2728:28
	movw	r1, :lower16:xNextTaskUnblockTime
	movt	r1, :upper16:xNextTaskUnblockTime
	str	r0, [r1]
	.loc	3 2729 7 is_stmt 1              @ ../ThirdParty/FreeRTOS/Source/tasks.c:2729:7
	b	.LBB22_22
.Ltmp475:
.LBB22_13:                              @   in Loop: Header=BB22_9 Depth=1
	.loc	3 0 7 is_stmt 0                 @ ../ThirdParty/FreeRTOS/Source/tasks.c:0:7
	b	.LBB22_14
.LBB22_14:                              @   in Loop: Header=BB22_9 Depth=1
	.loc	3 2737 32 is_stmt 1             @ ../ThirdParty/FreeRTOS/Source/tasks.c:2737:32
	ldr	r0, [sp, #16]
	.loc	3 2737 39 is_stmt 0             @ ../ThirdParty/FreeRTOS/Source/tasks.c:2737:39
	adds	r0, #4
	.loc	3 2737 15                       @ ../ThirdParty/FreeRTOS/Source/tasks.c:2737:15
	bl	uxListRemove
.Ltmp476:
	.loc	3 2741 10 is_stmt 1             @ ../ThirdParty/FreeRTOS/Source/tasks.c:2741:10
	ldr	r0, [sp, #16]
	ldr	r0, [r0, #40]
.Ltmp477:
	.loc	3 2741 10 is_stmt 0             @ ../ThirdParty/FreeRTOS/Source/tasks.c:2741:10
	cbz	r0, .LBB22_16
	b	.LBB22_15
.LBB22_15:                              @   in Loop: Header=BB22_9 Depth=1
.Ltmp478:
	.loc	3 2743 33 is_stmt 1             @ ../ThirdParty/FreeRTOS/Source/tasks.c:2743:33
	ldr	r0, [sp, #16]
	.loc	3 2743 40 is_stmt 0             @ ../ThirdParty/FreeRTOS/Source/tasks.c:2743:40
	adds	r0, #24
	.loc	3 2743 16                       @ ../ThirdParty/FreeRTOS/Source/tasks.c:2743:16
	bl	uxListRemove
	.loc	3 2744 6 is_stmt 1              @ ../ThirdParty/FreeRTOS/Source/tasks.c:2744:6
	b	.LBB22_17
.Ltmp479:
.LBB22_16:                              @   in Loop: Header=BB22_9 Depth=1
	.loc	3 0 6 is_stmt 0                 @ ../ThirdParty/FreeRTOS/Source/tasks.c:0:6
	b	.LBB22_17
.LBB22_17:                              @   in Loop: Header=BB22_9 Depth=1
	.loc	3 2752 6 is_stmt 1              @ ../ThirdParty/FreeRTOS/Source/tasks.c:2752:6
	ldr	r0, [sp, #16]
	ldr	r1, [r0, #44]
	movs	r0, #1
	lsl.w	r2, r0, r1
	movw	r1, :lower16:uxTopReadyPriority
	movt	r1, :upper16:uxTopReadyPriority
	ldr	r0, [r1]
	orrs	r0, r2
	str	r0, [r1]
	ldr	r1, [sp, #16]
	ldr	r0, [r1, #44]
	add.w	r2, r0, r0, lsl #2
	movw	r0, :lower16:pxReadyTasksLists
	movt	r0, :upper16:pxReadyTasksLists
	add.w	r0, r0, r2, lsl #2
	adds	r1, #4
	bl	vListInsertEnd
.Ltmp480:
	.loc	3 2762 11                       @ ../ThirdParty/FreeRTOS/Source/tasks.c:2762:11
	ldr	r0, [sp, #16]
	.loc	3 2762 18 is_stmt 0             @ ../ThirdParty/FreeRTOS/Source/tasks.c:2762:18
	ldr	r0, [r0, #44]
	.loc	3 2762 32                       @ ../ThirdParty/FreeRTOS/Source/tasks.c:2762:32
	movw	r1, :lower16:pxCurrentTCB
	movt	r1, :upper16:pxCurrentTCB
	ldr	r1, [r1]
	.loc	3 2762 46                       @ ../ThirdParty/FreeRTOS/Source/tasks.c:2762:46
	ldr	r1, [r1, #44]
.Ltmp481:
	.loc	3 2762 11                       @ ../ThirdParty/FreeRTOS/Source/tasks.c:2762:11
	cmp	r0, r1
	blo	.LBB22_19
	b	.LBB22_18
.LBB22_18:                              @   in Loop: Header=BB22_9 Depth=1
	.loc	3 0 11                          @ ../ThirdParty/FreeRTOS/Source/tasks.c:0:11
	movs	r0, #1
.Ltmp482:
	.loc	3 2764 24 is_stmt 1             @ ../ThirdParty/FreeRTOS/Source/tasks.c:2764:24
	str	r0, [sp, #8]
	.loc	3 2765 7                        @ ../ThirdParty/FreeRTOS/Source/tasks.c:2765:7
	b	.LBB22_20
.Ltmp483:
.LBB22_19:                              @   in Loop: Header=BB22_9 Depth=1
	.loc	3 0 7 is_stmt 0                 @ ../ThirdParty/FreeRTOS/Source/tasks.c:0:7
	b	.LBB22_20
.LBB22_20:                              @   in Loop: Header=BB22_9 Depth=1
	b	.LBB22_21
.LBB22_21:                              @   in Loop: Header=BB22_9 Depth=1
	.loc	3 2700 4 is_stmt 1              @ ../ThirdParty/FreeRTOS/Source/tasks.c:2700:4
	b	.LBB22_9
.Ltmp484:
.LBB22_22:
	.loc	3 2774 3                        @ ../ThirdParty/FreeRTOS/Source/tasks.c:2774:3
	b	.LBB22_23
.Ltmp485:
.LBB22_23:
	.loc	3 2781 8                        @ ../ThirdParty/FreeRTOS/Source/tasks.c:2781:8
	movw	r0, :lower16:pxCurrentTCB
	movt	r0, :upper16:pxCurrentTCB
	ldr	r0, [r0]
	ldr	r0, [r0, #44]
	add.w	r1, r0, r0, lsl #2
	movw	r0, :lower16:pxReadyTasksLists
	movt	r0, :upper16:pxReadyTasksLists
	ldr.w	r0, [r0, r1, lsl #2]
.Ltmp486:
	.loc	3 2781 8 is_stmt 0              @ ../ThirdParty/FreeRTOS/Source/tasks.c:2781:8
	cmp	r0, #2
	blo	.LBB22_25
	b	.LBB22_24
.LBB22_24:
	.loc	3 0 8                           @ ../ThirdParty/FreeRTOS/Source/tasks.c:0:8
	movs	r0, #1
.Ltmp487:
	.loc	3 2783 21 is_stmt 1             @ ../ThirdParty/FreeRTOS/Source/tasks.c:2783:21
	str	r0, [sp, #8]
	.loc	3 2784 4                        @ ../ThirdParty/FreeRTOS/Source/tasks.c:2784:4
	b	.LBB22_26
.Ltmp488:
.LBB22_25:
	.loc	3 0 4 is_stmt 0                 @ ../ThirdParty/FreeRTOS/Source/tasks.c:0:4
	b	.LBB22_26
.LBB22_26:
	.loc	3 2806 2 is_stmt 1              @ ../ThirdParty/FreeRTOS/Source/tasks.c:2806:2
	b	.LBB22_28
.Ltmp489:
.LBB22_27:
	.loc	3 2809 3                        @ ../ThirdParty/FreeRTOS/Source/tasks.c:2809:3
	movw	r1, :lower16:uxPendedTicks
	movt	r1, :upper16:uxPendedTicks
	ldr	r0, [r1]
	adds	r0, #1
	str	r0, [r1]
	b	.LBB22_28
.Ltmp490:
.LBB22_28:
	.loc	3 2822 7                        @ ../ThirdParty/FreeRTOS/Source/tasks.c:2822:7
	movw	r0, :lower16:xYieldPending
	movt	r0, :upper16:xYieldPending
	ldr	r0, [r0]
.Ltmp491:
	.loc	3 2822 7 is_stmt 0              @ ../ThirdParty/FreeRTOS/Source/tasks.c:2822:7
	cbz	r0, .LBB22_30
	b	.LBB22_29
.LBB22_29:
	.loc	3 0 7                           @ ../ThirdParty/FreeRTOS/Source/tasks.c:0:7
	movs	r0, #1
.Ltmp492:
	.loc	3 2824 20 is_stmt 1             @ ../ThirdParty/FreeRTOS/Source/tasks.c:2824:20
	str	r0, [sp, #8]
	.loc	3 2825 3                        @ ../ThirdParty/FreeRTOS/Source/tasks.c:2825:3
	b	.LBB22_31
.Ltmp493:
.LBB22_30:
	.loc	3 0 3 is_stmt 0                 @ ../ThirdParty/FreeRTOS/Source/tasks.c:0:3
	b	.LBB22_31
.LBB22_31:
	.loc	3 2833 9 is_stmt 1              @ ../ThirdParty/FreeRTOS/Source/tasks.c:2833:9
	ldr	r0, [sp, #8]
	.loc	3 2833 2 epilogue_begin is_stmt 0 @ ../ThirdParty/FreeRTOS/Source/tasks.c:2833:2
	add	sp, #24
	pop	{r7, pc}
.Ltmp494:
.Lfunc_end22:
	.size	xTaskIncrementTick, .Lfunc_end22-xTaskIncrementTick
	.cfi_endproc
	.cantunwind
	.fnend
                                        @ -- End function
	.section	.text.xTaskGetTickCount,"ax",%progbits
	.hidden	xTaskGetTickCount               @ -- Begin function xTaskGetTickCount
	.globl	xTaskGetTickCount
	.p2align	2
	.type	xTaskGetTickCount,%function
	.code	16                              @ @xTaskGetTickCount
	.thumb_func
xTaskGetTickCount:
.Lfunc_begin23:
	.loc	3 2285 0 is_stmt 1              @ ../ThirdParty/FreeRTOS/Source/tasks.c:2285:0
	.fnstart
	.cfi_startproc
@ %bb.0:
	.pad	#4
	sub	sp, #4
	.cfi_def_cfa_offset 4
.Ltmp495:
	.loc	3 2291 12 prologue_end          @ ../ThirdParty/FreeRTOS/Source/tasks.c:2291:12
	movw	r0, :lower16:xTickCount
	movt	r0, :upper16:xTickCount
	ldr	r0, [r0]
	.loc	3 2291 10 is_stmt 0             @ ../ThirdParty/FreeRTOS/Source/tasks.c:2291:10
	str	r0, [sp]
.Ltmp496:
	.loc	3 2295 9 is_stmt 1              @ ../ThirdParty/FreeRTOS/Source/tasks.c:2295:9
	ldr	r0, [sp]
	.loc	3 2295 2 epilogue_begin is_stmt 0 @ ../ThirdParty/FreeRTOS/Source/tasks.c:2295:2
	add	sp, #4
	bx	lr
.Ltmp497:
.Lfunc_end23:
	.size	xTaskGetTickCount, .Lfunc_end23-xTaskGetTickCount
	.cfi_endproc
	.cantunwind
	.fnend
                                        @ -- End function
	.section	.text.xTaskGetTickCountFromISR,"ax",%progbits
	.hidden	xTaskGetTickCountFromISR        @ -- Begin function xTaskGetTickCountFromISR
	.globl	xTaskGetTickCountFromISR
	.p2align	2
	.type	xTaskGetTickCountFromISR,%function
	.code	16                              @ @xTaskGetTickCountFromISR
	.thumb_func
xTaskGetTickCountFromISR:
.Lfunc_begin24:
	.loc	3 2300 0 is_stmt 1              @ ../ThirdParty/FreeRTOS/Source/tasks.c:2300:0
	.fnstart
	.cfi_startproc
@ %bb.0:
	.save	{r7, lr}
	push	{r7, lr}
	.cfi_def_cfa_offset 8
	.cfi_offset lr, -4
	.cfi_offset r7, -8
	.pad	#8
	sub	sp, #8
	.cfi_def_cfa_offset 16
.Ltmp498:
	.loc	3 2318 2 prologue_end           @ ../ThirdParty/FreeRTOS/Source/tasks.c:2318:2
	bl	vPortValidateInterruptPriority
	movs	r0, #0
	.loc	3 2320 25                       @ ../ThirdParty/FreeRTOS/Source/tasks.c:2320:25
	str	r0, [sp]
.Ltmp499:
	.loc	3 2322 13                       @ ../ThirdParty/FreeRTOS/Source/tasks.c:2322:13
	movw	r0, :lower16:xTickCount
	movt	r0, :upper16:xTickCount
	ldr	r0, [r0]
	.loc	3 2322 11 is_stmt 0             @ ../ThirdParty/FreeRTOS/Source/tasks.c:2322:11
	str	r0, [sp, #4]
.Ltmp500:
	.loc	3 2326 9 is_stmt 1              @ ../ThirdParty/FreeRTOS/Source/tasks.c:2326:9
	ldr	r0, [sp, #4]
	.loc	3 2326 2 epilogue_begin is_stmt 0 @ ../ThirdParty/FreeRTOS/Source/tasks.c:2326:2
	add	sp, #8
	pop	{r7, pc}
.Ltmp501:
.Lfunc_end24:
	.size	xTaskGetTickCountFromISR, .Lfunc_end24-xTaskGetTickCountFromISR
	.cfi_endproc
	.cantunwind
	.fnend
                                        @ -- End function
	.section	.text.uxTaskGetNumberOfTasks,"ax",%progbits
	.hidden	uxTaskGetNumberOfTasks          @ -- Begin function uxTaskGetNumberOfTasks
	.globl	uxTaskGetNumberOfTasks
	.p2align	2
	.type	uxTaskGetNumberOfTasks,%function
	.code	16                              @ @uxTaskGetNumberOfTasks
	.thumb_func
uxTaskGetNumberOfTasks:
.Lfunc_begin25:
	.fnstart
	.cfi_startproc
@ %bb.0:
	.loc	3 2334 9 prologue_end is_stmt 1 @ ../ThirdParty/FreeRTOS/Source/tasks.c:2334:9
	movw	r0, :lower16:uxCurrentNumberOfTasks
	movt	r0, :upper16:uxCurrentNumberOfTasks
	ldr	r0, [r0]
	.loc	3 2334 2 is_stmt 0              @ ../ThirdParty/FreeRTOS/Source/tasks.c:2334:2
	bx	lr
.Ltmp502:
.Lfunc_end25:
	.size	uxTaskGetNumberOfTasks, .Lfunc_end25-uxTaskGetNumberOfTasks
	.cfi_endproc
	.cantunwind
	.fnend
                                        @ -- End function
	.section	.text.pcTaskGetName,"ax",%progbits
	.hidden	pcTaskGetName                   @ -- Begin function pcTaskGetName
	.globl	pcTaskGetName
	.p2align	2
	.type	pcTaskGetName,%function
	.code	16                              @ @pcTaskGetName
	.thumb_func
pcTaskGetName:
.Lfunc_begin26:
	.loc	3 2339 0 is_stmt 1              @ ../ThirdParty/FreeRTOS/Source/tasks.c:2339:0
	.fnstart
	.cfi_startproc
@ %bb.0:
	.pad	#16
	sub	sp, #16
	.cfi_def_cfa_offset 16
	str	r0, [sp, #8]
.Ltmp503:
	.loc	3 2344 10 prologue_end          @ ../ThirdParty/FreeRTOS/Source/tasks.c:2344:10
	ldr	r0, [sp, #8]
	cbnz	r0, .LBB26_2
	b	.LBB26_1
.LBB26_1:
	movw	r0, :lower16:pxCurrentTCB
	movt	r0, :upper16:pxCurrentTCB
	ldr	r0, [r0]
	str	r0, [sp]                        @ 4-byte Spill
	b	.LBB26_3
.LBB26_2:
	ldr	r0, [sp, #8]
	str	r0, [sp]                        @ 4-byte Spill
	b	.LBB26_3
.LBB26_3:
	ldr	r0, [sp]                        @ 4-byte Reload
	.loc	3 2344 8 is_stmt 0              @ ../ThirdParty/FreeRTOS/Source/tasks.c:2344:8
	str	r0, [sp, #4]
.Ltmp504:
	.loc	3 2345 2 is_stmt 1              @ ../ThirdParty/FreeRTOS/Source/tasks.c:2345:2
	ldr	r0, [sp, #4]
.Ltmp505:
	.loc	3 2345 2 is_stmt 0              @ ../ThirdParty/FreeRTOS/Source/tasks.c:2345:2
	cbnz	r0, .LBB26_6
	b	.LBB26_4
.LBB26_4:
.Ltmp506:
	.loc	2 199 2 is_stmt 1               @ ../ThirdParty/FreeRTOS/Source/portable/GCC/ARM_CM4F\portmacro.h:199:2
	@APP
	mov.w	r0, #80
	msr	basepri, r0
	isb	sy
	dsb	sy

	@NO_APP
	str	r0, [sp, #12]
.Ltmp507:
	.loc	3 2345 2                        @ ../ThirdParty/FreeRTOS/Source/tasks.c:2345:2
	b	.LBB26_5
.LBB26_5:                               @ =>This Inner Loop Header: Depth=1
.Ltmp508:
	.loc	3 2345 2 is_stmt 0              @ ../ThirdParty/FreeRTOS/Source/tasks.c:2345:2
	b	.LBB26_5
.Ltmp509:
.LBB26_6:
	.loc	3 2346 12 is_stmt 1             @ ../ThirdParty/FreeRTOS/Source/tasks.c:2346:12
	ldr	r0, [sp, #4]
	.loc	3 2346 19 is_stmt 0             @ ../ThirdParty/FreeRTOS/Source/tasks.c:2346:19
	adds	r0, #52
	.loc	3 2346 2 epilogue_begin         @ ../ThirdParty/FreeRTOS/Source/tasks.c:2346:2
	add	sp, #16
	bx	lr
.Ltmp510:
.Lfunc_end26:
	.size	pcTaskGetName, .Lfunc_end26-pcTaskGetName
	.cfi_endproc
	.cantunwind
	.fnend
                                        @ -- End function
	.section	.text.vTaskPlaceOnEventList,"ax",%progbits
	.hidden	vTaskPlaceOnEventList           @ -- Begin function vTaskPlaceOnEventList
	.globl	vTaskPlaceOnEventList
	.p2align	2
	.type	vTaskPlaceOnEventList,%function
	.code	16                              @ @vTaskPlaceOnEventList
	.thumb_func
vTaskPlaceOnEventList:
.Lfunc_begin27:
	.loc	3 3021 0 is_stmt 1              @ ../ThirdParty/FreeRTOS/Source/tasks.c:3021:0
	.fnstart
	.cfi_startproc
@ %bb.0:
	.save	{r7, lr}
	push	{r7, lr}
	.cfi_def_cfa_offset 8
	.cfi_offset lr, -4
	.cfi_offset r7, -8
	.pad	#16
	sub	sp, #16
	.cfi_def_cfa_offset 24
	str	r0, [sp, #8]
	str	r1, [sp, #4]
.Ltmp511:
	.loc	3 3022 2 prologue_end           @ ../ThirdParty/FreeRTOS/Source/tasks.c:3022:2
	ldr	r0, [sp, #8]
.Ltmp512:
	.loc	3 3022 2 is_stmt 0              @ ../ThirdParty/FreeRTOS/Source/tasks.c:3022:2
	cbnz	r0, .LBB27_3
	b	.LBB27_1
.LBB27_1:
.Ltmp513:
	.loc	2 199 2 is_stmt 1               @ ../ThirdParty/FreeRTOS/Source/portable/GCC/ARM_CM4F\portmacro.h:199:2
	@APP
	mov.w	r0, #80
	msr	basepri, r0
	isb	sy
	dsb	sy

	@NO_APP
	str	r0, [sp, #12]
.Ltmp514:
	.loc	3 3022 2                        @ ../ThirdParty/FreeRTOS/Source/tasks.c:3022:2
	b	.LBB27_2
.LBB27_2:                               @ =>This Inner Loop Header: Depth=1
.Ltmp515:
	.loc	3 3022 2 is_stmt 0              @ ../ThirdParty/FreeRTOS/Source/tasks.c:3022:2
	b	.LBB27_2
.Ltmp516:
.LBB27_3:
	.loc	3 3031 15 is_stmt 1             @ ../ThirdParty/FreeRTOS/Source/tasks.c:3031:15
	ldr	r0, [sp, #8]
	.loc	3 3031 31 is_stmt 0             @ ../ThirdParty/FreeRTOS/Source/tasks.c:3031:31
	movw	r1, :lower16:pxCurrentTCB
	movt	r1, :upper16:pxCurrentTCB
	ldr	r1, [r1]
	.loc	3 3031 45                       @ ../ThirdParty/FreeRTOS/Source/tasks.c:3031:45
	adds	r1, #24
	.loc	3 3031 2                        @ ../ThirdParty/FreeRTOS/Source/tasks.c:3031:2
	bl	vListInsert
	.loc	3 3033 34 is_stmt 1             @ ../ThirdParty/FreeRTOS/Source/tasks.c:3033:34
	ldr	r0, [sp, #4]
	movs	r1, #1
	.loc	3 3033 2 is_stmt 0              @ ../ThirdParty/FreeRTOS/Source/tasks.c:3033:2
	bl	prvAddCurrentTaskToDelayedList
	.loc	3 3034 1 epilogue_begin is_stmt 1 @ ../ThirdParty/FreeRTOS/Source/tasks.c:3034:1
	add	sp, #16
	pop	{r7, pc}
.Ltmp517:
.Lfunc_end27:
	.size	vTaskPlaceOnEventList, .Lfunc_end27-vTaskPlaceOnEventList
	.cfi_endproc
	.cantunwind
	.fnend
                                        @ -- End function
	.section	.text.vTaskPlaceOnUnorderedEventList,"ax",%progbits
	.hidden	vTaskPlaceOnUnorderedEventList  @ -- Begin function vTaskPlaceOnUnorderedEventList
	.globl	vTaskPlaceOnUnorderedEventList
	.p2align	2
	.type	vTaskPlaceOnUnorderedEventList,%function
	.code	16                              @ @vTaskPlaceOnUnorderedEventList
	.thumb_func
vTaskPlaceOnUnorderedEventList:
.Lfunc_begin28:
	.loc	3 3038 0                        @ ../ThirdParty/FreeRTOS/Source/tasks.c:3038:0
	.fnstart
	.cfi_startproc
@ %bb.0:
	.save	{r7, lr}
	push	{r7, lr}
	.cfi_def_cfa_offset 8
	.cfi_offset lr, -4
	.cfi_offset r7, -8
	.pad	#24
	sub	sp, #24
	.cfi_def_cfa_offset 32
	str	r0, [sp, #12]
	str	r1, [sp, #8]
	str	r2, [sp, #4]
.Ltmp518:
	.loc	3 3039 2 prologue_end           @ ../ThirdParty/FreeRTOS/Source/tasks.c:3039:2
	ldr	r0, [sp, #12]
.Ltmp519:
	.loc	3 3039 2 is_stmt 0              @ ../ThirdParty/FreeRTOS/Source/tasks.c:3039:2
	cbnz	r0, .LBB28_3
	b	.LBB28_1
.LBB28_1:
.Ltmp520:
	.loc	2 199 2 is_stmt 1               @ ../ThirdParty/FreeRTOS/Source/portable/GCC/ARM_CM4F\portmacro.h:199:2
	@APP
	mov.w	r0, #80
	msr	basepri, r0
	isb	sy
	dsb	sy

	@NO_APP
	str	r0, [sp, #20]
.Ltmp521:
	.loc	3 3039 2                        @ ../ThirdParty/FreeRTOS/Source/tasks.c:3039:2
	b	.LBB28_2
.LBB28_2:                               @ =>This Inner Loop Header: Depth=1
.Ltmp522:
	.loc	3 3039 2 is_stmt 0              @ ../ThirdParty/FreeRTOS/Source/tasks.c:3039:2
	b	.LBB28_2
.Ltmp523:
.LBB28_3:
	.loc	3 3043 2 is_stmt 1              @ ../ThirdParty/FreeRTOS/Source/tasks.c:3043:2
	movw	r0, :lower16:uxSchedulerSuspended
	movt	r0, :upper16:uxSchedulerSuspended
	ldr	r0, [r0]
.Ltmp524:
	.loc	3 3043 2 is_stmt 0              @ ../ThirdParty/FreeRTOS/Source/tasks.c:3043:2
	cbnz	r0, .LBB28_6
	b	.LBB28_4
.LBB28_4:
.Ltmp525:
	.loc	2 199 2 is_stmt 1               @ ../ThirdParty/FreeRTOS/Source/portable/GCC/ARM_CM4F\portmacro.h:199:2
	@APP
	mov.w	r0, #80
	msr	basepri, r0
	isb	sy
	dsb	sy

	@NO_APP
	str	r0, [sp, #16]
.Ltmp526:
	.loc	3 3043 2                        @ ../ThirdParty/FreeRTOS/Source/tasks.c:3043:2
	b	.LBB28_5
.LBB28_5:                               @ =>This Inner Loop Header: Depth=1
.Ltmp527:
	.loc	3 3043 2 is_stmt 0              @ ../ThirdParty/FreeRTOS/Source/tasks.c:3043:2
	b	.LBB28_5
.Ltmp528:
.LBB28_6:
	.loc	3 3048 2 is_stmt 1              @ ../ThirdParty/FreeRTOS/Source/tasks.c:3048:2
	ldr	r0, [sp, #8]
	orr	r0, r0, #-2147483648
	movw	r1, :lower16:pxCurrentTCB
	movt	r1, :upper16:pxCurrentTCB
	ldr	r2, [r1]
	str	r0, [r2, #24]
	.loc	3 3055 18                       @ ../ThirdParty/FreeRTOS/Source/tasks.c:3055:18
	ldr	r0, [sp, #12]
	.loc	3 3055 34 is_stmt 0             @ ../ThirdParty/FreeRTOS/Source/tasks.c:3055:34
	ldr	r1, [r1]
	.loc	3 3055 48                       @ ../ThirdParty/FreeRTOS/Source/tasks.c:3055:48
	adds	r1, #24
	.loc	3 3055 2                        @ ../ThirdParty/FreeRTOS/Source/tasks.c:3055:2
	bl	vListInsertEnd
	.loc	3 3057 34 is_stmt 1             @ ../ThirdParty/FreeRTOS/Source/tasks.c:3057:34
	ldr	r0, [sp, #4]
	movs	r1, #1
	.loc	3 3057 2 is_stmt 0              @ ../ThirdParty/FreeRTOS/Source/tasks.c:3057:2
	bl	prvAddCurrentTaskToDelayedList
	.loc	3 3058 1 epilogue_begin is_stmt 1 @ ../ThirdParty/FreeRTOS/Source/tasks.c:3058:1
	add	sp, #24
	pop	{r7, pc}
.Ltmp529:
.Lfunc_end28:
	.size	vTaskPlaceOnUnorderedEventList, .Lfunc_end28-vTaskPlaceOnUnorderedEventList
	.cfi_endproc
	.cantunwind
	.fnend
                                        @ -- End function
	.section	.text.xTaskRemoveFromEventList,"ax",%progbits
	.hidden	xTaskRemoveFromEventList        @ -- Begin function xTaskRemoveFromEventList
	.globl	xTaskRemoveFromEventList
	.p2align	2
	.type	xTaskRemoveFromEventList,%function
	.code	16                              @ @xTaskRemoveFromEventList
	.thumb_func
xTaskRemoveFromEventList:
.Lfunc_begin29:
	.loc	3 3095 0                        @ ../ThirdParty/FreeRTOS/Source/tasks.c:3095:0
	.fnstart
	.cfi_startproc
@ %bb.0:
	.save	{r7, lr}
	push	{r7, lr}
	.cfi_def_cfa_offset 8
	.cfi_offset lr, -4
	.cfi_offset r7, -8
	.pad	#16
	sub	sp, #16
	.cfi_def_cfa_offset 24
	str	r0, [sp, #8]
.Ltmp530:
	.loc	3 3112 19 prologue_end          @ ../ThirdParty/FreeRTOS/Source/tasks.c:3112:19
	ldr	r0, [sp, #8]
	ldr	r0, [r0, #12]
	ldr	r0, [r0, #12]
	.loc	3 3112 17 is_stmt 0             @ ../ThirdParty/FreeRTOS/Source/tasks.c:3112:17
	str	r0, [sp, #4]
.Ltmp531:
	.loc	3 3113 2 is_stmt 1              @ ../ThirdParty/FreeRTOS/Source/tasks.c:3113:2
	ldr	r0, [sp, #4]
.Ltmp532:
	.loc	3 3113 2 is_stmt 0              @ ../ThirdParty/FreeRTOS/Source/tasks.c:3113:2
	cbnz	r0, .LBB29_3
	b	.LBB29_1
.LBB29_1:
.Ltmp533:
	.loc	2 199 2 is_stmt 1               @ ../ThirdParty/FreeRTOS/Source/portable/GCC/ARM_CM4F\portmacro.h:199:2
	@APP
	mov.w	r0, #80
	msr	basepri, r0
	isb	sy
	dsb	sy

	@NO_APP
	str	r0, [sp, #12]
.Ltmp534:
	.loc	3 3113 2                        @ ../ThirdParty/FreeRTOS/Source/tasks.c:3113:2
	b	.LBB29_2
.LBB29_2:                               @ =>This Inner Loop Header: Depth=1
.Ltmp535:
	.loc	3 3113 2 is_stmt 0              @ ../ThirdParty/FreeRTOS/Source/tasks.c:3113:2
	b	.LBB29_2
.Ltmp536:
.LBB29_3:
	.loc	3 3114 28 is_stmt 1             @ ../ThirdParty/FreeRTOS/Source/tasks.c:3114:28
	ldr	r0, [sp, #4]
	.loc	3 3114 44 is_stmt 0             @ ../ThirdParty/FreeRTOS/Source/tasks.c:3114:44
	adds	r0, #24
	.loc	3 3114 11                       @ ../ThirdParty/FreeRTOS/Source/tasks.c:3114:11
	bl	uxListRemove
.Ltmp537:
	.loc	3 3116 6 is_stmt 1              @ ../ThirdParty/FreeRTOS/Source/tasks.c:3116:6
	movw	r0, :lower16:uxSchedulerSuspended
	movt	r0, :upper16:uxSchedulerSuspended
	ldr	r0, [r0]
.Ltmp538:
	.loc	3 3116 6 is_stmt 0              @ ../ThirdParty/FreeRTOS/Source/tasks.c:3116:6
	cbnz	r0, .LBB29_5
	b	.LBB29_4
.LBB29_4:
.Ltmp539:
	.loc	3 3118 29 is_stmt 1             @ ../ThirdParty/FreeRTOS/Source/tasks.c:3118:29
	ldr	r0, [sp, #4]
	.loc	3 3118 45 is_stmt 0             @ ../ThirdParty/FreeRTOS/Source/tasks.c:3118:45
	adds	r0, #4
	.loc	3 3118 12                       @ ../ThirdParty/FreeRTOS/Source/tasks.c:3118:12
	bl	uxListRemove
	.loc	3 3119 3 is_stmt 1              @ ../ThirdParty/FreeRTOS/Source/tasks.c:3119:3
	ldr	r0, [sp, #4]
	ldr	r1, [r0, #44]
	movs	r0, #1
	lsl.w	r2, r0, r1
	movw	r1, :lower16:uxTopReadyPriority
	movt	r1, :upper16:uxTopReadyPriority
	ldr	r0, [r1]
	orrs	r0, r2
	str	r0, [r1]
	ldr	r1, [sp, #4]
	ldr	r0, [r1, #44]
	add.w	r2, r0, r0, lsl #2
	movw	r0, :lower16:pxReadyTasksLists
	movt	r0, :upper16:pxReadyTasksLists
	add.w	r0, r0, r2, lsl #2
	adds	r1, #4
	bl	vListInsertEnd
	.loc	3 3134 2                        @ ../ThirdParty/FreeRTOS/Source/tasks.c:3134:2
	b	.LBB29_6
.Ltmp540:
.LBB29_5:
	.loc	3 3139 46                       @ ../ThirdParty/FreeRTOS/Source/tasks.c:3139:46
	ldr	r0, [sp, #4]
	.loc	3 3139 62 is_stmt 0             @ ../ThirdParty/FreeRTOS/Source/tasks.c:3139:62
	add.w	r1, r0, #24
	.loc	3 3139 3                        @ ../ThirdParty/FreeRTOS/Source/tasks.c:3139:3
	movw	r0, :lower16:xPendingReadyList
	movt	r0, :upper16:xPendingReadyList
	bl	vListInsertEnd
	b	.LBB29_6
.Ltmp541:
.LBB29_6:
	.loc	3 3142 6 is_stmt 1              @ ../ThirdParty/FreeRTOS/Source/tasks.c:3142:6
	ldr	r0, [sp, #4]
	.loc	3 3142 22 is_stmt 0             @ ../ThirdParty/FreeRTOS/Source/tasks.c:3142:22
	ldr	r0, [r0, #44]
	.loc	3 3142 35                       @ ../ThirdParty/FreeRTOS/Source/tasks.c:3142:35
	movw	r1, :lower16:pxCurrentTCB
	movt	r1, :upper16:pxCurrentTCB
	ldr	r1, [r1]
	.loc	3 3142 49                       @ ../ThirdParty/FreeRTOS/Source/tasks.c:3142:49
	ldr	r1, [r1, #44]
.Ltmp542:
	.loc	3 3142 6                        @ ../ThirdParty/FreeRTOS/Source/tasks.c:3142:6
	cmp	r0, r1
	bls	.LBB29_8
	b	.LBB29_7
.LBB29_7:
	.loc	3 0 6                           @ ../ThirdParty/FreeRTOS/Source/tasks.c:0:6
	movs	r0, #1
.Ltmp543:
	.loc	3 3147 11 is_stmt 1             @ ../ThirdParty/FreeRTOS/Source/tasks.c:3147:11
	str	r0, [sp]
	.loc	3 3151 17                       @ ../ThirdParty/FreeRTOS/Source/tasks.c:3151:17
	movw	r1, :lower16:xYieldPending
	movt	r1, :upper16:xYieldPending
	str	r0, [r1]
	.loc	3 3152 2                        @ ../ThirdParty/FreeRTOS/Source/tasks.c:3152:2
	b	.LBB29_9
.Ltmp544:
.LBB29_8:
	.loc	3 0 2 is_stmt 0                 @ ../ThirdParty/FreeRTOS/Source/tasks.c:0:2
	movs	r0, #0
.Ltmp545:
	.loc	3 3155 11 is_stmt 1             @ ../ThirdParty/FreeRTOS/Source/tasks.c:3155:11
	str	r0, [sp]
	b	.LBB29_9
.Ltmp546:
.LBB29_9:
	.loc	3 3158 9                        @ ../ThirdParty/FreeRTOS/Source/tasks.c:3158:9
	ldr	r0, [sp]
	.loc	3 3158 2 epilogue_begin is_stmt 0 @ ../ThirdParty/FreeRTOS/Source/tasks.c:3158:2
	add	sp, #16
	pop	{r7, pc}
.Ltmp547:
.Lfunc_end29:
	.size	xTaskRemoveFromEventList, .Lfunc_end29-xTaskRemoveFromEventList
	.cfi_endproc
	.cantunwind
	.fnend
                                        @ -- End function
	.section	.text.vTaskRemoveFromUnorderedEventList,"ax",%progbits
	.hidden	vTaskRemoveFromUnorderedEventList @ -- Begin function vTaskRemoveFromUnorderedEventList
	.globl	vTaskRemoveFromUnorderedEventList
	.p2align	2
	.type	vTaskRemoveFromUnorderedEventList,%function
	.code	16                              @ @vTaskRemoveFromUnorderedEventList
	.thumb_func
vTaskRemoveFromUnorderedEventList:
.Lfunc_begin30:
	.loc	3 3163 0 is_stmt 1              @ ../ThirdParty/FreeRTOS/Source/tasks.c:3163:0
	.fnstart
	.cfi_startproc
@ %bb.0:
	.save	{r7, lr}
	push	{r7, lr}
	.cfi_def_cfa_offset 8
	.cfi_offset lr, -4
	.cfi_offset r7, -8
	.pad	#24
	sub	sp, #24
	.cfi_def_cfa_offset 32
	str	r0, [sp, #12]
	str	r1, [sp, #8]
.Ltmp548:
	.loc	3 3168 2 prologue_end           @ ../ThirdParty/FreeRTOS/Source/tasks.c:3168:2
	movw	r0, :lower16:uxSchedulerSuspended
	movt	r0, :upper16:uxSchedulerSuspended
	ldr	r0, [r0]
.Ltmp549:
	.loc	3 3168 2 is_stmt 0              @ ../ThirdParty/FreeRTOS/Source/tasks.c:3168:2
	cbnz	r0, .LBB30_3
	b	.LBB30_1
.LBB30_1:
.Ltmp550:
	.loc	2 199 2 is_stmt 1               @ ../ThirdParty/FreeRTOS/Source/portable/GCC/ARM_CM4F\portmacro.h:199:2
	@APP
	mov.w	r0, #80
	msr	basepri, r0
	isb	sy
	dsb	sy

	@NO_APP
	str	r0, [sp, #20]
.Ltmp551:
	.loc	3 3168 2                        @ ../ThirdParty/FreeRTOS/Source/tasks.c:3168:2
	b	.LBB30_2
.LBB30_2:                               @ =>This Inner Loop Header: Depth=1
.Ltmp552:
	.loc	3 3168 2 is_stmt 0              @ ../ThirdParty/FreeRTOS/Source/tasks.c:3168:2
	b	.LBB30_2
.Ltmp553:
.LBB30_3:
	.loc	3 3171 2 is_stmt 1              @ ../ThirdParty/FreeRTOS/Source/tasks.c:3171:2
	ldr	r0, [sp, #8]
	orr	r0, r0, #-2147483648
	ldr	r1, [sp, #12]
	str	r0, [r1]
	.loc	3 3175 19                       @ ../ThirdParty/FreeRTOS/Source/tasks.c:3175:19
	ldr	r0, [sp, #12]
	ldr	r0, [r0, #12]
	.loc	3 3175 17 is_stmt 0             @ ../ThirdParty/FreeRTOS/Source/tasks.c:3175:17
	str	r0, [sp, #4]
.Ltmp554:
	.loc	3 3176 2 is_stmt 1              @ ../ThirdParty/FreeRTOS/Source/tasks.c:3176:2
	ldr	r0, [sp, #4]
.Ltmp555:
	.loc	3 3176 2 is_stmt 0              @ ../ThirdParty/FreeRTOS/Source/tasks.c:3176:2
	cbnz	r0, .LBB30_6
	b	.LBB30_4
.LBB30_4:
.Ltmp556:
	.loc	2 199 2 is_stmt 1               @ ../ThirdParty/FreeRTOS/Source/portable/GCC/ARM_CM4F\portmacro.h:199:2
	@APP
	mov.w	r0, #80
	msr	basepri, r0
	isb	sy
	dsb	sy

	@NO_APP
	str	r0, [sp, #16]
.Ltmp557:
	.loc	3 3176 2                        @ ../ThirdParty/FreeRTOS/Source/tasks.c:3176:2
	b	.LBB30_5
.LBB30_5:                               @ =>This Inner Loop Header: Depth=1
.Ltmp558:
	.loc	3 3176 2 is_stmt 0              @ ../ThirdParty/FreeRTOS/Source/tasks.c:3176:2
	b	.LBB30_5
.Ltmp559:
.LBB30_6:
	.loc	3 3177 25 is_stmt 1             @ ../ThirdParty/FreeRTOS/Source/tasks.c:3177:25
	ldr	r0, [sp, #12]
	.loc	3 3177 11 is_stmt 0             @ ../ThirdParty/FreeRTOS/Source/tasks.c:3177:11
	bl	uxListRemove
	.loc	3 3182 28 is_stmt 1             @ ../ThirdParty/FreeRTOS/Source/tasks.c:3182:28
	ldr	r0, [sp, #4]
	.loc	3 3182 44 is_stmt 0             @ ../ThirdParty/FreeRTOS/Source/tasks.c:3182:44
	adds	r0, #4
	.loc	3 3182 11                       @ ../ThirdParty/FreeRTOS/Source/tasks.c:3182:11
	bl	uxListRemove
	.loc	3 3183 2 is_stmt 1              @ ../ThirdParty/FreeRTOS/Source/tasks.c:3183:2
	ldr	r0, [sp, #4]
	ldr	r1, [r0, #44]
	movs	r0, #1
	lsl.w	r2, r0, r1
	movw	r1, :lower16:uxTopReadyPriority
	movt	r1, :upper16:uxTopReadyPriority
	ldr	r0, [r1]
	orrs	r0, r2
	str	r0, [r1]
	ldr	r1, [sp, #4]
	ldr	r0, [r1, #44]
	add.w	r2, r0, r0, lsl #2
	movw	r0, :lower16:pxReadyTasksLists
	movt	r0, :upper16:pxReadyTasksLists
	add.w	r0, r0, r2, lsl #2
	adds	r1, #4
	bl	vListInsertEnd
.Ltmp560:
	.loc	3 3185 6                        @ ../ThirdParty/FreeRTOS/Source/tasks.c:3185:6
	ldr	r0, [sp, #4]
	.loc	3 3185 22 is_stmt 0             @ ../ThirdParty/FreeRTOS/Source/tasks.c:3185:22
	ldr	r0, [r0, #44]
	.loc	3 3185 35                       @ ../ThirdParty/FreeRTOS/Source/tasks.c:3185:35
	movw	r1, :lower16:pxCurrentTCB
	movt	r1, :upper16:pxCurrentTCB
	ldr	r1, [r1]
	.loc	3 3185 49                       @ ../ThirdParty/FreeRTOS/Source/tasks.c:3185:49
	ldr	r1, [r1, #44]
.Ltmp561:
	.loc	3 3185 6                        @ ../ThirdParty/FreeRTOS/Source/tasks.c:3185:6
	cmp	r0, r1
	bls	.LBB30_8
	b	.LBB30_7
.LBB30_7:
.Ltmp562:
	.loc	3 3191 17 is_stmt 1             @ ../ThirdParty/FreeRTOS/Source/tasks.c:3191:17
	movw	r1, :lower16:xYieldPending
	movt	r1, :upper16:xYieldPending
	movs	r0, #1
	str	r0, [r1]
	.loc	3 3192 2                        @ ../ThirdParty/FreeRTOS/Source/tasks.c:3192:2
	b	.LBB30_8
.Ltmp563:
.LBB30_8:
	.loc	3 3193 1 epilogue_begin         @ ../ThirdParty/FreeRTOS/Source/tasks.c:3193:1
	add	sp, #24
	pop	{r7, pc}
.Ltmp564:
.Lfunc_end30:
	.size	vTaskRemoveFromUnorderedEventList, .Lfunc_end30-vTaskRemoveFromUnorderedEventList
	.cfi_endproc
	.cantunwind
	.fnend
                                        @ -- End function
	.section	.text.vTaskSetTimeOutState,"ax",%progbits
	.hidden	vTaskSetTimeOutState            @ -- Begin function vTaskSetTimeOutState
	.globl	vTaskSetTimeOutState
	.p2align	2
	.type	vTaskSetTimeOutState,%function
	.code	16                              @ @vTaskSetTimeOutState
	.thumb_func
vTaskSetTimeOutState:
.Lfunc_begin31:
	.loc	3 3197 0                        @ ../ThirdParty/FreeRTOS/Source/tasks.c:3197:0
	.fnstart
	.cfi_startproc
@ %bb.0:
	.save	{r7, lr}
	push	{r7, lr}
	.cfi_def_cfa_offset 8
	.cfi_offset lr, -4
	.cfi_offset r7, -8
	.pad	#8
	sub	sp, #8
	.cfi_def_cfa_offset 16
	str	r0, [sp]
.Ltmp565:
	.loc	3 3198 2 prologue_end           @ ../ThirdParty/FreeRTOS/Source/tasks.c:3198:2
	ldr	r0, [sp]
.Ltmp566:
	.loc	3 3198 2 is_stmt 0              @ ../ThirdParty/FreeRTOS/Source/tasks.c:3198:2
	cbnz	r0, .LBB31_3
	b	.LBB31_1
.LBB31_1:
.Ltmp567:
	.loc	2 199 2 is_stmt 1               @ ../ThirdParty/FreeRTOS/Source/portable/GCC/ARM_CM4F\portmacro.h:199:2
	@APP
	mov.w	r0, #80
	msr	basepri, r0
	isb	sy
	dsb	sy

	@NO_APP
	str	r0, [sp, #4]
.Ltmp568:
	.loc	3 3198 2                        @ ../ThirdParty/FreeRTOS/Source/tasks.c:3198:2
	b	.LBB31_2
.LBB31_2:                               @ =>This Inner Loop Header: Depth=1
.Ltmp569:
	.loc	3 3198 2 is_stmt 0              @ ../ThirdParty/FreeRTOS/Source/tasks.c:3198:2
	b	.LBB31_2
.Ltmp570:
.LBB31_3:
	.loc	3 3199 2 is_stmt 1              @ ../ThirdParty/FreeRTOS/Source/tasks.c:3199:2
	bl	vPortEnterCritical
.Ltmp571:
	.loc	3 3201 31                       @ ../ThirdParty/FreeRTOS/Source/tasks.c:3201:31
	movw	r0, :lower16:xNumOfOverflows
	movt	r0, :upper16:xNumOfOverflows
	ldr	r0, [r0]
	.loc	3 3201 3 is_stmt 0              @ ../ThirdParty/FreeRTOS/Source/tasks.c:3201:3
	ldr	r1, [sp]
	.loc	3 3201 29                       @ ../ThirdParty/FreeRTOS/Source/tasks.c:3201:29
	str	r0, [r1]
	.loc	3 3202 32 is_stmt 1             @ ../ThirdParty/FreeRTOS/Source/tasks.c:3202:32
	movw	r0, :lower16:xTickCount
	movt	r0, :upper16:xTickCount
	ldr	r0, [r0]
	.loc	3 3202 3 is_stmt 0              @ ../ThirdParty/FreeRTOS/Source/tasks.c:3202:3
	ldr	r1, [sp]
	.loc	3 3202 30                       @ ../ThirdParty/FreeRTOS/Source/tasks.c:3202:30
	str	r0, [r1, #4]
.Ltmp572:
	.loc	3 3204 2 is_stmt 1              @ ../ThirdParty/FreeRTOS/Source/tasks.c:3204:2
	bl	vPortExitCritical
	.loc	3 3205 1 epilogue_begin         @ ../ThirdParty/FreeRTOS/Source/tasks.c:3205:1
	add	sp, #8
	pop	{r7, pc}
.Ltmp573:
.Lfunc_end31:
	.size	vTaskSetTimeOutState, .Lfunc_end31-vTaskSetTimeOutState
	.cfi_endproc
	.cantunwind
	.fnend
                                        @ -- End function
	.section	.text.vTaskInternalSetTimeOutState,"ax",%progbits
	.hidden	vTaskInternalSetTimeOutState    @ -- Begin function vTaskInternalSetTimeOutState
	.globl	vTaskInternalSetTimeOutState
	.p2align	2
	.type	vTaskInternalSetTimeOutState,%function
	.code	16                              @ @vTaskInternalSetTimeOutState
	.thumb_func
vTaskInternalSetTimeOutState:
.Lfunc_begin32:
	.loc	3 3209 0                        @ ../ThirdParty/FreeRTOS/Source/tasks.c:3209:0
	.fnstart
	.cfi_startproc
@ %bb.0:
	.pad	#4
	sub	sp, #4
	.cfi_def_cfa_offset 4
	str	r0, [sp]
.Ltmp574:
	.loc	3 3211 30 prologue_end          @ ../ThirdParty/FreeRTOS/Source/tasks.c:3211:30
	movw	r0, :lower16:xNumOfOverflows
	movt	r0, :upper16:xNumOfOverflows
	ldr	r0, [r0]
	.loc	3 3211 2 is_stmt 0              @ ../ThirdParty/FreeRTOS/Source/tasks.c:3211:2
	ldr	r1, [sp]
	.loc	3 3211 28                       @ ../ThirdParty/FreeRTOS/Source/tasks.c:3211:28
	str	r0, [r1]
	.loc	3 3212 31 is_stmt 1             @ ../ThirdParty/FreeRTOS/Source/tasks.c:3212:31
	movw	r0, :lower16:xTickCount
	movt	r0, :upper16:xTickCount
	ldr	r0, [r0]
	.loc	3 3212 2 is_stmt 0              @ ../ThirdParty/FreeRTOS/Source/tasks.c:3212:2
	ldr	r1, [sp]
	.loc	3 3212 29                       @ ../ThirdParty/FreeRTOS/Source/tasks.c:3212:29
	str	r0, [r1, #4]
	.loc	3 3213 1 epilogue_begin is_stmt 1 @ ../ThirdParty/FreeRTOS/Source/tasks.c:3213:1
	add	sp, #4
	bx	lr
.Ltmp575:
.Lfunc_end32:
	.size	vTaskInternalSetTimeOutState, .Lfunc_end32-vTaskInternalSetTimeOutState
	.cfi_endproc
	.cantunwind
	.fnend
                                        @ -- End function
	.section	.text.xTaskCheckForTimeOut,"ax",%progbits
	.hidden	xTaskCheckForTimeOut            @ -- Begin function xTaskCheckForTimeOut
	.globl	xTaskCheckForTimeOut
	.p2align	2
	.type	xTaskCheckForTimeOut,%function
	.code	16                              @ @xTaskCheckForTimeOut
	.thumb_func
xTaskCheckForTimeOut:
.Lfunc_begin33:
	.loc	3 3217 0                        @ ../ThirdParty/FreeRTOS/Source/tasks.c:3217:0
	.fnstart
	.cfi_startproc
@ %bb.0:
	.save	{r7, lr}
	push	{r7, lr}
	.cfi_def_cfa_offset 8
	.cfi_offset lr, -4
	.cfi_offset r7, -8
	.pad	#32
	sub	sp, #32
	.cfi_def_cfa_offset 40
	str	r0, [sp, #20]
	str	r1, [sp, #16]
.Ltmp576:
	.loc	3 3220 2 prologue_end           @ ../ThirdParty/FreeRTOS/Source/tasks.c:3220:2
	ldr	r0, [sp, #20]
.Ltmp577:
	.loc	3 3220 2 is_stmt 0              @ ../ThirdParty/FreeRTOS/Source/tasks.c:3220:2
	cbnz	r0, .LBB33_3
	b	.LBB33_1
.LBB33_1:
.Ltmp578:
	.loc	2 199 2 is_stmt 1               @ ../ThirdParty/FreeRTOS/Source/portable/GCC/ARM_CM4F\portmacro.h:199:2
	@APP
	mov.w	r0, #80
	msr	basepri, r0
	isb	sy
	dsb	sy

	@NO_APP
	str	r0, [sp, #28]
.Ltmp579:
	.loc	3 3220 2                        @ ../ThirdParty/FreeRTOS/Source/tasks.c:3220:2
	b	.LBB33_2
.LBB33_2:                               @ =>This Inner Loop Header: Depth=1
.Ltmp580:
	.loc	3 3220 2 is_stmt 0              @ ../ThirdParty/FreeRTOS/Source/tasks.c:3220:2
	b	.LBB33_2
.Ltmp581:
.LBB33_3:
	.loc	3 3221 2 is_stmt 1              @ ../ThirdParty/FreeRTOS/Source/tasks.c:3221:2
	ldr	r0, [sp, #16]
.Ltmp582:
	.loc	3 3221 2 is_stmt 0              @ ../ThirdParty/FreeRTOS/Source/tasks.c:3221:2
	cbnz	r0, .LBB33_6
	b	.LBB33_4
.LBB33_4:
.Ltmp583:
	.loc	2 199 2 is_stmt 1               @ ../ThirdParty/FreeRTOS/Source/portable/GCC/ARM_CM4F\portmacro.h:199:2
	@APP
	mov.w	r0, #80
	msr	basepri, r0
	isb	sy
	dsb	sy

	@NO_APP
	str	r0, [sp, #24]
.Ltmp584:
	.loc	3 3221 2                        @ ../ThirdParty/FreeRTOS/Source/tasks.c:3221:2
	b	.LBB33_5
.LBB33_5:                               @ =>This Inner Loop Header: Depth=1
.Ltmp585:
	.loc	3 3221 2 is_stmt 0              @ ../ThirdParty/FreeRTOS/Source/tasks.c:3221:2
	b	.LBB33_5
.Ltmp586:
.LBB33_6:
	.loc	3 3223 2 is_stmt 1              @ ../ThirdParty/FreeRTOS/Source/tasks.c:3223:2
	bl	vPortEnterCritical
.Ltmp587:
	.loc	3 3226 38                       @ ../ThirdParty/FreeRTOS/Source/tasks.c:3226:38
	movw	r0, :lower16:xTickCount
	movt	r0, :upper16:xTickCount
	ldr	r0, [r0]
	.loc	3 3226 20 is_stmt 0             @ ../ThirdParty/FreeRTOS/Source/tasks.c:3226:20
	str	r0, [sp, #8]
	.loc	3 3227 35 is_stmt 1             @ ../ThirdParty/FreeRTOS/Source/tasks.c:3227:35
	ldr	r0, [sp, #8]
	.loc	3 3227 53 is_stmt 0             @ ../ThirdParty/FreeRTOS/Source/tasks.c:3227:53
	ldr	r1, [sp, #20]
	.loc	3 3227 64                       @ ../ThirdParty/FreeRTOS/Source/tasks.c:3227:64
	ldr	r1, [r1, #4]
	.loc	3 3227 51                       @ ../ThirdParty/FreeRTOS/Source/tasks.c:3227:51
	subs	r0, r0, r1
	.loc	3 3227 20                       @ ../ThirdParty/FreeRTOS/Source/tasks.c:3227:20
	str	r0, [sp, #4]
.Ltmp588:
	.loc	3 3241 9 is_stmt 1              @ ../ThirdParty/FreeRTOS/Source/tasks.c:3241:9
	ldr	r0, [sp, #16]
	.loc	3 3241 8 is_stmt 0              @ ../ThirdParty/FreeRTOS/Source/tasks.c:3241:8
	ldr	r0, [r0]
.Ltmp589:
	.loc	3 3241 8                        @ ../ThirdParty/FreeRTOS/Source/tasks.c:3241:8
	adds	r0, #1
	cbnz	r0, .LBB33_8
	b	.LBB33_7
.LBB33_7:
	.loc	3 0 8                           @ ../ThirdParty/FreeRTOS/Source/tasks.c:0:8
	movs	r0, #0
.Ltmp590:
	.loc	3 3246 13 is_stmt 1             @ ../ThirdParty/FreeRTOS/Source/tasks.c:3246:13
	str	r0, [sp, #12]
	.loc	3 3247 4                        @ ../ThirdParty/FreeRTOS/Source/tasks.c:3247:4
	b	.LBB33_16
.Ltmp591:
.LBB33_8:
	.loc	3 3251 9                        @ ../ThirdParty/FreeRTOS/Source/tasks.c:3251:9
	movw	r0, :lower16:xNumOfOverflows
	movt	r0, :upper16:xNumOfOverflows
	ldr	r0, [r0]
	.loc	3 3251 28 is_stmt 0             @ ../ThirdParty/FreeRTOS/Source/tasks.c:3251:28
	ldr	r1, [sp, #20]
	.loc	3 3251 39                       @ ../ThirdParty/FreeRTOS/Source/tasks.c:3251:39
	ldr	r1, [r1]
	.loc	3 3251 56                       @ ../ThirdParty/FreeRTOS/Source/tasks.c:3251:56
	cmp	r0, r1
	beq	.LBB33_11
	b	.LBB33_9
.LBB33_9:
	.loc	3 3251 61                       @ ../ThirdParty/FreeRTOS/Source/tasks.c:3251:61
	ldr	r0, [sp, #8]
	.loc	3 3251 80                       @ ../ThirdParty/FreeRTOS/Source/tasks.c:3251:80
	ldr	r1, [sp, #20]
	.loc	3 3251 91                       @ ../ThirdParty/FreeRTOS/Source/tasks.c:3251:91
	ldr	r1, [r1, #4]
.Ltmp592:
	.loc	3 3251 7                        @ ../ThirdParty/FreeRTOS/Source/tasks.c:3251:7
	cmp	r0, r1
	blo	.LBB33_11
	b	.LBB33_10
.LBB33_10:
	.loc	3 0 7                           @ ../ThirdParty/FreeRTOS/Source/tasks.c:0:7
	movs	r0, #1
.Ltmp593:
	.loc	3 3258 12 is_stmt 1             @ ../ThirdParty/FreeRTOS/Source/tasks.c:3258:12
	str	r0, [sp, #12]
	.loc	3 3259 3                        @ ../ThirdParty/FreeRTOS/Source/tasks.c:3259:3
	b	.LBB33_15
.Ltmp594:
.LBB33_11:
	.loc	3 3260 12                       @ ../ThirdParty/FreeRTOS/Source/tasks.c:3260:12
	ldr	r0, [sp, #4]
	.loc	3 3260 28 is_stmt 0             @ ../ThirdParty/FreeRTOS/Source/tasks.c:3260:28
	ldr	r1, [sp, #16]
	.loc	3 3260 27                       @ ../ThirdParty/FreeRTOS/Source/tasks.c:3260:27
	ldr	r1, [r1]
.Ltmp595:
	.loc	3 3260 12                       @ ../ThirdParty/FreeRTOS/Source/tasks.c:3260:12
	cmp	r0, r1
	bhs	.LBB33_13
	b	.LBB33_12
.LBB33_12:
.Ltmp596:
	.loc	3 3263 22 is_stmt 1             @ ../ThirdParty/FreeRTOS/Source/tasks.c:3263:22
	ldr	r2, [sp, #4]
	.loc	3 3263 5 is_stmt 0              @ ../ThirdParty/FreeRTOS/Source/tasks.c:3263:5
	ldr	r1, [sp, #16]
	.loc	3 3263 19                       @ ../ThirdParty/FreeRTOS/Source/tasks.c:3263:19
	ldr	r0, [r1]
	subs	r0, r0, r2
	str	r0, [r1]
	.loc	3 3264 34 is_stmt 1             @ ../ThirdParty/FreeRTOS/Source/tasks.c:3264:34
	ldr	r0, [sp, #20]
	.loc	3 3264 4 is_stmt 0              @ ../ThirdParty/FreeRTOS/Source/tasks.c:3264:4
	bl	vTaskInternalSetTimeOutState
	movs	r0, #0
	.loc	3 3265 12 is_stmt 1             @ ../ThirdParty/FreeRTOS/Source/tasks.c:3265:12
	str	r0, [sp, #12]
	.loc	3 3266 3                        @ ../ThirdParty/FreeRTOS/Source/tasks.c:3266:3
	b	.LBB33_14
.Ltmp597:
.LBB33_13:
	.loc	3 3269 5                        @ ../ThirdParty/FreeRTOS/Source/tasks.c:3269:5
	ldr	r1, [sp, #16]
	movs	r0, #0
	.loc	3 3269 19 is_stmt 0             @ ../ThirdParty/FreeRTOS/Source/tasks.c:3269:19
	str	r0, [r1]
	movs	r0, #1
	.loc	3 3270 12 is_stmt 1             @ ../ThirdParty/FreeRTOS/Source/tasks.c:3270:12
	str	r0, [sp, #12]
	b	.LBB33_14
.Ltmp598:
.LBB33_14:
	.loc	3 0 12 is_stmt 0                @ ../ThirdParty/FreeRTOS/Source/tasks.c:0:12
	b	.LBB33_15
.LBB33_15:
	b	.LBB33_16
.LBB33_16:
	.loc	3 3273 2 is_stmt 1              @ ../ThirdParty/FreeRTOS/Source/tasks.c:3273:2
	bl	vPortExitCritical
	.loc	3 3275 9                        @ ../ThirdParty/FreeRTOS/Source/tasks.c:3275:9
	ldr	r0, [sp, #12]
	.loc	3 3275 2 epilogue_begin is_stmt 0 @ ../ThirdParty/FreeRTOS/Source/tasks.c:3275:2
	add	sp, #32
	pop	{r7, pc}
.Ltmp599:
.Lfunc_end33:
	.size	xTaskCheckForTimeOut, .Lfunc_end33-xTaskCheckForTimeOut
	.cfi_endproc
	.cantunwind
	.fnend
                                        @ -- End function
	.section	.text.vTaskMissedYield,"ax",%progbits
	.hidden	vTaskMissedYield                @ -- Begin function vTaskMissedYield
	.globl	vTaskMissedYield
	.p2align	2
	.type	vTaskMissedYield,%function
	.code	16                              @ @vTaskMissedYield
	.thumb_func
vTaskMissedYield:
.Lfunc_begin34:
	.fnstart
	.cfi_startproc
@ %bb.0:
	.loc	3 3281 16 prologue_end is_stmt 1 @ ../ThirdParty/FreeRTOS/Source/tasks.c:3281:16
	movw	r1, :lower16:xYieldPending
	movt	r1, :upper16:xYieldPending
	movs	r0, #1
	str	r0, [r1]
	.loc	3 3282 1                        @ ../ThirdParty/FreeRTOS/Source/tasks.c:3282:1
	bx	lr
.Ltmp600:
.Lfunc_end34:
	.size	vTaskMissedYield, .Lfunc_end34-vTaskMissedYield
	.cfi_endproc
	.cantunwind
	.fnend
                                        @ -- End function
	.section	.text.uxTaskGetStackHighWaterMark,"ax",%progbits
	.hidden	uxTaskGetStackHighWaterMark     @ -- Begin function uxTaskGetStackHighWaterMark
	.globl	uxTaskGetStackHighWaterMark
	.p2align	2
	.type	uxTaskGetStackHighWaterMark,%function
	.code	16                              @ @uxTaskGetStackHighWaterMark
	.thumb_func
uxTaskGetStackHighWaterMark:
.Lfunc_begin35:
	.loc	3 3799 0                        @ ../ThirdParty/FreeRTOS/Source/tasks.c:3799:0
	.fnstart
	.cfi_startproc
@ %bb.0:
	.save	{r7, lr}
	push	{r7, lr}
	.cfi_def_cfa_offset 8
	.cfi_offset lr, -4
	.cfi_offset r7, -8
	.pad	#24
	sub	sp, #24
	.cfi_def_cfa_offset 32
	str	r0, [sp, #20]
.Ltmp601:
	.loc	3 3804 11 prologue_end          @ ../ThirdParty/FreeRTOS/Source/tasks.c:3804:11
	ldr	r0, [sp, #20]
	cbnz	r0, .LBB35_2
	b	.LBB35_1
.LBB35_1:
	movw	r0, :lower16:pxCurrentTCB
	movt	r0, :upper16:pxCurrentTCB
	ldr	r0, [r0]
	str	r0, [sp, #4]                    @ 4-byte Spill
	b	.LBB35_3
.LBB35_2:
	ldr	r0, [sp, #20]
	str	r0, [sp, #4]                    @ 4-byte Spill
	b	.LBB35_3
.LBB35_3:
	ldr	r0, [sp, #4]                    @ 4-byte Reload
	.loc	3 3804 9 is_stmt 0              @ ../ThirdParty/FreeRTOS/Source/tasks.c:3804:9
	str	r0, [sp, #16]
.Ltmp602:
	.loc	3 3808 34 is_stmt 1             @ ../ThirdParty/FreeRTOS/Source/tasks.c:3808:34
	ldr	r0, [sp, #16]
	.loc	3 3808 41 is_stmt 0             @ ../ThirdParty/FreeRTOS/Source/tasks.c:3808:41
	ldr	r0, [r0, #48]
	.loc	3 3808 18                       @ ../ThirdParty/FreeRTOS/Source/tasks.c:3808:18
	str	r0, [sp, #12]
.Ltmp603:
	.loc	3 3816 58 is_stmt 1             @ ../ThirdParty/FreeRTOS/Source/tasks.c:3816:58
	ldr	r0, [sp, #12]
	.loc	3 3816 30 is_stmt 0             @ ../ThirdParty/FreeRTOS/Source/tasks.c:3816:30
	bl	prvTaskCheckFreeStackSpace
	.loc	3 3816 12                       @ ../ThirdParty/FreeRTOS/Source/tasks.c:3816:12
	str	r0, [sp, #8]
	.loc	3 3818 10 is_stmt 1             @ ../ThirdParty/FreeRTOS/Source/tasks.c:3818:10
	ldr	r0, [sp, #8]
	.loc	3 3818 3 epilogue_begin is_stmt 0 @ ../ThirdParty/FreeRTOS/Source/tasks.c:3818:3
	add	sp, #24
	pop	{r7, pc}
.Ltmp604:
.Lfunc_end35:
	.size	uxTaskGetStackHighWaterMark, .Lfunc_end35-uxTaskGetStackHighWaterMark
	.cfi_endproc
	.cantunwind
	.fnend
                                        @ -- End function
	.section	.text.prvTaskCheckFreeStackSpace,"ax",%progbits
	.p2align	2                               @ -- Begin function prvTaskCheckFreeStackSpace
	.type	prvTaskCheckFreeStackSpace,%function
	.code	16                              @ @prvTaskCheckFreeStackSpace
	.thumb_func
prvTaskCheckFreeStackSpace:
.Lfunc_begin36:
	.loc	3 3739 0 is_stmt 1              @ ../ThirdParty/FreeRTOS/Source/tasks.c:3739:0
	.fnstart
	.cfi_startproc
@ %bb.0:
	.pad	#8
	sub	sp, #8
	.cfi_def_cfa_offset 8
	str	r0, [sp, #4]
	movs	r0, #0
.Ltmp605:
	.loc	3 3740 11 prologue_end          @ ../ThirdParty/FreeRTOS/Source/tasks.c:3740:11
	str	r0, [sp]
	.loc	3 3742 3                        @ ../ThirdParty/FreeRTOS/Source/tasks.c:3742:3
	b	.LBB36_1
.LBB36_1:                               @ =>This Inner Loop Header: Depth=1
	.loc	3 3742 11 is_stmt 0             @ ../ThirdParty/FreeRTOS/Source/tasks.c:3742:11
	ldr	r0, [sp, #4]
	.loc	3 3742 10                       @ ../ThirdParty/FreeRTOS/Source/tasks.c:3742:10
	ldrb	r0, [r0]
	.loc	3 3742 3                        @ ../ThirdParty/FreeRTOS/Source/tasks.c:3742:3
	cmp	r0, #165
	bne	.LBB36_3
	b	.LBB36_2
.LBB36_2:                               @   in Loop: Header=BB36_1 Depth=1
.Ltmp606:
	.loc	3 3744 17 is_stmt 1             @ ../ThirdParty/FreeRTOS/Source/tasks.c:3744:17
	ldr	r0, [sp, #4]
	adds	r0, #1
	str	r0, [sp, #4]
	.loc	3 3745 11                       @ ../ThirdParty/FreeRTOS/Source/tasks.c:3745:11
	ldr	r0, [sp]
	adds	r0, #1
	str	r0, [sp]
.Ltmp607:
	.loc	3 3742 3                        @ ../ThirdParty/FreeRTOS/Source/tasks.c:3742:3
	b	.LBB36_1
.LBB36_3:
	.loc	3 3748 11                       @ ../ThirdParty/FreeRTOS/Source/tasks.c:3748:11
	ldr	r0, [sp]
	lsrs	r0, r0, #2
	str	r0, [sp]
	.loc	3 3750 37                       @ ../ThirdParty/FreeRTOS/Source/tasks.c:3750:37
	ldrh.w	r0, [sp]
	.loc	3 3750 3 epilogue_begin is_stmt 0 @ ../ThirdParty/FreeRTOS/Source/tasks.c:3750:3
	add	sp, #8
	bx	lr
.Ltmp608:
.Lfunc_end36:
	.size	prvTaskCheckFreeStackSpace, .Lfunc_end36-prvTaskCheckFreeStackSpace
	.cfi_endproc
	.cantunwind
	.fnend
                                        @ -- End function
	.section	.text.xTaskGetCurrentTaskHandle,"ax",%progbits
	.hidden	xTaskGetCurrentTaskHandle       @ -- Begin function xTaskGetCurrentTaskHandle
	.globl	xTaskGetCurrentTaskHandle
	.p2align	2
	.type	xTaskGetCurrentTaskHandle,%function
	.code	16                              @ @xTaskGetCurrentTaskHandle
	.thumb_func
xTaskGetCurrentTaskHandle:
.Lfunc_begin37:
	.loc	3 3907 0 is_stmt 1              @ ../ThirdParty/FreeRTOS/Source/tasks.c:3907:0
	.fnstart
	.cfi_startproc
@ %bb.0:
	.pad	#4
	sub	sp, #4
	.cfi_def_cfa_offset 4
.Ltmp609:
	.loc	3 3913 13 prologue_end          @ ../ThirdParty/FreeRTOS/Source/tasks.c:3913:13
	movw	r0, :lower16:pxCurrentTCB
	movt	r0, :upper16:pxCurrentTCB
	ldr	r0, [r0]
	.loc	3 3913 11 is_stmt 0             @ ../ThirdParty/FreeRTOS/Source/tasks.c:3913:11
	str	r0, [sp]
	.loc	3 3915 10 is_stmt 1             @ ../ThirdParty/FreeRTOS/Source/tasks.c:3915:10
	ldr	r0, [sp]
	.loc	3 3915 3 epilogue_begin is_stmt 0 @ ../ThirdParty/FreeRTOS/Source/tasks.c:3915:3
	add	sp, #4
	bx	lr
.Ltmp610:
.Lfunc_end37:
	.size	xTaskGetCurrentTaskHandle, .Lfunc_end37-xTaskGetCurrentTaskHandle
	.cfi_endproc
	.cantunwind
	.fnend
                                        @ -- End function
	.section	.text.xTaskGetSchedulerState,"ax",%progbits
	.hidden	xTaskGetSchedulerState          @ -- Begin function xTaskGetSchedulerState
	.globl	xTaskGetSchedulerState
	.p2align	2
	.type	xTaskGetSchedulerState,%function
	.code	16                              @ @xTaskGetSchedulerState
	.thumb_func
xTaskGetSchedulerState:
.Lfunc_begin38:
	.loc	3 3924 0 is_stmt 1              @ ../ThirdParty/FreeRTOS/Source/tasks.c:3924:0
	.fnstart
	.cfi_startproc
@ %bb.0:
	.pad	#4
	sub	sp, #4
	.cfi_def_cfa_offset 4
.Ltmp611:
	.loc	3 3927 7 prologue_end           @ ../ThirdParty/FreeRTOS/Source/tasks.c:3927:7
	movw	r0, :lower16:xSchedulerRunning
	movt	r0, :upper16:xSchedulerRunning
	ldr	r0, [r0]
.Ltmp612:
	.loc	3 3927 7 is_stmt 0              @ ../ThirdParty/FreeRTOS/Source/tasks.c:3927:7
	cbnz	r0, .LBB38_2
	b	.LBB38_1
.LBB38_1:
	.loc	3 0 7                           @ ../ThirdParty/FreeRTOS/Source/tasks.c:0:7
	movs	r0, #1
.Ltmp613:
	.loc	3 3929 12 is_stmt 1             @ ../ThirdParty/FreeRTOS/Source/tasks.c:3929:12
	str	r0, [sp]
	.loc	3 3930 3                        @ ../ThirdParty/FreeRTOS/Source/tasks.c:3930:3
	b	.LBB38_6
.Ltmp614:
.LBB38_2:
	.loc	3 3933 8                        @ ../ThirdParty/FreeRTOS/Source/tasks.c:3933:8
	movw	r0, :lower16:uxSchedulerSuspended
	movt	r0, :upper16:uxSchedulerSuspended
	ldr	r0, [r0]
.Ltmp615:
	.loc	3 3933 8 is_stmt 0              @ ../ThirdParty/FreeRTOS/Source/tasks.c:3933:8
	cbnz	r0, .LBB38_4
	b	.LBB38_3
.LBB38_3:
	.loc	3 0 8                           @ ../ThirdParty/FreeRTOS/Source/tasks.c:0:8
	movs	r0, #2
.Ltmp616:
	.loc	3 3935 13 is_stmt 1             @ ../ThirdParty/FreeRTOS/Source/tasks.c:3935:13
	str	r0, [sp]
	.loc	3 3936 4                        @ ../ThirdParty/FreeRTOS/Source/tasks.c:3936:4
	b	.LBB38_5
.Ltmp617:
.LBB38_4:
	.loc	3 0 4 is_stmt 0                 @ ../ThirdParty/FreeRTOS/Source/tasks.c:0:4
	movs	r0, #0
.Ltmp618:
	.loc	3 3939 13 is_stmt 1             @ ../ThirdParty/FreeRTOS/Source/tasks.c:3939:13
	str	r0, [sp]
	b	.LBB38_5
.Ltmp619:
.LBB38_5:
	.loc	3 0 13 is_stmt 0                @ ../ThirdParty/FreeRTOS/Source/tasks.c:0:13
	b	.LBB38_6
.LBB38_6:
	.loc	3 3943 10 is_stmt 1             @ ../ThirdParty/FreeRTOS/Source/tasks.c:3943:10
	ldr	r0, [sp]
	.loc	3 3943 3 epilogue_begin is_stmt 0 @ ../ThirdParty/FreeRTOS/Source/tasks.c:3943:3
	add	sp, #4
	bx	lr
.Ltmp620:
.Lfunc_end38:
	.size	xTaskGetSchedulerState, .Lfunc_end38-xTaskGetSchedulerState
	.cfi_endproc
	.cantunwind
	.fnend
                                        @ -- End function
	.section	.text.xTaskPriorityInherit,"ax",%progbits
	.hidden	xTaskPriorityInherit            @ -- Begin function xTaskPriorityInherit
	.globl	xTaskPriorityInherit
	.p2align	2
	.type	xTaskPriorityInherit,%function
	.code	16                              @ @xTaskPriorityInherit
	.thumb_func
xTaskPriorityInherit:
.Lfunc_begin39:
	.loc	3 3952 0 is_stmt 1              @ ../ThirdParty/FreeRTOS/Source/tasks.c:3952:0
	.fnstart
	.cfi_startproc
@ %bb.0:
	.save	{r7, lr}
	push	{r7, lr}
	.cfi_def_cfa_offset 8
	.cfi_offset lr, -4
	.cfi_offset r7, -8
	.pad	#16
	sub	sp, #16
	.cfi_def_cfa_offset 24
	str	r0, [sp, #12]
.Ltmp621:
	.loc	3 3953 35 prologue_end          @ ../ThirdParty/FreeRTOS/Source/tasks.c:3953:35
	ldr	r0, [sp, #12]
	.loc	3 3953 16 is_stmt 0             @ ../ThirdParty/FreeRTOS/Source/tasks.c:3953:16
	str	r0, [sp, #8]
	movs	r0, #0
	.loc	3 3954 13 is_stmt 1             @ ../ThirdParty/FreeRTOS/Source/tasks.c:3954:13
	str	r0, [sp, #4]
.Ltmp622:
	.loc	3 3959 7                        @ ../ThirdParty/FreeRTOS/Source/tasks.c:3959:7
	ldr	r0, [sp, #12]
.Ltmp623:
	.loc	3 3959 7 is_stmt 0              @ ../ThirdParty/FreeRTOS/Source/tasks.c:3959:7
	cmp	r0, #0
	beq.w	.LBB39_19
	b	.LBB39_1
.LBB39_1:
.Ltmp624:
	.loc	3 3964 8 is_stmt 1              @ ../ThirdParty/FreeRTOS/Source/tasks.c:3964:8
	ldr	r0, [sp, #8]
	.loc	3 3964 26 is_stmt 0             @ ../ThirdParty/FreeRTOS/Source/tasks.c:3964:26
	ldr	r0, [r0, #44]
	.loc	3 3964 39                       @ ../ThirdParty/FreeRTOS/Source/tasks.c:3964:39
	movw	r1, :lower16:pxCurrentTCB
	movt	r1, :upper16:pxCurrentTCB
	ldr	r1, [r1]
	.loc	3 3964 53                       @ ../ThirdParty/FreeRTOS/Source/tasks.c:3964:53
	ldr	r1, [r1, #44]
.Ltmp625:
	.loc	3 3964 8                        @ ../ThirdParty/FreeRTOS/Source/tasks.c:3964:8
	cmp	r0, r1
	bhs	.LBB39_14
	b	.LBB39_2
.LBB39_2:
.Ltmp626:
	.loc	3 3969 11 is_stmt 1             @ ../ThirdParty/FreeRTOS/Source/tasks.c:3969:11
	ldr	r0, [sp, #8]
.Ltmp627:
	.loc	3 3969 9 is_stmt 0              @ ../ThirdParty/FreeRTOS/Source/tasks.c:3969:9
	ldrb	r0, [r0, #27]
	lsls	r0, r0, #24
	cmp	r0, #0
	bmi	.LBB39_4
	b	.LBB39_3
.LBB39_3:
.Ltmp628:
	.loc	3 3971 6 is_stmt 1              @ ../ThirdParty/FreeRTOS/Source/tasks.c:3971:6
	movw	r0, :lower16:pxCurrentTCB
	movt	r0, :upper16:pxCurrentTCB
	ldr	r0, [r0]
	ldr	r0, [r0, #44]
	rsb.w	r0, r0, #7
	ldr	r1, [sp, #8]
	str	r0, [r1, #24]
	.loc	3 3972 5                        @ ../ThirdParty/FreeRTOS/Source/tasks.c:3972:5
	b	.LBB39_5
.Ltmp629:
.LBB39_4:
	.loc	3 0 5 is_stmt 0                 @ ../ThirdParty/FreeRTOS/Source/tasks.c:0:5
	b	.LBB39_5
.LBB39_5:
.Ltmp630:
	.loc	3 3980 9 is_stmt 1              @ ../ThirdParty/FreeRTOS/Source/tasks.c:3980:9
	ldr	r1, [sp, #8]
	ldr	r0, [r1, #20]
	ldr	r1, [r1, #44]
	add.w	r2, r1, r1, lsl #2
	movw	r1, :lower16:pxReadyTasksLists
	movt	r1, :upper16:pxReadyTasksLists
	add.w	r1, r1, r2, lsl #2
.Ltmp631:
	.loc	3 3980 9 is_stmt 0              @ ../ThirdParty/FreeRTOS/Source/tasks.c:3980:9
	cmp	r0, r1
	bne	.LBB39_12
	b	.LBB39_6
.LBB39_6:
.Ltmp632:
	.loc	3 3982 27 is_stmt 1             @ ../ThirdParty/FreeRTOS/Source/tasks.c:3982:27
	ldr	r0, [sp, #8]
	.loc	3 3982 45 is_stmt 0             @ ../ThirdParty/FreeRTOS/Source/tasks.c:3982:45
	adds	r0, #4
	.loc	3 3982 10                       @ ../ThirdParty/FreeRTOS/Source/tasks.c:3982:10
	bl	uxListRemove
.Ltmp633:
	.loc	3 3982 10                       @ ../ThirdParty/FreeRTOS/Source/tasks.c:3982:10
	cbnz	r0, .LBB39_10
	b	.LBB39_7
.LBB39_7:
.Ltmp634:
	.loc	3 3984 7 is_stmt 1              @ ../ThirdParty/FreeRTOS/Source/tasks.c:3984:7
	ldr	r0, [sp, #8]
	ldr	r0, [r0, #44]
	add.w	r1, r0, r0, lsl #2
	movw	r0, :lower16:pxReadyTasksLists
	movt	r0, :upper16:pxReadyTasksLists
	ldr.w	r0, [r0, r1, lsl #2]
.Ltmp635:
	.loc	3 3984 7 is_stmt 0              @ ../ThirdParty/FreeRTOS/Source/tasks.c:3984:7
	cbnz	r0, .LBB39_9
	b	.LBB39_8
.LBB39_8:
.Ltmp636:
	.loc	3 3984 7                        @ ../ThirdParty/FreeRTOS/Source/tasks.c:3984:7
	ldr	r0, [sp, #8]
	ldr	r1, [r0, #44]
	movs	r0, #1
	lsl.w	r2, r0, r1
	movw	r1, :lower16:uxTopReadyPriority
	movt	r1, :upper16:uxTopReadyPriority
	ldr	r0, [r1]
	bics	r0, r2
	str	r0, [r1]
	b	.LBB39_9
.Ltmp637:
.LBB39_9:
	.loc	3 3985 6 is_stmt 1              @ ../ThirdParty/FreeRTOS/Source/tasks.c:3985:6
	b	.LBB39_11
.Ltmp638:
.LBB39_10:
	.loc	3 0 6 is_stmt 0                 @ ../ThirdParty/FreeRTOS/Source/tasks.c:0:6
	b	.LBB39_11
.LBB39_11:
	.loc	3 3992 37 is_stmt 1             @ ../ThirdParty/FreeRTOS/Source/tasks.c:3992:37
	movw	r0, :lower16:pxCurrentTCB
	movt	r0, :upper16:pxCurrentTCB
	ldr	r0, [r0]
	.loc	3 3992 51 is_stmt 0             @ ../ThirdParty/FreeRTOS/Source/tasks.c:3992:51
	ldr	r0, [r0, #44]
	.loc	3 3992 6                        @ ../ThirdParty/FreeRTOS/Source/tasks.c:3992:6
	ldr	r1, [sp, #8]
	.loc	3 3992 35                       @ ../ThirdParty/FreeRTOS/Source/tasks.c:3992:35
	str	r0, [r1, #44]
	.loc	3 3993 6 is_stmt 1              @ ../ThirdParty/FreeRTOS/Source/tasks.c:3993:6
	ldr	r0, [sp, #8]
	ldr	r1, [r0, #44]
	movs	r0, #1
	lsl.w	r2, r0, r1
	movw	r1, :lower16:uxTopReadyPriority
	movt	r1, :upper16:uxTopReadyPriority
	ldr	r0, [r1]
	orrs	r0, r2
	str	r0, [r1]
	ldr	r1, [sp, #8]
	ldr	r0, [r1, #44]
	add.w	r2, r0, r0, lsl #2
	movw	r0, :lower16:pxReadyTasksLists
	movt	r0, :upper16:pxReadyTasksLists
	add.w	r0, r0, r2, lsl #2
	adds	r1, #4
	bl	vListInsertEnd
	.loc	3 3994 5                        @ ../ThirdParty/FreeRTOS/Source/tasks.c:3994:5
	b	.LBB39_13
.Ltmp639:
.LBB39_12:
	.loc	3 3998 37                       @ ../ThirdParty/FreeRTOS/Source/tasks.c:3998:37
	movw	r0, :lower16:pxCurrentTCB
	movt	r0, :upper16:pxCurrentTCB
	ldr	r0, [r0]
	.loc	3 3998 51 is_stmt 0             @ ../ThirdParty/FreeRTOS/Source/tasks.c:3998:51
	ldr	r0, [r0, #44]
	.loc	3 3998 6                        @ ../ThirdParty/FreeRTOS/Source/tasks.c:3998:6
	ldr	r1, [sp, #8]
	.loc	3 3998 35                       @ ../ThirdParty/FreeRTOS/Source/tasks.c:3998:35
	str	r0, [r1, #44]
	b	.LBB39_13
.Ltmp640:
.LBB39_13:
	.loc	3 0 35                          @ ../ThirdParty/FreeRTOS/Source/tasks.c:0:35
	movs	r0, #1
	.loc	3 4004 13 is_stmt 1             @ ../ThirdParty/FreeRTOS/Source/tasks.c:4004:13
	str	r0, [sp, #4]
	.loc	3 4005 4                        @ ../ThirdParty/FreeRTOS/Source/tasks.c:4005:4
	b	.LBB39_18
.Ltmp641:
.LBB39_14:
	.loc	3 4008 9                        @ ../ThirdParty/FreeRTOS/Source/tasks.c:4008:9
	ldr	r0, [sp, #8]
	.loc	3 4008 27 is_stmt 0             @ ../ThirdParty/FreeRTOS/Source/tasks.c:4008:27
	ldr	r0, [r0, #68]
	.loc	3 4008 44                       @ ../ThirdParty/FreeRTOS/Source/tasks.c:4008:44
	movw	r1, :lower16:pxCurrentTCB
	movt	r1, :upper16:pxCurrentTCB
	ldr	r1, [r1]
	.loc	3 4008 58                       @ ../ThirdParty/FreeRTOS/Source/tasks.c:4008:58
	ldr	r1, [r1, #44]
.Ltmp642:
	.loc	3 4008 9                        @ ../ThirdParty/FreeRTOS/Source/tasks.c:4008:9
	cmp	r0, r1
	bhs	.LBB39_16
	b	.LBB39_15
.LBB39_15:
	.loc	3 0 9                           @ ../ThirdParty/FreeRTOS/Source/tasks.c:0:9
	movs	r0, #1
.Ltmp643:
	.loc	3 4017 14 is_stmt 1             @ ../ThirdParty/FreeRTOS/Source/tasks.c:4017:14
	str	r0, [sp, #4]
	.loc	3 4018 5                        @ ../ThirdParty/FreeRTOS/Source/tasks.c:4018:5
	b	.LBB39_17
.Ltmp644:
.LBB39_16:
	.loc	3 0 5 is_stmt 0                 @ ../ThirdParty/FreeRTOS/Source/tasks.c:0:5
	b	.LBB39_17
.LBB39_17:
	b	.LBB39_18
.LBB39_18:
	.loc	3 4024 3 is_stmt 1              @ ../ThirdParty/FreeRTOS/Source/tasks.c:4024:3
	b	.LBB39_20
.Ltmp645:
.LBB39_19:
	.loc	3 0 3 is_stmt 0                 @ ../ThirdParty/FreeRTOS/Source/tasks.c:0:3
	b	.LBB39_20
.LBB39_20:
	.loc	3 4030 10 is_stmt 1             @ ../ThirdParty/FreeRTOS/Source/tasks.c:4030:10
	ldr	r0, [sp, #4]
	.loc	3 4030 3 epilogue_begin is_stmt 0 @ ../ThirdParty/FreeRTOS/Source/tasks.c:4030:3
	add	sp, #16
	pop	{r7, pc}
.Ltmp646:
.Lfunc_end39:
	.size	xTaskPriorityInherit, .Lfunc_end39-xTaskPriorityInherit
	.cfi_endproc
	.cantunwind
	.fnend
                                        @ -- End function
	.section	.text.xTaskPriorityDisinherit,"ax",%progbits
	.hidden	xTaskPriorityDisinherit         @ -- Begin function xTaskPriorityDisinherit
	.globl	xTaskPriorityDisinherit
	.p2align	2
	.type	xTaskPriorityDisinherit,%function
	.code	16                              @ @xTaskPriorityDisinherit
	.thumb_func
xTaskPriorityDisinherit:
.Lfunc_begin40:
	.loc	3 4039 0 is_stmt 1              @ ../ThirdParty/FreeRTOS/Source/tasks.c:4039:0
	.fnstart
	.cfi_startproc
@ %bb.0:
	.save	{r7, lr}
	push	{r7, lr}
	.cfi_def_cfa_offset 8
	.cfi_offset lr, -4
	.cfi_offset r7, -8
	.pad	#24
	sub	sp, #24
	.cfi_def_cfa_offset 32
	str	r0, [sp, #12]
.Ltmp647:
	.loc	3 4040 24 prologue_end          @ ../ThirdParty/FreeRTOS/Source/tasks.c:4040:24
	ldr	r0, [sp, #12]
	.loc	3 4040 16 is_stmt 0             @ ../ThirdParty/FreeRTOS/Source/tasks.c:4040:16
	str	r0, [sp, #8]
	movs	r0, #0
	.loc	3 4041 13 is_stmt 1             @ ../ThirdParty/FreeRTOS/Source/tasks.c:4041:13
	str	r0, [sp, #4]
.Ltmp648:
	.loc	3 4043 7                        @ ../ThirdParty/FreeRTOS/Source/tasks.c:4043:7
	ldr	r0, [sp, #12]
.Ltmp649:
	.loc	3 4043 7 is_stmt 0              @ ../ThirdParty/FreeRTOS/Source/tasks.c:4043:7
	cmp	r0, #0
	beq.w	.LBB40_19
	b	.LBB40_1
.LBB40_1:
.Ltmp650:
	.loc	3 4049 4 is_stmt 1              @ ../ThirdParty/FreeRTOS/Source/tasks.c:4049:4
	ldr	r0, [sp, #8]
	movw	r1, :lower16:pxCurrentTCB
	movt	r1, :upper16:pxCurrentTCB
	ldr	r1, [r1]
.Ltmp651:
	.loc	3 4049 4 is_stmt 0              @ ../ThirdParty/FreeRTOS/Source/tasks.c:4049:4
	cmp	r0, r1
	beq	.LBB40_4
	b	.LBB40_2
.LBB40_2:
.Ltmp652:
	.loc	2 199 2 is_stmt 1               @ ../ThirdParty/FreeRTOS/Source/portable/GCC/ARM_CM4F\portmacro.h:199:2
	@APP
	mov.w	r0, #80
	msr	basepri, r0
	isb	sy
	dsb	sy

	@NO_APP
	str	r0, [sp, #20]
.Ltmp653:
	.loc	3 4049 4                        @ ../ThirdParty/FreeRTOS/Source/tasks.c:4049:4
	b	.LBB40_3
.LBB40_3:                               @ =>This Inner Loop Header: Depth=1
.Ltmp654:
	.loc	3 4049 4 is_stmt 0              @ ../ThirdParty/FreeRTOS/Source/tasks.c:4049:4
	b	.LBB40_3
.Ltmp655:
.LBB40_4:
	.loc	3 4050 4 is_stmt 1              @ ../ThirdParty/FreeRTOS/Source/tasks.c:4050:4
	ldr	r0, [sp, #8]
	ldr	r0, [r0, #72]
.Ltmp656:
	.loc	3 4050 4 is_stmt 0              @ ../ThirdParty/FreeRTOS/Source/tasks.c:4050:4
	cbnz	r0, .LBB40_7
	b	.LBB40_5
.LBB40_5:
.Ltmp657:
	.loc	2 199 2 is_stmt 1               @ ../ThirdParty/FreeRTOS/Source/portable/GCC/ARM_CM4F\portmacro.h:199:2
	@APP
	mov.w	r0, #80
	msr	basepri, r0
	isb	sy
	dsb	sy

	@NO_APP
	str	r0, [sp, #16]
.Ltmp658:
	.loc	3 4050 4                        @ ../ThirdParty/FreeRTOS/Source/tasks.c:4050:4
	b	.LBB40_6
.LBB40_6:                               @ =>This Inner Loop Header: Depth=1
.Ltmp659:
	.loc	3 4050 4 is_stmt 0              @ ../ThirdParty/FreeRTOS/Source/tasks.c:4050:4
	b	.LBB40_6
.Ltmp660:
.LBB40_7:
	.loc	3 4051 6 is_stmt 1              @ ../ThirdParty/FreeRTOS/Source/tasks.c:4051:6
	ldr	r1, [sp, #8]
	.loc	3 4051 28 is_stmt 0             @ ../ThirdParty/FreeRTOS/Source/tasks.c:4051:28
	ldr	r0, [r1, #72]
	subs	r0, #1
	str	r0, [r1, #72]
.Ltmp661:
	.loc	3 4055 8 is_stmt 1              @ ../ThirdParty/FreeRTOS/Source/tasks.c:4055:8
	ldr	r1, [sp, #8]
	.loc	3 4055 15 is_stmt 0             @ ../ThirdParty/FreeRTOS/Source/tasks.c:4055:15
	ldr	r0, [r1, #44]
	.loc	3 4055 36                       @ ../ThirdParty/FreeRTOS/Source/tasks.c:4055:36
	ldr	r1, [r1, #68]
.Ltmp662:
	.loc	3 4055 8                        @ ../ThirdParty/FreeRTOS/Source/tasks.c:4055:8
	cmp	r0, r1
	beq	.LBB40_17
	b	.LBB40_8
.LBB40_8:
.Ltmp663:
	.loc	3 4058 9 is_stmt 1              @ ../ThirdParty/FreeRTOS/Source/tasks.c:4058:9
	ldr	r0, [sp, #8]
	.loc	3 4058 16 is_stmt 0             @ ../ThirdParty/FreeRTOS/Source/tasks.c:4058:16
	ldr	r0, [r0, #72]
.Ltmp664:
	.loc	3 4058 9                        @ ../ThirdParty/FreeRTOS/Source/tasks.c:4058:9
	cmp	r0, #0
	bne	.LBB40_15
	b	.LBB40_9
.LBB40_9:
.Ltmp665:
	.loc	3 4065 27 is_stmt 1             @ ../ThirdParty/FreeRTOS/Source/tasks.c:4065:27
	ldr	r0, [sp, #8]
	.loc	3 4065 34 is_stmt 0             @ ../ThirdParty/FreeRTOS/Source/tasks.c:4065:34
	adds	r0, #4
	.loc	3 4065 10                       @ ../ThirdParty/FreeRTOS/Source/tasks.c:4065:10
	bl	uxListRemove
.Ltmp666:
	.loc	3 4065 10                       @ ../ThirdParty/FreeRTOS/Source/tasks.c:4065:10
	cbnz	r0, .LBB40_13
	b	.LBB40_10
.LBB40_10:
.Ltmp667:
	.loc	3 4067 7 is_stmt 1              @ ../ThirdParty/FreeRTOS/Source/tasks.c:4067:7
	ldr	r0, [sp, #8]
	ldr	r0, [r0, #44]
	add.w	r1, r0, r0, lsl #2
	movw	r0, :lower16:pxReadyTasksLists
	movt	r0, :upper16:pxReadyTasksLists
	ldr.w	r0, [r0, r1, lsl #2]
.Ltmp668:
	.loc	3 4067 7 is_stmt 0              @ ../ThirdParty/FreeRTOS/Source/tasks.c:4067:7
	cbnz	r0, .LBB40_12
	b	.LBB40_11
.LBB40_11:
.Ltmp669:
	.loc	3 4067 7                        @ ../ThirdParty/FreeRTOS/Source/tasks.c:4067:7
	ldr	r0, [sp, #8]
	ldr	r1, [r0, #44]
	movs	r0, #1
	lsl.w	r2, r0, r1
	movw	r1, :lower16:uxTopReadyPriority
	movt	r1, :upper16:uxTopReadyPriority
	ldr	r0, [r1]
	bics	r0, r2
	str	r0, [r1]
	b	.LBB40_12
.Ltmp670:
.LBB40_12:
	.loc	3 4068 6 is_stmt 1              @ ../ThirdParty/FreeRTOS/Source/tasks.c:4068:6
	b	.LBB40_14
.Ltmp671:
.LBB40_13:
	.loc	3 0 6 is_stmt 0                 @ ../ThirdParty/FreeRTOS/Source/tasks.c:0:6
	b	.LBB40_14
.LBB40_14:
	.loc	3 4077 26 is_stmt 1             @ ../ThirdParty/FreeRTOS/Source/tasks.c:4077:26
	ldr	r1, [sp, #8]
	.loc	3 4077 33 is_stmt 0             @ ../ThirdParty/FreeRTOS/Source/tasks.c:4077:33
	ldr	r0, [r1, #68]
	.loc	3 4077 24                       @ ../ThirdParty/FreeRTOS/Source/tasks.c:4077:24
	str	r0, [r1, #44]
	.loc	3 4082 6 is_stmt 1              @ ../ThirdParty/FreeRTOS/Source/tasks.c:4082:6
	ldr	r1, [sp, #8]
	ldr	r0, [r1, #44]
	rsb.w	r0, r0, #7
	str	r0, [r1, #24]
	.loc	3 4083 6                        @ ../ThirdParty/FreeRTOS/Source/tasks.c:4083:6
	ldr	r0, [sp, #8]
	ldr	r1, [r0, #44]
	movs	r0, #1
	str	r0, [sp]                        @ 4-byte Spill
	lsl.w	r2, r0, r1
	movw	r1, :lower16:uxTopReadyPriority
	movt	r1, :upper16:uxTopReadyPriority
	ldr	r0, [r1]
	orrs	r0, r2
	str	r0, [r1]
	ldr	r1, [sp, #8]
	ldr	r0, [r1, #44]
	add.w	r2, r0, r0, lsl #2
	movw	r0, :lower16:pxReadyTasksLists
	movt	r0, :upper16:pxReadyTasksLists
	add.w	r0, r0, r2, lsl #2
	adds	r1, #4
	bl	vListInsertEnd
	ldr	r0, [sp]                        @ 4-byte Reload
	.loc	3 4093 14                       @ ../ThirdParty/FreeRTOS/Source/tasks.c:4093:14
	str	r0, [sp, #4]
	.loc	3 4094 5                        @ ../ThirdParty/FreeRTOS/Source/tasks.c:4094:5
	b	.LBB40_16
.Ltmp672:
.LBB40_15:
	.loc	3 0 5 is_stmt 0                 @ ../ThirdParty/FreeRTOS/Source/tasks.c:0:5
	b	.LBB40_16
.LBB40_16:
	.loc	3 4099 4 is_stmt 1              @ ../ThirdParty/FreeRTOS/Source/tasks.c:4099:4
	b	.LBB40_18
.Ltmp673:
.LBB40_17:
	.loc	3 0 4 is_stmt 0                 @ ../ThirdParty/FreeRTOS/Source/tasks.c:0:4
	b	.LBB40_18
.LBB40_18:
	.loc	3 4104 3 is_stmt 1              @ ../ThirdParty/FreeRTOS/Source/tasks.c:4104:3
	b	.LBB40_20
.Ltmp674:
.LBB40_19:
	.loc	3 0 3 is_stmt 0                 @ ../ThirdParty/FreeRTOS/Source/tasks.c:0:3
	b	.LBB40_20
.LBB40_20:
	.loc	3 4110 10 is_stmt 1             @ ../ThirdParty/FreeRTOS/Source/tasks.c:4110:10
	ldr	r0, [sp, #4]
	.loc	3 4110 3 epilogue_begin is_stmt 0 @ ../ThirdParty/FreeRTOS/Source/tasks.c:4110:3
	add	sp, #24
	pop	{r7, pc}
.Ltmp675:
.Lfunc_end40:
	.size	xTaskPriorityDisinherit, .Lfunc_end40-xTaskPriorityDisinherit
	.cfi_endproc
	.cantunwind
	.fnend
                                        @ -- End function
	.section	.text.vTaskPriorityDisinheritAfterTimeout,"ax",%progbits
	.hidden	vTaskPriorityDisinheritAfterTimeout @ -- Begin function vTaskPriorityDisinheritAfterTimeout
	.globl	vTaskPriorityDisinheritAfterTimeout
	.p2align	2
	.type	vTaskPriorityDisinheritAfterTimeout,%function
	.code	16                              @ @vTaskPriorityDisinheritAfterTimeout
	.thumb_func
vTaskPriorityDisinheritAfterTimeout:
.Lfunc_begin41:
	.loc	3 4119 0 is_stmt 1              @ ../ThirdParty/FreeRTOS/Source/tasks.c:4119:0
	.fnstart
	.cfi_startproc
@ %bb.0:
	.save	{r7, lr}
	push	{r7, lr}
	.cfi_def_cfa_offset 8
	.cfi_offset lr, -4
	.cfi_offset r7, -8
	.pad	#32
	sub	sp, #32
	.cfi_def_cfa_offset 40
	str	r0, [sp, #20]
	str	r1, [sp, #16]
.Ltmp676:
	.loc	3 4120 24 prologue_end          @ ../ThirdParty/FreeRTOS/Source/tasks.c:4120:24
	ldr	r0, [sp, #20]
	.loc	3 4120 16 is_stmt 0             @ ../ThirdParty/FreeRTOS/Source/tasks.c:4120:16
	str	r0, [sp, #12]
	movs	r0, #1
	.loc	3 4122 20 is_stmt 1             @ ../ThirdParty/FreeRTOS/Source/tasks.c:4122:20
	str	r0, [sp]
.Ltmp677:
	.loc	3 4124 7                        @ ../ThirdParty/FreeRTOS/Source/tasks.c:4124:7
	ldr	r0, [sp, #20]
.Ltmp678:
	.loc	3 4124 7 is_stmt 0              @ ../ThirdParty/FreeRTOS/Source/tasks.c:4124:7
	cmp	r0, #0
	beq.w	.LBB41_28
	b	.LBB41_1
.LBB41_1:
.Ltmp679:
	.loc	3 4128 4 is_stmt 1              @ ../ThirdParty/FreeRTOS/Source/tasks.c:4128:4
	ldr	r0, [sp, #12]
	ldr	r0, [r0, #72]
.Ltmp680:
	.loc	3 4128 4 is_stmt 0              @ ../ThirdParty/FreeRTOS/Source/tasks.c:4128:4
	cbnz	r0, .LBB41_4
	b	.LBB41_2
.LBB41_2:
.Ltmp681:
	.loc	2 199 2 is_stmt 1               @ ../ThirdParty/FreeRTOS/Source/portable/GCC/ARM_CM4F\portmacro.h:199:2
	@APP
	mov.w	r0, #80
	msr	basepri, r0
	isb	sy
	dsb	sy

	@NO_APP
	str	r0, [sp, #28]
.Ltmp682:
	.loc	3 4128 4                        @ ../ThirdParty/FreeRTOS/Source/tasks.c:4128:4
	b	.LBB41_3
.LBB41_3:                               @ =>This Inner Loop Header: Depth=1
.Ltmp683:
	.loc	3 4128 4 is_stmt 0              @ ../ThirdParty/FreeRTOS/Source/tasks.c:4128:4
	b	.LBB41_3
.Ltmp684:
.LBB41_4:
	.loc	3 4134 8 is_stmt 1              @ ../ThirdParty/FreeRTOS/Source/tasks.c:4134:8
	ldr	r0, [sp, #12]
	.loc	3 4134 15 is_stmt 0             @ ../ThirdParty/FreeRTOS/Source/tasks.c:4134:15
	ldr	r0, [r0, #68]
	.loc	3 4134 32                       @ ../ThirdParty/FreeRTOS/Source/tasks.c:4134:32
	ldr	r1, [sp, #16]
.Ltmp685:
	.loc	3 4134 8                        @ ../ThirdParty/FreeRTOS/Source/tasks.c:4134:8
	cmp	r0, r1
	bhs	.LBB41_6
	b	.LBB41_5
.LBB41_5:
.Ltmp686:
	.loc	3 4136 23 is_stmt 1             @ ../ThirdParty/FreeRTOS/Source/tasks.c:4136:23
	ldr	r0, [sp, #16]
	.loc	3 4136 21 is_stmt 0             @ ../ThirdParty/FreeRTOS/Source/tasks.c:4136:21
	str	r0, [sp, #4]
	.loc	3 4137 4 is_stmt 1              @ ../ThirdParty/FreeRTOS/Source/tasks.c:4137:4
	b	.LBB41_7
.Ltmp687:
.LBB41_6:
	.loc	3 4140 23                       @ ../ThirdParty/FreeRTOS/Source/tasks.c:4140:23
	ldr	r0, [sp, #12]
	.loc	3 4140 30 is_stmt 0             @ ../ThirdParty/FreeRTOS/Source/tasks.c:4140:30
	ldr	r0, [r0, #68]
	.loc	3 4140 21                       @ ../ThirdParty/FreeRTOS/Source/tasks.c:4140:21
	str	r0, [sp, #4]
	b	.LBB41_7
.Ltmp688:
.LBB41_7:
	.loc	3 4144 8 is_stmt 1              @ ../ThirdParty/FreeRTOS/Source/tasks.c:4144:8
	ldr	r0, [sp, #12]
	.loc	3 4144 15 is_stmt 0             @ ../ThirdParty/FreeRTOS/Source/tasks.c:4144:15
	ldr	r0, [r0, #44]
	.loc	3 4144 29                       @ ../ThirdParty/FreeRTOS/Source/tasks.c:4144:29
	ldr	r1, [sp, #4]
.Ltmp689:
	.loc	3 4144 8                        @ ../ThirdParty/FreeRTOS/Source/tasks.c:4144:8
	cmp	r0, r1
	beq	.LBB41_26
	b	.LBB41_8
.LBB41_8:
.Ltmp690:
	.loc	3 4150 9 is_stmt 1              @ ../ThirdParty/FreeRTOS/Source/tasks.c:4150:9
	ldr	r0, [sp, #12]
	.loc	3 4150 16 is_stmt 0             @ ../ThirdParty/FreeRTOS/Source/tasks.c:4150:16
	ldr	r0, [r0, #72]
.Ltmp691:
	.loc	3 4150 9                        @ ../ThirdParty/FreeRTOS/Source/tasks.c:4150:9
	cmp	r0, #1
	bne	.LBB41_24
	b	.LBB41_9
.LBB41_9:
.Ltmp692:
	.loc	3 4155 6 is_stmt 1              @ ../ThirdParty/FreeRTOS/Source/tasks.c:4155:6
	ldr	r0, [sp, #12]
	movw	r1, :lower16:pxCurrentTCB
	movt	r1, :upper16:pxCurrentTCB
	ldr	r1, [r1]
.Ltmp693:
	.loc	3 4155 6 is_stmt 0              @ ../ThirdParty/FreeRTOS/Source/tasks.c:4155:6
	cmp	r0, r1
	bne	.LBB41_12
	b	.LBB41_10
.LBB41_10:
.Ltmp694:
	.loc	2 199 2 is_stmt 1               @ ../ThirdParty/FreeRTOS/Source/portable/GCC/ARM_CM4F\portmacro.h:199:2
	@APP
	mov.w	r0, #80
	msr	basepri, r0
	isb	sy
	dsb	sy

	@NO_APP
	str	r0, [sp, #24]
.Ltmp695:
	.loc	3 4155 6                        @ ../ThirdParty/FreeRTOS/Source/tasks.c:4155:6
	b	.LBB41_11
.LBB41_11:                              @ =>This Inner Loop Header: Depth=1
.Ltmp696:
	.loc	3 4155 6 is_stmt 0              @ ../ThirdParty/FreeRTOS/Source/tasks.c:4155:6
	b	.LBB41_11
.Ltmp697:
.LBB41_12:
	.loc	3 4161 30 is_stmt 1             @ ../ThirdParty/FreeRTOS/Source/tasks.c:4161:30
	ldr	r0, [sp, #12]
	.loc	3 4161 37 is_stmt 0             @ ../ThirdParty/FreeRTOS/Source/tasks.c:4161:37
	ldr	r0, [r0, #44]
	.loc	3 4161 28                       @ ../ThirdParty/FreeRTOS/Source/tasks.c:4161:28
	str	r0, [sp, #8]
	.loc	3 4162 26 is_stmt 1             @ ../ThirdParty/FreeRTOS/Source/tasks.c:4162:26
	ldr	r0, [sp, #4]
	.loc	3 4162 6 is_stmt 0              @ ../ThirdParty/FreeRTOS/Source/tasks.c:4162:6
	ldr	r1, [sp, #12]
	.loc	3 4162 24                       @ ../ThirdParty/FreeRTOS/Source/tasks.c:4162:24
	str	r0, [r1, #44]
.Ltmp698:
	.loc	3 4166 12 is_stmt 1             @ ../ThirdParty/FreeRTOS/Source/tasks.c:4166:12
	ldr	r0, [sp, #12]
.Ltmp699:
	.loc	3 4166 10 is_stmt 0             @ ../ThirdParty/FreeRTOS/Source/tasks.c:4166:10
	ldrb	r0, [r0, #27]
	lsls	r0, r0, #24
	cmp	r0, #0
	bmi	.LBB41_14
	b	.LBB41_13
.LBB41_13:
.Ltmp700:
	.loc	3 4168 7 is_stmt 1              @ ../ThirdParty/FreeRTOS/Source/tasks.c:4168:7
	ldr	r0, [sp, #4]
	rsb.w	r0, r0, #7
	ldr	r1, [sp, #12]
	str	r0, [r1, #24]
	.loc	3 4169 6                        @ ../ThirdParty/FreeRTOS/Source/tasks.c:4169:6
	b	.LBB41_15
.Ltmp701:
.LBB41_14:
	.loc	3 0 6 is_stmt 0                 @ ../ThirdParty/FreeRTOS/Source/tasks.c:0:6
	b	.LBB41_15
.LBB41_15:
.Ltmp702:
	.loc	3 4181 10 is_stmt 1             @ ../ThirdParty/FreeRTOS/Source/tasks.c:4181:10
	ldr	r0, [sp, #12]
	ldr	r0, [r0, #20]
	ldr	r1, [sp, #8]
	add.w	r2, r1, r1, lsl #2
	movw	r1, :lower16:pxReadyTasksLists
	movt	r1, :upper16:pxReadyTasksLists
	add.w	r1, r1, r2, lsl #2
.Ltmp703:
	.loc	3 4181 10 is_stmt 0             @ ../ThirdParty/FreeRTOS/Source/tasks.c:4181:10
	cmp	r0, r1
	bne	.LBB41_22
	b	.LBB41_16
.LBB41_16:
.Ltmp704:
	.loc	3 4183 28 is_stmt 1             @ ../ThirdParty/FreeRTOS/Source/tasks.c:4183:28
	ldr	r0, [sp, #12]
	.loc	3 4183 35 is_stmt 0             @ ../ThirdParty/FreeRTOS/Source/tasks.c:4183:35
	adds	r0, #4
	.loc	3 4183 11                       @ ../ThirdParty/FreeRTOS/Source/tasks.c:4183:11
	bl	uxListRemove
.Ltmp705:
	.loc	3 4183 11                       @ ../ThirdParty/FreeRTOS/Source/tasks.c:4183:11
	cbnz	r0, .LBB41_20
	b	.LBB41_17
.LBB41_17:
.Ltmp706:
	.loc	3 4185 8 is_stmt 1              @ ../ThirdParty/FreeRTOS/Source/tasks.c:4185:8
	ldr	r0, [sp, #12]
	ldr	r0, [r0, #44]
	add.w	r1, r0, r0, lsl #2
	movw	r0, :lower16:pxReadyTasksLists
	movt	r0, :upper16:pxReadyTasksLists
	ldr.w	r0, [r0, r1, lsl #2]
.Ltmp707:
	.loc	3 4185 8 is_stmt 0              @ ../ThirdParty/FreeRTOS/Source/tasks.c:4185:8
	cbnz	r0, .LBB41_19
	b	.LBB41_18
.LBB41_18:
.Ltmp708:
	.loc	3 4185 8                        @ ../ThirdParty/FreeRTOS/Source/tasks.c:4185:8
	ldr	r0, [sp, #12]
	ldr	r1, [r0, #44]
	movs	r0, #1
	lsl.w	r2, r0, r1
	movw	r1, :lower16:uxTopReadyPriority
	movt	r1, :upper16:uxTopReadyPriority
	ldr	r0, [r1]
	bics	r0, r2
	str	r0, [r1]
	b	.LBB41_19
.Ltmp709:
.LBB41_19:
	.loc	3 4186 7 is_stmt 1              @ ../ThirdParty/FreeRTOS/Source/tasks.c:4186:7
	b	.LBB41_21
.Ltmp710:
.LBB41_20:
	.loc	3 0 7 is_stmt 0                 @ ../ThirdParty/FreeRTOS/Source/tasks.c:0:7
	b	.LBB41_21
.LBB41_21:
	.loc	3 4192 7 is_stmt 1              @ ../ThirdParty/FreeRTOS/Source/tasks.c:4192:7
	ldr	r0, [sp, #12]
	ldr	r1, [r0, #44]
	movs	r0, #1
	lsl.w	r2, r0, r1
	movw	r1, :lower16:uxTopReadyPriority
	movt	r1, :upper16:uxTopReadyPriority
	ldr	r0, [r1]
	orrs	r0, r2
	str	r0, [r1]
	ldr	r1, [sp, #12]
	ldr	r0, [r1, #44]
	add.w	r2, r0, r0, lsl #2
	movw	r0, :lower16:pxReadyTasksLists
	movt	r0, :upper16:pxReadyTasksLists
	add.w	r0, r0, r2, lsl #2
	adds	r1, #4
	bl	vListInsertEnd
	.loc	3 4193 6                        @ ../ThirdParty/FreeRTOS/Source/tasks.c:4193:6
	b	.LBB41_23
.Ltmp711:
.LBB41_22:
	.loc	3 0 6 is_stmt 0                 @ ../ThirdParty/FreeRTOS/Source/tasks.c:0:6
	b	.LBB41_23
.LBB41_23:
	.loc	3 4198 5 is_stmt 1              @ ../ThirdParty/FreeRTOS/Source/tasks.c:4198:5
	b	.LBB41_25
.Ltmp712:
.LBB41_24:
	.loc	3 0 5 is_stmt 0                 @ ../ThirdParty/FreeRTOS/Source/tasks.c:0:5
	b	.LBB41_25
.LBB41_25:
	.loc	3 4203 4 is_stmt 1              @ ../ThirdParty/FreeRTOS/Source/tasks.c:4203:4
	b	.LBB41_27
.Ltmp713:
.LBB41_26:
	.loc	3 0 4 is_stmt 0                 @ ../ThirdParty/FreeRTOS/Source/tasks.c:0:4
	b	.LBB41_27
.LBB41_27:
	.loc	3 4208 3 is_stmt 1              @ ../ThirdParty/FreeRTOS/Source/tasks.c:4208:3
	b	.LBB41_29
.Ltmp714:
.LBB41_28:
	.loc	3 0 3 is_stmt 0                 @ ../ThirdParty/FreeRTOS/Source/tasks.c:0:3
	b	.LBB41_29
.LBB41_29:
	.loc	3 4213 2 epilogue_begin is_stmt 1 @ ../ThirdParty/FreeRTOS/Source/tasks.c:4213:2
	add	sp, #32
	pop	{r7, pc}
.Ltmp715:
.Lfunc_end41:
	.size	vTaskPriorityDisinheritAfterTimeout, .Lfunc_end41-vTaskPriorityDisinheritAfterTimeout
	.cfi_endproc
	.cantunwind
	.fnend
                                        @ -- End function
	.section	.text.uxTaskResetEventItemValue,"ax",%progbits
	.hidden	uxTaskResetEventItemValue       @ -- Begin function uxTaskResetEventItemValue
	.globl	uxTaskResetEventItemValue
	.p2align	2
	.type	uxTaskResetEventItemValue,%function
	.code	16                              @ @uxTaskResetEventItemValue
	.thumb_func
uxTaskResetEventItemValue:
.Lfunc_begin42:
	.loc	3 4534 0                        @ ../ThirdParty/FreeRTOS/Source/tasks.c:4534:0
	.fnstart
	.cfi_startproc
@ %bb.0:
	.pad	#4
	sub	sp, #4
	.cfi_def_cfa_offset 4
.Ltmp716:
	.loc	3 4537 13 prologue_end          @ ../ThirdParty/FreeRTOS/Source/tasks.c:4537:13
	movw	r1, :lower16:pxCurrentTCB
	movt	r1, :upper16:pxCurrentTCB
	ldr	r0, [r1]
	ldr	r0, [r0, #24]
	.loc	3 4537 11 is_stmt 0             @ ../ThirdParty/FreeRTOS/Source/tasks.c:4537:11
	str	r0, [sp]
	.loc	3 4541 2 is_stmt 1              @ ../ThirdParty/FreeRTOS/Source/tasks.c:4541:2
	ldr	r0, [r1]
	ldr	r0, [r0, #44]
	rsb.w	r0, r0, #7
	ldr	r1, [r1]
	str	r0, [r1, #24]
	.loc	3 4543 9                        @ ../ThirdParty/FreeRTOS/Source/tasks.c:4543:9
	ldr	r0, [sp]
	.loc	3 4543 2 epilogue_begin is_stmt 0 @ ../ThirdParty/FreeRTOS/Source/tasks.c:4543:2
	add	sp, #4
	bx	lr
.Ltmp717:
.Lfunc_end42:
	.size	uxTaskResetEventItemValue, .Lfunc_end42-uxTaskResetEventItemValue
	.cfi_endproc
	.cantunwind
	.fnend
                                        @ -- End function
	.section	.text.pvTaskIncrementMutexHeldCount,"ax",%progbits
	.hidden	pvTaskIncrementMutexHeldCount   @ -- Begin function pvTaskIncrementMutexHeldCount
	.globl	pvTaskIncrementMutexHeldCount
	.p2align	2
	.type	pvTaskIncrementMutexHeldCount,%function
	.code	16                              @ @pvTaskIncrementMutexHeldCount
	.thumb_func
pvTaskIncrementMutexHeldCount:
.Lfunc_begin43:
	.fnstart
	.cfi_startproc
@ %bb.0:
	.loc	3 4553 7 prologue_end is_stmt 1 @ ../ThirdParty/FreeRTOS/Source/tasks.c:4553:7
	movw	r0, :lower16:pxCurrentTCB
	movt	r0, :upper16:pxCurrentTCB
	ldr	r0, [r0]
.Ltmp718:
	.loc	3 4553 7 is_stmt 0              @ ../ThirdParty/FreeRTOS/Source/tasks.c:4553:7
	cbz	r0, .LBB43_2
	b	.LBB43_1
.LBB43_1:
.Ltmp719:
	.loc	3 4555 6 is_stmt 1              @ ../ThirdParty/FreeRTOS/Source/tasks.c:4555:6
	movw	r0, :lower16:pxCurrentTCB
	movt	r0, :upper16:pxCurrentTCB
	ldr	r1, [r0]
	.loc	3 4555 35 is_stmt 0             @ ../ThirdParty/FreeRTOS/Source/tasks.c:4555:35
	ldr	r0, [r1, #72]
	adds	r0, #1
	str	r0, [r1, #72]
	.loc	3 4556 3 is_stmt 1              @ ../ThirdParty/FreeRTOS/Source/tasks.c:4556:3
	b	.LBB43_2
.Ltmp720:
.LBB43_2:
	.loc	3 4558 10                       @ ../ThirdParty/FreeRTOS/Source/tasks.c:4558:10
	movw	r0, :lower16:pxCurrentTCB
	movt	r0, :upper16:pxCurrentTCB
	ldr	r0, [r0]
	.loc	3 4558 3 is_stmt 0              @ ../ThirdParty/FreeRTOS/Source/tasks.c:4558:3
	bx	lr
.Ltmp721:
.Lfunc_end43:
	.size	pvTaskIncrementMutexHeldCount, .Lfunc_end43-pvTaskIncrementMutexHeldCount
	.cfi_endproc
	.cantunwind
	.fnend
                                        @ -- End function
	.section	.text.ulTaskNotifyTake,"ax",%progbits
	.hidden	ulTaskNotifyTake                @ -- Begin function ulTaskNotifyTake
	.globl	ulTaskNotifyTake
	.p2align	2
	.type	ulTaskNotifyTake,%function
	.code	16                              @ @ulTaskNotifyTake
	.thumb_func
ulTaskNotifyTake:
.Lfunc_begin44:
	.loc	3 4567 0 is_stmt 1              @ ../ThirdParty/FreeRTOS/Source/tasks.c:4567:0
	.fnstart
	.cfi_startproc
@ %bb.0:
	.save	{r7, lr}
	push	{r7, lr}
	.cfi_def_cfa_offset 8
	.cfi_offset lr, -4
	.cfi_offset r7, -8
	.pad	#16
	sub	sp, #16
	.cfi_def_cfa_offset 24
	str	r0, [sp, #12]
	str	r1, [sp, #8]
.Ltmp722:
	.loc	3 4570 3 prologue_end           @ ../ThirdParty/FreeRTOS/Source/tasks.c:4570:3
	bl	vPortEnterCritical
.Ltmp723:
	.loc	3 4573 8                        @ ../ThirdParty/FreeRTOS/Source/tasks.c:4573:8
	movw	r0, :lower16:pxCurrentTCB
	movt	r0, :upper16:pxCurrentTCB
	ldr	r0, [r0]
	.loc	3 4573 22 is_stmt 0             @ ../ThirdParty/FreeRTOS/Source/tasks.c:4573:22
	ldr	r0, [r0, #76]
.Ltmp724:
	.loc	3 4573 8                        @ ../ThirdParty/FreeRTOS/Source/tasks.c:4573:8
	cbnz	r0, .LBB44_5
	b	.LBB44_1
.LBB44_1:
.Ltmp725:
	.loc	3 4576 5 is_stmt 1              @ ../ThirdParty/FreeRTOS/Source/tasks.c:4576:5
	movw	r0, :lower16:pxCurrentTCB
	movt	r0, :upper16:pxCurrentTCB
	ldr	r1, [r0]
	movs	r0, #1
	.loc	3 4576 33 is_stmt 0             @ ../ThirdParty/FreeRTOS/Source/tasks.c:4576:33
	strb.w	r0, [r1, #80]
.Ltmp726:
	.loc	3 4578 9 is_stmt 1              @ ../ThirdParty/FreeRTOS/Source/tasks.c:4578:9
	ldr	r0, [sp, #8]
.Ltmp727:
	.loc	3 4578 9 is_stmt 0              @ ../ThirdParty/FreeRTOS/Source/tasks.c:4578:9
	cbz	r0, .LBB44_3
	b	.LBB44_2
.LBB44_2:
.Ltmp728:
	.loc	3 4580 38 is_stmt 1             @ ../ThirdParty/FreeRTOS/Source/tasks.c:4580:38
	ldr	r0, [sp, #8]
	movs	r1, #1
	.loc	3 4580 6 is_stmt 0              @ ../ThirdParty/FreeRTOS/Source/tasks.c:4580:6
	bl	prvAddCurrentTaskToDelayedList
	movw	r1, #60676
	movt	r1, #57344
	mov.w	r0, #268435456
.Ltmp729:
	.loc	3 4587 6 is_stmt 1              @ ../ThirdParty/FreeRTOS/Source/tasks.c:4587:6
	str	r0, [r1]
	@APP
	dsb	sy
	@NO_APP
	@APP
	isb	sy
	@NO_APP
.Ltmp730:
	.loc	3 4588 5                        @ ../ThirdParty/FreeRTOS/Source/tasks.c:4588:5
	b	.LBB44_4
.Ltmp731:
.LBB44_3:
	.loc	3 0 5 is_stmt 0                 @ ../ThirdParty/FreeRTOS/Source/tasks.c:0:5
	b	.LBB44_4
.LBB44_4:
	.loc	3 4593 4 is_stmt 1              @ ../ThirdParty/FreeRTOS/Source/tasks.c:4593:4
	b	.LBB44_6
.Ltmp732:
.LBB44_5:
	.loc	3 0 4 is_stmt 0                 @ ../ThirdParty/FreeRTOS/Source/tasks.c:0:4
	b	.LBB44_6
.LBB44_6:
	.loc	3 4599 3 is_stmt 1              @ ../ThirdParty/FreeRTOS/Source/tasks.c:4599:3
	bl	vPortExitCritical
	.loc	3 4601 3                        @ ../ThirdParty/FreeRTOS/Source/tasks.c:4601:3
	bl	vPortEnterCritical
.Ltmp733:
	.loc	3 4604 15                       @ ../ThirdParty/FreeRTOS/Source/tasks.c:4604:15
	movw	r0, :lower16:pxCurrentTCB
	movt	r0, :upper16:pxCurrentTCB
	ldr	r0, [r0]
	.loc	3 4604 29 is_stmt 0             @ ../ThirdParty/FreeRTOS/Source/tasks.c:4604:29
	ldr	r0, [r0, #76]
	.loc	3 4604 13                       @ ../ThirdParty/FreeRTOS/Source/tasks.c:4604:13
	str	r0, [sp, #4]
.Ltmp734:
	.loc	3 4606 8 is_stmt 1              @ ../ThirdParty/FreeRTOS/Source/tasks.c:4606:8
	ldr	r0, [sp, #4]
.Ltmp735:
	.loc	3 4606 8 is_stmt 0              @ ../ThirdParty/FreeRTOS/Source/tasks.c:4606:8
	cbz	r0, .LBB44_11
	b	.LBB44_7
.LBB44_7:
.Ltmp736:
	.loc	3 4608 9 is_stmt 1              @ ../ThirdParty/FreeRTOS/Source/tasks.c:4608:9
	ldr	r0, [sp, #12]
.Ltmp737:
	.loc	3 4608 9 is_stmt 0              @ ../ThirdParty/FreeRTOS/Source/tasks.c:4608:9
	cbz	r0, .LBB44_9
	b	.LBB44_8
.LBB44_8:
.Ltmp738:
	.loc	3 4610 6 is_stmt 1              @ ../ThirdParty/FreeRTOS/Source/tasks.c:4610:6
	movw	r0, :lower16:pxCurrentTCB
	movt	r0, :upper16:pxCurrentTCB
	ldr	r1, [r0]
	movs	r0, #0
	.loc	3 4610 36 is_stmt 0             @ ../ThirdParty/FreeRTOS/Source/tasks.c:4610:36
	str	r0, [r1, #76]
	.loc	3 4611 5 is_stmt 1              @ ../ThirdParty/FreeRTOS/Source/tasks.c:4611:5
	b	.LBB44_10
.Ltmp739:
.LBB44_9:
	.loc	3 4614 38                       @ ../ThirdParty/FreeRTOS/Source/tasks.c:4614:38
	ldr	r0, [sp, #4]
	.loc	3 4614 47 is_stmt 0             @ ../ThirdParty/FreeRTOS/Source/tasks.c:4614:47
	subs	r0, #1
	.loc	3 4614 6                        @ ../ThirdParty/FreeRTOS/Source/tasks.c:4614:6
	movw	r1, :lower16:pxCurrentTCB
	movt	r1, :upper16:pxCurrentTCB
	ldr	r1, [r1]
	.loc	3 4614 36                       @ ../ThirdParty/FreeRTOS/Source/tasks.c:4614:36
	str	r0, [r1, #76]
	b	.LBB44_10
.Ltmp740:
.LBB44_10:
	.loc	3 4616 4 is_stmt 1              @ ../ThirdParty/FreeRTOS/Source/tasks.c:4616:4
	b	.LBB44_12
.Ltmp741:
.LBB44_11:
	.loc	3 0 4 is_stmt 0                 @ ../ThirdParty/FreeRTOS/Source/tasks.c:0:4
	b	.LBB44_12
.LBB44_12:
	.loc	3 4622 4 is_stmt 1              @ ../ThirdParty/FreeRTOS/Source/tasks.c:4622:4
	movw	r0, :lower16:pxCurrentTCB
	movt	r0, :upper16:pxCurrentTCB
	ldr	r1, [r0]
	movs	r0, #0
	.loc	3 4622 32 is_stmt 0             @ ../ThirdParty/FreeRTOS/Source/tasks.c:4622:32
	strb.w	r0, [r1, #80]
.Ltmp742:
	.loc	3 4624 3 is_stmt 1              @ ../ThirdParty/FreeRTOS/Source/tasks.c:4624:3
	bl	vPortExitCritical
	.loc	3 4626 10                       @ ../ThirdParty/FreeRTOS/Source/tasks.c:4626:10
	ldr	r0, [sp, #4]
	.loc	3 4626 3 epilogue_begin is_stmt 0 @ ../ThirdParty/FreeRTOS/Source/tasks.c:4626:3
	add	sp, #16
	pop	{r7, pc}
.Ltmp743:
.Lfunc_end44:
	.size	ulTaskNotifyTake, .Lfunc_end44-ulTaskNotifyTake
	.cfi_endproc
	.cantunwind
	.fnend
                                        @ -- End function
	.section	.text.xTaskNotifyWait,"ax",%progbits
	.hidden	xTaskNotifyWait                 @ -- Begin function xTaskNotifyWait
	.globl	xTaskNotifyWait
	.p2align	2
	.type	xTaskNotifyWait,%function
	.code	16                              @ @xTaskNotifyWait
	.thumb_func
xTaskNotifyWait:
.Lfunc_begin45:
	.loc	3 4635 0 is_stmt 1              @ ../ThirdParty/FreeRTOS/Source/tasks.c:4635:0
	.fnstart
	.cfi_startproc
@ %bb.0:
	.save	{r7, lr}
	push	{r7, lr}
	.cfi_def_cfa_offset 8
	.cfi_offset lr, -4
	.cfi_offset r7, -8
	.pad	#24
	sub	sp, #24
	.cfi_def_cfa_offset 32
	str	r0, [sp, #20]
	str	r1, [sp, #16]
	str	r2, [sp, #12]
	str	r3, [sp, #8]
.Ltmp744:
	.loc	3 4638 3 prologue_end           @ ../ThirdParty/FreeRTOS/Source/tasks.c:4638:3
	bl	vPortEnterCritical
.Ltmp745:
	.loc	3 4641 8                        @ ../ThirdParty/FreeRTOS/Source/tasks.c:4641:8
	movw	r0, :lower16:pxCurrentTCB
	movt	r0, :upper16:pxCurrentTCB
	ldr	r0, [r0]
	.loc	3 4641 22 is_stmt 0             @ ../ThirdParty/FreeRTOS/Source/tasks.c:4641:22
	ldrb.w	r0, [r0, #80]
.Ltmp746:
	.loc	3 4641 8                        @ ../ThirdParty/FreeRTOS/Source/tasks.c:4641:8
	cmp	r0, #2
	beq	.LBB45_5
	b	.LBB45_1
.LBB45_1:
.Ltmp747:
	.loc	3 4646 39 is_stmt 1             @ ../ThirdParty/FreeRTOS/Source/tasks.c:4646:39
	ldr	r3, [sp, #20]
	.loc	3 4646 5 is_stmt 0              @ ../ThirdParty/FreeRTOS/Source/tasks.c:4646:5
	movw	r0, :lower16:pxCurrentTCB
	movt	r0, :upper16:pxCurrentTCB
	ldr	r2, [r0]
	.loc	3 4646 35                       @ ../ThirdParty/FreeRTOS/Source/tasks.c:4646:35
	ldr	r1, [r2, #76]
	bics	r1, r3
	str	r1, [r2, #76]
	.loc	3 4649 5 is_stmt 1              @ ../ThirdParty/FreeRTOS/Source/tasks.c:4649:5
	ldr	r1, [r0]
	movs	r0, #1
	.loc	3 4649 33 is_stmt 0             @ ../ThirdParty/FreeRTOS/Source/tasks.c:4649:33
	strb.w	r0, [r1, #80]
.Ltmp748:
	.loc	3 4651 9 is_stmt 1              @ ../ThirdParty/FreeRTOS/Source/tasks.c:4651:9
	ldr	r0, [sp, #8]
.Ltmp749:
	.loc	3 4651 9 is_stmt 0              @ ../ThirdParty/FreeRTOS/Source/tasks.c:4651:9
	cbz	r0, .LBB45_3
	b	.LBB45_2
.LBB45_2:
.Ltmp750:
	.loc	3 4653 38 is_stmt 1             @ ../ThirdParty/FreeRTOS/Source/tasks.c:4653:38
	ldr	r0, [sp, #8]
	movs	r1, #1
	.loc	3 4653 6 is_stmt 0              @ ../ThirdParty/FreeRTOS/Source/tasks.c:4653:6
	bl	prvAddCurrentTaskToDelayedList
	movw	r1, #60676
	movt	r1, #57344
	mov.w	r0, #268435456
.Ltmp751:
	.loc	3 4660 6 is_stmt 1              @ ../ThirdParty/FreeRTOS/Source/tasks.c:4660:6
	str	r0, [r1]
	@APP
	dsb	sy
	@NO_APP
	@APP
	isb	sy
	@NO_APP
.Ltmp752:
	.loc	3 4661 5                        @ ../ThirdParty/FreeRTOS/Source/tasks.c:4661:5
	b	.LBB45_4
.Ltmp753:
.LBB45_3:
	.loc	3 0 5 is_stmt 0                 @ ../ThirdParty/FreeRTOS/Source/tasks.c:0:5
	b	.LBB45_4
.LBB45_4:
	.loc	3 4666 4 is_stmt 1              @ ../ThirdParty/FreeRTOS/Source/tasks.c:4666:4
	b	.LBB45_6
.Ltmp754:
.LBB45_5:
	.loc	3 0 4 is_stmt 0                 @ ../ThirdParty/FreeRTOS/Source/tasks.c:0:4
	b	.LBB45_6
.LBB45_6:
	.loc	3 4672 3 is_stmt 1              @ ../ThirdParty/FreeRTOS/Source/tasks.c:4672:3
	bl	vPortExitCritical
	.loc	3 4674 3                        @ ../ThirdParty/FreeRTOS/Source/tasks.c:4674:3
	bl	vPortEnterCritical
.Ltmp755:
	.loc	3 4678 8                        @ ../ThirdParty/FreeRTOS/Source/tasks.c:4678:8
	ldr	r0, [sp, #12]
.Ltmp756:
	.loc	3 4678 8 is_stmt 0              @ ../ThirdParty/FreeRTOS/Source/tasks.c:4678:8
	cbz	r0, .LBB45_8
	b	.LBB45_7
.LBB45_7:
.Ltmp757:
	.loc	3 4682 29 is_stmt 1             @ ../ThirdParty/FreeRTOS/Source/tasks.c:4682:29
	movw	r0, :lower16:pxCurrentTCB
	movt	r0, :upper16:pxCurrentTCB
	ldr	r0, [r0]
	.loc	3 4682 43 is_stmt 0             @ ../ThirdParty/FreeRTOS/Source/tasks.c:4682:43
	ldr	r0, [r0, #76]
	.loc	3 4682 6                        @ ../ThirdParty/FreeRTOS/Source/tasks.c:4682:6
	ldr	r1, [sp, #12]
	.loc	3 4682 27                       @ ../ThirdParty/FreeRTOS/Source/tasks.c:4682:27
	str	r0, [r1]
	.loc	3 4683 4 is_stmt 1              @ ../ThirdParty/FreeRTOS/Source/tasks.c:4683:4
	b	.LBB45_8
.Ltmp758:
.LBB45_8:
	.loc	3 4689 8                        @ ../ThirdParty/FreeRTOS/Source/tasks.c:4689:8
	movw	r0, :lower16:pxCurrentTCB
	movt	r0, :upper16:pxCurrentTCB
	ldr	r0, [r0]
	.loc	3 4689 22 is_stmt 0             @ ../ThirdParty/FreeRTOS/Source/tasks.c:4689:22
	ldrb.w	r0, [r0, #80]
.Ltmp759:
	.loc	3 4689 8                        @ ../ThirdParty/FreeRTOS/Source/tasks.c:4689:8
	cmp	r0, #2
	beq	.LBB45_10
	b	.LBB45_9
.LBB45_9:
	.loc	3 0 8                           @ ../ThirdParty/FreeRTOS/Source/tasks.c:0:8
	movs	r0, #0
.Ltmp760:
	.loc	3 4692 13 is_stmt 1             @ ../ThirdParty/FreeRTOS/Source/tasks.c:4692:13
	str	r0, [sp, #4]
	.loc	3 4693 4                        @ ../ThirdParty/FreeRTOS/Source/tasks.c:4693:4
	b	.LBB45_11
.Ltmp761:
.LBB45_10:
	.loc	3 4698 39                       @ ../ThirdParty/FreeRTOS/Source/tasks.c:4698:39
	ldr	r2, [sp, #16]
	.loc	3 4698 5 is_stmt 0              @ ../ThirdParty/FreeRTOS/Source/tasks.c:4698:5
	movw	r0, :lower16:pxCurrentTCB
	movt	r0, :upper16:pxCurrentTCB
	ldr	r1, [r0]
	.loc	3 4698 35                       @ ../ThirdParty/FreeRTOS/Source/tasks.c:4698:35
	ldr	r0, [r1, #76]
	bics	r0, r2
	str	r0, [r1, #76]
	movs	r0, #1
	.loc	3 4699 13 is_stmt 1             @ ../ThirdParty/FreeRTOS/Source/tasks.c:4699:13
	str	r0, [sp, #4]
	b	.LBB45_11
.Ltmp762:
.LBB45_11:
	.loc	3 4702 4                        @ ../ThirdParty/FreeRTOS/Source/tasks.c:4702:4
	movw	r0, :lower16:pxCurrentTCB
	movt	r0, :upper16:pxCurrentTCB
	ldr	r1, [r0]
	movs	r0, #0
	.loc	3 4702 32 is_stmt 0             @ ../ThirdParty/FreeRTOS/Source/tasks.c:4702:32
	strb.w	r0, [r1, #80]
.Ltmp763:
	.loc	3 4704 3 is_stmt 1              @ ../ThirdParty/FreeRTOS/Source/tasks.c:4704:3
	bl	vPortExitCritical
	.loc	3 4706 10                       @ ../ThirdParty/FreeRTOS/Source/tasks.c:4706:10
	ldr	r0, [sp, #4]
	.loc	3 4706 3 epilogue_begin is_stmt 0 @ ../ThirdParty/FreeRTOS/Source/tasks.c:4706:3
	add	sp, #24
	pop	{r7, pc}
.Ltmp764:
.Lfunc_end45:
	.size	xTaskNotifyWait, .Lfunc_end45-xTaskNotifyWait
	.cfi_endproc
	.cantunwind
	.fnend
                                        @ -- End function
	.section	.text.xTaskGenericNotify,"ax",%progbits
	.hidden	xTaskGenericNotify              @ -- Begin function xTaskGenericNotify
	.globl	xTaskGenericNotify
	.p2align	2
	.type	xTaskGenericNotify,%function
	.code	16                              @ @xTaskGenericNotify
	.thumb_func
xTaskGenericNotify:
.Lfunc_begin46:
	.loc	3 4715 0 is_stmt 1              @ ../ThirdParty/FreeRTOS/Source/tasks.c:4715:0
	.fnstart
	.cfi_startproc
@ %bb.0:
	.save	{r7, lr}
	push	{r7, lr}
	.cfi_def_cfa_offset 8
	.cfi_offset lr, -4
	.cfi_offset r7, -8
	.pad	#48
	sub	sp, #48
	.cfi_def_cfa_offset 56
                                        @ kill: def $r12 killed $r2
	str	r0, [sp, #32]
	str	r1, [sp, #28]
	strb.w	r2, [sp, #27]
	str	r3, [sp, #20]
	movs	r0, #1
.Ltmp765:
	.loc	3 4717 13 prologue_end          @ ../ThirdParty/FreeRTOS/Source/tasks.c:4717:13
	str	r0, [sp, #12]
.Ltmp766:
	.loc	3 4720 3                        @ ../ThirdParty/FreeRTOS/Source/tasks.c:4720:3
	ldr	r0, [sp, #32]
.Ltmp767:
	.loc	3 4720 3 is_stmt 0              @ ../ThirdParty/FreeRTOS/Source/tasks.c:4720:3
	cbnz	r0, .LBB46_3
	b	.LBB46_1
.LBB46_1:
.Ltmp768:
	.loc	2 199 2 is_stmt 1               @ ../ThirdParty/FreeRTOS/Source/portable/GCC/ARM_CM4F\portmacro.h:199:2
	@APP
	mov.w	r0, #80
	msr	basepri, r0
	isb	sy
	dsb	sy

	@NO_APP
	str	r0, [sp, #44]
.Ltmp769:
	.loc	3 4720 3                        @ ../ThirdParty/FreeRTOS/Source/tasks.c:4720:3
	b	.LBB46_2
.LBB46_2:                               @ =>This Inner Loop Header: Depth=1
.Ltmp770:
	.loc	3 4720 3 is_stmt 0              @ ../ThirdParty/FreeRTOS/Source/tasks.c:4720:3
	b	.LBB46_2
.Ltmp771:
.LBB46_3:
	.loc	3 4721 11 is_stmt 1             @ ../ThirdParty/FreeRTOS/Source/tasks.c:4721:11
	ldr	r0, [sp, #32]
	.loc	3 4721 9 is_stmt 0              @ ../ThirdParty/FreeRTOS/Source/tasks.c:4721:9
	str	r0, [sp, #16]
	.loc	3 4723 3 is_stmt 1              @ ../ThirdParty/FreeRTOS/Source/tasks.c:4723:3
	bl	vPortEnterCritical
.Ltmp772:
	.loc	3 4725 8                        @ ../ThirdParty/FreeRTOS/Source/tasks.c:4725:8
	ldr	r0, [sp, #20]
.Ltmp773:
	.loc	3 4725 8 is_stmt 0              @ ../ThirdParty/FreeRTOS/Source/tasks.c:4725:8
	cbz	r0, .LBB46_5
	b	.LBB46_4
.LBB46_4:
.Ltmp774:
	.loc	3 4727 37 is_stmt 1             @ ../ThirdParty/FreeRTOS/Source/tasks.c:4727:37
	ldr	r0, [sp, #16]
	.loc	3 4727 44 is_stmt 0             @ ../ThirdParty/FreeRTOS/Source/tasks.c:4727:44
	ldr	r0, [r0, #76]
	.loc	3 4727 6                        @ ../ThirdParty/FreeRTOS/Source/tasks.c:4727:6
	ldr	r1, [sp, #20]
	.loc	3 4727 35                       @ ../ThirdParty/FreeRTOS/Source/tasks.c:4727:35
	str	r0, [r1]
	.loc	3 4728 4 is_stmt 1              @ ../ThirdParty/FreeRTOS/Source/tasks.c:4728:4
	b	.LBB46_5
.Ltmp775:
.LBB46_5:
	.loc	3 4730 28                       @ ../ThirdParty/FreeRTOS/Source/tasks.c:4730:28
	ldr	r0, [sp, #16]
	.loc	3 4730 35 is_stmt 0             @ ../ThirdParty/FreeRTOS/Source/tasks.c:4730:35
	ldrb.w	r0, [r0, #80]
	.loc	3 4730 26                       @ ../ThirdParty/FreeRTOS/Source/tasks.c:4730:26
	strb.w	r0, [sp, #11]
	.loc	3 4732 4 is_stmt 1              @ ../ThirdParty/FreeRTOS/Source/tasks.c:4732:4
	ldr	r1, [sp, #16]
	movs	r0, #2
	.loc	3 4732 25 is_stmt 0             @ ../ThirdParty/FreeRTOS/Source/tasks.c:4732:25
	strb.w	r0, [r1, #80]
	.loc	3 4734 12 is_stmt 1             @ ../ThirdParty/FreeRTOS/Source/tasks.c:4734:12
	ldrb.w	r0, [sp, #27]
	.loc	3 4734 4 is_stmt 0              @ ../ThirdParty/FreeRTOS/Source/tasks.c:4734:4
	mov	r1, r0
	str	r1, [sp, #4]                    @ 4-byte Spill
	cmp	r0, #4
	bhi	.LBB46_16
@ %bb.6:
	.loc	3 0 4                           @ ../ThirdParty/FreeRTOS/Source/tasks.c:0:4
	ldr	r1, [sp, #4]                    @ 4-byte Reload
.LCPI46_0:
	tbb	[pc, r1]
@ %bb.7:
.LJTI46_0:
	.byte	(.LBB46_15-(.LCPI46_0+4))/2
	.byte	(.LBB46_8-(.LCPI46_0+4))/2
	.byte	(.LBB46_9-(.LCPI46_0+4))/2
	.byte	(.LBB46_10-(.LCPI46_0+4))/2
	.byte	(.LBB46_11-(.LCPI46_0+4))/2
	.p2align	1
.LBB46_8:
.Ltmp776:
	.loc	3 4737 32 is_stmt 1             @ ../ThirdParty/FreeRTOS/Source/tasks.c:4737:32
	ldr	r2, [sp, #28]
	.loc	3 4737 6 is_stmt 0              @ ../ThirdParty/FreeRTOS/Source/tasks.c:4737:6
	ldr	r1, [sp, #16]
	.loc	3 4737 29                       @ ../ThirdParty/FreeRTOS/Source/tasks.c:4737:29
	ldr	r0, [r1, #76]
	orrs	r0, r2
	str	r0, [r1, #76]
	.loc	3 4738 6 is_stmt 1              @ ../ThirdParty/FreeRTOS/Source/tasks.c:4738:6
	b	.LBB46_20
.LBB46_9:
	.loc	3 4741 8                        @ ../ThirdParty/FreeRTOS/Source/tasks.c:4741:8
	ldr	r1, [sp, #16]
	.loc	3 4741 32 is_stmt 0             @ ../ThirdParty/FreeRTOS/Source/tasks.c:4741:32
	ldr	r0, [r1, #76]
	adds	r0, #1
	str	r0, [r1, #76]
	.loc	3 4742 6 is_stmt 1              @ ../ThirdParty/FreeRTOS/Source/tasks.c:4742:6
	b	.LBB46_20
.LBB46_10:
	.loc	3 4745 31                       @ ../ThirdParty/FreeRTOS/Source/tasks.c:4745:31
	ldr	r0, [sp, #28]
	.loc	3 4745 6 is_stmt 0              @ ../ThirdParty/FreeRTOS/Source/tasks.c:4745:6
	ldr	r1, [sp, #16]
	.loc	3 4745 29                       @ ../ThirdParty/FreeRTOS/Source/tasks.c:4745:29
	str	r0, [r1, #76]
	.loc	3 4746 6 is_stmt 1              @ ../ThirdParty/FreeRTOS/Source/tasks.c:4746:6
	b	.LBB46_20
.LBB46_11:
.Ltmp777:
	.loc	3 4749 10                       @ ../ThirdParty/FreeRTOS/Source/tasks.c:4749:10
	ldrb.w	r0, [sp, #11]
.Ltmp778:
	.loc	3 4749 10 is_stmt 0             @ ../ThirdParty/FreeRTOS/Source/tasks.c:4749:10
	cmp	r0, #2
	beq	.LBB46_13
	b	.LBB46_12
.LBB46_12:
.Ltmp779:
	.loc	3 4751 32 is_stmt 1             @ ../ThirdParty/FreeRTOS/Source/tasks.c:4751:32
	ldr	r0, [sp, #28]
	.loc	3 4751 7 is_stmt 0              @ ../ThirdParty/FreeRTOS/Source/tasks.c:4751:7
	ldr	r1, [sp, #16]
	.loc	3 4751 30                       @ ../ThirdParty/FreeRTOS/Source/tasks.c:4751:30
	str	r0, [r1, #76]
	.loc	3 4752 6 is_stmt 1              @ ../ThirdParty/FreeRTOS/Source/tasks.c:4752:6
	b	.LBB46_14
.Ltmp780:
.LBB46_13:
	.loc	3 0 6 is_stmt 0                 @ ../ThirdParty/FreeRTOS/Source/tasks.c:0:6
	movs	r0, #0
.Ltmp781:
	.loc	3 4756 15 is_stmt 1             @ ../ThirdParty/FreeRTOS/Source/tasks.c:4756:15
	str	r0, [sp, #12]
	b	.LBB46_14
.Ltmp782:
.LBB46_14:
	.loc	3 4758 6                        @ ../ThirdParty/FreeRTOS/Source/tasks.c:4758:6
	b	.LBB46_20
.LBB46_15:
	.loc	3 4763 6                        @ ../ThirdParty/FreeRTOS/Source/tasks.c:4763:6
	b	.LBB46_20
.LBB46_16:
.Ltmp783:
	.loc	3 4769 6                        @ ../ThirdParty/FreeRTOS/Source/tasks.c:4769:6
	ldr	r0, [sp, #16]
	ldr	r0, [r0, #76]
.Ltmp784:
	.loc	3 4769 6 is_stmt 0              @ ../ThirdParty/FreeRTOS/Source/tasks.c:4769:6
	adds	r0, #1
	cbz	r0, .LBB46_19
	b	.LBB46_17
.LBB46_17:
.Ltmp785:
	.loc	2 199 2 is_stmt 1               @ ../ThirdParty/FreeRTOS/Source/portable/GCC/ARM_CM4F\portmacro.h:199:2
	@APP
	mov.w	r0, #80
	msr	basepri, r0
	isb	sy
	dsb	sy

	@NO_APP
	str	r0, [sp, #40]
.Ltmp786:
	.loc	3 4769 6                        @ ../ThirdParty/FreeRTOS/Source/tasks.c:4769:6
	b	.LBB46_18
.LBB46_18:                              @ =>This Inner Loop Header: Depth=1
.Ltmp787:
	.loc	3 4769 6 is_stmt 0              @ ../ThirdParty/FreeRTOS/Source/tasks.c:4769:6
	b	.LBB46_18
.Ltmp788:
.LBB46_19:
	.loc	3 4771 6 is_stmt 1              @ ../ThirdParty/FreeRTOS/Source/tasks.c:4771:6
	b	.LBB46_20
.Ltmp789:
.LBB46_20:
	.loc	3 4778 8                        @ ../ThirdParty/FreeRTOS/Source/tasks.c:4778:8
	ldrb.w	r0, [sp, #11]
.Ltmp790:
	.loc	3 4778 8 is_stmt 0              @ ../ThirdParty/FreeRTOS/Source/tasks.c:4778:8
	cmp	r0, #1
	bne	.LBB46_28
	b	.LBB46_21
.LBB46_21:
.Ltmp791:
	.loc	3 4780 31 is_stmt 1             @ ../ThirdParty/FreeRTOS/Source/tasks.c:4780:31
	ldr	r0, [sp, #16]
	.loc	3 4780 38 is_stmt 0             @ ../ThirdParty/FreeRTOS/Source/tasks.c:4780:38
	adds	r0, #4
	.loc	3 4780 14                       @ ../ThirdParty/FreeRTOS/Source/tasks.c:4780:14
	bl	uxListRemove
	.loc	3 4781 5 is_stmt 1              @ ../ThirdParty/FreeRTOS/Source/tasks.c:4781:5
	ldr	r0, [sp, #16]
	ldr	r1, [r0, #44]
	movs	r0, #1
	lsl.w	r2, r0, r1
	movw	r1, :lower16:uxTopReadyPriority
	movt	r1, :upper16:uxTopReadyPriority
	ldr	r0, [r1]
	orrs	r0, r2
	str	r0, [r1]
	ldr	r1, [sp, #16]
	ldr	r0, [r1, #44]
	add.w	r2, r0, r0, lsl #2
	movw	r0, :lower16:pxReadyTasksLists
	movt	r0, :upper16:pxReadyTasksLists
	add.w	r0, r0, r2, lsl #2
	adds	r1, #4
	bl	vListInsertEnd
.Ltmp792:
	.loc	3 4784 5                        @ ../ThirdParty/FreeRTOS/Source/tasks.c:4784:5
	ldr	r0, [sp, #16]
	ldr	r0, [r0, #40]
.Ltmp793:
	.loc	3 4784 5 is_stmt 0              @ ../ThirdParty/FreeRTOS/Source/tasks.c:4784:5
	cbz	r0, .LBB46_24
	b	.LBB46_22
.LBB46_22:
.Ltmp794:
	.loc	2 199 2 is_stmt 1               @ ../ThirdParty/FreeRTOS/Source/portable/GCC/ARM_CM4F\portmacro.h:199:2
	@APP
	mov.w	r0, #80
	msr	basepri, r0
	isb	sy
	dsb	sy

	@NO_APP
	str	r0, [sp, #36]
.Ltmp795:
	.loc	3 4784 5                        @ ../ThirdParty/FreeRTOS/Source/tasks.c:4784:5
	b	.LBB46_23
.LBB46_23:                              @ =>This Inner Loop Header: Depth=1
.Ltmp796:
	.loc	3 4784 5 is_stmt 0              @ ../ThirdParty/FreeRTOS/Source/tasks.c:4784:5
	b	.LBB46_23
.Ltmp797:
.LBB46_24:
	.loc	3 4802 9 is_stmt 1              @ ../ThirdParty/FreeRTOS/Source/tasks.c:4802:9
	ldr	r0, [sp, #16]
	.loc	3 4802 16 is_stmt 0             @ ../ThirdParty/FreeRTOS/Source/tasks.c:4802:16
	ldr	r0, [r0, #44]
	.loc	3 4802 29                       @ ../ThirdParty/FreeRTOS/Source/tasks.c:4802:29
	movw	r1, :lower16:pxCurrentTCB
	movt	r1, :upper16:pxCurrentTCB
	ldr	r1, [r1]
	.loc	3 4802 43                       @ ../ThirdParty/FreeRTOS/Source/tasks.c:4802:43
	ldr	r1, [r1, #44]
.Ltmp798:
	.loc	3 4802 9                        @ ../ThirdParty/FreeRTOS/Source/tasks.c:4802:9
	cmp	r0, r1
	bls	.LBB46_26
	b	.LBB46_25
.LBB46_25:
	.loc	3 0 9                           @ ../ThirdParty/FreeRTOS/Source/tasks.c:0:9
	movw	r1, #60676
	movt	r1, #57344
	mov.w	r0, #268435456
.Ltmp799:
	.loc	3 4806 6 is_stmt 1              @ ../ThirdParty/FreeRTOS/Source/tasks.c:4806:6
	str	r0, [r1]
	@APP
	dsb	sy
	@NO_APP
	@APP
	isb	sy
	@NO_APP
.Ltmp800:
	.loc	3 4807 5                        @ ../ThirdParty/FreeRTOS/Source/tasks.c:4807:5
	b	.LBB46_27
.Ltmp801:
.LBB46_26:
	.loc	3 0 5 is_stmt 0                 @ ../ThirdParty/FreeRTOS/Source/tasks.c:0:5
	b	.LBB46_27
.LBB46_27:
	.loc	3 4812 4 is_stmt 1              @ ../ThirdParty/FreeRTOS/Source/tasks.c:4812:4
	b	.LBB46_29
.Ltmp802:
.LBB46_28:
	.loc	3 0 4 is_stmt 0                 @ ../ThirdParty/FreeRTOS/Source/tasks.c:0:4
	b	.LBB46_29
.LBB46_29:
	.loc	3 4818 3 is_stmt 1              @ ../ThirdParty/FreeRTOS/Source/tasks.c:4818:3
	bl	vPortExitCritical
	.loc	3 4820 10                       @ ../ThirdParty/FreeRTOS/Source/tasks.c:4820:10
	ldr	r0, [sp, #12]
	.loc	3 4820 3 epilogue_begin is_stmt 0 @ ../ThirdParty/FreeRTOS/Source/tasks.c:4820:3
	add	sp, #48
	pop	{r7, pc}
.Ltmp803:
.Lfunc_end46:
	.size	xTaskGenericNotify, .Lfunc_end46-xTaskGenericNotify
	.cfi_endproc
	.cantunwind
	.fnend
                                        @ -- End function
	.section	.text.xTaskGenericNotifyFromISR,"ax",%progbits
	.hidden	xTaskGenericNotifyFromISR       @ -- Begin function xTaskGenericNotifyFromISR
	.globl	xTaskGenericNotifyFromISR
	.p2align	2
	.type	xTaskGenericNotifyFromISR,%function
	.code	16                              @ @xTaskGenericNotifyFromISR
	.thumb_func
xTaskGenericNotifyFromISR:
.Lfunc_begin47:
	.loc	3 4829 0 is_stmt 1              @ ../ThirdParty/FreeRTOS/Source/tasks.c:4829:0
	.fnstart
	.cfi_startproc
@ %bb.0:
	.save	{r7, lr}
	push	{r7, lr}
	.cfi_def_cfa_offset 8
	.cfi_offset lr, -4
	.cfi_offset r7, -8
	.pad	#64
	sub	sp, #64
	.cfi_def_cfa_offset 72
	ldr.w	r12, [sp, #72]
                                        @ kill: def $r12 killed $r2
	str	r0, [sp, #36]
	str	r1, [sp, #32]
	strb.w	r2, [sp, #31]
	str	r3, [sp, #24]
	movs	r0, #1
.Ltmp804:
	.loc	3 4832 13 prologue_end          @ ../ThirdParty/FreeRTOS/Source/tasks.c:4832:13
	str	r0, [sp, #12]
.Ltmp805:
	.loc	3 4835 3                        @ ../ThirdParty/FreeRTOS/Source/tasks.c:4835:3
	ldr	r0, [sp, #36]
.Ltmp806:
	.loc	3 4835 3 is_stmt 0              @ ../ThirdParty/FreeRTOS/Source/tasks.c:4835:3
	cbnz	r0, .LBB47_3
	b	.LBB47_1
.LBB47_1:
.Ltmp807:
	.loc	2 199 2 is_stmt 1               @ ../ThirdParty/FreeRTOS/Source/portable/GCC/ARM_CM4F\portmacro.h:199:2
	@APP
	mov.w	r0, #80
	msr	basepri, r0
	isb	sy
	dsb	sy

	@NO_APP
	str	r0, [sp, #48]
.Ltmp808:
	.loc	3 4835 3                        @ ../ThirdParty/FreeRTOS/Source/tasks.c:4835:3
	b	.LBB47_2
.LBB47_2:                               @ =>This Inner Loop Header: Depth=1
.Ltmp809:
	.loc	3 4835 3 is_stmt 0              @ ../ThirdParty/FreeRTOS/Source/tasks.c:4835:3
	b	.LBB47_2
.Ltmp810:
.LBB47_3:
	.loc	3 4853 3 is_stmt 1              @ ../ThirdParty/FreeRTOS/Source/tasks.c:4853:3
	bl	vPortValidateInterruptPriority
	.loc	3 4855 11                       @ ../ThirdParty/FreeRTOS/Source/tasks.c:4855:11
	ldr	r0, [sp, #36]
	.loc	3 4855 9 is_stmt 0              @ ../ThirdParty/FreeRTOS/Source/tasks.c:4855:9
	str	r0, [sp, #20]
.Ltmp811:
	.loc	2 215 2 is_stmt 1               @ ../ThirdParty/FreeRTOS/Source/portable/GCC/ARM_CM4F\portmacro.h:215:2
	@APP
	mrs	r1, basepri
	mov.w	r0, #80
	msr	basepri, r0
	isb	sy
	dsb	sy

	@NO_APP
	str	r1, [sp, #56]
	str	r0, [sp, #52]
	.loc	2 227 9                         @ ../ThirdParty/FreeRTOS/Source/portable/GCC/ARM_CM4F\portmacro.h:227:9
	ldr	r0, [sp, #56]
.Ltmp812:
	.loc	3 4857 26                       @ ../ThirdParty/FreeRTOS/Source/tasks.c:4857:26
	str	r0, [sp, #8]
.Ltmp813:
	.loc	3 4859 8                        @ ../ThirdParty/FreeRTOS/Source/tasks.c:4859:8
	ldr	r0, [sp, #24]
.Ltmp814:
	.loc	3 4859 8 is_stmt 0              @ ../ThirdParty/FreeRTOS/Source/tasks.c:4859:8
	cbz	r0, .LBB47_5
	b	.LBB47_4
.LBB47_4:
.Ltmp815:
	.loc	3 4861 37 is_stmt 1             @ ../ThirdParty/FreeRTOS/Source/tasks.c:4861:37
	ldr	r0, [sp, #20]
	.loc	3 4861 44 is_stmt 0             @ ../ThirdParty/FreeRTOS/Source/tasks.c:4861:44
	ldr	r0, [r0, #76]
	.loc	3 4861 6                        @ ../ThirdParty/FreeRTOS/Source/tasks.c:4861:6
	ldr	r1, [sp, #24]
	.loc	3 4861 35                       @ ../ThirdParty/FreeRTOS/Source/tasks.c:4861:35
	str	r0, [r1]
	.loc	3 4862 4 is_stmt 1              @ ../ThirdParty/FreeRTOS/Source/tasks.c:4862:4
	b	.LBB47_5
.Ltmp816:
.LBB47_5:
	.loc	3 4864 28                       @ ../ThirdParty/FreeRTOS/Source/tasks.c:4864:28
	ldr	r0, [sp, #20]
	.loc	3 4864 35 is_stmt 0             @ ../ThirdParty/FreeRTOS/Source/tasks.c:4864:35
	ldrb.w	r0, [r0, #80]
	.loc	3 4864 26                       @ ../ThirdParty/FreeRTOS/Source/tasks.c:4864:26
	strb.w	r0, [sp, #19]
	.loc	3 4865 4 is_stmt 1              @ ../ThirdParty/FreeRTOS/Source/tasks.c:4865:4
	ldr	r1, [sp, #20]
	movs	r0, #2
	.loc	3 4865 25 is_stmt 0             @ ../ThirdParty/FreeRTOS/Source/tasks.c:4865:25
	strb.w	r0, [r1, #80]
	.loc	3 4867 12 is_stmt 1             @ ../ThirdParty/FreeRTOS/Source/tasks.c:4867:12
	ldrb.w	r0, [sp, #31]
	.loc	3 4867 4 is_stmt 0              @ ../ThirdParty/FreeRTOS/Source/tasks.c:4867:4
	mov	r1, r0
	str	r1, [sp, #4]                    @ 4-byte Spill
	cmp	r0, #4
	bhi	.LBB47_16
@ %bb.6:
	.loc	3 0 4                           @ ../ThirdParty/FreeRTOS/Source/tasks.c:0:4
	ldr	r1, [sp, #4]                    @ 4-byte Reload
.LCPI47_0:
	tbb	[pc, r1]
@ %bb.7:
.LJTI47_0:
	.byte	(.LBB47_15-(.LCPI47_0+4))/2
	.byte	(.LBB47_8-(.LCPI47_0+4))/2
	.byte	(.LBB47_9-(.LCPI47_0+4))/2
	.byte	(.LBB47_10-(.LCPI47_0+4))/2
	.byte	(.LBB47_11-(.LCPI47_0+4))/2
	.p2align	1
.LBB47_8:
.Ltmp817:
	.loc	3 4870 32 is_stmt 1             @ ../ThirdParty/FreeRTOS/Source/tasks.c:4870:32
	ldr	r2, [sp, #32]
	.loc	3 4870 6 is_stmt 0              @ ../ThirdParty/FreeRTOS/Source/tasks.c:4870:6
	ldr	r1, [sp, #20]
	.loc	3 4870 29                       @ ../ThirdParty/FreeRTOS/Source/tasks.c:4870:29
	ldr	r0, [r1, #76]
	orrs	r0, r2
	str	r0, [r1, #76]
	.loc	3 4871 6 is_stmt 1              @ ../ThirdParty/FreeRTOS/Source/tasks.c:4871:6
	b	.LBB47_20
.LBB47_9:
	.loc	3 4874 8                        @ ../ThirdParty/FreeRTOS/Source/tasks.c:4874:8
	ldr	r1, [sp, #20]
	.loc	3 4874 32 is_stmt 0             @ ../ThirdParty/FreeRTOS/Source/tasks.c:4874:32
	ldr	r0, [r1, #76]
	adds	r0, #1
	str	r0, [r1, #76]
	.loc	3 4875 6 is_stmt 1              @ ../ThirdParty/FreeRTOS/Source/tasks.c:4875:6
	b	.LBB47_20
.LBB47_10:
	.loc	3 4878 31                       @ ../ThirdParty/FreeRTOS/Source/tasks.c:4878:31
	ldr	r0, [sp, #32]
	.loc	3 4878 6 is_stmt 0              @ ../ThirdParty/FreeRTOS/Source/tasks.c:4878:6
	ldr	r1, [sp, #20]
	.loc	3 4878 29                       @ ../ThirdParty/FreeRTOS/Source/tasks.c:4878:29
	str	r0, [r1, #76]
	.loc	3 4879 6 is_stmt 1              @ ../ThirdParty/FreeRTOS/Source/tasks.c:4879:6
	b	.LBB47_20
.LBB47_11:
.Ltmp818:
	.loc	3 4882 10                       @ ../ThirdParty/FreeRTOS/Source/tasks.c:4882:10
	ldrb.w	r0, [sp, #19]
.Ltmp819:
	.loc	3 4882 10 is_stmt 0             @ ../ThirdParty/FreeRTOS/Source/tasks.c:4882:10
	cmp	r0, #2
	beq	.LBB47_13
	b	.LBB47_12
.LBB47_12:
.Ltmp820:
	.loc	3 4884 32 is_stmt 1             @ ../ThirdParty/FreeRTOS/Source/tasks.c:4884:32
	ldr	r0, [sp, #32]
	.loc	3 4884 7 is_stmt 0              @ ../ThirdParty/FreeRTOS/Source/tasks.c:4884:7
	ldr	r1, [sp, #20]
	.loc	3 4884 30                       @ ../ThirdParty/FreeRTOS/Source/tasks.c:4884:30
	str	r0, [r1, #76]
	.loc	3 4885 6 is_stmt 1              @ ../ThirdParty/FreeRTOS/Source/tasks.c:4885:6
	b	.LBB47_14
.Ltmp821:
.LBB47_13:
	.loc	3 0 6 is_stmt 0                 @ ../ThirdParty/FreeRTOS/Source/tasks.c:0:6
	movs	r0, #0
.Ltmp822:
	.loc	3 4889 15 is_stmt 1             @ ../ThirdParty/FreeRTOS/Source/tasks.c:4889:15
	str	r0, [sp, #12]
	b	.LBB47_14
.Ltmp823:
.LBB47_14:
	.loc	3 4891 6                        @ ../ThirdParty/FreeRTOS/Source/tasks.c:4891:6
	b	.LBB47_20
.LBB47_15:
	.loc	3 4896 6                        @ ../ThirdParty/FreeRTOS/Source/tasks.c:4896:6
	b	.LBB47_20
.LBB47_16:
.Ltmp824:
	.loc	3 4902 6                        @ ../ThirdParty/FreeRTOS/Source/tasks.c:4902:6
	ldr	r0, [sp, #20]
	ldr	r0, [r0, #76]
.Ltmp825:
	.loc	3 4902 6 is_stmt 0              @ ../ThirdParty/FreeRTOS/Source/tasks.c:4902:6
	adds	r0, #1
	cbz	r0, .LBB47_19
	b	.LBB47_17
.LBB47_17:
.Ltmp826:
	.loc	2 199 2 is_stmt 1               @ ../ThirdParty/FreeRTOS/Source/portable/GCC/ARM_CM4F\portmacro.h:199:2
	@APP
	mov.w	r0, #80
	msr	basepri, r0
	isb	sy
	dsb	sy

	@NO_APP
	str	r0, [sp, #44]
.Ltmp827:
	.loc	3 4902 6                        @ ../ThirdParty/FreeRTOS/Source/tasks.c:4902:6
	b	.LBB47_18
.LBB47_18:                              @ =>This Inner Loop Header: Depth=1
.Ltmp828:
	.loc	3 4902 6 is_stmt 0              @ ../ThirdParty/FreeRTOS/Source/tasks.c:4902:6
	b	.LBB47_18
.Ltmp829:
.LBB47_19:
	.loc	3 4903 6 is_stmt 1              @ ../ThirdParty/FreeRTOS/Source/tasks.c:4903:6
	b	.LBB47_20
.Ltmp830:
.LBB47_20:
	.loc	3 4910 8                        @ ../ThirdParty/FreeRTOS/Source/tasks.c:4910:8
	ldrb.w	r0, [sp, #19]
.Ltmp831:
	.loc	3 4910 8 is_stmt 0              @ ../ThirdParty/FreeRTOS/Source/tasks.c:4910:8
	cmp	r0, #1
	bne	.LBB47_33
	b	.LBB47_21
.LBB47_21:
.Ltmp832:
	.loc	3 4913 5 is_stmt 1              @ ../ThirdParty/FreeRTOS/Source/tasks.c:4913:5
	ldr	r0, [sp, #20]
	ldr	r0, [r0, #40]
.Ltmp833:
	.loc	3 4913 5 is_stmt 0              @ ../ThirdParty/FreeRTOS/Source/tasks.c:4913:5
	cbz	r0, .LBB47_24
	b	.LBB47_22
.LBB47_22:
.Ltmp834:
	.loc	2 199 2 is_stmt 1               @ ../ThirdParty/FreeRTOS/Source/portable/GCC/ARM_CM4F\portmacro.h:199:2
	@APP
	mov.w	r0, #80
	msr	basepri, r0
	isb	sy
	dsb	sy

	@NO_APP
	str	r0, [sp, #40]
.Ltmp835:
	.loc	3 4913 5                        @ ../ThirdParty/FreeRTOS/Source/tasks.c:4913:5
	b	.LBB47_23
.LBB47_23:                              @ =>This Inner Loop Header: Depth=1
.Ltmp836:
	.loc	3 4913 5 is_stmt 0              @ ../ThirdParty/FreeRTOS/Source/tasks.c:4913:5
	b	.LBB47_23
.Ltmp837:
.LBB47_24:
	.loc	3 4915 9 is_stmt 1              @ ../ThirdParty/FreeRTOS/Source/tasks.c:4915:9
	movw	r0, :lower16:uxSchedulerSuspended
	movt	r0, :upper16:uxSchedulerSuspended
	ldr	r0, [r0]
.Ltmp838:
	.loc	3 4915 9 is_stmt 0              @ ../ThirdParty/FreeRTOS/Source/tasks.c:4915:9
	cbnz	r0, .LBB47_26
	b	.LBB47_25
.LBB47_25:
.Ltmp839:
	.loc	3 4917 32 is_stmt 1             @ ../ThirdParty/FreeRTOS/Source/tasks.c:4917:32
	ldr	r0, [sp, #20]
	.loc	3 4917 39 is_stmt 0             @ ../ThirdParty/FreeRTOS/Source/tasks.c:4917:39
	adds	r0, #4
	.loc	3 4917 15                       @ ../ThirdParty/FreeRTOS/Source/tasks.c:4917:15
	bl	uxListRemove
	.loc	3 4918 6 is_stmt 1              @ ../ThirdParty/FreeRTOS/Source/tasks.c:4918:6
	ldr	r0, [sp, #20]
	ldr	r1, [r0, #44]
	movs	r0, #1
	lsl.w	r2, r0, r1
	movw	r1, :lower16:uxTopReadyPriority
	movt	r1, :upper16:uxTopReadyPriority
	ldr	r0, [r1]
	orrs	r0, r2
	str	r0, [r1]
	ldr	r1, [sp, #20]
	ldr	r0, [r1, #44]
	add.w	r2, r0, r0, lsl #2
	movw	r0, :lower16:pxReadyTasksLists
	movt	r0, :upper16:pxReadyTasksLists
	add.w	r0, r0, r2, lsl #2
	adds	r1, #4
	bl	vListInsertEnd
	.loc	3 4919 5                        @ ../ThirdParty/FreeRTOS/Source/tasks.c:4919:5
	b	.LBB47_27
.Ltmp840:
.LBB47_26:
	.loc	3 4924 49                       @ ../ThirdParty/FreeRTOS/Source/tasks.c:4924:49
	ldr	r0, [sp, #20]
	.loc	3 4924 56 is_stmt 0             @ ../ThirdParty/FreeRTOS/Source/tasks.c:4924:56
	add.w	r1, r0, #24
	.loc	3 4924 6                        @ ../ThirdParty/FreeRTOS/Source/tasks.c:4924:6
	movw	r0, :lower16:xPendingReadyList
	movt	r0, :upper16:xPendingReadyList
	bl	vListInsertEnd
	b	.LBB47_27
.Ltmp841:
.LBB47_27:
	.loc	3 4927 9 is_stmt 1              @ ../ThirdParty/FreeRTOS/Source/tasks.c:4927:9
	ldr	r0, [sp, #20]
	.loc	3 4927 16 is_stmt 0             @ ../ThirdParty/FreeRTOS/Source/tasks.c:4927:16
	ldr	r0, [r0, #44]
	.loc	3 4927 29                       @ ../ThirdParty/FreeRTOS/Source/tasks.c:4927:29
	movw	r1, :lower16:pxCurrentTCB
	movt	r1, :upper16:pxCurrentTCB
	ldr	r1, [r1]
	.loc	3 4927 43                       @ ../ThirdParty/FreeRTOS/Source/tasks.c:4927:43
	ldr	r1, [r1, #44]
.Ltmp842:
	.loc	3 4927 9                        @ ../ThirdParty/FreeRTOS/Source/tasks.c:4927:9
	cmp	r0, r1
	bls	.LBB47_31
	b	.LBB47_28
.LBB47_28:
.Ltmp843:
	.loc	3 4931 10 is_stmt 1             @ ../ThirdParty/FreeRTOS/Source/tasks.c:4931:10
	ldr	r0, [sp, #72]
.Ltmp844:
	.loc	3 4931 10 is_stmt 0             @ ../ThirdParty/FreeRTOS/Source/tasks.c:4931:10
	cbz	r0, .LBB47_30
	b	.LBB47_29
.LBB47_29:
.Ltmp845:
	.loc	3 4933 8 is_stmt 1              @ ../ThirdParty/FreeRTOS/Source/tasks.c:4933:8
	ldr	r1, [sp, #72]
	movs	r0, #1
	.loc	3 4933 34 is_stmt 0             @ ../ThirdParty/FreeRTOS/Source/tasks.c:4933:34
	str	r0, [r1]
	.loc	3 4934 6 is_stmt 1              @ ../ThirdParty/FreeRTOS/Source/tasks.c:4934:6
	b	.LBB47_30
.Ltmp846:
.LBB47_30:
	.loc	3 4939 20                       @ ../ThirdParty/FreeRTOS/Source/tasks.c:4939:20
	movw	r1, :lower16:xYieldPending
	movt	r1, :upper16:xYieldPending
	movs	r0, #1
	str	r0, [r1]
	.loc	3 4940 5                        @ ../ThirdParty/FreeRTOS/Source/tasks.c:4940:5
	b	.LBB47_32
.Ltmp847:
.LBB47_31:
	.loc	3 0 5 is_stmt 0                 @ ../ThirdParty/FreeRTOS/Source/tasks.c:0:5
	b	.LBB47_32
.LBB47_32:
	.loc	3 4945 4 is_stmt 1              @ ../ThirdParty/FreeRTOS/Source/tasks.c:4945:4
	b	.LBB47_33
.Ltmp848:
.LBB47_33:
	.loc	3 4947 3                        @ ../ThirdParty/FreeRTOS/Source/tasks.c:4947:3
	ldr	r0, [sp, #8]
	str	r0, [sp, #60]
.Ltmp849:
	.loc	2 235 32                        @ ../ThirdParty/FreeRTOS/Source/portable/GCC/ARM_CM4F\portmacro.h:235:32
	ldr	r0, [sp, #60]
	.loc	2 233 2                         @ ../ThirdParty/FreeRTOS/Source/portable/GCC/ARM_CM4F\portmacro.h:233:2
	@APP
	msr	basepri, r0
	@NO_APP
.Ltmp850:
	.loc	3 4949 10                       @ ../ThirdParty/FreeRTOS/Source/tasks.c:4949:10
	ldr	r0, [sp, #12]
	.loc	3 4949 3 epilogue_begin is_stmt 0 @ ../ThirdParty/FreeRTOS/Source/tasks.c:4949:3
	add	sp, #64
	pop	{r7, pc}
.Ltmp851:
.Lfunc_end47:
	.size	xTaskGenericNotifyFromISR, .Lfunc_end47-xTaskGenericNotifyFromISR
	.cfi_endproc
	.cantunwind
	.fnend
                                        @ -- End function
	.section	.text.vTaskNotifyGiveFromISR,"ax",%progbits
	.hidden	vTaskNotifyGiveFromISR          @ -- Begin function vTaskNotifyGiveFromISR
	.globl	vTaskNotifyGiveFromISR
	.p2align	2
	.type	vTaskNotifyGiveFromISR,%function
	.code	16                              @ @vTaskNotifyGiveFromISR
	.thumb_func
vTaskNotifyGiveFromISR:
.Lfunc_begin48:
	.loc	3 4958 0 is_stmt 1              @ ../ThirdParty/FreeRTOS/Source/tasks.c:4958:0
	.fnstart
	.cfi_startproc
@ %bb.0:
	.save	{r7, lr}
	push	{r7, lr}
	.cfi_def_cfa_offset 8
	.cfi_offset lr, -4
	.cfi_offset r7, -8
	.pad	#40
	sub	sp, #40
	.cfi_def_cfa_offset 48
	str	r0, [sp, #16]
	str	r1, [sp, #12]
.Ltmp852:
	.loc	3 4963 3 prologue_end           @ ../ThirdParty/FreeRTOS/Source/tasks.c:4963:3
	ldr	r0, [sp, #16]
.Ltmp853:
	.loc	3 4963 3 is_stmt 0              @ ../ThirdParty/FreeRTOS/Source/tasks.c:4963:3
	cbnz	r0, .LBB48_3
	b	.LBB48_1
.LBB48_1:
.Ltmp854:
	.loc	2 199 2 is_stmt 1               @ ../ThirdParty/FreeRTOS/Source/portable/GCC/ARM_CM4F\portmacro.h:199:2
	@APP
	mov.w	r0, #80
	msr	basepri, r0
	isb	sy
	dsb	sy

	@NO_APP
	str	r0, [sp, #24]
.Ltmp855:
	.loc	3 4963 3                        @ ../ThirdParty/FreeRTOS/Source/tasks.c:4963:3
	b	.LBB48_2
.LBB48_2:                               @ =>This Inner Loop Header: Depth=1
.Ltmp856:
	.loc	3 4963 3 is_stmt 0              @ ../ThirdParty/FreeRTOS/Source/tasks.c:4963:3
	b	.LBB48_2
.Ltmp857:
.LBB48_3:
	.loc	3 4981 3 is_stmt 1              @ ../ThirdParty/FreeRTOS/Source/tasks.c:4981:3
	bl	vPortValidateInterruptPriority
	.loc	3 4983 11                       @ ../ThirdParty/FreeRTOS/Source/tasks.c:4983:11
	ldr	r0, [sp, #16]
	.loc	3 4983 9 is_stmt 0              @ ../ThirdParty/FreeRTOS/Source/tasks.c:4983:9
	str	r0, [sp, #8]
.Ltmp858:
	.loc	2 215 2 is_stmt 1               @ ../ThirdParty/FreeRTOS/Source/portable/GCC/ARM_CM4F\portmacro.h:215:2
	@APP
	mrs	r1, basepri
	mov.w	r0, #80
	msr	basepri, r0
	isb	sy
	dsb	sy

	@NO_APP
	str	r1, [sp, #32]
	str	r0, [sp, #28]
	.loc	2 227 9                         @ ../ThirdParty/FreeRTOS/Source/portable/GCC/ARM_CM4F\portmacro.h:227:9
	ldr	r0, [sp, #32]
.Ltmp859:
	.loc	3 4985 26                       @ ../ThirdParty/FreeRTOS/Source/tasks.c:4985:26
	str	r0, [sp]
.Ltmp860:
	.loc	3 4987 28                       @ ../ThirdParty/FreeRTOS/Source/tasks.c:4987:28
	ldr	r0, [sp, #8]
	.loc	3 4987 35 is_stmt 0             @ ../ThirdParty/FreeRTOS/Source/tasks.c:4987:35
	ldrb.w	r0, [r0, #80]
	.loc	3 4987 26                       @ ../ThirdParty/FreeRTOS/Source/tasks.c:4987:26
	strb.w	r0, [sp, #7]
	.loc	3 4988 4 is_stmt 1              @ ../ThirdParty/FreeRTOS/Source/tasks.c:4988:4
	ldr	r1, [sp, #8]
	movs	r0, #2
	.loc	3 4988 25 is_stmt 0             @ ../ThirdParty/FreeRTOS/Source/tasks.c:4988:25
	strb.w	r0, [r1, #80]
	.loc	3 4992 6 is_stmt 1              @ ../ThirdParty/FreeRTOS/Source/tasks.c:4992:6
	ldr	r1, [sp, #8]
	.loc	3 4992 30 is_stmt 0             @ ../ThirdParty/FreeRTOS/Source/tasks.c:4992:30
	ldr	r0, [r1, #76]
	adds	r0, #1
	str	r0, [r1, #76]
.Ltmp861:
	.loc	3 4998 8 is_stmt 1              @ ../ThirdParty/FreeRTOS/Source/tasks.c:4998:8
	ldrb.w	r0, [sp, #7]
.Ltmp862:
	.loc	3 4998 8 is_stmt 0              @ ../ThirdParty/FreeRTOS/Source/tasks.c:4998:8
	cmp	r0, #1
	bne	.LBB48_16
	b	.LBB48_4
.LBB48_4:
.Ltmp863:
	.loc	3 5001 5 is_stmt 1              @ ../ThirdParty/FreeRTOS/Source/tasks.c:5001:5
	ldr	r0, [sp, #8]
	ldr	r0, [r0, #40]
.Ltmp864:
	.loc	3 5001 5 is_stmt 0              @ ../ThirdParty/FreeRTOS/Source/tasks.c:5001:5
	cbz	r0, .LBB48_7
	b	.LBB48_5
.LBB48_5:
.Ltmp865:
	.loc	2 199 2 is_stmt 1               @ ../ThirdParty/FreeRTOS/Source/portable/GCC/ARM_CM4F\portmacro.h:199:2
	@APP
	mov.w	r0, #80
	msr	basepri, r0
	isb	sy
	dsb	sy

	@NO_APP
	str	r0, [sp, #20]
.Ltmp866:
	.loc	3 5001 5                        @ ../ThirdParty/FreeRTOS/Source/tasks.c:5001:5
	b	.LBB48_6
.LBB48_6:                               @ =>This Inner Loop Header: Depth=1
.Ltmp867:
	.loc	3 5001 5 is_stmt 0              @ ../ThirdParty/FreeRTOS/Source/tasks.c:5001:5
	b	.LBB48_6
.Ltmp868:
.LBB48_7:
	.loc	3 5003 9 is_stmt 1              @ ../ThirdParty/FreeRTOS/Source/tasks.c:5003:9
	movw	r0, :lower16:uxSchedulerSuspended
	movt	r0, :upper16:uxSchedulerSuspended
	ldr	r0, [r0]
.Ltmp869:
	.loc	3 5003 9 is_stmt 0              @ ../ThirdParty/FreeRTOS/Source/tasks.c:5003:9
	cbnz	r0, .LBB48_9
	b	.LBB48_8
.LBB48_8:
.Ltmp870:
	.loc	3 5005 32 is_stmt 1             @ ../ThirdParty/FreeRTOS/Source/tasks.c:5005:32
	ldr	r0, [sp, #8]
	.loc	3 5005 39 is_stmt 0             @ ../ThirdParty/FreeRTOS/Source/tasks.c:5005:39
	adds	r0, #4
	.loc	3 5005 15                       @ ../ThirdParty/FreeRTOS/Source/tasks.c:5005:15
	bl	uxListRemove
	.loc	3 5006 6 is_stmt 1              @ ../ThirdParty/FreeRTOS/Source/tasks.c:5006:6
	ldr	r0, [sp, #8]
	ldr	r1, [r0, #44]
	movs	r0, #1
	lsl.w	r2, r0, r1
	movw	r1, :lower16:uxTopReadyPriority
	movt	r1, :upper16:uxTopReadyPriority
	ldr	r0, [r1]
	orrs	r0, r2
	str	r0, [r1]
	ldr	r1, [sp, #8]
	ldr	r0, [r1, #44]
	add.w	r2, r0, r0, lsl #2
	movw	r0, :lower16:pxReadyTasksLists
	movt	r0, :upper16:pxReadyTasksLists
	add.w	r0, r0, r2, lsl #2
	adds	r1, #4
	bl	vListInsertEnd
	.loc	3 5007 5                        @ ../ThirdParty/FreeRTOS/Source/tasks.c:5007:5
	b	.LBB48_10
.Ltmp871:
.LBB48_9:
	.loc	3 5012 49                       @ ../ThirdParty/FreeRTOS/Source/tasks.c:5012:49
	ldr	r0, [sp, #8]
	.loc	3 5012 56 is_stmt 0             @ ../ThirdParty/FreeRTOS/Source/tasks.c:5012:56
	add.w	r1, r0, #24
	.loc	3 5012 6                        @ ../ThirdParty/FreeRTOS/Source/tasks.c:5012:6
	movw	r0, :lower16:xPendingReadyList
	movt	r0, :upper16:xPendingReadyList
	bl	vListInsertEnd
	b	.LBB48_10
.Ltmp872:
.LBB48_10:
	.loc	3 5015 9 is_stmt 1              @ ../ThirdParty/FreeRTOS/Source/tasks.c:5015:9
	ldr	r0, [sp, #8]
	.loc	3 5015 16 is_stmt 0             @ ../ThirdParty/FreeRTOS/Source/tasks.c:5015:16
	ldr	r0, [r0, #44]
	.loc	3 5015 29                       @ ../ThirdParty/FreeRTOS/Source/tasks.c:5015:29
	movw	r1, :lower16:pxCurrentTCB
	movt	r1, :upper16:pxCurrentTCB
	ldr	r1, [r1]
	.loc	3 5015 43                       @ ../ThirdParty/FreeRTOS/Source/tasks.c:5015:43
	ldr	r1, [r1, #44]
.Ltmp873:
	.loc	3 5015 9                        @ ../ThirdParty/FreeRTOS/Source/tasks.c:5015:9
	cmp	r0, r1
	bls	.LBB48_14
	b	.LBB48_11
.LBB48_11:
.Ltmp874:
	.loc	3 5019 10 is_stmt 1             @ ../ThirdParty/FreeRTOS/Source/tasks.c:5019:10
	ldr	r0, [sp, #12]
.Ltmp875:
	.loc	3 5019 10 is_stmt 0             @ ../ThirdParty/FreeRTOS/Source/tasks.c:5019:10
	cbz	r0, .LBB48_13
	b	.LBB48_12
.LBB48_12:
.Ltmp876:
	.loc	3 5021 8 is_stmt 1              @ ../ThirdParty/FreeRTOS/Source/tasks.c:5021:8
	ldr	r1, [sp, #12]
	movs	r0, #1
	.loc	3 5021 34 is_stmt 0             @ ../ThirdParty/FreeRTOS/Source/tasks.c:5021:34
	str	r0, [r1]
	.loc	3 5022 6 is_stmt 1              @ ../ThirdParty/FreeRTOS/Source/tasks.c:5022:6
	b	.LBB48_13
.Ltmp877:
.LBB48_13:
	.loc	3 5027 20                       @ ../ThirdParty/FreeRTOS/Source/tasks.c:5027:20
	movw	r1, :lower16:xYieldPending
	movt	r1, :upper16:xYieldPending
	movs	r0, #1
	str	r0, [r1]
	.loc	3 5028 5                        @ ../ThirdParty/FreeRTOS/Source/tasks.c:5028:5
	b	.LBB48_15
.Ltmp878:
.LBB48_14:
	.loc	3 0 5 is_stmt 0                 @ ../ThirdParty/FreeRTOS/Source/tasks.c:0:5
	b	.LBB48_15
.LBB48_15:
	.loc	3 5033 4 is_stmt 1              @ ../ThirdParty/FreeRTOS/Source/tasks.c:5033:4
	b	.LBB48_16
.Ltmp879:
.LBB48_16:
	.loc	3 5035 3                        @ ../ThirdParty/FreeRTOS/Source/tasks.c:5035:3
	ldr	r0, [sp]
	str	r0, [sp, #36]
.Ltmp880:
	.loc	2 235 32                        @ ../ThirdParty/FreeRTOS/Source/portable/GCC/ARM_CM4F\portmacro.h:235:32
	ldr	r0, [sp, #36]
	.loc	2 233 2                         @ ../ThirdParty/FreeRTOS/Source/portable/GCC/ARM_CM4F\portmacro.h:233:2
	@APP
	msr	basepri, r0
	@NO_APP
.Ltmp881:
	.loc	3 5036 2 epilogue_begin         @ ../ThirdParty/FreeRTOS/Source/tasks.c:5036:2
	add	sp, #40
	pop	{r7, pc}
.Ltmp882:
.Lfunc_end48:
	.size	vTaskNotifyGiveFromISR, .Lfunc_end48-vTaskNotifyGiveFromISR
	.cfi_endproc
	.cantunwind
	.fnend
                                        @ -- End function
	.section	.text.xTaskNotifyStateClear,"ax",%progbits
	.hidden	xTaskNotifyStateClear           @ -- Begin function xTaskNotifyStateClear
	.globl	xTaskNotifyStateClear
	.p2align	2
	.type	xTaskNotifyStateClear,%function
	.code	16                              @ @xTaskNotifyStateClear
	.thumb_func
xTaskNotifyStateClear:
.Lfunc_begin49:
	.loc	3 5045 0                        @ ../ThirdParty/FreeRTOS/Source/tasks.c:5045:0
	.fnstart
	.cfi_startproc
@ %bb.0:
	.save	{r7, lr}
	push	{r7, lr}
	.cfi_def_cfa_offset 8
	.cfi_offset lr, -4
	.cfi_offset r7, -8
	.pad	#16
	sub	sp, #16
	.cfi_def_cfa_offset 24
	str	r0, [sp, #12]
.Ltmp883:
	.loc	3 5051 11 prologue_end          @ ../ThirdParty/FreeRTOS/Source/tasks.c:5051:11
	ldr	r0, [sp, #12]
	cbnz	r0, .LBB49_2
	b	.LBB49_1
.LBB49_1:
	movw	r0, :lower16:pxCurrentTCB
	movt	r0, :upper16:pxCurrentTCB
	ldr	r0, [r0]
	str	r0, [sp]                        @ 4-byte Spill
	b	.LBB49_3
.LBB49_2:
	ldr	r0, [sp, #12]
	str	r0, [sp]                        @ 4-byte Spill
	b	.LBB49_3
.LBB49_3:
	ldr	r0, [sp]                        @ 4-byte Reload
	.loc	3 5051 9 is_stmt 0              @ ../ThirdParty/FreeRTOS/Source/tasks.c:5051:9
	str	r0, [sp, #8]
	.loc	3 5053 3 is_stmt 1              @ ../ThirdParty/FreeRTOS/Source/tasks.c:5053:3
	bl	vPortEnterCritical
.Ltmp884:
	.loc	3 5055 8                        @ ../ThirdParty/FreeRTOS/Source/tasks.c:5055:8
	ldr	r0, [sp, #8]
	.loc	3 5055 15 is_stmt 0             @ ../ThirdParty/FreeRTOS/Source/tasks.c:5055:15
	ldrb.w	r0, [r0, #80]
.Ltmp885:
	.loc	3 5055 8                        @ ../ThirdParty/FreeRTOS/Source/tasks.c:5055:8
	cmp	r0, #2
	bne	.LBB49_5
	b	.LBB49_4
.LBB49_4:
.Ltmp886:
	.loc	3 5057 5 is_stmt 1              @ ../ThirdParty/FreeRTOS/Source/tasks.c:5057:5
	ldr	r1, [sp, #8]
	movs	r0, #0
	.loc	3 5057 26 is_stmt 0             @ ../ThirdParty/FreeRTOS/Source/tasks.c:5057:26
	strb.w	r0, [r1, #80]
	movs	r0, #1
	.loc	3 5058 13 is_stmt 1             @ ../ThirdParty/FreeRTOS/Source/tasks.c:5058:13
	str	r0, [sp, #4]
