	.text
	.syntax unified
	.eabi_attribute	67, "2.09"	@ Tag_conformance
	.cpu	cortex-m4
	.eabi_attribute	6, 13	@ Tag_CPU_arch
	.eabi_attribute	7, 77	@ Tag_CPU_arch_profile
	.eabi_attribute	8, 0	@ Tag_ARM_ISA_use
	.eabi_attribute	9, 2	@ Tag_THUMB_ISA_use
	.fpu	fpv4-sp-d16
	.eabi_attribute	27, 1	@ Tag_ABI_HardFP_use
	.eabi_attribute	36, 1	@ Tag_FP_HP_extension
	.eabi_attribute	34, 1	@ Tag_CPU_unaligned_access
	.eabi_attribute	17, 1	@ Tag_ABI_PCS_GOT_use
	.eabi_attribute	20, 2	@ Tag_ABI_FP_denormal
	.eabi_attribute	21, 0	@ Tag_ABI_FP_exceptions
	.eabi_attribute	23, 1	@ Tag_ABI_FP_number_model
	.eabi_attribute	24, 1	@ Tag_ABI_align_needed
	.eabi_attribute	25, 1	@ Tag_ABI_align_preserved
	.eabi_attribute	28, 1	@ Tag_ABI_VFP_args
	.eabi_attribute	38, 1	@ Tag_ABI_FP_16bit_format
	.eabi_attribute	18, 2	@ Tag_ABI_PCS_wchar_t
	.eabi_attribute	26, 1	@ Tag_ABI_enum_size
	.eabi_attribute	14, 0	@ Tag_ABI_PCS_R9_use
	.file	"usb_device.c"
	.file	1 "D:\\Embed\\MDK\\MDK\\ARM\\ARMCompilerV621\\Bin\\..\\include" "stdint.h"
	.file	2 "D:\\ikingtec\\Robot\\ODrive\\Firmware\\MDK-ARM" "../ThirdParty/STM32_USB_Device_Library/Core/Inc\\usbd_def.h"
	.file	3 "D:\\ikingtec\\Robot\\ODrive\\Firmware\\MDK-ARM" "../Board/v3/Src/usb_device.c"
	.section	.text.MX_USB_DEVICE_Init,"ax",%progbits
	.hidden	MX_USB_DEVICE_Init              @ -- Begin function MX_USB_DEVICE_Init
	.globl	MX_USB_DEVICE_Init
	.p2align	2
	.type	MX_USB_DEVICE_Init,%function
	.code	16                              @ @MX_USB_DEVICE_Init
	.thumb_func
MX_USB_DEVICE_Init:
.Lfunc_begin0:
	.loc	3 94 0                          @ ../Board/v3/Src/usb_device.c:94:0
	.fnstart
	.cfi_sections .debug_frame
	.cfi_startproc
@ %bb.0:
	.save	{r7, lr}
	push	{r7, lr}
	.cfi_def_cfa_offset 8
	.cfi_offset lr, -4
	.cfi_offset r7, -8
	.pad	#8
	sub	sp, #8
	.cfi_def_cfa_offset 16
.Ltmp0:
	.loc	3 100 3 prologue_end            @ ../Board/v3/Src/usb_device.c:100:3
	movw	r0, :lower16:hUsbDeviceFS
	movt	r0, :upper16:hUsbDeviceFS
	str	r0, [sp, #4]                    @ 4-byte Spill
	movw	r1, :lower16:FS_Desc
	movt	r1, :upper16:FS_Desc
	movs	r2, #0
	bl	USBD_Init
                                        @ kill: def $r1 killed $r0
	.loc	3 102 3                         @ ../Board/v3/Src/usb_device.c:102:3
	ldr	r0, [sp, #4]                    @ 4-byte Reload
	movw	r1, :lower16:USBD_CDC
	movt	r1, :upper16:USBD_CDC
	bl	USBD_RegisterClass
                                        @ kill: def $r1 killed $r0
	.loc	3 104 3                         @ ../Board/v3/Src/usb_device.c:104:3
	ldr	r0, [sp, #4]                    @ 4-byte Reload
	movw	r1, :lower16:USBD_Interface_fops_FS
	movt	r1, :upper16:USBD_Interface_fops_FS
	bl	USBD_CDC_RegisterInterface
                                        @ kill: def $r1 killed $r0
	.loc	3 106 3                         @ ../Board/v3/Src/usb_device.c:106:3
	ldr	r0, [sp, #4]                    @ 4-byte Reload
	bl	USBD_Start
	.loc	3 111 1 epilogue_begin          @ ../Board/v3/Src/usb_device.c:111:1
	add	sp, #8
	pop	{r7, pc}
.Ltmp1:
.Lfunc_end0:
	.size	MX_USB_DEVICE_Init, .Lfunc_end0-MX_USB_DEVICE_Init
	.cfi_endproc
	.cantunwind
	.fnend
                                        @ -- End function
	.hidden	hUsbDeviceFS                    @ @hUsbDeviceFS
	.type	hUsbDeviceFS,%object
	.section	.bss.hUsbDeviceFS,"aw",%nobits
	.globl	hUsbDeviceFS
	.p2align	2, 0x0
hUsbDeviceFS:
	.zero	720
	.size	hUsbDeviceFS, 720

	.section	".note.GNU-stack","",%progbits
	.eabi_attribute	30, 6	@ Tag_ABI_optimization_goals
	.ARM_attribute	16, 1	@ Tag_AV_eba