	.text
	.syntax unified
	.eabi_attribute	67, "2.09"	@ Tag_conformance
	.cpu	cortex-m4
	.eabi_attribute	6, 13	@ Tag_CPU_arch
	.eabi_attribute	7, 77	@ Tag_CPU_arch_profile
	.eabi_attribute	8, 0	@ Tag_ARM_ISA_use
	.eabi_attribute	9, 2	@ Tag_THUMB_ISA_use
	.fpu	fpv4-sp-d16
	.eabi_attribute	27, 1	@ Tag_ABI_HardFP_use
	.eabi_attribute	36, 1	@ Tag_FP_HP_extension
	.eabi_attribute	34, 1	@ Tag_CPU_unaligned_access
	.eabi_attribute	17, 1	@ Tag_ABI_PCS_GOT_use
	.eabi_attribute	20, 2	@ Tag_ABI_FP_denormal
	.eabi_attribute	21, 0	@ Tag_ABI_FP_exceptions
	.eabi_attribute	23, 1	@ Tag_ABI_FP_number_model
	.eabi_attribute	24, 1	@ Tag_ABI_align_needed
	.eabi_attribute	25, 1	@ Tag_ABI_align_preserved
	.eabi_attribute	28, 1	@ Tag_ABI_VFP_args
	.eabi_attribute	38, 1	@ Tag_ABI_FP_16bit_format
	.eabi_attribute	18, 2	@ Tag_ABI_PCS_wchar_t
	.eabi_attribute	26, 1	@ Tag_ABI_enum_size
	.eabi_attribute	14, 0	@ Tag_ABI_PCS_R9_use
	.file	"usbd_conf.c"
	.file	1 "D:\\ikingtec\\Robot\\ODrive\\Firmware\\MDK-ARM" "../Board/v3/Src/usbd_conf.c"
	.file	2 "D:\\Embed\\MDK\\MDK\\ARM\\ARMCompilerV621\\Bin\\..\\include" "stdint.h"
	.file	3 "D:\\ikingtec\\Robot\\ODrive\\Firmware\\MDK-ARM" "../ThirdParty/CMSIS/Device/ST/STM32F4xx/Include/stm32f405xx.h"
	.file	4 "D:\\ikingtec\\Robot\\ODrive\\Firmware\\MDK-ARM" "../ThirdParty/STM32F4xx_HAL_Driver/Inc\\stm32f4xx_hal_pcd.h"
	.file	5 "D:\\ikingtec\\Robot\\ODrive\\Firmware\\MDK-ARM" "../ThirdParty/STM32F4xx_HAL_Driver/Inc/stm32f4xx_ll_usb.h"
	.file	6 "D:\\ikingtec\\Robot\\ODrive\\Firmware\\MDK-ARM" "../ThirdParty/STM32F4xx_HAL_Driver/Inc/stm32f4xx_hal_def.h"
	.file	7 "D:\\ikingtec\\Robot\\ODrive\\Firmware\\MDK-ARM" "../ThirdParty/STM32_USB_Device_Library/Core/Inc\\usbd_def.h"
	.file	8 "D:\\ikingtec\\Robot\\ODrive\\Firmware\\MDK-ARM" "../ThirdParty/CMSIS/Device/ST/STM32F4xx/Include\\stm32f4xx.h"
	.file	9 "D:\\ikingtec\\Robot\\ODrive\\Firmware\\MDK-ARM" "../ThirdParty/CMSIS/Include\\core_cm4.h"
	.section	.text.HAL_PCD_MspInit,"ax",%progbits
	.hidden	HAL_PCD_MspInit                 @ -- Begin function HAL_PCD_MspInit
	.globl	HAL_PCD_MspInit
	.p2align	2
	.type	HAL_PCD_MspInit,%function
	.code	16                              @ @HAL_PCD_MspInit
	.thumb_func
HAL_PCD_MspInit:
.Lfunc_begin0:
	.loc	1 94 0                          @ ../Board/v3/Src/usbd_conf.c:94:0
	.fnstart
	.cfi_sections .debug_frame
	.cfi_startproc
@ %bb.0:
	.save	{r7, lr}
	push	{r7, lr}
	.cfi_def_cfa_offset 8
	.cfi_offset lr, -4
	.cfi_offset r7, -8
	.pad	#32
	sub	sp, #32
	.cfi_def_cfa_offset 40
	str	r0, [sp, #28]
.Ltmp0:
	.loc	1 96 6 prologue_end             @ ../Board/v3/Src/usbd_conf.c:96:6
	ldr	r0, [sp, #28]
	.loc	1 96 17 is_stmt 0               @ ../Board/v3/Src/usbd_conf.c:96:17
	ldr	r0, [r0]
.Ltmp1:
	.loc	1 96 6                          @ ../Board/v3/Src/usbd_conf.c:96:6
	cmp.w	r0, #1342177280
	bne	.LBB0_6
	b	.LBB0_1
.LBB0_1:
	.loc	1 0 6                           @ ../Board/v3/Src/usbd_conf.c:0:6
	mov.w	r0, #6144
.Ltmp2:
	.loc	1 106 25 is_stmt 1              @ ../Board/v3/Src/usbd_conf.c:106:25
	str	r0, [sp, #8]
	movs	r0, #2
	.loc	1 107 26                        @ ../Board/v3/Src/usbd_conf.c:107:26
	str	r0, [sp, #12]
	movs	r0, #0
	.loc	1 108 26                        @ ../Board/v3/Src/usbd_conf.c:108:26
	str	r0, [sp, #16]
	movs	r0, #3
	.loc	1 109 27                        @ ../Board/v3/Src/usbd_conf.c:109:27
	str	r0, [sp, #20]
	movs	r0, #10
	.loc	1 110 31                        @ ../Board/v3/Src/usbd_conf.c:110:31
	str	r0, [sp, #24]
	movs	r0, #0
	movt	r0, #16386
	add	r1, sp, #8
	.loc	1 111 5                         @ ../Board/v3/Src/usbd_conf.c:111:5
	bl	HAL_GPIO_Init
	.loc	1 114 5                         @ ../Board/v3/Src/usbd_conf.c:114:5
	b	.LBB0_2
.LBB0_2:
	.loc	1 0 5 is_stmt 0                 @ ../Board/v3/Src/usbd_conf.c:0:5
	movw	r1, #14388
	movt	r1, #16386
.Ltmp3:
	.loc	1 114 5                         @ ../Board/v3/Src/usbd_conf.c:114:5
	ldr	r0, [r1]
	orr	r0, r0, #128
	str	r0, [r1]
	b	.LBB0_3
.LBB0_3:
	.loc	1 0 5                           @ ../Board/v3/Src/usbd_conf.c:0:5
	movs	r0, #0
.Ltmp4:
	.loc	1 114 5                         @ ../Board/v3/Src/usbd_conf.c:114:5
	str	r0, [sp, #4]
	movw	r0, #14404
	movt	r0, #16386
	ldr	r1, [r0]
	orr	r1, r1, #16384
	str	r1, [r0]
	ldr	r0, [r0]
	and	r0, r0, #16384
	str	r0, [sp, #4]
	ldr	r0, [sp, #4]
	b	.LBB0_4
.Ltmp5:
.LBB0_4:
	.loc	1 114 5                         @ ../Board/v3/Src/usbd_conf.c:114:5
	b	.LBB0_5
.Ltmp6:
.LBB0_5:
	.loc	1 0 5                           @ ../Board/v3/Src/usbd_conf.c:0:5
	movs	r0, #67
	str	r0, [sp]                        @ 4-byte Spill
	movs	r1, #6
	movs	r2, #0
	.loc	1 117 5 is_stmt 1               @ ../Board/v3/Src/usbd_conf.c:117:5
	bl	HAL_NVIC_SetPriority
	ldr	r0, [sp]                        @ 4-byte Reload
	.loc	1 118 5                         @ ../Board/v3/Src/usbd_conf.c:118:5
	bl	HAL_NVIC_EnableIRQ
	.loc	1 122 3                         @ ../Board/v3/Src/usbd_conf.c:122:3
	b	.LBB0_6
.Ltmp7:
.LBB0_6:
	.loc	1 123 1 epilogue_begin          @ ../Board/v3/Src/usbd_conf.c:123:1
	add	sp, #32
	pop	{r7, pc}
.Ltmp8:
.Lfunc_end0:
	.size	HAL_PCD_MspInit, .Lfunc_end0-HAL_PCD_MspInit
	.cfi_endproc
	.cantunwind
	.fnend
                                        @ -- End function
	.section	.text.HAL_PCD_MspDeInit,"ax",%progbits
	.hidden	HAL_PCD_MspDeInit               @ -- Begin function HAL_PCD_MspDeInit
	.globl	HAL_PCD_MspDeInit
	.p2align	2
	.type	HAL_PCD_MspDeInit,%function
	.code	16                              @ @HAL_PCD_MspDeInit
	.thumb_func
HAL_PCD_MspDeInit:
.Lfunc_begin1:
	.loc	1 126 0                         @ ../Board/v3/Src/usbd_conf.c:126:0
	.fnstart
	.cfi_startproc
@ %bb.0:
	.save	{r7, lr}
	push	{r7, lr}
	.cfi_def_cfa_offset 8
	.cfi_offset lr, -4
	.cfi_offset r7, -8
	.pad	#8
	sub	sp, #8
	.cfi_def_cfa_offset 16
	str	r0, [sp, #4]
.Ltmp9:
	.loc	1 127 6 prologue_end            @ ../Board/v3/Src/usbd_conf.c:127:6
	ldr	r0, [sp, #4]
	.loc	1 127 17 is_stmt 0              @ ../Board/v3/Src/usbd_conf.c:127:17
	ldr	r0, [r0]
.Ltmp10:
	.loc	1 127 6                         @ ../Board/v3/Src/usbd_conf.c:127:6
	cmp.w	r0, #1342177280
	bne	.LBB1_2
	b	.LBB1_1
.LBB1_1:
	.loc	1 0 6                           @ ../Board/v3/Src/usbd_conf.c:0:6
	movw	r1, #14388
	movt	r1, #16386
.Ltmp11:
	.loc	1 133 5 is_stmt 1               @ ../Board/v3/Src/usbd_conf.c:133:5
	ldr	r0, [r1]
	bic	r0, r0, #128
	str	r0, [r1]
	movs	r0, #0
	movt	r0, #16386
	mov.w	r1, #6144
	.loc	1 139 5                         @ ../Board/v3/Src/usbd_conf.c:139:5
	bl	HAL_GPIO_DeInit
	movs	r0, #67
	.loc	1 142 5                         @ ../Board/v3/Src/usbd_conf.c:142:5
	bl	HAL_NVIC_DisableIRQ
	.loc	1 147 3                         @ ../Board/v3/Src/usbd_conf.c:147:3
	b	.LBB1_2
.Ltmp12:
.LBB1_2:
	.loc	1 148 1 epilogue_begin          @ ../Board/v3/Src/usbd_conf.c:148:1
	add	sp, #8
	pop	{r7, pc}
.Ltmp13:
.Lfunc_end1:
	.size	HAL_PCD_MspDeInit, .Lfunc_end1-HAL_PCD_MspDeInit
	.cfi_endproc
	.cantunwind
	.fnend
                                        @ -- End function
	.section	.text.HAL_PCD_SetupStageCallback,"ax",%progbits
	.hidden	HAL_PCD_SetupStageCallback      @ -- Begin function HAL_PCD_SetupStageCallback
	.globl	HAL_PCD_SetupStageCallback
	.p2align	2
	.type	HAL_PCD_SetupStageCallback,%function
	.code	16                              @ @HAL_PCD_SetupStageCallback
	.thumb_func
HAL_PCD_SetupStageCallback:
.Lfunc_begin2:
	.loc	1 156 0                         @ ../Board/v3/Src/usbd_conf.c:156:0
	.fnstart
	.cfi_startproc
@ %bb.0:
	.save	{r7, lr}
	push	{r7, lr}
	.cfi_def_cfa_offset 8
	.cfi_offset lr, -4
	.cfi_offset r7, -8
	.pad	#16
	sub	sp, #16
	.cfi_def_cfa_offset 24
	str	r0, [sp, #12]
	movs	r0, #0
.Ltmp14:
	.loc	1 157 22 prologue_end           @ ../Board/v3/Src/usbd_conf.c:157:22
	strb.w	r0, [sp, #11]
	.loc	1 158 30                        @ ../Board/v3/Src/usbd_conf.c:158:30
	ldr	r0, [sp, #12]
	.loc	1 158 36 is_stmt 0              @ ../Board/v3/Src/usbd_conf.c:158:36
	ldr.w	r0, [r0, #1004]
	.loc	1 158 23                        @ ../Board/v3/Src/usbd_conf.c:158:23
	str	r0, [sp, #4]
	.loc	1 159 35 is_stmt 1              @ ../Board/v3/Src/usbd_conf.c:159:35
	ldr	r0, [sp, #4]
	.loc	1 159 41 is_stmt 0              @ ../Board/v3/Src/usbd_conf.c:159:41
	addw	r0, r0, #682
	.loc	1 159 28                        @ ../Board/v3/Src/usbd_conf.c:159:28
	str	r0, [sp]
	.loc	1 160 26 is_stmt 1              @ ../Board/v3/Src/usbd_conf.c:160:26
	ldr	r0, [sp]
	.loc	1 160 42 is_stmt 0              @ ../Board/v3/Src/usbd_conf.c:160:42
	ldr	r1, [sp, #12]
	.loc	1 160 48                        @ ../Board/v3/Src/usbd_conf.c:160:48
	add.w	r1, r1, #956
	.loc	1 160 3                         @ ../Board/v3/Src/usbd_conf.c:160:3
	bl	USBD_ParseSetupRequest
.Ltmp15:
	.loc	1 161 34 is_stmt 1              @ ../Board/v3/Src/usbd_conf.c:161:34
	ldr	r0, [sp]
	ldrb	r0, [r0]
	.loc	1 161 49 is_stmt 0              @ ../Board/v3/Src/usbd_conf.c:161:49
	and	r0, r0, #96
	.loc	1 161 72                        @ ../Board/v3/Src/usbd_conf.c:161:72
	cmp	r0, #64
	bne	.LBB2_6
	b	.LBB2_1
.LBB2_1:
	.loc	1 161 94                        @ ../Board/v3/Src/usbd_conf.c:161:94
	ldr	r0, [sp]
	.loc	1 161 99                        @ ../Board/v3/Src/usbd_conf.c:161:99
	ldrb	r0, [r0, #1]
.Ltmp16:
	.loc	1 161 8                         @ ../Board/v3/Src/usbd_conf.c:161:8
	cmp	r0, #80
	bne	.LBB2_6
	b	.LBB2_2
.LBB2_2:
.Ltmp17:
	.loc	1 163 5 is_stmt 1               @ ../Board/v3/Src/usbd_conf.c:163:5
	ldr	r1, [sp, #4]
	movs	r0, #1
	.loc	1 163 21 is_stmt 0              @ ../Board/v3/Src/usbd_conf.c:163:21
	str.w	r0, [r1, #660]
	.loc	1 164 26 is_stmt 1              @ ../Board/v3/Src/usbd_conf.c:164:26
	ldr	r1, [sp, #4]
	.loc	1 164 40 is_stmt 0              @ ../Board/v3/Src/usbd_conf.c:164:40
	ldrh.w	r0, [r1, #688]
	.loc	1 164 24                        @ ../Board/v3/Src/usbd_conf.c:164:24
	str.w	r0, [r1, #664]
	.loc	1 166 11 is_stmt 1              @ ../Board/v3/Src/usbd_conf.c:166:11
	ldr	r0, [sp, #4]
	.loc	1 166 17 is_stmt 0              @ ../Board/v3/Src/usbd_conf.c:166:17
	ldr.w	r1, [r0, #696]
	.loc	1 166 25                        @ ../Board/v3/Src/usbd_conf.c:166:25
	ldr	r2, [r1, #8]
	.loc	1 166 37                        @ ../Board/v3/Src/usbd_conf.c:166:37
	ldr	r1, [sp]
	.loc	1 166 11                        @ ../Board/v3/Src/usbd_conf.c:166:11
	blx	r2
	.loc	1 166 9                         @ ../Board/v3/Src/usbd_conf.c:166:9
	strb.w	r0, [sp, #11]
.Ltmp18:
	.loc	1 168 10 is_stmt 1              @ ../Board/v3/Src/usbd_conf.c:168:10
	ldr	r0, [sp]
	.loc	1 168 15 is_stmt 0              @ ../Board/v3/Src/usbd_conf.c:168:15
	ldrh	r0, [r0, #6]
	.loc	1 168 29                        @ ../Board/v3/Src/usbd_conf.c:168:29
	cbnz	r0, .LBB2_5
	b	.LBB2_3
.LBB2_3:
	.loc	1 168 33                        @ ../Board/v3/Src/usbd_conf.c:168:33
	ldrb.w	r0, [sp, #11]
.Ltmp19:
	.loc	1 168 9                         @ ../Board/v3/Src/usbd_conf.c:168:9
	cbnz	r0, .LBB2_5
	b	.LBB2_4
.LBB2_4:
.Ltmp20:
	.loc	1 170 27 is_stmt 1              @ ../Board/v3/Src/usbd_conf.c:170:27
	ldr	r0, [sp, #4]
	.loc	1 170 8 is_stmt 0               @ ../Board/v3/Src/usbd_conf.c:170:8
	bl	USBD_CtlSendStatus
	.loc	1 171 5 is_stmt 1               @ ../Board/v3/Src/usbd_conf.c:171:5
	b	.LBB2_5
.Ltmp21:
.LBB2_5:
	.loc	1 172 5                         @ ../Board/v3/Src/usbd_conf.c:172:5
	b	.LBB2_7
.Ltmp22:
.LBB2_6:
	.loc	1 174 43                        @ ../Board/v3/Src/usbd_conf.c:174:43
	ldr	r1, [sp, #12]
	.loc	1 174 49 is_stmt 0              @ ../Board/v3/Src/usbd_conf.c:174:49
	ldr.w	r0, [r1, #1004]
	.loc	1 174 73                        @ ../Board/v3/Src/usbd_conf.c:174:73
	add.w	r1, r1, #956
	.loc	1 174 3                         @ ../Board/v3/Src/usbd_conf.c:174:3
	bl	USBD_LL_SetupStage
	.loc	1 175 1 is_stmt 1               @ ../Board/v3/Src/usbd_conf.c:175:1
	b	.LBB2_7
.LBB2_7:
	.loc	1 175 1 epilogue_begin is_stmt 0 @ ../Board/v3/Src/usbd_conf.c:175:1
	add	sp, #16
	pop	{r7, pc}
.Ltmp23:
.Lfunc_end2:
	.size	HAL_PCD_SetupStageCallback, .Lfunc_end2-HAL_PCD_SetupStageCallback
	.cfi_endproc
	.cantunwind
	.fnend
                                        @ -- End function
	.section	.text.HAL_PCD_DataOutStageCallback,"ax",%progbits
	.hidden	HAL_PCD_DataOutStageCallback    @ -- Begin function HAL_PCD_DataOutStageCallback
	.globl	HAL_PCD_DataOutStageCallback
	.p2align	2
	.type	HAL_PCD_DataOutStageCallback,%function
	.code	16                              @ @HAL_PCD_DataOutStageCallback
	.thumb_func
HAL_PCD_DataOutStageCallback:
.Lfunc_begin3:
	.loc	1 184 0 is_stmt 1               @ ../Board/v3/Src/usbd_conf.c:184:0
	.fnstart
	.cfi_startproc
@ %bb.0:
	.save	{r7, lr}
	push	{r7, lr}
	.cfi_def_cfa_offset 8
	.cfi_offset lr, -4
	.cfi_offset r7, -8
	.pad	#8
	sub	sp, #8
	.cfi_def_cfa_offset 16
                                        @ kill: def $r2 killed $r1
	str	r0, [sp, #4]
	strb.w	r1, [sp, #3]
.Ltmp24:
	.loc	1 185 45 prologue_end           @ ../Board/v3/Src/usbd_conf.c:185:45
	ldr	r2, [sp, #4]
	.loc	1 185 51 is_stmt 0              @ ../Board/v3/Src/usbd_conf.c:185:51
	ldr.w	r0, [r2, #1004]
	.loc	1 185 58                        @ ../Board/v3/Src/usbd_conf.c:185:58
	ldrb.w	r1, [sp, #3]
	.loc	1 185 65                        @ ../Board/v3/Src/usbd_conf.c:185:65
	rsb	r3, r1, r1, lsl #3
	.loc	1 185 71                        @ ../Board/v3/Src/usbd_conf.c:185:71
	add.w	r2, r2, r3, lsl #2
	.loc	1 185 85                        @ ../Board/v3/Src/usbd_conf.c:185:85
	ldr.w	r2, [r2, #516]
	.loc	1 185 3                         @ ../Board/v3/Src/usbd_conf.c:185:3
	bl	USBD_LL_DataOutStage
	.loc	1 186 1 epilogue_begin is_stmt 1 @ ../Board/v3/Src/usbd_conf.c:186:1
	add	sp, #8
	pop	{r7, pc}
.Ltmp25:
.Lfunc_end3:
	.size	HAL_PCD_DataOutStageCallback, .Lfunc_end3-HAL_PCD_DataOutStageCallback
	.cfi_endproc
	.cantunwind
	.fnend
                                        @ -- End function
	.section	.text.HAL_PCD_DataInStageCallback,"ax",%progbits
	.hidden	HAL_PCD_DataInStageCallback     @ -- Begin function HAL_PCD_DataInStageCallback
	.globl	HAL_PCD_DataInStageCallback
	.p2align	2
	.type	HAL_PCD_DataInStageCallback,%function
	.code	16                              @ @HAL_PCD_DataInStageCallback
	.thumb_func
HAL_PCD_DataInStageCallback:
.Lfunc_begin4:
	.loc	1 195 0                         @ ../Board/v3/Src/usbd_conf.c:195:0
	.fnstart
	.cfi_startproc
@ %bb.0:
	.save	{r7, lr}
	push	{r7, lr}
	.cfi_def_cfa_offset 8
	.cfi_offset lr, -4
	.cfi_offset r7, -8
	.pad	#8
	sub	sp, #8
	.cfi_def_cfa_offset 16
                                        @ kill: def $r2 killed $r1
	str	r0, [sp, #4]
	strb.w	r1, [sp, #3]
.Ltmp26:
	.loc	1 196 44 prologue_end           @ ../Board/v3/Src/usbd_conf.c:196:44
	ldr	r2, [sp, #4]
	.loc	1 196 50 is_stmt 0              @ ../Board/v3/Src/usbd_conf.c:196:50
	ldr.w	r0, [r2, #1004]
	.loc	1 196 57                        @ ../Board/v3/Src/usbd_conf.c:196:57
	ldrb.w	r1, [sp, #3]
	.loc	1 196 64                        @ ../Board/v3/Src/usbd_conf.c:196:64
	rsb	r3, r1, r1, lsl #3
	.loc	1 196 70                        @ ../Board/v3/Src/usbd_conf.c:196:70
	add.w	r2, r2, r3, lsl #2
	.loc	1 196 83                        @ ../Board/v3/Src/usbd_conf.c:196:83
	ldr	r2, [r2, #68]
	.loc	1 196 3                         @ ../Board/v3/Src/usbd_conf.c:196:3
	bl	USBD_LL_DataInStage
	.loc	1 197 1 epilogue_begin is_stmt 1 @ ../Board/v3/Src/usbd_conf.c:197:1
	add	sp, #8
	pop	{r7, pc}
.Ltmp27:
.Lfunc_end4:
	.size	HAL_PCD_DataInStageCallback, .Lfunc_end4-HAL_PCD_DataInStageCallback
	.cfi_endproc
	.cantunwind
	.fnend
                                        @ -- End function
	.section	.text.HAL_PCD_SOFCallback,"ax",%progbits
	.hidden	HAL_PCD_SOFCallback             @ -- Begin function HAL_PCD_SOFCallback
	.globl	HAL_PCD_SOFCallback
	.p2align	2
	.type	HAL_PCD_SOFCallback,%function
	.code	16                              @ @HAL_PCD_SOFCallback
	.thumb_func
HAL_PCD_SOFCallback:
.Lfunc_begin5:
	.loc	1 205 0                         @ ../Board/v3/Src/usbd_conf.c:205:0
	.fnstart
	.cfi_startproc
@ %bb.0:
	.save	{r7, lr}
	push	{r7, lr}
	.cfi_def_cfa_offset 8
	.cfi_offset lr, -4
	.cfi_offset r7, -8
	.pad	#8
	sub	sp, #8
	.cfi_def_cfa_offset 16
	str	r0, [sp, #4]
.Ltmp28:
	.loc	1 206 36 prologue_end           @ ../Board/v3/Src/usbd_conf.c:206:36
	ldr	r0, [sp, #4]
	.loc	1 206 42 is_stmt 0              @ ../Board/v3/Src/usbd_conf.c:206:42
	ldr.w	r0, [r0, #1004]
	.loc	1 206 3                         @ ../Board/v3/Src/usbd_conf.c:206:3
	bl	USBD_LL_SOF
	.loc	1 207 1 epilogue_begin is_stmt 1 @ ../Board/v3/Src/usbd_conf.c:207:1
	add	sp, #8
	pop	{r7, pc}
.Ltmp29:
.Lfunc_end5:
	.size	HAL_PCD_SOFCallback, .Lfunc_end5-HAL_PCD_SOFCallback
	.cfi_endproc
	.cantunwind
	.fnend
                                        @ -- End function
	.section	.text.HAL_PCD_ResetCallback,"ax",%progbits
	.hidden	HAL_PCD_ResetCallback           @ -- Begin function HAL_PCD_ResetCallback
	.globl	HAL_PCD_ResetCallback
	.p2align	2
	.type	HAL_PCD_ResetCallback,%function
	.code	16                              @ @HAL_PCD_ResetCallback
	.thumb_func
HAL_PCD_ResetCallback:
.Lfunc_begin6:
	.loc	1 215 0                         @ ../Board/v3/Src/usbd_conf.c:215:0
	.fnstart
	.cfi_startproc
@ %bb.0:
	.save	{r7, lr}
	push	{r7, lr}
	.cfi_def_cfa_offset 8
	.cfi_offset lr, -4
	.cfi_offset r7, -8
	.pad	#16
	sub	sp, #16
	.cfi_def_cfa_offset 24
	str	r0, [sp, #12]
	movs	r0, #1
.Ltmp30:
	.loc	1 216 21 prologue_end           @ ../Board/v3/Src/usbd_conf.c:216:21
	strb.w	r0, [sp, #11]
	.loc	1 219 11                        @ ../Board/v3/Src/usbd_conf.c:219:11
	ldr	r0, [sp, #12]
	.loc	1 219 22 is_stmt 0              @ ../Board/v3/Src/usbd_conf.c:219:22
	ldr	r0, [r0, #12]
	.loc	1 219 3                         @ ../Board/v3/Src/usbd_conf.c:219:3
	str	r0, [sp, #4]                    @ 4-byte Spill
	cbz	r0, .LBB6_2
	b	.LBB6_1
.LBB6_1:
	ldr	r0, [sp, #4]                    @ 4-byte Reload
	cmp	r0, #2
	beq	.LBB6_3
	b	.LBB6_4
.LBB6_2:
	.loc	1 0 3                           @ ../Board/v3/Src/usbd_conf.c:0:3
	movs	r0, #0
.Ltmp31:
	.loc	1 222 11 is_stmt 1              @ ../Board/v3/Src/usbd_conf.c:222:11
	strb.w	r0, [sp, #11]
	.loc	1 223 5                         @ ../Board/v3/Src/usbd_conf.c:223:5
	b	.LBB6_5
.LBB6_3:
	.loc	1 0 5 is_stmt 0                 @ ../Board/v3/Src/usbd_conf.c:0:5
	movs	r0, #1
	.loc	1 225 11 is_stmt 1              @ ../Board/v3/Src/usbd_conf.c:225:11
	strb.w	r0, [sp, #11]
	.loc	1 226 5                         @ ../Board/v3/Src/usbd_conf.c:226:5
	b	.LBB6_5
.LBB6_4:
	.loc	1 0 5 is_stmt 0                 @ ../Board/v3/Src/usbd_conf.c:0:5
	movs	r0, #1
	.loc	1 229 11 is_stmt 1              @ ../Board/v3/Src/usbd_conf.c:229:11
	strb.w	r0, [sp, #11]
	.loc	1 230 5                         @ ../Board/v3/Src/usbd_conf.c:230:5
	b	.LBB6_5
.Ltmp32:
.LBB6_5:
	.loc	1 232 41                        @ ../Board/v3/Src/usbd_conf.c:232:41
	ldr	r0, [sp, #12]
	.loc	1 232 47 is_stmt 0              @ ../Board/v3/Src/usbd_conf.c:232:47
	ldr.w	r0, [r0, #1004]
	.loc	1 232 54                        @ ../Board/v3/Src/usbd_conf.c:232:54
	ldrb.w	r1, [sp, #11]
	.loc	1 232 3                         @ ../Board/v3/Src/usbd_conf.c:232:3
	bl	USBD_LL_SetSpeed
	.loc	1 235 38 is_stmt 1              @ ../Board/v3/Src/usbd_conf.c:235:38
	ldr	r0, [sp, #12]
	.loc	1 235 44 is_stmt 0              @ ../Board/v3/Src/usbd_conf.c:235:44
	ldr.w	r0, [r0, #1004]
	.loc	1 235 3                         @ ../Board/v3/Src/usbd_conf.c:235:3
	bl	USBD_LL_Reset
	.loc	1 236 1 epilogue_begin is_stmt 1 @ ../Board/v3/Src/usbd_conf.c:236:1
	add	sp, #16
	pop	{r7, pc}
.Ltmp33:
.Lfunc_end6:
	.size	HAL_PCD_ResetCallback, .Lfunc_end6-HAL_PCD_ResetCallback
	.cfi_endproc
	.cantunwind
	.fnend
                                        @ -- End function
	.section	.text.HAL_PCD_SuspendCallback,"ax",%progbits
	.hidden	HAL_PCD_SuspendCallback         @ -- Begin function HAL_PCD_SuspendCallback
	.globl	HAL_PCD_SuspendCallback
	.p2align	2
	.type	HAL_PCD_SuspendCallback,%function
	.code	16                              @ @HAL_PCD_SuspendCallback
	.thumb_func
HAL_PCD_SuspendCallback:
.Lfunc_begin7:
	.loc	1 245 0                         @ ../Board/v3/Src/usbd_conf.c:245:0
	.fnstart
	.cfi_startproc
@ %bb.0:
	.save	{r7, lr}
	push	{r7, lr}
	.cfi_def_cfa_offset 8
	.cfi_offset lr, -4
	.cfi_offset r7, -8
	.pad	#8
	sub	sp, #8
	.cfi_def_cfa_offset 16
	str	r0, [sp, #4]
.Ltmp34:
	.loc	1 247 40 prologue_end           @ ../Board/v3/Src/usbd_conf.c:247:40
	ldr	r0, [sp, #4]
	.loc	1 247 46 is_stmt 0              @ ../Board/v3/Src/usbd_conf.c:247:46
	ldr.w	r0, [r0, #1004]
	.loc	1 247 3                         @ ../Board/v3/Src/usbd_conf.c:247:3
	bl	USBD_LL_Suspend
	.loc	1 248 3 is_stmt 1               @ ../Board/v3/Src/usbd_conf.c:248:3
	ldr	r0, [sp, #4]
	ldr	r1, [r0]
	ldr.w	r0, [r1, #3584]
	orr	r0, r0, #1
	str.w	r0, [r1, #3584]
.Ltmp35:
	.loc	1 252 7                         @ ../Board/v3/Src/usbd_conf.c:252:7
	ldr	r0, [sp, #4]
	.loc	1 252 18 is_stmt 0              @ ../Board/v3/Src/usbd_conf.c:252:18
	ldr	r0, [r0, #32]
.Ltmp36:
	.loc	1 252 7                         @ ../Board/v3/Src/usbd_conf.c:252:7
	cbz	r0, .LBB7_2
	b	.LBB7_1
.LBB7_1:
	.loc	1 0 7                           @ ../Board/v3/Src/usbd_conf.c:0:7
	movw	r1, #60688
	movt	r1, #57344
.Ltmp37:
	.loc	1 255 14 is_stmt 1              @ ../Board/v3/Src/usbd_conf.c:255:14
	ldr	r0, [r1]
	orr	r0, r0, #6
	str	r0, [r1]
	.loc	1 256 3                         @ ../Board/v3/Src/usbd_conf.c:256:3
	b	.LBB7_2
.Ltmp38:
.LBB7_2:
	.loc	1 258 1 epilogue_begin          @ ../Board/v3/Src/usbd_conf.c:258:1
	add	sp, #8
	pop	{r7, pc}
.Ltmp39:
.Lfunc_end7:
	.size	HAL_PCD_SuspendCallback, .Lfunc_end7-HAL_PCD_SuspendCallback
	.cfi_endproc
	.cantunwind
	.fnend
                                        @ -- End function
	.section	.text.HAL_PCD_ResumeCallback,"ax",%progbits
	.hidden	HAL_PCD_ResumeCallback          @ -- Begin function HAL_PCD_ResumeCallback
	.globl	HAL_PCD_ResumeCallback
	.p2align	2
	.type	HAL_PCD_ResumeCallback,%function
	.code	16                              @ @HAL_PCD_ResumeCallback
	.thumb_func
HAL_PCD_ResumeCallback:
.Lfunc_begin8:
	.loc	1 267 0                         @ ../Board/v3/Src/usbd_conf.c:267:0
	.fnstart
	.cfi_startproc
@ %bb.0:
	.save	{r7, lr}
	push	{r7, lr}
	.cfi_def_cfa_offset 8
	.cfi_offset lr, -4
	.cfi_offset r7, -8
	.pad	#8
	sub	sp, #8
	.cfi_def_cfa_offset 16
	str	r0, [sp, #4]
.Ltmp40:
	.loc	1 270 39 prologue_end           @ ../Board/v3/Src/usbd_conf.c:270:39
	ldr	r0, [sp, #4]
	.loc	1 270 45 is_stmt 0              @ ../Board/v3/Src/usbd_conf.c:270:45
	ldr.w	r0, [r0, #1004]
	.loc	1 270 3                         @ ../Board/v3/Src/usbd_conf.c:270:3
	bl	USBD_LL_Resume
	.loc	1 271 1 epilogue_begin is_stmt 1 @ ../Board/v3/Src/usbd_conf.c:271:1
	add	sp, #8
	pop	{r7, pc}
.Ltmp41:
.Lfunc_end8:
	.size	HAL_PCD_ResumeCallback, .Lfunc_end8-HAL_PCD_ResumeCallback
	.cfi_endproc
	.cantunwind
	.fnend
                                        @ -- End function
	.section	.text.HAL_PCD_ISOOUTIncompleteCallback,"ax",%progbits
	.hidden	HAL_PCD_ISOOUTIncompleteCallback @ -- Begin function HAL_PCD_ISOOUTIncompleteCallback
	.globl	HAL_PCD_ISOOUTIncompleteCallback
	.p2align	2
	.type	HAL_PCD_ISOOUTIncompleteCallback,%function
	.code	16                              @ @HAL_PCD_ISOOUTIncompleteCallback
	.thumb_func
HAL_PCD_ISOOUTIncompleteCallback:
.Lfunc_begin9:
	.loc	1 280 0                         @ ../Board/v3/Src/usbd_conf.c:280:0
	.fnstart
	.cfi_startproc
@ %bb.0:
	.save	{r7, lr}
	push	{r7, lr}
	.cfi_def_cfa_offset 8
	.cfi_offset lr, -4
	.cfi_offset r7, -8
	.pad	#8
	sub	sp, #8
	.cfi_def_cfa_offset 16
                                        @ kill: def $r2 killed $r1
	str	r0, [sp, #4]
	strb.w	r1, [sp, #3]
.Ltmp42:
	.loc	1 281 49 prologue_end           @ ../Board/v3/Src/usbd_conf.c:281:49
	ldr	r0, [sp, #4]
	.loc	1 281 55 is_stmt 0              @ ../Board/v3/Src/usbd_conf.c:281:55
	ldr.w	r0, [r0, #1004]
	.loc	1 281 62                        @ ../Board/v3/Src/usbd_conf.c:281:62
	ldrb.w	r1, [sp, #3]
	.loc	1 281 3                         @ ../Board/v3/Src/usbd_conf.c:281:3
	bl	USBD_LL_IsoOUTIncomplete
	.loc	1 282 1 epilogue_begin is_stmt 1 @ ../Board/v3/Src/usbd_conf.c:282:1
	add	sp, #8
	pop	{r7, pc}
.Ltmp43:
.Lfunc_end9:
	.size	HAL_PCD_ISOOUTIncompleteCallback, .Lfunc_end9-HAL_PCD_ISOOUTIncompleteCallback
	.cfi_endproc
	.cantunwind
	.fnend
                                        @ -- End function
	.section	.text.HAL_PCD_ISOINIncompleteCallback,"ax",%progbits
	.hidden	HAL_PCD_ISOINIncompleteCallback @ -- Begin function HAL_PCD_ISOINIncompleteCallback
	.globl	HAL_PCD_ISOINIncompleteCallback
	.p2align	2
	.type	HAL_PCD_ISOINIncompleteCallback,%function
	.code	16                              @ @HAL_PCD_ISOINIncompleteCallback
	.thumb_func
HAL_PCD_ISOINIncompleteCallback:
.Lfunc_begin10:
	.loc	1 291 0                         @ ../Board/v3/Src/usbd_conf.c:291:0
	.fnstart
	.cfi_startproc
@ %bb.0:
	.save	{r7, lr}
	push	{r7, lr}
	.cfi_def_cfa_offset 8
	.cfi_offset lr, -4
	.cfi_offset r7, -8
	.pad	#8
	sub	sp, #8
	.cfi_def_cfa_offset 16
                                        @ kill: def $r2 killed $r1
	str	r0, [sp, #4]
	strb.w	r1, [sp, #3]
.Ltmp44:
	.loc	1 292 48 prologue_end           @ ../Board/v3/Src/usbd_conf.c:292:48
	ldr	r0, [sp, #4]
	.loc	1 292 54 is_stmt 0              @ ../Board/v3/Src/usbd_conf.c:292:54
	ldr.w	r0, [r0, #1004]
	.loc	1 292 61                        @ ../Board/v3/Src/usbd_conf.c:292:61
	ldrb.w	r1, [sp, #3]
	.loc	1 292 3                         @ ../Board/v3/Src/usbd_conf.c:292:3
	bl	USBD_LL_IsoINIncomplete
	.loc	1 293 1 epilogue_begin is_stmt 1 @ ../Board/v3/Src/usbd_conf.c:293:1
	add	sp, #8
	pop	{r7, pc}
.Ltmp45:
.Lfunc_end10:
	.size	HAL_PCD_ISOINIncompleteCallback, .Lfunc_end10-HAL_PCD_ISOINIncompleteCallback
	.cfi_endproc
	.cantunwind
	.fnend
                                        @ -- End function
	.section	.text.HAL_PCD_ConnectCallback,"ax",%progbits
	.hidden	HAL_PCD_ConnectCallback         @ -- Begin function HAL_PCD_ConnectCallback
	.globl	HAL_PCD_ConnectCallback
	.p2align	2
	.type	HAL_PCD_ConnectCallback,%function
	.code	16                              @ @HAL_PCD_ConnectCallback
	.thumb_func
HAL_PCD_ConnectCallback:
.Lfunc_begin11:
	.loc	1 301 0                         @ ../Board/v3/Src/usbd_conf.c:301:0
	.fnstart
	.cfi_startproc
@ %bb.0:
	.save	{r7, lr}
	push	{r7, lr}
	.cfi_def_cfa_offset 8
	.cfi_offset lr, -4
	.cfi_offset r7, -8
	.pad	#8
	sub	sp, #8
	.cfi_def_cfa_offset 16
	str	r0, [sp, #4]
.Ltmp46:
	.loc	1 302 45 prologue_end           @ ../Board/v3/Src/usbd_conf.c:302:45
	ldr	r0, [sp, #4]
	.loc	1 302 51 is_stmt 0              @ ../Board/v3/Src/usbd_conf.c:302:51
	ldr.w	r0, [r0, #1004]
	.loc	1 302 3                         @ ../Board/v3/Src/usbd_conf.c:302:3
	bl	USBD_LL_DevConnected
	.loc	1 303 1 epilogue_begin is_stmt 1 @ ../Board/v3/Src/usbd_conf.c:303:1
	add	sp, #8
	pop	{r7, pc}
.Ltmp47:
.Lfunc_end11:
	.size	HAL_PCD_ConnectCallback, .Lfunc_end11-HAL_PCD_ConnectCallback
	.cfi_endproc
	.cantunwind
	.fnend
                                        @ -- End function
	.section	.text.HAL_PCD_DisconnectCallback,"ax",%progbits
	.hidden	HAL_PCD_DisconnectCallback      @ -- Begin function HAL_PCD_DisconnectCallback
	.globl	HAL_PCD_DisconnectCallback
	.p2align	2
	.type	HAL_PCD_DisconnectCallback,%function
	.code	16                              @ @HAL_PCD_DisconnectCallback
	.thumb_func
HAL_PCD_DisconnectCallback:
.Lfunc_begin12:
	.loc	1 311 0                         @ ../Board/v3/Src/usbd_conf.c:311:0
	.fnstart
	.cfi_startproc
@ %bb.0:
	.save	{r7, lr}
	push	{r7, lr}
	.cfi_def_cfa_offset 8
	.cfi_offset lr, -4
	.cfi_offset r7, -8
	.pad	#8
	sub	sp, #8
	.cfi_def_cfa_offset 16
	str	r0, [sp, #4]
.Ltmp48:
	.loc	1 312 48 prologue_end           @ ../Board/v3/Src/usbd_conf.c:312:48
	ldr	r0, [sp, #4]
	.loc	1 312 54 is_stmt 0              @ ../Board/v3/Src/usbd_conf.c:312:54
	ldr.w	r0, [r0, #1004]
	.loc	1 312 3                         @ ../Board/v3/Src/usbd_conf.c:312:3
	bl	USBD_LL_DevDisconnected
	.loc	1 313 1 epilogue_begin is_stmt 1 @ ../Board/v3/Src/usbd_conf.c:313:1
	add	sp, #8
	pop	{r7, pc}
.Ltmp49:
.Lfunc_end12:
	.size	HAL_PCD_DisconnectCallback, .Lfunc_end12-HAL_PCD_DisconnectCallback
	.cfi_endproc
	.cantunwind
	.fnend
                                        @ -- End function
	.section	.text.USBD_LL_Init,"ax",%progbits
	.hidden	USBD_LL_Init                    @ -- Begin function USBD_LL_Init
	.globl	USBD_LL_Init
	.p2align	2
	.type	USBD_LL_Init,%function
	.code	16                              @ @USBD_LL_Init
	.thumb_func
USBD_LL_Init:
.Lfunc_begin13:
	.loc	1 325 0                         @ ../Board/v3/Src/usbd_conf.c:325:0
	.fnstart
	.cfi_startproc
@ %bb.0:
	.save	{r7, lr}
	push	{r7, lr}
	.cfi_def_cfa_offset 8
	.cfi_offset lr, -4
	.cfi_offset r7, -8
	.pad	#16
	sub	sp, #16
	.cfi_def_cfa_offset 24
	str	r0, [sp, #12]
.Ltmp50:
	.loc	1 327 7 prologue_end            @ ../Board/v3/Src/usbd_conf.c:327:7
	ldr	r0, [sp, #12]
	.loc	1 327 13 is_stmt 0              @ ../Board/v3/Src/usbd_conf.c:327:13
	ldrb	r0, [r0]
.Ltmp51:
	.loc	1 327 7                         @ ../Board/v3/Src/usbd_conf.c:327:7
	cmp	r0, #0
	bne	.LBB13_4
	b	.LBB13_1
.LBB13_1:
.Ltmp52:
	.loc	1 329 27 is_stmt 1              @ ../Board/v3/Src/usbd_conf.c:329:27
	ldr	r1, [sp, #12]
	.loc	1 329 25 is_stmt 0              @ ../Board/v3/Src/usbd_conf.c:329:25
	movw	r0, :lower16:hpcd_USB_OTG_FS
	movt	r0, :upper16:hpcd_USB_OTG_FS
	str	r0, [sp, #8]                    @ 4-byte Spill
	str.w	r1, [r0, #1004]
	.loc	1 330 3 is_stmt 1               @ ../Board/v3/Src/usbd_conf.c:330:3
	ldr	r1, [sp, #12]
	.loc	1 330 15 is_stmt 0              @ ../Board/v3/Src/usbd_conf.c:330:15
	str.w	r0, [r1, #708]
	mov.w	r1, #1342177280
	.loc	1 332 28 is_stmt 1              @ ../Board/v3/Src/usbd_conf.c:332:28
	str	r1, [r0]
	movs	r1, #6
	.loc	1 333 38                        @ ../Board/v3/Src/usbd_conf.c:333:38
	str	r1, [r0, #4]
	movs	r2, #2
	.loc	1 334 30                        @ ../Board/v3/Src/usbd_conf.c:334:30
	str	r2, [r0, #12]
	movs	r1, #0
	.loc	1 335 35                        @ ../Board/v3/Src/usbd_conf.c:335:35
	str	r1, [r0, #16]
	.loc	1 336 32                        @ ../Board/v3/Src/usbd_conf.c:336:32
	str	r1, [r0, #20]
	.loc	1 337 35                        @ ../Board/v3/Src/usbd_conf.c:337:35
	str	r2, [r0, #24]
	.loc	1 338 35                        @ ../Board/v3/Src/usbd_conf.c:338:35
	str	r1, [r0, #28]
	.loc	1 339 41                        @ ../Board/v3/Src/usbd_conf.c:339:41
	str	r1, [r0, #32]
	.loc	1 340 35                        @ ../Board/v3/Src/usbd_conf.c:340:35
	str	r1, [r0, #36]
	.loc	1 341 44                        @ ../Board/v3/Src/usbd_conf.c:341:44
	str	r1, [r0, #44]
	.loc	1 342 42                        @ ../Board/v3/Src/usbd_conf.c:342:42
	str	r1, [r0, #48]
.Ltmp53:
	.loc	1 343 7                         @ ../Board/v3/Src/usbd_conf.c:343:7
	bl	HAL_PCD_Init
.Ltmp54:
	.loc	1 343 7 is_stmt 0               @ ../Board/v3/Src/usbd_conf.c:343:7
	cbz	r0, .LBB13_3
	b	.LBB13_2
.LBB13_2:
.Ltmp55:
	.loc	1 345 5 is_stmt 1               @ ../Board/v3/Src/usbd_conf.c:345:5
	movw	r0, :lower16:.L.str
	movt	r0, :upper16:.L.str
	movw	r1, #345
	bl	_Error_Handler
	.loc	1 346 3                         @ ../Board/v3/Src/usbd_conf.c:346:3
	b	.LBB13_3
.Ltmp56:
.LBB13_3:
	.loc	1 348 3                         @ ../Board/v3/Src/usbd_conf.c:348:3
	movw	r0, :lower16:hpcd_USB_OTG_FS
	movt	r0, :upper16:hpcd_USB_OTG_FS
	str	r0, [sp, #4]                    @ 4-byte Spill
	movs	r1, #128
	bl	HAL_PCDEx_SetRxFiFo
                                        @ kill: def $r1 killed $r0
	.loc	1 349 3                         @ ../Board/v3/Src/usbd_conf.c:349:3
	ldr	r0, [sp, #4]                    @ 4-byte Reload
	movs	r1, #0
	movs	r2, #64
	str	r2, [sp]                        @ 4-byte Spill
	bl	HAL_PCDEx_SetTxFiFo
	ldr	r2, [sp]                        @ 4-byte Reload
                                        @ kill: def $r1 killed $r0
	.loc	1 350 3                         @ ../Board/v3/Src/usbd_conf.c:350:3
	ldr	r0, [sp, #4]                    @ 4-byte Reload
	movs	r1, #1
	bl	HAL_PCDEx_SetTxFiFo
	ldr	r2, [sp]                        @ 4-byte Reload
                                        @ kill: def $r1 killed $r0
	.loc	1 351 3                         @ ../Board/v3/Src/usbd_conf.c:351:3
	ldr	r0, [sp, #4]                    @ 4-byte Reload
	movs	r1, #3
	bl	HAL_PCDEx_SetTxFiFo
	.loc	1 352 3                         @ ../Board/v3/Src/usbd_conf.c:352:3
	b	.LBB13_4
.Ltmp57:
.LBB13_4:
	.loc	1 0 3 is_stmt 0                 @ ../Board/v3/Src/usbd_conf.c:0:3
	movs	r0, #0
	.loc	1 353 3 epilogue_begin is_stmt 1 @ ../Board/v3/Src/usbd_conf.c:353:3
	add	sp, #16
	pop	{r7, pc}
.Ltmp58:
.Lfunc_end13:
	.size	USBD_LL_Init, .Lfunc_end13-USBD_LL_Init
	.cfi_endproc
	.cantunwind
	.fnend
                                        @ -- End function
	.section	.text.USBD_LL_DeInit,"ax",%progbits
	.hidden	USBD_LL_DeInit                  @ -- Begin function USBD_LL_DeInit
	.globl	USBD_LL_DeInit
	.p2align	2
	.type	USBD_LL_DeInit,%function
	.code	16                              @ @USBD_LL_DeInit
	.thumb_func
USBD_LL_DeInit:
.Lfunc_begin14:
	.loc	1 362 0                         @ ../Board/v3/Src/usbd_conf.c:362:0
	.fnstart
	.cfi_startproc
@ %bb.0:
	.save	{r7, lr}
	push	{r7, lr}
	.cfi_def_cfa_offset 8
	.cfi_offset lr, -4
	.cfi_offset r7, -8
	.pad	#16
	sub	sp, #16
	.cfi_def_cfa_offset 24
	str	r0, [sp, #12]
	movs	r0, #0
.Ltmp59:
	.loc	1 363 21 prologue_end           @ ../Board/v3/Src/usbd_conf.c:363:21
	strb.w	r0, [sp, #11]
	.loc	1 364 22                        @ ../Board/v3/Src/usbd_conf.c:364:22
	strb.w	r0, [sp, #10]
	.loc	1 366 31                        @ ../Board/v3/Src/usbd_conf.c:366:31
	ldr	r0, [sp, #12]
	.loc	1 366 37 is_stmt 0              @ ../Board/v3/Src/usbd_conf.c:366:37
	ldr.w	r0, [r0, #708]
	.loc	1 366 16                        @ ../Board/v3/Src/usbd_conf.c:366:16
	bl	HAL_PCD_DeInit
	.loc	1 366 14                        @ ../Board/v3/Src/usbd_conf.c:366:14
	strb.w	r0, [sp, #11]
	.loc	1 368 11 is_stmt 1              @ ../Board/v3/Src/usbd_conf.c:368:11
	ldrb.w	r0, [sp, #11]
	.loc	1 368 3 is_stmt 0               @ ../Board/v3/Src/usbd_conf.c:368:3
	mov	r1, r0
	str	r1, [sp, #4]                    @ 4-byte Spill
	cmp	r0, #3
	bhi	.LBB14_7
@ %bb.1:
	.loc	1 0 3                           @ ../Board/v3/Src/usbd_conf.c:0:3
	ldr	r1, [sp, #4]                    @ 4-byte Reload
.LCPI14_0:
	tbb	[pc, r1]
@ %bb.2:
.LJTI14_0:
	.byte	(.LBB14_3-(.LCPI14_0+4))/2
	.byte	(.LBB14_4-(.LCPI14_0+4))/2
	.byte	(.LBB14_5-(.LCPI14_0+4))/2
	.byte	(.LBB14_6-(.LCPI14_0+4))/2
	.p2align	1
.LBB14_3:
	movs	r0, #0
.Ltmp60:
	.loc	1 370 18 is_stmt 1              @ ../Board/v3/Src/usbd_conf.c:370:18
	strb.w	r0, [sp, #10]
	.loc	1 371 5                         @ ../Board/v3/Src/usbd_conf.c:371:5
	b	.LBB14_8
.LBB14_4:
	.loc	1 0 5 is_stmt 0                 @ ../Board/v3/Src/usbd_conf.c:0:5
	movs	r0, #3
	.loc	1 373 18 is_stmt 1              @ ../Board/v3/Src/usbd_conf.c:373:18
	strb.w	r0, [sp, #10]
	.loc	1 374 5                         @ ../Board/v3/Src/usbd_conf.c:374:5
	b	.LBB14_8
.LBB14_5:
	.loc	1 0 5 is_stmt 0                 @ ../Board/v3/Src/usbd_conf.c:0:5
	movs	r0, #1
	.loc	1 376 18 is_stmt 1              @ ../Board/v3/Src/usbd_conf.c:376:18
	strb.w	r0, [sp, #10]
	.loc	1 377 5                         @ ../Board/v3/Src/usbd_conf.c:377:5
	b	.LBB14_8
.LBB14_6:
	.loc	1 0 5 is_stmt 0                 @ ../Board/v3/Src/usbd_conf.c:0:5
	movs	r0, #3
	.loc	1 379 18 is_stmt 1              @ ../Board/v3/Src/usbd_conf.c:379:18
	strb.w	r0, [sp, #10]
	.loc	1 380 5                         @ ../Board/v3/Src/usbd_conf.c:380:5
	b	.LBB14_8
.LBB14_7:
	.loc	1 0 5 is_stmt 0                 @ ../Board/v3/Src/usbd_conf.c:0:5
	movs	r0, #3
	.loc	1 382 18 is_stmt 1              @ ../Board/v3/Src/usbd_conf.c:382:18
	strb.w	r0, [sp, #10]
	.loc	1 383 5                         @ ../Board/v3/Src/usbd_conf.c:383:5
	b	.LBB14_8
.Ltmp61:
.LBB14_8:
	.loc	1 385 10                        @ ../Board/v3/Src/usbd_conf.c:385:10
	ldrb.w	r0, [sp, #10]
	.loc	1 385 3 epilogue_begin is_stmt 0 @ ../Board/v3/Src/usbd_conf.c:385:3
	add	sp, #16
	pop	{r7, pc}
.Ltmp62:
.Lfunc_end14:
	.size	USBD_LL_DeInit, .Lfunc_end14-USBD_LL_DeInit
	.cfi_endproc
	.cantunwind
	.fnend
                                        @ -- End function
	.section	.text.USBD_LL_Start,"ax",%progbits
	.hidden	USBD_LL_Start                   @ -- Begin function USBD_LL_Start
	.globl	USBD_LL_Start
	.p2align	2
	.type	USBD_LL_Start,%function
	.code	16                              @ @USBD_LL_Start
	.thumb_func
USBD_LL_Start:
.Lfunc_begin15:
	.loc	1 394 0 is_stmt 1               @ ../Board/v3/Src/usbd_conf.c:394:0
	.fnstart
	.cfi_startproc
@ %bb.0:
	.save	{r7, lr}
	push	{r7, lr}
	.cfi_def_cfa_offset 8
	.cfi_offset lr, -4
	.cfi_offset r7, -8
	.pad	#16
	sub	sp, #16
	.cfi_def_cfa_offset 24
	str	r0, [sp, #12]
	movs	r0, #0
.Ltmp63:
	.loc	1 395 21 prologue_end           @ ../Board/v3/Src/usbd_conf.c:395:21
	strb.w	r0, [sp, #11]
	.loc	1 396 22                        @ ../Board/v3/Src/usbd_conf.c:396:22
	strb.w	r0, [sp, #10]
	.loc	1 398 30                        @ ../Board/v3/Src/usbd_conf.c:398:30
	ldr	r0, [sp, #12]
	.loc	1 398 36 is_stmt 0              @ ../Board/v3/Src/usbd_conf.c:398:36
	ldr.w	r0, [r0, #708]
	.loc	1 398 16                        @ ../Board/v3/Src/usbd_conf.c:398:16
	bl	HAL_PCD_Start
	.loc	1 398 14                        @ ../Board/v3/Src/usbd_conf.c:398:14
	strb.w	r0, [sp, #11]
	.loc	1 400 11 is_stmt 1              @ ../Board/v3/Src/usbd_conf.c:400:11
	ldrb.w	r0, [sp, #11]
	.loc	1 400 3 is_stmt 0               @ ../Board/v3/Src/usbd_conf.c:400:3
	mov	r1, r0
	str	r1, [sp, #4]                    @ 4-byte Spill
	cmp	r0, #3
	bhi	.LBB15_7
@ %bb.1:
	.loc	1 0 3                           @ ../Board/v3/Src/usbd_conf.c:0:3
	ldr	r1, [sp, #4]                    @ 4-byte Reload
.LCPI15_0:
	tbb	[pc, r1]
@ %bb.2:
.LJTI15_0:
	.byte	(.LBB15_3-(.LCPI15_0+4))/2
	.byte	(.LBB15_4-(.LCPI15_0+4))/2
	.byte	(.LBB15_5-(.LCPI15_0+4))/2
	.byte	(.LBB15_6-(.LCPI15_0+4))/2
	.p2align	1
.LBB15_3:
	movs	r0, #0
.Ltmp64:
	.loc	1 402 18 is_stmt 1              @ ../Board/v3/Src/usbd_conf.c:402:18
	strb.w	r0, [sp, #10]
	.loc	1 403 5                         @ ../Board/v3/Src/usbd_conf.c:403:5
	b	.LBB15_8
.LBB15_4:
	.loc	1 0 5 is_stmt 0                 @ ../Board/v3/Src/usbd_conf.c:0:5
	movs	r0, #3
	.loc	1 405 18 is_stmt 1              @ ../Board/v3/Src/usbd_conf.c:405:18
	strb.w	r0, [sp, #10]
	.loc	1 406 5                         @ ../Board/v3/Src/usbd_conf.c:406:5
	b	.LBB15_8
.LBB15_5:
	.loc	1 0 5 is_stmt 0                 @ ../Board/v3/Src/usbd_conf.c:0:5
	movs	r0, #1
	.loc	1 408 18 is_stmt 1              @ ../Board/v3/Src/usbd_conf.c:408:18
	strb.w	r0, [sp, #10]
	.loc	1 409 5                         @ ../Board/v3/Src/usbd_conf.c:409:5
	b	.LBB15_8
.LBB15_6:
	.loc	1 0 5 is_stmt 0                 @ ../Board/v3/Src/usbd_conf.c:0:5
	movs	r0, #3
	.loc	1 411 18 is_stmt 1              @ ../Board/v3/Src/usbd_conf.c:411:18
	strb.w	r0, [sp, #10]
	.loc	1 412 5                         @ ../Board/v3/Src/usbd_conf.c:412:5
	b	.LBB15_8
.LBB15_7:
	.loc	1 0 5 is_stmt 0                 @ ../Board/v3/Src/usbd_conf.c:0:5
	movs	r0, #3
	.loc	1 414 18 is_stmt 1              @ ../Board/v3/Src/usbd_conf.c:414:18
	strb.w	r0, [sp, #10]
	.loc	1 415 5                         @ ../Board/v3/Src/usbd_conf.c:415:5
	b	.LBB15_8
.Ltmp65:
.LBB15_8:
	.loc	1 417 10                        @ ../Board/v3/Src/usbd_conf.c:417:10
	ldrb.w	r0, [sp, #10]
	.loc	1 417 3 epilogue_begin is_stmt 0 @ ../Board/v3/Src/usbd_conf.c:417:3
	add	sp, #16
	pop	{r7, pc}
.Ltmp66:
.Lfunc_end15:
	.size	USBD_LL_Start, .Lfunc_end15-USBD_LL_Start
	.cfi_endproc
	.cantunwind
	.fnend
                                        @ -- End function
	.section	.text.USBD_LL_Stop,"ax",%progbits
	.hidden	USBD_LL_Stop                    @ -- Begin function USBD_LL_Stop
	.globl	USBD_LL_Stop
	.p2align	2
	.type	USBD_LL_Stop,%function
	.code	16                              @ @USBD_LL_Stop
	.thumb_func
USBD_LL_Stop:
.Lfunc_begin16:
	.loc	1 426 0 is_stmt 1               @ ../Board/v3/Src/usbd_conf.c:426:0
	.fnstart
	.cfi_startproc
@ %bb.0:
	.save	{r7, lr}
	push	{r7, lr}
	.cfi_def_cfa_offset 8
	.cfi_offset lr, -4
	.cfi_offset r7, -8
	.pad	#16
	sub	sp, #16
	.cfi_def_cfa_offset 24
	str	r0, [sp, #12]
	movs	r0, #0
.Ltmp67:
	.loc	1 427 21 prologue_end           @ ../Board/v3/Src/usbd_conf.c:427:21
	strb.w	r0, [sp, #11]
	.loc	1 428 22                        @ ../Board/v3/Src/usbd_conf.c:428:22
	strb.w	r0, [sp, #10]
	.loc	1 430 29                        @ ../Board/v3/Src/usbd_conf.c:430:29
	ldr	r0, [sp, #12]
	.loc	1 430 35 is_stmt 0              @ ../Board/v3/Src/usbd_conf.c:430:35
	ldr.w	r0, [r0, #708]
	.loc	1 430 16                        @ ../Board/v3/Src/usbd_conf.c:430:16
	bl	HAL_PCD_Stop
	.loc	1 430 14                        @ ../Board/v3/Src/usbd_conf.c:430:14
	strb.w	r0, [sp, #11]
	.loc	1 432 11 is_stmt 1              @ ../Board/v3/Src/usbd_conf.c:432:11
	ldrb.w	r0, [sp, #11]
	.loc	1 432 3 is_stmt 0               @ ../Board/v3/Src/usbd_conf.c:432:3
	mov	r1, r0
	str	r1, [sp, #4]                    @ 4-byte Spill
	cmp	r0, #3
	bhi	.LBB16_7
@ %bb.1:
	.loc	1 0 3                           @ ../Board/v3/Src/usbd_conf.c:0:3
	ldr	r1, [sp, #4]                    @ 4-byte Reload
.LCPI16_0:
	tbb	[pc, r1]
@ %bb.2:
.LJTI16_0:
	.byte	(.LBB16_3-(.LCPI16_0+4))/2
	.byte	(.LBB16_4-(.LCPI16_0+4))/2
	.byte	(.LBB16_5-(.LCPI16_0+4))/2
	.byte	(.LBB16_6-(.LCPI16_0+4))/2
	.p2align	1
.LBB16_3:
	movs	r0, #0
.Ltmp68:
	.loc	1 434 18 is_stmt 1              @ ../Board/v3/Src/usbd_conf.c:434:18
	strb.w	r0, [sp, #10]
	.loc	1 435 5                         @ ../Board/v3/Src/usbd_conf.c:435:5
	b	.LBB16_8
.LBB16_4:
	.loc	1 0 5 is_stmt 0                 @ ../Board/v3/Src/usbd_conf.c:0:5
	movs	r0, #3
	.loc	1 437 18 is_stmt 1              @ ../Board/v3/Src/usbd_conf.c:437:18
	strb.w	r0, [sp, #10]
	.loc	1 438 5                         @ ../Board/v3/Src/usbd_conf.c:438:5
	b	.LBB16_8
.LBB16_5:
	.loc	1 0 5 is_stmt 0                 @ ../Board/v3/Src/usbd_conf.c:0:5
	movs	r0, #1
	.loc	1 440 18 is_stmt 1              @ ../Board/v3/Src/usbd_conf.c:440:18
	strb.w	r0, [sp, #10]
	.loc	1 441 5                         @ ../Board/v3/Src/usbd_conf.c:441:5
	b	.LBB16_8
.LBB16_6:
	.loc	1 0 5 is_stmt 0                 @ ../Board/v3/Src/usbd_conf.c:0:5
	movs	r0, #3
	.loc	1 443 18 is_stmt 1              @ ../Board/v3/Src/usbd_conf.c:443:18
	strb.w	r0, [sp, #10]
	.loc	1 444 5                         @ ../Board/v3/Src/usbd_conf.c:444:5
	b	.LBB16_8
.LBB16_7:
	.loc	1 0 5 is_stmt 0                 @ ../Board/v3/Src/usbd_conf.c:0:5
	movs	r0, #3
	.loc	1 446 18 is_stmt 1              @ ../Board/v3/Src/usbd_conf.c:446:18
	strb.w	r0, [sp, #10]
	.loc	1 447 5                         @ ../Board/v3/Src/usbd_conf.c:447:5
	b	.LBB16_8
.Ltmp69:
.LBB16_8:
	.loc	1 449 10                        @ ../Board/v3/Src/usbd_conf.c:449:10
	ldrb.w	r0, [sp, #10]
	.loc	1 449 3 epilogue_begin is_stmt 0 @ ../Board/v3/Src/usbd_conf.c:449:3
	add	sp, #16
	pop	{r7, pc}
.Ltmp70:
.Lfunc_end16:
	.size	USBD_LL_Stop, .Lfunc_end16-USBD_LL_Stop
	.cfi_endproc
	.cantunwind
	.fnend
                                        @ -- End function
	.section	.text.USBD_LL_OpenEP,"ax",%progbits
	.hidden	USBD_LL_OpenEP                  @ -- Begin function USBD_LL_OpenEP
	.globl	USBD_LL_OpenEP
	.p2align	2
	.type	USBD_LL_OpenEP,%function
	.code	16                              @ @USBD_LL_OpenEP
	.thumb_func
USBD_LL_OpenEP:
.Lfunc_begin17:
	.loc	1 461 0 is_stmt 1               @ ../Board/v3/Src/usbd_conf.c:461:0
	.fnstart
	.cfi_startproc
@ %bb.0:
	.save	{r7, lr}
	push	{r7, lr}
	.cfi_def_cfa_offset 8
	.cfi_offset lr, -4
	.cfi_offset r7, -8
	.pad	#16
	sub	sp, #16
	.cfi_def_cfa_offset 24
                                        @ kill: def $r12 killed $r3
                                        @ kill: def $r12 killed $r2
                                        @ kill: def $r12 killed $r1
	str	r0, [sp, #12]
	strb.w	r1, [sp, #11]
	strb.w	r2, [sp, #10]
	strh.w	r3, [sp, #8]
	movs	r0, #0
.Ltmp71:
	.loc	1 462 21 prologue_end           @ ../Board/v3/Src/usbd_conf.c:462:21
	strb.w	r0, [sp, #7]
	.loc	1 463 22                        @ ../Board/v3/Src/usbd_conf.c:463:22
	strb.w	r0, [sp, #6]
	.loc	1 465 32                        @ ../Board/v3/Src/usbd_conf.c:465:32
	ldr	r0, [sp, #12]
	.loc	1 465 38 is_stmt 0              @ ../Board/v3/Src/usbd_conf.c:465:38
	ldr.w	r0, [r0, #708]
	.loc	1 465 45                        @ ../Board/v3/Src/usbd_conf.c:465:45
	ldrb.w	r1, [sp, #11]
	.loc	1 465 54                        @ ../Board/v3/Src/usbd_conf.c:465:54
	ldrh.w	r2, [sp, #8]
	.loc	1 465 62                        @ ../Board/v3/Src/usbd_conf.c:465:62
	ldrb.w	r3, [sp, #10]
	.loc	1 465 16                        @ ../Board/v3/Src/usbd_conf.c:465:16
	bl	HAL_PCD_EP_Open
	.loc	1 465 14                        @ ../Board/v3/Src/usbd_conf.c:465:14
	strb.w	r0, [sp, #7]
	.loc	1 467 11 is_stmt 1              @ ../Board/v3/Src/usbd_conf.c:467:11
	ldrb.w	r0, [sp, #7]
	.loc	1 467 3 is_stmt 0               @ ../Board/v3/Src/usbd_conf.c:467:3
	mov	r1, r0
	str	r1, [sp]                        @ 4-byte Spill
	cmp	r0, #3
	bhi	.LBB17_7
@ %bb.1:
	.loc	1 0 3                           @ ../Board/v3/Src/usbd_conf.c:0:3
	ldr	r1, [sp]                        @ 4-byte Reload
.LCPI17_0:
	tbb	[pc, r1]
@ %bb.2:
.LJTI17_0:
	.byte	(.LBB17_3-(.LCPI17_0+4))/2
	.byte	(.LBB17_4-(.LCPI17_0+4))/2
	.byte	(.LBB17_5-(.LCPI17_0+4))/2
	.byte	(.LBB17_6-(.LCPI17_0+4))/2
	.p2align	1
.LBB17_3:
	movs	r0, #0
.Ltmp72:
	.loc	1 469 18 is_stmt 1              @ ../Board/v3/Src/usbd_conf.c:469:18
	strb.w	r0, [sp, #6]
	.loc	1 470 5                         @ ../Board/v3/Src/usbd_conf.c:470:5
	b	.LBB17_8
.LBB17_4:
	.loc	1 0 5 is_stmt 0                 @ ../Board/v3/Src/usbd_conf.c:0:5
	movs	r0, #3
	.loc	1 472 18 is_stmt 1              @ ../Board/v3/Src/usbd_conf.c:472:18
	strb.w	r0, [sp, #6]
	.loc	1 473 5                         @ ../Board/v3/Src/usbd_conf.c:473:5
	b	.LBB17_8
.LBB17_5:
	.loc	1 0 5 is_stmt 0                 @ ../Board/v3/Src/usbd_conf.c:0:5
	movs	r0, #1
	.loc	1 475 18 is_stmt 1              @ ../Board/v3/Src/usbd_conf.c:475:18
	strb.w	r0, [sp, #6]
	.loc	1 476 5                         @ ../Board/v3/Src/usbd_conf.c:476:5
	b	.LBB17_8
.LBB17_6:
	.loc	1 0 5 is_stmt 0                 @ ../Board/v3/Src/usbd_conf.c:0:5
	movs	r0, #3
	.loc	1 478 18 is_stmt 1              @ ../Board/v3/Src/usbd_conf.c:478:18
	strb.w	r0, [sp, #6]
	.loc	1 479 5                         @ ../Board/v3/Src/usbd_conf.c:479:5
	b	.LBB17_8
.LBB17_7:
	.loc	1 0 5 is_stmt 0                 @ ../Board/v3/Src/usbd_conf.c:0:5
	movs	r0, #3
	.loc	1 481 18 is_stmt 1              @ ../Board/v3/Src/usbd_conf.c:481:18
	strb.w	r0, [sp, #6]
	.loc	1 482 5                         @ ../Board/v3/Src/usbd_conf.c:482:5
	b	.LBB17_8
.Ltmp73:
.LBB17_8:
	.loc	1 484 10                        @ ../Board/v3/Src/usbd_conf.c:484:10
	ldrb.w	r0, [sp, #6]
	.loc	1 484 3 epilogue_begin is_stmt 0 @ ../Board/v3/Src/usbd_conf.c:484:3
	add	sp, #16
	pop	{r7, pc}
.Ltmp74:
.Lfunc_end17:
	.size	USBD_LL_OpenEP, .Lfunc_end17-USBD_LL_OpenEP
	.cfi_endproc
	.cantunwind
	.fnend
                                        @ -- End function
	.section	.text.USBD_LL_CloseEP,"ax",%progbits
	.hidden	USBD_LL_CloseEP                 @ -- Begin function USBD_LL_CloseEP
	.globl	USBD_LL_CloseEP
	.p2align	2
	.type	USBD_LL_CloseEP,%function
	.code	16                              @ @USBD_LL_CloseEP
	.thumb_func
USBD_LL_CloseEP:
.Lfunc_begin18:
	.loc	1 494 0 is_stmt 1               @ ../Board/v3/Src/usbd_conf.c:494:0
	.fnstart
	.cfi_startproc
@ %bb.0:
	.save	{r7, lr}
	push	{r7, lr}
	.cfi_def_cfa_offset 8
	.cfi_offset lr, -4
	.cfi_offset r7, -8
	.pad	#16
	sub	sp, #16
	.cfi_def_cfa_offset 24
                                        @ kill: def $r2 killed $r1
	str	r0, [sp, #12]
	strb.w	r1, [sp, #11]
	movs	r0, #0
.Ltmp75:
	.loc	1 495 21 prologue_end           @ ../Board/v3/Src/usbd_conf.c:495:21
	strb.w	r0, [sp, #10]
	.loc	1 496 22                        @ ../Board/v3/Src/usbd_conf.c:496:22
	strb.w	r0, [sp, #9]
	.loc	1 498 33                        @ ../Board/v3/Src/usbd_conf.c:498:33
	ldr	r0, [sp, #12]
	.loc	1 498 39 is_stmt 0              @ ../Board/v3/Src/usbd_conf.c:498:39
	ldr.w	r0, [r0, #708]
	.loc	1 498 46                        @ ../Board/v3/Src/usbd_conf.c:498:46
	ldrb.w	r1, [sp, #11]
	.loc	1 498 16                        @ ../Board/v3/Src/usbd_conf.c:498:16
	bl	HAL_PCD_EP_Close
	.loc	1 498 14                        @ ../Board/v3/Src/usbd_conf.c:498:14
	strb.w	r0, [sp, #10]
	.loc	1 500 11 is_stmt 1              @ ../Board/v3/Src/usbd_conf.c:500:11
	ldrb.w	r0, [sp, #10]
	.loc	1 500 3 is_stmt 0               @ ../Board/v3/Src/usbd_conf.c:500:3
	mov	r1, r0
	str	r1, [sp, #4]                    @ 4-byte Spill
	cmp	r0, #3
	bhi	.LBB18_7
@ %bb.1:
	.loc	1 0 3                           @ ../Board/v3/Src/usbd_conf.c:0:3
	ldr	r1, [sp, #4]                    @ 4-byte Reload
.LCPI18_0:
	tbb	[pc, r1]
@ %bb.2:
.LJTI18_0:
	.byte	(.LBB18_3-(.LCPI18_0+4))/2
	.byte	(.LBB18_4-(.LCPI18_0+4))/2
	.byte	(.LBB18_5-(.LCPI18_0+4))/2
	.byte	(.LBB18_6-(.LCPI18_0+4))/2
	.p2align	1
.LBB18_3:
	movs	r0, #0
.Ltmp76:
	.loc	1 502 18 is_stmt 1              @ ../Board/v3/Src/usbd_conf.c:502:18
	strb.w	r0, [sp, #9]
	.loc	1 503 5                         @ ../Board/v3/Src/usbd_conf.c:503:5
	b	.LBB18_8
.LBB18_4:
	.loc	1 0 5 is_stmt 0                 @ ../Board/v3/Src/usbd_conf.c:0:5
	movs	r0, #3
	.loc	1 505 18 is_stmt 1              @ ../Board/v3/Src/usbd_conf.c:505:18
	strb.w	r0, [sp, #9]
	.loc	1 506 5                         @ ../Board/v3/Src/usbd_conf.c:506:5
	b	.LBB18_8
.LBB18_5:
	.loc	1 0 5 is_stmt 0                 @ ../Board/v3/Src/usbd_conf.c:0:5
	movs	r0, #1
	.loc	1 508 18 is_stmt 1              @ ../Board/v3/Src/usbd_conf.c:508:18
	strb.w	r0, [sp, #9]
	.loc	1 509 5                         @ ../Board/v3/Src/usbd_conf.c:509:5
	b	.LBB18_8
.LBB18_6:
	.loc	1 0 5 is_stmt 0                 @ ../Board/v3/Src/usbd_conf.c:0:5
	movs	r0, #3
	.loc	1 511 18 is_stmt 1              @ ../Board/v3/Src/usbd_conf.c:511:18
	strb.w	r0, [sp, #9]
	.loc	1 512 5                         @ ../Board/v3/Src/usbd_conf.c:512:5
	b	.LBB18_8
.LBB18_7:
	.loc	1 0 5 is_stmt 0                 @ ../Board/v3/Src/usbd_conf.c:0:5
	movs	r0, #3
	.loc	1 514 18 is_stmt 1              @ ../Board/v3/Src/usbd_conf.c:514:18
	strb.w	r0, [sp, #9]
	.loc	1 515 5                         @ ../Board/v3/Src/usbd_conf.c:515:5
	b	.LBB18_8
.Ltmp77:
.LBB18_8:
	.loc	1 517 10                        @ ../Board/v3/Src/usbd_conf.c:517:10
	ldrb.w	r0, [sp, #9]
	.loc	1 517 3 epilogue_begin is_stmt 0 @ ../Board/v3/Src/usbd_conf.c:517:3
	add	sp, #16
	pop	{r7, pc}
.Ltmp78:
.Lfunc_end18:
	.size	USBD_LL_CloseEP, .Lfunc_end18-USBD_LL_CloseEP
	.cfi_endproc
	.cantunwind
	.fnend
                                        @ -- End function
	.section	.text.USBD_LL_FlushEP,"ax",%progbits
	.hidden	USBD_LL_FlushEP                 @ -- Begin function USBD_LL_FlushEP
	.globl	USBD_LL_FlushEP
	.p2align	2
	.type	USBD_LL_FlushEP,%function
	.code	16                              @ @USBD_LL_FlushEP
	.thumb_func
USBD_LL_FlushEP:
.Lfunc_begin19:
	.loc	1 527 0 is_stmt 1               @ ../Board/v3/Src/usbd_conf.c:527:0
	.fnstart
	.cfi_startproc
@ %bb.0:
	.save	{r7, lr}
	push	{r7, lr}
	.cfi_def_cfa_offset 8
	.cfi_offset lr, -4
	.cfi_offset r7, -8
	.pad	#16
	sub	sp, #16
	.cfi_def_cfa_offset 24
                                        @ kill: def $r2 killed $r1
	str	r0, [sp, #12]
	strb.w	r1, [sp, #11]
	movs	r0, #0
.Ltmp79:
	.loc	1 528 21 prologue_end           @ ../Board/v3/Src/usbd_conf.c:528:21
	strb.w	r0, [sp, #10]
	.loc	1 529 22                        @ ../Board/v3/Src/usbd_conf.c:529:22
	strb.w	r0, [sp, #9]
	.loc	1 531 33                        @ ../Board/v3/Src/usbd_conf.c:531:33
	ldr	r0, [sp, #12]
	.loc	1 531 39 is_stmt 0              @ ../Board/v3/Src/usbd_conf.c:531:39
	ldr.w	r0, [r0, #708]
	.loc	1 531 46                        @ ../Board/v3/Src/usbd_conf.c:531:46
	ldrb.w	r1, [sp, #11]
	.loc	1 531 16                        @ ../Board/v3/Src/usbd_conf.c:531:16
	bl	HAL_PCD_EP_Flush
	.loc	1 531 14                        @ ../Board/v3/Src/usbd_conf.c:531:14
	strb.w	r0, [sp, #10]
	.loc	1 533 11 is_stmt 1              @ ../Board/v3/Src/usbd_conf.c:533:11
	ldrb.w	r0, [sp, #10]
	.loc	1 533 3 is_stmt 0               @ ../Board/v3/Src/usbd_conf.c:533:3
	mov	r1, r0
	str	r1, [sp, #4]                    @ 4-byte Spill
	cmp	r0, #3
	bhi	.LBB19_7
@ %bb.1:
	.loc	1 0 3                           @ ../Board/v3/Src/usbd_conf.c:0:3
	ldr	r1, [sp, #4]                    @ 4-byte Reload
.LCPI19_0:
	tbb	[pc, r1]
@ %bb.2:
.LJTI19_0:
	.byte	(.LBB19_3-(.LCPI19_0+4))/2
	.byte	(.LBB19_4-(.LCPI19_0+4))/2
	.byte	(.LBB19_5-(.LCPI19_0+4))/2
	.byte	(.LBB19_6-(.LCPI19_0+4))/2
	.p2align	1
.LBB19_3:
	movs	r0, #0
.Ltmp80:
	.loc	1 535 18 is_stmt 1              @ ../Board/v3/Src/usbd_conf.c:535:18
	strb.w	r0, [sp, #9]
	.loc	1 536 5                         @ ../Board/v3/Src/usbd_conf.c:536:5
	b	.LBB19_8
.LBB19_4:
	.loc	1 0 5 is_stmt 0                 @ ../Board/v3/Src/usbd_conf.c:0:5
	movs	r0, #3
	.loc	1 538 18 is_stmt 1              @ ../Board/v3/Src/usbd_conf.c:538:18
	strb.w	r0, [sp, #9]
	.loc	1 539 5                         @ ../Board/v3/Src/usbd_conf.c:539:5
	b	.LBB19_8
.LBB19_5:
	.loc	1 0 5 is_stmt 0                 @ ../Board/v3/Src/usbd_conf.c:0:5
	movs	r0, #1
	.loc	1 541 18 is_stmt 1              @ ../Board/v3/Src/usbd_conf.c:541:18
	strb.w	r0, [sp, #9]
	.loc	1 542 5                         @ ../Board/v3/Src/usbd_conf.c:542:5
	b	.LBB19_8
.LBB19_6:
	.loc	1 0 5 is_stmt 0                 @ ../Board/v3/Src/usbd_conf.c:0:5
	movs	r0, #3
	.loc	1 544 18 is_stmt 1              @ ../Board/v3/Src/usbd_conf.c:544:18
	strb.w	r0, [sp, #9]
	.loc	1 545 5                         @ ../Board/v3/Src/usbd_conf.c:545:5
	b	.LBB19_8
.LBB19_7:
	.loc	1 0 5 is_stmt 0                 @ ../Board/v3/Src/usbd_conf.c:0:5
	movs	r0, #3
	.loc	1 547 18 is_stmt 1              @ ../Board/v3/Src/usbd_conf.c:547:18
	strb.w	r0, [sp, #9]
	.loc	1 548 5                         @ ../Board/v3/Src/usbd_conf.c:548:5
	b	.LBB19_8
.Ltmp81:
.LBB19_8:
	.loc	1 550 10                        @ ../Board/v3/Src/usbd_conf.c:550:10
	ldrb.w	r0, [sp, #9]
	.loc	1 550 3 epilogue_begin is_stmt 0 @ ../Board/v3/Src/usbd_conf.c:550:3
	add	sp, #16
	pop	{r7, pc}
.Ltmp82:
.Lfunc_end19:
	.size	USBD_LL_FlushEP, .Lfunc_end19-USBD_LL_FlushEP
	.cfi_endproc
	.cantunwind
	.fnend
                                        @ -- End function
	.section	.text.USBD_LL_StallEP,"ax",%progbits
	.hidden	USBD_LL_StallEP                 @ -- Begin function USBD_LL_StallEP
	.globl	USBD_LL_StallEP
	.p2align	2
	.type	USBD_LL_StallEP,%function
	.code	16                              @ @USBD_LL_StallEP
	.thumb_func
USBD_LL_StallEP:
.Lfunc_begin20:
	.loc	1 560 0 is_stmt 1               @ ../Board/v3/Src/usbd_conf.c:560:0
	.fnstart
	.cfi_startproc
@ %bb.0:
	.save	{r7, lr}
	push	{r7, lr}
	.cfi_def_cfa_offset 8
	.cfi_offset lr, -4
	.cfi_offset r7, -8
	.pad	#16
	sub	sp, #16
	.cfi_def_cfa_offset 24
                                        @ kill: def $r2 killed $r1
	str	r0, [sp, #12]
	strb.w	r1, [sp, #11]
	movs	r0, #0
.Ltmp83:
	.loc	1 561 21 prologue_end           @ ../Board/v3/Src/usbd_conf.c:561:21
	strb.w	r0, [sp, #10]
	.loc	1 562 22                        @ ../Board/v3/Src/usbd_conf.c:562:22
	strb.w	r0, [sp, #9]
	.loc	1 564 36                        @ ../Board/v3/Src/usbd_conf.c:564:36
	ldr	r0, [sp, #12]
	.loc	1 564 42 is_stmt 0              @ ../Board/v3/Src/usbd_conf.c:564:42
	ldr.w	r0, [r0, #708]
	.loc	1 564 49                        @ ../Board/v3/Src/usbd_conf.c:564:49
	ldrb.w	r1, [sp, #11]
	.loc	1 564 16                        @ ../Board/v3/Src/usbd_conf.c:564:16
	bl	HAL_PCD_EP_SetStall
	.loc	1 564 14                        @ ../Board/v3/Src/usbd_conf.c:564:14
	strb.w	r0, [sp, #10]
	.loc	1 566 11 is_stmt 1              @ ../Board/v3/Src/usbd_conf.c:566:11
	ldrb.w	r0, [sp, #10]
	.loc	1 566 3 is_stmt 0               @ ../Board/v3/Src/usbd_conf.c:566:3
	mov	r1, r0
	str	r1, [sp, #4]                    @ 4-byte Spill
	cmp	r0, #3
	bhi	.LBB20_7
@ %bb.1:
	.loc	1 0 3                           @ ../Board/v3/Src/usbd_conf.c:0:3
	ldr	r1, [sp, #4]                    @ 4-byte Reload
.LCPI20_0:
	tbb	[pc, r1]
@ %bb.2:
.LJTI20_0:
	.byte	(.LBB20_3-(.LCPI20_0+4))/2
	.byte	(.LBB20_4-(.LCPI20_0+4))/2
	.byte	(.LBB20_5-(.LCPI20_0+4))/2
	.byte	(.LBB20_6-(.LCPI20_0+4))/2
	.p2align	1
.LBB20_3:
	movs	r0, #0
.Ltmp84:
	.loc	1 568 18 is_stmt 1              @ ../Board/v3/Src/usbd_conf.c:568:18
	strb.w	r0, [sp, #9]
	.loc	1 569 5                         @ ../Board/v3/Src/usbd_conf.c:569:5
	b	.LBB20_8
.LBB20_4:
	.loc	1 0 5 is_stmt 0                 @ ../Board/v3/Src/usbd_conf.c:0:5
	movs	r0, #3
	.loc	1 571 18 is_stmt 1              @ ../Board/v3/Src/usbd_conf.c:571:18
	strb.w	r0, [sp, #9]
	.loc	1 572 5                         @ ../Board/v3/Src/usbd_conf.c:572:5
	b	.LBB20_8
.LBB20_5:
	.loc	1 0 5 is_stmt 0                 @ ../Board/v3/Src/usbd_conf.c:0:5
	movs	r0, #1
	.loc	1 574 18 is_stmt 1              @ ../Board/v3/Src/usbd_conf.c:574:18
	strb.w	r0, [sp, #9]
	.loc	1 575 5                         @ ../Board/v3/Src/usbd_conf.c:575:5
	b	.LBB20_8
.LBB20_6:
	.loc	1 0 5 is_stmt 0                 @ ../Board/v3/Src/usbd_conf.c:0:5
	movs	r0, #3
	.loc	1 577 18 is_stmt 1              @ ../Board/v3/Src/usbd_conf.c:577:18
	strb.w	r0, [sp, #9]
	.loc	1 578 5                         @ ../Board/v3/Src/usbd_conf.c:578:5
	b	.LBB20_8
.LBB20_7:
	.loc	1 0 5 is_stmt 0                 @ ../Board/v3/Src/usbd_conf.c:0:5
	movs	r0, #3
	.loc	1 580 18 is_stmt 1              @ ../Board/v3/Src/usbd_conf.c:580:18
	strb.w	r0, [sp, #9]
	.loc	1 581 5                         @ ../Board/v3/Src/usbd_conf.c:581:5
	b	.LBB20_8
.Ltmp85:
.LBB20_8:
	.loc	1 583 10                        @ ../Board/v3/Src/usbd_conf.c:583:10
	ldrb.w	r0, [sp, #9]
	.loc	1 583 3 epilogue_begin is_stmt 0 @ ../Board/v3/Src/usbd_conf.c:583:3
	add	sp, #16
	pop	{r7, pc}
.Ltmp86:
.Lfunc_end20:
	.size	USBD_LL_StallEP, .Lfunc_end20-USBD_LL_StallEP
	.cfi_endproc
	.cantunwind
	.fnend
                                        @ -- End function
	.section	.text.USBD_LL_ClearStallEP,"ax",%progbits
	.hidden	USBD_LL_ClearStallEP            @ -- Begin function USBD_LL_ClearStallEP
	.globl	USBD_LL_ClearStallEP
	.p2align	2
	.type	USBD_LL_ClearStallEP,%function
	.code	16                              @ @USBD_LL_ClearStallEP
	.thumb_func
USBD_LL_ClearStallEP:
.Lfunc_begin21:
	.loc	1 593 0 is_stmt 1               @ ../Board/v3/Src/usbd_conf.c:593:0
	.fnstart
	.cfi_startproc
@ %bb.0:
	.save	{r7, lr}
	push	{r7, lr}
	.cfi_def_cfa_offset 8
	.cfi_offset lr, -4
	.cfi_offset r7, -8
	.pad	#16
	sub	sp, #16
	.cfi_def_cfa_offset 24
                                        @ kill: def $r2 killed $r1
	str	r0, [sp, #12]
	strb.w	r1, [sp, #11]
	movs	r0, #0
.Ltmp87:
	.loc	1 594 21 prologue_end           @ ../Board/v3/Src/usbd_conf.c:594:21
	strb.w	r0, [sp, #10]
	.loc	1 595 22                        @ ../Board/v3/Src/usbd_conf.c:595:22
	strb.w	r0, [sp, #9]
	.loc	1 597 36                        @ ../Board/v3/Src/usbd_conf.c:597:36
	ldr	r0, [sp, #12]
	.loc	1 597 42 is_stmt 0              @ ../Board/v3/Src/usbd_conf.c:597:42
	ldr.w	r0, [r0, #708]
	.loc	1 597 49                        @ ../Board/v3/Src/usbd_conf.c:597:49
	ldrb.w	r1, [sp, #11]
	.loc	1 597 16                        @ ../Board/v3/Src/usbd_conf.c:597:16
	bl	HAL_PCD_EP_ClrStall
	.loc	1 597 14                        @ ../Board/v3/Src/usbd_conf.c:597:14
	strb.w	r0, [sp, #10]
	.loc	1 599 11 is_stmt 1              @ ../Board/v3/Src/usbd_conf.c:599:11
	ldrb.w	r0, [sp, #10]
	.loc	1 599 3 is_stmt 0               @ ../Board/v3/Src/usbd_conf.c:599:3
	mov	r1, r0
	str	r1, [sp, #4]                    @ 4-byte Spill
	cmp	r0, #3
	bhi	.LBB21_7
@ %bb.1:
	.loc	1 0 3                           @ ../Board/v3/Src/usbd_conf.c:0:3
	ldr	r1, [sp, #4]                    @ 4-byte Reload
.LCPI21_0:
	tbb	[pc, r1]
@ %bb.2:
.LJTI21_0:
	.byte	(.LBB21_3-(.LCPI21_0+4))/2
	.byte	(.LBB21_4-(.LCPI21_0+4))/2
	.byte	(.LBB21_5-(.LCPI21_0+4))/2
	.byte	(.LBB21_6-(.LCPI21_0+4))/2
	.p2align	1
.LBB21_3:
	movs	r0, #0
.Ltmp88:
	.loc	1 601 18 is_stmt 1              @ ../Board/v3/Src/usbd_conf.c:601:18
	strb.w	r0, [sp, #9]
	.loc	1 602 5                         @ ../Board/v3/Src/usbd_conf.c:602:5
	b	.LBB21_8
.LBB21_4:
	.loc	1 0 5 is_stmt 0                 @ ../Board/v3/Src/usbd_conf.c:0:5
	movs	r0, #3
	.loc	1 604 18 is_stmt 1              @ ../Board/v3/Src/usbd_conf.c:604:18
	strb.w	r0, [sp, #9]
	.loc	1 605 5                         @ ../Board/v3/Src/usbd_conf.c:605:5
	b	.LBB21_8
.LBB21_5:
	.loc	1 0 5 is_stmt 0                 @ ../Board/v3/Src/usbd_conf.c:0:5
	movs	r0, #1
	.loc	1 607 18 is_stmt 1              @ ../Board/v3/Src/usbd_conf.c:607:18
	strb.w	r0, [sp, #9]
	.loc	1 608 5                         @ ../Board/v3/Src/usbd_conf.c:608:5
	b	.LBB21_8
.LBB21_6:
	.loc	1 0 5 is_stmt 0                 @ ../Board/v3/Src/usbd_conf.c:0:5
	movs	r0, #3
	.loc	1 610 18 is_stmt 1              @ ../Board/v3/Src/usbd_conf.c:610:18
	strb.w	r0, [sp, #9]
	.loc	1 611 5                         @ ../Board/v3/Src/usbd_conf.c:611:5
	b	.LBB21_8
.LBB21_7:
	.loc	1 0 5 is_stmt 0                 @ ../Board/v3/Src/usbd_conf.c:0:5
	movs	r0, #3
	.loc	1 613 18 is_stmt 1              @ ../Board/v3/Src/usbd_conf.c:613:18
	strb.w	r0, [sp, #9]
	.loc	1 614 5                         @ ../Board/v3/Src/usbd_conf.c:614:5
	b	.LBB21_8
.Ltmp89:
.LBB21_8:
	.loc	1 616 10                        @ ../Board/v3/Src/usbd_conf.c:616:10
	ldrb.w	r0, [sp, #9]
	.loc	1 616 3 epilogue_begin is_stmt 0 @ ../Board/v3/Src/usbd_conf.c:616:3
	add	sp, #16
	pop	{r7, pc}
.Ltmp90:
.Lfunc_end21:
	.size	USBD_LL_ClearStallEP, .Lfunc_end21-USBD_LL_ClearStallEP
	.cfi_endproc
	.cantunwind
	.fnend
                                        @ -- End function
	.section	.text.USBD_LL_IsStallEP,"ax",%progbits
	.hidden	USBD_LL_IsStallEP               @ -- Begin function USBD_LL_IsStallEP
	.globl	USBD_LL_IsStallEP
	.p2align	2
	.type	USBD_LL_IsStallEP,%function
	.code	16                              @ @USBD_LL_IsStallEP
	.thumb_func
USBD_LL_IsStallEP:
.Lfunc_begin22:
	.loc	1 626 0 is_stmt 1               @ ../Board/v3/Src/usbd_conf.c:626:0
	.fnstart
	.cfi_startproc
@ %bb.0:
	.pad	#16
	sub	sp, #16
	.cfi_def_cfa_offset 16
                                        @ kill: def $r2 killed $r1
	str	r0, [sp, #8]
	strb.w	r1, [sp, #7]
.Ltmp91:
	.loc	1 627 50 prologue_end           @ ../Board/v3/Src/usbd_conf.c:627:50
	ldr	r0, [sp, #8]
	.loc	1 627 56 is_stmt 0              @ ../Board/v3/Src/usbd_conf.c:627:56
	ldr.w	r0, [r0, #708]
	.loc	1 627 22                        @ ../Board/v3/Src/usbd_conf.c:627:22
	str	r0, [sp]
.Ltmp92:
	.loc	1 629 7 is_stmt 1               @ ../Board/v3/Src/usbd_conf.c:629:7
	ldrb.w	r0, [sp, #7]
.Ltmp93:
	.loc	1 629 6 is_stmt 0               @ ../Board/v3/Src/usbd_conf.c:629:6
	lsls	r0, r0, #24
	cmp	r0, #0
	bpl	.LBB22_2
	b	.LBB22_1
.LBB22_1:
.Ltmp94:
	.loc	1 631 12 is_stmt 1              @ ../Board/v3/Src/usbd_conf.c:631:12
	ldr	r0, [sp]
	.loc	1 631 24 is_stmt 0              @ ../Board/v3/Src/usbd_conf.c:631:24
	ldrb.w	r1, [sp, #7]
	.loc	1 631 32                        @ ../Board/v3/Src/usbd_conf.c:631:32
	and	r1, r1, #127
	.loc	1 631 12                        @ ../Board/v3/Src/usbd_conf.c:631:12
	rsb	r1, r1, r1, lsl #3
	.loc	1 631 18                        @ ../Board/v3/Src/usbd_conf.c:631:18
	add.w	r0, r0, r1, lsl #2
	.loc	1 631 40                        @ ../Board/v3/Src/usbd_conf.c:631:40
	ldrb.w	r0, [r0, #58]
	.loc	1 631 5                         @ ../Board/v3/Src/usbd_conf.c:631:5
	strb.w	r0, [sp, #15]
	b	.LBB22_3
.Ltmp95:
.LBB22_2:
	.loc	1 635 12 is_stmt 1              @ ../Board/v3/Src/usbd_conf.c:635:12
	ldr	r0, [sp]
	.loc	1 635 25 is_stmt 0              @ ../Board/v3/Src/usbd_conf.c:635:25
	ldrb.w	r1, [sp, #7]
	.loc	1 635 33                        @ ../Board/v3/Src/usbd_conf.c:635:33
	and	r1, r1, #127
	.loc	1 635 12                        @ ../Board/v3/Src/usbd_conf.c:635:12
	rsb	r1, r1, r1, lsl #3
	.loc	1 635 18                        @ ../Board/v3/Src/usbd_conf.c:635:18
	add.w	r0, r0, r1, lsl #2
	.loc	1 635 41                        @ ../Board/v3/Src/usbd_conf.c:635:41
	ldrb.w	r0, [r0, #506]
	.loc	1 635 5                         @ ../Board/v3/Src/usbd_conf.c:635:5
	strb.w	r0, [sp, #15]
	b	.LBB22_3
.Ltmp96:
.LBB22_3:
	.loc	1 637 1 is_stmt 1               @ ../Board/v3/Src/usbd_conf.c:637:1
	ldrb.w	r0, [sp, #15]
	.loc	1 637 1 epilogue_begin is_stmt 0 @ ../Board/v3/Src/usbd_conf.c:637:1
	add	sp, #16
	bx	lr
.Ltmp97:
.Lfunc_end22:
	.size	USBD_LL_IsStallEP, .Lfunc_end22-USBD_LL_IsStallEP
	.cfi_endproc
	.cantunwind
	.fnend
                                        @ -- End function
	.section	.text.USBD_LL_SetUSBAddress,"ax",%progbits
	.hidden	USBD_LL_SetUSBAddress           @ -- Begin function USBD_LL_SetUSBAddress
	.globl	USBD_LL_SetUSBAddress
	.p2align	2
	.type	USBD_LL_SetUSBAddress,%function
	.code	16                              @ @USBD_LL_SetUSBAddress
	.thumb_func
USBD_LL_SetUSBAddress:
.Lfunc_begin23:
	.loc	1 646 0 is_stmt 1               @ ../Board/v3/Src/usbd_conf.c:646:0
	.fnstart
	.cfi_startproc
@ %bb.0:
	.save	{r7, lr}
	push	{r7, lr}
	.cfi_def_cfa_offset 8
	.cfi_offset lr, -4
	.cfi_offset r7, -8
	.pad	#16
	sub	sp, #16
	.cfi_def_cfa_offset 24
                                        @ kill: def $r2 killed $r1
	str	r0, [sp, #12]
	strb.w	r1, [sp, #11]
	movs	r0, #0
.Ltmp98:
	.loc	1 647 21 prologue_end           @ ../Board/v3/Src/usbd_conf.c:647:21
	strb.w	r0, [sp, #10]
	.loc	1 648 22                        @ ../Board/v3/Src/usbd_conf.c:648:22
	strb.w	r0, [sp, #9]
	.loc	1 650 35                        @ ../Board/v3/Src/usbd_conf.c:650:35
	ldr	r0, [sp, #12]
	.loc	1 650 41 is_stmt 0              @ ../Board/v3/Src/usbd_conf.c:650:41
	ldr.w	r0, [r0, #708]
	.loc	1 650 48                        @ ../Board/v3/Src/usbd_conf.c:650:48
	ldrb.w	r1, [sp, #11]
	.loc	1 650 16                        @ ../Board/v3/Src/usbd_conf.c:650:16
	bl	HAL_PCD_SetAddress
	.loc	1 650 14                        @ ../Board/v3/Src/usbd_conf.c:650:14
	strb.w	r0, [sp, #10]
	.loc	1 652 11 is_stmt 1              @ ../Board/v3/Src/usbd_conf.c:652:11
	ldrb.w	r0, [sp, #10]
	.loc	1 652 3 is_stmt 0               @ ../Board/v3/Src/usbd_conf.c:652:3
	mov	r1, r0
	str	r1, [sp, #4]                    @ 4-byte Spill
	cmp	r0, #3
	bhi	.LBB23_7
@ %bb.1:
	.loc	1 0 3                           @ ../Board/v3/Src/usbd_conf.c:0:3
	ldr	r1, [sp, #4]                    @ 4-byte Reload
.LCPI23_0:
	tbb	[pc, r1]
@ %bb.2:
.LJTI23_0:
	.byte	(.LBB23_3-(.LCPI23_0+4))/2
	.byte	(.LBB23_4-(.LCPI23_0+4))/2
	.byte	(.LBB23_5-(.LCPI23_0+4))/2
	.byte	(.LBB23_6-(.LCPI23_0+4))/2
	.p2align	1
.LBB23_3:
	movs	r0, #0
.Ltmp99:
	.loc	1 654 18 is_stmt 1              @ ../Board/v3/Src/usbd_conf.c:654:18
	strb.w	r0, [sp, #9]
	.loc	1 655 5                         @ ../Board/v3/Src/usbd_conf.c:655:5
	b	.LBB23_8
.LBB23_4:
	.loc	1 0 5 is_stmt 0                 @ ../Board/v3/Src/usbd_conf.c:0:5
	movs	r0, #3
	.loc	1 657 18 is_stmt 1              @ ../Board/v3/Src/usbd_conf.c:657:18
	strb.w	r0, [sp, #9]
	.loc	1 658 5                         @ ../Board/v3/Src/usbd_conf.c:658:5
	b	.LBB23_8
.LBB23_5:
	.loc	1 0 5 is_stmt 0                 @ ../Board/v3/Src/usbd_conf.c:0:5
	movs	r0, #1
	.loc	1 660 18 is_stmt 1              @ ../Board/v3/Src/usbd_conf.c:660:18
	strb.w	r0, [sp, #9]
	.loc	1 661 5                         @ ../Board/v3/Src/usbd_conf.c:661:5
	b	.LBB23_8
.LBB23_6:
	.loc	1 0 5 is_stmt 0                 @ ../Board/v3/Src/usbd_conf.c:0:5
	movs	r0, #3
	.loc	1 663 18 is_stmt 1              @ ../Board/v3/Src/usbd_conf.c:663:18
	strb.w	r0, [sp, #9]
	.loc	1 664 5                         @ ../Board/v3/Src/usbd_conf.c:664:5
	b	.LBB23_8
.LBB23_7:
	.loc	1 0 5 is_stmt 0                 @ ../Board/v3/Src/usbd_conf.c:0:5
	movs	r0, #3
	.loc	1 666 18 is_stmt 1              @ ../Board/v3/Src/usbd_conf.c:666:18
	strb.w	r0, [sp, #9]
	.loc	1 667 5                         @ ../Board/v3/Src/usbd_conf.c:667:5
	b	.LBB23_8
.Ltmp100:
.LBB23_8:
	.loc	1 669 10                        @ ../Board/v3/Src/usbd_conf.c:669:10
	ldrb.w	r0, [sp, #9]
	.loc	1 669 3 epilogue_begin is_stmt 0 @ ../Board/v3/Src/usbd_conf.c:669:3
	add	sp, #16
	pop	{r7, pc}
.Ltmp101:
.Lfunc_end23:
	.size	USBD_LL_SetUSBAddress, .Lfunc_end23-USBD_LL_SetUSBAddress
	.cfi_endproc
	.cantunwind
	.fnend
                                        @ -- End function
	.section	.text.USBD_LL_Transmit,"ax",%progbits
	.hidden	USBD_LL_Transmit                @ -- Begin function USBD_LL_Transmit
	.globl	USBD_LL_Transmit
	.p2align	2
	.type	USBD_LL_Transmit,%function
	.code	16                              @ @USBD_LL_Transmit
	.thumb_func
USBD_LL_Transmit:
.Lfunc_begin24:
	.loc	1 681 0 is_stmt 1               @ ../Board/v3/Src/usbd_conf.c:681:0
	.fnstart
	.cfi_startproc
@ %bb.0:
	.save	{r7, lr}
	push	{r7, lr}
	.cfi_def_cfa_offset 8
	.cfi_offset lr, -4
	.cfi_offset r7, -8
	.pad	#24
	sub	sp, #24
	.cfi_def_cfa_offset 32
                                        @ kill: def $r12 killed $r1
	str	r0, [sp, #20]
	strb.w	r1, [sp, #19]
	str	r2, [sp, #12]
	str	r3, [sp, #8]
	movs	r0, #0
.Ltmp102:
	.loc	1 682 21 prologue_end           @ ../Board/v3/Src/usbd_conf.c:682:21
	strb.w	r0, [sp, #7]
	.loc	1 683 22                        @ ../Board/v3/Src/usbd_conf.c:683:22
	strb.w	r0, [sp, #6]
	.loc	1 685 36                        @ ../Board/v3/Src/usbd_conf.c:685:36
	ldr	r0, [sp, #20]
	.loc	1 685 42 is_stmt 0              @ ../Board/v3/Src/usbd_conf.c:685:42
	ldr.w	r0, [r0, #708]
	.loc	1 685 49                        @ ../Board/v3/Src/usbd_conf.c:685:49
	ldrb.w	r1, [sp, #19]
	.loc	1 685 58                        @ ../Board/v3/Src/usbd_conf.c:685:58
	ldr	r2, [sp, #12]
	.loc	1 685 64                        @ ../Board/v3/Src/usbd_conf.c:685:64
	ldr	r3, [sp, #8]
	.loc	1 685 16                        @ ../Board/v3/Src/usbd_conf.c:685:16
	bl	HAL_PCD_EP_Transmit
	.loc	1 685 14                        @ ../Board/v3/Src/usbd_conf.c:685:14
	strb.w	r0, [sp, #7]
	.loc	1 687 11 is_stmt 1              @ ../Board/v3/Src/usbd_conf.c:687:11
	ldrb.w	r0, [sp, #7]
	.loc	1 687 3 is_stmt 0               @ ../Board/v3/Src/usbd_conf.c:687:3
	mov	r1, r0
	str	r1, [sp]                        @ 4-byte Spill
	cmp	r0, #3
	bhi	.LBB24_7
@ %bb.1:
	.loc	1 0 3                           @ ../Board/v3/Src/usbd_conf.c:0:3
	ldr	r1, [sp]                        @ 4-byte Reload
.LCPI24_0:
	tbb	[pc, r1]
@ %bb.2:
.LJTI24_0:
	.byte	(.LBB24_3-(.LCPI24_0+4))/2
	.byte	(.LBB24_4-(.LCPI24_0+4))/2
	.byte	(.LBB24_5-(.LCPI24_0+4))/2
	.byte	(.LBB24_6-(.LCPI24_0+4))/2
	.p2align	1
.LBB24_3:
	movs	r0, #0
.Ltmp103:
	.loc	1 689 18 is_stmt 1              @ ../Board/v3/Src/usbd_conf.c:689:18
	strb.w	r0, [sp, #6]
	.loc	1 690 5                         @ ../Board/v3/Src/usbd_conf.c:690:5
	b	.LBB24_8
.LBB24_4:
	.loc	1 0 5 is_stmt 0                 @ ../Board/v3/Src/usbd_conf.c:0:5
	movs	r0, #3
	.loc	1 692 18 is_stmt 1              @ ../Board/v3/Src/usbd_conf.c:692:18
	strb.w	r0, [sp, #6]
	.loc	1 693 5                         @ ../Board/v3/Src/usbd_conf.c:693:5
	b	.LBB24_8
.LBB24_5:
	.loc	1 0 5 is_stmt 0                 @ ../Board/v3/Src/usbd_conf.c:0:5
	movs	r0, #1
	.loc	1 695 18 is_stmt 1              @ ../Board/v3/Src/usbd_conf.c:695:18
	strb.w	r0, [sp, #6]
	.loc	1 696 5                         @ ../Board/v3/Src/usbd_conf.c:696:5
	b	.LBB24_8
.LBB24_6:
	.loc	1 0 5 is_stmt 0                 @ ../Board/v3/Src/usbd_conf.c:0:5
	movs	r0, #3
	.loc	1 698 18 is_stmt 1              @ ../Board/v3/Src/usbd_conf.c:698:18
	strb.w	r0, [sp, #6]
	.loc	1 699 5                         @ ../Board/v3/Src/usbd_conf.c:699:5
	b	.LBB24_8
.LBB24_7:
	.loc	1 0 5 is_stmt 0                 @ ../Board/v3/Src/usbd_conf.c:0:5
	movs	r0, #3
	.loc	1 701 18 is_stmt 1              @ ../Board/v3/Src/usbd_conf.c:701:18
	strb.w	r0, [sp, #6]
	.loc	1 702 5                         @ ../Board/v3/Src/usbd_conf.c:702:5
	b	.LBB24_8
.Ltmp104:
.LBB24_8:
	.loc	1 704 10                        @ ../Board/v3/Src/usbd_conf.c:704:10
	ldrb.w	r0, [sp, #6]
	.loc	1 704 3 epilogue_begin is_stmt 0 @ ../Board/v3/Src/usbd_conf.c:704:3
	add	sp, #24
	pop	{r7, pc}
.Ltmp105:
.Lfunc_end24:
	.size	USBD_LL_Transmit, .Lfunc_end24-USBD_LL_Transmit
	.cfi_endproc
	.cantunwind
	.fnend
                                        @ -- End function
	.section	.text.USBD_LL_PrepareReceive,"ax",%progbits
	.hidden	USBD_LL_PrepareReceive          @ -- Begin function USBD_LL_PrepareReceive
	.globl	USBD_LL_PrepareReceive
	.p2align	2
	.type	USBD_LL_PrepareReceive,%function
	.code	16                              @ @USBD_LL_PrepareReceive
	.thumb_func
USBD_LL_PrepareReceive:
.Lfunc_begin25:
	.loc	1 716 0 is_stmt 1               @ ../Board/v3/Src/usbd_conf.c:716:0
	.fnstart
	.cfi_startproc
@ %bb.0:
	.save	{r7, lr}
	push	{r7, lr}
	.cfi_def_cfa_offset 8
	.cfi_offset lr, -4
	.cfi_offset r7, -8
	.pad	#24
	sub	sp, #24
	.cfi_def_cfa_offset 32
                                        @ kill: def $r12 killed $r1
	str	r0, [sp, #20]
	strb.w	r1, [sp, #19]
	str	r2, [sp, #12]
	str	r3, [sp, #8]
	movs	r0, #0
.Ltmp106:
	.loc	1 717 21 prologue_end           @ ../Board/v3/Src/usbd_conf.c:717:21
	strb.w	r0, [sp, #7]
	.loc	1 718 22                        @ ../Board/v3/Src/usbd_conf.c:718:22
	strb.w	r0, [sp, #6]
	.loc	1 720 35                        @ ../Board/v3/Src/usbd_conf.c:720:35
	ldr	r0, [sp, #20]
	.loc	1 720 41 is_stmt 0              @ ../Board/v3/Src/usbd_conf.c:720:41
	ldr.w	r0, [r0, #708]
	.loc	1 720 48                        @ ../Board/v3/Src/usbd_conf.c:720:48
	ldrb.w	r1, [sp, #19]
	.loc	1 720 57                        @ ../Board/v3/Src/usbd_conf.c:720:57
	ldr	r2, [sp, #12]
	.loc	1 720 63                        @ ../Board/v3/Src/usbd_conf.c:720:63
	ldr	r3, [sp, #8]
	.loc	1 720 16                        @ ../Board/v3/Src/usbd_conf.c:720:16
	bl	HAL_PCD_EP_Receive
	.loc	1 720 14                        @ ../Board/v3/Src/usbd_conf.c:720:14
	strb.w	r0, [sp, #7]
	.loc	1 722 11 is_stmt 1              @ ../Board/v3/Src/usbd_conf.c:722:11
	ldrb.w	r0, [sp, #7]
	.loc	1 722 3 is_stmt 0               @ ../Board/v3/Src/usbd_conf.c:722:3
	mov	r1, r0
	str	r1, [sp]                        @ 4-byte Spill
	cmp	r0, #3
	bhi	.LBB25_7
@ %bb.1:
	.loc	1 0 3                           @ ../Board/v3/Src/usbd_conf.c:0:3
	ldr	r1, [sp]                        @ 4-byte Reload
.LCPI25_0:
	tbb	[pc, r1]
@ %bb.2:
.LJTI25_0:
	.byte	(.LBB25_3-(.LCPI25_0+4))/2
	.byte	(.LBB25_4-(.LCPI25_0+4))/2
	.byte	(.LBB25_5-(.LCPI25_0+4))/2
	.byte	(.LBB25_6-(.LCPI25_0+4))/2
	.p2align	1
.LBB25_3:
	movs	r0, #0
.Ltmp107:
	.loc	1 724 18 is_stmt 1              @ ../Board/v3/Src/usbd_conf.c:724:18
	strb.w	r0, [sp, #6]
	.loc	1 725 5                         @ ../Board/v3/Src/usbd_conf.c:725:5
	b	.LBB25_8
.LBB25_4:
	.loc	1 0 5 is_stmt 0                 @ ../Board/v3/Src/usbd_conf.c:0:5
	movs	r0, #3
	.loc	1 727 18 is_stmt 1              @ ../Board/v3/Src/usbd_conf.c:727:18
	strb.w	r0, [sp, #6]
	.loc	1 728 5                         @ ../Board/v3/Src/usbd_conf.c:728:5
	b	.LBB25_8
.LBB25_5:
	.loc	1 0 5 is_stmt 0                 @ ../Board/v3/Src/usbd_conf.c:0:5
	movs	r0, #1
	.loc	1 730 18 is_stmt 1              @ ../Board/v3/Src/usbd_conf.c:730:18
	strb.w	r0, [sp, #6]
	.loc	1 731 5                         @ ../Board/v3/Src/usbd_conf.c:731:5
	b	.LBB25_8
.LBB25_6:
	.loc	1 0 5 is_stmt 0                 @ ../Board/v3/Src/usbd_conf.c:0:5
	movs	r0, #3
	.loc	1 733 18 is_stmt 1              @ ../Board/v3/Src/usbd_conf.c:733:18
	strb.w	r0, [sp, #6]
	.loc	1 734 5                         @ ../Board/v3/Src/usbd_conf.c:734:5
	b	.LBB25_8
.LBB25_7:
	.loc	1 0 5 is_stmt 0                 @ ../Board/v3/Src/usbd_conf.c:0:5
	movs	r0, #3
	.loc	1 736 18 is_stmt 1              @ ../Board/v3/Src/usbd_conf.c:736:18
	strb.w	r0, [sp, #6]
	.loc	1 737 5                         @ ../Board/v3/Src/usbd_conf.c:737:5
	b	.LBB25_8
.Ltmp108:
.LBB25_8:
	.loc	1 739 10                        @ ../Board/v3/Src/usbd_conf.c:739:10
	ldrb.w	r0, [sp, #6]
	.loc	1 739 3 epilogue_begin is_stmt 0 @ ../Board/v3/Src/usbd_conf.c:739:3
	add	sp, #24
	pop	{r7, pc}
.Ltmp109:
.Lfunc_end25:
	.size	USBD_LL_PrepareReceive, .Lfunc_end25-USBD_LL_PrepareReceive
	.cfi_endproc
	.cantunwind
	.fnend
                                        @ -- End function
	.section	.text.USBD_LL_GetRxDataSize,"ax",%progbits
	.hidden	USBD_LL_GetRxDataSize           @ -- Begin function USBD_LL_GetRxDataSize
	.globl	USBD_LL_GetRxDataSize
	.p2align	2
	.type	USBD_LL_GetRxDataSize,%function
	.code	16                              @ @USBD_LL_GetRxDataSize
	.thumb_func
USBD_LL_GetRxDataSize:
.Lfunc_begin26:
	.loc	1 749 0 is_stmt 1               @ ../Board/v3/Src/usbd_conf.c:749:0
	.fnstart
	.cfi_startproc
@ %bb.0:
	.save	{r7, lr}
	push	{r7, lr}
	.cfi_def_cfa_offset 8
	.cfi_offset lr, -4
	.cfi_offset r7, -8
	.pad	#8
	sub	sp, #8
	.cfi_def_cfa_offset 16
                                        @ kill: def $r2 killed $r1
	str	r0, [sp, #4]
	strb.w	r1, [sp, #3]
.Ltmp110:
	.loc	1 750 53 prologue_end           @ ../Board/v3/Src/usbd_conf.c:750:53
	ldr	r0, [sp, #4]
	.loc	1 750 59 is_stmt 0              @ ../Board/v3/Src/usbd_conf.c:750:59
	ldr.w	r0, [r0, #708]
	.loc	1 750 66                        @ ../Board/v3/Src/usbd_conf.c:750:66
	ldrb.w	r1, [sp, #3]
	.loc	1 750 10                        @ ../Board/v3/Src/usbd_conf.c:750:10
	bl	HAL_PCD_EP_GetRxCount
	.loc	1 750 3 epilogue_begin          @ ../Board/v3/Src/usbd_conf.c:750:3
	add	sp, #8
	pop	{r7, pc}
.Ltmp111:
.Lfunc_end26:
	.size	USBD_LL_GetRxDataSize, .Lfunc_end26-USBD_LL_GetRxDataSize
	.cfi_endproc
	.cantunwind
	.fnend
                                        @ -- End function
	.section	.text.USBD_LL_Delay,"ax",%progbits
	.hidden	USBD_LL_Delay                   @ -- Begin function USBD_LL_Delay
	.globl	USBD_LL_Delay
	.p2align	2
	.type	USBD_LL_Delay,%function
	.code	16                              @ @USBD_LL_Delay
	.thumb_func
USBD_LL_Delay:
.Lfunc_begin27:
	.loc	1 797 0 is_stmt 1               @ ../Board/v3/Src/usbd_conf.c:797:0
	.fnstart
	.cfi_startproc
@ %bb.0:
	.save	{r7, lr}
	push	{r7, lr}
	.cfi_def_cfa_offset 8
	.cfi_offset lr, -4
	.cfi_offset r7, -8
	.pad	#8
	sub	sp, #8
	.cfi_def_cfa_offset 16
	str	r0, [sp, #4]
.Ltmp112:
	.loc	1 798 13 prologue_end           @ ../Board/v3/Src/usbd_conf.c:798:13
	ldr	r0, [sp, #4]
	.loc	1 798 3 is_stmt 0               @ ../Board/v3/Src/usbd_conf.c:798:3
	bl	HAL_Delay
	.loc	1 799 1 epilogue_begin is_stmt 1 @ ../Board/v3/Src/usbd_conf.c:799:1
	add	sp, #8
	pop	{r7, pc}
.Ltmp113:
.Lfunc_end27:
	.size	USBD_LL_Delay, .Lfunc_end27-USBD_LL_Delay
	.cfi_endproc
	.cantunwind
	.fnend
                                        @ -- End function
	.hidden	hpcd_USB_OTG_FS                 @ @hpcd_USB_OTG_FS
	.type	hpcd_USB_OTG_FS,%object
	.section	.bss.hpcd_USB_OTG_FS,"aw",%nobits
	.globl	hpcd_USB_OTG_FS
	.p2align	2, 0x0
hpcd_USB_OTG_FS:
	.zero	1008
	.size	hpcd_USB_OTG_FS, 1008

	.type	.L.str,%object                  @ @.str
	.section	.rodata.str1.1,"aMS",%progbits,1
.L.str:
	.asciz	"../Board/v3/Src/usbd_conf.c"
	.size	.L.str, 28

	.file	10 "D:\\ikingtec\\Robot\\ODrive\\Firmware\\MDK-ARM" "../ThirdParty/STM32F4xx_HAL_Driver/Inc\\stm32f4xx_hal_gpio.h"
	.section	".note.GNU-stack","",%progbits
	.eabi_attribute	30, 6	@ Tag_ABI_optimization_goals
	.ARM_attribute	16, 1	@ Tag_AV_eba