	.text
	.syntax unified
	.eabi_attribute	67, "2.09"	@ Tag_conformance
	.cpu	cortex-m4
	.eabi_attribute	6, 13	@ Tag_CPU_arch
	.eabi_attribute	7, 77	@ Tag_CPU_arch_profile
	.eabi_attribute	8, 0	@ Tag_ARM_ISA_use
	.eabi_attribute	9, 2	@ Tag_THUMB_ISA_use
	.fpu	fpv4-sp-d16
	.eabi_attribute	27, 1	@ Tag_ABI_HardFP_use
	.eabi_attribute	36, 1	@ Tag_FP_HP_extension
	.eabi_attribute	34, 1	@ Tag_CPU_unaligned_access
	.eabi_attribute	17, 1	@ Tag_ABI_PCS_GOT_use
	.eabi_attribute	20, 2	@ Tag_ABI_FP_denormal
	.eabi_attribute	21, 0	@ Tag_ABI_FP_exceptions
	.eabi_attribute	23, 1	@ Tag_ABI_FP_number_model
	.eabi_attribute	24, 1	@ Tag_ABI_align_needed
	.eabi_attribute	25, 1	@ Tag_ABI_align_preserved
	.eabi_attribute	28, 1	@ Tag_ABI_VFP_args
	.eabi_attribute	38, 1	@ Tag_ABI_FP_16bit_format
	.eabi_attribute	18, 2	@ Tag_ABI_PCS_wchar_t
	.eabi_attribute	26, 1	@ Tag_ABI_enum_size
	.eabi_attribute	14, 0	@ Tag_ABI_PCS_R9_use
	.file	"usbd_cdc.c"
	.file	1 "D:\\Embed\\MDK\\MDK\\ARM\\ARMCompilerV621\\Bin\\..\\include" "stdint.h"
	.file	2 "D:\\ikingtec\\Robot\\ODrive\\Firmware\\MDK-ARM" "../ThirdParty/STM32_USB_Device_Library/Core/Inc/usbd_def.h"
	.file	3 "D:\\ikingtec\\Robot\\ODrive\\Firmware\\MDK-ARM" "../ThirdParty/STM32_USB_Device_Library/Class/CDC/Src/usbd_cdc.c"
	.file	4 "D:\\ikingtec\\Robot\\ODrive\\Firmware\\MDK-ARM" "../ThirdParty/STM32F4xx_HAL_Driver/Inc/stm32f4xx_hal_def.h"
	.file	5 "D:\\ikingtec\\Robot\\ODrive\\Firmware\\MDK-ARM" "../ThirdParty/STM32F4xx_HAL_Driver/Inc\\stm32f4xx_hal_pcd.h"
	.file	6 "D:\\ikingtec\\Robot\\ODrive\\Firmware\\MDK-ARM" "../ThirdParty/STM32_USB_Device_Library/Class/CDC/Inc\\usbd_cdc.h"
	.section	.text.USBD_CDC_Init,"ax",%progbits
	.p2align	2                               @ -- Begin function USBD_CDC_Init
	.type	USBD_CDC_Init,%function
	.code	16                              @ @USBD_CDC_Init
	.thumb_func
USBD_CDC_Init:
.Lfunc_begin0:
	.loc	3 329 0                         @ ../ThirdParty/STM32_USB_Device_Library/Class/CDC/Src/usbd_cdc.c:329:0
	.fnstart
	.cfi_sections .debug_frame
	.cfi_startproc
@ %bb.0:
	.save	{r7, lr}
	push	{r7, lr}
	.cfi_def_cfa_offset 8
	.cfi_offset lr, -4
	.cfi_offset r7, -8
	.pad	#56
	sub	sp, #56
	.cfi_def_cfa_offset 64
                                        @ kill: def $r2 killed $r1
	str	r0, [sp, #48]
	strb.w	r1, [sp, #47]
	movs	r0, #116
.Ltmp0:
	.loc	3 333 10 prologue_end           @ ../ThirdParty/STM32_USB_Device_Library/Class/CDC/Src/usbd_cdc.c:333:10
	bl	malloc
	.loc	3 333 8 is_stmt 0               @ ../ThirdParty/STM32_USB_Device_Library/Class/CDC/Src/usbd_cdc.c:333:8
	str	r0, [sp, #40]
.Ltmp1:
	.loc	3 335 7 is_stmt 1               @ ../ThirdParty/STM32_USB_Device_Library/Class/CDC/Src/usbd_cdc.c:335:7
	ldr	r0, [sp, #40]
.Ltmp2:
	.loc	3 335 7 is_stmt 0               @ ../ThirdParty/STM32_USB_Device_Library/Class/CDC/Src/usbd_cdc.c:335:7
	cbnz	r0, .LBB0_2
	b	.LBB0_1
.LBB0_1:
.Ltmp3:
	.loc	3 337 5 is_stmt 1               @ ../ThirdParty/STM32_USB_Device_Library/Class/CDC/Src/usbd_cdc.c:337:5
	ldr	r1, [sp, #48]
	movs	r0, #0
	.loc	3 337 22 is_stmt 0              @ ../ThirdParty/STM32_USB_Device_Library/Class/CDC/Src/usbd_cdc.c:337:22
	str.w	r0, [r1, #700]
	movs	r0, #2
	.loc	3 338 5 is_stmt 1               @ ../ThirdParty/STM32_USB_Device_Library/Class/CDC/Src/usbd_cdc.c:338:5
	strb.w	r0, [sp, #55]
	b	.LBB0_6
.Ltmp4:
.LBB0_2:
	.loc	3 341 30                        @ ../ThirdParty/STM32_USB_Device_Library/Class/CDC/Src/usbd_cdc.c:341:30
	ldr	r0, [sp, #40]
	.loc	3 341 3 is_stmt 0               @ ../ThirdParty/STM32_USB_Device_Library/Class/CDC/Src/usbd_cdc.c:341:3
	ldr	r1, [sp, #48]
	.loc	3 341 20                        @ ../ThirdParty/STM32_USB_Device_Library/Class/CDC/Src/usbd_cdc.c:341:20
	str.w	r0, [r1, #700]
.Ltmp5:
	.loc	3 343 7 is_stmt 1               @ ../ThirdParty/STM32_USB_Device_Library/Class/CDC/Src/usbd_cdc.c:343:7
	ldr	r0, [sp, #48]
	.loc	3 343 13 is_stmt 0              @ ../ThirdParty/STM32_USB_Device_Library/Class/CDC/Src/usbd_cdc.c:343:13
	ldrb	r0, [r0, #16]
.Ltmp6:
	.loc	3 343 7                         @ ../ThirdParty/STM32_USB_Device_Library/Class/CDC/Src/usbd_cdc.c:343:7
	cbnz	r0, .LBB0_4
	b	.LBB0_3
.LBB0_3:
.Ltmp7:
	.loc	3 346 26 is_stmt 1              @ ../ThirdParty/STM32_USB_Device_Library/Class/CDC/Src/usbd_cdc.c:346:26
	ldr	r0, [sp, #48]
	movs	r1, #129
	movs	r2, #2
	str	r2, [sp, #28]                   @ 4-byte Spill
	movs	r3, #64
	.loc	3 346 11 is_stmt 0              @ ../ThirdParty/STM32_USB_Device_Library/Class/CDC/Src/usbd_cdc.c:346:11
	str	r3, [sp, #32]                   @ 4-byte Spill
	bl	USBD_LL_OpenEP
	ldr	r2, [sp, #28]                   @ 4-byte Reload
	ldr	r3, [sp, #32]                   @ 4-byte Reload
	.loc	3 349 6 is_stmt 1               @ ../ThirdParty/STM32_USB_Device_Library/Class/CDC/Src/usbd_cdc.c:349:6
	ldr	r0, [sp, #48]
	movs	r1, #1
	.loc	3 349 44 is_stmt 0              @ ../ThirdParty/STM32_USB_Device_Library/Class/CDC/Src/usbd_cdc.c:349:44
	str	r1, [sp, #36]                   @ 4-byte Spill
	strh	r1, [r0, #56]
	.loc	3 352 27 is_stmt 1              @ ../ThirdParty/STM32_USB_Device_Library/Class/CDC/Src/usbd_cdc.c:352:27
	ldr	r0, [sp, #48]
	.loc	3 352 12 is_stmt 0              @ ../ThirdParty/STM32_USB_Device_Library/Class/CDC/Src/usbd_cdc.c:352:12
	bl	USBD_LL_OpenEP
                                        @ kill: def $r1 killed $r0
	.loc	3 355 7 is_stmt 1               @ ../ThirdParty/STM32_USB_Device_Library/Class/CDC/Src/usbd_cdc.c:355:7
	ldr	r0, [sp, #36]                   @ 4-byte Reload
	ldr	r1, [sp, #48]
	.loc	3 355 47 is_stmt 0              @ ../ThirdParty/STM32_USB_Device_Library/Class/CDC/Src/usbd_cdc.c:355:47
	strh.w	r0, [r1, #376]
	.loc	3 358 7 is_stmt 1               @ ../ThirdParty/STM32_USB_Device_Library/Class/CDC/Src/usbd_cdc.c:358:7
	ldr	r1, [sp, #48]
	movs	r0, #16
	.loc	3 358 48 is_stmt 0              @ ../ThirdParty/STM32_USB_Device_Library/Class/CDC/Src/usbd_cdc.c:358:48
	strh.w	r0, [r1, #78]
	.loc	3 359 3 is_stmt 1               @ ../ThirdParty/STM32_USB_Device_Library/Class/CDC/Src/usbd_cdc.c:359:3
	b	.LBB0_5
.Ltmp8:
.LBB0_4:
	.loc	3 363 26                        @ ../ThirdParty/STM32_USB_Device_Library/Class/CDC/Src/usbd_cdc.c:363:26
	ldr	r0, [sp, #48]
	movs	r1, #129
	movs	r2, #2
	str	r2, [sp, #16]                   @ 4-byte Spill
	movs	r3, #64
	.loc	3 363 11 is_stmt 0              @ ../ThirdParty/STM32_USB_Device_Library/Class/CDC/Src/usbd_cdc.c:363:11
	str	r3, [sp, #20]                   @ 4-byte Spill
	bl	USBD_LL_OpenEP
	ldr	r2, [sp, #16]                   @ 4-byte Reload
	ldr	r3, [sp, #20]                   @ 4-byte Reload
	.loc	3 366 6 is_stmt 1               @ ../ThirdParty/STM32_USB_Device_Library/Class/CDC/Src/usbd_cdc.c:366:6
	ldr	r0, [sp, #48]
	movs	r1, #1
	.loc	3 366 44 is_stmt 0              @ ../ThirdParty/STM32_USB_Device_Library/Class/CDC/Src/usbd_cdc.c:366:44
	str	r1, [sp, #24]                   @ 4-byte Spill
	strh	r1, [r0, #56]
	.loc	3 369 27 is_stmt 1              @ ../ThirdParty/STM32_USB_Device_Library/Class/CDC/Src/usbd_cdc.c:369:27
	ldr	r0, [sp, #48]
	.loc	3 369 12 is_stmt 0              @ ../ThirdParty/STM32_USB_Device_Library/Class/CDC/Src/usbd_cdc.c:369:12
	bl	USBD_LL_OpenEP
                                        @ kill: def $r1 killed $r0
	.loc	3 372 7 is_stmt 1               @ ../ThirdParty/STM32_USB_Device_Library/Class/CDC/Src/usbd_cdc.c:372:7
	ldr	r0, [sp, #24]                   @ 4-byte Reload
	ldr	r1, [sp, #48]
	.loc	3 372 47 is_stmt 0              @ ../ThirdParty/STM32_USB_Device_Library/Class/CDC/Src/usbd_cdc.c:372:47
	strh.w	r0, [r1, #376]
	.loc	3 375 7 is_stmt 1               @ ../ThirdParty/STM32_USB_Device_Library/Class/CDC/Src/usbd_cdc.c:375:7
	ldr	r1, [sp, #48]
	movs	r0, #16
	.loc	3 375 48 is_stmt 0              @ ../ThirdParty/STM32_USB_Device_Library/Class/CDC/Src/usbd_cdc.c:375:48
	strh.w	r0, [r1, #78]
	b	.LBB0_5
.Ltmp9:
.LBB0_5:
	.loc	3 379 18 is_stmt 1              @ ../ThirdParty/STM32_USB_Device_Library/Class/CDC/Src/usbd_cdc.c:379:18
	ldr	r0, [sp, #48]
	movs	r1, #131
	movs	r2, #2
	str	r2, [sp]                        @ 4-byte Spill
	movs	r3, #64
	.loc	3 379 3 is_stmt 0               @ ../ThirdParty/STM32_USB_Device_Library/Class/CDC/Src/usbd_cdc.c:379:3
	str	r3, [sp, #4]                    @ 4-byte Spill
	bl	USBD_LL_OpenEP
	ldr	r2, [sp]                        @ 4-byte Reload
	ldr	r3, [sp, #4]                    @ 4-byte Reload
	.loc	3 384 3 is_stmt 1               @ ../ThirdParty/STM32_USB_Device_Library/Class/CDC/Src/usbd_cdc.c:384:3
	ldr	r1, [sp, #48]
	movs	r0, #1
	.loc	3 384 44 is_stmt 0              @ ../ThirdParty/STM32_USB_Device_Library/Class/CDC/Src/usbd_cdc.c:384:44
	str	r0, [sp, #12]                   @ 4-byte Spill
	strh.w	r0, [r1, #96]
	.loc	3 387 18 is_stmt 1              @ ../ThirdParty/STM32_USB_Device_Library/Class/CDC/Src/usbd_cdc.c:387:18
	ldr	r0, [sp, #48]
	movs	r1, #3
	.loc	3 387 3 is_stmt 0               @ ../ThirdParty/STM32_USB_Device_Library/Class/CDC/Src/usbd_cdc.c:387:3
	str	r1, [sp, #8]                    @ 4-byte Spill
	bl	USBD_LL_OpenEP
	ldr	r2, [sp, #8]                    @ 4-byte Reload
                                        @ kill: def $r1 killed $r0
	.loc	3 392 3 is_stmt 1               @ ../ThirdParty/STM32_USB_Device_Library/Class/CDC/Src/usbd_cdc.c:392:3
	ldr	r0, [sp, #12]                   @ 4-byte Reload
	ldr	r1, [sp, #48]
	.loc	3 392 46 is_stmt 0              @ ../ThirdParty/STM32_USB_Device_Library/Class/CDC/Src/usbd_cdc.c:392:46
	strh.w	r0, [r1, #416]
	.loc	3 395 24 is_stmt 1              @ ../ThirdParty/STM32_USB_Device_Library/Class/CDC/Src/usbd_cdc.c:395:24
	ldr	r0, [sp, #48]
	movs	r1, #130
	movs	r3, #8
	.loc	3 395 9 is_stmt 0               @ ../ThirdParty/STM32_USB_Device_Library/Class/CDC/Src/usbd_cdc.c:395:9
	bl	USBD_LL_OpenEP
                                        @ kill: def $r1 killed $r0
	.loc	3 396 3 is_stmt 1               @ ../ThirdParty/STM32_USB_Device_Library/Class/CDC/Src/usbd_cdc.c:396:3
	ldr	r0, [sp, #12]                   @ 4-byte Reload
	ldr	r1, [sp, #48]
	.loc	3 396 42 is_stmt 0              @ ../ThirdParty/STM32_USB_Device_Library/Class/CDC/Src/usbd_cdc.c:396:42
	strh.w	r0, [r1, #76]
	.loc	3 399 27 is_stmt 1              @ ../ThirdParty/STM32_USB_Device_Library/Class/CDC/Src/usbd_cdc.c:399:27
	ldr	r0, [sp, #48]
	.loc	3 399 33 is_stmt 0              @ ../ThirdParty/STM32_USB_Device_Library/Class/CDC/Src/usbd_cdc.c:399:33
	ldr.w	r0, [r0, #704]
	.loc	3 399 45                        @ ../ThirdParty/STM32_USB_Device_Library/Class/CDC/Src/usbd_cdc.c:399:45
	ldr	r0, [r0]
	.loc	3 399 3                         @ ../ThirdParty/STM32_USB_Device_Library/Class/CDC/Src/usbd_cdc.c:399:3
	blx	r0
	.loc	3 402 3 is_stmt 1               @ ../ThirdParty/STM32_USB_Device_Library/Class/CDC/Src/usbd_cdc.c:402:3
	ldr	r1, [sp, #40]
	movs	r0, #0
	.loc	3 402 22 is_stmt 0              @ ../ThirdParty/STM32_USB_Device_Library/Class/CDC/Src/usbd_cdc.c:402:22
	strb.w	r0, [r1, #76]
	.loc	3 403 3 is_stmt 1               @ ../ThirdParty/STM32_USB_Device_Library/Class/CDC/Src/usbd_cdc.c:403:3
	ldr	r1, [sp, #40]
	.loc	3 403 22 is_stmt 0              @ ../ThirdParty/STM32_USB_Device_Library/Class/CDC/Src/usbd_cdc.c:403:22
	strb.w	r0, [r1, #88]
	.loc	3 404 3 is_stmt 1               @ ../ThirdParty/STM32_USB_Device_Library/Class/CDC/Src/usbd_cdc.c:404:3
	ldr	r1, [sp, #40]
	.loc	3 404 25 is_stmt 0              @ ../ThirdParty/STM32_USB_Device_Library/Class/CDC/Src/usbd_cdc.c:404:25
	strb.w	r0, [r1, #100]
	.loc	3 405 3 is_stmt 1               @ ../ThirdParty/STM32_USB_Device_Library/Class/CDC/Src/usbd_cdc.c:405:3
	ldr	r1, [sp, #40]
	.loc	3 405 25 is_stmt 0              @ ../ThirdParty/STM32_USB_Device_Library/Class/CDC/Src/usbd_cdc.c:405:25
	strb.w	r0, [r1, #112]
	.loc	3 407 3 is_stmt 1               @ ../ThirdParty/STM32_USB_Device_Library/Class/CDC/Src/usbd_cdc.c:407:3
	strb.w	r0, [sp, #55]
	b	.LBB0_6
.LBB0_6:
	.loc	3 408 1                         @ ../ThirdParty/STM32_USB_Device_Library/Class/CDC/Src/usbd_cdc.c:408:1
	ldrb.w	r0, [sp, #55]
	.loc	3 408 1 epilogue_begin is_stmt 0 @ ../ThirdParty/STM32_USB_Device_Library/Class/CDC/Src/usbd_cdc.c:408:1
	add	sp, #56
	pop	{r7, pc}
.Ltmp10:
.Lfunc_end0:
	.size	USBD_CDC_Init, .Lfunc_end0-USBD_CDC_Init
	.cfi_endproc
	.cantunwind
	.fnend
                                        @ -- End function
	.section	.text.USBD_CDC_DeInit,"ax",%progbits
	.p2align	2                               @ -- Begin function USBD_CDC_DeInit
	.type	USBD_CDC_DeInit,%function
	.code	16                              @ @USBD_CDC_DeInit
	.thumb_func
USBD_CDC_DeInit:
.Lfunc_begin1:
	.loc	3 418 0 is_stmt 1               @ ../ThirdParty/STM32_USB_Device_Library/Class/CDC/Src/usbd_cdc.c:418:0
	.fnstart
	.cfi_startproc
@ %bb.0:
	.save	{r7, lr}
	push	{r7, lr}
	.cfi_def_cfa_offset 8
	.cfi_offset lr, -4
	.cfi_offset r7, -8
	.pad	#16
	sub	sp, #16
	.cfi_def_cfa_offset 24
                                        @ kill: def $r2 killed $r1
	str	r0, [sp, #12]
	strb.w	r1, [sp, #11]
	movs	r0, #0
.Ltmp11:
	.loc	3 420 11 prologue_end           @ ../ThirdParty/STM32_USB_Device_Library/Class/CDC/Src/usbd_cdc.c:420:11
	str	r0, [sp, #4]                    @ 4-byte Spill
	strb.w	r0, [sp, #10]
	.loc	3 423 25                        @ ../ThirdParty/STM32_USB_Device_Library/Class/CDC/Src/usbd_cdc.c:423:25
	ldr	r0, [sp, #12]
	movs	r1, #129
	.loc	3 423 9 is_stmt 0               @ ../ThirdParty/STM32_USB_Device_Library/Class/CDC/Src/usbd_cdc.c:423:9
	bl	USBD_LL_CloseEP
                                        @ kill: def $r1 killed $r0
	.loc	3 424 3 is_stmt 1               @ ../ThirdParty/STM32_USB_Device_Library/Class/CDC/Src/usbd_cdc.c:424:3
	ldr	r0, [sp, #4]                    @ 4-byte Reload
	ldr	r1, [sp, #12]
	.loc	3 424 41 is_stmt 0              @ ../ThirdParty/STM32_USB_Device_Library/Class/CDC/Src/usbd_cdc.c:424:41
	strh	r0, [r1, #56]
	.loc	3 427 25 is_stmt 1              @ ../ThirdParty/STM32_USB_Device_Library/Class/CDC/Src/usbd_cdc.c:427:25
	ldr	r0, [sp, #12]
	movs	r1, #1
	.loc	3 427 9 is_stmt 0               @ ../ThirdParty/STM32_USB_Device_Library/Class/CDC/Src/usbd_cdc.c:427:9
	bl	USBD_LL_CloseEP
                                        @ kill: def $r1 killed $r0
	.loc	3 428 3 is_stmt 1               @ ../ThirdParty/STM32_USB_Device_Library/Class/CDC/Src/usbd_cdc.c:428:3
	ldr	r0, [sp, #4]                    @ 4-byte Reload
	ldr	r1, [sp, #12]
	.loc	3 428 43 is_stmt 0              @ ../ThirdParty/STM32_USB_Device_Library/Class/CDC/Src/usbd_cdc.c:428:43
	strh.w	r0, [r1, #376]
	.loc	3 431 25 is_stmt 1              @ ../ThirdParty/STM32_USB_Device_Library/Class/CDC/Src/usbd_cdc.c:431:25
	ldr	r0, [sp, #12]
	movs	r1, #130
	.loc	3 431 9 is_stmt 0               @ ../ThirdParty/STM32_USB_Device_Library/Class/CDC/Src/usbd_cdc.c:431:9
	bl	USBD_LL_CloseEP
                                        @ kill: def $r1 killed $r0
	.loc	3 432 3 is_stmt 1               @ ../ThirdParty/STM32_USB_Device_Library/Class/CDC/Src/usbd_cdc.c:432:3
	ldr	r0, [sp, #4]                    @ 4-byte Reload
	ldr	r1, [sp, #12]
	.loc	3 432 42 is_stmt 0              @ ../ThirdParty/STM32_USB_Device_Library/Class/CDC/Src/usbd_cdc.c:432:42
	strh.w	r0, [r1, #76]
	.loc	3 433 3 is_stmt 1               @ ../ThirdParty/STM32_USB_Device_Library/Class/CDC/Src/usbd_cdc.c:433:3
	ldr	r1, [sp, #12]
	.loc	3 433 44 is_stmt 0              @ ../ThirdParty/STM32_USB_Device_Library/Class/CDC/Src/usbd_cdc.c:433:44
	strh.w	r0, [r1, #78]
	.loc	3 436 25 is_stmt 1              @ ../ThirdParty/STM32_USB_Device_Library/Class/CDC/Src/usbd_cdc.c:436:25
	ldr	r0, [sp, #12]
	movs	r1, #131
	.loc	3 436 9 is_stmt 0               @ ../ThirdParty/STM32_USB_Device_Library/Class/CDC/Src/usbd_cdc.c:436:9
	bl	USBD_LL_CloseEP
                                        @ kill: def $r1 killed $r0
	.loc	3 437 3 is_stmt 1               @ ../ThirdParty/STM32_USB_Device_Library/Class/CDC/Src/usbd_cdc.c:437:3
	ldr	r0, [sp, #4]                    @ 4-byte Reload
	ldr	r1, [sp, #12]
	.loc	3 437 44 is_stmt 0              @ ../ThirdParty/STM32_USB_Device_Library/Class/CDC/Src/usbd_cdc.c:437:44
	strh.w	r0, [r1, #96]
	.loc	3 440 25 is_stmt 1              @ ../ThirdParty/STM32_USB_Device_Library/Class/CDC/Src/usbd_cdc.c:440:25
	ldr	r0, [sp, #12]
	movs	r1, #3
	.loc	3 440 9 is_stmt 0               @ ../ThirdParty/STM32_USB_Device_Library/Class/CDC/Src/usbd_cdc.c:440:9
	bl	USBD_LL_CloseEP
                                        @ kill: def $r1 killed $r0
	.loc	3 441 3 is_stmt 1               @ ../ThirdParty/STM32_USB_Device_Library/Class/CDC/Src/usbd_cdc.c:441:3
	ldr	r0, [sp, #4]                    @ 4-byte Reload
	ldr	r1, [sp, #12]
	.loc	3 441 46 is_stmt 0              @ ../ThirdParty/STM32_USB_Device_Library/Class/CDC/Src/usbd_cdc.c:441:46
	strh.w	r0, [r1, #416]
.Ltmp12:
	.loc	3 444 7 is_stmt 1               @ ../ThirdParty/STM32_USB_Device_Library/Class/CDC/Src/usbd_cdc.c:444:7
	ldr	r0, [sp, #12]
	.loc	3 444 13 is_stmt 0              @ ../ThirdParty/STM32_USB_Device_Library/Class/CDC/Src/usbd_cdc.c:444:13
	ldr.w	r0, [r0, #700]
.Ltmp13:
	.loc	3 444 7                         @ ../ThirdParty/STM32_USB_Device_Library/Class/CDC/Src/usbd_cdc.c:444:7
	cbz	r0, .LBB1_2
	b	.LBB1_1
.LBB1_1:
.Ltmp14:
	.loc	3 446 29 is_stmt 1              @ ../ThirdParty/STM32_USB_Device_Library/Class/CDC/Src/usbd_cdc.c:446:29
	ldr	r0, [sp, #12]
	.loc	3 446 35 is_stmt 0              @ ../ThirdParty/STM32_USB_Device_Library/Class/CDC/Src/usbd_cdc.c:446:35
	ldr.w	r0, [r0, #704]
	.loc	3 446 47                        @ ../ThirdParty/STM32_USB_Device_Library/Class/CDC/Src/usbd_cdc.c:446:47
	ldr	r0, [r0, #4]
	.loc	3 446 5                         @ ../ThirdParty/STM32_USB_Device_Library/Class/CDC/Src/usbd_cdc.c:446:5
	blx	r0
	.loc	3 447 21 is_stmt 1              @ ../ThirdParty/STM32_USB_Device_Library/Class/CDC/Src/usbd_cdc.c:447:21
	ldr	r0, [sp, #12]
	.loc	3 447 27 is_stmt 0              @ ../ThirdParty/STM32_USB_Device_Library/Class/CDC/Src/usbd_cdc.c:447:27
	ldr.w	r0, [r0, #700]
	.loc	3 447 11                        @ ../ThirdParty/STM32_USB_Device_Library/Class/CDC/Src/usbd_cdc.c:447:11
	bl	free
	.loc	3 448 5 is_stmt 1               @ ../ThirdParty/STM32_USB_Device_Library/Class/CDC/Src/usbd_cdc.c:448:5
	ldr	r1, [sp, #12]
	movs	r0, #0
	.loc	3 448 22 is_stmt 0              @ ../ThirdParty/STM32_USB_Device_Library/Class/CDC/Src/usbd_cdc.c:448:22
	str.w	r0, [r1, #700]
	.loc	3 449 3 is_stmt 1               @ ../ThirdParty/STM32_USB_Device_Library/Class/CDC/Src/usbd_cdc.c:449:3
	b	.LBB1_2
.Ltmp15:
.LBB1_2:
	.loc	3 451 10                        @ ../ThirdParty/STM32_USB_Device_Library/Class/CDC/Src/usbd_cdc.c:451:10
	ldrb.w	r0, [sp, #10]
	.loc	3 451 3 epilogue_begin is_stmt 0 @ ../ThirdParty/STM32_USB_Device_Library/Class/CDC/Src/usbd_cdc.c:451:3
	add	sp, #16
	pop	{r7, pc}
.Ltmp16:
.Lfunc_end1:
	.size	USBD_CDC_DeInit, .Lfunc_end1-USBD_CDC_DeInit
	.cfi_endproc
	.cantunwind
	.fnend
                                        @ -- End function
	.section	.text.USBD_CDC_Setup,"ax",%progbits
	.p2align	2                               @ -- Begin function USBD_CDC_Setup
	.type	USBD_CDC_Setup,%function
	.code	16                              @ @USBD_CDC_Setup
	.thumb_func
USBD_CDC_Setup:
.Lfunc_begin2:
	.loc	3 463 0 is_stmt 1               @ ../ThirdParty/STM32_USB_Device_Library/Class/CDC/Src/usbd_cdc.c:463:0
	.fnstart
	.cfi_startproc
@ %bb.0:
	.save	{r7, lr}
	push	{r7, lr}
	.cfi_def_cfa_offset 8
	.cfi_offset lr, -4
	.cfi_offset r7, -8
	.pad	#32
	sub	sp, #32
	.cfi_def_cfa_offset 40
	str	r0, [sp, #24]
	str	r1, [sp, #20]
.Ltmp17:
	.loc	3 464 60 prologue_end           @ ../ThirdParty/STM32_USB_Device_Library/Class/CDC/Src/usbd_cdc.c:464:60
	ldr	r0, [sp, #24]
	.loc	3 464 66 is_stmt 0              @ ../ThirdParty/STM32_USB_Device_Library/Class/CDC/Src/usbd_cdc.c:464:66
	ldr.w	r0, [r0, #700]
	.loc	3 464 27                        @ ../ThirdParty/STM32_USB_Device_Library/Class/CDC/Src/usbd_cdc.c:464:27
	str	r0, [sp, #16]
	movs	r0, #0
	.loc	3 465 11 is_stmt 1              @ ../ThirdParty/STM32_USB_Device_Library/Class/CDC/Src/usbd_cdc.c:465:11
	strb.w	r0, [sp, #15]
	.loc	3 466 12                        @ ../ThirdParty/STM32_USB_Device_Library/Class/CDC/Src/usbd_cdc.c:466:12
	strh.w	r0, [sp, #12]
	.loc	3 467 22                        @ ../ThirdParty/STM32_USB_Device_Library/Class/CDC/Src/usbd_cdc.c:467:22
	strb.w	r0, [sp, #11]
	.loc	3 469 11                        @ ../ThirdParty/STM32_USB_Device_Library/Class/CDC/Src/usbd_cdc.c:469:11
	ldr	r0, [sp, #20]
	ldrb	r0, [r0]
	.loc	3 469 26 is_stmt 0              @ ../ThirdParty/STM32_USB_Device_Library/Class/CDC/Src/usbd_cdc.c:469:26
	and	r0, r0, #96
	.loc	3 469 3                         @ ../ThirdParty/STM32_USB_Device_Library/Class/CDC/Src/usbd_cdc.c:469:3
	mov	r1, r0
	str	r1, [sp, #4]                    @ 4-byte Spill
	cbz	r0, .LBB2_9
	b	.LBB2_1
.LBB2_1:
	ldr	r0, [sp, #4]                    @ 4-byte Reload
	cmp	r0, #32
	bne.w	.LBB2_29
	b	.LBB2_2
.LBB2_2:
.Ltmp18:
	.loc	3 472 9 is_stmt 1               @ ../ThirdParty/STM32_USB_Device_Library/Class/CDC/Src/usbd_cdc.c:472:9
	ldr	r0, [sp, #20]
	.loc	3 472 14 is_stmt 0              @ ../ThirdParty/STM32_USB_Device_Library/Class/CDC/Src/usbd_cdc.c:472:14
	ldrh	r0, [r0, #6]
.Ltmp19:
	.loc	3 472 9                         @ ../ThirdParty/STM32_USB_Device_Library/Class/CDC/Src/usbd_cdc.c:472:9
	cbz	r0, .LBB2_7
	b	.LBB2_3
.LBB2_3:
.Ltmp20:
	.loc	3 474 12 is_stmt 1              @ ../ThirdParty/STM32_USB_Device_Library/Class/CDC/Src/usbd_cdc.c:474:12
	ldr	r0, [sp, #20]
	ldrb	r0, [r0]
.Ltmp21:
	.loc	3 474 11 is_stmt 0              @ ../ThirdParty/STM32_USB_Device_Library/Class/CDC/Src/usbd_cdc.c:474:11
	lsls	r0, r0, #24
	cmp	r0, #0
	bpl	.LBB2_5
	b	.LBB2_4
.LBB2_4:
.Ltmp22:
	.loc	3 476 33 is_stmt 1              @ ../ThirdParty/STM32_USB_Device_Library/Class/CDC/Src/usbd_cdc.c:476:33
	ldr	r0, [sp, #24]
	.loc	3 476 39 is_stmt 0              @ ../ThirdParty/STM32_USB_Device_Library/Class/CDC/Src/usbd_cdc.c:476:39
	ldr.w	r0, [r0, #704]
	.loc	3 476 51                        @ ../ThirdParty/STM32_USB_Device_Library/Class/CDC/Src/usbd_cdc.c:476:51
	ldr	r3, [r0, #8]
	.loc	3 476 59                        @ ../ThirdParty/STM32_USB_Device_Library/Class/CDC/Src/usbd_cdc.c:476:59
	ldr	r2, [sp, #20]
	.loc	3 476 64                        @ ../ThirdParty/STM32_USB_Device_Library/Class/CDC/Src/usbd_cdc.c:476:64
	ldrb	r0, [r2, #1]
	.loc	3 477 70 is_stmt 1              @ ../ThirdParty/STM32_USB_Device_Library/Class/CDC/Src/usbd_cdc.c:477:70
	ldr	r1, [sp, #16]
	.loc	3 478 64                        @ ../ThirdParty/STM32_USB_Device_Library/Class/CDC/Src/usbd_cdc.c:478:64
	ldrh	r2, [r2, #6]
	.loc	3 476 9                         @ ../ThirdParty/STM32_USB_Device_Library/Class/CDC/Src/usbd_cdc.c:476:9
	blx	r3
	.loc	3 480 34                        @ ../ThirdParty/STM32_USB_Device_Library/Class/CDC/Src/usbd_cdc.c:480:34
	ldr	r0, [sp, #24]
	.loc	3 480 51 is_stmt 0              @ ../ThirdParty/STM32_USB_Device_Library/Class/CDC/Src/usbd_cdc.c:480:51
	ldr	r1, [sp, #16]
	.loc	3 480 63                        @ ../ThirdParty/STM32_USB_Device_Library/Class/CDC/Src/usbd_cdc.c:480:63
	ldr	r2, [sp, #20]
	.loc	3 480 68                        @ ../ThirdParty/STM32_USB_Device_Library/Class/CDC/Src/usbd_cdc.c:480:68
	ldrh	r2, [r2, #6]
	.loc	3 480 17                        @ ../ThirdParty/STM32_USB_Device_Library/Class/CDC/Src/usbd_cdc.c:480:17
	bl	USBD_CtlSendData
	.loc	3 481 7 is_stmt 1               @ ../ThirdParty/STM32_USB_Device_Library/Class/CDC/Src/usbd_cdc.c:481:7
	b	.LBB2_6
.Ltmp23:
.LBB2_5:
	.loc	3 484 27                        @ ../ThirdParty/STM32_USB_Device_Library/Class/CDC/Src/usbd_cdc.c:484:27
	ldr	r0, [sp, #20]
	.loc	3 484 32 is_stmt 0              @ ../ThirdParty/STM32_USB_Device_Library/Class/CDC/Src/usbd_cdc.c:484:32
	ldrb	r0, [r0, #1]
	.loc	3 484 9                         @ ../ThirdParty/STM32_USB_Device_Library/Class/CDC/Src/usbd_cdc.c:484:9
	ldr	r1, [sp, #16]
	.loc	3 484 25                        @ ../ThirdParty/STM32_USB_Device_Library/Class/CDC/Src/usbd_cdc.c:484:25
	strb.w	r0, [r1, #64]
	.loc	3 485 36 is_stmt 1              @ ../ThirdParty/STM32_USB_Device_Library/Class/CDC/Src/usbd_cdc.c:485:36
	ldr	r0, [sp, #20]
	.loc	3 485 41 is_stmt 0              @ ../ThirdParty/STM32_USB_Device_Library/Class/CDC/Src/usbd_cdc.c:485:41
	ldrb	r0, [r0, #6]
	.loc	3 485 9                         @ ../ThirdParty/STM32_USB_Device_Library/Class/CDC/Src/usbd_cdc.c:485:9
	ldr	r1, [sp, #16]
	.loc	3 485 25                        @ ../ThirdParty/STM32_USB_Device_Library/Class/CDC/Src/usbd_cdc.c:485:25
	strb.w	r0, [r1, #65]
	.loc	3 487 33 is_stmt 1              @ ../ThirdParty/STM32_USB_Device_Library/Class/CDC/Src/usbd_cdc.c:487:33
	ldr	r0, [sp, #24]
	.loc	3 487 50 is_stmt 0              @ ../ThirdParty/STM32_USB_Device_Library/Class/CDC/Src/usbd_cdc.c:487:50
	ldr	r1, [sp, #16]
	.loc	3 487 62                        @ ../ThirdParty/STM32_USB_Device_Library/Class/CDC/Src/usbd_cdc.c:487:62
	ldr	r2, [sp, #20]
	.loc	3 487 67                        @ ../ThirdParty/STM32_USB_Device_Library/Class/CDC/Src/usbd_cdc.c:487:67
	ldrh	r2, [r2, #6]
	.loc	3 487 15                        @ ../ThirdParty/STM32_USB_Device_Library/Class/CDC/Src/usbd_cdc.c:487:15
	bl	USBD_CtlPrepareRx
	b	.LBB2_6
.Ltmp24:
.LBB2_6:
	.loc	3 489 5 is_stmt 1               @ ../ThirdParty/STM32_USB_Device_Library/Class/CDC/Src/usbd_cdc.c:489:5
	b	.LBB2_8
.Ltmp25:
.LBB2_7:
	.loc	3 492 31                        @ ../ThirdParty/STM32_USB_Device_Library/Class/CDC/Src/usbd_cdc.c:492:31
	ldr	r0, [sp, #24]
	.loc	3 492 37 is_stmt 0              @ ../ThirdParty/STM32_USB_Device_Library/Class/CDC/Src/usbd_cdc.c:492:37
	ldr.w	r0, [r0, #704]
	.loc	3 492 49                        @ ../ThirdParty/STM32_USB_Device_Library/Class/CDC/Src/usbd_cdc.c:492:49
	ldr	r3, [r0, #8]
	.loc	3 492 57                        @ ../ThirdParty/STM32_USB_Device_Library/Class/CDC/Src/usbd_cdc.c:492:57
	ldr	r1, [sp, #20]
	.loc	3 492 62                        @ ../ThirdParty/STM32_USB_Device_Library/Class/CDC/Src/usbd_cdc.c:492:62
	ldrb	r0, [r1, #1]
	movs	r2, #0
	.loc	3 492 7                         @ ../ThirdParty/STM32_USB_Device_Library/Class/CDC/Src/usbd_cdc.c:492:7
	blx	r3
	b	.LBB2_8
.Ltmp26:
.LBB2_8:
	.loc	3 495 5 is_stmt 1               @ ../ThirdParty/STM32_USB_Device_Library/Class/CDC/Src/usbd_cdc.c:495:5
	b	.LBB2_30
.LBB2_9:
	.loc	3 498 13                        @ ../ThirdParty/STM32_USB_Device_Library/Class/CDC/Src/usbd_cdc.c:498:13
	ldr	r0, [sp, #20]
	.loc	3 498 18 is_stmt 0              @ ../ThirdParty/STM32_USB_Device_Library/Class/CDC/Src/usbd_cdc.c:498:18
	ldrb	r0, [r0, #1]
	.loc	3 498 5                         @ ../ThirdParty/STM32_USB_Device_Library/Class/CDC/Src/usbd_cdc.c:498:5
	mov	r1, r0
	str	r1, [sp]                        @ 4-byte Spill
	cbz	r0, .LBB2_14
	b	.LBB2_10
.LBB2_10:
	ldr	r0, [sp]                        @ 4-byte Reload
	cmp	r0, #1
	beq	.LBB2_25
	b	.LBB2_11
.LBB2_11:
	ldr	r0, [sp]                        @ 4-byte Reload
	cmp	r0, #10
	beq	.LBB2_18
	b	.LBB2_12
.LBB2_12:
	ldr	r0, [sp]                        @ 4-byte Reload
	cmp	r0, #11
	beq	.LBB2_22
	b	.LBB2_13
.LBB2_13:
	ldr	r0, [sp]                        @ 4-byte Reload
	cmp	r0, #64
	beq	.LBB2_26
	b	.LBB2_27
.LBB2_14:
.Ltmp27:
	.loc	3 501 11 is_stmt 1              @ ../ThirdParty/STM32_USB_Device_Library/Class/CDC/Src/usbd_cdc.c:501:11
	ldr	r0, [sp, #24]
	.loc	3 501 17 is_stmt 0              @ ../ThirdParty/STM32_USB_Device_Library/Class/CDC/Src/usbd_cdc.c:501:17
	ldrb.w	r0, [r0, #668]
.Ltmp28:
	.loc	3 501 11                        @ ../ThirdParty/STM32_USB_Device_Library/Class/CDC/Src/usbd_cdc.c:501:11
	cmp	r0, #3
	bne	.LBB2_16
	b	.LBB2_15
.LBB2_15:
.Ltmp29:
	.loc	3 503 32 is_stmt 1              @ ../ThirdParty/STM32_USB_Device_Library/Class/CDC/Src/usbd_cdc.c:503:32
	ldr	r0, [sp, #24]
	add	r1, sp, #12
	movs	r2, #2
	.loc	3 503 15 is_stmt 0              @ ../ThirdParty/STM32_USB_Device_Library/Class/CDC/Src/usbd_cdc.c:503:15
	bl	USBD_CtlSendData
	.loc	3 504 7 is_stmt 1               @ ../ThirdParty/STM32_USB_Device_Library/Class/CDC/Src/usbd_cdc.c:504:7
	b	.LBB2_17
.Ltmp30:
.LBB2_16:
	.loc	3 507 23                        @ ../ThirdParty/STM32_USB_Device_Library/Class/CDC/Src/usbd_cdc.c:507:23
	ldr	r0, [sp, #24]
	.loc	3 507 29 is_stmt 0              @ ../ThirdParty/STM32_USB_Device_Library/Class/CDC/Src/usbd_cdc.c:507:29
	ldr	r1, [sp, #20]
	.loc	3 507 9                         @ ../ThirdParty/STM32_USB_Device_Library/Class/CDC/Src/usbd_cdc.c:507:9
	bl	USBD_CtlError
	movs	r0, #3
	.loc	3 508 13 is_stmt 1              @ ../ThirdParty/STM32_USB_Device_Library/Class/CDC/Src/usbd_cdc.c:508:13
	strb.w	r0, [sp, #11]
	b	.LBB2_17
.Ltmp31:
.LBB2_17:
	.loc	3 510 7                         @ ../ThirdParty/STM32_USB_Device_Library/Class/CDC/Src/usbd_cdc.c:510:7
	b	.LBB2_28
.LBB2_18:
.Ltmp32:
	.loc	3 513 11                        @ ../ThirdParty/STM32_USB_Device_Library/Class/CDC/Src/usbd_cdc.c:513:11
	ldr	r0, [sp, #24]
	.loc	3 513 17 is_stmt 0              @ ../ThirdParty/STM32_USB_Device_Library/Class/CDC/Src/usbd_cdc.c:513:17
	ldrb.w	r0, [r0, #668]
.Ltmp33:
	.loc	3 513 11                        @ ../ThirdParty/STM32_USB_Device_Library/Class/CDC/Src/usbd_cdc.c:513:11
	cmp	r0, #3
	bne	.LBB2_20
	b	.LBB2_19
.LBB2_19:
.Ltmp34:
	.loc	3 515 32 is_stmt 1              @ ../ThirdParty/STM32_USB_Device_Library/Class/CDC/Src/usbd_cdc.c:515:32
	ldr	r0, [sp, #24]
	add.w	r1, sp, #15
	movs	r2, #1
	.loc	3 515 15 is_stmt 0              @ ../ThirdParty/STM32_USB_Device_Library/Class/CDC/Src/usbd_cdc.c:515:15
	bl	USBD_CtlSendData
	.loc	3 516 7 is_stmt 1               @ ../ThirdParty/STM32_USB_Device_Library/Class/CDC/Src/usbd_cdc.c:516:7
	b	.LBB2_21
.Ltmp35:
.LBB2_20:
	.loc	3 519 23                        @ ../ThirdParty/STM32_USB_Device_Library/Class/CDC/Src/usbd_cdc.c:519:23
	ldr	r0, [sp, #24]
	.loc	3 519 29 is_stmt 0              @ ../ThirdParty/STM32_USB_Device_Library/Class/CDC/Src/usbd_cdc.c:519:29
	ldr	r1, [sp, #20]
	.loc	3 519 9                         @ ../ThirdParty/STM32_USB_Device_Library/Class/CDC/Src/usbd_cdc.c:519:9
	bl	USBD_CtlError
	movs	r0, #3
	.loc	3 520 13 is_stmt 1              @ ../ThirdParty/STM32_USB_Device_Library/Class/CDC/Src/usbd_cdc.c:520:13
	strb.w	r0, [sp, #11]
	b	.LBB2_21
.Ltmp36:
.LBB2_21:
	.loc	3 522 7                         @ ../ThirdParty/STM32_USB_Device_Library/Class/CDC/Src/usbd_cdc.c:522:7
	b	.LBB2_28
.LBB2_22:
.Ltmp37:
	.loc	3 525 11                        @ ../ThirdParty/STM32_USB_Device_Library/Class/CDC/Src/usbd_cdc.c:525:11
	ldr	r0, [sp, #24]
	.loc	3 525 17 is_stmt 0              @ ../ThirdParty/STM32_USB_Device_Library/Class/CDC/Src/usbd_cdc.c:525:17
	ldrb.w	r0, [r0, #668]
.Ltmp38:
	.loc	3 525 11                        @ ../ThirdParty/STM32_USB_Device_Library/Class/CDC/Src/usbd_cdc.c:525:11
	cmp	r0, #3
	beq	.LBB2_24
	b	.LBB2_23
.LBB2_23:
.Ltmp39:
	.loc	3 527 23 is_stmt 1              @ ../ThirdParty/STM32_USB_Device_Library/Class/CDC/Src/usbd_cdc.c:527:23
	ldr	r0, [sp, #24]
	.loc	3 527 29 is_stmt 0              @ ../ThirdParty/STM32_USB_Device_Library/Class/CDC/Src/usbd_cdc.c:527:29
	ldr	r1, [sp, #20]
	.loc	3 527 9                         @ ../ThirdParty/STM32_USB_Device_Library/Class/CDC/Src/usbd_cdc.c:527:9
	bl	USBD_CtlError
	movs	r0, #3
	.loc	3 528 13 is_stmt 1              @ ../ThirdParty/STM32_USB_Device_Library/Class/CDC/Src/usbd_cdc.c:528:13
	strb.w	r0, [sp, #11]
	.loc	3 529 7                         @ ../ThirdParty/STM32_USB_Device_Library/Class/CDC/Src/usbd_cdc.c:529:7
	b	.LBB2_24
.Ltmp40:
.LBB2_24:
	.loc	3 530 7                         @ ../ThirdParty/STM32_USB_Device_Library/Class/CDC/Src/usbd_cdc.c:530:7
	b	.LBB2_28
.LBB2_25:
	.loc	3 533 7                         @ ../ThirdParty/STM32_USB_Device_Library/Class/CDC/Src/usbd_cdc.c:533:7
	b	.LBB2_28
.LBB2_26:
	.loc	3 536 42                        @ ../ThirdParty/STM32_USB_Device_Library/Class/CDC/Src/usbd_cdc.c:536:42
	ldr	r0, [sp, #24]
	.loc	3 536 48 is_stmt 0              @ ../ThirdParty/STM32_USB_Device_Library/Class/CDC/Src/usbd_cdc.c:536:48
	ldr	r1, [sp, #20]
	.loc	3 536 14                        @ ../ThirdParty/STM32_USB_Device_Library/Class/CDC/Src/usbd_cdc.c:536:14
	bl	USBD_WinUSBComm_SetupVendor
	.loc	3 536 7                         @ ../ThirdParty/STM32_USB_Device_Library/Class/CDC/Src/usbd_cdc.c:536:7
	strb.w	r0, [sp, #31]
	b	.LBB2_31
.LBB2_27:
	.loc	3 539 21 is_stmt 1              @ ../ThirdParty/STM32_USB_Device_Library/Class/CDC/Src/usbd_cdc.c:539:21
	ldr	r0, [sp, #24]
	.loc	3 539 27 is_stmt 0              @ ../ThirdParty/STM32_USB_Device_Library/Class/CDC/Src/usbd_cdc.c:539:27
	ldr	r1, [sp, #20]
	.loc	3 539 7                         @ ../ThirdParty/STM32_USB_Device_Library/Class/CDC/Src/usbd_cdc.c:539:7
	bl	USBD_CtlError
	movs	r0, #3
	.loc	3 540 11 is_stmt 1              @ ../ThirdParty/STM32_USB_Device_Library/Class/CDC/Src/usbd_cdc.c:540:11
	strb.w	r0, [sp, #11]
	.loc	3 541 7                         @ ../ThirdParty/STM32_USB_Device_Library/Class/CDC/Src/usbd_cdc.c:541:7
	b	.LBB2_28
.Ltmp41:
.LBB2_28:
	.loc	3 543 5                         @ ../ThirdParty/STM32_USB_Device_Library/Class/CDC/Src/usbd_cdc.c:543:5
	b	.LBB2_30
.LBB2_29:
	.loc	3 546 19                        @ ../ThirdParty/STM32_USB_Device_Library/Class/CDC/Src/usbd_cdc.c:546:19
	ldr	r0, [sp, #24]
	.loc	3 546 25 is_stmt 0              @ ../ThirdParty/STM32_USB_Device_Library/Class/CDC/Src/usbd_cdc.c:546:25
	ldr	r1, [sp, #20]
	.loc	3 546 5                         @ ../ThirdParty/STM32_USB_Device_Library/Class/CDC/Src/usbd_cdc.c:546:5
	bl	USBD_CtlError
	movs	r0, #3
	.loc	3 547 9 is_stmt 1               @ ../ThirdParty/STM32_USB_Device_Library/Class/CDC/Src/usbd_cdc.c:547:9
	strb.w	r0, [sp, #11]
	.loc	3 548 5                         @ ../ThirdParty/STM32_USB_Device_Library/Class/CDC/Src/usbd_cdc.c:548:5
	b	.LBB2_30
.Ltmp42:
.LBB2_30:
	.loc	3 551 19                        @ ../ThirdParty/STM32_USB_Device_Library/Class/CDC/Src/usbd_cdc.c:551:19
	ldrb.w	r0, [sp, #11]
	.loc	3 551 3 is_stmt 0               @ ../ThirdParty/STM32_USB_Device_Library/Class/CDC/Src/usbd_cdc.c:551:3
	strb.w	r0, [sp, #31]
	b	.LBB2_31
.LBB2_31:
	.loc	3 552 1 is_stmt 1               @ ../ThirdParty/STM32_USB_Device_Library/Class/CDC/Src/usbd_cdc.c:552:1
	ldrb.w	r0, [sp, #31]
	.loc	3 552 1 epilogue_begin is_stmt 0 @ ../ThirdParty/STM32_USB_Device_Library/Class/CDC/Src/usbd_cdc.c:552:1
	add	sp, #32
	pop	{r7, pc}
.Ltmp43:
.Lfunc_end2:
	.size	USBD_CDC_Setup, .Lfunc_end2-USBD_CDC_Setup
	.cfi_endproc
	.cantunwind
	.fnend
                                        @ -- End function
	.section	.text.USBD_CDC_EP0_RxReady,"ax",%progbits
	.p2align	2                               @ -- Begin function USBD_CDC_EP0_RxReady
	.type	USBD_CDC_EP0_RxReady,%function
	.code	16                              @ @USBD_CDC_EP0_RxReady
	.thumb_func
USBD_CDC_EP0_RxReady:
.Lfunc_begin3:
	.loc	3 643 0 is_stmt 1               @ ../ThirdParty/STM32_USB_Device_Library/Class/CDC/Src/usbd_cdc.c:643:0
	.fnstart
	.cfi_startproc
@ %bb.0:
	.save	{r7, lr}
	push	{r7, lr}
	.cfi_def_cfa_offset 8
	.cfi_offset lr, -4
	.cfi_offset r7, -8
	.pad	#8
	sub	sp, #8
	.cfi_def_cfa_offset 16
	str	r0, [sp, #4]
.Ltmp44:
	.loc	3 644 60 prologue_end           @ ../ThirdParty/STM32_USB_Device_Library/Class/CDC/Src/usbd_cdc.c:644:60
	ldr	r0, [sp, #4]
	.loc	3 644 66 is_stmt 0              @ ../ThirdParty/STM32_USB_Device_Library/Class/CDC/Src/usbd_cdc.c:644:66
	ldr.w	r0, [r0, #700]
	.loc	3 644 27                        @ ../ThirdParty/STM32_USB_Device_Library/Class/CDC/Src/usbd_cdc.c:644:27
	str	r0, [sp]
.Ltmp45:
	.loc	3 646 8 is_stmt 1               @ ../ThirdParty/STM32_USB_Device_Library/Class/CDC/Src/usbd_cdc.c:646:8
	ldr	r0, [sp, #4]
	.loc	3 646 14 is_stmt 0              @ ../ThirdParty/STM32_USB_Device_Library/Class/CDC/Src/usbd_cdc.c:646:14
	ldr.w	r0, [r0, #704]
	.loc	3 646 33                        @ ../ThirdParty/STM32_USB_Device_Library/Class/CDC/Src/usbd_cdc.c:646:33
	cbz	r0, .LBB3_3
	b	.LBB3_1
.LBB3_1:
	.loc	3 646 37                        @ ../ThirdParty/STM32_USB_Device_Library/Class/CDC/Src/usbd_cdc.c:646:37
	ldr	r0, [sp]
	.loc	3 646 43                        @ ../ThirdParty/STM32_USB_Device_Library/Class/CDC/Src/usbd_cdc.c:646:43
	ldrb.w	r0, [r0, #64]
.Ltmp46:
	.loc	3 646 7                         @ ../ThirdParty/STM32_USB_Device_Library/Class/CDC/Src/usbd_cdc.c:646:7
	cmp	r0, #255
	beq	.LBB3_3
	b	.LBB3_2
.LBB3_2:
.Ltmp47:
	.loc	3 648 29 is_stmt 1              @ ../ThirdParty/STM32_USB_Device_Library/Class/CDC/Src/usbd_cdc.c:648:29
	ldr	r0, [sp, #4]
	.loc	3 648 35 is_stmt 0              @ ../ThirdParty/STM32_USB_Device_Library/Class/CDC/Src/usbd_cdc.c:648:35
	ldr.w	r0, [r0, #704]
	.loc	3 648 47                        @ ../ThirdParty/STM32_USB_Device_Library/Class/CDC/Src/usbd_cdc.c:648:47
	ldr	r3, [r0, #8]
	.loc	3 648 55                        @ ../ThirdParty/STM32_USB_Device_Library/Class/CDC/Src/usbd_cdc.c:648:55
	ldr	r1, [sp]
	.loc	3 648 61                        @ ../ThirdParty/STM32_USB_Device_Library/Class/CDC/Src/usbd_cdc.c:648:61
	ldrb.w	r0, [r1, #64]
	.loc	3 650 71 is_stmt 1              @ ../ThirdParty/STM32_USB_Device_Library/Class/CDC/Src/usbd_cdc.c:650:71
	ldrb.w	r2, [r1, #65]
	.loc	3 648 5                         @ ../ThirdParty/STM32_USB_Device_Library/Class/CDC/Src/usbd_cdc.c:648:5
	blx	r3
	.loc	3 651 5                         @ ../ThirdParty/STM32_USB_Device_Library/Class/CDC/Src/usbd_cdc.c:651:5
	ldr	r1, [sp]
	movs	r0, #255
	.loc	3 651 21 is_stmt 0              @ ../ThirdParty/STM32_USB_Device_Library/Class/CDC/Src/usbd_cdc.c:651:21
	strb.w	r0, [r1, #64]
	.loc	3 653 3 is_stmt 1               @ ../ThirdParty/STM32_USB_Device_Library/Class/CDC/Src/usbd_cdc.c:653:3
	b	.LBB3_3
.Ltmp48:
.LBB3_3:
	.loc	3 0 3 is_stmt 0                 @ ../ThirdParty/STM32_USB_Device_Library/Class/CDC/Src/usbd_cdc.c:0:3
	movs	r0, #0
	.loc	3 655 3 epilogue_begin is_stmt 1 @ ../ThirdParty/STM32_USB_Device_Library/Class/CDC/Src/usbd_cdc.c:655:3
	add	sp, #8
	pop	{r7, pc}
.Ltmp49:
.Lfunc_end3:
	.size	USBD_CDC_EP0_RxReady, .Lfunc_end3-USBD_CDC_EP0_RxReady
	.cfi_endproc
	.cantunwind
	.fnend
                                        @ -- End function
	.section	.text.USBD_CDC_DataIn,"ax",%progbits
	.p2align	2                               @ -- Begin function USBD_CDC_DataIn
	.type	USBD_CDC_DataIn,%function
	.code	16                              @ @USBD_CDC_DataIn
	.thumb_func
USBD_CDC_DataIn:
.Lfunc_begin4:
	.loc	3 562 0                         @ ../ThirdParty/STM32_USB_Device_Library/Class/CDC/Src/usbd_cdc.c:562:0
	.fnstart
	.cfi_startproc
@ %bb.0:
	.save	{r7, lr}
	push	{r7, lr}
	.cfi_def_cfa_offset 8
	.cfi_offset lr, -4
	.cfi_offset r7, -8
	.pad	#24
	sub	sp, #24
	.cfi_def_cfa_offset 32
                                        @ kill: def $r2 killed $r1
	str	r0, [sp, #16]
	strb.w	r1, [sp, #15]
.Ltmp50:
	.loc	3 564 29 prologue_end           @ ../ThirdParty/STM32_USB_Device_Library/Class/CDC/Src/usbd_cdc.c:564:29
	ldr	r0, [sp, #16]
	.loc	3 564 35 is_stmt 0              @ ../ThirdParty/STM32_USB_Device_Library/Class/CDC/Src/usbd_cdc.c:564:35
	ldr.w	r0, [r0, #708]
	.loc	3 564 22                        @ ../ThirdParty/STM32_USB_Device_Library/Class/CDC/Src/usbd_cdc.c:564:22
	str	r0, [sp, #4]
.Ltmp51:
	.loc	3 566 7 is_stmt 1               @ ../ThirdParty/STM32_USB_Device_Library/Class/CDC/Src/usbd_cdc.c:566:7
	ldr	r0, [sp, #16]
	.loc	3 566 13 is_stmt 0              @ ../ThirdParty/STM32_USB_Device_Library/Class/CDC/Src/usbd_cdc.c:566:13
	ldr.w	r0, [r0, #700]
.Ltmp52:
	.loc	3 566 7                         @ ../ThirdParty/STM32_USB_Device_Library/Class/CDC/Src/usbd_cdc.c:566:7
	cbnz	r0, .LBB4_2
	b	.LBB4_1
.LBB4_1:
	.loc	3 0 7                           @ ../ThirdParty/STM32_USB_Device_Library/Class/CDC/Src/usbd_cdc.c:0:7
	movs	r0, #3
.Ltmp53:
	.loc	3 568 5 is_stmt 1               @ ../ThirdParty/STM32_USB_Device_Library/Class/CDC/Src/usbd_cdc.c:568:5
	strb.w	r0, [sp, #23]
	b	.LBB4_11
.Ltmp54:
.LBB4_2:
	.loc	3 571 36                        @ ../ThirdParty/STM32_USB_Device_Library/Class/CDC/Src/usbd_cdc.c:571:36
	ldr	r0, [sp, #16]
	.loc	3 571 42 is_stmt 0              @ ../ThirdParty/STM32_USB_Device_Library/Class/CDC/Src/usbd_cdc.c:571:42
	ldr.w	r0, [r0, #700]
	.loc	3 571 8                         @ ../ThirdParty/STM32_USB_Device_Library/Class/CDC/Src/usbd_cdc.c:571:8
	str	r0, [sp, #8]
.Ltmp55:
	.loc	3 573 8 is_stmt 1               @ ../ThirdParty/STM32_USB_Device_Library/Class/CDC/Src/usbd_cdc.c:573:8
	ldr	r0, [sp, #16]
	.loc	3 573 20 is_stmt 0              @ ../ThirdParty/STM32_USB_Device_Library/Class/CDC/Src/usbd_cdc.c:573:20
	ldrb.w	r1, [sp, #15]
	.loc	3 573 8                         @ ../ThirdParty/STM32_USB_Device_Library/Class/CDC/Src/usbd_cdc.c:573:8
	add.w	r1, r1, r1, lsl #2
	.loc	3 573 14                        @ ../ThirdParty/STM32_USB_Device_Library/Class/CDC/Src/usbd_cdc.c:573:14
	add.w	r0, r0, r1, lsl #2
	.loc	3 573 27                        @ ../ThirdParty/STM32_USB_Device_Library/Class/CDC/Src/usbd_cdc.c:573:27
	ldr	r0, [r0, #24]
	.loc	3 573 46                        @ ../ThirdParty/STM32_USB_Device_Library/Class/CDC/Src/usbd_cdc.c:573:46
	cbz	r0, .LBB4_5
	b	.LBB4_3
.LBB4_3:
	.loc	3 574 9 is_stmt 1               @ ../ThirdParty/STM32_USB_Device_Library/Class/CDC/Src/usbd_cdc.c:574:9
	ldr	r0, [sp, #16]
	.loc	3 574 21 is_stmt 0              @ ../ThirdParty/STM32_USB_Device_Library/Class/CDC/Src/usbd_cdc.c:574:21
	ldrb.w	r1, [sp, #15]
	.loc	3 574 9                         @ ../ThirdParty/STM32_USB_Device_Library/Class/CDC/Src/usbd_cdc.c:574:9
	add.w	r2, r1, r1, lsl #2
	.loc	3 574 15                        @ ../ThirdParty/STM32_USB_Device_Library/Class/CDC/Src/usbd_cdc.c:574:15
	add.w	r0, r0, r2, lsl #2
	.loc	3 574 28                        @ ../ThirdParty/STM32_USB_Device_Library/Class/CDC/Src/usbd_cdc.c:574:28
	ldr	r2, [r0, #24]
	.loc	3 574 43                        @ ../ThirdParty/STM32_USB_Device_Library/Class/CDC/Src/usbd_cdc.c:574:43
	ldr	r0, [sp, #4]
	rsb	r1, r1, r1, lsl #3
	.loc	3 574 49                        @ ../ThirdParty/STM32_USB_Device_Library/Class/CDC/Src/usbd_cdc.c:574:49
	add.w	r0, r0, r1, lsl #2
	.loc	3 574 62                        @ ../ThirdParty/STM32_USB_Device_Library/Class/CDC/Src/usbd_cdc.c:574:62
	ldr	r1, [r0, #64]
	.loc	3 574 41                        @ ../ThirdParty/STM32_USB_Device_Library/Class/CDC/Src/usbd_cdc.c:574:41
	udiv	r0, r2, r1
	mls	r0, r0, r1, r2
.Ltmp56:
	.loc	3 573 7 is_stmt 1               @ ../ThirdParty/STM32_USB_Device_Library/Class/CDC/Src/usbd_cdc.c:573:7
	cbnz	r0, .LBB4_5
	b	.LBB4_4
.LBB4_4:
.Ltmp57:
	.loc	3 577 5                         @ ../ThirdParty/STM32_USB_Device_Library/Class/CDC/Src/usbd_cdc.c:577:5
	ldr	r0, [sp, #16]
	.loc	3 577 17 is_stmt 0              @ ../ThirdParty/STM32_USB_Device_Library/Class/CDC/Src/usbd_cdc.c:577:17
	ldrb.w	r1, [sp, #15]
	.loc	3 577 5                         @ ../ThirdParty/STM32_USB_Device_Library/Class/CDC/Src/usbd_cdc.c:577:5
	add.w	r1, r1, r1, lsl #2
	.loc	3 577 11                        @ ../ThirdParty/STM32_USB_Device_Library/Class/CDC/Src/usbd_cdc.c:577:11
	add.w	r0, r0, r1, lsl #2
	movs	r3, #0
	.loc	3 577 37                        @ ../ThirdParty/STM32_USB_Device_Library/Class/CDC/Src/usbd_cdc.c:577:37
	str	r3, [r0, #24]
	.loc	3 580 28 is_stmt 1              @ ../ThirdParty/STM32_USB_Device_Library/Class/CDC/Src/usbd_cdc.c:580:28
	ldr	r0, [sp, #16]
	.loc	3 580 34 is_stmt 0              @ ../ThirdParty/STM32_USB_Device_Library/Class/CDC/Src/usbd_cdc.c:580:34
	ldrb.w	r1, [sp, #15]
	.loc	3 580 11                        @ ../ThirdParty/STM32_USB_Device_Library/Class/CDC/Src/usbd_cdc.c:580:11
	mov	r2, r3
	bl	USBD_LL_Transmit
	.loc	3 581 3 is_stmt 1               @ ../ThirdParty/STM32_USB_Device_Library/Class/CDC/Src/usbd_cdc.c:581:3
	b	.LBB4_10
.Ltmp58:
.LBB4_5:
	.loc	3 585 9                         @ ../ThirdParty/STM32_USB_Device_Library/Class/CDC/Src/usbd_cdc.c:585:9
	ldrb.w	r0, [sp, #15]
.Ltmp59:
	.loc	3 585 9 is_stmt 0               @ ../ThirdParty/STM32_USB_Device_Library/Class/CDC/Src/usbd_cdc.c:585:9
	cmp	r0, #1
	bne	.LBB4_7
	b	.LBB4_6
.LBB4_6:
.Ltmp60:
	.loc	3 586 7 is_stmt 1               @ ../ThirdParty/STM32_USB_Device_Library/Class/CDC/Src/usbd_cdc.c:586:7
	ldr	r0, [sp, #8]
	movs	r2, #0
	.loc	3 586 26 is_stmt 0              @ ../ThirdParty/STM32_USB_Device_Library/Class/CDC/Src/usbd_cdc.c:586:26
	strb.w	r2, [r0, #76]
	.loc	3 587 20 is_stmt 1              @ ../ThirdParty/STM32_USB_Device_Library/Class/CDC/Src/usbd_cdc.c:587:20
	movw	r0, :lower16:usb_event_queue
	movt	r0, :upper16:usb_event_queue
	ldr	r0, [r0]
	movs	r1, #3
	.loc	3 587 7 is_stmt 0               @ ../ThirdParty/STM32_USB_Device_Library/Class/CDC/Src/usbd_cdc.c:587:7
	bl	osMessagePut
	.loc	3 588 5 is_stmt 1               @ ../ThirdParty/STM32_USB_Device_Library/Class/CDC/Src/usbd_cdc.c:588:5
	b	.LBB4_7
.Ltmp61:
.LBB4_7:
	.loc	3 589 9                         @ ../ThirdParty/STM32_USB_Device_Library/Class/CDC/Src/usbd_cdc.c:589:9
	ldrb.w	r0, [sp, #15]
.Ltmp62:
	.loc	3 589 9 is_stmt 0               @ ../ThirdParty/STM32_USB_Device_Library/Class/CDC/Src/usbd_cdc.c:589:9
	cmp	r0, #3
	bne	.LBB4_9
	b	.LBB4_8
.LBB4_8:
.Ltmp63:
	.loc	3 590 7 is_stmt 1               @ ../ThirdParty/STM32_USB_Device_Library/Class/CDC/Src/usbd_cdc.c:590:7
	ldr	r0, [sp, #8]
	movs	r2, #0
	.loc	3 590 29 is_stmt 0              @ ../ThirdParty/STM32_USB_Device_Library/Class/CDC/Src/usbd_cdc.c:590:29
	strb.w	r2, [r0, #100]
	.loc	3 591 20 is_stmt 1              @ ../ThirdParty/STM32_USB_Device_Library/Class/CDC/Src/usbd_cdc.c:591:20
	movw	r0, :lower16:usb_event_queue
	movt	r0, :upper16:usb_event_queue
	ldr	r0, [r0]
	movs	r1, #4
	.loc	3 591 7 is_stmt 0               @ ../ThirdParty/STM32_USB_Device_Library/Class/CDC/Src/usbd_cdc.c:591:7
	bl	osMessagePut
	.loc	3 592 5 is_stmt 1               @ ../ThirdParty/STM32_USB_Device_Library/Class/CDC/Src/usbd_cdc.c:592:5
	b	.LBB4_9
.Ltmp64:
.LBB4_9:
	.loc	3 0 5 is_stmt 0                 @ ../ThirdParty/STM32_USB_Device_Library/Class/CDC/Src/usbd_cdc.c:0:5
	movs	r0, #0
	.loc	3 593 5 is_stmt 1               @ ../ThirdParty/STM32_USB_Device_Library/Class/CDC/Src/usbd_cdc.c:593:5
	strb.w	r0, [sp, #23]
	b	.LBB4_11
.Ltmp65:
.LBB4_10:
	.loc	3 0 5 is_stmt 0                 @ ../ThirdParty/STM32_USB_Device_Library/Class/CDC/Src/usbd_cdc.c:0:5
	movs	r0, #0
	.loc	3 596 3 is_stmt 1               @ ../ThirdParty/STM32_USB_Device_Library/Class/CDC/Src/usbd_cdc.c:596:3
	strb.w	r0, [sp, #23]
	b	.LBB4_11
.LBB4_11:
	.loc	3 597 1                         @ ../ThirdParty/STM32_USB_Device_Library/Class/CDC/Src/usbd_cdc.c:597:1
	ldrb.w	r0, [sp, #23]
	.loc	3 597 1 epilogue_begin is_stmt 0 @ ../ThirdParty/STM32_USB_Device_Library/Class/CDC/Src/usbd_cdc.c:597:1
	add	sp, #24
	pop	{r7, pc}
.Ltmp66:
.Lfunc_end4:
	.size	USBD_CDC_DataIn, .Lfunc_end4-USBD_CDC_DataIn
	.cfi_endproc
	.cantunwind
	.fnend
                                        @ -- End function
	.section	.text.USBD_CDC_DataOut,"ax",%progbits
	.p2align	2                               @ -- Begin function USBD_CDC_DataOut
	.type	USBD_CDC_DataOut,%function
	.code	16                              @ @USBD_CDC_DataOut
	.thumb_func
USBD_CDC_DataOut:
.Lfunc_begin5:
	.loc	3 607 0 is_stmt 1               @ ../ThirdParty/STM32_USB_Device_Library/Class/CDC/Src/usbd_cdc.c:607:0
	.fnstart
	.cfi_startproc
@ %bb.0:
	.save	{r7, lr}
	push	{r7, lr}
	.cfi_def_cfa_offset 8
	.cfi_offset lr, -4
	.cfi_offset r7, -8
	.pad	#24
	sub	sp, #24
	.cfi_def_cfa_offset 32
                                        @ kill: def $r2 killed $r1
	str	r0, [sp, #16]
	strb.w	r1, [sp, #15]
.Ltmp67:
	.loc	3 608 62 prologue_end           @ ../ThirdParty/STM32_USB_Device_Library/Class/CDC/Src/usbd_cdc.c:608:62
	ldr	r0, [sp, #16]
	.loc	3 608 68 is_stmt 0              @ ../ThirdParty/STM32_USB_Device_Library/Class/CDC/Src/usbd_cdc.c:608:68
	ldr.w	r0, [r0, #700]
	.loc	3 608 29                        @ ../ThirdParty/STM32_USB_Device_Library/Class/CDC/Src/usbd_cdc.c:608:29
	str	r0, [sp, #8]
.Ltmp68:
	.loc	3 611 7 is_stmt 1               @ ../ThirdParty/STM32_USB_Device_Library/Class/CDC/Src/usbd_cdc.c:611:7
	ldrb.w	r0, [sp, #15]
.Ltmp69:
	.loc	3 611 7 is_stmt 0               @ ../ThirdParty/STM32_USB_Device_Library/Class/CDC/Src/usbd_cdc.c:611:7
	cmp	r0, #1
	bne	.LBB5_2
	b	.LBB5_1
.LBB5_1:
.Ltmp70:
	.loc	3 612 15 is_stmt 1              @ ../ThirdParty/STM32_USB_Device_Library/Class/CDC/Src/usbd_cdc.c:612:15
	ldr	r0, [sp, #8]
	.loc	3 612 21 is_stmt 0              @ ../ThirdParty/STM32_USB_Device_Library/Class/CDC/Src/usbd_cdc.c:612:21
	adds	r0, #80
	.loc	3 612 12                        @ ../ThirdParty/STM32_USB_Device_Library/Class/CDC/Src/usbd_cdc.c:612:12
	str	r0, [sp, #4]
	.loc	3 613 3 is_stmt 1               @ ../ThirdParty/STM32_USB_Device_Library/Class/CDC/Src/usbd_cdc.c:613:3
	b	.LBB5_6
.Ltmp71:
.LBB5_2:
	.loc	3 613 14 is_stmt 0              @ ../ThirdParty/STM32_USB_Device_Library/Class/CDC/Src/usbd_cdc.c:613:14
	ldrb.w	r0, [sp, #15]
.Ltmp72:
	.loc	3 613 14                        @ ../ThirdParty/STM32_USB_Device_Library/Class/CDC/Src/usbd_cdc.c:613:14
	cmp	r0, #3
	bne	.LBB5_4
	b	.LBB5_3
.LBB5_3:
.Ltmp73:
	.loc	3 614 15 is_stmt 1              @ ../ThirdParty/STM32_USB_Device_Library/Class/CDC/Src/usbd_cdc.c:614:15
	ldr	r0, [sp, #8]
	.loc	3 614 21 is_stmt 0              @ ../ThirdParty/STM32_USB_Device_Library/Class/CDC/Src/usbd_cdc.c:614:21
	adds	r0, #104
	.loc	3 614 12                        @ ../ThirdParty/STM32_USB_Device_Library/Class/CDC/Src/usbd_cdc.c:614:12
	str	r0, [sp, #4]
	.loc	3 615 3 is_stmt 1               @ ../ThirdParty/STM32_USB_Device_Library/Class/CDC/Src/usbd_cdc.c:615:3
	b	.LBB5_5
.Ltmp74:
.LBB5_4:
	.loc	3 0 3 is_stmt 0                 @ ../ThirdParty/STM32_USB_Device_Library/Class/CDC/Src/usbd_cdc.c:0:3
	movs	r0, #3
.Ltmp75:
	.loc	3 616 5 is_stmt 1               @ ../ThirdParty/STM32_USB_Device_Library/Class/CDC/Src/usbd_cdc.c:616:5
	strb.w	r0, [sp, #23]
	b	.LBB5_9
.Ltmp76:
.LBB5_5:
	.loc	3 0 5 is_stmt 0                 @ ../ThirdParty/STM32_USB_Device_Library/Class/CDC/Src/usbd_cdc.c:0:5
	b	.LBB5_6
.LBB5_6:
	.loc	3 620 43 is_stmt 1              @ ../ThirdParty/STM32_USB_Device_Library/Class/CDC/Src/usbd_cdc.c:620:43
	ldr	r0, [sp, #16]
	.loc	3 620 49 is_stmt 0              @ ../ThirdParty/STM32_USB_Device_Library/Class/CDC/Src/usbd_cdc.c:620:49
	ldrb.w	r1, [sp, #15]
	.loc	3 620 20                        @ ../ThirdParty/STM32_USB_Device_Library/Class/CDC/Src/usbd_cdc.c:620:20
	bl	USBD_LL_GetRxDataSize
	.loc	3 620 3                         @ ../ThirdParty/STM32_USB_Device_Library/Class/CDC/Src/usbd_cdc.c:620:3
	ldr	r1, [sp, #4]
	.loc	3 620 18                        @ ../ThirdParty/STM32_USB_Device_Library/Class/CDC/Src/usbd_cdc.c:620:18
	str	r0, [r1, #4]
.Ltmp77:
	.loc	3 624 6 is_stmt 1               @ ../ThirdParty/STM32_USB_Device_Library/Class/CDC/Src/usbd_cdc.c:624:6
	ldr	r0, [sp, #16]
	.loc	3 624 12 is_stmt 0              @ ../ThirdParty/STM32_USB_Device_Library/Class/CDC/Src/usbd_cdc.c:624:12
	ldr.w	r0, [r0, #700]
.Ltmp78:
	.loc	3 624 6                         @ ../ThirdParty/STM32_USB_Device_Library/Class/CDC/Src/usbd_cdc.c:624:6
	cbz	r0, .LBB5_8
	b	.LBB5_7
.LBB5_7:
.Ltmp79:
	.loc	3 626 29 is_stmt 1              @ ../ThirdParty/STM32_USB_Device_Library/Class/CDC/Src/usbd_cdc.c:626:29
	ldr	r0, [sp, #16]
	.loc	3 626 35 is_stmt 0              @ ../ThirdParty/STM32_USB_Device_Library/Class/CDC/Src/usbd_cdc.c:626:35
	ldr.w	r0, [r0, #704]
	.loc	3 626 47                        @ ../ThirdParty/STM32_USB_Device_Library/Class/CDC/Src/usbd_cdc.c:626:47
	ldr	r3, [r0, #12]
	.loc	3 626 62                        @ ../ThirdParty/STM32_USB_Device_Library/Class/CDC/Src/usbd_cdc.c:626:62
	ldr	r0, [sp, #4]
	.loc	3 626 70                        @ ../ThirdParty/STM32_USB_Device_Library/Class/CDC/Src/usbd_cdc.c:626:70
	adds	r1, r0, #4
	.loc	3 626 78                        @ ../ThirdParty/STM32_USB_Device_Library/Class/CDC/Src/usbd_cdc.c:626:78
	ldrb.w	r2, [sp, #15]
	movs	r0, #0
	.loc	3 626 5                         @ ../ThirdParty/STM32_USB_Device_Library/Class/CDC/Src/usbd_cdc.c:626:5
	str	r0, [sp]                        @ 4-byte Spill
	blx	r3
                                        @ kill: def $r1 killed $r0
	.loc	3 628 5 is_stmt 1               @ ../ThirdParty/STM32_USB_Device_Library/Class/CDC/Src/usbd_cdc.c:628:5
	ldr	r0, [sp]                        @ 4-byte Reload
	strb.w	r0, [sp, #23]
	b	.LBB5_9
.Ltmp80:
.LBB5_8:
	.loc	3 0 5 is_stmt 0                 @ ../ThirdParty/STM32_USB_Device_Library/Class/CDC/Src/usbd_cdc.c:0:5
	movs	r0, #3
.Ltmp81:
	.loc	3 632 5 is_stmt 1               @ ../ThirdParty/STM32_USB_Device_Library/Class/CDC/Src/usbd_cdc.c:632:5
	strb.w	r0, [sp, #23]
	b	.LBB5_9
.Ltmp82:
.LBB5_9:
	.loc	3 634 1                         @ ../ThirdParty/STM32_USB_Device_Library/Class/CDC/Src/usbd_cdc.c:634:1
	ldrb.w	r0, [sp, #23]
	.loc	3 634 1 epilogue_begin is_stmt 0 @ ../ThirdParty/STM32_USB_Device_Library/Class/CDC/Src/usbd_cdc.c:634:1
	add	sp, #24
	pop	{r7, pc}
.Ltmp83:
.Lfunc_end5:
	.size	USBD_CDC_DataOut, .Lfunc_end5-USBD_CDC_DataOut
	.cfi_endproc
	.cantunwind
	.fnend
                                        @ -- End function
	.section	.text.USBD_CDC_GetHSCfgDesc,"ax",%progbits
	.p2align	2                               @ -- Begin function USBD_CDC_GetHSCfgDesc
	.type	USBD_CDC_GetHSCfgDesc,%function
	.code	16                              @ @USBD_CDC_GetHSCfgDesc
	.thumb_func
USBD_CDC_GetHSCfgDesc:
.Lfunc_begin6:
	.loc	3 680 0 is_stmt 1               @ ../ThirdParty/STM32_USB_Device_Library/Class/CDC/Src/usbd_cdc.c:680:0
	.fnstart
	.cfi_startproc
@ %bb.0:
	.pad	#4
	sub	sp, #4
	.cfi_def_cfa_offset 4
	str	r0, [sp]
.Ltmp84:
	.loc	3 681 4 prologue_end            @ ../ThirdParty/STM32_USB_Device_Library/Class/CDC/Src/usbd_cdc.c:681:4
	ldr	r1, [sp]
	movs	r0, #106
	.loc	3 681 11 is_stmt 0              @ ../ThirdParty/STM32_USB_Device_Library/Class/CDC/Src/usbd_cdc.c:681:11
	strh	r0, [r1]
	.loc	3 683 3 is_stmt 1               @ ../ThirdParty/STM32_USB_Device_Library/Class/CDC/Src/usbd_cdc.c:683:3
	movw	r0, :lower16:USBD_CDC_CfgDesc
	movt	r0, :upper16:USBD_CDC_CfgDesc
	.loc	3 683 3 epilogue_begin is_stmt 0 @ ../ThirdParty/STM32_USB_Device_Library/Class/CDC/Src/usbd_cdc.c:683:3
	add	sp, #4
	bx	lr
.Ltmp85:
.Lfunc_end6:
	.size	USBD_CDC_GetHSCfgDesc, .Lfunc_end6-USBD_CDC_GetHSCfgDesc
	.cfi_endproc
	.cantunwind
	.fnend
                                        @ -- End function
	.section	.text.USBD_CDC_GetFSCfgDesc,"ax",%progbits
	.p2align	2                               @ -- Begin function USBD_CDC_GetFSCfgDesc
	.type	USBD_CDC_GetFSCfgDesc,%function
	.code	16                              @ @USBD_CDC_GetFSCfgDesc
	.thumb_func
USBD_CDC_GetFSCfgDesc:
.Lfunc_begin7:
	.loc	3 666 0 is_stmt 1               @ ../ThirdParty/STM32_USB_Device_Library/Class/CDC/Src/usbd_cdc.c:666:0
	.fnstart
	.cfi_startproc
@ %bb.0:
	.pad	#4
	sub	sp, #4
	.cfi_def_cfa_offset 4
	str	r0, [sp]
.Ltmp86:
	.loc	3 667 4 prologue_end            @ ../ThirdParty/STM32_USB_Device_Library/Class/CDC/Src/usbd_cdc.c:667:4
	ldr	r1, [sp]
	movs	r0, #106
	.loc	3 667 11 is_stmt 0              @ ../ThirdParty/STM32_USB_Device_Library/Class/CDC/Src/usbd_cdc.c:667:11
	strh	r0, [r1]
	.loc	3 669 3 is_stmt 1               @ ../ThirdParty/STM32_USB_Device_Library/Class/CDC/Src/usbd_cdc.c:669:3
	movw	r0, :lower16:USBD_CDC_CfgDesc
	movt	r0, :upper16:USBD_CDC_CfgDesc
	.loc	3 669 3 epilogue_begin is_stmt 0 @ ../ThirdParty/STM32_USB_Device_Library/Class/CDC/Src/usbd_cdc.c:669:3
	add	sp, #4
	bx	lr
.Ltmp87:
.Lfunc_end7:
	.size	USBD_CDC_GetFSCfgDesc, .Lfunc_end7-USBD_CDC_GetFSCfgDesc
	.cfi_endproc
	.cantunwind
	.fnend
                                        @ -- End function
	.section	.text.USBD_CDC_GetOtherSpeedCfgDesc,"ax",%progbits
	.p2align	2                               @ -- Begin function USBD_CDC_GetOtherSpeedCfgDesc
	.type	USBD_CDC_GetOtherSpeedCfgDesc,%function
	.code	16                              @ @USBD_CDC_GetOtherSpeedCfgDesc
	.thumb_func
USBD_CDC_GetOtherSpeedCfgDesc:
.Lfunc_begin8:
	.loc	3 694 0 is_stmt 1               @ ../ThirdParty/STM32_USB_Device_Library/Class/CDC/Src/usbd_cdc.c:694:0
	.fnstart
	.cfi_startproc
@ %bb.0:
	.pad	#4
	sub	sp, #4
	.cfi_def_cfa_offset 4
	str	r0, [sp]
.Ltmp88:
	.loc	3 695 4 prologue_end            @ ../ThirdParty/STM32_USB_Device_Library/Class/CDC/Src/usbd_cdc.c:695:4
	ldr	r1, [sp]
	movs	r0, #106
	.loc	3 695 11 is_stmt 0              @ ../ThirdParty/STM32_USB_Device_Library/Class/CDC/Src/usbd_cdc.c:695:11
	strh	r0, [r1]
	.loc	3 697 3 is_stmt 1               @ ../ThirdParty/STM32_USB_Device_Library/Class/CDC/Src/usbd_cdc.c:697:3
	movw	r0, :lower16:USBD_CDC_CfgDesc
	movt	r0, :upper16:USBD_CDC_CfgDesc
	.loc	3 697 3 epilogue_begin is_stmt 0 @ ../ThirdParty/STM32_USB_Device_Library/Class/CDC/Src/usbd_cdc.c:697:3
	add	sp, #4
	bx	lr
.Ltmp89:
.Lfunc_end8:
	.size	USBD_CDC_GetOtherSpeedCfgDesc, .Lfunc_end8-USBD_CDC_GetOtherSpeedCfgDesc
	.cfi_endproc
	.cantunwind
	.fnend
                                        @ -- End function
	.section	.text.USBD_CDC_GetDeviceQualifierDescriptor,"ax",%progbits
	.hidden	USBD_CDC_GetDeviceQualifierDescriptor @ -- Begin function USBD_CDC_GetDeviceQualifierDescriptor
	.globl	USBD_CDC_GetDeviceQualifierDescriptor
	.p2align	2
	.type	USBD_CDC_GetDeviceQualifierDescriptor,%function
	.code	16                              @ @USBD_CDC_GetDeviceQualifierDescriptor
	.thumb_func
USBD_CDC_GetDeviceQualifierDescriptor:
.Lfunc_begin9:
	.loc	3 707 0 is_stmt 1               @ ../ThirdParty/STM32_USB_Device_Library/Class/CDC/Src/usbd_cdc.c:707:0
	.fnstart
	.cfi_startproc
@ %bb.0:
	.pad	#4
	sub	sp, #4
	.cfi_def_cfa_offset 4
	str	r0, [sp]
.Ltmp90:
	.loc	3 708 4 prologue_end            @ ../ThirdParty/STM32_USB_Device_Library/Class/CDC/Src/usbd_cdc.c:708:4
	ldr	r1, [sp]
	movs	r0, #10
	.loc	3 708 11 is_stmt 0              @ ../ThirdParty/STM32_USB_Device_Library/Class/CDC/Src/usbd_cdc.c:708:11
	strh	r0, [r1]
	.loc	3 710 3 is_stmt 1               @ ../ThirdParty/STM32_USB_Device_Library/Class/CDC/Src/usbd_cdc.c:710:3
	movw	r0, :lower16:USBD_CDC_DeviceQualifierDesc
	movt	r0, :upper16:USBD_CDC_DeviceQualifierDesc
	.loc	3 710 3 epilogue_begin is_stmt 0 @ ../ThirdParty/STM32_USB_Device_Library/Class/CDC/Src/usbd_cdc.c:710:3
	add	sp, #4
	bx	lr
.Ltmp91:
.Lfunc_end9:
	.size	USBD_CDC_GetDeviceQualifierDescriptor, .Lfunc_end9-USBD_CDC_GetDeviceQualifierDescriptor
	.cfi_endproc
	.cantunwind
	.fnend
                                        @ -- End function
	.section	.text.USBD_CDC_RegisterInterface,"ax",%progbits
	.hidden	USBD_CDC_RegisterInterface      @ -- Begin function USBD_CDC_RegisterInterface
	.globl	USBD_CDC_RegisterInterface
	.p2align	2
	.type	USBD_CDC_RegisterInterface,%function
	.code	16                              @ @USBD_CDC_RegisterInterface
	.thumb_func
USBD_CDC_RegisterInterface:
.Lfunc_begin10:
	.loc	3 721 0 is_stmt 1               @ ../ThirdParty/STM32_USB_Device_Library/Class/CDC/Src/usbd_cdc.c:721:0
	.fnstart
	.cfi_startproc
@ %bb.0:
	.pad	#12
	sub	sp, #12
	.cfi_def_cfa_offset 12
	str	r0, [sp, #4]
	str	r1, [sp]
.Ltmp92:
	.loc	3 722 7 prologue_end            @ ../ThirdParty/STM32_USB_Device_Library/Class/CDC/Src/usbd_cdc.c:722:7
	ldr	r0, [sp]
.Ltmp93:
	.loc	3 722 7 is_stmt 0               @ ../ThirdParty/STM32_USB_Device_Library/Class/CDC/Src/usbd_cdc.c:722:7
	cbnz	r0, .LBB10_2
	b	.LBB10_1
.LBB10_1:
	.loc	3 0 7                           @ ../ThirdParty/STM32_USB_Device_Library/Class/CDC/Src/usbd_cdc.c:0:7
	movs	r0, #3
.Ltmp94:
	.loc	3 724 5 is_stmt 1               @ ../ThirdParty/STM32_USB_Device_Library/Class/CDC/Src/usbd_cdc.c:724:5
	strb.w	r0, [sp, #11]
	b	.LBB10_3
.Ltmp95:
.LBB10_2:
	.loc	3 727 21                        @ ../ThirdParty/STM32_USB_Device_Library/Class/CDC/Src/usbd_cdc.c:727:21
	ldr	r0, [sp]
	.loc	3 727 3 is_stmt 0               @ ../ThirdParty/STM32_USB_Device_Library/Class/CDC/Src/usbd_cdc.c:727:3
	ldr	r1, [sp, #4]
	.loc	3 727 19                        @ ../ThirdParty/STM32_USB_Device_Library/Class/CDC/Src/usbd_cdc.c:727:19
	str.w	r0, [r1, #704]
	movs	r0, #0
	.loc	3 729 3 is_stmt 1               @ ../ThirdParty/STM32_USB_Device_Library/Class/CDC/Src/usbd_cdc.c:729:3
	strb.w	r0, [sp, #11]
	b	.LBB10_3
.LBB10_3:
	.loc	3 730 1                         @ ../ThirdParty/STM32_USB_Device_Library/Class/CDC/Src/usbd_cdc.c:730:1
	ldrb.w	r0, [sp, #11]
	.loc	3 730 1 epilogue_begin is_stmt 0 @ ../ThirdParty/STM32_USB_Device_Library/Class/CDC/Src/usbd_cdc.c:730:1
	add	sp, #12
	bx	lr
.Ltmp96:
.Lfunc_end10:
	.size	USBD_CDC_RegisterInterface, .Lfunc_end10-USBD_CDC_RegisterInterface
	.cfi_endproc
	.cantunwind
	.fnend
                                        @ -- End function
	.section	.text.USBD_CDC_TransmitPacket,"ax",%progbits
	.hidden	USBD_CDC_TransmitPacket         @ -- Begin function USBD_CDC_TransmitPacket
	.globl	USBD_CDC_TransmitPacket
	.p2align	2
	.type	USBD_CDC_TransmitPacket,%function
	.code	16                              @ @USBD_CDC_TransmitPacket
	.thumb_func
USBD_CDC_TransmitPacket:
.Lfunc_begin11:
	.loc	3 740 0 is_stmt 1               @ ../ThirdParty/STM32_USB_Device_Library/Class/CDC/Src/usbd_cdc.c:740:0
	.fnstart
	.cfi_startproc
@ %bb.0:
	.save	{r7, lr}
	push	{r7, lr}
	.cfi_def_cfa_offset 8
	.cfi_offset lr, -4
	.cfi_offset r7, -8
	.pad	#32
	sub	sp, #32
	.cfi_def_cfa_offset 40
                                        @ kill: def $r12 killed $r3
	str	r0, [sp, #24]
	str	r1, [sp, #20]
	str	r2, [sp, #16]
	strb.w	r3, [sp, #15]
.Ltmp97:
	.loc	3 741 62 prologue_end           @ ../ThirdParty/STM32_USB_Device_Library/Class/CDC/Src/usbd_cdc.c:741:62
	ldr	r0, [sp, #24]
	.loc	3 741 68 is_stmt 0              @ ../ThirdParty/STM32_USB_Device_Library/Class/CDC/Src/usbd_cdc.c:741:68
	ldr.w	r0, [r0, #700]
	.loc	3 741 29                        @ ../ThirdParty/STM32_USB_Device_Library/Class/CDC/Src/usbd_cdc.c:741:29
	str	r0, [sp, #8]
.Ltmp98:
	.loc	3 743 6 is_stmt 1               @ ../ThirdParty/STM32_USB_Device_Library/Class/CDC/Src/usbd_cdc.c:743:6
	ldr	r0, [sp, #24]
	.loc	3 743 12 is_stmt 0              @ ../ThirdParty/STM32_USB_Device_Library/Class/CDC/Src/usbd_cdc.c:743:12
	ldr.w	r0, [r0, #700]
.Ltmp99:
	.loc	3 743 6                         @ ../ThirdParty/STM32_USB_Device_Library/Class/CDC/Src/usbd_cdc.c:743:6
	cbz	r0, .LBB11_10
	b	.LBB11_1
.LBB11_1:
.Ltmp100:
	.loc	3 747 9 is_stmt 1               @ ../ThirdParty/STM32_USB_Device_Library/Class/CDC/Src/usbd_cdc.c:747:9
	ldrb.w	r0, [sp, #15]
.Ltmp101:
	.loc	3 747 9 is_stmt 0               @ ../ThirdParty/STM32_USB_Device_Library/Class/CDC/Src/usbd_cdc.c:747:9
	cmp	r0, #129
	bne	.LBB11_3
	b	.LBB11_2
.LBB11_2:
.Ltmp102:
	.loc	3 748 17 is_stmt 1              @ ../ThirdParty/STM32_USB_Device_Library/Class/CDC/Src/usbd_cdc.c:748:17
	ldr	r0, [sp, #8]
	.loc	3 748 23 is_stmt 0              @ ../ThirdParty/STM32_USB_Device_Library/Class/CDC/Src/usbd_cdc.c:748:23
	adds	r0, #68
	.loc	3 748 14                        @ ../ThirdParty/STM32_USB_Device_Library/Class/CDC/Src/usbd_cdc.c:748:14
	str	r0, [sp, #4]
	.loc	3 749 5 is_stmt 1               @ ../ThirdParty/STM32_USB_Device_Library/Class/CDC/Src/usbd_cdc.c:749:5
	b	.LBB11_7
.Ltmp103:
.LBB11_3:
	.loc	3 749 16 is_stmt 0              @ ../ThirdParty/STM32_USB_Device_Library/Class/CDC/Src/usbd_cdc.c:749:16
	ldrb.w	r0, [sp, #15]
.Ltmp104:
	.loc	3 749 16                        @ ../ThirdParty/STM32_USB_Device_Library/Class/CDC/Src/usbd_cdc.c:749:16
	cmp	r0, #131
	bne	.LBB11_5
	b	.LBB11_4
.LBB11_4:
.Ltmp105:
	.loc	3 750 17 is_stmt 1              @ ../ThirdParty/STM32_USB_Device_Library/Class/CDC/Src/usbd_cdc.c:750:17
	ldr	r0, [sp, #8]
	.loc	3 750 23 is_stmt 0              @ ../ThirdParty/STM32_USB_Device_Library/Class/CDC/Src/usbd_cdc.c:750:23
	adds	r0, #92
	.loc	3 750 14                        @ ../ThirdParty/STM32_USB_Device_Library/Class/CDC/Src/usbd_cdc.c:750:14
	str	r0, [sp, #4]
	.loc	3 751 5 is_stmt 1               @ ../ThirdParty/STM32_USB_Device_Library/Class/CDC/Src/usbd_cdc.c:751:5
	b	.LBB11_6
.Ltmp106:
.LBB11_5:
	.loc	3 0 5 is_stmt 0                 @ ../ThirdParty/STM32_USB_Device_Library/Class/CDC/Src/usbd_cdc.c:0:5
	movs	r0, #3
.Ltmp107:
	.loc	3 752 7 is_stmt 1               @ ../ThirdParty/STM32_USB_Device_Library/Class/CDC/Src/usbd_cdc.c:752:7
	strb.w	r0, [sp, #31]
	b	.LBB11_11
.Ltmp108:
.LBB11_6:
	.loc	3 0 7 is_stmt 0                 @ ../ThirdParty/STM32_USB_Device_Library/Class/CDC/Src/usbd_cdc.c:0:7
	b	.LBB11_7
.LBB11_7:
.Ltmp109:
	.loc	3 755 8 is_stmt 1               @ ../ThirdParty/STM32_USB_Device_Library/Class/CDC/Src/usbd_cdc.c:755:8
	ldr	r0, [sp, #4]
	.loc	3 755 16 is_stmt 0              @ ../ThirdParty/STM32_USB_Device_Library/Class/CDC/Src/usbd_cdc.c:755:16
	ldrb	r0, [r0, #8]
.Ltmp110:
	.loc	3 755 8                         @ ../ThirdParty/STM32_USB_Device_Library/Class/CDC/Src/usbd_cdc.c:755:8
	cbnz	r0, .LBB11_9
	b	.LBB11_8
.LBB11_8:
.Ltmp111:
	.loc	3 758 7 is_stmt 1               @ ../ThirdParty/STM32_USB_Device_Library/Class/CDC/Src/usbd_cdc.c:758:7
	ldr	r1, [sp, #4]
	movs	r0, #1
	.loc	3 758 21 is_stmt 0              @ ../ThirdParty/STM32_USB_Device_Library/Class/CDC/Src/usbd_cdc.c:758:21
	strb	r0, [r1, #8]
	.loc	3 761 24 is_stmt 1              @ ../ThirdParty/STM32_USB_Device_Library/Class/CDC/Src/usbd_cdc.c:761:24
	ldr	r0, [sp, #24]
	.loc	3 762 23                        @ ../ThirdParty/STM32_USB_Device_Library/Class/CDC/Src/usbd_cdc.c:762:23
	ldrb.w	r1, [sp, #15]
	.loc	3 763 23                        @ ../ThirdParty/STM32_USB_Device_Library/Class/CDC/Src/usbd_cdc.c:763:23
	ldr	r2, [sp, #20]
	.loc	3 764 23                        @ ../ThirdParty/STM32_USB_Device_Library/Class/CDC/Src/usbd_cdc.c:764:23
	ldr	r3, [sp, #16]
	.loc	3 761 7                         @ ../ThirdParty/STM32_USB_Device_Library/Class/CDC/Src/usbd_cdc.c:761:7
	bl	USBD_LL_Transmit
	movs	r0, #0
	.loc	3 766 7                         @ ../ThirdParty/STM32_USB_Device_Library/Class/CDC/Src/usbd_cdc.c:766:7
	strb.w	r0, [sp, #31]
	b	.LBB11_11
.Ltmp112:
.LBB11_9:
	.loc	3 0 7 is_stmt 0                 @ ../ThirdParty/STM32_USB_Device_Library/Class/CDC/Src/usbd_cdc.c:0:7
	movs	r0, #1
.Ltmp113:
	.loc	3 770 7 is_stmt 1               @ ../ThirdParty/STM32_USB_Device_Library/Class/CDC/Src/usbd_cdc.c:770:7
	strb.w	r0, [sp, #31]
	b	.LBB11_11
.Ltmp114:
.LBB11_10:
	.loc	3 0 7 is_stmt 0                 @ ../ThirdParty/STM32_USB_Device_Library/Class/CDC/Src/usbd_cdc.c:0:7
	movs	r0, #3
.Ltmp115:
	.loc	3 775 5 is_stmt 1               @ ../ThirdParty/STM32_USB_Device_Library/Class/CDC/Src/usbd_cdc.c:775:5
	strb.w	r0, [sp, #31]
	b	.LBB11_11
.Ltmp116:
.LBB11_11:
	.loc	3 777 1                         @ ../ThirdParty/STM32_USB_Device_Library/Class/CDC/Src/usbd_cdc.c:777:1
	ldrb.w	r0, [sp, #31]
	.loc	3 777 1 epilogue_begin is_stmt 0 @ ../ThirdParty/STM32_USB_Device_Library/Class/CDC/Src/usbd_cdc.c:777:1
	add	sp, #32
	pop	{r7, pc}
.Ltmp117:
.Lfunc_end11:
	.size	USBD_CDC_TransmitPacket, .Lfunc_end11-USBD_CDC_TransmitPacket
	.cfi_endproc
	.cantunwind
	.fnend
                                        @ -- End function
	.section	.text.USBD_CDC_ReceivePacket,"ax",%progbits
	.hidden	USBD_CDC_ReceivePacket          @ -- Begin function USBD_CDC_ReceivePacket
	.globl	USBD_CDC_ReceivePacket
	.p2align	2
	.type	USBD_CDC_ReceivePacket,%function
	.code	16                              @ @USBD_CDC_ReceivePacket
	.thumb_func
USBD_CDC_ReceivePacket:
.Lfunc_begin12:
	.loc	3 787 0 is_stmt 1               @ ../ThirdParty/STM32_USB_Device_Library/Class/CDC/Src/usbd_cdc.c:787:0
	.fnstart
	.cfi_startproc
@ %bb.0:
	.save	{r7, lr}
	push	{r7, lr}
	.cfi_def_cfa_offset 8
	.cfi_offset lr, -4
	.cfi_offset r7, -8
	.pad	#16
	sub	sp, #16
	.cfi_def_cfa_offset 24
                                        @ kill: def $r12 killed $r3
                                        @ kill: def $r12 killed $r2
	str	r0, [sp, #8]
	str	r1, [sp, #4]
	strh.w	r2, [sp, #2]
	strb.w	r3, [sp, #1]
.Ltmp118:
	.loc	3 789 6 prologue_end            @ ../ThirdParty/STM32_USB_Device_Library/Class/CDC/Src/usbd_cdc.c:789:6
	ldr	r0, [sp, #8]
	.loc	3 789 12 is_stmt 0              @ ../ThirdParty/STM32_USB_Device_Library/Class/CDC/Src/usbd_cdc.c:789:12
	ldr.w	r0, [r0, #700]
.Ltmp119:
	.loc	3 789 6                         @ ../ThirdParty/STM32_USB_Device_Library/Class/CDC/Src/usbd_cdc.c:789:6
	cbz	r0, .LBB12_2
	b	.LBB12_1
.LBB12_1:
.Ltmp120:
	.loc	3 792 28 is_stmt 1              @ ../ThirdParty/STM32_USB_Device_Library/Class/CDC/Src/usbd_cdc.c:792:28
	ldr	r0, [sp, #8]
	.loc	3 793 29                        @ ../ThirdParty/STM32_USB_Device_Library/Class/CDC/Src/usbd_cdc.c:793:29
	ldrb.w	r1, [sp, #1]
	.loc	3 794 29                        @ ../ThirdParty/STM32_USB_Device_Library/Class/CDC/Src/usbd_cdc.c:794:29
	ldr	r2, [sp, #4]
	.loc	3 795 29                        @ ../ThirdParty/STM32_USB_Device_Library/Class/CDC/Src/usbd_cdc.c:795:29
	ldrh.w	r3, [sp, #2]
	.loc	3 792 5                         @ ../ThirdParty/STM32_USB_Device_Library/Class/CDC/Src/usbd_cdc.c:792:5
	bl	USBD_LL_PrepareReceive
	movs	r0, #0
	.loc	3 797 5                         @ ../ThirdParty/STM32_USB_Device_Library/Class/CDC/Src/usbd_cdc.c:797:5
	strb.w	r0, [sp, #15]
	b	.LBB12_3
.Ltmp121:
.LBB12_2:
	.loc	3 0 5 is_stmt 0                 @ ../ThirdParty/STM32_USB_Device_Library/Class/CDC/Src/usbd_cdc.c:0:5
	movs	r0, #3
.Ltmp122:
	.loc	3 801 5 is_stmt 1               @ ../ThirdParty/STM32_USB_Device_Library/Class/CDC/Src/usbd_cdc.c:801:5
	strb.w	r0, [sp, #15]
	b	.LBB12_3
.Ltmp123:
.LBB12_3:
	.loc	3 803 1                         @ ../ThirdParty/STM32_USB_Device_Library/Class/CDC/Src/usbd_cdc.c:803:1
	ldrb.w	r0, [sp, #15]
	.loc	3 803 1 epilogue_begin is_stmt 0 @ ../ThirdParty/STM32_USB_Device_Library/Class/CDC/Src/usbd_cdc.c:803:1
	add	sp, #16
	pop	{r7, pc}
.Ltmp124:
.Lfunc_end12:
	.size	USBD_CDC_ReceivePacket, .Lfunc_end12-USBD_CDC_ReceivePacket
	.cfi_endproc
	.cantunwind
	.fnend
                                        @ -- End function
	.section	.text.USBD_WinUSBComm_SetupVendor,"ax",%progbits
	.p2align	2                               @ -- Begin function USBD_WinUSBComm_SetupVendor
	.type	USBD_WinUSBComm_SetupVendor,%function
	.code	16                              @ @USBD_WinUSBComm_SetupVendor
	.thumb_func
USBD_WinUSBComm_SetupVendor:
.Lfunc_begin13:
	.loc	3 966 0 is_stmt 1               @ ../ThirdParty/STM32_USB_Device_Library/Class/CDC/Src/usbd_cdc.c:966:0
	.fnstart
	.cfi_startproc
@ %bb.0:
	.save	{r7, lr}
	push	{r7, lr}
	.cfi_def_cfa_offset 8
	.cfi_offset lr, -4
	.cfi_offset r7, -8
	.pad	#24
	sub	sp, #24
	.cfi_def_cfa_offset 32
	str	r0, [sp, #16]
	str	r1, [sp, #12]
.Ltmp125:
	.loc	3 967 12 prologue_end           @ ../ThirdParty/STM32_USB_Device_Library/Class/CDC/Src/usbd_cdc.c:967:12
	ldr	r0, [sp, #12]
	ldrb	r0, [r0]
	.loc	3 967 27 is_stmt 0              @ ../ThirdParty/STM32_USB_Device_Library/Class/CDC/Src/usbd_cdc.c:967:27
	and	r0, r0, #3
	.loc	3 967 3                         @ ../ThirdParty/STM32_USB_Device_Library/Class/CDC/Src/usbd_cdc.c:967:3
	mov	r1, r0
	str	r1, [sp, #8]                    @ 4-byte Spill
	cbz	r0, .LBB13_3
	b	.LBB13_1
.LBB13_1:
	ldr	r0, [sp, #8]                    @ 4-byte Reload
	cmp	r0, #1
	beq	.LBB13_7
	b	.LBB13_2
.LBB13_2:
	ldr	r0, [sp, #8]                    @ 4-byte Reload
	cmp	r0, #2
	beq	.LBB13_11
	b	.LBB13_12
.LBB13_3:
.Ltmp126:
	.loc	3 970 31 is_stmt 1              @ ../ThirdParty/STM32_USB_Device_Library/Class/CDC/Src/usbd_cdc.c:970:31
	ldr	r0, [sp, #12]
	.loc	3 970 36 is_stmt 0              @ ../ThirdParty/STM32_USB_Device_Library/Class/CDC/Src/usbd_cdc.c:970:36
	ldrb	r0, [r0, #1]
	.loc	3 970 12                        @ ../ThirdParty/STM32_USB_Device_Library/Class/CDC/Src/usbd_cdc.c:970:12
	cmp	r0, #80
	bne	.LBB13_5
	b	.LBB13_4
.LBB13_4:
	.loc	3 970 99                        @ ../ThirdParty/STM32_USB_Device_Library/Class/CDC/Src/usbd_cdc.c:970:99
	ldr	r0, [sp, #16]
	.loc	3 970 105                       @ ../ThirdParty/STM32_USB_Device_Library/Class/CDC/Src/usbd_cdc.c:970:105
	ldr	r1, [sp, #12]
	.loc	3 970 49                        @ ../ThirdParty/STM32_USB_Device_Library/Class/CDC/Src/usbd_cdc.c:970:49
	bl	USBD_WinUSBComm_GetMSExtendedCompatIDOSDescriptor
	.loc	3 970 12                        @ ../ThirdParty/STM32_USB_Device_Library/Class/CDC/Src/usbd_cdc.c:970:12
	str	r0, [sp, #4]                    @ 4-byte Spill
	b	.LBB13_6
.LBB13_5:
	.loc	3 970 146                       @ ../ThirdParty/STM32_USB_Device_Library/Class/CDC/Src/usbd_cdc.c:970:146
	ldr	r0, [sp, #16]
	.loc	3 970 152                       @ ../ThirdParty/STM32_USB_Device_Library/Class/CDC/Src/usbd_cdc.c:970:152
	ldr	r1, [sp, #12]
	.loc	3 970 112                       @ ../ThirdParty/STM32_USB_Device_Library/Class/CDC/Src/usbd_cdc.c:970:112
	bl	USBD_WinUSBComm_SetupVendorDevice
	.loc	3 970 12                        @ ../ThirdParty/STM32_USB_Device_Library/Class/CDC/Src/usbd_cdc.c:970:12
	str	r0, [sp, #4]                    @ 4-byte Spill
	b	.LBB13_6
.LBB13_6:
	ldr	r0, [sp, #4]                    @ 4-byte Reload
	.loc	3 970 5                         @ ../ThirdParty/STM32_USB_Device_Library/Class/CDC/Src/usbd_cdc.c:970:5
	strb.w	r0, [sp, #23]
	b	.LBB13_14
.LBB13_7:
	.loc	3 972 31 is_stmt 1              @ ../ThirdParty/STM32_USB_Device_Library/Class/CDC/Src/usbd_cdc.c:972:31
	ldr	r0, [sp, #12]
	.loc	3 972 36 is_stmt 0              @ ../ThirdParty/STM32_USB_Device_Library/Class/CDC/Src/usbd_cdc.c:972:36
	ldrb	r0, [r0, #1]
	.loc	3 972 12                        @ ../ThirdParty/STM32_USB_Device_Library/Class/CDC/Src/usbd_cdc.c:972:12
	cmp	r0, #80
	bne	.LBB13_9
	b	.LBB13_8
.LBB13_8:
	.loc	3 972 101                       @ ../ThirdParty/STM32_USB_Device_Library/Class/CDC/Src/usbd_cdc.c:972:101
	ldr	r0, [sp, #16]
	.loc	3 972 107                       @ ../ThirdParty/STM32_USB_Device_Library/Class/CDC/Src/usbd_cdc.c:972:107
	ldr	r1, [sp, #12]
	.loc	3 972 49                        @ ../ThirdParty/STM32_USB_Device_Library/Class/CDC/Src/usbd_cdc.c:972:49
	bl	USBD_WinUSBComm_GetMSExtendedPropertiesOSDescriptor
	.loc	3 972 12                        @ ../ThirdParty/STM32_USB_Device_Library/Class/CDC/Src/usbd_cdc.c:972:12
	str	r0, [sp]                        @ 4-byte Spill
	b	.LBB13_10
.LBB13_9:
	.loc	3 972 151                       @ ../ThirdParty/STM32_USB_Device_Library/Class/CDC/Src/usbd_cdc.c:972:151
	ldr	r0, [sp, #16]
	.loc	3 972 157                       @ ../ThirdParty/STM32_USB_Device_Library/Class/CDC/Src/usbd_cdc.c:972:157
	ldr	r1, [sp, #12]
	.loc	3 972 114                       @ ../ThirdParty/STM32_USB_Device_Library/Class/CDC/Src/usbd_cdc.c:972:114
	bl	USBD_WinUSBComm_SetupVendorInterface
	.loc	3 972 12                        @ ../ThirdParty/STM32_USB_Device_Library/Class/CDC/Src/usbd_cdc.c:972:12
	str	r0, [sp]                        @ 4-byte Spill
	b	.LBB13_10
.LBB13_10:
	ldr	r0, [sp]                        @ 4-byte Reload
	.loc	3 972 5                         @ ../ThirdParty/STM32_USB_Device_Library/Class/CDC/Src/usbd_cdc.c:972:5
	strb.w	r0, [sp, #23]
	b	.LBB13_14
.LBB13_11:
	.loc	3 973 3 is_stmt 1               @ ../ThirdParty/STM32_USB_Device_Library/Class/CDC/Src/usbd_cdc.c:973:3
	b	.LBB13_12
.LBB13_12:
	.loc	3 976 5                         @ ../ThirdParty/STM32_USB_Device_Library/Class/CDC/Src/usbd_cdc.c:976:5
	b	.LBB13_13
.Ltmp127:
.LBB13_13:
	.loc	3 978 17                        @ ../ThirdParty/STM32_USB_Device_Library/Class/CDC/Src/usbd_cdc.c:978:17
	ldr	r0, [sp, #16]
	.loc	3 978 24 is_stmt 0              @ ../ThirdParty/STM32_USB_Device_Library/Class/CDC/Src/usbd_cdc.c:978:24
	ldr	r1, [sp, #12]
	.loc	3 978 3                         @ ../ThirdParty/STM32_USB_Device_Library/Class/CDC/Src/usbd_cdc.c:978:3
	bl	USBD_CtlError
	movs	r0, #3
	.loc	3 979 3 is_stmt 1               @ ../ThirdParty/STM32_USB_Device_Library/Class/CDC/Src/usbd_cdc.c:979:3
	strb.w	r0, [sp, #23]
	b	.LBB13_14
.LBB13_14:
	.loc	3 980 1                         @ ../ThirdParty/STM32_USB_Device_Library/Class/CDC/Src/usbd_cdc.c:980:1
	ldrb.w	r0, [sp, #23]
	.loc	3 980 1 epilogue_begin is_stmt 0 @ ../ThirdParty/STM32_USB_Device_Library/Class/CDC/Src/usbd_cdc.c:980:1
	add	sp, #24
	pop	{r7, pc}
.Ltmp128:
.Lfunc_end13:
	.size	USBD_WinUSBComm_SetupVendor, .Lfunc_end13-USBD_WinUSBComm_SetupVendor
	.cfi_endproc
	.cantunwind
	.fnend
                                        @ -- End function
	.section	.text.USBD_WinUSBComm_GetMSExtendedCompatIDOSDescriptor,"ax",%progbits
	.p2align	2                               @ -- Begin function USBD_WinUSBComm_GetMSExtendedCompatIDOSDescriptor
	.type	USBD_WinUSBComm_GetMSExtendedCompatIDOSDescriptor,%function
	.code	16                              @ @USBD_WinUSBComm_GetMSExtendedCompatIDOSDescriptor
	.thumb_func
USBD_WinUSBComm_GetMSExtendedCompatIDOSDescriptor:
.Lfunc_begin14:
	.loc	3 920 0 is_stmt 1               @ ../ThirdParty/STM32_USB_Device_Library/Class/CDC/Src/usbd_cdc.c:920:0
	.fnstart
	.cfi_startproc
@ %bb.0:
	.save	{r7, lr}
	push	{r7, lr}
	.cfi_def_cfa_offset 8
	.cfi_offset lr, -4
	.cfi_offset r7, -8
	.pad	#16
	sub	sp, #16
	.cfi_def_cfa_offset 24
	str	r0, [sp, #8]
	str	r1, [sp, #4]
.Ltmp129:
	.loc	3 921 11 prologue_end           @ ../ThirdParty/STM32_USB_Device_Library/Class/CDC/Src/usbd_cdc.c:921:11
	ldr	r0, [sp, #4]
	.loc	3 921 16 is_stmt 0              @ ../ThirdParty/STM32_USB_Device_Library/Class/CDC/Src/usbd_cdc.c:921:16
	ldrh	r0, [r0, #4]
	.loc	3 921 3                         @ ../ThirdParty/STM32_USB_Device_Library/Class/CDC/Src/usbd_cdc.c:921:3
	cmp	r0, #4
	bne	.LBB14_2
	b	.LBB14_1
.LBB14_1:
.Ltmp130:
	.loc	3 924 23 is_stmt 1              @ ../ThirdParty/STM32_USB_Device_Library/Class/CDC/Src/usbd_cdc.c:924:23
	ldr	r0, [sp, #8]
	.loc	3 924 73 is_stmt 0              @ ../ThirdParty/STM32_USB_Device_Library/Class/CDC/Src/usbd_cdc.c:924:73
	ldr	r1, [sp, #4]
	.loc	3 924 78                        @ ../ThirdParty/STM32_USB_Device_Library/Class/CDC/Src/usbd_cdc.c:924:78
	ldrh	r2, [r1, #6]
	.loc	3 924 5                         @ ../ThirdParty/STM32_USB_Device_Library/Class/CDC/Src/usbd_cdc.c:924:5
	movw	r1, :lower16:USBD_WinUSBComm_Extended_Compat_ID_OS_Desc
	movt	r1, :upper16:USBD_WinUSBComm_Extended_Compat_ID_OS_Desc
	bl	USBD_CtlSendData
	.loc	3 925 5 is_stmt 1               @ ../ThirdParty/STM32_USB_Device_Library/Class/CDC/Src/usbd_cdc.c:925:5
	b	.LBB14_3
.LBB14_2:
	.loc	3 927 18                        @ ../ThirdParty/STM32_USB_Device_Library/Class/CDC/Src/usbd_cdc.c:927:18
	ldr	r0, [sp, #8]
	.loc	3 927 25 is_stmt 0              @ ../ThirdParty/STM32_USB_Device_Library/Class/CDC/Src/usbd_cdc.c:927:25
	ldr	r1, [sp, #4]
	.loc	3 927 4                         @ ../ThirdParty/STM32_USB_Device_Library/Class/CDC/Src/usbd_cdc.c:927:4
	bl	USBD_CtlError
	movs	r0, #3
	.loc	3 928 4 is_stmt 1               @ ../ThirdParty/STM32_USB_Device_Library/Class/CDC/Src/usbd_cdc.c:928:4
	strb.w	r0, [sp, #15]
	b	.LBB14_4
.Ltmp131:
.LBB14_3:
	.loc	3 0 4 is_stmt 0                 @ ../ThirdParty/STM32_USB_Device_Library/Class/CDC/Src/usbd_cdc.c:0:4
	movs	r0, #0
	.loc	3 930 3 is_stmt 1               @ ../ThirdParty/STM32_USB_Device_Library/Class/CDC/Src/usbd_cdc.c:930:3
	strb.w	r0, [sp, #15]
	b	.LBB14_4
.LBB14_4:
	.loc	3 931 1                         @ ../ThirdParty/STM32_USB_Device_Library/Class/CDC/Src/usbd_cdc.c:931:1
	ldrb.w	r0, [sp, #15]
	.loc	3 931 1 epilogue_begin is_stmt 0 @ ../ThirdParty/STM32_USB_Device_Library/Class/CDC/Src/usbd_cdc.c:931:1
	add	sp, #16
	pop	{r7, pc}
.Ltmp132:
.Lfunc_end14:
	.size	USBD_WinUSBComm_GetMSExtendedCompatIDOSDescriptor, .Lfunc_end14-USBD_WinUSBComm_GetMSExtendedCompatIDOSDescriptor
	.cfi_endproc
	.cantunwind
	.fnend
                                        @ -- End function
	.section	.text.USBD_WinUSBComm_SetupVendorDevice,"ax",%progbits
	.p2align	2                               @ -- Begin function USBD_WinUSBComm_SetupVendorDevice
	.type	USBD_WinUSBComm_SetupVendorDevice,%function
	.code	16                              @ @USBD_WinUSBComm_SetupVendorDevice
	.thumb_func
USBD_WinUSBComm_SetupVendorDevice:
.Lfunc_begin15:
	.loc	3 955 0 is_stmt 1               @ ../ThirdParty/STM32_USB_Device_Library/Class/CDC/Src/usbd_cdc.c:955:0
	.fnstart
	.cfi_startproc
@ %bb.0:
	.save	{r7, lr}
	push	{r7, lr}
	.cfi_def_cfa_offset 8
	.cfi_offset lr, -4
	.cfi_offset r7, -8
	.pad	#8
	sub	sp, #8
	.cfi_def_cfa_offset 16
	str	r0, [sp, #4]
	str	r1, [sp]
.Ltmp133:
	.loc	3 956 17 prologue_end           @ ../ThirdParty/STM32_USB_Device_Library/Class/CDC/Src/usbd_cdc.c:956:17
	ldr	r0, [sp, #4]
	.loc	3 956 24 is_stmt 0              @ ../ThirdParty/STM32_USB_Device_Library/Class/CDC/Src/usbd_cdc.c:956:24
	ldr	r1, [sp]
	.loc	3 956 3                         @ ../ThirdParty/STM32_USB_Device_Library/Class/CDC/Src/usbd_cdc.c:956:3
	bl	USBD_CtlError
	movs	r0, #3
	.loc	3 957 3 epilogue_begin is_stmt 1 @ ../ThirdParty/STM32_USB_Device_Library/Class/CDC/Src/usbd_cdc.c:957:3
	add	sp, #8
	pop	{r7, pc}
.Ltmp134:
.Lfunc_end15:
	.size	USBD_WinUSBComm_SetupVendorDevice, .Lfunc_end15-USBD_WinUSBComm_SetupVendorDevice
	.cfi_endproc
	.cantunwind
	.fnend
                                        @ -- End function
	.section	.text.USBD_WinUSBComm_GetMSExtendedPropertiesOSDescriptor,"ax",%progbits
	.p2align	2                               @ -- Begin function USBD_WinUSBComm_GetMSExtendedPropertiesOSDescriptor
	.type	USBD_WinUSBComm_GetMSExtendedPropertiesOSDescriptor,%function
	.code	16                              @ @USBD_WinUSBComm_GetMSExtendedPropertiesOSDescriptor
	.thumb_func
USBD_WinUSBComm_GetMSExtendedPropertiesOSDescriptor:
.Lfunc_begin16:
	.loc	3 933 0                         @ ../ThirdParty/STM32_USB_Device_Library/Class/CDC/Src/usbd_cdc.c:933:0
	.fnstart
	.cfi_startproc
@ %bb.0:
	.save	{r7, lr}
	push	{r7, lr}
	.cfi_def_cfa_offset 8
	.cfi_offset lr, -4
	.cfi_offset r7, -8
	.pad	#16
	sub	sp, #16
	.cfi_def_cfa_offset 24
	str	r0, [sp, #8]
	str	r1, [sp, #4]
.Ltmp135:
	.loc	3 934 39 prologue_end           @ ../ThirdParty/STM32_USB_Device_Library/Class/CDC/Src/usbd_cdc.c:934:39
	ldr	r0, [sp, #4]
	.loc	3 934 44 is_stmt 0              @ ../ThirdParty/STM32_USB_Device_Library/Class/CDC/Src/usbd_cdc.c:934:44
	ldrb	r0, [r0, #2]
	.loc	3 934 11                        @ ../ThirdParty/STM32_USB_Device_Library/Class/CDC/Src/usbd_cdc.c:934:11
	strb.w	r0, [sp, #3]
.Ltmp136:
	.loc	3 935 8 is_stmt 1               @ ../ThirdParty/STM32_USB_Device_Library/Class/CDC/Src/usbd_cdc.c:935:8
	ldr	r0, [sp, #4]
	.loc	3 935 13 is_stmt 0              @ ../ThirdParty/STM32_USB_Device_Library/Class/CDC/Src/usbd_cdc.c:935:13
	ldrh	r0, [r0, #4]
.Ltmp137:
	.loc	3 935 8                         @ ../ThirdParty/STM32_USB_Device_Library/Class/CDC/Src/usbd_cdc.c:935:8
	cmp	r0, #5
	beq	.LBB16_2
	b	.LBB16_1
.LBB16_1:
.Ltmp138:
	.loc	3 937 19 is_stmt 1              @ ../ThirdParty/STM32_USB_Device_Library/Class/CDC/Src/usbd_cdc.c:937:19
	ldr	r0, [sp, #8]
	.loc	3 937 26 is_stmt 0              @ ../ThirdParty/STM32_USB_Device_Library/Class/CDC/Src/usbd_cdc.c:937:26
	ldr	r1, [sp, #4]
	.loc	3 937 5                         @ ../ThirdParty/STM32_USB_Device_Library/Class/CDC/Src/usbd_cdc.c:937:5
	bl	USBD_CtlError
	movs	r0, #3
	.loc	3 938 5 is_stmt 1               @ ../ThirdParty/STM32_USB_Device_Library/Class/CDC/Src/usbd_cdc.c:938:5
	strb.w	r0, [sp, #15]
	b	.LBB16_6
.Ltmp139:
.LBB16_2:
	.loc	3 940 12                        @ ../ThirdParty/STM32_USB_Device_Library/Class/CDC/Src/usbd_cdc.c:940:12
	ldrb.w	r0, [sp, #3]
	.loc	3 940 3 is_stmt 0               @ ../ThirdParty/STM32_USB_Device_Library/Class/CDC/Src/usbd_cdc.c:940:3
	cbnz	r0, .LBB16_4
	b	.LBB16_3
.LBB16_3:
.Ltmp140:
	.loc	3 946 23 is_stmt 1              @ ../ThirdParty/STM32_USB_Device_Library/Class/CDC/Src/usbd_cdc.c:946:23
	ldr	r0, [sp, #8]
	.loc	3 946 74 is_stmt 0              @ ../ThirdParty/STM32_USB_Device_Library/Class/CDC/Src/usbd_cdc.c:946:74
	ldr	r1, [sp, #4]
	.loc	3 946 79                        @ ../ThirdParty/STM32_USB_Device_Library/Class/CDC/Src/usbd_cdc.c:946:79
	ldrh	r2, [r1, #6]
	.loc	3 946 5                         @ ../ThirdParty/STM32_USB_Device_Library/Class/CDC/Src/usbd_cdc.c:946:5
	movw	r1, :lower16:USBD_WinUSBComm_Extended_Properties_OS_Desc
	movt	r1, :upper16:USBD_WinUSBComm_Extended_Properties_OS_Desc
	bl	USBD_CtlSendData
	.loc	3 947 5 is_stmt 1               @ ../ThirdParty/STM32_USB_Device_Library/Class/CDC/Src/usbd_cdc.c:947:5
	b	.LBB16_5
.LBB16_4:
	.loc	3 949 19                        @ ../ThirdParty/STM32_USB_Device_Library/Class/CDC/Src/usbd_cdc.c:949:19
	ldr	r0, [sp, #8]
	.loc	3 949 26 is_stmt 0              @ ../ThirdParty/STM32_USB_Device_Library/Class/CDC/Src/usbd_cdc.c:949:26
	ldr	r1, [sp, #4]
	.loc	3 949 5                         @ ../ThirdParty/STM32_USB_Device_Library/Class/CDC/Src/usbd_cdc.c:949:5
	bl	USBD_CtlError
	movs	r0, #3
	.loc	3 950 5 is_stmt 1               @ ../ThirdParty/STM32_USB_Device_Library/Class/CDC/Src/usbd_cdc.c:950:5
	strb.w	r0, [sp, #15]
	b	.LBB16_6
.Ltmp141:
.LBB16_5:
	.loc	3 0 5 is_stmt 0                 @ ../ThirdParty/STM32_USB_Device_Library/Class/CDC/Src/usbd_cdc.c:0:5
	movs	r0, #0
	.loc	3 952 3 is_stmt 1               @ ../ThirdParty/STM32_USB_Device_Library/Class/CDC/Src/usbd_cdc.c:952:3
	strb.w	r0, [sp, #15]
	b	.LBB16_6
.LBB16_6:
	.loc	3 953 1                         @ ../ThirdParty/STM32_USB_Device_Library/Class/CDC/Src/usbd_cdc.c:953:1
	ldrb.w	r0, [sp, #15]
	.loc	3 953 1 epilogue_begin is_stmt 0 @ ../ThirdParty/STM32_USB_Device_Library/Class/CDC/Src/usbd_cdc.c:953:1
	add	sp, #16
	pop	{r7, pc}
.Ltmp142:
.Lfunc_end16:
	.size	USBD_WinUSBComm_GetMSExtendedPropertiesOSDescriptor, .Lfunc_end16-USBD_WinUSBComm_GetMSExtendedPropertiesOSDescriptor
	.cfi_endproc
	.cantunwind
	.fnend
                                        @ -- End function
	.section	.text.USBD_WinUSBComm_SetupVendorInterface,"ax",%progbits
	.p2align	2                               @ -- Begin function USBD_WinUSBComm_SetupVendorInterface
	.type	USBD_WinUSBComm_SetupVendorInterface,%function
	.code	16                              @ @USBD_WinUSBComm_SetupVendorInterface
	.thumb_func
USBD_WinUSBComm_SetupVendorInterface:
.Lfunc_begin17:
	.loc	3 960 0 is_stmt 1               @ ../ThirdParty/STM32_USB_Device_Library/Class/CDC/Src/usbd_cdc.c:960:0
	.fnstart
	.cfi_startproc
@ %bb.0:
	.save	{r7, lr}
	push	{r7, lr}
	.cfi_def_cfa_offset 8
	.cfi_offset lr, -4
	.cfi_offset r7, -8
	.pad	#8
	sub	sp, #8
	.cfi_def_cfa_offset 16
	str	r0, [sp, #4]
	str	r1, [sp]
.Ltmp143:
	.loc	3 961 17 prologue_end           @ ../ThirdParty/STM32_USB_Device_Library/Class/CDC/Src/usbd_cdc.c:961:17
	ldr	r0, [sp, #4]
	.loc	3 961 24 is_stmt 0              @ ../ThirdParty/STM32_USB_Device_Library/Class/CDC/Src/usbd_cdc.c:961:24
	ldr	r1, [sp]
	.loc	3 961 3                         @ ../ThirdParty/STM32_USB_Device_Library/Class/CDC/Src/usbd_cdc.c:961:3
	bl	USBD_CtlError
	movs	r0, #3
	.loc	3 963 3 epilogue_begin is_stmt 1 @ ../ThirdParty/STM32_USB_Device_Library/Class/CDC/Src/usbd_cdc.c:963:3
	add	sp, #8
	pop	{r7, pc}
.Ltmp144:
.Lfunc_end17:
	.size	USBD_WinUSBComm_SetupVendorInterface, .Lfunc_end17-USBD_WinUSBComm_SetupVendorInterface
	.cfi_endproc
	.cantunwind
	.fnend
                                        @ -- End function
	.hidden	USBD_CDC                        @ @USBD_CDC
	.type	USBD_CDC,%object
	.section	.data.USBD_CDC,"aw",%progbits
	.globl	USBD_CDC
	.p2align	2, 0x0
USBD_CDC:
	.long	USBD_CDC_Init
	.long	USBD_CDC_DeInit
	.long	USBD_CDC_Setup
	.long	0
	.long	USBD_CDC_EP0_RxReady
	.long	USBD_CDC_DataIn
	.long	USBD_CDC_DataOut
	.long	0
	.long	0
	.long	0
	.long	USBD_CDC_GetHSCfgDesc
	.long	USBD_CDC_GetFSCfgDesc
	.long	USBD_CDC_GetOtherSpeedCfgDesc
	.long	USBD_CDC_GetDeviceQualifierDescriptor
	.long	USBD_UsrStrDescriptor
	.size	USBD_CDC, 60

	.hidden	USBD_CDC_CfgDesc                @ @USBD_CDC_CfgDesc
	.type	USBD_CDC_CfgDesc,%object
	.section	.data.USBD_CDC_CfgDesc,"aw",%progbits
	.globl	USBD_CDC_CfgDesc
	.p2align	2, 0x0
USBD_CDC_CfgDesc:
	.asciz	"\t\002j\000\003\001\000\3002\b\013\000\002\002\002\001\000\t\004\000\000\001\002\002\001\000\005$\000\020\001\005$\001\000\001\004$\002\002\005$\006\000\001\007\005\202\003\b\000\020\t\004\001\000\002\n\000\000\000\007\005\001\002@\000\000\007\005\201\002@\000\000\b\013\002\001\000\000\000\006\t\004\002\000\002\000\001\000\000\007\005\003\002@\000\000\007\005\203\002@\000"
	.size	USBD_CDC_CfgDesc, 106

	.type	USBD_CDC_DeviceQualifierDesc,%object @ @USBD_CDC_DeviceQualifierDesc
	.section	.data.USBD_CDC_DeviceQualifierDesc,"aw",%progbits
	.p2align	2, 0x0
USBD_CDC_DeviceQualifierDesc:
	.asciz	"\n\006\000\002\000\000\000@\001"
	.size	USBD_CDC_DeviceQualifierDesc, 10

	.hidden	USBD_WinUSBComm_Extended_Compat_ID_OS_Desc @ @USBD_WinUSBComm_Extended_Compat_ID_OS_Desc
	.type	USBD_WinUSBComm_Extended_Compat_ID_OS_Desc,%object
	.section	.data.USBD_WinUSBComm_Extended_Compat_ID_OS_Desc,"aw",%progbits
	.globl	USBD_WinUSBComm_Extended_Compat_ID_OS_Desc
	.p2align	2, 0x0
USBD_WinUSBComm_Extended_Compat_ID_OS_Desc:
	.ascii	"(\000\000\000\000\001\004\000\001\000\000\000\000\000\000\000\002\000WINUSB"
	.zero	16
	.size	USBD_WinUSBComm_Extended_Compat_ID_OS_Desc, 40

	.hidden	USBD_WinUSBComm_Extended_Properties_OS_Desc @ @USBD_WinUSBComm_Extended_Properties_OS_Desc
	.type	USBD_WinUSBComm_Extended_Properties_OS_Desc,%object
	.section	.data.USBD_WinUSBComm_Extended_Properties_OS_Desc,"aw",%progbits
	.globl	USBD_WinUSBComm_Extended_Properties_OS_Desc
	.p2align	2, 0x0
USBD_WinUSBComm_Extended_Properties_OS_Desc:
	.asciz	"\266\000\000\000\000\001\005\000\002\000\204\000\000\000\001\000\000\000(\000D\000e\000v\000i\000c\000e\000I\000n\000t\000e\000r\000f\000a\000c\000e\000G\000U\000I\000D\000\000\000N\000\000\000{\000E\000A\0000\000B\000D\0005\000C\0003\000-\0005\0000\000F\0003\000-\0004\0008\0008\0008\000-\0008\0004\000B\0004\000-\0007\0004\000E\0005\0000\000E\0001\0006\0004\0009\000D\000B\000}\000\000\000>\000\000\000\001\000\000\000\f\000L\000a\000b\000e\000l\000\000\000$\000\000\000O\000D\000r\000i\000v\000e\000\000"
	.size	USBD_WinUSBComm_Extended_Properties_OS_Desc, 182

	.file	7 "D:\\ikingtec\\Robot\\ODrive\\Firmware\\MDK-ARM" "../ThirdParty/CMSIS/Device/ST/STM32F4xx/Include/stm32f405xx.h"
	.file	8 "D:\\ikingtec\\Robot\\ODrive\\Firmware\\MDK-ARM" "../ThirdParty/STM32F4xx_HAL_Driver/Inc/stm32f4xx_ll_usb.h"
	.file	9 "D:\\Embed\\MDK\\MDK\\ARM\\ARMCompilerV621\\Bin\\..\\include" "stdio.h"
	.section	".note.GNU-stack","",%progbits
	.eabi_attribute	30, 6	@ Tag_ABI_optimization_goals
	.ARM_attribute	16, 1	@ Tag_AV_eba