	.text
	.syntax unified
	.eabi_attribute	67, "2.09"	@ Tag_conformance
	.cpu	cortex-m4
	.eabi_attribute	6, 13	@ Tag_CPU_arch
	.eabi_attribute	7, 77	@ Tag_CPU_arch_profile
	.eabi_attribute	8, 0	@ Tag_ARM_ISA_use
	.eabi_attribute	9, 2	@ Tag_THUMB_ISA_use
	.fpu	fpv4-sp-d16
	.eabi_attribute	27, 1	@ Tag_ABI_HardFP_use
	.eabi_attribute	36, 1	@ Tag_FP_HP_extension
	.eabi_attribute	34, 1	@ Tag_CPU_unaligned_access
	.eabi_attribute	17, 1	@ Tag_ABI_PCS_GOT_use
	.eabi_attribute	20, 2	@ Tag_ABI_FP_denormal
	.eabi_attribute	21, 0	@ Tag_ABI_FP_exceptions
	.eabi_attribute	23, 1	@ Tag_ABI_FP_number_model
	.eabi_attribute	24, 1	@ Tag_ABI_align_needed
	.eabi_attribute	25, 1	@ Tag_ABI_align_preserved
	.eabi_attribute	28, 1	@ Tag_ABI_VFP_args
	.eabi_attribute	38, 1	@ Tag_ABI_FP_16bit_format
	.eabi_attribute	18, 2	@ Tag_ABI_PCS_wchar_t
	.eabi_attribute	26, 1	@ Tag_ABI_enum_size
	.eabi_attribute	14, 0	@ Tag_ABI_PCS_R9_use
	.file	"usbd_ctlreq.c"
	.file	1 "D:\\Embed\\MDK\\MDK\\ARM\\ARMCompilerV621\\Bin\\..\\include" "stdint.h"
	.file	2 "D:\\ikingtec\\Robot\\ODrive\\Firmware\\MDK-ARM" "../ThirdParty/STM32_USB_Device_Library/Core/Src/usbd_ctlreq.c"
	.file	3 "D:\\ikingtec\\Robot\\ODrive\\Firmware\\MDK-ARM" "../ThirdParty/STM32_USB_Device_Library/Core/Inc/usbd_def.h"
	.section	.text.USBD_StdDevReq,"ax",%progbits
	.hidden	USBD_StdDevReq                  @ -- Begin function USBD_StdDevReq
	.globl	USBD_StdDevReq
	.p2align	2
	.type	USBD_StdDevReq,%function
	.code	16                              @ @USBD_StdDevReq
	.thumb_func
USBD_StdDevReq:
.Lfunc_begin0:
	.loc	2 101 0                         @ ../ThirdParty/STM32_USB_Device_Library/Core/Src/usbd_ctlreq.c:101:0
	.fnstart
	.cfi_sections .debug_frame
	.cfi_startproc
@ %bb.0:
	.save	{r7, lr}
	push	{r7, lr}
	.cfi_def_cfa_offset 8
	.cfi_offset lr, -4
	.cfi_offset r7, -8
	.pad	#24
	sub	sp, #24
	.cfi_def_cfa_offset 32
	str	r0, [sp, #20]
	str	r1, [sp, #16]
	movs	r0, #0
.Ltmp0:
	.loc	2 102 22 prologue_end           @ ../ThirdParty/STM32_USB_Device_Library/Core/Src/usbd_ctlreq.c:102:22
	strb.w	r0, [sp, #15]
	.loc	2 104 11                        @ ../ThirdParty/STM32_USB_Device_Library/Core/Src/usbd_ctlreq.c:104:11
	ldr	r0, [sp, #16]
	ldrb	r0, [r0]
	.loc	2 104 26 is_stmt 0              @ ../ThirdParty/STM32_USB_Device_Library/Core/Src/usbd_ctlreq.c:104:26
	and	r0, r0, #96
	.loc	2 104 3                         @ ../ThirdParty/STM32_USB_Device_Library/Core/Src/usbd_ctlreq.c:104:3
	mov	r1, r0
	str	r1, [sp, #8]                    @ 4-byte Spill
	cbz	r0, .LBB0_4
	b	.LBB0_1
.LBB0_1:
	ldr	r0, [sp, #8]                    @ 4-byte Reload
	cmp	r0, #32
	beq	.LBB0_3
	b	.LBB0_2
.LBB0_2:
	ldr	r0, [sp, #8]                    @ 4-byte Reload
	cmp	r0, #64
	bne	.LBB0_16
	b	.LBB0_3
.LBB0_3:
.Ltmp1:
	.loc	2 108 31 is_stmt 1              @ ../ThirdParty/STM32_USB_Device_Library/Core/Src/usbd_ctlreq.c:108:31
	ldr	r0, [sp, #20]
	.loc	2 108 37 is_stmt 0              @ ../ThirdParty/STM32_USB_Device_Library/Core/Src/usbd_ctlreq.c:108:37
	ldr.w	r1, [r0, #696]
	.loc	2 108 45                        @ ../ThirdParty/STM32_USB_Device_Library/Core/Src/usbd_ctlreq.c:108:45
	ldr	r2, [r1, #8]
	.loc	2 108 57                        @ ../ThirdParty/STM32_USB_Device_Library/Core/Src/usbd_ctlreq.c:108:57
	ldr	r1, [sp, #16]
	.loc	2 108 31                        @ ../ThirdParty/STM32_USB_Device_Library/Core/Src/usbd_ctlreq.c:108:31
	blx	r2
	.loc	2 108 9                         @ ../ThirdParty/STM32_USB_Device_Library/Core/Src/usbd_ctlreq.c:108:9
	strb.w	r0, [sp, #15]
	.loc	2 109 5 is_stmt 1               @ ../ThirdParty/STM32_USB_Device_Library/Core/Src/usbd_ctlreq.c:109:5
	b	.LBB0_17
.LBB0_4:
	.loc	2 112 13                        @ ../ThirdParty/STM32_USB_Device_Library/Core/Src/usbd_ctlreq.c:112:13
	ldr	r0, [sp, #16]
	.loc	2 112 18 is_stmt 0              @ ../ThirdParty/STM32_USB_Device_Library/Core/Src/usbd_ctlreq.c:112:18
	ldrb	r0, [r0, #1]
	.loc	2 112 5                         @ ../ThirdParty/STM32_USB_Device_Library/Core/Src/usbd_ctlreq.c:112:5
	mov	r1, r0
	str	r1, [sp, #4]                    @ 4-byte Spill
	cmp	r0, #9
	bhi	.LBB0_14
@ %bb.5:
	.loc	2 0 5                           @ ../ThirdParty/STM32_USB_Device_Library/Core/Src/usbd_ctlreq.c:0:5
	ldr	r1, [sp, #4]                    @ 4-byte Reload
.LCPI0_0:
	tbb	[pc, r1]
@ %bb.6:
.LJTI0_0:
	.byte	(.LBB0_11-(.LCPI0_0+4))/2
	.byte	(.LBB0_13-(.LCPI0_0+4))/2
	.byte	(.LBB0_14-(.LCPI0_0+4))/2
	.byte	(.LBB0_12-(.LCPI0_0+4))/2
	.byte	(.LBB0_14-(.LCPI0_0+4))/2
	.byte	(.LBB0_8-(.LCPI0_0+4))/2
	.byte	(.LBB0_7-(.LCPI0_0+4))/2
	.byte	(.LBB0_14-(.LCPI0_0+4))/2
	.byte	(.LBB0_10-(.LCPI0_0+4))/2
	.byte	(.LBB0_9-(.LCPI0_0+4))/2
	.p2align	1
.LBB0_7:
.Ltmp2:
	.loc	2 115 26 is_stmt 1              @ ../ThirdParty/STM32_USB_Device_Library/Core/Src/usbd_ctlreq.c:115:26
	ldr	r0, [sp, #20]
	.loc	2 115 32 is_stmt 0              @ ../ThirdParty/STM32_USB_Device_Library/Core/Src/usbd_ctlreq.c:115:32
	ldr	r1, [sp, #16]
	.loc	2 115 7                         @ ../ThirdParty/STM32_USB_Device_Library/Core/Src/usbd_ctlreq.c:115:7
	bl	USBD_GetDescriptor
	.loc	2 116 7 is_stmt 1               @ ../ThirdParty/STM32_USB_Device_Library/Core/Src/usbd_ctlreq.c:116:7
	b	.LBB0_15
.LBB0_8:
	.loc	2 119 23                        @ ../ThirdParty/STM32_USB_Device_Library/Core/Src/usbd_ctlreq.c:119:23
	ldr	r0, [sp, #20]
	.loc	2 119 29 is_stmt 0              @ ../ThirdParty/STM32_USB_Device_Library/Core/Src/usbd_ctlreq.c:119:29
	ldr	r1, [sp, #16]
	.loc	2 119 7                         @ ../ThirdParty/STM32_USB_Device_Library/Core/Src/usbd_ctlreq.c:119:7
	bl	USBD_SetAddress
	.loc	2 120 7 is_stmt 1               @ ../ThirdParty/STM32_USB_Device_Library/Core/Src/usbd_ctlreq.c:120:7
	b	.LBB0_15
.LBB0_9:
	.loc	2 123 28                        @ ../ThirdParty/STM32_USB_Device_Library/Core/Src/usbd_ctlreq.c:123:28
	ldr	r0, [sp, #20]
	.loc	2 123 34 is_stmt 0              @ ../ThirdParty/STM32_USB_Device_Library/Core/Src/usbd_ctlreq.c:123:34
	ldr	r1, [sp, #16]
	.loc	2 123 13                        @ ../ThirdParty/STM32_USB_Device_Library/Core/Src/usbd_ctlreq.c:123:13
	bl	USBD_SetConfig
	.loc	2 123 11                        @ ../ThirdParty/STM32_USB_Device_Library/Core/Src/usbd_ctlreq.c:123:11
	strb.w	r0, [sp, #15]
	.loc	2 124 7 is_stmt 1               @ ../ThirdParty/STM32_USB_Device_Library/Core/Src/usbd_ctlreq.c:124:7
	b	.LBB0_15
.LBB0_10:
	.loc	2 127 22                        @ ../ThirdParty/STM32_USB_Device_Library/Core/Src/usbd_ctlreq.c:127:22
	ldr	r0, [sp, #20]
	.loc	2 127 28 is_stmt 0              @ ../ThirdParty/STM32_USB_Device_Library/Core/Src/usbd_ctlreq.c:127:28
	ldr	r1, [sp, #16]
	.loc	2 127 7                         @ ../ThirdParty/STM32_USB_Device_Library/Core/Src/usbd_ctlreq.c:127:7
	bl	USBD_GetConfig
	.loc	2 128 7 is_stmt 1               @ ../ThirdParty/STM32_USB_Device_Library/Core/Src/usbd_ctlreq.c:128:7
	b	.LBB0_15
.LBB0_11:
	.loc	2 131 22                        @ ../ThirdParty/STM32_USB_Device_Library/Core/Src/usbd_ctlreq.c:131:22
	ldr	r0, [sp, #20]
	.loc	2 131 28 is_stmt 0              @ ../ThirdParty/STM32_USB_Device_Library/Core/Src/usbd_ctlreq.c:131:28
	ldr	r1, [sp, #16]
	.loc	2 131 7                         @ ../ThirdParty/STM32_USB_Device_Library/Core/Src/usbd_ctlreq.c:131:7
	bl	USBD_GetStatus
	.loc	2 132 7 is_stmt 1               @ ../ThirdParty/STM32_USB_Device_Library/Core/Src/usbd_ctlreq.c:132:7
	b	.LBB0_15
.LBB0_12:
	.loc	2 135 23                        @ ../ThirdParty/STM32_USB_Device_Library/Core/Src/usbd_ctlreq.c:135:23
	ldr	r0, [sp, #20]
	.loc	2 135 29 is_stmt 0              @ ../ThirdParty/STM32_USB_Device_Library/Core/Src/usbd_ctlreq.c:135:29
	ldr	r1, [sp, #16]
	.loc	2 135 7                         @ ../ThirdParty/STM32_USB_Device_Library/Core/Src/usbd_ctlreq.c:135:7
	bl	USBD_SetFeature
	.loc	2 136 7 is_stmt 1               @ ../ThirdParty/STM32_USB_Device_Library/Core/Src/usbd_ctlreq.c:136:7
	b	.LBB0_15
.LBB0_13:
	.loc	2 139 23                        @ ../ThirdParty/STM32_USB_Device_Library/Core/Src/usbd_ctlreq.c:139:23
	ldr	r0, [sp, #20]
	.loc	2 139 29 is_stmt 0              @ ../ThirdParty/STM32_USB_Device_Library/Core/Src/usbd_ctlreq.c:139:29
	ldr	r1, [sp, #16]
	.loc	2 139 7                         @ ../ThirdParty/STM32_USB_Device_Library/Core/Src/usbd_ctlreq.c:139:7
	bl	USBD_ClrFeature
	.loc	2 140 7 is_stmt 1               @ ../ThirdParty/STM32_USB_Device_Library/Core/Src/usbd_ctlreq.c:140:7
	b	.LBB0_15
.LBB0_14:
	.loc	2 143 21                        @ ../ThirdParty/STM32_USB_Device_Library/Core/Src/usbd_ctlreq.c:143:21
	ldr	r0, [sp, #20]
	.loc	2 143 27 is_stmt 0              @ ../ThirdParty/STM32_USB_Device_Library/Core/Src/usbd_ctlreq.c:143:27
	ldr	r1, [sp, #16]
	.loc	2 143 7                         @ ../ThirdParty/STM32_USB_Device_Library/Core/Src/usbd_ctlreq.c:143:7
	bl	USBD_CtlError
	.loc	2 144 7 is_stmt 1               @ ../ThirdParty/STM32_USB_Device_Library/Core/Src/usbd_ctlreq.c:144:7
	b	.LBB0_15
.Ltmp3:
.LBB0_15:
	.loc	2 146 5                         @ ../ThirdParty/STM32_USB_Device_Library/Core/Src/usbd_ctlreq.c:146:5
	b	.LBB0_17
.LBB0_16:
	.loc	2 149 19                        @ ../ThirdParty/STM32_USB_Device_Library/Core/Src/usbd_ctlreq.c:149:19
	ldr	r0, [sp, #20]
	.loc	2 149 25 is_stmt 0              @ ../ThirdParty/STM32_USB_Device_Library/Core/Src/usbd_ctlreq.c:149:25
	ldr	r1, [sp, #16]
	.loc	2 149 5                         @ ../ThirdParty/STM32_USB_Device_Library/Core/Src/usbd_ctlreq.c:149:5
	bl	USBD_CtlError
	.loc	2 150 5 is_stmt 1               @ ../ThirdParty/STM32_USB_Device_Library/Core/Src/usbd_ctlreq.c:150:5
	b	.LBB0_17
.Ltmp4:
.LBB0_17:
	.loc	2 153 10                        @ ../ThirdParty/STM32_USB_Device_Library/Core/Src/usbd_ctlreq.c:153:10
	ldrb.w	r0, [sp, #15]
	.loc	2 153 3 epilogue_begin is_stmt 0 @ ../ThirdParty/STM32_USB_Device_Library/Core/Src/usbd_ctlreq.c:153:3
	add	sp, #24
	pop	{r7, pc}
.Ltmp5:
.Lfunc_end0:
	.size	USBD_StdDevReq, .Lfunc_end0-USBD_StdDevReq
	.cfi_endproc
	.cantunwind
	.fnend
                                        @ -- End function
	.section	.text.USBD_GetDescriptor,"ax",%progbits
	.p2align	2                               @ -- Begin function USBD_GetDescriptor
	.type	USBD_GetDescriptor,%function
	.code	16                              @ @USBD_GetDescriptor
	.thumb_func
USBD_GetDescriptor:
.Lfunc_begin1:
	.loc	2 381 0 is_stmt 1               @ ../ThirdParty/STM32_USB_Device_Library/Core/Src/usbd_ctlreq.c:381:0
	.fnstart
	.cfi_startproc
@ %bb.0:
	.save	{r7, lr}
	push	{r7, lr}
	.cfi_def_cfa_offset 8
	.cfi_offset lr, -4
	.cfi_offset r7, -8
	.pad	#32
	sub	sp, #32
	.cfi_def_cfa_offset 40
	str	r0, [sp, #28]
	str	r1, [sp, #24]
	movs	r0, #0
.Ltmp6:
	.loc	2 382 12 prologue_end           @ ../ThirdParty/STM32_USB_Device_Library/Core/Src/usbd_ctlreq.c:382:12
	strh.w	r0, [sp, #22]
	.loc	2 383 12                        @ ../ThirdParty/STM32_USB_Device_Library/Core/Src/usbd_ctlreq.c:383:12
	str	r0, [sp, #16]
	.loc	2 384 11                        @ ../ThirdParty/STM32_USB_Device_Library/Core/Src/usbd_ctlreq.c:384:11
	strb.w	r0, [sp, #15]
	.loc	2 386 11                        @ ../ThirdParty/STM32_USB_Device_Library/Core/Src/usbd_ctlreq.c:386:11
	ldr	r0, [sp, #24]
	.loc	2 386 16 is_stmt 0              @ ../ThirdParty/STM32_USB_Device_Library/Core/Src/usbd_ctlreq.c:386:16
	ldrb	r0, [r0, #3]
	.loc	2 386 3                         @ ../ThirdParty/STM32_USB_Device_Library/Core/Src/usbd_ctlreq.c:386:3
	subs	r0, #1
	mov	r1, r0
	str	r1, [sp, #8]                    @ 4-byte Spill
	cmp	r0, #6
	bhi.w	.LBB1_48
@ %bb.1:
	.loc	2 0 3                           @ ../ThirdParty/STM32_USB_Device_Library/Core/Src/usbd_ctlreq.c:0:3
	ldr	r1, [sp, #8]                    @ 4-byte Reload
.LCPI1_0:
	tbh	[pc, r1, lsl #1]
@ %bb.2:
.LJTI1_0:
	.short	(.LBB1_3-(.LCPI1_0+4))/2
	.short	(.LBB1_4-(.LCPI1_0+4))/2
	.short	(.LBB1_8-(.LCPI1_0+4))/2
	.short	(.LBB1_48-(.LCPI1_0+4))/2
	.short	(.LBB1_48-(.LCPI1_0+4))/2
	.short	(.LBB1_40-(.LCPI1_0+4))/2
	.short	(.LBB1_44-(.LCPI1_0+4))/2
	.p2align	1
.LBB1_3:
.Ltmp7:
	.loc	2 402 12 is_stmt 1              @ ../ThirdParty/STM32_USB_Device_Library/Core/Src/usbd_ctlreq.c:402:12
	ldr	r0, [sp, #28]
	.loc	2 402 18 is_stmt 0              @ ../ThirdParty/STM32_USB_Device_Library/Core/Src/usbd_ctlreq.c:402:18
	ldr.w	r1, [r0, #692]
	.loc	2 402 25                        @ ../ThirdParty/STM32_USB_Device_Library/Core/Src/usbd_ctlreq.c:402:25
	ldr	r2, [r1]
	.loc	2 402 51                        @ ../ThirdParty/STM32_USB_Device_Library/Core/Src/usbd_ctlreq.c:402:51
	ldrb	r0, [r0, #16]
	add.w	r1, sp, #22
	.loc	2 402 12                        @ ../ThirdParty/STM32_USB_Device_Library/Core/Src/usbd_ctlreq.c:402:12
	blx	r2
	.loc	2 402 10                        @ ../ThirdParty/STM32_USB_Device_Library/Core/Src/usbd_ctlreq.c:402:10
	str	r0, [sp, #16]
	.loc	2 403 5 is_stmt 1               @ ../ThirdParty/STM32_USB_Device_Library/Core/Src/usbd_ctlreq.c:403:5
	b	.LBB1_49
.LBB1_4:
.Ltmp8:
	.loc	2 406 9                         @ ../ThirdParty/STM32_USB_Device_Library/Core/Src/usbd_ctlreq.c:406:9
	ldr	r0, [sp, #28]
	.loc	2 406 15 is_stmt 0              @ ../ThirdParty/STM32_USB_Device_Library/Core/Src/usbd_ctlreq.c:406:15
	ldrb	r0, [r0, #16]
.Ltmp9:
	.loc	2 406 9                         @ ../ThirdParty/STM32_USB_Device_Library/Core/Src/usbd_ctlreq.c:406:9
	cbnz	r0, .LBB1_6
	b	.LBB1_5
.LBB1_5:
.Ltmp10:
	.loc	2 408 14 is_stmt 1              @ ../ThirdParty/STM32_USB_Device_Library/Core/Src/usbd_ctlreq.c:408:14
	ldr	r0, [sp, #28]
	.loc	2 408 20 is_stmt 0              @ ../ThirdParty/STM32_USB_Device_Library/Core/Src/usbd_ctlreq.c:408:20
	ldr.w	r0, [r0, #696]
	.loc	2 408 28                        @ ../ThirdParty/STM32_USB_Device_Library/Core/Src/usbd_ctlreq.c:408:28
	ldr	r1, [r0, #40]
	add.w	r0, sp, #22
	.loc	2 408 14                        @ ../ThirdParty/STM32_USB_Device_Library/Core/Src/usbd_ctlreq.c:408:14
	blx	r1
	.loc	2 408 12                        @ ../ThirdParty/STM32_USB_Device_Library/Core/Src/usbd_ctlreq.c:408:12
	str	r0, [sp, #16]
	.loc	2 409 7 is_stmt 1               @ ../ThirdParty/STM32_USB_Device_Library/Core/Src/usbd_ctlreq.c:409:7
	ldr	r1, [sp, #16]
	movs	r0, #2
	.loc	2 409 15 is_stmt 0              @ ../ThirdParty/STM32_USB_Device_Library/Core/Src/usbd_ctlreq.c:409:15
	strb	r0, [r1, #1]
	.loc	2 410 5 is_stmt 1               @ ../ThirdParty/STM32_USB_Device_Library/Core/Src/usbd_ctlreq.c:410:5
	b	.LBB1_7
.Ltmp11:
.LBB1_6:
	.loc	2 413 14                        @ ../ThirdParty/STM32_USB_Device_Library/Core/Src/usbd_ctlreq.c:413:14
	ldr	r0, [sp, #28]
	.loc	2 413 20 is_stmt 0              @ ../ThirdParty/STM32_USB_Device_Library/Core/Src/usbd_ctlreq.c:413:20
	ldr.w	r0, [r0, #696]
	.loc	2 413 28                        @ ../ThirdParty/STM32_USB_Device_Library/Core/Src/usbd_ctlreq.c:413:28
	ldr	r1, [r0, #44]
	add.w	r0, sp, #22
	.loc	2 413 14                        @ ../ThirdParty/STM32_USB_Device_Library/Core/Src/usbd_ctlreq.c:413:14
	blx	r1
	.loc	2 413 12                        @ ../ThirdParty/STM32_USB_Device_Library/Core/Src/usbd_ctlreq.c:413:12
	str	r0, [sp, #16]
	.loc	2 414 7 is_stmt 1               @ ../ThirdParty/STM32_USB_Device_Library/Core/Src/usbd_ctlreq.c:414:7
	ldr	r1, [sp, #16]
	movs	r0, #2
	.loc	2 414 15 is_stmt 0              @ ../ThirdParty/STM32_USB_Device_Library/Core/Src/usbd_ctlreq.c:414:15
	strb	r0, [r1, #1]
	b	.LBB1_7
.Ltmp12:
.LBB1_7:
	.loc	2 416 5 is_stmt 1               @ ../ThirdParty/STM32_USB_Device_Library/Core/Src/usbd_ctlreq.c:416:5
	b	.LBB1_49
.LBB1_8:
	.loc	2 419 23                        @ ../ThirdParty/STM32_USB_Device_Library/Core/Src/usbd_ctlreq.c:419:23
	ldr	r0, [sp, #24]
	.loc	2 419 28 is_stmt 0              @ ../ThirdParty/STM32_USB_Device_Library/Core/Src/usbd_ctlreq.c:419:28
	ldrb	r0, [r0, #2]
	.loc	2 419 5                         @ ../ThirdParty/STM32_USB_Device_Library/Core/Src/usbd_ctlreq.c:419:5
	mov	r1, r0
	str	r1, [sp, #4]                    @ 4-byte Spill
	cmp	r0, #5
	bhi.w	.LBB1_35
@ %bb.9:
	.loc	2 0 5                           @ ../ThirdParty/STM32_USB_Device_Library/Core/Src/usbd_ctlreq.c:0:5
	ldr	r1, [sp, #4]                    @ 4-byte Reload
.LCPI1_1:
	tbb	[pc, r1]
@ %bb.10:
.LJTI1_1:
	.byte	(.LBB1_11-(.LCPI1_1+4))/2
	.byte	(.LBB1_15-(.LCPI1_1+4))/2
	.byte	(.LBB1_19-(.LCPI1_1+4))/2
	.byte	(.LBB1_23-(.LCPI1_1+4))/2
	.byte	(.LBB1_27-(.LCPI1_1+4))/2
	.byte	(.LBB1_31-(.LCPI1_1+4))/2
	.p2align	1
.LBB1_11:
.Ltmp13:
	.loc	2 422 11 is_stmt 1              @ ../ThirdParty/STM32_USB_Device_Library/Core/Src/usbd_ctlreq.c:422:11
	ldr	r0, [sp, #28]
	.loc	2 422 17 is_stmt 0              @ ../ThirdParty/STM32_USB_Device_Library/Core/Src/usbd_ctlreq.c:422:17
	ldr.w	r0, [r0, #692]
	.loc	2 422 24                        @ ../ThirdParty/STM32_USB_Device_Library/Core/Src/usbd_ctlreq.c:422:24
	ldr	r0, [r0, #4]
.Ltmp14:
	.loc	2 422 11                        @ ../ThirdParty/STM32_USB_Device_Library/Core/Src/usbd_ctlreq.c:422:11
	cbz	r0, .LBB1_13
	b	.LBB1_12
.LBB1_12:
.Ltmp15:
	.loc	2 424 16 is_stmt 1              @ ../ThirdParty/STM32_USB_Device_Library/Core/Src/usbd_ctlreq.c:424:16
	ldr	r0, [sp, #28]
	.loc	2 424 22 is_stmt 0              @ ../ThirdParty/STM32_USB_Device_Library/Core/Src/usbd_ctlreq.c:424:22
	ldr.w	r1, [r0, #692]
	.loc	2 424 29                        @ ../ThirdParty/STM32_USB_Device_Library/Core/Src/usbd_ctlreq.c:424:29
	ldr	r2, [r1, #4]
	.loc	2 424 58                        @ ../ThirdParty/STM32_USB_Device_Library/Core/Src/usbd_ctlreq.c:424:58
	ldrb	r0, [r0, #16]
	add.w	r1, sp, #22
	.loc	2 424 16                        @ ../ThirdParty/STM32_USB_Device_Library/Core/Src/usbd_ctlreq.c:424:16
	blx	r2
	.loc	2 424 14                        @ ../ThirdParty/STM32_USB_Device_Library/Core/Src/usbd_ctlreq.c:424:14
	str	r0, [sp, #16]
	.loc	2 425 7 is_stmt 1               @ ../ThirdParty/STM32_USB_Device_Library/Core/Src/usbd_ctlreq.c:425:7
	b	.LBB1_14
.Ltmp16:
.LBB1_13:
	.loc	2 428 23                        @ ../ThirdParty/STM32_USB_Device_Library/Core/Src/usbd_ctlreq.c:428:23
	ldr	r0, [sp, #28]
	.loc	2 428 29 is_stmt 0              @ ../ThirdParty/STM32_USB_Device_Library/Core/Src/usbd_ctlreq.c:428:29
	ldr	r1, [sp, #24]
	.loc	2 428 9                         @ ../ThirdParty/STM32_USB_Device_Library/Core/Src/usbd_ctlreq.c:428:9
	bl	USBD_CtlError
	.loc	2 429 12 is_stmt 1              @ ../ThirdParty/STM32_USB_Device_Library/Core/Src/usbd_ctlreq.c:429:12
	ldrb.w	r0, [sp, #15]
	adds	r0, #1
	strb.w	r0, [sp, #15]
	b	.LBB1_14
.Ltmp17:
.LBB1_14:
	.loc	2 431 7                         @ ../ThirdParty/STM32_USB_Device_Library/Core/Src/usbd_ctlreq.c:431:7
	b	.LBB1_39
.LBB1_15:
.Ltmp18:
	.loc	2 434 11                        @ ../ThirdParty/STM32_USB_Device_Library/Core/Src/usbd_ctlreq.c:434:11
	ldr	r0, [sp, #28]
	.loc	2 434 17 is_stmt 0              @ ../ThirdParty/STM32_USB_Device_Library/Core/Src/usbd_ctlreq.c:434:17
	ldr.w	r0, [r0, #692]
	.loc	2 434 24                        @ ../ThirdParty/STM32_USB_Device_Library/Core/Src/usbd_ctlreq.c:434:24
	ldr	r0, [r0, #8]
.Ltmp19:
	.loc	2 434 11                        @ ../ThirdParty/STM32_USB_Device_Library/Core/Src/usbd_ctlreq.c:434:11
	cbz	r0, .LBB1_17
	b	.LBB1_16
.LBB1_16:
.Ltmp20:
	.loc	2 436 16 is_stmt 1              @ ../ThirdParty/STM32_USB_Device_Library/Core/Src/usbd_ctlreq.c:436:16
	ldr	r0, [sp, #28]
	.loc	2 436 22 is_stmt 0              @ ../ThirdParty/STM32_USB_Device_Library/Core/Src/usbd_ctlreq.c:436:22
	ldr.w	r1, [r0, #692]
	.loc	2 436 29                        @ ../ThirdParty/STM32_USB_Device_Library/Core/Src/usbd_ctlreq.c:436:29
	ldr	r2, [r1, #8]
	.loc	2 436 64                        @ ../ThirdParty/STM32_USB_Device_Library/Core/Src/usbd_ctlreq.c:436:64
	ldrb	r0, [r0, #16]
	add.w	r1, sp, #22
	.loc	2 436 16                        @ ../ThirdParty/STM32_USB_Device_Library/Core/Src/usbd_ctlreq.c:436:16
	blx	r2
	.loc	2 436 14                        @ ../ThirdParty/STM32_USB_Device_Library/Core/Src/usbd_ctlreq.c:436:14
	str	r0, [sp, #16]
	.loc	2 437 7 is_stmt 1               @ ../ThirdParty/STM32_USB_Device_Library/Core/Src/usbd_ctlreq.c:437:7
	b	.LBB1_18
.Ltmp21:
.LBB1_17:
	.loc	2 440 23                        @ ../ThirdParty/STM32_USB_Device_Library/Core/Src/usbd_ctlreq.c:440:23
	ldr	r0, [sp, #28]
	.loc	2 440 29 is_stmt 0              @ ../ThirdParty/STM32_USB_Device_Library/Core/Src/usbd_ctlreq.c:440:29
	ldr	r1, [sp, #24]
	.loc	2 440 9                         @ ../ThirdParty/STM32_USB_Device_Library/Core/Src/usbd_ctlreq.c:440:9
	bl	USBD_CtlError
	.loc	2 441 12 is_stmt 1              @ ../ThirdParty/STM32_USB_Device_Library/Core/Src/usbd_ctlreq.c:441:12
	ldrb.w	r0, [sp, #15]
	adds	r0, #1
	strb.w	r0, [sp, #15]
	b	.LBB1_18
.Ltmp22:
.LBB1_18:
	.loc	2 443 7                         @ ../ThirdParty/STM32_USB_Device_Library/Core/Src/usbd_ctlreq.c:443:7
	b	.LBB1_39
.LBB1_19:
.Ltmp23:
	.loc	2 446 11                        @ ../ThirdParty/STM32_USB_Device_Library/Core/Src/usbd_ctlreq.c:446:11
	ldr	r0, [sp, #28]
	.loc	2 446 17 is_stmt 0              @ ../ThirdParty/STM32_USB_Device_Library/Core/Src/usbd_ctlreq.c:446:17
	ldr.w	r0, [r0, #692]
	.loc	2 446 24                        @ ../ThirdParty/STM32_USB_Device_Library/Core/Src/usbd_ctlreq.c:446:24
	ldr	r0, [r0, #12]
.Ltmp24:
	.loc	2 446 11                        @ ../ThirdParty/STM32_USB_Device_Library/Core/Src/usbd_ctlreq.c:446:11
	cbz	r0, .LBB1_21
	b	.LBB1_20
.LBB1_20:
.Ltmp25:
	.loc	2 448 16 is_stmt 1              @ ../ThirdParty/STM32_USB_Device_Library/Core/Src/usbd_ctlreq.c:448:16
	ldr	r0, [sp, #28]
	.loc	2 448 22 is_stmt 0              @ ../ThirdParty/STM32_USB_Device_Library/Core/Src/usbd_ctlreq.c:448:22
	ldr.w	r1, [r0, #692]
	.loc	2 448 29                        @ ../ThirdParty/STM32_USB_Device_Library/Core/Src/usbd_ctlreq.c:448:29
	ldr	r2, [r1, #12]
	.loc	2 448 59                        @ ../ThirdParty/STM32_USB_Device_Library/Core/Src/usbd_ctlreq.c:448:59
	ldrb	r0, [r0, #16]
	add.w	r1, sp, #22
	.loc	2 448 16                        @ ../ThirdParty/STM32_USB_Device_Library/Core/Src/usbd_ctlreq.c:448:16
	blx	r2
	.loc	2 448 14                        @ ../ThirdParty/STM32_USB_Device_Library/Core/Src/usbd_ctlreq.c:448:14
	str	r0, [sp, #16]
	.loc	2 449 7 is_stmt 1               @ ../ThirdParty/STM32_USB_Device_Library/Core/Src/usbd_ctlreq.c:449:7
	b	.LBB1_22
.Ltmp26:
.LBB1_21:
	.loc	2 452 23                        @ ../ThirdParty/STM32_USB_Device_Library/Core/Src/usbd_ctlreq.c:452:23
	ldr	r0, [sp, #28]
	.loc	2 452 29 is_stmt 0              @ ../ThirdParty/STM32_USB_Device_Library/Core/Src/usbd_ctlreq.c:452:29
	ldr	r1, [sp, #24]
	.loc	2 452 9                         @ ../ThirdParty/STM32_USB_Device_Library/Core/Src/usbd_ctlreq.c:452:9
	bl	USBD_CtlError
	.loc	2 453 12 is_stmt 1              @ ../ThirdParty/STM32_USB_Device_Library/Core/Src/usbd_ctlreq.c:453:12
	ldrb.w	r0, [sp, #15]
	adds	r0, #1
	strb.w	r0, [sp, #15]
	b	.LBB1_22
.Ltmp27:
.LBB1_22:
	.loc	2 455 7                         @ ../ThirdParty/STM32_USB_Device_Library/Core/Src/usbd_ctlreq.c:455:7
	b	.LBB1_39
.LBB1_23:
.Ltmp28:
	.loc	2 458 11                        @ ../ThirdParty/STM32_USB_Device_Library/Core/Src/usbd_ctlreq.c:458:11
	ldr	r0, [sp, #28]
	.loc	2 458 17 is_stmt 0              @ ../ThirdParty/STM32_USB_Device_Library/Core/Src/usbd_ctlreq.c:458:17
	ldr.w	r0, [r0, #692]
	.loc	2 458 24                        @ ../ThirdParty/STM32_USB_Device_Library/Core/Src/usbd_ctlreq.c:458:24
	ldr	r0, [r0, #16]
.Ltmp29:
	.loc	2 458 11                        @ ../ThirdParty/STM32_USB_Device_Library/Core/Src/usbd_ctlreq.c:458:11
	cbz	r0, .LBB1_25
	b	.LBB1_24
.LBB1_24:
.Ltmp30:
	.loc	2 460 16 is_stmt 1              @ ../ThirdParty/STM32_USB_Device_Library/Core/Src/usbd_ctlreq.c:460:16
	ldr	r0, [sp, #28]
	.loc	2 460 22 is_stmt 0              @ ../ThirdParty/STM32_USB_Device_Library/Core/Src/usbd_ctlreq.c:460:22
	ldr.w	r1, [r0, #692]
	.loc	2 460 29                        @ ../ThirdParty/STM32_USB_Device_Library/Core/Src/usbd_ctlreq.c:460:29
	ldr	r2, [r1, #16]
	.loc	2 460 58                        @ ../ThirdParty/STM32_USB_Device_Library/Core/Src/usbd_ctlreq.c:460:58
	ldrb	r0, [r0, #16]
	add.w	r1, sp, #22
	.loc	2 460 16                        @ ../ThirdParty/STM32_USB_Device_Library/Core/Src/usbd_ctlreq.c:460:16
	blx	r2
	.loc	2 460 14                        @ ../ThirdParty/STM32_USB_Device_Library/Core/Src/usbd_ctlreq.c:460:14
	str	r0, [sp, #16]
	.loc	2 461 7 is_stmt 1               @ ../ThirdParty/STM32_USB_Device_Library/Core/Src/usbd_ctlreq.c:461:7
	b	.LBB1_26
.Ltmp31:
.LBB1_25:
	.loc	2 464 23                        @ ../ThirdParty/STM32_USB_Device_Library/Core/Src/usbd_ctlreq.c:464:23
	ldr	r0, [sp, #28]
	.loc	2 464 29 is_stmt 0              @ ../ThirdParty/STM32_USB_Device_Library/Core/Src/usbd_ctlreq.c:464:29
	ldr	r1, [sp, #24]
	.loc	2 464 9                         @ ../ThirdParty/STM32_USB_Device_Library/Core/Src/usbd_ctlreq.c:464:9
	bl	USBD_CtlError
	.loc	2 465 12 is_stmt 1              @ ../ThirdParty/STM32_USB_Device_Library/Core/Src/usbd_ctlreq.c:465:12
	ldrb.w	r0, [sp, #15]
	adds	r0, #1
	strb.w	r0, [sp, #15]
	b	.LBB1_26
.Ltmp32:
.LBB1_26:
	.loc	2 467 7                         @ ../ThirdParty/STM32_USB_Device_Library/Core/Src/usbd_ctlreq.c:467:7
	b	.LBB1_39
.LBB1_27:
.Ltmp33:
	.loc	2 470 11                        @ ../ThirdParty/STM32_USB_Device_Library/Core/Src/usbd_ctlreq.c:470:11
	ldr	r0, [sp, #28]
	.loc	2 470 17 is_stmt 0              @ ../ThirdParty/STM32_USB_Device_Library/Core/Src/usbd_ctlreq.c:470:17
	ldr.w	r0, [r0, #692]
	.loc	2 470 24                        @ ../ThirdParty/STM32_USB_Device_Library/Core/Src/usbd_ctlreq.c:470:24
	ldr	r0, [r0, #20]
.Ltmp34:
	.loc	2 470 11                        @ ../ThirdParty/STM32_USB_Device_Library/Core/Src/usbd_ctlreq.c:470:11
	cbz	r0, .LBB1_29
	b	.LBB1_28
.LBB1_28:
.Ltmp35:
	.loc	2 472 16 is_stmt 1              @ ../ThirdParty/STM32_USB_Device_Library/Core/Src/usbd_ctlreq.c:472:16
	ldr	r0, [sp, #28]
	.loc	2 472 22 is_stmt 0              @ ../ThirdParty/STM32_USB_Device_Library/Core/Src/usbd_ctlreq.c:472:22
	ldr.w	r1, [r0, #692]
	.loc	2 472 29                        @ ../ThirdParty/STM32_USB_Device_Library/Core/Src/usbd_ctlreq.c:472:29
	ldr	r2, [r1, #20]
	.loc	2 472 65                        @ ../ThirdParty/STM32_USB_Device_Library/Core/Src/usbd_ctlreq.c:472:65
	ldrb	r0, [r0, #16]
	add.w	r1, sp, #22
	.loc	2 472 16                        @ ../ThirdParty/STM32_USB_Device_Library/Core/Src/usbd_ctlreq.c:472:16
	blx	r2
	.loc	2 472 14                        @ ../ThirdParty/STM32_USB_Device_Library/Core/Src/usbd_ctlreq.c:472:14
	str	r0, [sp, #16]
	.loc	2 473 7 is_stmt 1               @ ../ThirdParty/STM32_USB_Device_Library/Core/Src/usbd_ctlreq.c:473:7
	b	.LBB1_30
.Ltmp36:
.LBB1_29:
	.loc	2 476 23                        @ ../ThirdParty/STM32_USB_Device_Library/Core/Src/usbd_ctlreq.c:476:23
	ldr	r0, [sp, #28]
	.loc	2 476 29 is_stmt 0              @ ../ThirdParty/STM32_USB_Device_Library/Core/Src/usbd_ctlreq.c:476:29
	ldr	r1, [sp, #24]
	.loc	2 476 9                         @ ../ThirdParty/STM32_USB_Device_Library/Core/Src/usbd_ctlreq.c:476:9
	bl	USBD_CtlError
	.loc	2 477 12 is_stmt 1              @ ../ThirdParty/STM32_USB_Device_Library/Core/Src/usbd_ctlreq.c:477:12
	ldrb.w	r0, [sp, #15]
	adds	r0, #1
	strb.w	r0, [sp, #15]
	b	.LBB1_30
.Ltmp37:
.LBB1_30:
	.loc	2 479 7                         @ ../ThirdParty/STM32_USB_Device_Library/Core/Src/usbd_ctlreq.c:479:7
	b	.LBB1_39
.LBB1_31:
.Ltmp38:
	.loc	2 482 11                        @ ../ThirdParty/STM32_USB_Device_Library/Core/Src/usbd_ctlreq.c:482:11
	ldr	r0, [sp, #28]
	.loc	2 482 17 is_stmt 0              @ ../ThirdParty/STM32_USB_Device_Library/Core/Src/usbd_ctlreq.c:482:17
	ldr.w	r0, [r0, #692]
	.loc	2 482 24                        @ ../ThirdParty/STM32_USB_Device_Library/Core/Src/usbd_ctlreq.c:482:24
	ldr	r0, [r0, #24]
.Ltmp39:
	.loc	2 482 11                        @ ../ThirdParty/STM32_USB_Device_Library/Core/Src/usbd_ctlreq.c:482:11
	cbz	r0, .LBB1_33
	b	.LBB1_32
.LBB1_32:
.Ltmp40:
	.loc	2 484 16 is_stmt 1              @ ../ThirdParty/STM32_USB_Device_Library/Core/Src/usbd_ctlreq.c:484:16
	ldr	r0, [sp, #28]
	.loc	2 484 22 is_stmt 0              @ ../ThirdParty/STM32_USB_Device_Library/Core/Src/usbd_ctlreq.c:484:22
	ldr.w	r1, [r0, #692]
	.loc	2 484 29                        @ ../ThirdParty/STM32_USB_Device_Library/Core/Src/usbd_ctlreq.c:484:29
	ldr	r2, [r1, #24]
	.loc	2 484 61                        @ ../ThirdParty/STM32_USB_Device_Library/Core/Src/usbd_ctlreq.c:484:61
	ldrb	r0, [r0, #16]
	add.w	r1, sp, #22
	.loc	2 484 16                        @ ../ThirdParty/STM32_USB_Device_Library/Core/Src/usbd_ctlreq.c:484:16
	blx	r2
	.loc	2 484 14                        @ ../ThirdParty/STM32_USB_Device_Library/Core/Src/usbd_ctlreq.c:484:14
	str	r0, [sp, #16]
	.loc	2 485 7 is_stmt 1               @ ../ThirdParty/STM32_USB_Device_Library/Core/Src/usbd_ctlreq.c:485:7
	b	.LBB1_34
.Ltmp41:
.LBB1_33:
	.loc	2 488 23                        @ ../ThirdParty/STM32_USB_Device_Library/Core/Src/usbd_ctlreq.c:488:23
	ldr	r0, [sp, #28]
	.loc	2 488 29 is_stmt 0              @ ../ThirdParty/STM32_USB_Device_Library/Core/Src/usbd_ctlreq.c:488:29
	ldr	r1, [sp, #24]
	.loc	2 488 9                         @ ../ThirdParty/STM32_USB_Device_Library/Core/Src/usbd_ctlreq.c:488:9
	bl	USBD_CtlError
	.loc	2 489 12 is_stmt 1              @ ../ThirdParty/STM32_USB_Device_Library/Core/Src/usbd_ctlreq.c:489:12
	ldrb.w	r0, [sp, #15]
	adds	r0, #1
	strb.w	r0, [sp, #15]
	b	.LBB1_34
.Ltmp42:
.LBB1_34:
	.loc	2 491 7                         @ ../ThirdParty/STM32_USB_Device_Library/Core/Src/usbd_ctlreq.c:491:7
	b	.LBB1_39
.LBB1_35:
.Ltmp43:
	.loc	2 495 11                        @ ../ThirdParty/STM32_USB_Device_Library/Core/Src/usbd_ctlreq.c:495:11
	ldr	r0, [sp, #28]
	.loc	2 495 17 is_stmt 0              @ ../ThirdParty/STM32_USB_Device_Library/Core/Src/usbd_ctlreq.c:495:17
	ldr.w	r0, [r0, #696]
	.loc	2 495 25                        @ ../ThirdParty/STM32_USB_Device_Library/Core/Src/usbd_ctlreq.c:495:25
	ldr	r0, [r0, #56]
.Ltmp44:
	.loc	2 495 11                        @ ../ThirdParty/STM32_USB_Device_Library/Core/Src/usbd_ctlreq.c:495:11
	cbz	r0, .LBB1_37
	b	.LBB1_36
.LBB1_36:
.Ltmp45:
	.loc	2 497 16 is_stmt 1              @ ../ThirdParty/STM32_USB_Device_Library/Core/Src/usbd_ctlreq.c:497:16
	ldr	r0, [sp, #28]
	.loc	2 497 22 is_stmt 0              @ ../ThirdParty/STM32_USB_Device_Library/Core/Src/usbd_ctlreq.c:497:22
	ldr.w	r1, [r0, #696]
	.loc	2 497 30                        @ ../ThirdParty/STM32_USB_Device_Library/Core/Src/usbd_ctlreq.c:497:30
	ldr	r3, [r1, #56]
	.loc	2 497 57                        @ ../ThirdParty/STM32_USB_Device_Library/Core/Src/usbd_ctlreq.c:497:57
	ldr	r1, [sp, #24]
	.loc	2 497 62                        @ ../ThirdParty/STM32_USB_Device_Library/Core/Src/usbd_ctlreq.c:497:62
	ldrb	r1, [r1, #2]
	add.w	r2, sp, #22
	.loc	2 497 16                        @ ../ThirdParty/STM32_USB_Device_Library/Core/Src/usbd_ctlreq.c:497:16
	blx	r3
	.loc	2 497 14                        @ ../ThirdParty/STM32_USB_Device_Library/Core/Src/usbd_ctlreq.c:497:14
	str	r0, [sp, #16]
	.loc	2 498 7 is_stmt 1               @ ../ThirdParty/STM32_USB_Device_Library/Core/Src/usbd_ctlreq.c:498:7
	b	.LBB1_38
.Ltmp46:
.LBB1_37:
	.loc	2 501 23                        @ ../ThirdParty/STM32_USB_Device_Library/Core/Src/usbd_ctlreq.c:501:23
	ldr	r0, [sp, #28]
	.loc	2 501 29 is_stmt 0              @ ../ThirdParty/STM32_USB_Device_Library/Core/Src/usbd_ctlreq.c:501:29
	ldr	r1, [sp, #24]
	.loc	2 501 9                         @ ../ThirdParty/STM32_USB_Device_Library/Core/Src/usbd_ctlreq.c:501:9
	bl	USBD_CtlError
	.loc	2 502 12 is_stmt 1              @ ../ThirdParty/STM32_USB_Device_Library/Core/Src/usbd_ctlreq.c:502:12
	ldrb.w	r0, [sp, #15]
	adds	r0, #1
	strb.w	r0, [sp, #15]
	b	.LBB1_38
.Ltmp47:
.LBB1_38:
	.loc	2 518 7                         @ ../ThirdParty/STM32_USB_Device_Library/Core/Src/usbd_ctlreq.c:518:7
	b	.LBB1_39
.Ltmp48:
.LBB1_39:
	.loc	2 520 5                         @ ../ThirdParty/STM32_USB_Device_Library/Core/Src/usbd_ctlreq.c:520:5
	b	.LBB1_49
.LBB1_40:
.Ltmp49:
	.loc	2 523 9                         @ ../ThirdParty/STM32_USB_Device_Library/Core/Src/usbd_ctlreq.c:523:9
	ldr	r0, [sp, #28]
	.loc	2 523 15 is_stmt 0              @ ../ThirdParty/STM32_USB_Device_Library/Core/Src/usbd_ctlreq.c:523:15
	ldrb	r0, [r0, #16]
.Ltmp50:
	.loc	2 523 9                         @ ../ThirdParty/STM32_USB_Device_Library/Core/Src/usbd_ctlreq.c:523:9
	cbnz	r0, .LBB1_42
	b	.LBB1_41
.LBB1_41:
.Ltmp51:
	.loc	2 525 14 is_stmt 1              @ ../ThirdParty/STM32_USB_Device_Library/Core/Src/usbd_ctlreq.c:525:14
	ldr	r0, [sp, #28]
	.loc	2 525 20 is_stmt 0              @ ../ThirdParty/STM32_USB_Device_Library/Core/Src/usbd_ctlreq.c:525:20
	ldr.w	r0, [r0, #696]
	.loc	2 525 28                        @ ../ThirdParty/STM32_USB_Device_Library/Core/Src/usbd_ctlreq.c:525:28
	ldr	r1, [r0, #52]
	add.w	r0, sp, #22
	.loc	2 525 14                        @ ../ThirdParty/STM32_USB_Device_Library/Core/Src/usbd_ctlreq.c:525:14
	blx	r1
	.loc	2 525 12                        @ ../ThirdParty/STM32_USB_Device_Library/Core/Src/usbd_ctlreq.c:525:12
	str	r0, [sp, #16]
	.loc	2 526 5 is_stmt 1               @ ../ThirdParty/STM32_USB_Device_Library/Core/Src/usbd_ctlreq.c:526:5
	b	.LBB1_43
.Ltmp52:
.LBB1_42:
	.loc	2 529 21                        @ ../ThirdParty/STM32_USB_Device_Library/Core/Src/usbd_ctlreq.c:529:21
	ldr	r0, [sp, #28]
	.loc	2 529 27 is_stmt 0              @ ../ThirdParty/STM32_USB_Device_Library/Core/Src/usbd_ctlreq.c:529:27
	ldr	r1, [sp, #24]
	.loc	2 529 7                         @ ../ThirdParty/STM32_USB_Device_Library/Core/Src/usbd_ctlreq.c:529:7
	bl	USBD_CtlError
	.loc	2 530 10 is_stmt 1              @ ../ThirdParty/STM32_USB_Device_Library/Core/Src/usbd_ctlreq.c:530:10
	ldrb.w	r0, [sp, #15]
	adds	r0, #1
	strb.w	r0, [sp, #15]
	b	.LBB1_43
.Ltmp53:
.LBB1_43:
	.loc	2 532 5                         @ ../ThirdParty/STM32_USB_Device_Library/Core/Src/usbd_ctlreq.c:532:5
	b	.LBB1_49
.LBB1_44:
.Ltmp54:
	.loc	2 535 9                         @ ../ThirdParty/STM32_USB_Device_Library/Core/Src/usbd_ctlreq.c:535:9
	ldr	r0, [sp, #28]
	.loc	2 535 15 is_stmt 0              @ ../ThirdParty/STM32_USB_Device_Library/Core/Src/usbd_ctlreq.c:535:15
	ldrb	r0, [r0, #16]
.Ltmp55:
	.loc	2 535 9                         @ ../ThirdParty/STM32_USB_Device_Library/Core/Src/usbd_ctlreq.c:535:9
	cbnz	r0, .LBB1_46
	b	.LBB1_45
.LBB1_45:
.Ltmp56:
	.loc	2 537 14 is_stmt 1              @ ../ThirdParty/STM32_USB_Device_Library/Core/Src/usbd_ctlreq.c:537:14
	ldr	r0, [sp, #28]
	.loc	2 537 20 is_stmt 0              @ ../ThirdParty/STM32_USB_Device_Library/Core/Src/usbd_ctlreq.c:537:20
	ldr.w	r0, [r0, #696]
	.loc	2 537 28                        @ ../ThirdParty/STM32_USB_Device_Library/Core/Src/usbd_ctlreq.c:537:28
	ldr	r1, [r0, #48]
	add.w	r0, sp, #22
	.loc	2 537 14                        @ ../ThirdParty/STM32_USB_Device_Library/Core/Src/usbd_ctlreq.c:537:14
	blx	r1
	.loc	2 537 12                        @ ../ThirdParty/STM32_USB_Device_Library/Core/Src/usbd_ctlreq.c:537:12
	str	r0, [sp, #16]
	.loc	2 538 7 is_stmt 1               @ ../ThirdParty/STM32_USB_Device_Library/Core/Src/usbd_ctlreq.c:538:7
	ldr	r1, [sp, #16]
	movs	r0, #7
	.loc	2 538 15 is_stmt 0              @ ../ThirdParty/STM32_USB_Device_Library/Core/Src/usbd_ctlreq.c:538:15
	strb	r0, [r1, #1]
	.loc	2 539 5 is_stmt 1               @ ../ThirdParty/STM32_USB_Device_Library/Core/Src/usbd_ctlreq.c:539:5
	b	.LBB1_47
.Ltmp57:
.LBB1_46:
	.loc	2 542 21                        @ ../ThirdParty/STM32_USB_Device_Library/Core/Src/usbd_ctlreq.c:542:21
	ldr	r0, [sp, #28]
	.loc	2 542 27 is_stmt 0              @ ../ThirdParty/STM32_USB_Device_Library/Core/Src/usbd_ctlreq.c:542:27
	ldr	r1, [sp, #24]
	.loc	2 542 7                         @ ../ThirdParty/STM32_USB_Device_Library/Core/Src/usbd_ctlreq.c:542:7
	bl	USBD_CtlError
	.loc	2 543 10 is_stmt 1              @ ../ThirdParty/STM32_USB_Device_Library/Core/Src/usbd_ctlreq.c:543:10
	ldrb.w	r0, [sp, #15]
	adds	r0, #1
	strb.w	r0, [sp, #15]
	b	.LBB1_47
.Ltmp58:
.LBB1_47:
	.loc	2 545 5                         @ ../ThirdParty/STM32_USB_Device_Library/Core/Src/usbd_ctlreq.c:545:5
	b	.LBB1_49
.LBB1_48:
	.loc	2 548 19                        @ ../ThirdParty/STM32_USB_Device_Library/Core/Src/usbd_ctlreq.c:548:19
	ldr	r0, [sp, #28]
	.loc	2 548 25 is_stmt 0              @ ../ThirdParty/STM32_USB_Device_Library/Core/Src/usbd_ctlreq.c:548:25
	ldr	r1, [sp, #24]
	.loc	2 548 5                         @ ../ThirdParty/STM32_USB_Device_Library/Core/Src/usbd_ctlreq.c:548:5
	bl	USBD_CtlError
	.loc	2 549 8 is_stmt 1               @ ../ThirdParty/STM32_USB_Device_Library/Core/Src/usbd_ctlreq.c:549:8
	ldrb.w	r0, [sp, #15]
	adds	r0, #1
	strb.w	r0, [sp, #15]
	.loc	2 550 5                         @ ../ThirdParty/STM32_USB_Device_Library/Core/Src/usbd_ctlreq.c:550:5
	b	.LBB1_49
.Ltmp59:
.LBB1_49:
	.loc	2 553 7                         @ ../ThirdParty/STM32_USB_Device_Library/Core/Src/usbd_ctlreq.c:553:7
	ldrb.w	r0, [sp, #15]
.Ltmp60:
	.loc	2 553 7 is_stmt 0               @ ../ThirdParty/STM32_USB_Device_Library/Core/Src/usbd_ctlreq.c:553:7
	cbz	r0, .LBB1_51
	b	.LBB1_50
.LBB1_50:
.Ltmp61:
	.loc	2 555 5 is_stmt 1               @ ../ThirdParty/STM32_USB_Device_Library/Core/Src/usbd_ctlreq.c:555:5
	b	.LBB1_61
.Ltmp62:
.LBB1_51:
	.loc	2 559 9                         @ ../ThirdParty/STM32_USB_Device_Library/Core/Src/usbd_ctlreq.c:559:9
	ldr	r0, [sp, #24]
	.loc	2 559 14 is_stmt 0              @ ../ThirdParty/STM32_USB_Device_Library/Core/Src/usbd_ctlreq.c:559:14
	ldrh	r0, [r0, #6]
.Ltmp63:
	.loc	2 559 9                         @ ../ThirdParty/STM32_USB_Device_Library/Core/Src/usbd_ctlreq.c:559:9
	cbz	r0, .LBB1_59
	b	.LBB1_52
.LBB1_52:
.Ltmp64:
	.loc	2 561 11 is_stmt 1              @ ../ThirdParty/STM32_USB_Device_Library/Core/Src/usbd_ctlreq.c:561:11
	ldrh.w	r0, [sp, #22]
.Ltmp65:
	.loc	2 561 11 is_stmt 0              @ ../ThirdParty/STM32_USB_Device_Library/Core/Src/usbd_ctlreq.c:561:11
	cbz	r0, .LBB1_57
	b	.LBB1_53
.LBB1_53:
.Ltmp66:
	.loc	2 563 15 is_stmt 1              @ ../ThirdParty/STM32_USB_Device_Library/Core/Src/usbd_ctlreq.c:563:15
	ldrh.w	r0, [sp, #22]
	ldr	r1, [sp, #24]
	ldrh	r1, [r1, #6]
	cmp	r0, r1
	bge	.LBB1_55
	b	.LBB1_54
.LBB1_54:
	ldrh.w	r0, [sp, #22]
	str	r0, [sp]                        @ 4-byte Spill
	b	.LBB1_56
.LBB1_55:
	ldr	r0, [sp, #24]
	ldrh	r0, [r0, #6]
	str	r0, [sp]                        @ 4-byte Spill
	b	.LBB1_56
.LBB1_56:
	ldr	r0, [sp]                        @ 4-byte Reload
	.loc	2 563 13 is_stmt 0              @ ../ThirdParty/STM32_USB_Device_Library/Core/Src/usbd_ctlreq.c:563:13
	strh.w	r0, [sp, #22]
	.loc	2 564 32 is_stmt 1              @ ../ThirdParty/STM32_USB_Device_Library/Core/Src/usbd_ctlreq.c:564:32
	ldr	r0, [sp, #28]
	.loc	2 564 38 is_stmt 0              @ ../ThirdParty/STM32_USB_Device_Library/Core/Src/usbd_ctlreq.c:564:38
	ldr	r1, [sp, #16]
	.loc	2 564 44                        @ ../ThirdParty/STM32_USB_Device_Library/Core/Src/usbd_ctlreq.c:564:44
	ldrh.w	r2, [sp, #22]
	.loc	2 564 15                        @ ../ThirdParty/STM32_USB_Device_Library/Core/Src/usbd_ctlreq.c:564:15
	bl	USBD_CtlSendData
	.loc	2 565 7 is_stmt 1               @ ../ThirdParty/STM32_USB_Device_Library/Core/Src/usbd_ctlreq.c:565:7
	b	.LBB1_58
.Ltmp67:
.LBB1_57:
	.loc	2 568 23                        @ ../ThirdParty/STM32_USB_Device_Library/Core/Src/usbd_ctlreq.c:568:23
	ldr	r0, [sp, #28]
	.loc	2 568 29 is_stmt 0              @ ../ThirdParty/STM32_USB_Device_Library/Core/Src/usbd_ctlreq.c:568:29
	ldr	r1, [sp, #24]
	.loc	2 568 9                         @ ../ThirdParty/STM32_USB_Device_Library/Core/Src/usbd_ctlreq.c:568:9
	bl	USBD_CtlError
	b	.LBB1_58
.Ltmp68:
.LBB1_58:
	.loc	2 570 5 is_stmt 1               @ ../ThirdParty/STM32_USB_Device_Library/Core/Src/usbd_ctlreq.c:570:5
	b	.LBB1_60
.Ltmp69:
.LBB1_59:
	.loc	2 573 32                        @ ../ThirdParty/STM32_USB_Device_Library/Core/Src/usbd_ctlreq.c:573:32
	ldr	r0, [sp, #28]
	.loc	2 573 13 is_stmt 0              @ ../ThirdParty/STM32_USB_Device_Library/Core/Src/usbd_ctlreq.c:573:13
	bl	USBD_CtlSendStatus
	b	.LBB1_60
.Ltmp70:
.LBB1_60:
	.loc	2 0 13                          @ ../ThirdParty/STM32_USB_Device_Library/Core/Src/usbd_ctlreq.c:0:13
	b	.LBB1_61
.LBB1_61:
	.loc	2 576 1 epilogue_begin is_stmt 1 @ ../ThirdParty/STM32_USB_Device_Library/Core/Src/usbd_ctlreq.c:576:1
	add	sp, #32
	pop	{r7, pc}
.Ltmp71:
.Lfunc_end1:
	.size	USBD_GetDescriptor, .Lfunc_end1-USBD_GetDescriptor
	.cfi_endproc
	.cantunwind
	.fnend
                                        @ -- End function
	.section	.text.USBD_SetAddress,"ax",%progbits
	.p2align	2                               @ -- Begin function USBD_SetAddress
	.type	USBD_SetAddress,%function
	.code	16                              @ @USBD_SetAddress
	.thumb_func
USBD_SetAddress:
.Lfunc_begin2:
	.loc	2 586 0                         @ ../ThirdParty/STM32_USB_Device_Library/Core/Src/usbd_ctlreq.c:586:0
	.fnstart
	.cfi_startproc
@ %bb.0:
	.save	{r7, lr}
	push	{r7, lr}
	.cfi_def_cfa_offset 8
	.cfi_offset lr, -4
	.cfi_offset r7, -8
	.pad	#16
	sub	sp, #16
	.cfi_def_cfa_offset 24
	str	r0, [sp, #12]
	str	r1, [sp, #8]
.Ltmp72:
	.loc	2 589 8 prologue_end            @ ../ThirdParty/STM32_USB_Device_Library/Core/Src/usbd_ctlreq.c:589:8
	ldr	r0, [sp, #8]
	.loc	2 589 13 is_stmt 0              @ ../ThirdParty/STM32_USB_Device_Library/Core/Src/usbd_ctlreq.c:589:13
	ldrh	r0, [r0, #4]
	.loc	2 589 27                        @ ../ThirdParty/STM32_USB_Device_Library/Core/Src/usbd_ctlreq.c:589:27
	cbnz	r0, .LBB2_10
	b	.LBB2_1
.LBB2_1:
	.loc	2 589 31                        @ ../ThirdParty/STM32_USB_Device_Library/Core/Src/usbd_ctlreq.c:589:31
	ldr	r0, [sp, #8]
	.loc	2 589 36                        @ ../ThirdParty/STM32_USB_Device_Library/Core/Src/usbd_ctlreq.c:589:36
	ldrh	r0, [r0, #6]
	.loc	2 589 51                        @ ../ThirdParty/STM32_USB_Device_Library/Core/Src/usbd_ctlreq.c:589:51
	cbnz	r0, .LBB2_10
	b	.LBB2_2
.LBB2_2:
	.loc	2 589 55                        @ ../ThirdParty/STM32_USB_Device_Library/Core/Src/usbd_ctlreq.c:589:55
	ldr	r0, [sp, #8]
	.loc	2 589 60                        @ ../ThirdParty/STM32_USB_Device_Library/Core/Src/usbd_ctlreq.c:589:60
	ldrh	r0, [r0, #2]
.Ltmp73:
	.loc	2 589 7                         @ ../ThirdParty/STM32_USB_Device_Library/Core/Src/usbd_ctlreq.c:589:7
	cmp	r0, #127
	bhi	.LBB2_10
	b	.LBB2_3
.LBB2_3:
.Ltmp74:
	.loc	2 591 26 is_stmt 1              @ ../ThirdParty/STM32_USB_Device_Library/Core/Src/usbd_ctlreq.c:591:26
	ldr	r0, [sp, #8]
	.loc	2 591 16 is_stmt 0              @ ../ThirdParty/STM32_USB_Device_Library/Core/Src/usbd_ctlreq.c:591:16
	ldrb	r0, [r0, #2]
	.loc	2 591 39                        @ ../ThirdParty/STM32_USB_Device_Library/Core/Src/usbd_ctlreq.c:591:39
	and	r0, r0, #127
	.loc	2 591 14                        @ ../ThirdParty/STM32_USB_Device_Library/Core/Src/usbd_ctlreq.c:591:14
	strb.w	r0, [sp, #7]
.Ltmp75:
	.loc	2 593 9 is_stmt 1               @ ../ThirdParty/STM32_USB_Device_Library/Core/Src/usbd_ctlreq.c:593:9
	ldr	r0, [sp, #12]
	.loc	2 593 15 is_stmt 0              @ ../ThirdParty/STM32_USB_Device_Library/Core/Src/usbd_ctlreq.c:593:15
	ldrb.w	r0, [r0, #668]
.Ltmp76:
	.loc	2 593 9                         @ ../ThirdParty/STM32_USB_Device_Library/Core/Src/usbd_ctlreq.c:593:9
	cmp	r0, #3
	bne	.LBB2_5
	b	.LBB2_4
.LBB2_4:
.Ltmp77:
	.loc	2 595 21 is_stmt 1              @ ../ThirdParty/STM32_USB_Device_Library/Core/Src/usbd_ctlreq.c:595:21
	ldr	r0, [sp, #12]
	.loc	2 595 27 is_stmt 0              @ ../ThirdParty/STM32_USB_Device_Library/Core/Src/usbd_ctlreq.c:595:27
	ldr	r1, [sp, #8]
	.loc	2 595 7                         @ ../ThirdParty/STM32_USB_Device_Library/Core/Src/usbd_ctlreq.c:595:7
	bl	USBD_CtlError
	.loc	2 596 5 is_stmt 1               @ ../ThirdParty/STM32_USB_Device_Library/Core/Src/usbd_ctlreq.c:596:5
	b	.LBB2_9
.Ltmp78:
.LBB2_5:
	.loc	2 599 27                        @ ../ThirdParty/STM32_USB_Device_Library/Core/Src/usbd_ctlreq.c:599:27
	ldrb.w	r0, [sp, #7]
	.loc	2 599 7 is_stmt 0               @ ../ThirdParty/STM32_USB_Device_Library/Core/Src/usbd_ctlreq.c:599:7
	ldr	r1, [sp, #12]
	.loc	2 599 25                        @ ../ThirdParty/STM32_USB_Device_Library/Core/Src/usbd_ctlreq.c:599:25
	strb.w	r0, [r1, #670]
	.loc	2 600 35 is_stmt 1              @ ../ThirdParty/STM32_USB_Device_Library/Core/Src/usbd_ctlreq.c:600:35
	ldr	r0, [sp, #12]
	.loc	2 600 41 is_stmt 0              @ ../ThirdParty/STM32_USB_Device_Library/Core/Src/usbd_ctlreq.c:600:41
	ldrb.w	r1, [sp, #7]
	.loc	2 600 13                        @ ../ThirdParty/STM32_USB_Device_Library/Core/Src/usbd_ctlreq.c:600:13
	bl	USBD_LL_SetUSBAddress
	.loc	2 601 32 is_stmt 1              @ ../ThirdParty/STM32_USB_Device_Library/Core/Src/usbd_ctlreq.c:601:32
	ldr	r0, [sp, #12]
	.loc	2 601 13 is_stmt 0              @ ../ThirdParty/STM32_USB_Device_Library/Core/Src/usbd_ctlreq.c:601:13
	bl	USBD_CtlSendStatus
.Ltmp79:
	.loc	2 603 11 is_stmt 1              @ ../ThirdParty/STM32_USB_Device_Library/Core/Src/usbd_ctlreq.c:603:11
	ldrb.w	r0, [sp, #7]
.Ltmp80:
	.loc	2 603 11 is_stmt 0              @ ../ThirdParty/STM32_USB_Device_Library/Core/Src/usbd_ctlreq.c:603:11
	cbz	r0, .LBB2_7
	b	.LBB2_6
.LBB2_6:
.Ltmp81:
	.loc	2 605 9 is_stmt 1               @ ../ThirdParty/STM32_USB_Device_Library/Core/Src/usbd_ctlreq.c:605:9
	ldr	r1, [sp, #12]
	movs	r0, #2
	.loc	2 605 25 is_stmt 0              @ ../ThirdParty/STM32_USB_Device_Library/Core/Src/usbd_ctlreq.c:605:25
	strb.w	r0, [r1, #668]
	.loc	2 606 7 is_stmt 1               @ ../ThirdParty/STM32_USB_Device_Library/Core/Src/usbd_ctlreq.c:606:7
	b	.LBB2_8
.Ltmp82:
.LBB2_7:
	.loc	2 609 9                         @ ../ThirdParty/STM32_USB_Device_Library/Core/Src/usbd_ctlreq.c:609:9
	ldr	r1, [sp, #12]
	movs	r0, #1
	.loc	2 609 25 is_stmt 0              @ ../ThirdParty/STM32_USB_Device_Library/Core/Src/usbd_ctlreq.c:609:25
	strb.w	r0, [r1, #668]
	b	.LBB2_8
.Ltmp83:
.LBB2_8:
	.loc	2 0 25                          @ ../ThirdParty/STM32_USB_Device_Library/Core/Src/usbd_ctlreq.c:0:25
	b	.LBB2_9
.LBB2_9:
	.loc	2 612 3 is_stmt 1               @ ../ThirdParty/STM32_USB_Device_Library/Core/Src/usbd_ctlreq.c:612:3
	b	.LBB2_11
.Ltmp84:
.LBB2_10:
	.loc	2 615 19                        @ ../ThirdParty/STM32_USB_Device_Library/Core/Src/usbd_ctlreq.c:615:19
	ldr	r0, [sp, #12]
	.loc	2 615 25 is_stmt 0              @ ../ThirdParty/STM32_USB_Device_Library/Core/Src/usbd_ctlreq.c:615:25
	ldr	r1, [sp, #8]
	.loc	2 615 5                         @ ../ThirdParty/STM32_USB_Device_Library/Core/Src/usbd_ctlreq.c:615:5
	bl	USBD_CtlError
	b	.LBB2_11
.Ltmp85:
.LBB2_11:
	.loc	2 617 1 epilogue_begin is_stmt 1 @ ../ThirdParty/STM32_USB_Device_Library/Core/Src/usbd_ctlreq.c:617:1
	add	sp, #16
	pop	{r7, pc}
.Ltmp86:
.Lfunc_end2:
	.size	USBD_SetAddress, .Lfunc_end2-USBD_SetAddress
	.cfi_endproc
	.cantunwind
	.fnend
                                        @ -- End function
	.section	.text.USBD_SetConfig,"ax",%progbits
	.p2align	2                               @ -- Begin function USBD_SetConfig
	.type	USBD_SetConfig,%function
	.code	16                              @ @USBD_SetConfig
	.thumb_func
USBD_SetConfig:
.Lfunc_begin3:
	.loc	2 627 0                         @ ../ThirdParty/STM32_USB_Device_Library/Core/Src/usbd_ctlreq.c:627:0
	.fnstart
	.cfi_startproc
@ %bb.0:
	.save	{r7, lr}
	push	{r7, lr}
	.cfi_def_cfa_offset 8
	.cfi_offset lr, -4
	.cfi_offset r7, -8
	.pad	#24
	sub	sp, #24
	.cfi_def_cfa_offset 32
	str	r0, [sp, #16]
	str	r1, [sp, #12]
	movs	r0, #0
.Ltmp87:
	.loc	2 628 22 prologue_end           @ ../ThirdParty/STM32_USB_Device_Library/Core/Src/usbd_ctlreq.c:628:22
	strb.w	r0, [sp, #11]
	.loc	2 631 22                        @ ../ThirdParty/STM32_USB_Device_Library/Core/Src/usbd_ctlreq.c:631:22
	ldr	r0, [sp, #12]
	.loc	2 631 27 is_stmt 0              @ ../ThirdParty/STM32_USB_Device_Library/Core/Src/usbd_ctlreq.c:631:27
	ldrb	r1, [r0, #2]
	.loc	2 631 10                        @ ../ThirdParty/STM32_USB_Device_Library/Core/Src/usbd_ctlreq.c:631:10
	movw	r0, :lower16:USBD_SetConfig.cfgidx
	movt	r0, :upper16:USBD_SetConfig.cfgidx
	strb	r1, [r0]
.Ltmp88:
	.loc	2 633 7 is_stmt 1               @ ../ThirdParty/STM32_USB_Device_Library/Core/Src/usbd_ctlreq.c:633:7
	ldrb	r0, [r0]
.Ltmp89:
	.loc	2 633 7 is_stmt 0               @ ../ThirdParty/STM32_USB_Device_Library/Core/Src/usbd_ctlreq.c:633:7
	cmp	r0, #2
	blt	.LBB3_2
	b	.LBB3_1
.LBB3_1:
.Ltmp90:
	.loc	2 635 19 is_stmt 1              @ ../ThirdParty/STM32_USB_Device_Library/Core/Src/usbd_ctlreq.c:635:19
	ldr	r0, [sp, #16]
	.loc	2 635 25 is_stmt 0              @ ../ThirdParty/STM32_USB_Device_Library/Core/Src/usbd_ctlreq.c:635:25
	ldr	r1, [sp, #12]
	.loc	2 635 5                         @ ../ThirdParty/STM32_USB_Device_Library/Core/Src/usbd_ctlreq.c:635:5
	bl	USBD_CtlError
	movs	r0, #3
	.loc	2 636 5 is_stmt 1               @ ../ThirdParty/STM32_USB_Device_Library/Core/Src/usbd_ctlreq.c:636:5
	strb.w	r0, [sp, #23]
	b	.LBB3_23
.Ltmp91:
.LBB3_2:
	.loc	2 639 11                        @ ../ThirdParty/STM32_USB_Device_Library/Core/Src/usbd_ctlreq.c:639:11
	ldr	r0, [sp, #16]
	.loc	2 639 17 is_stmt 0              @ ../ThirdParty/STM32_USB_Device_Library/Core/Src/usbd_ctlreq.c:639:17
	ldrb.w	r0, [r0, #668]
	.loc	2 639 3                         @ ../ThirdParty/STM32_USB_Device_Library/Core/Src/usbd_ctlreq.c:639:3
	mov	r1, r0
	str	r1, [sp, #4]                    @ 4-byte Spill
	cmp	r0, #2
	beq	.LBB3_4
	b	.LBB3_3
.LBB3_3:
	ldr	r0, [sp, #4]                    @ 4-byte Reload
	cmp	r0, #3
	beq	.LBB3_11
	b	.LBB3_21
.LBB3_4:
.Ltmp92:
	.loc	2 642 9 is_stmt 1               @ ../ThirdParty/STM32_USB_Device_Library/Core/Src/usbd_ctlreq.c:642:9
	movw	r0, :lower16:USBD_SetConfig.cfgidx
	movt	r0, :upper16:USBD_SetConfig.cfgidx
	ldrb	r0, [r0]
.Ltmp93:
	.loc	2 642 9 is_stmt 0               @ ../ThirdParty/STM32_USB_Device_Library/Core/Src/usbd_ctlreq.c:642:9
	cbz	r0, .LBB3_9
	b	.LBB3_5
.LBB3_5:
.Ltmp94:
	.loc	2 644 26 is_stmt 1              @ ../ThirdParty/STM32_USB_Device_Library/Core/Src/usbd_ctlreq.c:644:26
	movw	r1, :lower16:USBD_SetConfig.cfgidx
	movt	r1, :upper16:USBD_SetConfig.cfgidx
	ldrb	r0, [r1]
	.loc	2 644 7 is_stmt 0               @ ../ThirdParty/STM32_USB_Device_Library/Core/Src/usbd_ctlreq.c:644:7
	ldr	r2, [sp, #16]
	.loc	2 644 24                        @ ../ThirdParty/STM32_USB_Device_Library/Core/Src/usbd_ctlreq.c:644:24
	str	r0, [r2, #4]
	.loc	2 646 33 is_stmt 1              @ ../ThirdParty/STM32_USB_Device_Library/Core/Src/usbd_ctlreq.c:646:33
	ldr	r0, [sp, #16]
	.loc	2 646 39 is_stmt 0              @ ../ThirdParty/STM32_USB_Device_Library/Core/Src/usbd_ctlreq.c:646:39
	ldrb	r1, [r1]
	.loc	2 646 13                        @ ../ThirdParty/STM32_USB_Device_Library/Core/Src/usbd_ctlreq.c:646:13
	bl	USBD_SetClassConfig
	.loc	2 646 11                        @ ../ThirdParty/STM32_USB_Device_Library/Core/Src/usbd_ctlreq.c:646:11
	strb.w	r0, [sp, #11]
.Ltmp95:
	.loc	2 648 11 is_stmt 1              @ ../ThirdParty/STM32_USB_Device_Library/Core/Src/usbd_ctlreq.c:648:11
	ldrb.w	r0, [sp, #11]
.Ltmp96:
	.loc	2 648 11 is_stmt 0              @ ../ThirdParty/STM32_USB_Device_Library/Core/Src/usbd_ctlreq.c:648:11
	cbz	r0, .LBB3_7
	b	.LBB3_6
.LBB3_6:
.Ltmp97:
	.loc	2 650 23 is_stmt 1              @ ../ThirdParty/STM32_USB_Device_Library/Core/Src/usbd_ctlreq.c:650:23
	ldr	r0, [sp, #16]
	.loc	2 650 29 is_stmt 0              @ ../ThirdParty/STM32_USB_Device_Library/Core/Src/usbd_ctlreq.c:650:29
	ldr	r1, [sp, #12]
	.loc	2 650 9                         @ ../ThirdParty/STM32_USB_Device_Library/Core/Src/usbd_ctlreq.c:650:9
	bl	USBD_CtlError
	.loc	2 651 7 is_stmt 1               @ ../ThirdParty/STM32_USB_Device_Library/Core/Src/usbd_ctlreq.c:651:7
	b	.LBB3_8
.Ltmp98:
.LBB3_7:
	.loc	2 654 34                        @ ../ThirdParty/STM32_USB_Device_Library/Core/Src/usbd_ctlreq.c:654:34
	ldr	r0, [sp, #16]
	.loc	2 654 15 is_stmt 0              @ ../ThirdParty/STM32_USB_Device_Library/Core/Src/usbd_ctlreq.c:654:15
	bl	USBD_CtlSendStatus
	.loc	2 655 9 is_stmt 1               @ ../ThirdParty/STM32_USB_Device_Library/Core/Src/usbd_ctlreq.c:655:9
	ldr	r1, [sp, #16]
	movs	r0, #3
	.loc	2 655 25 is_stmt 0              @ ../ThirdParty/STM32_USB_Device_Library/Core/Src/usbd_ctlreq.c:655:25
	strb.w	r0, [r1, #668]
	b	.LBB3_8
.Ltmp99:
.LBB3_8:
	.loc	2 657 5 is_stmt 1               @ ../ThirdParty/STM32_USB_Device_Library/Core/Src/usbd_ctlreq.c:657:5
	b	.LBB3_10
.Ltmp100:
.LBB3_9:
	.loc	2 660 32                        @ ../ThirdParty/STM32_USB_Device_Library/Core/Src/usbd_ctlreq.c:660:32
	ldr	r0, [sp, #16]
	.loc	2 660 13 is_stmt 0              @ ../ThirdParty/STM32_USB_Device_Library/Core/Src/usbd_ctlreq.c:660:13
	bl	USBD_CtlSendStatus
	b	.LBB3_10
.Ltmp101:
.LBB3_10:
	.loc	2 662 5 is_stmt 1               @ ../ThirdParty/STM32_USB_Device_Library/Core/Src/usbd_ctlreq.c:662:5
	b	.LBB3_22
.LBB3_11:
.Ltmp102:
	.loc	2 665 9                         @ ../ThirdParty/STM32_USB_Device_Library/Core/Src/usbd_ctlreq.c:665:9
	movw	r0, :lower16:USBD_SetConfig.cfgidx
	movt	r0, :upper16:USBD_SetConfig.cfgidx
	ldrb	r0, [r0]
.Ltmp103:
	.loc	2 665 9 is_stmt 0               @ ../ThirdParty/STM32_USB_Device_Library/Core/Src/usbd_ctlreq.c:665:9
	cbnz	r0, .LBB3_13
	b	.LBB3_12
.LBB3_12:
.Ltmp104:
	.loc	2 667 7 is_stmt 1               @ ../ThirdParty/STM32_USB_Device_Library/Core/Src/usbd_ctlreq.c:667:7
	ldr	r1, [sp, #16]
	movs	r0, #2
	.loc	2 667 23 is_stmt 0              @ ../ThirdParty/STM32_USB_Device_Library/Core/Src/usbd_ctlreq.c:667:23
	strb.w	r0, [r1, #668]
	.loc	2 668 26 is_stmt 1              @ ../ThirdParty/STM32_USB_Device_Library/Core/Src/usbd_ctlreq.c:668:26
	movw	r1, :lower16:USBD_SetConfig.cfgidx
	movt	r1, :upper16:USBD_SetConfig.cfgidx
	ldrb	r0, [r1]
	.loc	2 668 7 is_stmt 0               @ ../ThirdParty/STM32_USB_Device_Library/Core/Src/usbd_ctlreq.c:668:7
	ldr	r2, [sp, #16]
	.loc	2 668 24                        @ ../ThirdParty/STM32_USB_Device_Library/Core/Src/usbd_ctlreq.c:668:24
	str	r0, [r2, #4]
	.loc	2 669 33 is_stmt 1              @ ../ThirdParty/STM32_USB_Device_Library/Core/Src/usbd_ctlreq.c:669:33
	ldr	r0, [sp, #16]
	.loc	2 669 39 is_stmt 0              @ ../ThirdParty/STM32_USB_Device_Library/Core/Src/usbd_ctlreq.c:669:39
	ldrb	r1, [r1]
	.loc	2 669 13                        @ ../ThirdParty/STM32_USB_Device_Library/Core/Src/usbd_ctlreq.c:669:13
	bl	USBD_ClrClassConfig
	.loc	2 670 32 is_stmt 1              @ ../ThirdParty/STM32_USB_Device_Library/Core/Src/usbd_ctlreq.c:670:32
	ldr	r0, [sp, #16]
	.loc	2 670 13 is_stmt 0              @ ../ThirdParty/STM32_USB_Device_Library/Core/Src/usbd_ctlreq.c:670:13
	bl	USBD_CtlSendStatus
	.loc	2 671 5 is_stmt 1               @ ../ThirdParty/STM32_USB_Device_Library/Core/Src/usbd_ctlreq.c:671:5
	b	.LBB3_20
.Ltmp105:
.LBB3_13:
	.loc	2 672 14                        @ ../ThirdParty/STM32_USB_Device_Library/Core/Src/usbd_ctlreq.c:672:14
	movw	r0, :lower16:USBD_SetConfig.cfgidx
	movt	r0, :upper16:USBD_SetConfig.cfgidx
	ldrb	r0, [r0]
	.loc	2 672 24 is_stmt 0              @ ../ThirdParty/STM32_USB_Device_Library/Core/Src/usbd_ctlreq.c:672:24
	ldr	r1, [sp, #16]
	.loc	2 672 30                        @ ../ThirdParty/STM32_USB_Device_Library/Core/Src/usbd_ctlreq.c:672:30
	ldr	r1, [r1, #4]
.Ltmp106:
	.loc	2 672 14                        @ ../ThirdParty/STM32_USB_Device_Library/Core/Src/usbd_ctlreq.c:672:14
	cmp	r0, r1
	beq	.LBB3_18
	b	.LBB3_14
.LBB3_14:
.Ltmp107:
	.loc	2 675 33 is_stmt 1              @ ../ThirdParty/STM32_USB_Device_Library/Core/Src/usbd_ctlreq.c:675:33
	ldr	r0, [sp, #16]
	.loc	2 675 54 is_stmt 0              @ ../ThirdParty/STM32_USB_Device_Library/Core/Src/usbd_ctlreq.c:675:54
	ldrb	r1, [r0, #4]
	.loc	2 675 13                        @ ../ThirdParty/STM32_USB_Device_Library/Core/Src/usbd_ctlreq.c:675:13
	bl	USBD_ClrClassConfig
	.loc	2 678 26 is_stmt 1              @ ../ThirdParty/STM32_USB_Device_Library/Core/Src/usbd_ctlreq.c:678:26
	movw	r1, :lower16:USBD_SetConfig.cfgidx
	movt	r1, :upper16:USBD_SetConfig.cfgidx
	ldrb	r0, [r1]
	.loc	2 678 7 is_stmt 0               @ ../ThirdParty/STM32_USB_Device_Library/Core/Src/usbd_ctlreq.c:678:7
	ldr	r2, [sp, #16]
	.loc	2 678 24                        @ ../ThirdParty/STM32_USB_Device_Library/Core/Src/usbd_ctlreq.c:678:24
	str	r0, [r2, #4]
	.loc	2 680 33 is_stmt 1              @ ../ThirdParty/STM32_USB_Device_Library/Core/Src/usbd_ctlreq.c:680:33
	ldr	r0, [sp, #16]
	.loc	2 680 39 is_stmt 0              @ ../ThirdParty/STM32_USB_Device_Library/Core/Src/usbd_ctlreq.c:680:39
	ldrb	r1, [r1]
	.loc	2 680 13                        @ ../ThirdParty/STM32_USB_Device_Library/Core/Src/usbd_ctlreq.c:680:13
	bl	USBD_SetClassConfig
	.loc	2 680 11                        @ ../ThirdParty/STM32_USB_Device_Library/Core/Src/usbd_ctlreq.c:680:11
	strb.w	r0, [sp, #11]
.Ltmp108:
	.loc	2 682 11 is_stmt 1              @ ../ThirdParty/STM32_USB_Device_Library/Core/Src/usbd_ctlreq.c:682:11
	ldrb.w	r0, [sp, #11]
.Ltmp109:
	.loc	2 682 11 is_stmt 0              @ ../ThirdParty/STM32_USB_Device_Library/Core/Src/usbd_ctlreq.c:682:11
	cbz	r0, .LBB3_16
	b	.LBB3_15
.LBB3_15:
.Ltmp110:
	.loc	2 684 23 is_stmt 1              @ ../ThirdParty/STM32_USB_Device_Library/Core/Src/usbd_ctlreq.c:684:23
	ldr	r0, [sp, #16]
	.loc	2 684 29 is_stmt 0              @ ../ThirdParty/STM32_USB_Device_Library/Core/Src/usbd_ctlreq.c:684:29
	ldr	r1, [sp, #12]
	.loc	2 684 9                         @ ../ThirdParty/STM32_USB_Device_Library/Core/Src/usbd_ctlreq.c:684:9
	bl	USBD_CtlError
	.loc	2 685 35 is_stmt 1              @ ../ThirdParty/STM32_USB_Device_Library/Core/Src/usbd_ctlreq.c:685:35
	ldr	r0, [sp, #16]
	.loc	2 685 56 is_stmt 0              @ ../ThirdParty/STM32_USB_Device_Library/Core/Src/usbd_ctlreq.c:685:56
	ldrb	r1, [r0, #4]
	.loc	2 685 15                        @ ../ThirdParty/STM32_USB_Device_Library/Core/Src/usbd_ctlreq.c:685:15
	bl	USBD_ClrClassConfig
	.loc	2 686 9 is_stmt 1               @ ../ThirdParty/STM32_USB_Device_Library/Core/Src/usbd_ctlreq.c:686:9
	ldr	r1, [sp, #16]
	movs	r0, #2
	.loc	2 686 25 is_stmt 0              @ ../ThirdParty/STM32_USB_Device_Library/Core/Src/usbd_ctlreq.c:686:25
	strb.w	r0, [r1, #668]
	.loc	2 687 7 is_stmt 1               @ ../ThirdParty/STM32_USB_Device_Library/Core/Src/usbd_ctlreq.c:687:7
	b	.LBB3_17
.Ltmp111:
.LBB3_16:
	.loc	2 690 34                        @ ../ThirdParty/STM32_USB_Device_Library/Core/Src/usbd_ctlreq.c:690:34
	ldr	r0, [sp, #16]
	.loc	2 690 15 is_stmt 0              @ ../ThirdParty/STM32_USB_Device_Library/Core/Src/usbd_ctlreq.c:690:15
	bl	USBD_CtlSendStatus
	b	.LBB3_17
.Ltmp112:
.LBB3_17:
	.loc	2 692 5 is_stmt 1               @ ../ThirdParty/STM32_USB_Device_Library/Core/Src/usbd_ctlreq.c:692:5
	b	.LBB3_19
.Ltmp113:
.LBB3_18:
	.loc	2 695 32                        @ ../ThirdParty/STM32_USB_Device_Library/Core/Src/usbd_ctlreq.c:695:32
	ldr	r0, [sp, #16]
	.loc	2 695 13 is_stmt 0              @ ../ThirdParty/STM32_USB_Device_Library/Core/Src/usbd_ctlreq.c:695:13
	bl	USBD_CtlSendStatus
	b	.LBB3_19
.Ltmp114:
.LBB3_19:
	.loc	2 0 13                          @ ../ThirdParty/STM32_USB_Device_Library/Core/Src/usbd_ctlreq.c:0:13
	b	.LBB3_20
.LBB3_20:
	.loc	2 697 5 is_stmt 1               @ ../ThirdParty/STM32_USB_Device_Library/Core/Src/usbd_ctlreq.c:697:5
	b	.LBB3_22
.LBB3_21:
	.loc	2 700 19                        @ ../ThirdParty/STM32_USB_Device_Library/Core/Src/usbd_ctlreq.c:700:19
	ldr	r0, [sp, #16]
	.loc	2 700 25 is_stmt 0              @ ../ThirdParty/STM32_USB_Device_Library/Core/Src/usbd_ctlreq.c:700:25
	ldr	r1, [sp, #12]
	.loc	2 700 5                         @ ../ThirdParty/STM32_USB_Device_Library/Core/Src/usbd_ctlreq.c:700:5
	bl	USBD_CtlError
	.loc	2 701 31 is_stmt 1              @ ../ThirdParty/STM32_USB_Device_Library/Core/Src/usbd_ctlreq.c:701:31
	ldr	r0, [sp, #16]
	.loc	2 701 37 is_stmt 0              @ ../ThirdParty/STM32_USB_Device_Library/Core/Src/usbd_ctlreq.c:701:37
	movw	r1, :lower16:USBD_SetConfig.cfgidx
	movt	r1, :upper16:USBD_SetConfig.cfgidx
	ldrb	r1, [r1]
	.loc	2 701 11                        @ ../ThirdParty/STM32_USB_Device_Library/Core/Src/usbd_ctlreq.c:701:11
	bl	USBD_ClrClassConfig
	movs	r0, #3
	.loc	2 702 9 is_stmt 1               @ ../ThirdParty/STM32_USB_Device_Library/Core/Src/usbd_ctlreq.c:702:9
	strb.w	r0, [sp, #11]
	.loc	2 703 5                         @ ../ThirdParty/STM32_USB_Device_Library/Core/Src/usbd_ctlreq.c:703:5
	b	.LBB3_22
.Ltmp115:
.LBB3_22:
	.loc	2 706 10                        @ ../ThirdParty/STM32_USB_Device_Library/Core/Src/usbd_ctlreq.c:706:10
	ldrb.w	r0, [sp, #11]
	.loc	2 706 3 is_stmt 0               @ ../ThirdParty/STM32_USB_Device_Library/Core/Src/usbd_ctlreq.c:706:3
	strb.w	r0, [sp, #23]
	b	.LBB3_23
.LBB3_23:
	.loc	2 707 1 is_stmt 1               @ ../ThirdParty/STM32_USB_Device_Library/Core/Src/usbd_ctlreq.c:707:1
	ldrb.w	r0, [sp, #23]
	.loc	2 707 1 epilogue_begin is_stmt 0 @ ../ThirdParty/STM32_USB_Device_Library/Core/Src/usbd_ctlreq.c:707:1
	add	sp, #24
	pop	{r7, pc}
.Ltmp116:
.Lfunc_end3:
	.size	USBD_SetConfig, .Lfunc_end3-USBD_SetConfig
	.cfi_endproc
	.cantunwind
	.fnend
                                        @ -- End function
	.section	.text.USBD_GetConfig,"ax",%progbits
	.p2align	2                               @ -- Begin function USBD_GetConfig
	.type	USBD_GetConfig,%function
	.code	16                              @ @USBD_GetConfig
	.thumb_func
USBD_GetConfig:
.Lfunc_begin4:
	.loc	2 717 0 is_stmt 1               @ ../ThirdParty/STM32_USB_Device_Library/Core/Src/usbd_ctlreq.c:717:0
	.fnstart
	.cfi_startproc
@ %bb.0:
	.save	{r7, lr}
	push	{r7, lr}
	.cfi_def_cfa_offset 8
	.cfi_offset lr, -4
	.cfi_offset r7, -8
	.pad	#16
	sub	sp, #16
	.cfi_def_cfa_offset 24
	str	r0, [sp, #12]
	str	r1, [sp, #8]
.Ltmp117:
	.loc	2 718 7 prologue_end            @ ../ThirdParty/STM32_USB_Device_Library/Core/Src/usbd_ctlreq.c:718:7
	ldr	r0, [sp, #8]
	.loc	2 718 12 is_stmt 0              @ ../ThirdParty/STM32_USB_Device_Library/Core/Src/usbd_ctlreq.c:718:12
	ldrh	r0, [r0, #6]
.Ltmp118:
	.loc	2 718 7                         @ ../ThirdParty/STM32_USB_Device_Library/Core/Src/usbd_ctlreq.c:718:7
	cmp	r0, #1
	beq	.LBB4_2
	b	.LBB4_1
.LBB4_1:
.Ltmp119:
	.loc	2 720 19 is_stmt 1              @ ../ThirdParty/STM32_USB_Device_Library/Core/Src/usbd_ctlreq.c:720:19
	ldr	r0, [sp, #12]
	.loc	2 720 25 is_stmt 0              @ ../ThirdParty/STM32_USB_Device_Library/Core/Src/usbd_ctlreq.c:720:25
	ldr	r1, [sp, #8]
	.loc	2 720 5                         @ ../ThirdParty/STM32_USB_Device_Library/Core/Src/usbd_ctlreq.c:720:5
	bl	USBD_CtlError
	.loc	2 721 3 is_stmt 1               @ ../ThirdParty/STM32_USB_Device_Library/Core/Src/usbd_ctlreq.c:721:3
	b	.LBB4_8
.Ltmp120:
.LBB4_2:
	.loc	2 724 13                        @ ../ThirdParty/STM32_USB_Device_Library/Core/Src/usbd_ctlreq.c:724:13
	ldr	r0, [sp, #12]
	.loc	2 724 19 is_stmt 0              @ ../ThirdParty/STM32_USB_Device_Library/Core/Src/usbd_ctlreq.c:724:19
	ldrb.w	r1, [r0, #668]
	.loc	2 724 5                         @ ../ThirdParty/STM32_USB_Device_Library/Core/Src/usbd_ctlreq.c:724:5
	subs	r0, r1, #1
	str	r1, [sp, #4]                    @ 4-byte Spill
	cmp	r0, #2
	blo	.LBB4_4
	b	.LBB4_3
.LBB4_3:
	ldr	r0, [sp, #4]                    @ 4-byte Reload
	cmp	r0, #3
	beq	.LBB4_5
	b	.LBB4_6
.LBB4_4:
.Ltmp121:
	.loc	2 728 7 is_stmt 1               @ ../ThirdParty/STM32_USB_Device_Library/Core/Src/usbd_ctlreq.c:728:7
	ldr	r1, [sp, #12]
	movs	r0, #0
	.loc	2 728 32 is_stmt 0              @ ../ThirdParty/STM32_USB_Device_Library/Core/Src/usbd_ctlreq.c:728:32
	str	r0, [r1, #8]
	.loc	2 729 30 is_stmt 1              @ ../ThirdParty/STM32_USB_Device_Library/Core/Src/usbd_ctlreq.c:729:30
	ldr	r0, [sp, #12]
	.loc	2 729 54 is_stmt 0              @ ../ThirdParty/STM32_USB_Device_Library/Core/Src/usbd_ctlreq.c:729:54
	add.w	r1, r0, #8
	movs	r2, #1
	.loc	2 729 13                        @ ../ThirdParty/STM32_USB_Device_Library/Core/Src/usbd_ctlreq.c:729:13
	bl	USBD_CtlSendData
	.loc	2 730 7 is_stmt 1               @ ../ThirdParty/STM32_USB_Device_Library/Core/Src/usbd_ctlreq.c:730:7
	b	.LBB4_7
.LBB4_5:
	.loc	2 733 30                        @ ../ThirdParty/STM32_USB_Device_Library/Core/Src/usbd_ctlreq.c:733:30
	ldr	r0, [sp, #12]
	.loc	2 733 54 is_stmt 0              @ ../ThirdParty/STM32_USB_Device_Library/Core/Src/usbd_ctlreq.c:733:54
	adds	r1, r0, #4
	movs	r2, #1
	.loc	2 733 13                        @ ../ThirdParty/STM32_USB_Device_Library/Core/Src/usbd_ctlreq.c:733:13
	bl	USBD_CtlSendData
	.loc	2 734 7 is_stmt 1               @ ../ThirdParty/STM32_USB_Device_Library/Core/Src/usbd_ctlreq.c:734:7
	b	.LBB4_7
.LBB4_6:
	.loc	2 737 21                        @ ../ThirdParty/STM32_USB_Device_Library/Core/Src/usbd_ctlreq.c:737:21
	ldr	r0, [sp, #12]
	.loc	2 737 27 is_stmt 0              @ ../ThirdParty/STM32_USB_Device_Library/Core/Src/usbd_ctlreq.c:737:27
	ldr	r1, [sp, #8]
	.loc	2 737 7                         @ ../ThirdParty/STM32_USB_Device_Library/Core/Src/usbd_ctlreq.c:737:7
	bl	USBD_CtlError
	.loc	2 738 7 is_stmt 1               @ ../ThirdParty/STM32_USB_Device_Library/Core/Src/usbd_ctlreq.c:738:7
	b	.LBB4_7
.Ltmp122:
.LBB4_7:
	.loc	2 0 7 is_stmt 0                 @ ../ThirdParty/STM32_USB_Device_Library/Core/Src/usbd_ctlreq.c:0:7
	b	.LBB4_8
.LBB4_8:
	.loc	2 741 1 epilogue_begin is_stmt 1 @ ../ThirdParty/STM32_USB_Device_Library/Core/Src/usbd_ctlreq.c:741:1
	add	sp, #16
	pop	{r7, pc}
.Ltmp123:
.Lfunc_end4:
	.size	USBD_GetConfig, .Lfunc_end4-USBD_GetConfig
	.cfi_endproc
	.cantunwind
	.fnend
                                        @ -- End function
	.section	.text.USBD_GetStatus,"ax",%progbits
	.p2align	2                               @ -- Begin function USBD_GetStatus
	.type	USBD_GetStatus,%function
	.code	16                              @ @USBD_GetStatus
	.thumb_func
USBD_GetStatus:
.Lfunc_begin5:
	.loc	2 751 0                         @ ../ThirdParty/STM32_USB_Device_Library/Core/Src/usbd_ctlreq.c:751:0
	.fnstart
	.cfi_startproc
@ %bb.0:
	.save	{r7, lr}
	push	{r7, lr}
	.cfi_def_cfa_offset 8
	.cfi_offset lr, -4
	.cfi_offset r7, -8
	.pad	#8
	sub	sp, #8
	.cfi_def_cfa_offset 16
	str	r0, [sp, #4]
	str	r1, [sp]
.Ltmp124:
	.loc	2 752 11 prologue_end           @ ../ThirdParty/STM32_USB_Device_Library/Core/Src/usbd_ctlreq.c:752:11
	ldr	r0, [sp, #4]
	.loc	2 752 17 is_stmt 0              @ ../ThirdParty/STM32_USB_Device_Library/Core/Src/usbd_ctlreq.c:752:17
	ldrb.w	r0, [r0, #668]
	.loc	2 752 3                         @ ../ThirdParty/STM32_USB_Device_Library/Core/Src/usbd_ctlreq.c:752:3
	subs	r0, #1
	cmp	r0, #2
	bhi	.LBB5_6
	b	.LBB5_1
.LBB5_1:
.Ltmp125:
	.loc	2 757 9 is_stmt 1               @ ../ThirdParty/STM32_USB_Device_Library/Core/Src/usbd_ctlreq.c:757:9
	ldr	r0, [sp]
	.loc	2 757 14 is_stmt 0              @ ../ThirdParty/STM32_USB_Device_Library/Core/Src/usbd_ctlreq.c:757:14
	ldrh	r0, [r0, #6]
.Ltmp126:
	.loc	2 757 9                         @ ../ThirdParty/STM32_USB_Device_Library/Core/Src/usbd_ctlreq.c:757:9
	cmp	r0, #2
	beq	.LBB5_3
	b	.LBB5_2
.LBB5_2:
.Ltmp127:
	.loc	2 759 21 is_stmt 1              @ ../ThirdParty/STM32_USB_Device_Library/Core/Src/usbd_ctlreq.c:759:21
	ldr	r0, [sp, #4]
	.loc	2 759 27 is_stmt 0              @ ../ThirdParty/STM32_USB_Device_Library/Core/Src/usbd_ctlreq.c:759:27
	ldr	r1, [sp]
	.loc	2 759 7                         @ ../ThirdParty/STM32_USB_Device_Library/Core/Src/usbd_ctlreq.c:759:7
	bl	USBD_CtlError
	.loc	2 760 7 is_stmt 1               @ ../ThirdParty/STM32_USB_Device_Library/Core/Src/usbd_ctlreq.c:760:7
	b	.LBB5_7
.Ltmp128:
.LBB5_3:
	.loc	2 764 5                         @ ../ThirdParty/STM32_USB_Device_Library/Core/Src/usbd_ctlreq.c:764:5
	ldr	r1, [sp, #4]
	movs	r0, #1
	.loc	2 764 29 is_stmt 0              @ ../ThirdParty/STM32_USB_Device_Library/Core/Src/usbd_ctlreq.c:764:29
	str	r0, [r1, #12]
.Ltmp129:
	.loc	2 769 9 is_stmt 1               @ ../ThirdParty/STM32_USB_Device_Library/Core/Src/usbd_ctlreq.c:769:9
	ldr	r0, [sp, #4]
	.loc	2 769 15 is_stmt 0              @ ../ThirdParty/STM32_USB_Device_Library/Core/Src/usbd_ctlreq.c:769:15
	ldr.w	r0, [r0, #676]
.Ltmp130:
	.loc	2 769 9                         @ ../ThirdParty/STM32_USB_Device_Library/Core/Src/usbd_ctlreq.c:769:9
	cbz	r0, .LBB5_5
	b	.LBB5_4
.LBB5_4:
.Ltmp131:
	.loc	2 771 7 is_stmt 1               @ ../ThirdParty/STM32_USB_Device_Library/Core/Src/usbd_ctlreq.c:771:7
	ldr	r1, [sp, #4]
	.loc	2 771 31 is_stmt 0              @ ../ThirdParty/STM32_USB_Device_Library/Core/Src/usbd_ctlreq.c:771:31
	ldr	r0, [r1, #12]
	orr	r0, r0, #2
	str	r0, [r1, #12]
	.loc	2 772 5 is_stmt 1               @ ../ThirdParty/STM32_USB_Device_Library/Core/Src/usbd_ctlreq.c:772:5
	b	.LBB5_5
.Ltmp132:
.LBB5_5:
	.loc	2 774 28                        @ ../ThirdParty/STM32_USB_Device_Library/Core/Src/usbd_ctlreq.c:774:28
	ldr	r0, [sp, #4]
	.loc	2 774 52 is_stmt 0              @ ../ThirdParty/STM32_USB_Device_Library/Core/Src/usbd_ctlreq.c:774:52
	add.w	r1, r0, #12
	movs	r2, #2
	.loc	2 774 11                        @ ../ThirdParty/STM32_USB_Device_Library/Core/Src/usbd_ctlreq.c:774:11
	bl	USBD_CtlSendData
	.loc	2 775 5 is_stmt 1               @ ../ThirdParty/STM32_USB_Device_Library/Core/Src/usbd_ctlreq.c:775:5
	b	.LBB5_7
.LBB5_6:
	.loc	2 778 19                        @ ../ThirdParty/STM32_USB_Device_Library/Core/Src/usbd_ctlreq.c:778:19
	ldr	r0, [sp, #4]
	.loc	2 778 25 is_stmt 0              @ ../ThirdParty/STM32_USB_Device_Library/Core/Src/usbd_ctlreq.c:778:25
	ldr	r1, [sp]
	.loc	2 778 5                         @ ../ThirdParty/STM32_USB_Device_Library/Core/Src/usbd_ctlreq.c:778:5
	bl	USBD_CtlError
	.loc	2 779 5 is_stmt 1               @ ../ThirdParty/STM32_USB_Device_Library/Core/Src/usbd_ctlreq.c:779:5
	b	.LBB5_7
.Ltmp133:
.LBB5_7:
	.loc	2 781 1 epilogue_begin          @ ../ThirdParty/STM32_USB_Device_Library/Core/Src/usbd_ctlreq.c:781:1
	add	sp, #8
	pop	{r7, pc}
.Ltmp134:
.Lfunc_end5:
	.size	USBD_GetStatus, .Lfunc_end5-USBD_GetStatus
	.cfi_endproc
	.cantunwind
	.fnend
                                        @ -- End function
	.section	.text.USBD_SetFeature,"ax",%progbits
	.p2align	2                               @ -- Begin function USBD_SetFeature
	.type	USBD_SetFeature,%function
	.code	16                              @ @USBD_SetFeature
	.thumb_func
USBD_SetFeature:
.Lfunc_begin6:
	.loc	2 792 0                         @ ../ThirdParty/STM32_USB_Device_Library/Core/Src/usbd_ctlreq.c:792:0
	.fnstart
	.cfi_startproc
@ %bb.0:
	.save	{r7, lr}
	push	{r7, lr}
	.cfi_def_cfa_offset 8
	.cfi_offset lr, -4
	.cfi_offset r7, -8
	.pad	#8
	sub	sp, #8
	.cfi_def_cfa_offset 16
	str	r0, [sp, #4]
	str	r1, [sp]
.Ltmp135:
	.loc	2 793 7 prologue_end            @ ../ThirdParty/STM32_USB_Device_Library/Core/Src/usbd_ctlreq.c:793:7
	ldr	r0, [sp]
	.loc	2 793 12 is_stmt 0              @ ../ThirdParty/STM32_USB_Device_Library/Core/Src/usbd_ctlreq.c:793:12
	ldrh	r0, [r0, #2]
.Ltmp136:
	.loc	2 793 7                         @ ../ThirdParty/STM32_USB_Device_Library/Core/Src/usbd_ctlreq.c:793:7
	cmp	r0, #1
	bne	.LBB6_2
	b	.LBB6_1
.LBB6_1:
.Ltmp137:
	.loc	2 795 5 is_stmt 1               @ ../ThirdParty/STM32_USB_Device_Library/Core/Src/usbd_ctlreq.c:795:5
	ldr	r1, [sp, #4]
	movs	r0, #1
	.loc	2 795 29 is_stmt 0              @ ../ThirdParty/STM32_USB_Device_Library/Core/Src/usbd_ctlreq.c:795:29
	str.w	r0, [r1, #676]
	.loc	2 796 30 is_stmt 1              @ ../ThirdParty/STM32_USB_Device_Library/Core/Src/usbd_ctlreq.c:796:30
	ldr	r0, [sp, #4]
	.loc	2 796 11 is_stmt 0              @ ../ThirdParty/STM32_USB_Device_Library/Core/Src/usbd_ctlreq.c:796:11
	bl	USBD_CtlSendStatus
	.loc	2 797 3 is_stmt 1               @ ../ThirdParty/STM32_USB_Device_Library/Core/Src/usbd_ctlreq.c:797:3
	b	.LBB6_2
.Ltmp138:
.LBB6_2:
	.loc	2 798 1 epilogue_begin          @ ../ThirdParty/STM32_USB_Device_Library/Core/Src/usbd_ctlreq.c:798:1
	add	sp, #8
	pop	{r7, pc}
.Ltmp139:
.Lfunc_end6:
	.size	USBD_SetFeature, .Lfunc_end6-USBD_SetFeature
	.cfi_endproc
	.cantunwind
	.fnend
                                        @ -- End function
	.section	.text.USBD_ClrFeature,"ax",%progbits
	.p2align	2                               @ -- Begin function USBD_ClrFeature
	.type	USBD_ClrFeature,%function
	.code	16                              @ @USBD_ClrFeature
	.thumb_func
USBD_ClrFeature:
.Lfunc_begin7:
	.loc	2 809 0                         @ ../ThirdParty/STM32_USB_Device_Library/Core/Src/usbd_ctlreq.c:809:0
	.fnstart
	.cfi_startproc
@ %bb.0:
	.save	{r7, lr}
	push	{r7, lr}
	.cfi_def_cfa_offset 8
	.cfi_offset lr, -4
	.cfi_offset r7, -8
	.pad	#8
	sub	sp, #8
	.cfi_def_cfa_offset 16
	str	r0, [sp, #4]
	str	r1, [sp]
.Ltmp140:
	.loc	2 810 11 prologue_end           @ ../ThirdParty/STM32_USB_Device_Library/Core/Src/usbd_ctlreq.c:810:11
	ldr	r0, [sp, #4]
	.loc	2 810 17 is_stmt 0              @ ../ThirdParty/STM32_USB_Device_Library/Core/Src/usbd_ctlreq.c:810:17
	ldrb.w	r0, [r0, #668]
	.loc	2 810 3                         @ ../ThirdParty/STM32_USB_Device_Library/Core/Src/usbd_ctlreq.c:810:3
	subs	r0, #1
	cmp	r0, #2
	bhi	.LBB7_4
	b	.LBB7_1
.LBB7_1:
.Ltmp141:
	.loc	2 815 11 is_stmt 1              @ ../ThirdParty/STM32_USB_Device_Library/Core/Src/usbd_ctlreq.c:815:11
	ldr	r0, [sp]
	.loc	2 815 16 is_stmt 0              @ ../ThirdParty/STM32_USB_Device_Library/Core/Src/usbd_ctlreq.c:815:16
	ldrh	r0, [r0, #2]
.Ltmp142:
	.loc	2 815 11                        @ ../ThirdParty/STM32_USB_Device_Library/Core/Src/usbd_ctlreq.c:815:11
	cmp	r0, #1
	bne	.LBB7_3
	b	.LBB7_2
.LBB7_2:
.Ltmp143:
	.loc	2 817 9 is_stmt 1               @ ../ThirdParty/STM32_USB_Device_Library/Core/Src/usbd_ctlreq.c:817:9
	ldr	r1, [sp, #4]
	movs	r0, #0
	.loc	2 817 33 is_stmt 0              @ ../ThirdParty/STM32_USB_Device_Library/Core/Src/usbd_ctlreq.c:817:33
	str.w	r0, [r1, #676]
	.loc	2 818 34 is_stmt 1              @ ../ThirdParty/STM32_USB_Device_Library/Core/Src/usbd_ctlreq.c:818:34
	ldr	r0, [sp, #4]
	.loc	2 818 15 is_stmt 0              @ ../ThirdParty/STM32_USB_Device_Library/Core/Src/usbd_ctlreq.c:818:15
	bl	USBD_CtlSendStatus
	.loc	2 819 7 is_stmt 1               @ ../ThirdParty/STM32_USB_Device_Library/Core/Src/usbd_ctlreq.c:819:7
	b	.LBB7_3
.Ltmp144:
.LBB7_3:
	.loc	2 820 7                         @ ../ThirdParty/STM32_USB_Device_Library/Core/Src/usbd_ctlreq.c:820:7
	b	.LBB7_5
.LBB7_4:
	.loc	2 823 21                        @ ../ThirdParty/STM32_USB_Device_Library/Core/Src/usbd_ctlreq.c:823:21
	ldr	r0, [sp, #4]
	.loc	2 823 27 is_stmt 0              @ ../ThirdParty/STM32_USB_Device_Library/Core/Src/usbd_ctlreq.c:823:27
	ldr	r1, [sp]
	.loc	2 823 7                         @ ../ThirdParty/STM32_USB_Device_Library/Core/Src/usbd_ctlreq.c:823:7
	bl	USBD_CtlError
	.loc	2 824 7 is_stmt 1               @ ../ThirdParty/STM32_USB_Device_Library/Core/Src/usbd_ctlreq.c:824:7
	b	.LBB7_5
.Ltmp145:
.LBB7_5:
	.loc	2 826 1 epilogue_begin          @ ../ThirdParty/STM32_USB_Device_Library/Core/Src/usbd_ctlreq.c:826:1
	add	sp, #8
	pop	{r7, pc}
.Ltmp146:
.Lfunc_end7:
	.size	USBD_ClrFeature, .Lfunc_end7-USBD_ClrFeature
	.cfi_endproc
	.cantunwind
	.fnend
                                        @ -- End function
	.section	.text.USBD_CtlError,"ax",%progbits
	.hidden	USBD_CtlError                   @ -- Begin function USBD_CtlError
	.globl	USBD_CtlError
	.p2align	2
	.type	USBD_CtlError,%function
	.code	16                              @ @USBD_CtlError
	.thumb_func
USBD_CtlError:
.Lfunc_begin8:
	.loc	2 866 0                         @ ../ThirdParty/STM32_USB_Device_Library/Core/Src/usbd_ctlreq.c:866:0
	.fnstart
	.cfi_startproc
@ %bb.0:
	.save	{r7, lr}
	push	{r7, lr}
	.cfi_def_cfa_offset 8
	.cfi_offset lr, -4
	.cfi_offset r7, -8
	.pad	#8
	sub	sp, #8
	.cfi_def_cfa_offset 16
	str	r0, [sp, #4]
	str	r1, [sp]
.Ltmp147:
	.loc	2 869 25 prologue_end           @ ../ThirdParty/STM32_USB_Device_Library/Core/Src/usbd_ctlreq.c:869:25
	ldr	r0, [sp, #4]
	movs	r1, #128
	.loc	2 869 9 is_stmt 0               @ ../ThirdParty/STM32_USB_Device_Library/Core/Src/usbd_ctlreq.c:869:9
	bl	USBD_LL_StallEP
	.loc	2 870 25 is_stmt 1              @ ../ThirdParty/STM32_USB_Device_Library/Core/Src/usbd_ctlreq.c:870:25
	ldr	r0, [sp, #4]
	movs	r1, #0
	.loc	2 870 9 is_stmt 0               @ ../ThirdParty/STM32_USB_Device_Library/Core/Src/usbd_ctlreq.c:870:9
	bl	USBD_LL_StallEP
	.loc	2 871 1 epilogue_begin is_stmt 1 @ ../ThirdParty/STM32_USB_Device_Library/Core/Src/usbd_ctlreq.c:871:1
	add	sp, #8
	pop	{r7, pc}
.Ltmp148:
.Lfunc_end8:
	.size	USBD_CtlError, .Lfunc_end8-USBD_CtlError
	.cfi_endproc
	.cantunwind
	.fnend
                                        @ -- End function
	.section	.text.USBD_StdItfReq,"ax",%progbits
	.hidden	USBD_StdItfReq                  @ -- Begin function USBD_StdItfReq
	.globl	USBD_StdItfReq
	.p2align	2
	.type	USBD_StdItfReq,%function
	.code	16                              @ @USBD_StdItfReq
	.thumb_func
USBD_StdItfReq:
.Lfunc_begin9:
	.loc	2 164 0                         @ ../ThirdParty/STM32_USB_Device_Library/Core/Src/usbd_ctlreq.c:164:0
	.fnstart
	.cfi_startproc
@ %bb.0:
	.save	{r7, lr}
	push	{r7, lr}
	.cfi_def_cfa_offset 8
	.cfi_offset lr, -4
	.cfi_offset r7, -8
	.pad	#16
	sub	sp, #16
	.cfi_def_cfa_offset 24
	str	r0, [sp, #12]
	str	r1, [sp, #8]
	movs	r0, #0
.Ltmp149:
	.loc	2 165 22 prologue_end           @ ../ThirdParty/STM32_USB_Device_Library/Core/Src/usbd_ctlreq.c:165:22
	strb.w	r0, [sp, #7]
	.loc	2 167 11                        @ ../ThirdParty/STM32_USB_Device_Library/Core/Src/usbd_ctlreq.c:167:11
	ldr	r0, [sp, #8]
	ldrb	r0, [r0]
	.loc	2 167 26 is_stmt 0              @ ../ThirdParty/STM32_USB_Device_Library/Core/Src/usbd_ctlreq.c:167:26
	and	r0, r0, #96
	.loc	2 167 3                         @ ../ThirdParty/STM32_USB_Device_Library/Core/Src/usbd_ctlreq.c:167:3
	mov	r1, r0
	str	r1, [sp]                        @ 4-byte Spill
	cbz	r0, .LBB9_3
	b	.LBB9_1
.LBB9_1:
	ldr	r0, [sp]                        @ 4-byte Reload
	cmp	r0, #32
	beq	.LBB9_3
	b	.LBB9_2
.LBB9_2:
	ldr	r0, [sp]                        @ 4-byte Reload
	cmp	r0, #64
	bne	.LBB9_13
	b	.LBB9_3
.LBB9_3:
.Ltmp150:
	.loc	2 172 13 is_stmt 1              @ ../ThirdParty/STM32_USB_Device_Library/Core/Src/usbd_ctlreq.c:172:13
	ldr	r0, [sp, #12]
	.loc	2 172 19 is_stmt 0              @ ../ThirdParty/STM32_USB_Device_Library/Core/Src/usbd_ctlreq.c:172:19
	ldrb.w	r0, [r0, #668]
	.loc	2 172 5                         @ ../ThirdParty/STM32_USB_Device_Library/Core/Src/usbd_ctlreq.c:172:5
	subs	r0, #1
	cmp	r0, #2
	bhi	.LBB9_11
	b	.LBB9_4
.LBB9_4:
.Ltmp151:
	.loc	2 178 11 is_stmt 1              @ ../ThirdParty/STM32_USB_Device_Library/Core/Src/usbd_ctlreq.c:178:11
	ldr	r0, [sp, #8]
	ldrb	r0, [r0, #4]
.Ltmp152:
	.loc	2 178 11 is_stmt 0              @ ../ThirdParty/STM32_USB_Device_Library/Core/Src/usbd_ctlreq.c:178:11
	cmp	r0, #1
	bgt	.LBB9_9
	b	.LBB9_5
.LBB9_5:
.Ltmp153:
	.loc	2 180 35 is_stmt 1              @ ../ThirdParty/STM32_USB_Device_Library/Core/Src/usbd_ctlreq.c:180:35
	ldr	r0, [sp, #12]
	.loc	2 180 41 is_stmt 0              @ ../ThirdParty/STM32_USB_Device_Library/Core/Src/usbd_ctlreq.c:180:41
	ldr.w	r1, [r0, #696]
	.loc	2 180 49                        @ ../ThirdParty/STM32_USB_Device_Library/Core/Src/usbd_ctlreq.c:180:49
	ldr	r2, [r1, #8]
	.loc	2 180 61                        @ ../ThirdParty/STM32_USB_Device_Library/Core/Src/usbd_ctlreq.c:180:61
	ldr	r1, [sp, #8]
	.loc	2 180 35                        @ ../ThirdParty/STM32_USB_Device_Library/Core/Src/usbd_ctlreq.c:180:35
	blx	r2
	.loc	2 180 13                        @ ../ThirdParty/STM32_USB_Device_Library/Core/Src/usbd_ctlreq.c:180:13
	strb.w	r0, [sp, #7]
.Ltmp154:
	.loc	2 182 14 is_stmt 1              @ ../ThirdParty/STM32_USB_Device_Library/Core/Src/usbd_ctlreq.c:182:14
	ldr	r0, [sp, #8]
	.loc	2 182 19 is_stmt 0              @ ../ThirdParty/STM32_USB_Device_Library/Core/Src/usbd_ctlreq.c:182:19
	ldrh	r0, [r0, #6]
	.loc	2 182 34                        @ ../ThirdParty/STM32_USB_Device_Library/Core/Src/usbd_ctlreq.c:182:34
	cbnz	r0, .LBB9_8
	b	.LBB9_6
.LBB9_6:
	.loc	2 182 38                        @ ../ThirdParty/STM32_USB_Device_Library/Core/Src/usbd_ctlreq.c:182:38
	ldrb.w	r0, [sp, #7]
.Ltmp155:
	.loc	2 182 13                        @ ../ThirdParty/STM32_USB_Device_Library/Core/Src/usbd_ctlreq.c:182:13
	cbnz	r0, .LBB9_8
	b	.LBB9_7
.LBB9_7:
.Ltmp156:
	.loc	2 184 36 is_stmt 1              @ ../ThirdParty/STM32_USB_Device_Library/Core/Src/usbd_ctlreq.c:184:36
	ldr	r0, [sp, #12]
	.loc	2 184 17 is_stmt 0              @ ../ThirdParty/STM32_USB_Device_Library/Core/Src/usbd_ctlreq.c:184:17
	bl	USBD_CtlSendStatus
	.loc	2 185 9 is_stmt 1               @ ../ThirdParty/STM32_USB_Device_Library/Core/Src/usbd_ctlreq.c:185:9
	b	.LBB9_8
.Ltmp157:
.LBB9_8:
	.loc	2 186 7                         @ ../ThirdParty/STM32_USB_Device_Library/Core/Src/usbd_ctlreq.c:186:7
	b	.LBB9_10
.Ltmp158:
.LBB9_9:
	.loc	2 189 23                        @ ../ThirdParty/STM32_USB_Device_Library/Core/Src/usbd_ctlreq.c:189:23
	ldr	r0, [sp, #12]
	.loc	2 189 29 is_stmt 0              @ ../ThirdParty/STM32_USB_Device_Library/Core/Src/usbd_ctlreq.c:189:29
	ldr	r1, [sp, #8]
	.loc	2 189 9                         @ ../ThirdParty/STM32_USB_Device_Library/Core/Src/usbd_ctlreq.c:189:9
	bl	USBD_CtlError
	b	.LBB9_10
.Ltmp159:
.LBB9_10:
	.loc	2 191 7 is_stmt 1               @ ../ThirdParty/STM32_USB_Device_Library/Core/Src/usbd_ctlreq.c:191:7
	b	.LBB9_12
.LBB9_11:
	.loc	2 194 21                        @ ../ThirdParty/STM32_USB_Device_Library/Core/Src/usbd_ctlreq.c:194:21
	ldr	r0, [sp, #12]
	.loc	2 194 27 is_stmt 0              @ ../ThirdParty/STM32_USB_Device_Library/Core/Src/usbd_ctlreq.c:194:27
	ldr	r1, [sp, #8]
	.loc	2 194 7                         @ ../ThirdParty/STM32_USB_Device_Library/Core/Src/usbd_ctlreq.c:194:7
	bl	USBD_CtlError
	.loc	2 195 7 is_stmt 1               @ ../ThirdParty/STM32_USB_Device_Library/Core/Src/usbd_ctlreq.c:195:7
	b	.LBB9_12
.Ltmp160:
.LBB9_12:
	.loc	2 197 5                         @ ../ThirdParty/STM32_USB_Device_Library/Core/Src/usbd_ctlreq.c:197:5
	b	.LBB9_14
.LBB9_13:
	.loc	2 200 19                        @ ../ThirdParty/STM32_USB_Device_Library/Core/Src/usbd_ctlreq.c:200:19
	ldr	r0, [sp, #12]
	.loc	2 200 25 is_stmt 0              @ ../ThirdParty/STM32_USB_Device_Library/Core/Src/usbd_ctlreq.c:200:25
	ldr	r1, [sp, #8]
	.loc	2 200 5                         @ ../ThirdParty/STM32_USB_Device_Library/Core/Src/usbd_ctlreq.c:200:5
	bl	USBD_CtlError
	.loc	2 201 5 is_stmt 1               @ ../ThirdParty/STM32_USB_Device_Library/Core/Src/usbd_ctlreq.c:201:5
	b	.LBB9_14
.Ltmp161:
.LBB9_14:
	.loc	2 204 10                        @ ../ThirdParty/STM32_USB_Device_Library/Core/Src/usbd_ctlreq.c:204:10
	ldrb.w	r0, [sp, #7]
	.loc	2 204 3 epilogue_begin is_stmt 0 @ ../ThirdParty/STM32_USB_Device_Library/Core/Src/usbd_ctlreq.c:204:3
	add	sp, #16
	pop	{r7, pc}
.Ltmp162:
.Lfunc_end9:
	.size	USBD_StdItfReq, .Lfunc_end9-USBD_StdItfReq
	.cfi_endproc
	.cantunwind
	.fnend
                                        @ -- End function
	.section	.text.USBD_StdEPReq,"ax",%progbits
	.hidden	USBD_StdEPReq                   @ -- Begin function USBD_StdEPReq
	.globl	USBD_StdEPReq
	.p2align	2
	.type	USBD_StdEPReq,%function
	.code	16                              @ @USBD_StdEPReq
	.thumb_func
USBD_StdEPReq:
.Lfunc_begin10:
	.loc	2 215 0 is_stmt 1               @ ../ThirdParty/STM32_USB_Device_Library/Core/Src/usbd_ctlreq.c:215:0
	.fnstart
	.cfi_startproc
@ %bb.0:
	.save	{r7, lr}
	push	{r7, lr}
	.cfi_def_cfa_offset 8
	.cfi_offset lr, -4
	.cfi_offset r7, -8
	.pad	#48
	sub	sp, #48
	.cfi_def_cfa_offset 56
	str	r0, [sp, #44]
	str	r1, [sp, #40]
	movs	r0, #0
.Ltmp163:
	.loc	2 218 22 prologue_end           @ ../ThirdParty/STM32_USB_Device_Library/Core/Src/usbd_ctlreq.c:218:22
	strb.w	r0, [sp, #34]
	.loc	2 219 13                        @ ../ThirdParty/STM32_USB_Device_Library/Core/Src/usbd_ctlreq.c:219:13
	ldr	r0, [sp, #40]
	ldrh	r0, [r0, #4]
	.loc	2 219 11 is_stmt 0              @ ../ThirdParty/STM32_USB_Device_Library/Core/Src/usbd_ctlreq.c:219:11
	strb.w	r0, [sp, #35]
	.loc	2 221 11 is_stmt 1              @ ../ThirdParty/STM32_USB_Device_Library/Core/Src/usbd_ctlreq.c:221:11
	ldr	r0, [sp, #40]
	ldrb	r0, [r0]
	.loc	2 221 26 is_stmt 0              @ ../ThirdParty/STM32_USB_Device_Library/Core/Src/usbd_ctlreq.c:221:26
	and	r0, r0, #96
	.loc	2 221 3                         @ ../ThirdParty/STM32_USB_Device_Library/Core/Src/usbd_ctlreq.c:221:3
	mov	r1, r0
	str	r1, [sp, #28]                   @ 4-byte Spill
	cbz	r0, .LBB10_4
	b	.LBB10_1
.LBB10_1:
	ldr	r0, [sp, #28]                   @ 4-byte Reload
	cmp	r0, #32
	beq	.LBB10_3
	b	.LBB10_2
.LBB10_2:
	ldr	r0, [sp, #28]                   @ 4-byte Reload
	cmp	r0, #64
	bne.w	.LBB10_68
	b	.LBB10_3
.LBB10_3:
.Ltmp164:
	.loc	2 225 31 is_stmt 1              @ ../ThirdParty/STM32_USB_Device_Library/Core/Src/usbd_ctlreq.c:225:31
	ldr	r0, [sp, #44]
	.loc	2 225 37 is_stmt 0              @ ../ThirdParty/STM32_USB_Device_Library/Core/Src/usbd_ctlreq.c:225:37
	ldr.w	r1, [r0, #696]
	.loc	2 225 45                        @ ../ThirdParty/STM32_USB_Device_Library/Core/Src/usbd_ctlreq.c:225:45
	ldr	r2, [r1, #8]
	.loc	2 225 57                        @ ../ThirdParty/STM32_USB_Device_Library/Core/Src/usbd_ctlreq.c:225:57
	ldr	r1, [sp, #40]
	.loc	2 225 31                        @ ../ThirdParty/STM32_USB_Device_Library/Core/Src/usbd_ctlreq.c:225:31
	blx	r2
	.loc	2 225 9                         @ ../ThirdParty/STM32_USB_Device_Library/Core/Src/usbd_ctlreq.c:225:9
	strb.w	r0, [sp, #34]
	.loc	2 226 5 is_stmt 1               @ ../ThirdParty/STM32_USB_Device_Library/Core/Src/usbd_ctlreq.c:226:5
	b	.LBB10_69
.LBB10_4:
	.loc	2 229 13                        @ ../ThirdParty/STM32_USB_Device_Library/Core/Src/usbd_ctlreq.c:229:13
	ldr	r0, [sp, #40]
	.loc	2 229 18 is_stmt 0              @ ../ThirdParty/STM32_USB_Device_Library/Core/Src/usbd_ctlreq.c:229:18
	ldrb	r0, [r0, #1]
	.loc	2 229 5                         @ ../ThirdParty/STM32_USB_Device_Library/Core/Src/usbd_ctlreq.c:229:5
	mov	r1, r0
	str	r1, [sp, #24]                   @ 4-byte Spill
	cmp	r0, #0
	beq.w	.LBB10_37
	b	.LBB10_5
.LBB10_5:
	ldr	r0, [sp, #24]                   @ 4-byte Reload
	cmp	r0, #1
	beq	.LBB10_23
	b	.LBB10_6
.LBB10_6:
	ldr	r0, [sp, #24]                   @ 4-byte Reload
	cmp	r0, #3
	bne.w	.LBB10_66
	b	.LBB10_7
.LBB10_7:
.Ltmp165:
	.loc	2 232 15 is_stmt 1              @ ../ThirdParty/STM32_USB_Device_Library/Core/Src/usbd_ctlreq.c:232:15
	ldr	r0, [sp, #44]
	.loc	2 232 21 is_stmt 0              @ ../ThirdParty/STM32_USB_Device_Library/Core/Src/usbd_ctlreq.c:232:21
	ldrb.w	r0, [r0, #668]
	.loc	2 232 7                         @ ../ThirdParty/STM32_USB_Device_Library/Core/Src/usbd_ctlreq.c:232:7
	mov	r1, r0
	str	r1, [sp, #20]                   @ 4-byte Spill
	cmp	r0, #2
	beq	.LBB10_9
	b	.LBB10_8
.LBB10_8:
	ldr	r0, [sp, #20]                   @ 4-byte Reload
	cmp	r0, #3
	beq	.LBB10_14
	b	.LBB10_21
.LBB10_9:
.Ltmp166:
	.loc	2 235 14 is_stmt 1              @ ../ThirdParty/STM32_USB_Device_Library/Core/Src/usbd_ctlreq.c:235:14
	ldrb.w	r0, [sp, #35]
	.loc	2 235 32 is_stmt 0              @ ../ThirdParty/STM32_USB_Device_Library/Core/Src/usbd_ctlreq.c:235:32
	cbz	r0, .LBB10_12
	b	.LBB10_10
.LBB10_10:
	.loc	2 235 36                        @ ../ThirdParty/STM32_USB_Device_Library/Core/Src/usbd_ctlreq.c:235:36
	ldrb.w	r0, [sp, #35]
.Ltmp167:
	.loc	2 235 13                        @ ../ThirdParty/STM32_USB_Device_Library/Core/Src/usbd_ctlreq.c:235:13
	cmp	r0, #128
	beq	.LBB10_12
	b	.LBB10_11
.LBB10_11:
.Ltmp168:
	.loc	2 237 33 is_stmt 1              @ ../ThirdParty/STM32_USB_Device_Library/Core/Src/usbd_ctlreq.c:237:33
	ldr	r0, [sp, #44]
	.loc	2 237 39 is_stmt 0              @ ../ThirdParty/STM32_USB_Device_Library/Core/Src/usbd_ctlreq.c:237:39
	ldrb.w	r1, [sp, #35]
	.loc	2 237 17                        @ ../ThirdParty/STM32_USB_Device_Library/Core/Src/usbd_ctlreq.c:237:17
	bl	USBD_LL_StallEP
	.loc	2 238 33 is_stmt 1              @ ../ThirdParty/STM32_USB_Device_Library/Core/Src/usbd_ctlreq.c:238:33
	ldr	r0, [sp, #44]
	movs	r1, #128
	.loc	2 238 17 is_stmt 0              @ ../ThirdParty/STM32_USB_Device_Library/Core/Src/usbd_ctlreq.c:238:17
	bl	USBD_LL_StallEP
	.loc	2 239 9 is_stmt 1               @ ../ThirdParty/STM32_USB_Device_Library/Core/Src/usbd_ctlreq.c:239:9
	b	.LBB10_13
.Ltmp169:
.LBB10_12:
	.loc	2 242 25                        @ ../ThirdParty/STM32_USB_Device_Library/Core/Src/usbd_ctlreq.c:242:25
	ldr	r0, [sp, #44]
	.loc	2 242 31 is_stmt 0              @ ../ThirdParty/STM32_USB_Device_Library/Core/Src/usbd_ctlreq.c:242:31
	ldr	r1, [sp, #40]
	.loc	2 242 11                        @ ../ThirdParty/STM32_USB_Device_Library/Core/Src/usbd_ctlreq.c:242:11
	bl	USBD_CtlError
	b	.LBB10_13
.Ltmp170:
.LBB10_13:
	.loc	2 244 9 is_stmt 1               @ ../ThirdParty/STM32_USB_Device_Library/Core/Src/usbd_ctlreq.c:244:9
	b	.LBB10_22
.LBB10_14:
.Ltmp171:
	.loc	2 247 13                        @ ../ThirdParty/STM32_USB_Device_Library/Core/Src/usbd_ctlreq.c:247:13
	ldr	r0, [sp, #40]
	.loc	2 247 18 is_stmt 0              @ ../ThirdParty/STM32_USB_Device_Library/Core/Src/usbd_ctlreq.c:247:18
	ldrh	r0, [r0, #2]
.Ltmp172:
	.loc	2 247 13                        @ ../ThirdParty/STM32_USB_Device_Library/Core/Src/usbd_ctlreq.c:247:13
	cbnz	r0, .LBB10_20
	b	.LBB10_15
.LBB10_15:
.Ltmp173:
	.loc	2 249 16 is_stmt 1              @ ../ThirdParty/STM32_USB_Device_Library/Core/Src/usbd_ctlreq.c:249:16
	ldrb.w	r0, [sp, #35]
	.loc	2 249 34 is_stmt 0              @ ../ThirdParty/STM32_USB_Device_Library/Core/Src/usbd_ctlreq.c:249:34
	cbz	r0, .LBB10_19
	b	.LBB10_16
.LBB10_16:
	.loc	2 249 38                        @ ../ThirdParty/STM32_USB_Device_Library/Core/Src/usbd_ctlreq.c:249:38
	ldrb.w	r0, [sp, #35]
	.loc	2 249 56                        @ ../ThirdParty/STM32_USB_Device_Library/Core/Src/usbd_ctlreq.c:249:56
	cmp	r0, #128
	beq	.LBB10_19
	b	.LBB10_17
.LBB10_17:
	.loc	2 249 60                        @ ../ThirdParty/STM32_USB_Device_Library/Core/Src/usbd_ctlreq.c:249:60
	ldr	r0, [sp, #40]
	.loc	2 249 65                        @ ../ThirdParty/STM32_USB_Device_Library/Core/Src/usbd_ctlreq.c:249:65
	ldrh	r0, [r0, #6]
.Ltmp174:
	.loc	2 249 15                        @ ../ThirdParty/STM32_USB_Device_Library/Core/Src/usbd_ctlreq.c:249:15
	cbnz	r0, .LBB10_19
	b	.LBB10_18
.LBB10_18:
.Ltmp175:
	.loc	2 251 35 is_stmt 1              @ ../ThirdParty/STM32_USB_Device_Library/Core/Src/usbd_ctlreq.c:251:35
	ldr	r0, [sp, #44]
	.loc	2 251 41 is_stmt 0              @ ../ThirdParty/STM32_USB_Device_Library/Core/Src/usbd_ctlreq.c:251:41
	ldrb.w	r1, [sp, #35]
	.loc	2 251 19                        @ ../ThirdParty/STM32_USB_Device_Library/Core/Src/usbd_ctlreq.c:251:19
	bl	USBD_LL_StallEP
	.loc	2 252 11 is_stmt 1              @ ../ThirdParty/STM32_USB_Device_Library/Core/Src/usbd_ctlreq.c:252:11
	b	.LBB10_19
.Ltmp176:
.LBB10_19:
	.loc	2 253 9                         @ ../ThirdParty/STM32_USB_Device_Library/Core/Src/usbd_ctlreq.c:253:9
	b	.LBB10_20
.Ltmp177:
.LBB10_20:
	.loc	2 254 34                        @ ../ThirdParty/STM32_USB_Device_Library/Core/Src/usbd_ctlreq.c:254:34
	ldr	r0, [sp, #44]
	.loc	2 254 15 is_stmt 0              @ ../ThirdParty/STM32_USB_Device_Library/Core/Src/usbd_ctlreq.c:254:15
	bl	USBD_CtlSendStatus
	.loc	2 256 9 is_stmt 1               @ ../ThirdParty/STM32_USB_Device_Library/Core/Src/usbd_ctlreq.c:256:9
	b	.LBB10_22
.LBB10_21:
	.loc	2 259 23                        @ ../ThirdParty/STM32_USB_Device_Library/Core/Src/usbd_ctlreq.c:259:23
	ldr	r0, [sp, #44]
	.loc	2 259 29 is_stmt 0              @ ../ThirdParty/STM32_USB_Device_Library/Core/Src/usbd_ctlreq.c:259:29
	ldr	r1, [sp, #40]
	.loc	2 259 9                         @ ../ThirdParty/STM32_USB_Device_Library/Core/Src/usbd_ctlreq.c:259:9
	bl	USBD_CtlError
	.loc	2 260 9 is_stmt 1               @ ../ThirdParty/STM32_USB_Device_Library/Core/Src/usbd_ctlreq.c:260:9
	b	.LBB10_22
.Ltmp178:
.LBB10_22:
	.loc	2 262 7                         @ ../ThirdParty/STM32_USB_Device_Library/Core/Src/usbd_ctlreq.c:262:7
	b	.LBB10_67
.LBB10_23:
	.loc	2 266 15                        @ ../ThirdParty/STM32_USB_Device_Library/Core/Src/usbd_ctlreq.c:266:15
	ldr	r0, [sp, #44]
	.loc	2 266 21 is_stmt 0              @ ../ThirdParty/STM32_USB_Device_Library/Core/Src/usbd_ctlreq.c:266:21
	ldrb.w	r0, [r0, #668]
	.loc	2 266 7                         @ ../ThirdParty/STM32_USB_Device_Library/Core/Src/usbd_ctlreq.c:266:7
	mov	r1, r0
	str	r1, [sp, #16]                   @ 4-byte Spill
	cmp	r0, #2
	beq	.LBB10_25
	b	.LBB10_24
.LBB10_24:
	ldr	r0, [sp, #16]                   @ 4-byte Reload
	cmp	r0, #3
	beq	.LBB10_30
	b	.LBB10_35
.LBB10_25:
.Ltmp179:
	.loc	2 269 14 is_stmt 1              @ ../ThirdParty/STM32_USB_Device_Library/Core/Src/usbd_ctlreq.c:269:14
	ldrb.w	r0, [sp, #35]
	.loc	2 269 32 is_stmt 0              @ ../ThirdParty/STM32_USB_Device_Library/Core/Src/usbd_ctlreq.c:269:32
	cbz	r0, .LBB10_28
	b	.LBB10_26
.LBB10_26:
	.loc	2 269 36                        @ ../ThirdParty/STM32_USB_Device_Library/Core/Src/usbd_ctlreq.c:269:36
	ldrb.w	r0, [sp, #35]
.Ltmp180:
	.loc	2 269 13                        @ ../ThirdParty/STM32_USB_Device_Library/Core/Src/usbd_ctlreq.c:269:13
	cmp	r0, #128
	beq	.LBB10_28
	b	.LBB10_27
.LBB10_27:
.Ltmp181:
	.loc	2 271 33 is_stmt 1              @ ../ThirdParty/STM32_USB_Device_Library/Core/Src/usbd_ctlreq.c:271:33
	ldr	r0, [sp, #44]
	.loc	2 271 39 is_stmt 0              @ ../ThirdParty/STM32_USB_Device_Library/Core/Src/usbd_ctlreq.c:271:39
	ldrb.w	r1, [sp, #35]
	.loc	2 271 17                        @ ../ThirdParty/STM32_USB_Device_Library/Core/Src/usbd_ctlreq.c:271:17
	bl	USBD_LL_StallEP
	.loc	2 272 33 is_stmt 1              @ ../ThirdParty/STM32_USB_Device_Library/Core/Src/usbd_ctlreq.c:272:33
	ldr	r0, [sp, #44]
	movs	r1, #128
	.loc	2 272 17 is_stmt 0              @ ../ThirdParty/STM32_USB_Device_Library/Core/Src/usbd_ctlreq.c:272:17
	bl	USBD_LL_StallEP
	.loc	2 273 9 is_stmt 1               @ ../ThirdParty/STM32_USB_Device_Library/Core/Src/usbd_ctlreq.c:273:9
	b	.LBB10_29
.Ltmp182:
.LBB10_28:
	.loc	2 276 25                        @ ../ThirdParty/STM32_USB_Device_Library/Core/Src/usbd_ctlreq.c:276:25
	ldr	r0, [sp, #44]
	.loc	2 276 31 is_stmt 0              @ ../ThirdParty/STM32_USB_Device_Library/Core/Src/usbd_ctlreq.c:276:31
	ldr	r1, [sp, #40]
	.loc	2 276 11                        @ ../ThirdParty/STM32_USB_Device_Library/Core/Src/usbd_ctlreq.c:276:11
	bl	USBD_CtlError
	b	.LBB10_29
.Ltmp183:
.LBB10_29:
	.loc	2 278 9 is_stmt 1               @ ../ThirdParty/STM32_USB_Device_Library/Core/Src/usbd_ctlreq.c:278:9
	b	.LBB10_36
.LBB10_30:
.Ltmp184:
	.loc	2 281 13                        @ ../ThirdParty/STM32_USB_Device_Library/Core/Src/usbd_ctlreq.c:281:13
	ldr	r0, [sp, #40]
	.loc	2 281 18 is_stmt 0              @ ../ThirdParty/STM32_USB_Device_Library/Core/Src/usbd_ctlreq.c:281:18
	ldrh	r0, [r0, #2]
.Ltmp185:
	.loc	2 281 13                        @ ../ThirdParty/STM32_USB_Device_Library/Core/Src/usbd_ctlreq.c:281:13
	cbnz	r0, .LBB10_34
	b	.LBB10_31
.LBB10_31:
.Ltmp186:
	.loc	2 283 16 is_stmt 1              @ ../ThirdParty/STM32_USB_Device_Library/Core/Src/usbd_ctlreq.c:283:16
	ldrb.w	r0, [sp, #35]
.Ltmp187:
	.loc	2 283 15 is_stmt 0              @ ../ThirdParty/STM32_USB_Device_Library/Core/Src/usbd_ctlreq.c:283:15
	lsls	r0, r0, #25
	cbz	r0, .LBB10_33
	b	.LBB10_32
.LBB10_32:
.Ltmp188:
	.loc	2 285 40 is_stmt 1              @ ../ThirdParty/STM32_USB_Device_Library/Core/Src/usbd_ctlreq.c:285:40
	ldr	r0, [sp, #44]
	.loc	2 285 46 is_stmt 0              @ ../ThirdParty/STM32_USB_Device_Library/Core/Src/usbd_ctlreq.c:285:46
	ldrb.w	r1, [sp, #35]
	.loc	2 285 19                        @ ../ThirdParty/STM32_USB_Device_Library/Core/Src/usbd_ctlreq.c:285:19
	bl	USBD_LL_ClearStallEP
	.loc	2 286 11 is_stmt 1              @ ../ThirdParty/STM32_USB_Device_Library/Core/Src/usbd_ctlreq.c:286:11
	b	.LBB10_33
.Ltmp189:
.LBB10_33:
	.loc	2 287 36                        @ ../ThirdParty/STM32_USB_Device_Library/Core/Src/usbd_ctlreq.c:287:36
	ldr	r0, [sp, #44]
	.loc	2 287 17 is_stmt 0              @ ../ThirdParty/STM32_USB_Device_Library/Core/Src/usbd_ctlreq.c:287:17
	bl	USBD_CtlSendStatus
	.loc	2 288 31 is_stmt 1              @ ../ThirdParty/STM32_USB_Device_Library/Core/Src/usbd_ctlreq.c:288:31
	ldr	r0, [sp, #44]
	.loc	2 288 37 is_stmt 0              @ ../ThirdParty/STM32_USB_Device_Library/Core/Src/usbd_ctlreq.c:288:37
	ldr.w	r1, [r0, #696]
	.loc	2 288 45                        @ ../ThirdParty/STM32_USB_Device_Library/Core/Src/usbd_ctlreq.c:288:45
	ldr	r2, [r1, #8]
	.loc	2 288 57                        @ ../ThirdParty/STM32_USB_Device_Library/Core/Src/usbd_ctlreq.c:288:57
	ldr	r1, [sp, #40]
	.loc	2 288 31                        @ ../ThirdParty/STM32_USB_Device_Library/Core/Src/usbd_ctlreq.c:288:31
	blx	r2
	.loc	2 289 9 is_stmt 1               @ ../ThirdParty/STM32_USB_Device_Library/Core/Src/usbd_ctlreq.c:289:9
	b	.LBB10_34
.Ltmp190:
.LBB10_34:
	.loc	2 290 9                         @ ../ThirdParty/STM32_USB_Device_Library/Core/Src/usbd_ctlreq.c:290:9
	b	.LBB10_36
.LBB10_35:
	.loc	2 293 23                        @ ../ThirdParty/STM32_USB_Device_Library/Core/Src/usbd_ctlreq.c:293:23
	ldr	r0, [sp, #44]
	.loc	2 293 29 is_stmt 0              @ ../ThirdParty/STM32_USB_Device_Library/Core/Src/usbd_ctlreq.c:293:29
	ldr	r1, [sp, #40]
	.loc	2 293 9                         @ ../ThirdParty/STM32_USB_Device_Library/Core/Src/usbd_ctlreq.c:293:9
	bl	USBD_CtlError
	.loc	2 294 9 is_stmt 1               @ ../ThirdParty/STM32_USB_Device_Library/Core/Src/usbd_ctlreq.c:294:9
	b	.LBB10_36
.Ltmp191:
.LBB10_36:
	.loc	2 296 7                         @ ../ThirdParty/STM32_USB_Device_Library/Core/Src/usbd_ctlreq.c:296:7
	b	.LBB10_67
.LBB10_37:
	.loc	2 299 15                        @ ../ThirdParty/STM32_USB_Device_Library/Core/Src/usbd_ctlreq.c:299:15
	ldr	r0, [sp, #44]
	.loc	2 299 21 is_stmt 0              @ ../ThirdParty/STM32_USB_Device_Library/Core/Src/usbd_ctlreq.c:299:21
	ldrb.w	r0, [r0, #668]
	.loc	2 299 7                         @ ../ThirdParty/STM32_USB_Device_Library/Core/Src/usbd_ctlreq.c:299:7
	mov	r1, r0
	str	r1, [sp, #12]                   @ 4-byte Spill
	cmp	r0, #2
	beq	.LBB10_39
	b	.LBB10_38
.LBB10_38:
	ldr	r0, [sp, #12]                   @ 4-byte Reload
	cmp	r0, #3
	beq	.LBB10_46
	b	.LBB10_64
.LBB10_39:
.Ltmp192:
	.loc	2 302 14 is_stmt 1              @ ../ThirdParty/STM32_USB_Device_Library/Core/Src/usbd_ctlreq.c:302:14
	ldrb.w	r0, [sp, #35]
	.loc	2 302 32 is_stmt 0              @ ../ThirdParty/STM32_USB_Device_Library/Core/Src/usbd_ctlreq.c:302:32
	cbz	r0, .LBB10_42
	b	.LBB10_40
.LBB10_40:
	.loc	2 302 36                        @ ../ThirdParty/STM32_USB_Device_Library/Core/Src/usbd_ctlreq.c:302:36
	ldrb.w	r0, [sp, #35]
.Ltmp193:
	.loc	2 302 13                        @ ../ThirdParty/STM32_USB_Device_Library/Core/Src/usbd_ctlreq.c:302:13
	cmp	r0, #128
	beq	.LBB10_42
	b	.LBB10_41
.LBB10_41:
.Ltmp194:
	.loc	2 304 25 is_stmt 1              @ ../ThirdParty/STM32_USB_Device_Library/Core/Src/usbd_ctlreq.c:304:25
	ldr	r0, [sp, #44]
	.loc	2 304 31 is_stmt 0              @ ../ThirdParty/STM32_USB_Device_Library/Core/Src/usbd_ctlreq.c:304:31
	ldr	r1, [sp, #40]
	.loc	2 304 11                        @ ../ThirdParty/STM32_USB_Device_Library/Core/Src/usbd_ctlreq.c:304:11
	bl	USBD_CtlError
	.loc	2 305 11 is_stmt 1              @ ../ThirdParty/STM32_USB_Device_Library/Core/Src/usbd_ctlreq.c:305:11
	b	.LBB10_65
.Ltmp195:
.LBB10_42:
	.loc	2 307 17                        @ ../ThirdParty/STM32_USB_Device_Library/Core/Src/usbd_ctlreq.c:307:17
	ldrb.w	r0, [sp, #35]
	.loc	2 307 15 is_stmt 0              @ ../ThirdParty/STM32_USB_Device_Library/Core/Src/usbd_ctlreq.c:307:15
	lsls	r0, r0, #24
	cmp	r0, #0
	bpl	.LBB10_44
	b	.LBB10_43
.LBB10_43:
	.loc	2 307 47                        @ ../ThirdParty/STM32_USB_Device_Library/Core/Src/usbd_ctlreq.c:307:47
	ldr	r0, [sp, #44]
	.loc	2 307 59                        @ ../ThirdParty/STM32_USB_Device_Library/Core/Src/usbd_ctlreq.c:307:59
	ldrb.w	r1, [sp, #35]
	.loc	2 307 67                        @ ../ThirdParty/STM32_USB_Device_Library/Core/Src/usbd_ctlreq.c:307:67
	and	r1, r1, #127
	.loc	2 307 47                        @ ../ThirdParty/STM32_USB_Device_Library/Core/Src/usbd_ctlreq.c:307:47
	add.w	r1, r1, r1, lsl #2
	.loc	2 307 53                        @ ../ThirdParty/STM32_USB_Device_Library/Core/Src/usbd_ctlreq.c:307:53
	add.w	r0, r0, r1, lsl #2
	.loc	2 307 47                        @ ../ThirdParty/STM32_USB_Device_Library/Core/Src/usbd_ctlreq.c:307:47
	adds	r0, #20
	.loc	2 307 15                        @ ../ThirdParty/STM32_USB_Device_Library/Core/Src/usbd_ctlreq.c:307:15
	str	r0, [sp, #8]                    @ 4-byte Spill
	b	.LBB10_45
.LBB10_44:
	.loc	2 308 16 is_stmt 1              @ ../ThirdParty/STM32_USB_Device_Library/Core/Src/usbd_ctlreq.c:308:16
	ldr	r0, [sp, #44]
	.loc	2 308 29 is_stmt 0              @ ../ThirdParty/STM32_USB_Device_Library/Core/Src/usbd_ctlreq.c:308:29
	ldrb.w	r1, [sp, #35]
	.loc	2 308 37                        @ ../ThirdParty/STM32_USB_Device_Library/Core/Src/usbd_ctlreq.c:308:37
	and	r1, r1, #127
	.loc	2 308 16                        @ ../ThirdParty/STM32_USB_Device_Library/Core/Src/usbd_ctlreq.c:308:16
	add.w	r1, r1, r1, lsl #2
	.loc	2 308 22                        @ ../ThirdParty/STM32_USB_Device_Library/Core/Src/usbd_ctlreq.c:308:22
	add.w	r0, r0, r1, lsl #2
	.loc	2 308 16                        @ ../ThirdParty/STM32_USB_Device_Library/Core/Src/usbd_ctlreq.c:308:16
	add.w	r0, r0, #340
	.loc	2 307 15 is_stmt 1              @ ../ThirdParty/STM32_USB_Device_Library/Core/Src/usbd_ctlreq.c:307:15
	str	r0, [sp, #8]                    @ 4-byte Spill
	b	.LBB10_45
.LBB10_45:
	ldr	r0, [sp, #8]                    @ 4-byte Reload
	.loc	2 307 13 is_stmt 0              @ ../ThirdParty/STM32_USB_Device_Library/Core/Src/usbd_ctlreq.c:307:13
	str	r0, [sp, #36]
	.loc	2 310 9 is_stmt 1               @ ../ThirdParty/STM32_USB_Device_Library/Core/Src/usbd_ctlreq.c:310:9
	ldr	r1, [sp, #36]
	movs	r0, #0
	.loc	2 310 21 is_stmt 0              @ ../ThirdParty/STM32_USB_Device_Library/Core/Src/usbd_ctlreq.c:310:21
	str	r0, [r1]
	.loc	2 312 32 is_stmt 1              @ ../ThirdParty/STM32_USB_Device_Library/Core/Src/usbd_ctlreq.c:312:32
	ldr	r0, [sp, #44]
	.loc	2 312 50 is_stmt 0              @ ../ThirdParty/STM32_USB_Device_Library/Core/Src/usbd_ctlreq.c:312:50
	ldr	r1, [sp, #36]
	movs	r2, #2
	.loc	2 312 15                        @ ../ThirdParty/STM32_USB_Device_Library/Core/Src/usbd_ctlreq.c:312:15
	bl	USBD_CtlSendData
	.loc	2 313 9 is_stmt 1               @ ../ThirdParty/STM32_USB_Device_Library/Core/Src/usbd_ctlreq.c:313:9
	b	.LBB10_65
.LBB10_46:
.Ltmp196:
	.loc	2 316 14                        @ ../ThirdParty/STM32_USB_Device_Library/Core/Src/usbd_ctlreq.c:316:14
	ldrb.w	r0, [sp, #35]
.Ltmp197:
	.loc	2 316 13 is_stmt 0              @ ../ThirdParty/STM32_USB_Device_Library/Core/Src/usbd_ctlreq.c:316:13
	lsls	r0, r0, #24
	cmp	r0, #0
	bpl	.LBB10_50
	b	.LBB10_47
.LBB10_47:
.Ltmp198:
	.loc	2 318 15 is_stmt 1              @ ../ThirdParty/STM32_USB_Device_Library/Core/Src/usbd_ctlreq.c:318:15
	ldr	r0, [sp, #44]
	.loc	2 318 27 is_stmt 0              @ ../ThirdParty/STM32_USB_Device_Library/Core/Src/usbd_ctlreq.c:318:27
	ldrb.w	r1, [sp, #35]
	.loc	2 318 35                        @ ../ThirdParty/STM32_USB_Device_Library/Core/Src/usbd_ctlreq.c:318:35
	and	r1, r1, #15
	.loc	2 318 15                        @ ../ThirdParty/STM32_USB_Device_Library/Core/Src/usbd_ctlreq.c:318:15
	add.w	r1, r1, r1, lsl #2
	.loc	2 318 21                        @ ../ThirdParty/STM32_USB_Device_Library/Core/Src/usbd_ctlreq.c:318:21
	add.w	r0, r0, r1, lsl #2
	.loc	2 318 43                        @ ../ThirdParty/STM32_USB_Device_Library/Core/Src/usbd_ctlreq.c:318:43
	ldrh	r0, [r0, #36]
.Ltmp199:
	.loc	2 318 15                        @ ../ThirdParty/STM32_USB_Device_Library/Core/Src/usbd_ctlreq.c:318:15
	cbnz	r0, .LBB10_49
	b	.LBB10_48
.LBB10_48:
.Ltmp200:
	.loc	2 320 27 is_stmt 1              @ ../ThirdParty/STM32_USB_Device_Library/Core/Src/usbd_ctlreq.c:320:27
	ldr	r0, [sp, #44]
	.loc	2 320 33 is_stmt 0              @ ../ThirdParty/STM32_USB_Device_Library/Core/Src/usbd_ctlreq.c:320:33
	ldr	r1, [sp, #40]
	.loc	2 320 13                        @ ../ThirdParty/STM32_USB_Device_Library/Core/Src/usbd_ctlreq.c:320:13
	bl	USBD_CtlError
	.loc	2 321 13 is_stmt 1              @ ../ThirdParty/STM32_USB_Device_Library/Core/Src/usbd_ctlreq.c:321:13
	b	.LBB10_65
.Ltmp201:
.LBB10_49:
	.loc	2 323 9                         @ ../ThirdParty/STM32_USB_Device_Library/Core/Src/usbd_ctlreq.c:323:9
	b	.LBB10_53
.Ltmp202:
.LBB10_50:
	.loc	2 326 15                        @ ../ThirdParty/STM32_USB_Device_Library/Core/Src/usbd_ctlreq.c:326:15
	ldr	r0, [sp, #44]
	.loc	2 326 28 is_stmt 0              @ ../ThirdParty/STM32_USB_Device_Library/Core/Src/usbd_ctlreq.c:326:28
	ldrb.w	r1, [sp, #35]
	.loc	2 326 36                        @ ../ThirdParty/STM32_USB_Device_Library/Core/Src/usbd_ctlreq.c:326:36
	and	r1, r1, #15
	.loc	2 326 15                        @ ../ThirdParty/STM32_USB_Device_Library/Core/Src/usbd_ctlreq.c:326:15
	add.w	r1, r1, r1, lsl #2
	.loc	2 326 21                        @ ../ThirdParty/STM32_USB_Device_Library/Core/Src/usbd_ctlreq.c:326:21
	add.w	r0, r0, r1, lsl #2
	.loc	2 326 44                        @ ../ThirdParty/STM32_USB_Device_Library/Core/Src/usbd_ctlreq.c:326:44
	ldrh.w	r0, [r0, #356]
.Ltmp203:
	.loc	2 326 15                        @ ../ThirdParty/STM32_USB_Device_Library/Core/Src/usbd_ctlreq.c:326:15
	cbnz	r0, .LBB10_52
	b	.LBB10_51
.LBB10_51:
.Ltmp204:
	.loc	2 328 27 is_stmt 1              @ ../ThirdParty/STM32_USB_Device_Library/Core/Src/usbd_ctlreq.c:328:27
	ldr	r0, [sp, #44]
	.loc	2 328 33 is_stmt 0              @ ../ThirdParty/STM32_USB_Device_Library/Core/Src/usbd_ctlreq.c:328:33
	ldr	r1, [sp, #40]
	.loc	2 328 13                        @ ../ThirdParty/STM32_USB_Device_Library/Core/Src/usbd_ctlreq.c:328:13
	bl	USBD_CtlError
	.loc	2 329 13 is_stmt 1              @ ../ThirdParty/STM32_USB_Device_Library/Core/Src/usbd_ctlreq.c:329:13
	b	.LBB10_65
.Ltmp205:
.LBB10_52:
	.loc	2 0 13 is_stmt 0                @ ../ThirdParty/STM32_USB_Device_Library/Core/Src/usbd_ctlreq.c:0:13
	b	.LBB10_53
.LBB10_53:
	.loc	2 333 17 is_stmt 1              @ ../ThirdParty/STM32_USB_Device_Library/Core/Src/usbd_ctlreq.c:333:17
	ldrb.w	r0, [sp, #35]
	.loc	2 333 15 is_stmt 0              @ ../ThirdParty/STM32_USB_Device_Library/Core/Src/usbd_ctlreq.c:333:15
	lsls	r0, r0, #24
	cmp	r0, #0
	bpl	.LBB10_55
	b	.LBB10_54
.LBB10_54:
	.loc	2 333 47                        @ ../ThirdParty/STM32_USB_Device_Library/Core/Src/usbd_ctlreq.c:333:47
	ldr	r0, [sp, #44]
	.loc	2 333 59                        @ ../ThirdParty/STM32_USB_Device_Library/Core/Src/usbd_ctlreq.c:333:59
	ldrb.w	r1, [sp, #35]
	.loc	2 333 67                        @ ../ThirdParty/STM32_USB_Device_Library/Core/Src/usbd_ctlreq.c:333:67
	and	r1, r1, #127
	.loc	2 333 47                        @ ../ThirdParty/STM32_USB_Device_Library/Core/Src/usbd_ctlreq.c:333:47
	add.w	r1, r1, r1, lsl #2
	.loc	2 333 53                        @ ../ThirdParty/STM32_USB_Device_Library/Core/Src/usbd_ctlreq.c:333:53
	add.w	r0, r0, r1, lsl #2
	.loc	2 333 47                        @ ../ThirdParty/STM32_USB_Device_Library/Core/Src/usbd_ctlreq.c:333:47
	adds	r0, #20
	.loc	2 333 15                        @ ../ThirdParty/STM32_USB_Device_Library/Core/Src/usbd_ctlreq.c:333:15
	str	r0, [sp, #4]                    @ 4-byte Spill
	b	.LBB10_56
.LBB10_55:
	.loc	2 334 16 is_stmt 1              @ ../ThirdParty/STM32_USB_Device_Library/Core/Src/usbd_ctlreq.c:334:16
	ldr	r0, [sp, #44]
	.loc	2 334 29 is_stmt 0              @ ../ThirdParty/STM32_USB_Device_Library/Core/Src/usbd_ctlreq.c:334:29
	ldrb.w	r1, [sp, #35]
	.loc	2 334 37                        @ ../ThirdParty/STM32_USB_Device_Library/Core/Src/usbd_ctlreq.c:334:37
	and	r1, r1, #127
	.loc	2 334 16                        @ ../ThirdParty/STM32_USB_Device_Library/Core/Src/usbd_ctlreq.c:334:16
	add.w	r1, r1, r1, lsl #2
	.loc	2 334 22                        @ ../ThirdParty/STM32_USB_Device_Library/Core/Src/usbd_ctlreq.c:334:22
	add.w	r0, r0, r1, lsl #2
	.loc	2 334 16                        @ ../ThirdParty/STM32_USB_Device_Library/Core/Src/usbd_ctlreq.c:334:16
	add.w	r0, r0, #340
	.loc	2 333 15 is_stmt 1              @ ../ThirdParty/STM32_USB_Device_Library/Core/Src/usbd_ctlreq.c:333:15
	str	r0, [sp, #4]                    @ 4-byte Spill
	b	.LBB10_56
.LBB10_56:
	ldr	r0, [sp, #4]                    @ 4-byte Reload
	.loc	2 333 13 is_stmt 0              @ ../ThirdParty/STM32_USB_Device_Library/Core/Src/usbd_ctlreq.c:333:13
	str	r0, [sp, #36]
.Ltmp206:
	.loc	2 336 16 is_stmt 1              @ ../ThirdParty/STM32_USB_Device_Library/Core/Src/usbd_ctlreq.c:336:16
	ldrb.w	r0, [sp, #35]
	.loc	2 336 34 is_stmt 0              @ ../ThirdParty/STM32_USB_Device_Library/Core/Src/usbd_ctlreq.c:336:34
	cbz	r0, .LBB10_58
	b	.LBB10_57
.LBB10_57:
	.loc	2 336 38                        @ ../ThirdParty/STM32_USB_Device_Library/Core/Src/usbd_ctlreq.c:336:38
	ldrb.w	r0, [sp, #35]
.Ltmp207:
	.loc	2 336 15                        @ ../ThirdParty/STM32_USB_Device_Library/Core/Src/usbd_ctlreq.c:336:15
	cmp	r0, #128
	bne	.LBB10_59
	b	.LBB10_58
.LBB10_58:
.Ltmp208:
	.loc	2 338 13 is_stmt 1              @ ../ThirdParty/STM32_USB_Device_Library/Core/Src/usbd_ctlreq.c:338:13
	ldr	r1, [sp, #36]
	movs	r0, #0
	.loc	2 338 25 is_stmt 0              @ ../ThirdParty/STM32_USB_Device_Library/Core/Src/usbd_ctlreq.c:338:25
	str	r0, [r1]
	.loc	2 339 11 is_stmt 1              @ ../ThirdParty/STM32_USB_Device_Library/Core/Src/usbd_ctlreq.c:339:11
	b	.LBB10_63
.Ltmp209:
.LBB10_59:
	.loc	2 340 38                        @ ../ThirdParty/STM32_USB_Device_Library/Core/Src/usbd_ctlreq.c:340:38
	ldr	r0, [sp, #44]
	.loc	2 340 44 is_stmt 0              @ ../ThirdParty/STM32_USB_Device_Library/Core/Src/usbd_ctlreq.c:340:44
	ldrb.w	r1, [sp, #35]
	.loc	2 340 20                        @ ../ThirdParty/STM32_USB_Device_Library/Core/Src/usbd_ctlreq.c:340:20
	bl	USBD_LL_IsStallEP
.Ltmp210:
	.loc	2 340 20                        @ ../ThirdParty/STM32_USB_Device_Library/Core/Src/usbd_ctlreq.c:340:20
	cbz	r0, .LBB10_61
	b	.LBB10_60
.LBB10_60:
.Ltmp211:
	.loc	2 342 13 is_stmt 1              @ ../ThirdParty/STM32_USB_Device_Library/Core/Src/usbd_ctlreq.c:342:13
	ldr	r1, [sp, #36]
	movs	r0, #1
	.loc	2 342 25 is_stmt 0              @ ../ThirdParty/STM32_USB_Device_Library/Core/Src/usbd_ctlreq.c:342:25
	str	r0, [r1]
	.loc	2 343 11 is_stmt 1              @ ../ThirdParty/STM32_USB_Device_Library/Core/Src/usbd_ctlreq.c:343:11
	b	.LBB10_62
.Ltmp212:
.LBB10_61:
	.loc	2 346 13                        @ ../ThirdParty/STM32_USB_Device_Library/Core/Src/usbd_ctlreq.c:346:13
	ldr	r1, [sp, #36]
	movs	r0, #0
	.loc	2 346 25 is_stmt 0              @ ../ThirdParty/STM32_USB_Device_Library/Core/Src/usbd_ctlreq.c:346:25
	str	r0, [r1]
	b	.LBB10_62
.Ltmp213:
.LBB10_62:
	.loc	2 0 25                          @ ../ThirdParty/STM32_USB_Device_Library/Core/Src/usbd_ctlreq.c:0:25
	b	.LBB10_63
.LBB10_63:
	.loc	2 349 34 is_stmt 1              @ ../ThirdParty/STM32_USB_Device_Library/Core/Src/usbd_ctlreq.c:349:34
	ldr	r0, [sp, #44]
	.loc	2 349 52 is_stmt 0              @ ../ThirdParty/STM32_USB_Device_Library/Core/Src/usbd_ctlreq.c:349:52
	ldr	r1, [sp, #36]
	movs	r2, #2
	.loc	2 349 17                        @ ../ThirdParty/STM32_USB_Device_Library/Core/Src/usbd_ctlreq.c:349:17
	bl	USBD_CtlSendData
	.loc	2 350 11 is_stmt 1              @ ../ThirdParty/STM32_USB_Device_Library/Core/Src/usbd_ctlreq.c:350:11
	b	.LBB10_65
.LBB10_64:
	.loc	2 353 23                        @ ../ThirdParty/STM32_USB_Device_Library/Core/Src/usbd_ctlreq.c:353:23
	ldr	r0, [sp, #44]
	.loc	2 353 29 is_stmt 0              @ ../ThirdParty/STM32_USB_Device_Library/Core/Src/usbd_ctlreq.c:353:29
	ldr	r1, [sp, #40]
	.loc	2 353 9                         @ ../ThirdParty/STM32_USB_Device_Library/Core/Src/usbd_ctlreq.c:353:9
	bl	USBD_CtlError
	.loc	2 354 9 is_stmt 1               @ ../ThirdParty/STM32_USB_Device_Library/Core/Src/usbd_ctlreq.c:354:9
	b	.LBB10_65
.Ltmp214:
.LBB10_65:
	.loc	2 356 7                         @ ../ThirdParty/STM32_USB_Device_Library/Core/Src/usbd_ctlreq.c:356:7
	b	.LBB10_67
.LBB10_66:
	.loc	2 359 21                        @ ../ThirdParty/STM32_USB_Device_Library/Core/Src/usbd_ctlreq.c:359:21
	ldr	r0, [sp, #44]
	.loc	2 359 27 is_stmt 0              @ ../ThirdParty/STM32_USB_Device_Library/Core/Src/usbd_ctlreq.c:359:27
	ldr	r1, [sp, #40]
	.loc	2 359 7                         @ ../ThirdParty/STM32_USB_Device_Library/Core/Src/usbd_ctlreq.c:359:7
	bl	USBD_CtlError
	.loc	2 360 7 is_stmt 1               @ ../ThirdParty/STM32_USB_Device_Library/Core/Src/usbd_ctlreq.c:360:7
	b	.LBB10_67
.Ltmp215:
.LBB10_67:
	.loc	2 362 5                         @ ../ThirdParty/STM32_USB_Device_Library/Core/Src/usbd_ctlreq.c:362:5
	b	.LBB10_69
.LBB10_68:
	.loc	2 365 19                        @ ../ThirdParty/STM32_USB_Device_Library/Core/Src/usbd_ctlreq.c:365:19
	ldr	r0, [sp, #44]
	.loc	2 365 25 is_stmt 0              @ ../ThirdParty/STM32_USB_Device_Library/Core/Src/usbd_ctlreq.c:365:25
	ldr	r1, [sp, #40]
	.loc	2 365 5                         @ ../ThirdParty/STM32_USB_Device_Library/Core/Src/usbd_ctlreq.c:365:5
	bl	USBD_CtlError
	.loc	2 366 5 is_stmt 1               @ ../ThirdParty/STM32_USB_Device_Library/Core/Src/usbd_ctlreq.c:366:5
	b	.LBB10_69
.Ltmp216:
.LBB10_69:
	.loc	2 369 10                        @ ../ThirdParty/STM32_USB_Device_Library/Core/Src/usbd_ctlreq.c:369:10
	ldrb.w	r0, [sp, #34]
	.loc	2 369 3 epilogue_begin is_stmt 0 @ ../ThirdParty/STM32_USB_Device_Library/Core/Src/usbd_ctlreq.c:369:3
	add	sp, #48
	pop	{r7, pc}
.Ltmp217:
.Lfunc_end10:
	.size	USBD_StdEPReq, .Lfunc_end10-USBD_StdEPReq
	.cfi_endproc
	.cantunwind
	.fnend
                                        @ -- End function
	.section	.text.USBD_ParseSetupRequest,"ax",%progbits
	.hidden	USBD_ParseSetupRequest          @ -- Begin function USBD_ParseSetupRequest
	.globl	USBD_ParseSetupRequest
	.p2align	2
	.type	USBD_ParseSetupRequest,%function
	.code	16                              @ @USBD_ParseSetupRequest
	.thumb_func
USBD_ParseSetupRequest:
.Lfunc_begin11:
	.loc	2 837 0 is_stmt 1               @ ../ThirdParty/STM32_USB_Device_Library/Core/Src/usbd_ctlreq.c:837:0
	.fnstart
	.cfi_startproc
@ %bb.0:
	.save	{r7, lr}
	push	{r7, lr}
	.cfi_def_cfa_offset 8
	.cfi_offset lr, -4
	.cfi_offset r7, -8
	.pad	#16
	sub	sp, #16
	.cfi_def_cfa_offset 24
	str	r0, [sp, #12]
	str	r1, [sp, #8]
.Ltmp218:
	.loc	2 838 20 prologue_end           @ ../ThirdParty/STM32_USB_Device_Library/Core/Src/usbd_ctlreq.c:838:20
	ldr	r0, [sp, #8]
	.loc	2 838 12 is_stmt 0              @ ../ThirdParty/STM32_USB_Device_Library/Core/Src/usbd_ctlreq.c:838:12
	str	r0, [sp, #4]
	.loc	2 840 33 is_stmt 1              @ ../ThirdParty/STM32_USB_Device_Library/Core/Src/usbd_ctlreq.c:840:33
	ldr	r0, [sp, #4]
	.loc	2 840 20 is_stmt 0              @ ../ThirdParty/STM32_USB_Device_Library/Core/Src/usbd_ctlreq.c:840:20
	ldrb	r0, [r0]
	.loc	2 840 3                         @ ../ThirdParty/STM32_USB_Device_Library/Core/Src/usbd_ctlreq.c:840:3
	ldr	r1, [sp, #12]
	.loc	2 840 18                        @ ../ThirdParty/STM32_USB_Device_Library/Core/Src/usbd_ctlreq.c:840:18
	strb	r0, [r1]
	.loc	2 842 8 is_stmt 1               @ ../ThirdParty/STM32_USB_Device_Library/Core/Src/usbd_ctlreq.c:842:8
	ldr	r0, [sp, #4]
	adds	r0, #1
	str	r0, [sp, #4]
	.loc	2 843 32                        @ ../ThirdParty/STM32_USB_Device_Library/Core/Src/usbd_ctlreq.c:843:32
	ldr	r0, [sp, #4]
	.loc	2 843 19 is_stmt 0              @ ../ThirdParty/STM32_USB_Device_Library/Core/Src/usbd_ctlreq.c:843:19
	ldrb	r0, [r0]
	.loc	2 843 3                         @ ../ThirdParty/STM32_USB_Device_Library/Core/Src/usbd_ctlreq.c:843:3
	ldr	r1, [sp, #12]
	.loc	2 843 17                        @ ../ThirdParty/STM32_USB_Device_Library/Core/Src/usbd_ctlreq.c:843:17
	strb	r0, [r1, #1]
	.loc	2 845 8 is_stmt 1               @ ../ThirdParty/STM32_USB_Device_Library/Core/Src/usbd_ctlreq.c:845:8
	ldr	r0, [sp, #4]
	adds	r0, #1
	str	r0, [sp, #4]
	.loc	2 846 26                        @ ../ThirdParty/STM32_USB_Device_Library/Core/Src/usbd_ctlreq.c:846:26
	ldr	r0, [sp, #4]
	.loc	2 846 17 is_stmt 0              @ ../ThirdParty/STM32_USB_Device_Library/Core/Src/usbd_ctlreq.c:846:17
	bl	SWAPBYTE
	.loc	2 846 3                         @ ../ThirdParty/STM32_USB_Device_Library/Core/Src/usbd_ctlreq.c:846:3
	ldr	r1, [sp, #12]
	.loc	2 846 15                        @ ../ThirdParty/STM32_USB_Device_Library/Core/Src/usbd_ctlreq.c:846:15
	strh	r0, [r1, #2]
	.loc	2 848 8 is_stmt 1               @ ../ThirdParty/STM32_USB_Device_Library/Core/Src/usbd_ctlreq.c:848:8
	ldr	r0, [sp, #4]
	adds	r0, #1
	str	r0, [sp, #4]
	.loc	2 849 8                         @ ../ThirdParty/STM32_USB_Device_Library/Core/Src/usbd_ctlreq.c:849:8
	ldr	r0, [sp, #4]
	adds	r0, #1
	str	r0, [sp, #4]
	.loc	2 850 26                        @ ../ThirdParty/STM32_USB_Device_Library/Core/Src/usbd_ctlreq.c:850:26
	ldr	r0, [sp, #4]
	.loc	2 850 17 is_stmt 0              @ ../ThirdParty/STM32_USB_Device_Library/Core/Src/usbd_ctlreq.c:850:17
	bl	SWAPBYTE
	.loc	2 850 3                         @ ../ThirdParty/STM32_USB_Device_Library/Core/Src/usbd_ctlreq.c:850:3
	ldr	r1, [sp, #12]
	.loc	2 850 15                        @ ../ThirdParty/STM32_USB_Device_Library/Core/Src/usbd_ctlreq.c:850:15
	strh	r0, [r1, #4]
	.loc	2 852 8 is_stmt 1               @ ../ThirdParty/STM32_USB_Device_Library/Core/Src/usbd_ctlreq.c:852:8
	ldr	r0, [sp, #4]
	adds	r0, #1
	str	r0, [sp, #4]
	.loc	2 853 8                         @ ../ThirdParty/STM32_USB_Device_Library/Core/Src/usbd_ctlreq.c:853:8
	ldr	r0, [sp, #4]
	adds	r0, #1
	str	r0, [sp, #4]
	.loc	2 854 27                        @ ../ThirdParty/STM32_USB_Device_Library/Core/Src/usbd_ctlreq.c:854:27
	ldr	r0, [sp, #4]
	.loc	2 854 18 is_stmt 0              @ ../ThirdParty/STM32_USB_Device_Library/Core/Src/usbd_ctlreq.c:854:18
	bl	SWAPBYTE
	.loc	2 854 3                         @ ../ThirdParty/STM32_USB_Device_Library/Core/Src/usbd_ctlreq.c:854:3
	ldr	r1, [sp, #12]
	.loc	2 854 16                        @ ../ThirdParty/STM32_USB_Device_Library/Core/Src/usbd_ctlreq.c:854:16
	strh	r0, [r1, #6]
	.loc	2 855 1 epilogue_begin is_stmt 1 @ ../ThirdParty/STM32_USB_Device_Library/Core/Src/usbd_ctlreq.c:855:1
	add	sp, #16
	pop	{r7, pc}
.Ltmp219:
.Lfunc_end11:
	.size	USBD_ParseSetupRequest, .Lfunc_end11-USBD_ParseSetupRequest
	.cfi_endproc
	.cantunwind
	.fnend
                                        @ -- End function
	.section	.text.SWAPBYTE,"ax",%progbits
	.p2align	2                               @ -- Begin function SWAPBYTE
	.type	SWAPBYTE,%function
	.code	16                              @ @SWAPBYTE
	.thumb_func
SWAPBYTE:
.Lfunc_begin12:
	.loc	3 309 0                         @ ../ThirdParty/STM32_USB_Device_Library/Core/Inc/usbd_def.h:309:0
	.fnstart
	.cfi_startproc
@ %bb.0:
	.pad	#16
	sub	sp, #16
	.cfi_def_cfa_offset 16
	str	r0, [sp, #12]
.Ltmp220:
	.loc	3 311 21 prologue_end           @ ../ThirdParty/STM32_USB_Device_Library/Core/Inc/usbd_def.h:311:21
	ldr	r0, [sp, #12]
	.loc	3 311 12 is_stmt 0              @ ../ThirdParty/STM32_USB_Device_Library/Core/Inc/usbd_def.h:311:12
	str	r0, [sp]
	.loc	3 313 24 is_stmt 1              @ ../ThirdParty/STM32_USB_Device_Library/Core/Inc/usbd_def.h:313:24
	ldr	r0, [sp]
	.loc	3 313 12 is_stmt 0              @ ../ThirdParty/STM32_USB_Device_Library/Core/Inc/usbd_def.h:313:12
	ldrb	r0, [r0]
	.loc	3 313 10                        @ ../ThirdParty/STM32_USB_Device_Library/Core/Inc/usbd_def.h:313:10
	strh.w	r0, [sp, #8]
	.loc	3 314 9 is_stmt 1               @ ../ThirdParty/STM32_USB_Device_Library/Core/Inc/usbd_def.h:314:9
	ldr	r0, [sp]
	adds	r0, #1
	str	r0, [sp]
	.loc	3 315 24                        @ ../ThirdParty/STM32_USB_Device_Library/Core/Inc/usbd_def.h:315:24
	ldr	r0, [sp]
	.loc	3 315 12 is_stmt 0              @ ../ThirdParty/STM32_USB_Device_Library/Core/Inc/usbd_def.h:315:12
	ldrb	r0, [r0]
	.loc	3 315 10                        @ ../ThirdParty/STM32_USB_Device_Library/Core/Inc/usbd_def.h:315:10
	strh.w	r0, [sp, #6]
	.loc	3 317 15 is_stmt 1              @ ../ThirdParty/STM32_USB_Device_Library/Core/Inc/usbd_def.h:317:15
	ldrh.w	r1, [sp, #6]
	.loc	3 317 30 is_stmt 0              @ ../ThirdParty/STM32_USB_Device_Library/Core/Inc/usbd_def.h:317:30
	ldrh.w	r0, [sp, #8]
	.loc	3 317 28                        @ ../ThirdParty/STM32_USB_Device_Library/Core/Inc/usbd_def.h:317:28
	orr.w	r0, r0, r1, lsl #8
	.loc	3 317 12                        @ ../ThirdParty/STM32_USB_Device_Library/Core/Inc/usbd_def.h:317:12
	strh.w	r0, [sp, #10]
	.loc	3 319 10 is_stmt 1              @ ../ThirdParty/STM32_USB_Device_Library/Core/Inc/usbd_def.h:319:10
	ldrh.w	r0, [sp, #10]
	.loc	3 319 3 epilogue_begin is_stmt 0 @ ../ThirdParty/STM32_USB_Device_Library/Core/Inc/usbd_def.h:319:3
	add	sp, #16
	bx	lr
.Ltmp221:
.Lfunc_end12:
	.size	SWAPBYTE, .Lfunc_end12-SWAPBYTE
	.cfi_endproc
	.cantunwind
	.fnend
                                        @ -- End function
	.section	.text.USBD_GetString,"ax",%progbits
	.hidden	USBD_GetString                  @ -- Begin function USBD_GetString
	.globl	USBD_GetString
	.p2align	2
	.type	USBD_GetString,%function
	.code	16                              @ @USBD_GetString
	.thumb_func
USBD_GetString:
.Lfunc_begin13:
	.loc	2 883 0 is_stmt 1               @ ../ThirdParty/STM32_USB_Device_Library/Core/Src/usbd_ctlreq.c:883:0
	.fnstart
	.cfi_startproc
@ %bb.0:
	.save	{r7, lr}
	push	{r7, lr}
	.cfi_def_cfa_offset 8
	.cfi_offset lr, -4
	.cfi_offset r7, -8
	.pad	#24
	sub	sp, #24
	.cfi_def_cfa_offset 32
	str	r0, [sp, #20]
	str	r1, [sp, #16]
	str	r2, [sp, #12]
	movs	r0, #0
.Ltmp222:
	.loc	2 884 11 prologue_end           @ ../ThirdParty/STM32_USB_Device_Library/Core/Src/usbd_ctlreq.c:884:11
	strb.w	r0, [sp, #11]
.Ltmp223:
	.loc	2 887 7                         @ ../ThirdParty/STM32_USB_Device_Library/Core/Src/usbd_ctlreq.c:887:7
	ldr	r0, [sp, #20]
.Ltmp224:
	.loc	2 887 7 is_stmt 0               @ ../ThirdParty/STM32_USB_Device_Library/Core/Src/usbd_ctlreq.c:887:7
	cbnz	r0, .LBB13_2
	b	.LBB13_1
.LBB13_1:
.Ltmp225:
	.loc	2 889 5 is_stmt 1               @ ../ThirdParty/STM32_USB_Device_Library/Core/Src/usbd_ctlreq.c:889:5
	b	.LBB13_5
.Ltmp226:
.LBB13_2:
	.loc	2 892 11                        @ ../ThirdParty/STM32_USB_Device_Library/Core/Src/usbd_ctlreq.c:892:11
	ldr	r0, [sp, #20]
	.loc	2 892 9 is_stmt 0               @ ../ThirdParty/STM32_USB_Device_Library/Core/Src/usbd_ctlreq.c:892:9
	str	r0, [sp, #4]
	.loc	2 893 33 is_stmt 1              @ ../ThirdParty/STM32_USB_Device_Library/Core/Src/usbd_ctlreq.c:893:33
	ldr	r0, [sp, #4]
	.loc	2 893 21 is_stmt 0              @ ../ThirdParty/STM32_USB_Device_Library/Core/Src/usbd_ctlreq.c:893:21
	bl	USBD_GetLen
	mov	r1, r0
	movs	r0, #2
	.loc	2 893 46                        @ ../ThirdParty/STM32_USB_Device_Library/Core/Src/usbd_ctlreq.c:893:46
	add.w	r0, r0, r1, lsl #1
	.loc	2 893 4                         @ ../ThirdParty/STM32_USB_Device_Library/Core/Src/usbd_ctlreq.c:893:4
	ldr	r1, [sp, #12]
	.loc	2 893 8                         @ ../ThirdParty/STM32_USB_Device_Library/Core/Src/usbd_ctlreq.c:893:8
	strh	r0, [r1]
	.loc	2 895 30 is_stmt 1              @ ../ThirdParty/STM32_USB_Device_Library/Core/Src/usbd_ctlreq.c:895:30
	ldr	r0, [sp, #12]
	.loc	2 895 18 is_stmt 0              @ ../ThirdParty/STM32_USB_Device_Library/Core/Src/usbd_ctlreq.c:895:18
	ldrb	r0, [r0]
	.loc	2 895 3                         @ ../ThirdParty/STM32_USB_Device_Library/Core/Src/usbd_ctlreq.c:895:3
	ldr	r1, [sp, #16]
	.loc	2 895 11                        @ ../ThirdParty/STM32_USB_Device_Library/Core/Src/usbd_ctlreq.c:895:11
	ldrb.w	r2, [sp, #11]
	.loc	2 895 16                        @ ../ThirdParty/STM32_USB_Device_Library/Core/Src/usbd_ctlreq.c:895:16
	strb	r0, [r1, r2]
	.loc	2 896 6 is_stmt 1               @ ../ThirdParty/STM32_USB_Device_Library/Core/Src/usbd_ctlreq.c:896:6
	ldrb.w	r0, [sp, #11]
	adds	r0, #1
	strb.w	r0, [sp, #11]
	.loc	2 897 3                         @ ../ThirdParty/STM32_USB_Device_Library/Core/Src/usbd_ctlreq.c:897:3
	ldr	r1, [sp, #16]
	.loc	2 897 11 is_stmt 0              @ ../ThirdParty/STM32_USB_Device_Library/Core/Src/usbd_ctlreq.c:897:11
	ldrb.w	r2, [sp, #11]
	movs	r0, #3
	.loc	2 897 16                        @ ../ThirdParty/STM32_USB_Device_Library/Core/Src/usbd_ctlreq.c:897:16
	strb	r0, [r1, r2]
	.loc	2 898 6 is_stmt 1               @ ../ThirdParty/STM32_USB_Device_Library/Core/Src/usbd_ctlreq.c:898:6
	ldrb.w	r0, [sp, #11]
	adds	r0, #1
	strb.w	r0, [sp, #11]
	.loc	2 900 3                         @ ../ThirdParty/STM32_USB_Device_Library/Core/Src/usbd_ctlreq.c:900:3
	b	.LBB13_3
.LBB13_3:                               @ =>This Inner Loop Header: Depth=1
	.loc	2 900 11 is_stmt 0              @ ../ThirdParty/STM32_USB_Device_Library/Core/Src/usbd_ctlreq.c:900:11
	ldr	r0, [sp, #4]
	.loc	2 900 10                        @ ../ThirdParty/STM32_USB_Device_Library/Core/Src/usbd_ctlreq.c:900:10
	ldrb	r0, [r0]
	.loc	2 900 3                         @ ../ThirdParty/STM32_USB_Device_Library/Core/Src/usbd_ctlreq.c:900:3
	cbz	r0, .LBB13_5
	b	.LBB13_4
.LBB13_4:                               @   in Loop: Header=BB13_3 Depth=1
.Ltmp227:
	.loc	2 902 21 is_stmt 1              @ ../ThirdParty/STM32_USB_Device_Library/Core/Src/usbd_ctlreq.c:902:21
	ldr	r0, [sp, #4]
	.loc	2 902 20 is_stmt 0              @ ../ThirdParty/STM32_USB_Device_Library/Core/Src/usbd_ctlreq.c:902:20
	ldrb	r0, [r0]
	.loc	2 902 5                         @ ../ThirdParty/STM32_USB_Device_Library/Core/Src/usbd_ctlreq.c:902:5
	ldr	r1, [sp, #16]
	.loc	2 902 13                        @ ../ThirdParty/STM32_USB_Device_Library/Core/Src/usbd_ctlreq.c:902:13
	ldrb.w	r2, [sp, #11]
	.loc	2 902 18                        @ ../ThirdParty/STM32_USB_Device_Library/Core/Src/usbd_ctlreq.c:902:18
	strb	r0, [r1, r2]
	.loc	2 903 10 is_stmt 1              @ ../ThirdParty/STM32_USB_Device_Library/Core/Src/usbd_ctlreq.c:903:10
	ldr	r0, [sp, #4]
	adds	r0, #1
	str	r0, [sp, #4]
	.loc	2 904 8                         @ ../ThirdParty/STM32_USB_Device_Library/Core/Src/usbd_ctlreq.c:904:8
	ldrb.w	r0, [sp, #11]
	adds	r0, #1
	strb.w	r0, [sp, #11]
	.loc	2 906 5                         @ ../ThirdParty/STM32_USB_Device_Library/Core/Src/usbd_ctlreq.c:906:5
	ldr	r1, [sp, #16]
	.loc	2 906 13 is_stmt 0              @ ../ThirdParty/STM32_USB_Device_Library/Core/Src/usbd_ctlreq.c:906:13
	ldrb.w	r2, [sp, #11]
	movs	r0, #0
	.loc	2 906 18                        @ ../ThirdParty/STM32_USB_Device_Library/Core/Src/usbd_ctlreq.c:906:18
	strb	r0, [r1, r2]
	.loc	2 907 8 is_stmt 1               @ ../ThirdParty/STM32_USB_Device_Library/Core/Src/usbd_ctlreq.c:907:8
	ldrb.w	r0, [sp, #11]
	adds	r0, #1
	strb.w	r0, [sp, #11]
.Ltmp228:
	.loc	2 900 3                         @ ../ThirdParty/STM32_USB_Device_Library/Core/Src/usbd_ctlreq.c:900:3
	b	.LBB13_3
.LBB13_5:
	.loc	2 909 1 epilogue_begin          @ ../ThirdParty/STM32_USB_Device_Library/Core/Src/usbd_ctlreq.c:909:1
	add	sp, #24
	pop	{r7, pc}
.Ltmp229:
.Lfunc_end13:
	.size	USBD_GetString, .Lfunc_end13-USBD_GetString
	.cfi_endproc
	.cantunwind
	.fnend
                                        @ -- End function
	.section	.text.USBD_GetLen,"ax",%progbits
	.p2align	2                               @ -- Begin function USBD_GetLen
	.type	USBD_GetLen,%function
	.code	16                              @ @USBD_GetLen
	.thumb_func
USBD_GetLen:
.Lfunc_begin14:
	.loc	2 918 0                         @ ../ThirdParty/STM32_USB_Device_Library/Core/Src/usbd_ctlreq.c:918:0
	.fnstart
	.cfi_startproc
@ %bb.0:
	.pad	#12
	sub	sp, #12
	.cfi_def_cfa_offset 12
	str	r0, [sp, #8]
	movs	r0, #0
.Ltmp230:
	.loc	2 919 12 prologue_end           @ ../ThirdParty/STM32_USB_Device_Library/Core/Src/usbd_ctlreq.c:919:12
	strb.w	r0, [sp, #7]
	.loc	2 920 20                        @ ../ThirdParty/STM32_USB_Device_Library/Core/Src/usbd_ctlreq.c:920:20
	ldr	r0, [sp, #8]
	.loc	2 920 12 is_stmt 0              @ ../ThirdParty/STM32_USB_Device_Library/Core/Src/usbd_ctlreq.c:920:12
	str	r0, [sp]
	.loc	2 922 3 is_stmt 1               @ ../ThirdParty/STM32_USB_Device_Library/Core/Src/usbd_ctlreq.c:922:3
	b	.LBB14_1
.LBB14_1:                               @ =>This Inner Loop Header: Depth=1
	.loc	2 922 11 is_stmt 0              @ ../ThirdParty/STM32_USB_Device_Library/Core/Src/usbd_ctlreq.c:922:11
	ldr	r0, [sp]
	.loc	2 922 10                        @ ../ThirdParty/STM32_USB_Device_Library/Core/Src/usbd_ctlreq.c:922:10
	ldrb	r0, [r0]
	.loc	2 922 3                         @ ../ThirdParty/STM32_USB_Device_Library/Core/Src/usbd_ctlreq.c:922:3
	cbz	r0, .LBB14_3
	b	.LBB14_2
.LBB14_2:                               @   in Loop: Header=BB14_1 Depth=1
.Ltmp231:
	.loc	2 924 8 is_stmt 1               @ ../ThirdParty/STM32_USB_Device_Library/Core/Src/usbd_ctlreq.c:924:8
	ldrb.w	r0, [sp, #7]
	adds	r0, #1
	strb.w	r0, [sp, #7]
	.loc	2 925 10                        @ ../ThirdParty/STM32_USB_Device_Library/Core/Src/usbd_ctlreq.c:925:10
	ldr	r0, [sp]
	adds	r0, #1
	str	r0, [sp]
.Ltmp232:
	.loc	2 922 3                         @ ../ThirdParty/STM32_USB_Device_Library/Core/Src/usbd_ctlreq.c:922:3
	b	.LBB14_1
.LBB14_3:
	.loc	2 928 10                        @ ../ThirdParty/STM32_USB_Device_Library/Core/Src/usbd_ctlreq.c:928:10
	ldrb.w	r0, [sp, #7]
	.loc	2 928 3 epilogue_begin is_stmt 0 @ ../ThirdParty/STM32_USB_Device_Library/Core/Src/usbd_ctlreq.c:928:3
	add	sp, #12
	bx	lr
.Ltmp233:
.Lfunc_end14:
	.size	USBD_GetLen, .Lfunc_end14-USBD_GetLen
	.cfi_endproc
	.cantunwind
	.fnend
                                        @ -- End function
	.type	USBD_SetConfig.cfgidx,%object   @ @USBD_SetConfig.cfgidx
	.section	.bss.USBD_SetConfig.cfgidx,"aw",%nobits
USBD_SetConfig.cfgidx:
	.byte	0                               @ 0x0
	.size	USBD_SetConfig.cfgidx, 1

	.section	".note.GNU-stack","",%progbits
	.eabi_attribute	30, 6	@ Tag_ABI_optimization_goals
	.ARM_attribute	16, 1	@ Tag_AV_eba